	.file	"main.cpp"
                                        # Start of file scope inline assembly
	.globl	_ZSt21ios_base_library_initv

                                        # End of file scope inline assembly
	.text
	.globl	_Z10RealMemCmpPKcS0_m           # -- Begin function _Z10RealMemCmpPKcS0_m
	.p2align	5
	.type	_Z10RealMemCmpPKcS0_m,@function
_Z10RealMemCmpPKcS0_m:                  # @_Z10RealMemCmpPKcS0_m
# %bb.0:                                # %entry
	pcaddu18i	$t8, %call36(memcmp)
	jr	$t8
.Lfunc_end0:
	.size	_Z10RealMemCmpPKcS0_m, .Lfunc_end0-_Z10RealMemCmpPKcS0_m
                                        # -- End function
	.section	.text._Z9BM_MemCmpILi1E6EqZero4NoneEvRN9benchmark5StateE,"axG",@progbits,_Z9BM_MemCmpILi1E6EqZero4NoneEvRN9benchmark5StateE,comdat
	.weak	_Z9BM_MemCmpILi1E6EqZero4NoneEvRN9benchmark5StateE # -- Begin function _Z9BM_MemCmpILi1E6EqZero4NoneEvRN9benchmark5StateE
	.p2align	5
	.type	_Z9BM_MemCmpILi1E6EqZero4NoneEvRN9benchmark5StateE,@function
_Z9BM_MemCmpILi1E6EqZero4NoneEvRN9benchmark5StateE: # @_Z9BM_MemCmpILi1E6EqZero4NoneEvRN9benchmark5StateE
.Lfunc_begin0:
	.cfi_startproc
	.cfi_personality 155, DW.ref.__gxx_personality_v0
	.cfi_lsda 27, .Lexception0
# %bb.0:                                # %entry
	addi.d	$sp, $sp, -128
	.cfi_def_cfa_offset 128
	st.d	$ra, $sp, 120                   # 8-byte Folded Spill
	st.d	$fp, $sp, 112                   # 8-byte Folded Spill
	st.d	$s0, $sp, 104                   # 8-byte Folded Spill
	st.d	$s1, $sp, 96                    # 8-byte Folded Spill
	st.d	$s2, $sp, 88                    # 8-byte Folded Spill
	st.d	$s3, $sp, 80                    # 8-byte Folded Spill
	st.d	$s4, $sp, 72                    # 8-byte Folded Spill
	fst.d	$fs0, $sp, 64                   # 8-byte Folded Spill
	.cfi_offset 1, -8
	.cfi_offset 22, -16
	.cfi_offset 23, -24
	.cfi_offset 24, -32
	.cfi_offset 25, -40
	.cfi_offset 26, -48
	.cfi_offset 27, -56
	.cfi_offset 56, -64
	move	$s1, $a0
	lu12i.w	$s0, 1
	move	$a0, $s0
	pcaddu18i	$ra, %call36(_Znwm)
	jirl	$ra, $ra, 0
	move	$fp, $a0
	move	$a1, $zero
	move	$a2, $s0
	pcaddu18i	$ra, %call36(memset)
	jirl	$ra, $ra, 0
.Ltmp0:                                 # EH_LABEL
	move	$a0, $s0
	pcaddu18i	$ra, %call36(_Znwm)
	jirl	$ra, $ra, 0
.Ltmp1:                                 # EH_LABEL
# %bb.1:                                # %invoke.cont3
	move	$s0, $a0
	lu12i.w	$s2, 1
	move	$a1, $zero
	move	$a2, $s2
	pcaddu18i	$ra, %call36(memset)
	jirl	$ra, $ra, 0
	st.d	$fp, $sp, 16
	st.d	$s0, $sp, 8
	ori	$a2, $zero, 1
	move	$a0, $fp
	move	$a1, $s0
	pcaddu18i	$ra, %call36(_Z10RealMemCmpPKcS0_m)
	jirl	$ra, $ra, 0
	bnez	$a0, .LBB1_18
# %bb.2:                                # %if.end
	addi.d	$a0, $sp, 16
	#APP
	#NO_APP
	addi.d	$a0, $sp, 8
	#APP
	#NO_APP
	ld.w	$s4, $s1, 28
	ld.d	$s3, $s1, 16
.Ltmp18:                                # EH_LABEL
	move	$a0, $s1
	pcaddu18i	$ra, %call36(_ZN9benchmark5State16StartKeepRunningEv)
	jirl	$ra, $ra, 0
.Ltmp19:                                # EH_LABEL
# %bb.3:                                # %for.cond40.preheader
	bnez	$s4, .LBB1_9
# %bb.4:                                # %for.cond40.preheader
	beqz	$s3, .LBB1_9
# %bb.5:
	lu12i.w	$a0, -1
	.p2align	4, , 16
.LBB1_6:                                # %for.body44
                                        # =>This Loop Header: Depth=1
                                        #     Child Loop BB1_7 Depth 2
	#MEMBARRIER
	move	$a1, $a0
	.p2align	4, , 16
.LBB1_7:                                # %for.body55
                                        #   Parent Loop BB1_6 Depth=1
                                        # =>  This Inner Loop Header: Depth=2
	ld.d	$a2, $sp, 16
	ld.d	$a3, $sp, 8
	add.d	$a2, $a2, $a1
	add.d	$a3, $a3, $a1
	ldx.bu	$a2, $a2, $s2
	ldx.bu	$a3, $a3, $s2
	xor	$a2, $a2, $a3
	sltui	$a2, $a2, 1
	st.b	$a2, $sp, 24
	#APP
	#NO_APP
	addi.d	$a1, $a1, 1
	bnez	$a1, .LBB1_7
# %bb.8:                                # %for.cond.cleanup54
                                        #   in Loop: Header=BB1_6 Depth=1
	addi.d	$s3, $s3, -1
	bnez	$s3, .LBB1_6
.LBB1_9:                                # %if.end.i
.Ltmp20:                                # EH_LABEL
	move	$a0, $s1
	pcaddu18i	$ra, %call36(_ZN9benchmark5State17FinishKeepRunningEv)
	jirl	$ra, $ra, 0
.Ltmp21:                                # EH_LABEL
# %bb.10:                               # %for.cond.cleanup43
	ld.bu	$a0, $s1, 24
	beqz	$a0, .LBB1_17
# %bb.11:                               # %if.end.i26
	ld.d	$a0, $s1, 16
	ld.d	$a1, $s1, 0
	ld.d	$a2, $s1, 8
	sub.d	$a0, $a0, $a1
	add.d	$a0, $a0, $a2
	slli.d	$a0, $a0, 12
	movgr2fr.d	$fa0, $a0
	ffint.d.l	$fs0, $fa0
.LBB1_12:                               # %_ZNK9benchmark5State10iterationsEv.exit
	addi.d	$s2, $sp, 40
	st.d	$s2, $sp, 24
	ori	$a0, $zero, 16
	st.d	$a0, $sp, 56
.Ltmp23:                                # EH_LABEL
	addi.d	$a0, $sp, 24
	addi.d	$a1, $sp, 56
	move	$a2, $zero
	pcaddu18i	$ra, %call36(_ZNSt7__cxx1112basic_stringIcSt11char_traitsIcESaIcEE9_M_createERmm)
	jirl	$ra, $ra, 0
.Ltmp24:                                # EH_LABEL
# %bb.13:                               # %call2.i5.i.noexc
	ld.d	$a1, $sp, 56
	pcalau12i	$a2, %pc_hi20(.L.str.341)
	vld	$vr0, $a2, %pc_lo12(.L.str.341)
	st.d	$a0, $sp, 24
	st.d	$a1, $sp, 40
	vst	$vr0, $a0, 0
	ld.d	$a0, $sp, 24
	st.d	$a1, $sp, 32
	stx.b	$zero, $a0, $a1
	addi.d	$a0, $s1, 64
.Ltmp26:                                # EH_LABEL
	addi.d	$a1, $sp, 24
	pcaddu18i	$ra, %call36(_ZNSt3mapINSt7__cxx1112basic_stringIcSt11char_traitsIcESaIcEEEN9benchmark7CounterESt4lessIS5_ESaISt4pairIKS5_S7_EEEixEOS5_)
	jirl	$ra, $ra, 0
.Ltmp27:                                # EH_LABEL
# %bb.14:                               # %_ZN9benchmark5State17SetBytesProcessedEl.exit
	fst.d	$fs0, $a0, 0
	ld.d	$a1, $sp, 24
	ori	$a2, $zero, 1
	lu32i.d	$a2, 1024
	st.d	$a2, $a0, 8
	beq	$a1, $s2, .LBB1_16
# %bb.15:                               # %if.then.i.i69
	move	$a0, $a1
	pcaddu18i	$ra, %call36(_ZdlPv)
	jirl	$ra, $ra, 0
.LBB1_16:                               # %_ZNSt6vectorIcSaIcEED2Ev.exit80
	move	$a0, $s0
	pcaddu18i	$ra, %call36(_ZdlPv)
	jirl	$ra, $ra, 0
	move	$a0, $fp
	pcaddu18i	$ra, %call36(_ZdlPv)
	jirl	$ra, $ra, 0
	fld.d	$fs0, $sp, 64                   # 8-byte Folded Reload
	ld.d	$s4, $sp, 72                    # 8-byte Folded Reload
	ld.d	$s3, $sp, 80                    # 8-byte Folded Reload
	ld.d	$s2, $sp, 88                    # 8-byte Folded Reload
	ld.d	$s1, $sp, 96                    # 8-byte Folded Reload
	ld.d	$s0, $sp, 104                   # 8-byte Folded Reload
	ld.d	$fp, $sp, 112                   # 8-byte Folded Reload
	ld.d	$ra, $sp, 120                   # 8-byte Folded Reload
	addi.d	$sp, $sp, 128
	ret
.LBB1_17:
	movgr2fr.d	$fs0, $zero
	b	.LBB1_12
.LBB1_18:                               # %if.then
.Ltmp3:                                 # EH_LABEL
	pcalau12i	$a0, %got_pc_hi20(_ZSt4cerr)
	ld.d	$a0, $a0, %got_pc_lo12(_ZSt4cerr)
	pcalau12i	$a1, %pc_hi20(.L.str.337)
	addi.d	$a1, $a1, %pc_lo12(.L.str.337)
	ori	$a2, $zero, 25
	pcaddu18i	$ra, %call36(_ZSt16__ostream_insertIcSt11char_traitsIcEERSt13basic_ostreamIT_T0_ES6_PKS3_l)
	jirl	$ra, $ra, 0
.Ltmp4:                                 # EH_LABEL
# %bb.19:                               # %invoke.cont18
.Ltmp5:                                 # EH_LABEL
	pcalau12i	$a0, %got_pc_hi20(_ZSt4cerr)
	ld.d	$a0, $a0, %got_pc_lo12(_ZSt4cerr)
	pcalau12i	$a1, %pc_hi20(_ZN6EqZero8kDisplayE)
	addi.d	$a1, $a1, %pc_lo12(_ZN6EqZero8kDisplayE)
	ori	$a2, $zero, 6
	pcaddu18i	$ra, %call36(_ZSt16__ostream_insertIcSt11char_traitsIcEERSt13basic_ostreamIT_T0_ES6_PKS3_l)
	jirl	$ra, $ra, 0
.Ltmp6:                                 # EH_LABEL
# %bb.20:                               # %invoke.cont20
.Ltmp7:                                 # EH_LABEL
	pcalau12i	$a0, %got_pc_hi20(_ZSt4cerr)
	ld.d	$a0, $a0, %got_pc_lo12(_ZSt4cerr)
	pcalau12i	$a1, %pc_hi20(.L.str.338)
	addi.d	$a1, $a1, %pc_lo12(.L.str.338)
	ori	$a2, $zero, 5
	pcaddu18i	$ra, %call36(_ZSt16__ostream_insertIcSt11char_traitsIcEERSt13basic_ostreamIT_T0_ES6_PKS3_l)
	jirl	$ra, $ra, 0
.Ltmp8:                                 # EH_LABEL
# %bb.21:                               # %invoke.cont22
.Ltmp9:                                 # EH_LABEL
	pcalau12i	$a0, %got_pc_hi20(_ZSt4cerr)
	ld.d	$a0, $a0, %got_pc_lo12(_ZSt4cerr)
	pcalau12i	$a1, %pc_hi20(_ZN4None8kDisplayE)
	addi.d	$a1, $a1, %pc_lo12(_ZN4None8kDisplayE)
	ori	$a2, $zero, 4
	pcaddu18i	$ra, %call36(_ZSt16__ostream_insertIcSt11char_traitsIcEERSt13basic_ostreamIT_T0_ES6_PKS3_l)
	jirl	$ra, $ra, 0
.Ltmp10:                                # EH_LABEL
# %bb.22:                               # %invoke.cont24
.Ltmp11:                                # EH_LABEL
	pcalau12i	$a0, %got_pc_hi20(_ZSt4cerr)
	ld.d	$a0, $a0, %got_pc_lo12(_ZSt4cerr)
	pcalau12i	$a1, %pc_hi20(.L.str.339)
	addi.d	$a1, $a1, %pc_lo12(.L.str.339)
	ori	$a2, $zero, 7
	pcaddu18i	$ra, %call36(_ZSt16__ostream_insertIcSt11char_traitsIcEERSt13basic_ostreamIT_T0_ES6_PKS3_l)
	jirl	$ra, $ra, 0
.Ltmp12:                                # EH_LABEL
# %bb.23:                               # %invoke.cont26
.Ltmp13:                                # EH_LABEL
	pcalau12i	$a0, %got_pc_hi20(_ZSt4cerr)
	ld.d	$a0, $a0, %got_pc_lo12(_ZSt4cerr)
	ori	$a1, $zero, 1
	pcaddu18i	$ra, %call36(_ZNSolsEi)
	jirl	$ra, $ra, 0
.Ltmp14:                                # EH_LABEL
# %bb.24:                               # %invoke.cont28
.Ltmp15:                                # EH_LABEL
	pcaddu18i	$ra, %call36(_ZSt4endlIcSt11char_traitsIcEERSt13basic_ostreamIT_T0_ES6_)
	jirl	$ra, $ra, 0
.Ltmp16:                                # EH_LABEL
# %bb.25:                               # %invoke.cont30
	ori	$a0, $zero, 1
	pcaddu18i	$ra, %call36(exit)
	jirl	$ra, $ra, 0
.LBB1_26:                               # %lpad9
.Ltmp17:                                # EH_LABEL
	b	.LBB1_32
.LBB1_27:                               # %lpad4.i
.Ltmp28:                                # EH_LABEL
	ld.d	$a1, $sp, 24
	move	$s1, $a0
	beq	$a1, $s2, .LBB1_33
# %bb.28:                               # %if.then.i.i66
	move	$a0, $a1
	pcaddu18i	$ra, %call36(_ZdlPv)
	jirl	$ra, $ra, 0
	b	.LBB1_33
.LBB1_29:                               # %lpad.i
.Ltmp25:                                # EH_LABEL
	b	.LBB1_32
.LBB1_30:                               # %lpad2
.Ltmp2:                                 # EH_LABEL
	move	$s1, $a0
	move	$a0, $fp
	pcaddu18i	$ra, %call36(_ZdlPv)
	jirl	$ra, $ra, 0
	move	$a0, $s1
	pcaddu18i	$ra, %call36(_Unwind_Resume)
	jirl	$ra, $ra, 0
.LBB1_31:                               # %lpad37
.Ltmp22:                                # EH_LABEL
.LBB1_32:                               # %_ZNSt6vectorIcSaIcEED2Ev.exit84
	move	$s1, $a0
.LBB1_33:                               # %_ZNSt6vectorIcSaIcEED2Ev.exit84
	move	$a0, $s0
	pcaddu18i	$ra, %call36(_ZdlPv)
	jirl	$ra, $ra, 0
	move	$a0, $fp
	pcaddu18i	$ra, %call36(_ZdlPv)
	jirl	$ra, $ra, 0
	move	$a0, $s1
	pcaddu18i	$ra, %call36(_Unwind_Resume)
	jirl	$ra, $ra, 0
.Lfunc_end1:
	.size	_Z9BM_MemCmpILi1E6EqZero4NoneEvRN9benchmark5StateE, .Lfunc_end1-_Z9BM_MemCmpILi1E6EqZero4NoneEvRN9benchmark5StateE
	.cfi_endproc
	.section	.gcc_except_table._Z9BM_MemCmpILi1E6EqZero4NoneEvRN9benchmark5StateE,"aG",@progbits,_Z9BM_MemCmpILi1E6EqZero4NoneEvRN9benchmark5StateE,comdat
	.p2align	2, 0x0
GCC_except_table1:
.Lexception0:
	.byte	255                             # @LPStart Encoding = omit
	.byte	255                             # @TType Encoding = omit
	.byte	1                               # Call site Encoding = uleb128
	.uleb128 .Lcst_end0-.Lcst_begin0
.Lcst_begin0:
	.uleb128 .Lfunc_begin0-.Lfunc_begin0    # >> Call Site 1 <<
	.uleb128 .Ltmp0-.Lfunc_begin0           #   Call between .Lfunc_begin0 and .Ltmp0
	.byte	0                               #     has no landing pad
	.byte	0                               #   On action: cleanup
	.uleb128 .Ltmp0-.Lfunc_begin0           # >> Call Site 2 <<
	.uleb128 .Ltmp1-.Ltmp0                  #   Call between .Ltmp0 and .Ltmp1
	.uleb128 .Ltmp2-.Lfunc_begin0           #     jumps to .Ltmp2
	.byte	0                               #   On action: cleanup
	.uleb128 .Ltmp1-.Lfunc_begin0           # >> Call Site 3 <<
	.uleb128 .Ltmp18-.Ltmp1                 #   Call between .Ltmp1 and .Ltmp18
	.byte	0                               #     has no landing pad
	.byte	0                               #   On action: cleanup
	.uleb128 .Ltmp18-.Lfunc_begin0          # >> Call Site 4 <<
	.uleb128 .Ltmp21-.Ltmp18                #   Call between .Ltmp18 and .Ltmp21
	.uleb128 .Ltmp22-.Lfunc_begin0          #     jumps to .Ltmp22
	.byte	0                               #   On action: cleanup
	.uleb128 .Ltmp23-.Lfunc_begin0          # >> Call Site 5 <<
	.uleb128 .Ltmp24-.Ltmp23                #   Call between .Ltmp23 and .Ltmp24
	.uleb128 .Ltmp25-.Lfunc_begin0          #     jumps to .Ltmp25
	.byte	0                               #   On action: cleanup
	.uleb128 .Ltmp26-.Lfunc_begin0          # >> Call Site 6 <<
	.uleb128 .Ltmp27-.Ltmp26                #   Call between .Ltmp26 and .Ltmp27
	.uleb128 .Ltmp28-.Lfunc_begin0          #     jumps to .Ltmp28
	.byte	0                               #   On action: cleanup
	.uleb128 .Ltmp27-.Lfunc_begin0          # >> Call Site 7 <<
	.uleb128 .Ltmp3-.Ltmp27                 #   Call between .Ltmp27 and .Ltmp3
	.byte	0                               #     has no landing pad
	.byte	0                               #   On action: cleanup
	.uleb128 .Ltmp3-.Lfunc_begin0           # >> Call Site 8 <<
	.uleb128 .Ltmp16-.Ltmp3                 #   Call between .Ltmp3 and .Ltmp16
	.uleb128 .Ltmp17-.Lfunc_begin0          #     jumps to .Ltmp17
	.byte	0                               #   On action: cleanup
	.uleb128 .Ltmp16-.Lfunc_begin0          # >> Call Site 9 <<
	.uleb128 .Lfunc_end1-.Ltmp16            #   Call between .Ltmp16 and .Lfunc_end1
	.byte	0                               #     has no landing pad
	.byte	0                               #   On action: cleanup
.Lcst_end0:
	.p2align	2, 0x0
                                        # -- End function
	.section	.text._Z9BM_MemCmpILi1E6EqZero5FirstEvRN9benchmark5StateE,"axG",@progbits,_Z9BM_MemCmpILi1E6EqZero5FirstEvRN9benchmark5StateE,comdat
	.weak	_Z9BM_MemCmpILi1E6EqZero5FirstEvRN9benchmark5StateE # -- Begin function _Z9BM_MemCmpILi1E6EqZero5FirstEvRN9benchmark5StateE
	.p2align	5
	.type	_Z9BM_MemCmpILi1E6EqZero5FirstEvRN9benchmark5StateE,@function
_Z9BM_MemCmpILi1E6EqZero5FirstEvRN9benchmark5StateE: # @_Z9BM_MemCmpILi1E6EqZero5FirstEvRN9benchmark5StateE
.Lfunc_begin1:
	.cfi_startproc
	.cfi_personality 155, DW.ref.__gxx_personality_v0
	.cfi_lsda 27, .Lexception1
# %bb.0:                                # %entry
	addi.d	$sp, $sp, -128
	.cfi_def_cfa_offset 128
	st.d	$ra, $sp, 120                   # 8-byte Folded Spill
	st.d	$fp, $sp, 112                   # 8-byte Folded Spill
	st.d	$s0, $sp, 104                   # 8-byte Folded Spill
	st.d	$s1, $sp, 96                    # 8-byte Folded Spill
	st.d	$s2, $sp, 88                    # 8-byte Folded Spill
	st.d	$s3, $sp, 80                    # 8-byte Folded Spill
	st.d	$s4, $sp, 72                    # 8-byte Folded Spill
	fst.d	$fs0, $sp, 64                   # 8-byte Folded Spill
	.cfi_offset 1, -8
	.cfi_offset 22, -16
	.cfi_offset 23, -24
	.cfi_offset 24, -32
	.cfi_offset 25, -40
	.cfi_offset 26, -48
	.cfi_offset 27, -56
	.cfi_offset 56, -64
	move	$s1, $a0
	lu12i.w	$s2, 1
	move	$a0, $s2
	pcaddu18i	$ra, %call36(_Znwm)
	jirl	$ra, $ra, 0
	move	$fp, $a0
	move	$a1, $zero
	move	$a2, $s2
	pcaddu18i	$ra, %call36(memset)
	jirl	$ra, $ra, 0
.Ltmp29:                                # EH_LABEL
	move	$a0, $s2
	pcaddu18i	$ra, %call36(_Znwm)
	jirl	$ra, $ra, 0
.Ltmp30:                                # EH_LABEL
# %bb.1:                                # %invoke.cont3
	move	$s0, $a0
	move	$a1, $zero
	move	$a2, $s2
	pcaddu18i	$ra, %call36(memset)
	jirl	$ra, $ra, 0
	st.d	$fp, $sp, 16
	st.d	$s0, $sp, 8
	lu12i.w	$a0, -1
	vrepli.b	$vr0, -1
	ori	$a1, $s2, 16
	.p2align	4, , 16
.LBB2_2:                                # %vector.body
                                        # =>This Inner Loop Header: Depth=1
	add.d	$a2, $fp, $a0
	vstx	$vr0, $a2, $s2
	addi.d	$a0, $a0, 32
	vstx	$vr0, $a2, $a1
	bnez	$a0, .LBB2_2
# %bb.3:                                # %for.cond.cleanup
	ori	$a2, $zero, 1
	move	$a0, $fp
	move	$a1, $s0
	pcaddu18i	$ra, %call36(_Z10RealMemCmpPKcS0_m)
	jirl	$ra, $ra, 0
	ld.bu	$a1, $fp, 0
	sltui	$a0, $a0, 1
	sltui	$a1, $a1, 1
	xor	$a0, $a0, $a1
	bnez	$a0, .LBB2_20
# %bb.4:                                # %if.end
	addi.d	$a0, $sp, 16
	#APP
	#NO_APP
	addi.d	$a0, $sp, 8
	#APP
	#NO_APP
	ld.w	$s4, $s1, 28
	ld.d	$s3, $s1, 16
.Ltmp32:                                # EH_LABEL
	move	$a0, $s1
	pcaddu18i	$ra, %call36(_ZN9benchmark5State16StartKeepRunningEv)
	jirl	$ra, $ra, 0
.Ltmp33:                                # EH_LABEL
# %bb.5:                                # %for.cond36.preheader
	bnez	$s4, .LBB2_11
# %bb.6:                                # %for.cond36.preheader
	beqz	$s3, .LBB2_11
# %bb.7:
	lu12i.w	$a0, -1
	.p2align	4, , 16
.LBB2_8:                                # %for.body40
                                        # =>This Loop Header: Depth=1
                                        #     Child Loop BB2_9 Depth 2
	#MEMBARRIER
	move	$a1, $a0
	.p2align	4, , 16
.LBB2_9:                                # %for.body47
                                        #   Parent Loop BB2_8 Depth=1
                                        # =>  This Inner Loop Header: Depth=2
	ld.d	$a2, $sp, 16
	ld.d	$a3, $sp, 8
	add.d	$a2, $a2, $a1
	add.d	$a3, $a3, $a1
	ldx.bu	$a2, $a2, $s2
	ldx.bu	$a3, $a3, $s2
	xor	$a2, $a2, $a3
	sltui	$a2, $a2, 1
	st.b	$a2, $sp, 24
	#APP
	#NO_APP
	addi.d	$a1, $a1, 1
	bnez	$a1, .LBB2_9
# %bb.10:                               # %for.cond.cleanup46
                                        #   in Loop: Header=BB2_8 Depth=1
	addi.d	$s3, $s3, -1
	bnez	$s3, .LBB2_8
.LBB2_11:                               # %if.end.i
.Ltmp34:                                # EH_LABEL
	move	$a0, $s1
	pcaddu18i	$ra, %call36(_ZN9benchmark5State17FinishKeepRunningEv)
	jirl	$ra, $ra, 0
.Ltmp35:                                # EH_LABEL
# %bb.12:                               # %for.cond.cleanup39
	ld.bu	$a0, $s1, 24
	beqz	$a0, .LBB2_19
# %bb.13:                               # %if.end.i26
	ld.d	$a0, $s1, 16
	ld.d	$a1, $s1, 0
	ld.d	$a2, $s1, 8
	sub.d	$a0, $a0, $a1
	add.d	$a0, $a0, $a2
	slli.d	$a0, $a0, 12
	movgr2fr.d	$fa0, $a0
	ffint.d.l	$fs0, $fa0
.LBB2_14:                               # %_ZNK9benchmark5State10iterationsEv.exit
	addi.d	$s2, $sp, 40
	st.d	$s2, $sp, 24
	ori	$a0, $zero, 16
	st.d	$a0, $sp, 56
.Ltmp37:                                # EH_LABEL
	addi.d	$a0, $sp, 24
	addi.d	$a1, $sp, 56
	move	$a2, $zero
	pcaddu18i	$ra, %call36(_ZNSt7__cxx1112basic_stringIcSt11char_traitsIcESaIcEE9_M_createERmm)
	jirl	$ra, $ra, 0
.Ltmp38:                                # EH_LABEL
# %bb.15:                               # %call2.i5.i.noexc
	ld.d	$a1, $sp, 56
	pcalau12i	$a2, %pc_hi20(.L.str.341)
	vld	$vr0, $a2, %pc_lo12(.L.str.341)
	st.d	$a0, $sp, 24
	st.d	$a1, $sp, 40
	vst	$vr0, $a0, 0
	ld.d	$a0, $sp, 24
	st.d	$a1, $sp, 32
	stx.b	$zero, $a0, $a1
	addi.d	$a0, $s1, 64
.Ltmp40:                                # EH_LABEL
	addi.d	$a1, $sp, 24
	pcaddu18i	$ra, %call36(_ZNSt3mapINSt7__cxx1112basic_stringIcSt11char_traitsIcESaIcEEEN9benchmark7CounterESt4lessIS5_ESaISt4pairIKS5_S7_EEEixEOS5_)
	jirl	$ra, $ra, 0
.Ltmp41:                                # EH_LABEL
# %bb.16:                               # %_ZN9benchmark5State17SetBytesProcessedEl.exit
	fst.d	$fs0, $a0, 0
	ld.d	$a1, $sp, 24
	ori	$a2, $zero, 1
	lu32i.d	$a2, 1024
	st.d	$a2, $a0, 8
	beq	$a1, $s2, .LBB2_18
# %bb.17:                               # %if.then.i.i69
	move	$a0, $a1
	pcaddu18i	$ra, %call36(_ZdlPv)
	jirl	$ra, $ra, 0
.LBB2_18:                               # %_ZNSt6vectorIcSaIcEED2Ev.exit80
	move	$a0, $s0
	pcaddu18i	$ra, %call36(_ZdlPv)
	jirl	$ra, $ra, 0
	move	$a0, $fp
	pcaddu18i	$ra, %call36(_ZdlPv)
	jirl	$ra, $ra, 0
	fld.d	$fs0, $sp, 64                   # 8-byte Folded Reload
	ld.d	$s4, $sp, 72                    # 8-byte Folded Reload
	ld.d	$s3, $sp, 80                    # 8-byte Folded Reload
	ld.d	$s2, $sp, 88                    # 8-byte Folded Reload
	ld.d	$s1, $sp, 96                    # 8-byte Folded Reload
	ld.d	$s0, $sp, 104                   # 8-byte Folded Reload
	ld.d	$fp, $sp, 112                   # 8-byte Folded Reload
	ld.d	$ra, $sp, 120                   # 8-byte Folded Reload
	addi.d	$sp, $sp, 128
	ret
.LBB2_19:
	movgr2fr.d	$fs0, $zero
	b	.LBB2_14
.LBB2_20:                               # %if.then
.Ltmp43:                                # EH_LABEL
	pcalau12i	$a0, %got_pc_hi20(_ZSt4cerr)
	ld.d	$a0, $a0, %got_pc_lo12(_ZSt4cerr)
	pcalau12i	$a1, %pc_hi20(.L.str.337)
	addi.d	$a1, $a1, %pc_lo12(.L.str.337)
	ori	$a2, $zero, 25
	pcaddu18i	$ra, %call36(_ZSt16__ostream_insertIcSt11char_traitsIcEERSt13basic_ostreamIT_T0_ES6_PKS3_l)
	jirl	$ra, $ra, 0
.Ltmp44:                                # EH_LABEL
# %bb.21:                               # %invoke.cont16
.Ltmp45:                                # EH_LABEL
	pcalau12i	$a0, %got_pc_hi20(_ZSt4cerr)
	ld.d	$a0, $a0, %got_pc_lo12(_ZSt4cerr)
	pcalau12i	$a1, %pc_hi20(_ZN6EqZero8kDisplayE)
	addi.d	$a1, $a1, %pc_lo12(_ZN6EqZero8kDisplayE)
	ori	$a2, $zero, 6
	pcaddu18i	$ra, %call36(_ZSt16__ostream_insertIcSt11char_traitsIcEERSt13basic_ostreamIT_T0_ES6_PKS3_l)
	jirl	$ra, $ra, 0
.Ltmp46:                                # EH_LABEL
# %bb.22:                               # %invoke.cont18
.Ltmp47:                                # EH_LABEL
	pcalau12i	$a0, %got_pc_hi20(_ZSt4cerr)
	ld.d	$a0, $a0, %got_pc_lo12(_ZSt4cerr)
	pcalau12i	$a1, %pc_hi20(.L.str.338)
	addi.d	$a1, $a1, %pc_lo12(.L.str.338)
	ori	$a2, $zero, 5
	pcaddu18i	$ra, %call36(_ZSt16__ostream_insertIcSt11char_traitsIcEERSt13basic_ostreamIT_T0_ES6_PKS3_l)
	jirl	$ra, $ra, 0
.Ltmp48:                                # EH_LABEL
# %bb.23:                               # %invoke.cont20
.Ltmp49:                                # EH_LABEL
	pcalau12i	$a0, %got_pc_hi20(_ZSt4cerr)
	ld.d	$a0, $a0, %got_pc_lo12(_ZSt4cerr)
	pcalau12i	$a1, %pc_hi20(_ZN5First8kDisplayE)
	addi.d	$a1, $a1, %pc_lo12(_ZN5First8kDisplayE)
	ori	$a2, $zero, 5
	pcaddu18i	$ra, %call36(_ZSt16__ostream_insertIcSt11char_traitsIcEERSt13basic_ostreamIT_T0_ES6_PKS3_l)
	jirl	$ra, $ra, 0
.Ltmp50:                                # EH_LABEL
# %bb.24:                               # %invoke.cont22
.Ltmp51:                                # EH_LABEL
	pcalau12i	$a0, %got_pc_hi20(_ZSt4cerr)
	ld.d	$a0, $a0, %got_pc_lo12(_ZSt4cerr)
	pcalau12i	$a1, %pc_hi20(.L.str.339)
	addi.d	$a1, $a1, %pc_lo12(.L.str.339)
	ori	$a2, $zero, 7
	pcaddu18i	$ra, %call36(_ZSt16__ostream_insertIcSt11char_traitsIcEERSt13basic_ostreamIT_T0_ES6_PKS3_l)
	jirl	$ra, $ra, 0
.Ltmp52:                                # EH_LABEL
# %bb.25:                               # %invoke.cont24
.Ltmp53:                                # EH_LABEL
	pcalau12i	$a0, %got_pc_hi20(_ZSt4cerr)
	ld.d	$a0, $a0, %got_pc_lo12(_ZSt4cerr)
	ori	$a1, $zero, 1
	pcaddu18i	$ra, %call36(_ZNSolsEi)
	jirl	$ra, $ra, 0
.Ltmp54:                                # EH_LABEL
# %bb.26:                               # %invoke.cont26
.Ltmp55:                                # EH_LABEL
	pcaddu18i	$ra, %call36(_ZSt4endlIcSt11char_traitsIcEERSt13basic_ostreamIT_T0_ES6_)
	jirl	$ra, $ra, 0
.Ltmp56:                                # EH_LABEL
# %bb.27:                               # %invoke.cont28
	ori	$a0, $zero, 1
	pcaddu18i	$ra, %call36(exit)
	jirl	$ra, $ra, 0
.LBB2_28:                               # %lpad15
.Ltmp57:                                # EH_LABEL
	b	.LBB2_34
.LBB2_29:                               # %lpad4.i
.Ltmp42:                                # EH_LABEL
	ld.d	$a1, $sp, 24
	move	$s1, $a0
	beq	$a1, $s2, .LBB2_35
# %bb.30:                               # %if.then.i.i66
	move	$a0, $a1
	pcaddu18i	$ra, %call36(_ZdlPv)
	jirl	$ra, $ra, 0
	b	.LBB2_35
.LBB2_31:                               # %lpad.i
.Ltmp39:                                # EH_LABEL
	b	.LBB2_34
.LBB2_32:                               # %lpad2
.Ltmp31:                                # EH_LABEL
	move	$s1, $a0
	move	$a0, $fp
	pcaddu18i	$ra, %call36(_ZdlPv)
	jirl	$ra, $ra, 0
	move	$a0, $s1
	pcaddu18i	$ra, %call36(_Unwind_Resume)
	jirl	$ra, $ra, 0
.LBB2_33:                               # %lpad33
.Ltmp36:                                # EH_LABEL
.LBB2_34:                               # %_ZNSt6vectorIcSaIcEED2Ev.exit84
	move	$s1, $a0
.LBB2_35:                               # %_ZNSt6vectorIcSaIcEED2Ev.exit84
	move	$a0, $s0
	pcaddu18i	$ra, %call36(_ZdlPv)
	jirl	$ra, $ra, 0
	move	$a0, $fp
	pcaddu18i	$ra, %call36(_ZdlPv)
	jirl	$ra, $ra, 0
	move	$a0, $s1
	pcaddu18i	$ra, %call36(_Unwind_Resume)
	jirl	$ra, $ra, 0
.Lfunc_end2:
	.size	_Z9BM_MemCmpILi1E6EqZero5FirstEvRN9benchmark5StateE, .Lfunc_end2-_Z9BM_MemCmpILi1E6EqZero5FirstEvRN9benchmark5StateE
	.cfi_endproc
	.section	.gcc_except_table._Z9BM_MemCmpILi1E6EqZero5FirstEvRN9benchmark5StateE,"aG",@progbits,_Z9BM_MemCmpILi1E6EqZero5FirstEvRN9benchmark5StateE,comdat
	.p2align	2, 0x0
GCC_except_table2:
.Lexception1:
	.byte	255                             # @LPStart Encoding = omit
	.byte	255                             # @TType Encoding = omit
	.byte	1                               # Call site Encoding = uleb128
	.uleb128 .Lcst_end1-.Lcst_begin1
.Lcst_begin1:
	.uleb128 .Lfunc_begin1-.Lfunc_begin1    # >> Call Site 1 <<
	.uleb128 .Ltmp29-.Lfunc_begin1          #   Call between .Lfunc_begin1 and .Ltmp29
	.byte	0                               #     has no landing pad
	.byte	0                               #   On action: cleanup
	.uleb128 .Ltmp29-.Lfunc_begin1          # >> Call Site 2 <<
	.uleb128 .Ltmp30-.Ltmp29                #   Call between .Ltmp29 and .Ltmp30
	.uleb128 .Ltmp31-.Lfunc_begin1          #     jumps to .Ltmp31
	.byte	0                               #   On action: cleanup
	.uleb128 .Ltmp30-.Lfunc_begin1          # >> Call Site 3 <<
	.uleb128 .Ltmp32-.Ltmp30                #   Call between .Ltmp30 and .Ltmp32
	.byte	0                               #     has no landing pad
	.byte	0                               #   On action: cleanup
	.uleb128 .Ltmp32-.Lfunc_begin1          # >> Call Site 4 <<
	.uleb128 .Ltmp35-.Ltmp32                #   Call between .Ltmp32 and .Ltmp35
	.uleb128 .Ltmp36-.Lfunc_begin1          #     jumps to .Ltmp36
	.byte	0                               #   On action: cleanup
	.uleb128 .Ltmp37-.Lfunc_begin1          # >> Call Site 5 <<
	.uleb128 .Ltmp38-.Ltmp37                #   Call between .Ltmp37 and .Ltmp38
	.uleb128 .Ltmp39-.Lfunc_begin1          #     jumps to .Ltmp39
	.byte	0                               #   On action: cleanup
	.uleb128 .Ltmp40-.Lfunc_begin1          # >> Call Site 6 <<
	.uleb128 .Ltmp41-.Ltmp40                #   Call between .Ltmp40 and .Ltmp41
	.uleb128 .Ltmp42-.Lfunc_begin1          #     jumps to .Ltmp42
	.byte	0                               #   On action: cleanup
	.uleb128 .Ltmp41-.Lfunc_begin1          # >> Call Site 7 <<
	.uleb128 .Ltmp43-.Ltmp41                #   Call between .Ltmp41 and .Ltmp43
	.byte	0                               #     has no landing pad
	.byte	0                               #   On action: cleanup
	.uleb128 .Ltmp43-.Lfunc_begin1          # >> Call Site 8 <<
	.uleb128 .Ltmp56-.Ltmp43                #   Call between .Ltmp43 and .Ltmp56
	.uleb128 .Ltmp57-.Lfunc_begin1          #     jumps to .Ltmp57
	.byte	0                               #   On action: cleanup
	.uleb128 .Ltmp56-.Lfunc_begin1          # >> Call Site 9 <<
	.uleb128 .Lfunc_end2-.Ltmp56            #   Call between .Ltmp56 and .Lfunc_end2
	.byte	0                               #     has no landing pad
	.byte	0                               #   On action: cleanup
.Lcst_end1:
	.p2align	2, 0x0
                                        # -- End function
	.section	.text._Z9BM_MemCmpILi1E6EqZero3MidEvRN9benchmark5StateE,"axG",@progbits,_Z9BM_MemCmpILi1E6EqZero3MidEvRN9benchmark5StateE,comdat
	.weak	_Z9BM_MemCmpILi1E6EqZero3MidEvRN9benchmark5StateE # -- Begin function _Z9BM_MemCmpILi1E6EqZero3MidEvRN9benchmark5StateE
	.p2align	5
	.type	_Z9BM_MemCmpILi1E6EqZero3MidEvRN9benchmark5StateE,@function
_Z9BM_MemCmpILi1E6EqZero3MidEvRN9benchmark5StateE: # @_Z9BM_MemCmpILi1E6EqZero3MidEvRN9benchmark5StateE
.Lfunc_begin2:
	.cfi_startproc
	.cfi_personality 155, DW.ref.__gxx_personality_v0
	.cfi_lsda 27, .Lexception2
# %bb.0:                                # %entry
	addi.d	$sp, $sp, -128
	.cfi_def_cfa_offset 128
	st.d	$ra, $sp, 120                   # 8-byte Folded Spill
	st.d	$fp, $sp, 112                   # 8-byte Folded Spill
	st.d	$s0, $sp, 104                   # 8-byte Folded Spill
	st.d	$s1, $sp, 96                    # 8-byte Folded Spill
	st.d	$s2, $sp, 88                    # 8-byte Folded Spill
	st.d	$s3, $sp, 80                    # 8-byte Folded Spill
	st.d	$s4, $sp, 72                    # 8-byte Folded Spill
	fst.d	$fs0, $sp, 64                   # 8-byte Folded Spill
	.cfi_offset 1, -8
	.cfi_offset 22, -16
	.cfi_offset 23, -24
	.cfi_offset 24, -32
	.cfi_offset 25, -40
	.cfi_offset 26, -48
	.cfi_offset 27, -56
	.cfi_offset 56, -64
	move	$s1, $a0
	lu12i.w	$s2, 1
	move	$a0, $s2
	pcaddu18i	$ra, %call36(_Znwm)
	jirl	$ra, $ra, 0
	move	$fp, $a0
	move	$a1, $zero
	move	$a2, $s2
	pcaddu18i	$ra, %call36(memset)
	jirl	$ra, $ra, 0
.Ltmp58:                                # EH_LABEL
	move	$a0, $s2
	pcaddu18i	$ra, %call36(_Znwm)
	jirl	$ra, $ra, 0
.Ltmp59:                                # EH_LABEL
# %bb.1:                                # %invoke.cont3
	move	$s0, $a0
	move	$a1, $zero
	move	$a2, $s2
	pcaddu18i	$ra, %call36(memset)
	jirl	$ra, $ra, 0
	st.d	$fp, $sp, 16
	st.d	$s0, $sp, 8
	lu12i.w	$a0, -1
	vrepli.b	$vr0, -1
	ori	$a1, $s2, 16
	.p2align	4, , 16
.LBB3_2:                                # %vector.body
                                        # =>This Inner Loop Header: Depth=1
	add.d	$a2, $fp, $a0
	vstx	$vr0, $a2, $s2
	addi.d	$a0, $a0, 32
	vstx	$vr0, $a2, $a1
	bnez	$a0, .LBB3_2
# %bb.3:                                # %for.cond.cleanup
	ori	$a2, $zero, 1
	move	$a0, $fp
	move	$a1, $s0
	pcaddu18i	$ra, %call36(_Z10RealMemCmpPKcS0_m)
	jirl	$ra, $ra, 0
	ld.bu	$a1, $fp, 0
	sltui	$a0, $a0, 1
	sltui	$a1, $a1, 1
	xor	$a0, $a0, $a1
	bnez	$a0, .LBB3_20
# %bb.4:                                # %if.end
	addi.d	$a0, $sp, 16
	#APP
	#NO_APP
	addi.d	$a0, $sp, 8
	#APP
	#NO_APP
	ld.w	$s4, $s1, 28
	ld.d	$s3, $s1, 16
.Ltmp61:                                # EH_LABEL
	move	$a0, $s1
	pcaddu18i	$ra, %call36(_ZN9benchmark5State16StartKeepRunningEv)
	jirl	$ra, $ra, 0
.Ltmp62:                                # EH_LABEL
# %bb.5:                                # %for.cond36.preheader
	bnez	$s4, .LBB3_11
# %bb.6:                                # %for.cond36.preheader
	beqz	$s3, .LBB3_11
# %bb.7:
	lu12i.w	$a0, -1
	.p2align	4, , 16
.LBB3_8:                                # %for.body40
                                        # =>This Loop Header: Depth=1
                                        #     Child Loop BB3_9 Depth 2
	#MEMBARRIER
	move	$a1, $a0
	.p2align	4, , 16
.LBB3_9:                                # %for.body47
                                        #   Parent Loop BB3_8 Depth=1
                                        # =>  This Inner Loop Header: Depth=2
	ld.d	$a2, $sp, 16
	ld.d	$a3, $sp, 8
	add.d	$a2, $a2, $a1
	add.d	$a3, $a3, $a1
	ldx.bu	$a2, $a2, $s2
	ldx.bu	$a3, $a3, $s2
	xor	$a2, $a2, $a3
	sltui	$a2, $a2, 1
	st.b	$a2, $sp, 24
	#APP
	#NO_APP
	addi.d	$a1, $a1, 1
	bnez	$a1, .LBB3_9
# %bb.10:                               # %for.cond.cleanup46
                                        #   in Loop: Header=BB3_8 Depth=1
	addi.d	$s3, $s3, -1
	bnez	$s3, .LBB3_8
.LBB3_11:                               # %if.end.i
.Ltmp63:                                # EH_LABEL
	move	$a0, $s1
	pcaddu18i	$ra, %call36(_ZN9benchmark5State17FinishKeepRunningEv)
	jirl	$ra, $ra, 0
.Ltmp64:                                # EH_LABEL
# %bb.12:                               # %for.cond.cleanup39
	ld.bu	$a0, $s1, 24
	beqz	$a0, .LBB3_19
# %bb.13:                               # %if.end.i26
	ld.d	$a0, $s1, 16
	ld.d	$a1, $s1, 0
	ld.d	$a2, $s1, 8
	sub.d	$a0, $a0, $a1
	add.d	$a0, $a0, $a2
	slli.d	$a0, $a0, 12
	movgr2fr.d	$fa0, $a0
	ffint.d.l	$fs0, $fa0
.LBB3_14:                               # %_ZNK9benchmark5State10iterationsEv.exit
	addi.d	$s2, $sp, 40
	st.d	$s2, $sp, 24
	ori	$a0, $zero, 16
	st.d	$a0, $sp, 56
.Ltmp66:                                # EH_LABEL
	addi.d	$a0, $sp, 24
	addi.d	$a1, $sp, 56
	move	$a2, $zero
	pcaddu18i	$ra, %call36(_ZNSt7__cxx1112basic_stringIcSt11char_traitsIcESaIcEE9_M_createERmm)
	jirl	$ra, $ra, 0
.Ltmp67:                                # EH_LABEL
# %bb.15:                               # %call2.i5.i.noexc
	ld.d	$a1, $sp, 56
	pcalau12i	$a2, %pc_hi20(.L.str.341)
	vld	$vr0, $a2, %pc_lo12(.L.str.341)
	st.d	$a0, $sp, 24
	st.d	$a1, $sp, 40
	vst	$vr0, $a0, 0
	ld.d	$a0, $sp, 24
	st.d	$a1, $sp, 32
	stx.b	$zero, $a0, $a1
	addi.d	$a0, $s1, 64
.Ltmp69:                                # EH_LABEL
	addi.d	$a1, $sp, 24
	pcaddu18i	$ra, %call36(_ZNSt3mapINSt7__cxx1112basic_stringIcSt11char_traitsIcESaIcEEEN9benchmark7CounterESt4lessIS5_ESaISt4pairIKS5_S7_EEEixEOS5_)
	jirl	$ra, $ra, 0
.Ltmp70:                                # EH_LABEL
# %bb.16:                               # %_ZN9benchmark5State17SetBytesProcessedEl.exit
	fst.d	$fs0, $a0, 0
	ld.d	$a1, $sp, 24
	ori	$a2, $zero, 1
	lu32i.d	$a2, 1024
	st.d	$a2, $a0, 8
	beq	$a1, $s2, .LBB3_18
# %bb.17:                               # %if.then.i.i69
	move	$a0, $a1
	pcaddu18i	$ra, %call36(_ZdlPv)
	jirl	$ra, $ra, 0
.LBB3_18:                               # %_ZNSt6vectorIcSaIcEED2Ev.exit80
	move	$a0, $s0
	pcaddu18i	$ra, %call36(_ZdlPv)
	jirl	$ra, $ra, 0
	move	$a0, $fp
	pcaddu18i	$ra, %call36(_ZdlPv)
	jirl	$ra, $ra, 0
	fld.d	$fs0, $sp, 64                   # 8-byte Folded Reload
	ld.d	$s4, $sp, 72                    # 8-byte Folded Reload
	ld.d	$s3, $sp, 80                    # 8-byte Folded Reload
	ld.d	$s2, $sp, 88                    # 8-byte Folded Reload
	ld.d	$s1, $sp, 96                    # 8-byte Folded Reload
	ld.d	$s0, $sp, 104                   # 8-byte Folded Reload
	ld.d	$fp, $sp, 112                   # 8-byte Folded Reload
	ld.d	$ra, $sp, 120                   # 8-byte Folded Reload
	addi.d	$sp, $sp, 128
	ret
.LBB3_19:
	movgr2fr.d	$fs0, $zero
	b	.LBB3_14
.LBB3_20:                               # %if.then
.Ltmp72:                                # EH_LABEL
	pcalau12i	$a0, %got_pc_hi20(_ZSt4cerr)
	ld.d	$a0, $a0, %got_pc_lo12(_ZSt4cerr)
	pcalau12i	$a1, %pc_hi20(.L.str.337)
	addi.d	$a1, $a1, %pc_lo12(.L.str.337)
	ori	$a2, $zero, 25
	pcaddu18i	$ra, %call36(_ZSt16__ostream_insertIcSt11char_traitsIcEERSt13basic_ostreamIT_T0_ES6_PKS3_l)
	jirl	$ra, $ra, 0
.Ltmp73:                                # EH_LABEL
# %bb.21:                               # %invoke.cont16
.Ltmp74:                                # EH_LABEL
	pcalau12i	$a0, %got_pc_hi20(_ZSt4cerr)
	ld.d	$a0, $a0, %got_pc_lo12(_ZSt4cerr)
	pcalau12i	$a1, %pc_hi20(_ZN6EqZero8kDisplayE)
	addi.d	$a1, $a1, %pc_lo12(_ZN6EqZero8kDisplayE)
	ori	$a2, $zero, 6
	pcaddu18i	$ra, %call36(_ZSt16__ostream_insertIcSt11char_traitsIcEERSt13basic_ostreamIT_T0_ES6_PKS3_l)
	jirl	$ra, $ra, 0
.Ltmp75:                                # EH_LABEL
# %bb.22:                               # %invoke.cont18
.Ltmp76:                                # EH_LABEL
	pcalau12i	$a0, %got_pc_hi20(_ZSt4cerr)
	ld.d	$a0, $a0, %got_pc_lo12(_ZSt4cerr)
	pcalau12i	$a1, %pc_hi20(.L.str.338)
	addi.d	$a1, $a1, %pc_lo12(.L.str.338)
	ori	$a2, $zero, 5
	pcaddu18i	$ra, %call36(_ZSt16__ostream_insertIcSt11char_traitsIcEERSt13basic_ostreamIT_T0_ES6_PKS3_l)
	jirl	$ra, $ra, 0
.Ltmp77:                                # EH_LABEL
# %bb.23:                               # %invoke.cont20
.Ltmp78:                                # EH_LABEL
	pcalau12i	$a0, %got_pc_hi20(_ZSt4cerr)
	ld.d	$a0, $a0, %got_pc_lo12(_ZSt4cerr)
	pcalau12i	$a1, %pc_hi20(_ZN3Mid8kDisplayE)
	addi.d	$a1, $a1, %pc_lo12(_ZN3Mid8kDisplayE)
	ori	$a2, $zero, 3
	pcaddu18i	$ra, %call36(_ZSt16__ostream_insertIcSt11char_traitsIcEERSt13basic_ostreamIT_T0_ES6_PKS3_l)
	jirl	$ra, $ra, 0
.Ltmp79:                                # EH_LABEL
# %bb.24:                               # %invoke.cont22
.Ltmp80:                                # EH_LABEL
	pcalau12i	$a0, %got_pc_hi20(_ZSt4cerr)
	ld.d	$a0, $a0, %got_pc_lo12(_ZSt4cerr)
	pcalau12i	$a1, %pc_hi20(.L.str.339)
	addi.d	$a1, $a1, %pc_lo12(.L.str.339)
	ori	$a2, $zero, 7
	pcaddu18i	$ra, %call36(_ZSt16__ostream_insertIcSt11char_traitsIcEERSt13basic_ostreamIT_T0_ES6_PKS3_l)
	jirl	$ra, $ra, 0
.Ltmp81:                                # EH_LABEL
# %bb.25:                               # %invoke.cont24
.Ltmp82:                                # EH_LABEL
	pcalau12i	$a0, %got_pc_hi20(_ZSt4cerr)
	ld.d	$a0, $a0, %got_pc_lo12(_ZSt4cerr)
	ori	$a1, $zero, 1
	pcaddu18i	$ra, %call36(_ZNSolsEi)
	jirl	$ra, $ra, 0
.Ltmp83:                                # EH_LABEL
# %bb.26:                               # %invoke.cont26
.Ltmp84:                                # EH_LABEL
	pcaddu18i	$ra, %call36(_ZSt4endlIcSt11char_traitsIcEERSt13basic_ostreamIT_T0_ES6_)
	jirl	$ra, $ra, 0
.Ltmp85:                                # EH_LABEL
# %bb.27:                               # %invoke.cont28
	ori	$a0, $zero, 1
	pcaddu18i	$ra, %call36(exit)
	jirl	$ra, $ra, 0
.LBB3_28:                               # %lpad15
.Ltmp86:                                # EH_LABEL
	b	.LBB3_34
.LBB3_29:                               # %lpad4.i
.Ltmp71:                                # EH_LABEL
	ld.d	$a1, $sp, 24
	move	$s1, $a0
	beq	$a1, $s2, .LBB3_35
# %bb.30:                               # %if.then.i.i66
	move	$a0, $a1
	pcaddu18i	$ra, %call36(_ZdlPv)
	jirl	$ra, $ra, 0
	b	.LBB3_35
.LBB3_31:                               # %lpad.i
.Ltmp68:                                # EH_LABEL
	b	.LBB3_34
.LBB3_32:                               # %lpad2
.Ltmp60:                                # EH_LABEL
	move	$s1, $a0
	move	$a0, $fp
	pcaddu18i	$ra, %call36(_ZdlPv)
	jirl	$ra, $ra, 0
	move	$a0, $s1
	pcaddu18i	$ra, %call36(_Unwind_Resume)
	jirl	$ra, $ra, 0
.LBB3_33:                               # %lpad33
.Ltmp65:                                # EH_LABEL
.LBB3_34:                               # %_ZNSt6vectorIcSaIcEED2Ev.exit84
	move	$s1, $a0
.LBB3_35:                               # %_ZNSt6vectorIcSaIcEED2Ev.exit84
	move	$a0, $s0
	pcaddu18i	$ra, %call36(_ZdlPv)
	jirl	$ra, $ra, 0
	move	$a0, $fp
	pcaddu18i	$ra, %call36(_ZdlPv)
	jirl	$ra, $ra, 0
	move	$a0, $s1
	pcaddu18i	$ra, %call36(_Unwind_Resume)
	jirl	$ra, $ra, 0
.Lfunc_end3:
	.size	_Z9BM_MemCmpILi1E6EqZero3MidEvRN9benchmark5StateE, .Lfunc_end3-_Z9BM_MemCmpILi1E6EqZero3MidEvRN9benchmark5StateE
	.cfi_endproc
	.section	.gcc_except_table._Z9BM_MemCmpILi1E6EqZero3MidEvRN9benchmark5StateE,"aG",@progbits,_Z9BM_MemCmpILi1E6EqZero3MidEvRN9benchmark5StateE,comdat
	.p2align	2, 0x0
GCC_except_table3:
.Lexception2:
	.byte	255                             # @LPStart Encoding = omit
	.byte	255                             # @TType Encoding = omit
	.byte	1                               # Call site Encoding = uleb128
	.uleb128 .Lcst_end2-.Lcst_begin2
.Lcst_begin2:
	.uleb128 .Lfunc_begin2-.Lfunc_begin2    # >> Call Site 1 <<
	.uleb128 .Ltmp58-.Lfunc_begin2          #   Call between .Lfunc_begin2 and .Ltmp58
	.byte	0                               #     has no landing pad
	.byte	0                               #   On action: cleanup
	.uleb128 .Ltmp58-.Lfunc_begin2          # >> Call Site 2 <<
	.uleb128 .Ltmp59-.Ltmp58                #   Call between .Ltmp58 and .Ltmp59
	.uleb128 .Ltmp60-.Lfunc_begin2          #     jumps to .Ltmp60
	.byte	0                               #   On action: cleanup
	.uleb128 .Ltmp59-.Lfunc_begin2          # >> Call Site 3 <<
	.uleb128 .Ltmp61-.Ltmp59                #   Call between .Ltmp59 and .Ltmp61
	.byte	0                               #     has no landing pad
	.byte	0                               #   On action: cleanup
	.uleb128 .Ltmp61-.Lfunc_begin2          # >> Call Site 4 <<
	.uleb128 .Ltmp64-.Ltmp61                #   Call between .Ltmp61 and .Ltmp64
	.uleb128 .Ltmp65-.Lfunc_begin2          #     jumps to .Ltmp65
	.byte	0                               #   On action: cleanup
	.uleb128 .Ltmp66-.Lfunc_begin2          # >> Call Site 5 <<
	.uleb128 .Ltmp67-.Ltmp66                #   Call between .Ltmp66 and .Ltmp67
	.uleb128 .Ltmp68-.Lfunc_begin2          #     jumps to .Ltmp68
	.byte	0                               #   On action: cleanup
	.uleb128 .Ltmp69-.Lfunc_begin2          # >> Call Site 6 <<
	.uleb128 .Ltmp70-.Ltmp69                #   Call between .Ltmp69 and .Ltmp70
	.uleb128 .Ltmp71-.Lfunc_begin2          #     jumps to .Ltmp71
	.byte	0                               #   On action: cleanup
	.uleb128 .Ltmp70-.Lfunc_begin2          # >> Call Site 7 <<
	.uleb128 .Ltmp72-.Ltmp70                #   Call between .Ltmp70 and .Ltmp72
	.byte	0                               #     has no landing pad
	.byte	0                               #   On action: cleanup
	.uleb128 .Ltmp72-.Lfunc_begin2          # >> Call Site 8 <<
	.uleb128 .Ltmp85-.Ltmp72                #   Call between .Ltmp72 and .Ltmp85
	.uleb128 .Ltmp86-.Lfunc_begin2          #     jumps to .Ltmp86
	.byte	0                               #   On action: cleanup
	.uleb128 .Ltmp85-.Lfunc_begin2          # >> Call Site 9 <<
	.uleb128 .Lfunc_end3-.Ltmp85            #   Call between .Ltmp85 and .Lfunc_end3
	.byte	0                               #     has no landing pad
	.byte	0                               #   On action: cleanup
.Lcst_end2:
	.p2align	2, 0x0
                                        # -- End function
	.section	.text._Z9BM_MemCmpILi1E6EqZero4LastEvRN9benchmark5StateE,"axG",@progbits,_Z9BM_MemCmpILi1E6EqZero4LastEvRN9benchmark5StateE,comdat
	.weak	_Z9BM_MemCmpILi1E6EqZero4LastEvRN9benchmark5StateE # -- Begin function _Z9BM_MemCmpILi1E6EqZero4LastEvRN9benchmark5StateE
	.p2align	5
	.type	_Z9BM_MemCmpILi1E6EqZero4LastEvRN9benchmark5StateE,@function
_Z9BM_MemCmpILi1E6EqZero4LastEvRN9benchmark5StateE: # @_Z9BM_MemCmpILi1E6EqZero4LastEvRN9benchmark5StateE
.Lfunc_begin3:
	.cfi_startproc
	.cfi_personality 155, DW.ref.__gxx_personality_v0
	.cfi_lsda 27, .Lexception3
# %bb.0:                                # %entry
	addi.d	$sp, $sp, -128
	.cfi_def_cfa_offset 128
	st.d	$ra, $sp, 120                   # 8-byte Folded Spill
	st.d	$fp, $sp, 112                   # 8-byte Folded Spill
	st.d	$s0, $sp, 104                   # 8-byte Folded Spill
	st.d	$s1, $sp, 96                    # 8-byte Folded Spill
	st.d	$s2, $sp, 88                    # 8-byte Folded Spill
	st.d	$s3, $sp, 80                    # 8-byte Folded Spill
	st.d	$s4, $sp, 72                    # 8-byte Folded Spill
	fst.d	$fs0, $sp, 64                   # 8-byte Folded Spill
	.cfi_offset 1, -8
	.cfi_offset 22, -16
	.cfi_offset 23, -24
	.cfi_offset 24, -32
	.cfi_offset 25, -40
	.cfi_offset 26, -48
	.cfi_offset 27, -56
	.cfi_offset 56, -64
	move	$s1, $a0
	lu12i.w	$s2, 1
	move	$a0, $s2
	pcaddu18i	$ra, %call36(_Znwm)
	jirl	$ra, $ra, 0
	move	$fp, $a0
	move	$a1, $zero
	move	$a2, $s2
	pcaddu18i	$ra, %call36(memset)
	jirl	$ra, $ra, 0
.Ltmp87:                                # EH_LABEL
	move	$a0, $s2
	pcaddu18i	$ra, %call36(_Znwm)
	jirl	$ra, $ra, 0
.Ltmp88:                                # EH_LABEL
# %bb.1:                                # %invoke.cont3
	move	$s0, $a0
	move	$a1, $zero
	move	$a2, $s2
	pcaddu18i	$ra, %call36(memset)
	jirl	$ra, $ra, 0
	st.d	$fp, $sp, 16
	st.d	$s0, $sp, 8
	lu12i.w	$a0, -1
	vrepli.b	$vr0, -1
	ori	$a1, $s2, 16
	.p2align	4, , 16
.LBB4_2:                                # %vector.body
                                        # =>This Inner Loop Header: Depth=1
	add.d	$a2, $fp, $a0
	vstx	$vr0, $a2, $s2
	addi.d	$a0, $a0, 32
	vstx	$vr0, $a2, $a1
	bnez	$a0, .LBB4_2
# %bb.3:                                # %for.cond.cleanup
	ori	$a2, $zero, 1
	move	$a0, $fp
	move	$a1, $s0
	pcaddu18i	$ra, %call36(_Z10RealMemCmpPKcS0_m)
	jirl	$ra, $ra, 0
	ld.bu	$a1, $fp, 0
	sltui	$a0, $a0, 1
	sltui	$a1, $a1, 1
	xor	$a0, $a0, $a1
	bnez	$a0, .LBB4_20
# %bb.4:                                # %if.end
	addi.d	$a0, $sp, 16
	#APP
	#NO_APP
	addi.d	$a0, $sp, 8
	#APP
	#NO_APP
	ld.w	$s4, $s1, 28
	ld.d	$s3, $s1, 16
.Ltmp90:                                # EH_LABEL
	move	$a0, $s1
	pcaddu18i	$ra, %call36(_ZN9benchmark5State16StartKeepRunningEv)
	jirl	$ra, $ra, 0
.Ltmp91:                                # EH_LABEL
# %bb.5:                                # %for.cond36.preheader
	bnez	$s4, .LBB4_11
# %bb.6:                                # %for.cond36.preheader
	beqz	$s3, .LBB4_11
# %bb.7:
	lu12i.w	$a0, -1
	.p2align	4, , 16
.LBB4_8:                                # %for.body40
                                        # =>This Loop Header: Depth=1
                                        #     Child Loop BB4_9 Depth 2
	#MEMBARRIER
	move	$a1, $a0
	.p2align	4, , 16
.LBB4_9:                                # %for.body47
                                        #   Parent Loop BB4_8 Depth=1
                                        # =>  This Inner Loop Header: Depth=2
	ld.d	$a2, $sp, 16
	ld.d	$a3, $sp, 8
	add.d	$a2, $a2, $a1
	add.d	$a3, $a3, $a1
	ldx.bu	$a2, $a2, $s2
	ldx.bu	$a3, $a3, $s2
	xor	$a2, $a2, $a3
	sltui	$a2, $a2, 1
	st.b	$a2, $sp, 24
	#APP
	#NO_APP
	addi.d	$a1, $a1, 1
	bnez	$a1, .LBB4_9
# %bb.10:                               # %for.cond.cleanup46
                                        #   in Loop: Header=BB4_8 Depth=1
	addi.d	$s3, $s3, -1
	bnez	$s3, .LBB4_8
.LBB4_11:                               # %if.end.i
.Ltmp92:                                # EH_LABEL
	move	$a0, $s1
	pcaddu18i	$ra, %call36(_ZN9benchmark5State17FinishKeepRunningEv)
	jirl	$ra, $ra, 0
.Ltmp93:                                # EH_LABEL
# %bb.12:                               # %for.cond.cleanup39
	ld.bu	$a0, $s1, 24
	beqz	$a0, .LBB4_19
# %bb.13:                               # %if.end.i26
	ld.d	$a0, $s1, 16
	ld.d	$a1, $s1, 0
	ld.d	$a2, $s1, 8
	sub.d	$a0, $a0, $a1
	add.d	$a0, $a0, $a2
	slli.d	$a0, $a0, 12
	movgr2fr.d	$fa0, $a0
	ffint.d.l	$fs0, $fa0
.LBB4_14:                               # %_ZNK9benchmark5State10iterationsEv.exit
	addi.d	$s2, $sp, 40
	st.d	$s2, $sp, 24
	ori	$a0, $zero, 16
	st.d	$a0, $sp, 56
.Ltmp95:                                # EH_LABEL
	addi.d	$a0, $sp, 24
	addi.d	$a1, $sp, 56
	move	$a2, $zero
	pcaddu18i	$ra, %call36(_ZNSt7__cxx1112basic_stringIcSt11char_traitsIcESaIcEE9_M_createERmm)
	jirl	$ra, $ra, 0
.Ltmp96:                                # EH_LABEL
# %bb.15:                               # %call2.i5.i.noexc
	ld.d	$a1, $sp, 56
	pcalau12i	$a2, %pc_hi20(.L.str.341)
	vld	$vr0, $a2, %pc_lo12(.L.str.341)
	st.d	$a0, $sp, 24
	st.d	$a1, $sp, 40
	vst	$vr0, $a0, 0
	ld.d	$a0, $sp, 24
	st.d	$a1, $sp, 32
	stx.b	$zero, $a0, $a1
	addi.d	$a0, $s1, 64
.Ltmp98:                                # EH_LABEL
	addi.d	$a1, $sp, 24
	pcaddu18i	$ra, %call36(_ZNSt3mapINSt7__cxx1112basic_stringIcSt11char_traitsIcESaIcEEEN9benchmark7CounterESt4lessIS5_ESaISt4pairIKS5_S7_EEEixEOS5_)
	jirl	$ra, $ra, 0
.Ltmp99:                                # EH_LABEL
# %bb.16:                               # %_ZN9benchmark5State17SetBytesProcessedEl.exit
	fst.d	$fs0, $a0, 0
	ld.d	$a1, $sp, 24
	ori	$a2, $zero, 1
	lu32i.d	$a2, 1024
	st.d	$a2, $a0, 8
	beq	$a1, $s2, .LBB4_18
# %bb.17:                               # %if.then.i.i69
	move	$a0, $a1
	pcaddu18i	$ra, %call36(_ZdlPv)
	jirl	$ra, $ra, 0
.LBB4_18:                               # %_ZNSt6vectorIcSaIcEED2Ev.exit80
	move	$a0, $s0
	pcaddu18i	$ra, %call36(_ZdlPv)
	jirl	$ra, $ra, 0
	move	$a0, $fp
	pcaddu18i	$ra, %call36(_ZdlPv)
	jirl	$ra, $ra, 0
	fld.d	$fs0, $sp, 64                   # 8-byte Folded Reload
	ld.d	$s4, $sp, 72                    # 8-byte Folded Reload
	ld.d	$s3, $sp, 80                    # 8-byte Folded Reload
	ld.d	$s2, $sp, 88                    # 8-byte Folded Reload
	ld.d	$s1, $sp, 96                    # 8-byte Folded Reload
	ld.d	$s0, $sp, 104                   # 8-byte Folded Reload
	ld.d	$fp, $sp, 112                   # 8-byte Folded Reload
	ld.d	$ra, $sp, 120                   # 8-byte Folded Reload
	addi.d	$sp, $sp, 128
	ret
.LBB4_19:
	movgr2fr.d	$fs0, $zero
	b	.LBB4_14
.LBB4_20:                               # %if.then
.Ltmp101:                               # EH_LABEL
	pcalau12i	$a0, %got_pc_hi20(_ZSt4cerr)
	ld.d	$a0, $a0, %got_pc_lo12(_ZSt4cerr)
	pcalau12i	$a1, %pc_hi20(.L.str.337)
	addi.d	$a1, $a1, %pc_lo12(.L.str.337)
	ori	$a2, $zero, 25
	pcaddu18i	$ra, %call36(_ZSt16__ostream_insertIcSt11char_traitsIcEERSt13basic_ostreamIT_T0_ES6_PKS3_l)
	jirl	$ra, $ra, 0
.Ltmp102:                               # EH_LABEL
# %bb.21:                               # %invoke.cont16
.Ltmp103:                               # EH_LABEL
	pcalau12i	$a0, %got_pc_hi20(_ZSt4cerr)
	ld.d	$a0, $a0, %got_pc_lo12(_ZSt4cerr)
	pcalau12i	$a1, %pc_hi20(_ZN6EqZero8kDisplayE)
	addi.d	$a1, $a1, %pc_lo12(_ZN6EqZero8kDisplayE)
	ori	$a2, $zero, 6
	pcaddu18i	$ra, %call36(_ZSt16__ostream_insertIcSt11char_traitsIcEERSt13basic_ostreamIT_T0_ES6_PKS3_l)
	jirl	$ra, $ra, 0
.Ltmp104:                               # EH_LABEL
# %bb.22:                               # %invoke.cont18
.Ltmp105:                               # EH_LABEL
	pcalau12i	$a0, %got_pc_hi20(_ZSt4cerr)
	ld.d	$a0, $a0, %got_pc_lo12(_ZSt4cerr)
	pcalau12i	$a1, %pc_hi20(.L.str.338)
	addi.d	$a1, $a1, %pc_lo12(.L.str.338)
	ori	$a2, $zero, 5
	pcaddu18i	$ra, %call36(_ZSt16__ostream_insertIcSt11char_traitsIcEERSt13basic_ostreamIT_T0_ES6_PKS3_l)
	jirl	$ra, $ra, 0
.Ltmp106:                               # EH_LABEL
# %bb.23:                               # %invoke.cont20
.Ltmp107:                               # EH_LABEL
	pcalau12i	$a0, %got_pc_hi20(_ZSt4cerr)
	ld.d	$a0, $a0, %got_pc_lo12(_ZSt4cerr)
	pcalau12i	$a1, %pc_hi20(_ZN4Last8kDisplayE)
	addi.d	$a1, $a1, %pc_lo12(_ZN4Last8kDisplayE)
	ori	$a2, $zero, 4
	pcaddu18i	$ra, %call36(_ZSt16__ostream_insertIcSt11char_traitsIcEERSt13basic_ostreamIT_T0_ES6_PKS3_l)
	jirl	$ra, $ra, 0
.Ltmp108:                               # EH_LABEL
# %bb.24:                               # %invoke.cont22
.Ltmp109:                               # EH_LABEL
	pcalau12i	$a0, %got_pc_hi20(_ZSt4cerr)
	ld.d	$a0, $a0, %got_pc_lo12(_ZSt4cerr)
	pcalau12i	$a1, %pc_hi20(.L.str.339)
	addi.d	$a1, $a1, %pc_lo12(.L.str.339)
	ori	$a2, $zero, 7
	pcaddu18i	$ra, %call36(_ZSt16__ostream_insertIcSt11char_traitsIcEERSt13basic_ostreamIT_T0_ES6_PKS3_l)
	jirl	$ra, $ra, 0
.Ltmp110:                               # EH_LABEL
# %bb.25:                               # %invoke.cont24
.Ltmp111:                               # EH_LABEL
	pcalau12i	$a0, %got_pc_hi20(_ZSt4cerr)
	ld.d	$a0, $a0, %got_pc_lo12(_ZSt4cerr)
	ori	$a1, $zero, 1
	pcaddu18i	$ra, %call36(_ZNSolsEi)
	jirl	$ra, $ra, 0
.Ltmp112:                               # EH_LABEL
# %bb.26:                               # %invoke.cont26
.Ltmp113:                               # EH_LABEL
	pcaddu18i	$ra, %call36(_ZSt4endlIcSt11char_traitsIcEERSt13basic_ostreamIT_T0_ES6_)
	jirl	$ra, $ra, 0
.Ltmp114:                               # EH_LABEL
# %bb.27:                               # %invoke.cont28
	ori	$a0, $zero, 1
	pcaddu18i	$ra, %call36(exit)
	jirl	$ra, $ra, 0
.LBB4_28:                               # %lpad15
.Ltmp115:                               # EH_LABEL
	b	.LBB4_34
.LBB4_29:                               # %lpad4.i
.Ltmp100:                               # EH_LABEL
	ld.d	$a1, $sp, 24
	move	$s1, $a0
	beq	$a1, $s2, .LBB4_35
# %bb.30:                               # %if.then.i.i66
	move	$a0, $a1
	pcaddu18i	$ra, %call36(_ZdlPv)
	jirl	$ra, $ra, 0
	b	.LBB4_35
.LBB4_31:                               # %lpad.i
.Ltmp97:                                # EH_LABEL
	b	.LBB4_34
.LBB4_32:                               # %lpad2
.Ltmp89:                                # EH_LABEL
	move	$s1, $a0
	move	$a0, $fp
	pcaddu18i	$ra, %call36(_ZdlPv)
	jirl	$ra, $ra, 0
	move	$a0, $s1
	pcaddu18i	$ra, %call36(_Unwind_Resume)
	jirl	$ra, $ra, 0
.LBB4_33:                               # %lpad33
.Ltmp94:                                # EH_LABEL
.LBB4_34:                               # %_ZNSt6vectorIcSaIcEED2Ev.exit84
	move	$s1, $a0
.LBB4_35:                               # %_ZNSt6vectorIcSaIcEED2Ev.exit84
	move	$a0, $s0
	pcaddu18i	$ra, %call36(_ZdlPv)
	jirl	$ra, $ra, 0
	move	$a0, $fp
	pcaddu18i	$ra, %call36(_ZdlPv)
	jirl	$ra, $ra, 0
	move	$a0, $s1
	pcaddu18i	$ra, %call36(_Unwind_Resume)
	jirl	$ra, $ra, 0
.Lfunc_end4:
	.size	_Z9BM_MemCmpILi1E6EqZero4LastEvRN9benchmark5StateE, .Lfunc_end4-_Z9BM_MemCmpILi1E6EqZero4LastEvRN9benchmark5StateE
	.cfi_endproc
	.section	.gcc_except_table._Z9BM_MemCmpILi1E6EqZero4LastEvRN9benchmark5StateE,"aG",@progbits,_Z9BM_MemCmpILi1E6EqZero4LastEvRN9benchmark5StateE,comdat
	.p2align	2, 0x0
GCC_except_table4:
.Lexception3:
	.byte	255                             # @LPStart Encoding = omit
	.byte	255                             # @TType Encoding = omit
	.byte	1                               # Call site Encoding = uleb128
	.uleb128 .Lcst_end3-.Lcst_begin3
.Lcst_begin3:
	.uleb128 .Lfunc_begin3-.Lfunc_begin3    # >> Call Site 1 <<
	.uleb128 .Ltmp87-.Lfunc_begin3          #   Call between .Lfunc_begin3 and .Ltmp87
	.byte	0                               #     has no landing pad
	.byte	0                               #   On action: cleanup
	.uleb128 .Ltmp87-.Lfunc_begin3          # >> Call Site 2 <<
	.uleb128 .Ltmp88-.Ltmp87                #   Call between .Ltmp87 and .Ltmp88
	.uleb128 .Ltmp89-.Lfunc_begin3          #     jumps to .Ltmp89
	.byte	0                               #   On action: cleanup
	.uleb128 .Ltmp88-.Lfunc_begin3          # >> Call Site 3 <<
	.uleb128 .Ltmp90-.Ltmp88                #   Call between .Ltmp88 and .Ltmp90
	.byte	0                               #     has no landing pad
	.byte	0                               #   On action: cleanup
	.uleb128 .Ltmp90-.Lfunc_begin3          # >> Call Site 4 <<
	.uleb128 .Ltmp93-.Ltmp90                #   Call between .Ltmp90 and .Ltmp93
	.uleb128 .Ltmp94-.Lfunc_begin3          #     jumps to .Ltmp94
	.byte	0                               #   On action: cleanup
	.uleb128 .Ltmp95-.Lfunc_begin3          # >> Call Site 5 <<
	.uleb128 .Ltmp96-.Ltmp95                #   Call between .Ltmp95 and .Ltmp96
	.uleb128 .Ltmp97-.Lfunc_begin3          #     jumps to .Ltmp97
	.byte	0                               #   On action: cleanup
	.uleb128 .Ltmp98-.Lfunc_begin3          # >> Call Site 6 <<
	.uleb128 .Ltmp99-.Ltmp98                #   Call between .Ltmp98 and .Ltmp99
	.uleb128 .Ltmp100-.Lfunc_begin3         #     jumps to .Ltmp100
	.byte	0                               #   On action: cleanup
	.uleb128 .Ltmp99-.Lfunc_begin3          # >> Call Site 7 <<
	.uleb128 .Ltmp101-.Ltmp99               #   Call between .Ltmp99 and .Ltmp101
	.byte	0                               #     has no landing pad
	.byte	0                               #   On action: cleanup
	.uleb128 .Ltmp101-.Lfunc_begin3         # >> Call Site 8 <<
	.uleb128 .Ltmp114-.Ltmp101              #   Call between .Ltmp101 and .Ltmp114
	.uleb128 .Ltmp115-.Lfunc_begin3         #     jumps to .Ltmp115
	.byte	0                               #   On action: cleanup
	.uleb128 .Ltmp114-.Lfunc_begin3         # >> Call Site 9 <<
	.uleb128 .Lfunc_end4-.Ltmp114           #   Call between .Ltmp114 and .Lfunc_end4
	.byte	0                               #     has no landing pad
	.byte	0                               #   On action: cleanup
.Lcst_end3:
	.p2align	2, 0x0
                                        # -- End function
	.section	.text._Z9BM_MemCmpILi1E12LessThanZero4NoneEvRN9benchmark5StateE,"axG",@progbits,_Z9BM_MemCmpILi1E12LessThanZero4NoneEvRN9benchmark5StateE,comdat
	.weak	_Z9BM_MemCmpILi1E12LessThanZero4NoneEvRN9benchmark5StateE # -- Begin function _Z9BM_MemCmpILi1E12LessThanZero4NoneEvRN9benchmark5StateE
	.p2align	5
	.type	_Z9BM_MemCmpILi1E12LessThanZero4NoneEvRN9benchmark5StateE,@function
_Z9BM_MemCmpILi1E12LessThanZero4NoneEvRN9benchmark5StateE: # @_Z9BM_MemCmpILi1E12LessThanZero4NoneEvRN9benchmark5StateE
.Lfunc_begin4:
	.cfi_startproc
	.cfi_personality 155, DW.ref.__gxx_personality_v0
	.cfi_lsda 27, .Lexception4
# %bb.0:                                # %entry
	addi.d	$sp, $sp, -128
	.cfi_def_cfa_offset 128
	st.d	$ra, $sp, 120                   # 8-byte Folded Spill
	st.d	$fp, $sp, 112                   # 8-byte Folded Spill
	st.d	$s0, $sp, 104                   # 8-byte Folded Spill
	st.d	$s1, $sp, 96                    # 8-byte Folded Spill
	st.d	$s2, $sp, 88                    # 8-byte Folded Spill
	st.d	$s3, $sp, 80                    # 8-byte Folded Spill
	st.d	$s4, $sp, 72                    # 8-byte Folded Spill
	fst.d	$fs0, $sp, 64                   # 8-byte Folded Spill
	.cfi_offset 1, -8
	.cfi_offset 22, -16
	.cfi_offset 23, -24
	.cfi_offset 24, -32
	.cfi_offset 25, -40
	.cfi_offset 26, -48
	.cfi_offset 27, -56
	.cfi_offset 56, -64
	move	$s1, $a0
	lu12i.w	$s0, 1
	move	$a0, $s0
	pcaddu18i	$ra, %call36(_Znwm)
	jirl	$ra, $ra, 0
	move	$fp, $a0
	move	$a1, $zero
	move	$a2, $s0
	pcaddu18i	$ra, %call36(memset)
	jirl	$ra, $ra, 0
.Ltmp116:                               # EH_LABEL
	move	$a0, $s0
	pcaddu18i	$ra, %call36(_Znwm)
	jirl	$ra, $ra, 0
.Ltmp117:                               # EH_LABEL
# %bb.1:                                # %invoke.cont3
	move	$s0, $a0
	lu12i.w	$s2, 1
	move	$a1, $zero
	move	$a2, $s2
	pcaddu18i	$ra, %call36(memset)
	jirl	$ra, $ra, 0
	st.d	$fp, $sp, 16
	st.d	$s0, $sp, 8
	ori	$a2, $zero, 1
	move	$a0, $fp
	move	$a1, $s0
	pcaddu18i	$ra, %call36(_Z10RealMemCmpPKcS0_m)
	jirl	$ra, $ra, 0
	bltz	$a0, .LBB5_18
# %bb.2:                                # %if.end
	addi.d	$a0, $sp, 16
	#APP
	#NO_APP
	addi.d	$a0, $sp, 8
	#APP
	#NO_APP
	ld.w	$s4, $s1, 28
	ld.d	$s3, $s1, 16
.Ltmp119:                               # EH_LABEL
	move	$a0, $s1
	pcaddu18i	$ra, %call36(_ZN9benchmark5State16StartKeepRunningEv)
	jirl	$ra, $ra, 0
.Ltmp120:                               # EH_LABEL
# %bb.3:                                # %for.cond36.preheader
	bnez	$s4, .LBB5_9
# %bb.4:                                # %for.cond36.preheader
	beqz	$s3, .LBB5_9
# %bb.5:
	lu12i.w	$a0, -1
	.p2align	4, , 16
.LBB5_6:                                # %for.body40
                                        # =>This Loop Header: Depth=1
                                        #     Child Loop BB5_7 Depth 2
	#MEMBARRIER
	move	$a1, $a0
	.p2align	4, , 16
.LBB5_7:                                # %for.body47
                                        #   Parent Loop BB5_6 Depth=1
                                        # =>  This Inner Loop Header: Depth=2
	ld.d	$a2, $sp, 16
	ld.d	$a3, $sp, 8
	add.d	$a2, $a2, $a1
	add.d	$a3, $a3, $a1
	ldx.bu	$a2, $a2, $s2
	ldx.bu	$a3, $a3, $s2
	sltu	$a2, $a2, $a3
	st.b	$a2, $sp, 24
	#APP
	#NO_APP
	addi.d	$a1, $a1, 1
	bnez	$a1, .LBB5_7
# %bb.8:                                # %for.cond.cleanup46
                                        #   in Loop: Header=BB5_6 Depth=1
	addi.d	$s3, $s3, -1
	bnez	$s3, .LBB5_6
.LBB5_9:                                # %if.end.i
.Ltmp121:                               # EH_LABEL
	move	$a0, $s1
	pcaddu18i	$ra, %call36(_ZN9benchmark5State17FinishKeepRunningEv)
	jirl	$ra, $ra, 0
.Ltmp122:                               # EH_LABEL
# %bb.10:                               # %for.cond.cleanup39
	ld.bu	$a0, $s1, 24
	beqz	$a0, .LBB5_17
# %bb.11:                               # %if.end.i26
	ld.d	$a0, $s1, 16
	ld.d	$a1, $s1, 0
	ld.d	$a2, $s1, 8
	sub.d	$a0, $a0, $a1
	add.d	$a0, $a0, $a2
	slli.d	$a0, $a0, 12
	movgr2fr.d	$fa0, $a0
	ffint.d.l	$fs0, $fa0
.LBB5_12:                               # %_ZNK9benchmark5State10iterationsEv.exit
	addi.d	$s2, $sp, 40
	st.d	$s2, $sp, 24
	ori	$a0, $zero, 16
	st.d	$a0, $sp, 56
.Ltmp124:                               # EH_LABEL
	addi.d	$a0, $sp, 24
	addi.d	$a1, $sp, 56
	move	$a2, $zero
	pcaddu18i	$ra, %call36(_ZNSt7__cxx1112basic_stringIcSt11char_traitsIcESaIcEE9_M_createERmm)
	jirl	$ra, $ra, 0
.Ltmp125:                               # EH_LABEL
# %bb.13:                               # %call2.i5.i.noexc
	ld.d	$a1, $sp, 56
	pcalau12i	$a2, %pc_hi20(.L.str.341)
	vld	$vr0, $a2, %pc_lo12(.L.str.341)
	st.d	$a0, $sp, 24
	st.d	$a1, $sp, 40
	vst	$vr0, $a0, 0
	ld.d	$a0, $sp, 24
	st.d	$a1, $sp, 32
	stx.b	$zero, $a0, $a1
	addi.d	$a0, $s1, 64
.Ltmp127:                               # EH_LABEL
	addi.d	$a1, $sp, 24
	pcaddu18i	$ra, %call36(_ZNSt3mapINSt7__cxx1112basic_stringIcSt11char_traitsIcESaIcEEEN9benchmark7CounterESt4lessIS5_ESaISt4pairIKS5_S7_EEEixEOS5_)
	jirl	$ra, $ra, 0
.Ltmp128:                               # EH_LABEL
# %bb.14:                               # %_ZN9benchmark5State17SetBytesProcessedEl.exit
	fst.d	$fs0, $a0, 0
	ld.d	$a1, $sp, 24
	ori	$a2, $zero, 1
	lu32i.d	$a2, 1024
	st.d	$a2, $a0, 8
	beq	$a1, $s2, .LBB5_16
# %bb.15:                               # %if.then.i.i69
	move	$a0, $a1
	pcaddu18i	$ra, %call36(_ZdlPv)
	jirl	$ra, $ra, 0
.LBB5_16:                               # %_ZNSt6vectorIcSaIcEED2Ev.exit80
	move	$a0, $s0
	pcaddu18i	$ra, %call36(_ZdlPv)
	jirl	$ra, $ra, 0
	move	$a0, $fp
	pcaddu18i	$ra, %call36(_ZdlPv)
	jirl	$ra, $ra, 0
	fld.d	$fs0, $sp, 64                   # 8-byte Folded Reload
	ld.d	$s4, $sp, 72                    # 8-byte Folded Reload
	ld.d	$s3, $sp, 80                    # 8-byte Folded Reload
	ld.d	$s2, $sp, 88                    # 8-byte Folded Reload
	ld.d	$s1, $sp, 96                    # 8-byte Folded Reload
	ld.d	$s0, $sp, 104                   # 8-byte Folded Reload
	ld.d	$fp, $sp, 112                   # 8-byte Folded Reload
	ld.d	$ra, $sp, 120                   # 8-byte Folded Reload
	addi.d	$sp, $sp, 128
	ret
.LBB5_17:
	movgr2fr.d	$fs0, $zero
	b	.LBB5_12
.LBB5_18:                               # %if.then
.Ltmp130:                               # EH_LABEL
	pcalau12i	$a0, %got_pc_hi20(_ZSt4cerr)
	ld.d	$a0, $a0, %got_pc_lo12(_ZSt4cerr)
	pcalau12i	$a1, %pc_hi20(.L.str.337)
	addi.d	$a1, $a1, %pc_lo12(.L.str.337)
	ori	$a2, $zero, 25
	pcaddu18i	$ra, %call36(_ZSt16__ostream_insertIcSt11char_traitsIcEERSt13basic_ostreamIT_T0_ES6_PKS3_l)
	jirl	$ra, $ra, 0
.Ltmp131:                               # EH_LABEL
# %bb.19:                               # %invoke.cont16
.Ltmp132:                               # EH_LABEL
	pcalau12i	$a0, %got_pc_hi20(_ZSt4cerr)
	ld.d	$a0, $a0, %got_pc_lo12(_ZSt4cerr)
	pcalau12i	$a1, %pc_hi20(_ZN12LessThanZero8kDisplayE)
	addi.d	$a1, $a1, %pc_lo12(_ZN12LessThanZero8kDisplayE)
	ori	$a2, $zero, 12
	pcaddu18i	$ra, %call36(_ZSt16__ostream_insertIcSt11char_traitsIcEERSt13basic_ostreamIT_T0_ES6_PKS3_l)
	jirl	$ra, $ra, 0
.Ltmp133:                               # EH_LABEL
# %bb.20:                               # %invoke.cont18
.Ltmp134:                               # EH_LABEL
	pcalau12i	$a0, %got_pc_hi20(_ZSt4cerr)
	ld.d	$a0, $a0, %got_pc_lo12(_ZSt4cerr)
	pcalau12i	$a1, %pc_hi20(.L.str.338)
	addi.d	$a1, $a1, %pc_lo12(.L.str.338)
	ori	$a2, $zero, 5
	pcaddu18i	$ra, %call36(_ZSt16__ostream_insertIcSt11char_traitsIcEERSt13basic_ostreamIT_T0_ES6_PKS3_l)
	jirl	$ra, $ra, 0
.Ltmp135:                               # EH_LABEL
# %bb.21:                               # %invoke.cont20
.Ltmp136:                               # EH_LABEL
	pcalau12i	$a0, %got_pc_hi20(_ZSt4cerr)
	ld.d	$a0, $a0, %got_pc_lo12(_ZSt4cerr)
	pcalau12i	$a1, %pc_hi20(_ZN4None8kDisplayE)
	addi.d	$a1, $a1, %pc_lo12(_ZN4None8kDisplayE)
	ori	$a2, $zero, 4
	pcaddu18i	$ra, %call36(_ZSt16__ostream_insertIcSt11char_traitsIcEERSt13basic_ostreamIT_T0_ES6_PKS3_l)
	jirl	$ra, $ra, 0
.Ltmp137:                               # EH_LABEL
# %bb.22:                               # %invoke.cont22
.Ltmp138:                               # EH_LABEL
	pcalau12i	$a0, %got_pc_hi20(_ZSt4cerr)
	ld.d	$a0, $a0, %got_pc_lo12(_ZSt4cerr)
	pcalau12i	$a1, %pc_hi20(.L.str.339)
	addi.d	$a1, $a1, %pc_lo12(.L.str.339)
	ori	$a2, $zero, 7
	pcaddu18i	$ra, %call36(_ZSt16__ostream_insertIcSt11char_traitsIcEERSt13basic_ostreamIT_T0_ES6_PKS3_l)
	jirl	$ra, $ra, 0
.Ltmp139:                               # EH_LABEL
# %bb.23:                               # %invoke.cont24
.Ltmp140:                               # EH_LABEL
	pcalau12i	$a0, %got_pc_hi20(_ZSt4cerr)
	ld.d	$a0, $a0, %got_pc_lo12(_ZSt4cerr)
	ori	$a1, $zero, 1
	pcaddu18i	$ra, %call36(_ZNSolsEi)
	jirl	$ra, $ra, 0
.Ltmp141:                               # EH_LABEL
# %bb.24:                               # %invoke.cont26
.Ltmp142:                               # EH_LABEL
	pcaddu18i	$ra, %call36(_ZSt4endlIcSt11char_traitsIcEERSt13basic_ostreamIT_T0_ES6_)
	jirl	$ra, $ra, 0
.Ltmp143:                               # EH_LABEL
# %bb.25:                               # %invoke.cont28
	ori	$a0, $zero, 1
	pcaddu18i	$ra, %call36(exit)
	jirl	$ra, $ra, 0
.LBB5_26:                               # %lpad7
.Ltmp144:                               # EH_LABEL
	b	.LBB5_32
.LBB5_27:                               # %lpad4.i
.Ltmp129:                               # EH_LABEL
	ld.d	$a1, $sp, 24
	move	$s1, $a0
	beq	$a1, $s2, .LBB5_33
# %bb.28:                               # %if.then.i.i66
	move	$a0, $a1
	pcaddu18i	$ra, %call36(_ZdlPv)
	jirl	$ra, $ra, 0
	b	.LBB5_33
.LBB5_29:                               # %lpad.i
.Ltmp126:                               # EH_LABEL
	b	.LBB5_32
.LBB5_30:                               # %lpad2
.Ltmp118:                               # EH_LABEL
	move	$s1, $a0
	move	$a0, $fp
	pcaddu18i	$ra, %call36(_ZdlPv)
	jirl	$ra, $ra, 0
	move	$a0, $s1
	pcaddu18i	$ra, %call36(_Unwind_Resume)
	jirl	$ra, $ra, 0
.LBB5_31:                               # %lpad33
.Ltmp123:                               # EH_LABEL
.LBB5_32:                               # %_ZNSt6vectorIcSaIcEED2Ev.exit84
	move	$s1, $a0
.LBB5_33:                               # %_ZNSt6vectorIcSaIcEED2Ev.exit84
	move	$a0, $s0
	pcaddu18i	$ra, %call36(_ZdlPv)
	jirl	$ra, $ra, 0
	move	$a0, $fp
	pcaddu18i	$ra, %call36(_ZdlPv)
	jirl	$ra, $ra, 0
	move	$a0, $s1
	pcaddu18i	$ra, %call36(_Unwind_Resume)
	jirl	$ra, $ra, 0
.Lfunc_end5:
	.size	_Z9BM_MemCmpILi1E12LessThanZero4NoneEvRN9benchmark5StateE, .Lfunc_end5-_Z9BM_MemCmpILi1E12LessThanZero4NoneEvRN9benchmark5StateE
	.cfi_endproc
	.section	.gcc_except_table._Z9BM_MemCmpILi1E12LessThanZero4NoneEvRN9benchmark5StateE,"aG",@progbits,_Z9BM_MemCmpILi1E12LessThanZero4NoneEvRN9benchmark5StateE,comdat
	.p2align	2, 0x0
GCC_except_table5:
.Lexception4:
	.byte	255                             # @LPStart Encoding = omit
	.byte	255                             # @TType Encoding = omit
	.byte	1                               # Call site Encoding = uleb128
	.uleb128 .Lcst_end4-.Lcst_begin4
.Lcst_begin4:
	.uleb128 .Lfunc_begin4-.Lfunc_begin4    # >> Call Site 1 <<
	.uleb128 .Ltmp116-.Lfunc_begin4         #   Call between .Lfunc_begin4 and .Ltmp116
	.byte	0                               #     has no landing pad
	.byte	0                               #   On action: cleanup
	.uleb128 .Ltmp116-.Lfunc_begin4         # >> Call Site 2 <<
	.uleb128 .Ltmp117-.Ltmp116              #   Call between .Ltmp116 and .Ltmp117
	.uleb128 .Ltmp118-.Lfunc_begin4         #     jumps to .Ltmp118
	.byte	0                               #   On action: cleanup
	.uleb128 .Ltmp117-.Lfunc_begin4         # >> Call Site 3 <<
	.uleb128 .Ltmp119-.Ltmp117              #   Call between .Ltmp117 and .Ltmp119
	.byte	0                               #     has no landing pad
	.byte	0                               #   On action: cleanup
	.uleb128 .Ltmp119-.Lfunc_begin4         # >> Call Site 4 <<
	.uleb128 .Ltmp122-.Ltmp119              #   Call between .Ltmp119 and .Ltmp122
	.uleb128 .Ltmp123-.Lfunc_begin4         #     jumps to .Ltmp123
	.byte	0                               #   On action: cleanup
	.uleb128 .Ltmp124-.Lfunc_begin4         # >> Call Site 5 <<
	.uleb128 .Ltmp125-.Ltmp124              #   Call between .Ltmp124 and .Ltmp125
	.uleb128 .Ltmp126-.Lfunc_begin4         #     jumps to .Ltmp126
	.byte	0                               #   On action: cleanup
	.uleb128 .Ltmp127-.Lfunc_begin4         # >> Call Site 6 <<
	.uleb128 .Ltmp128-.Ltmp127              #   Call between .Ltmp127 and .Ltmp128
	.uleb128 .Ltmp129-.Lfunc_begin4         #     jumps to .Ltmp129
	.byte	0                               #   On action: cleanup
	.uleb128 .Ltmp128-.Lfunc_begin4         # >> Call Site 7 <<
	.uleb128 .Ltmp130-.Ltmp128              #   Call between .Ltmp128 and .Ltmp130
	.byte	0                               #     has no landing pad
	.byte	0                               #   On action: cleanup
	.uleb128 .Ltmp130-.Lfunc_begin4         # >> Call Site 8 <<
	.uleb128 .Ltmp143-.Ltmp130              #   Call between .Ltmp130 and .Ltmp143
	.uleb128 .Ltmp144-.Lfunc_begin4         #     jumps to .Ltmp144
	.byte	0                               #   On action: cleanup
	.uleb128 .Ltmp143-.Lfunc_begin4         # >> Call Site 9 <<
	.uleb128 .Lfunc_end5-.Ltmp143           #   Call between .Ltmp143 and .Lfunc_end5
	.byte	0                               #     has no landing pad
	.byte	0                               #   On action: cleanup
.Lcst_end4:
	.p2align	2, 0x0
                                        # -- End function
	.section	.text._Z9BM_MemCmpILi1E12LessThanZero5FirstEvRN9benchmark5StateE,"axG",@progbits,_Z9BM_MemCmpILi1E12LessThanZero5FirstEvRN9benchmark5StateE,comdat
	.weak	_Z9BM_MemCmpILi1E12LessThanZero5FirstEvRN9benchmark5StateE # -- Begin function _Z9BM_MemCmpILi1E12LessThanZero5FirstEvRN9benchmark5StateE
	.p2align	5
	.type	_Z9BM_MemCmpILi1E12LessThanZero5FirstEvRN9benchmark5StateE,@function
_Z9BM_MemCmpILi1E12LessThanZero5FirstEvRN9benchmark5StateE: # @_Z9BM_MemCmpILi1E12LessThanZero5FirstEvRN9benchmark5StateE
.Lfunc_begin5:
	.cfi_startproc
	.cfi_personality 155, DW.ref.__gxx_personality_v0
	.cfi_lsda 27, .Lexception5
# %bb.0:                                # %entry
	addi.d	$sp, $sp, -128
	.cfi_def_cfa_offset 128
	st.d	$ra, $sp, 120                   # 8-byte Folded Spill
	st.d	$fp, $sp, 112                   # 8-byte Folded Spill
	st.d	$s0, $sp, 104                   # 8-byte Folded Spill
	st.d	$s1, $sp, 96                    # 8-byte Folded Spill
	st.d	$s2, $sp, 88                    # 8-byte Folded Spill
	st.d	$s3, $sp, 80                    # 8-byte Folded Spill
	st.d	$s4, $sp, 72                    # 8-byte Folded Spill
	fst.d	$fs0, $sp, 64                   # 8-byte Folded Spill
	.cfi_offset 1, -8
	.cfi_offset 22, -16
	.cfi_offset 23, -24
	.cfi_offset 24, -32
	.cfi_offset 25, -40
	.cfi_offset 26, -48
	.cfi_offset 27, -56
	.cfi_offset 56, -64
	move	$s1, $a0
	lu12i.w	$s2, 1
	move	$a0, $s2
	pcaddu18i	$ra, %call36(_Znwm)
	jirl	$ra, $ra, 0
	move	$fp, $a0
	move	$a1, $zero
	move	$a2, $s2
	pcaddu18i	$ra, %call36(memset)
	jirl	$ra, $ra, 0
.Ltmp145:                               # EH_LABEL
	move	$a0, $s2
	pcaddu18i	$ra, %call36(_Znwm)
	jirl	$ra, $ra, 0
.Ltmp146:                               # EH_LABEL
# %bb.1:                                # %invoke.cont3
	move	$s0, $a0
	move	$a1, $zero
	move	$a2, $s2
	pcaddu18i	$ra, %call36(memset)
	jirl	$ra, $ra, 0
	st.d	$fp, $sp, 16
	st.d	$s0, $sp, 8
	lu12i.w	$a0, -1
	vrepli.b	$vr0, -1
	ori	$a1, $s2, 16
	.p2align	4, , 16
.LBB6_2:                                # %vector.body
                                        # =>This Inner Loop Header: Depth=1
	add.d	$a2, $fp, $a0
	vstx	$vr0, $a2, $s2
	addi.d	$a0, $a0, 32
	vstx	$vr0, $a2, $a1
	bnez	$a0, .LBB6_2
# %bb.3:                                # %for.cond.cleanup
	ori	$a2, $zero, 1
	move	$a0, $fp
	move	$a1, $s0
	pcaddu18i	$ra, %call36(_Z10RealMemCmpPKcS0_m)
	jirl	$ra, $ra, 0
	bltz	$a0, .LBB6_20
# %bb.4:                                # %if.end
	addi.d	$a0, $sp, 16
	#APP
	#NO_APP
	addi.d	$a0, $sp, 8
	#APP
	#NO_APP
	ld.w	$s4, $s1, 28
	ld.d	$s3, $s1, 16
.Ltmp148:                               # EH_LABEL
	move	$a0, $s1
	pcaddu18i	$ra, %call36(_ZN9benchmark5State16StartKeepRunningEv)
	jirl	$ra, $ra, 0
.Ltmp149:                               # EH_LABEL
# %bb.5:                                # %for.cond34.preheader
	bnez	$s4, .LBB6_11
# %bb.6:                                # %for.cond34.preheader
	beqz	$s3, .LBB6_11
# %bb.7:
	lu12i.w	$a0, -1
	.p2align	4, , 16
.LBB6_8:                                # %for.body38
                                        # =>This Loop Header: Depth=1
                                        #     Child Loop BB6_9 Depth 2
	#MEMBARRIER
	move	$a1, $a0
	.p2align	4, , 16
.LBB6_9:                                # %for.body45
                                        #   Parent Loop BB6_8 Depth=1
                                        # =>  This Inner Loop Header: Depth=2
	ld.d	$a2, $sp, 16
	ld.d	$a3, $sp, 8
	add.d	$a2, $a2, $a1
	add.d	$a3, $a3, $a1
	ldx.bu	$a2, $a2, $s2
	ldx.bu	$a3, $a3, $s2
	sltu	$a2, $a2, $a3
	st.b	$a2, $sp, 24
	#APP
	#NO_APP
	addi.d	$a1, $a1, 1
	bnez	$a1, .LBB6_9
# %bb.10:                               # %for.cond.cleanup44
                                        #   in Loop: Header=BB6_8 Depth=1
	addi.d	$s3, $s3, -1
	bnez	$s3, .LBB6_8
.LBB6_11:                               # %if.end.i
.Ltmp150:                               # EH_LABEL
	move	$a0, $s1
	pcaddu18i	$ra, %call36(_ZN9benchmark5State17FinishKeepRunningEv)
	jirl	$ra, $ra, 0
.Ltmp151:                               # EH_LABEL
# %bb.12:                               # %for.cond.cleanup37
	ld.bu	$a0, $s1, 24
	beqz	$a0, .LBB6_19
# %bb.13:                               # %if.end.i26
	ld.d	$a0, $s1, 16
	ld.d	$a1, $s1, 0
	ld.d	$a2, $s1, 8
	sub.d	$a0, $a0, $a1
	add.d	$a0, $a0, $a2
	slli.d	$a0, $a0, 12
	movgr2fr.d	$fa0, $a0
	ffint.d.l	$fs0, $fa0
.LBB6_14:                               # %_ZNK9benchmark5State10iterationsEv.exit
	addi.d	$s2, $sp, 40
	st.d	$s2, $sp, 24
	ori	$a0, $zero, 16
	st.d	$a0, $sp, 56
.Ltmp153:                               # EH_LABEL
	addi.d	$a0, $sp, 24
	addi.d	$a1, $sp, 56
	move	$a2, $zero
	pcaddu18i	$ra, %call36(_ZNSt7__cxx1112basic_stringIcSt11char_traitsIcESaIcEE9_M_createERmm)
	jirl	$ra, $ra, 0
.Ltmp154:                               # EH_LABEL
# %bb.15:                               # %call2.i5.i.noexc
	ld.d	$a1, $sp, 56
	pcalau12i	$a2, %pc_hi20(.L.str.341)
	vld	$vr0, $a2, %pc_lo12(.L.str.341)
	st.d	$a0, $sp, 24
	st.d	$a1, $sp, 40
	vst	$vr0, $a0, 0
	ld.d	$a0, $sp, 24
	st.d	$a1, $sp, 32
	stx.b	$zero, $a0, $a1
	addi.d	$a0, $s1, 64
.Ltmp156:                               # EH_LABEL
	addi.d	$a1, $sp, 24
	pcaddu18i	$ra, %call36(_ZNSt3mapINSt7__cxx1112basic_stringIcSt11char_traitsIcESaIcEEEN9benchmark7CounterESt4lessIS5_ESaISt4pairIKS5_S7_EEEixEOS5_)
	jirl	$ra, $ra, 0
.Ltmp157:                               # EH_LABEL
# %bb.16:                               # %_ZN9benchmark5State17SetBytesProcessedEl.exit
	fst.d	$fs0, $a0, 0
	ld.d	$a1, $sp, 24
	ori	$a2, $zero, 1
	lu32i.d	$a2, 1024
	st.d	$a2, $a0, 8
	beq	$a1, $s2, .LBB6_18
# %bb.17:                               # %if.then.i.i69
	move	$a0, $a1
	pcaddu18i	$ra, %call36(_ZdlPv)
	jirl	$ra, $ra, 0
.LBB6_18:                               # %_ZNSt6vectorIcSaIcEED2Ev.exit80
	move	$a0, $s0
	pcaddu18i	$ra, %call36(_ZdlPv)
	jirl	$ra, $ra, 0
	move	$a0, $fp
	pcaddu18i	$ra, %call36(_ZdlPv)
	jirl	$ra, $ra, 0
	fld.d	$fs0, $sp, 64                   # 8-byte Folded Reload
	ld.d	$s4, $sp, 72                    # 8-byte Folded Reload
	ld.d	$s3, $sp, 80                    # 8-byte Folded Reload
	ld.d	$s2, $sp, 88                    # 8-byte Folded Reload
	ld.d	$s1, $sp, 96                    # 8-byte Folded Reload
	ld.d	$s0, $sp, 104                   # 8-byte Folded Reload
	ld.d	$fp, $sp, 112                   # 8-byte Folded Reload
	ld.d	$ra, $sp, 120                   # 8-byte Folded Reload
	addi.d	$sp, $sp, 128
	ret
.LBB6_19:
	movgr2fr.d	$fs0, $zero
	b	.LBB6_14
.LBB6_20:                               # %if.then
.Ltmp159:                               # EH_LABEL
	pcalau12i	$a0, %got_pc_hi20(_ZSt4cerr)
	ld.d	$a0, $a0, %got_pc_lo12(_ZSt4cerr)
	pcalau12i	$a1, %pc_hi20(.L.str.337)
	addi.d	$a1, $a1, %pc_lo12(.L.str.337)
	ori	$a2, $zero, 25
	pcaddu18i	$ra, %call36(_ZSt16__ostream_insertIcSt11char_traitsIcEERSt13basic_ostreamIT_T0_ES6_PKS3_l)
	jirl	$ra, $ra, 0
.Ltmp160:                               # EH_LABEL
# %bb.21:                               # %invoke.cont14
.Ltmp161:                               # EH_LABEL
	pcalau12i	$a0, %got_pc_hi20(_ZSt4cerr)
	ld.d	$a0, $a0, %got_pc_lo12(_ZSt4cerr)
	pcalau12i	$a1, %pc_hi20(_ZN12LessThanZero8kDisplayE)
	addi.d	$a1, $a1, %pc_lo12(_ZN12LessThanZero8kDisplayE)
	ori	$a2, $zero, 12
	pcaddu18i	$ra, %call36(_ZSt16__ostream_insertIcSt11char_traitsIcEERSt13basic_ostreamIT_T0_ES6_PKS3_l)
	jirl	$ra, $ra, 0
.Ltmp162:                               # EH_LABEL
# %bb.22:                               # %invoke.cont16
.Ltmp163:                               # EH_LABEL
	pcalau12i	$a0, %got_pc_hi20(_ZSt4cerr)
	ld.d	$a0, $a0, %got_pc_lo12(_ZSt4cerr)
	pcalau12i	$a1, %pc_hi20(.L.str.338)
	addi.d	$a1, $a1, %pc_lo12(.L.str.338)
	ori	$a2, $zero, 5
	pcaddu18i	$ra, %call36(_ZSt16__ostream_insertIcSt11char_traitsIcEERSt13basic_ostreamIT_T0_ES6_PKS3_l)
	jirl	$ra, $ra, 0
.Ltmp164:                               # EH_LABEL
# %bb.23:                               # %invoke.cont18
.Ltmp165:                               # EH_LABEL
	pcalau12i	$a0, %got_pc_hi20(_ZSt4cerr)
	ld.d	$a0, $a0, %got_pc_lo12(_ZSt4cerr)
	pcalau12i	$a1, %pc_hi20(_ZN5First8kDisplayE)
	addi.d	$a1, $a1, %pc_lo12(_ZN5First8kDisplayE)
	ori	$a2, $zero, 5
	pcaddu18i	$ra, %call36(_ZSt16__ostream_insertIcSt11char_traitsIcEERSt13basic_ostreamIT_T0_ES6_PKS3_l)
	jirl	$ra, $ra, 0
.Ltmp166:                               # EH_LABEL
# %bb.24:                               # %invoke.cont20
.Ltmp167:                               # EH_LABEL
	pcalau12i	$a0, %got_pc_hi20(_ZSt4cerr)
	ld.d	$a0, $a0, %got_pc_lo12(_ZSt4cerr)
	pcalau12i	$a1, %pc_hi20(.L.str.339)
	addi.d	$a1, $a1, %pc_lo12(.L.str.339)
	ori	$a2, $zero, 7
	pcaddu18i	$ra, %call36(_ZSt16__ostream_insertIcSt11char_traitsIcEERSt13basic_ostreamIT_T0_ES6_PKS3_l)
	jirl	$ra, $ra, 0
.Ltmp168:                               # EH_LABEL
# %bb.25:                               # %invoke.cont22
.Ltmp169:                               # EH_LABEL
	pcalau12i	$a0, %got_pc_hi20(_ZSt4cerr)
	ld.d	$a0, $a0, %got_pc_lo12(_ZSt4cerr)
	ori	$a1, $zero, 1
	pcaddu18i	$ra, %call36(_ZNSolsEi)
	jirl	$ra, $ra, 0
.Ltmp170:                               # EH_LABEL
# %bb.26:                               # %invoke.cont24
.Ltmp171:                               # EH_LABEL
	pcaddu18i	$ra, %call36(_ZSt4endlIcSt11char_traitsIcEERSt13basic_ostreamIT_T0_ES6_)
	jirl	$ra, $ra, 0
.Ltmp172:                               # EH_LABEL
# %bb.27:                               # %invoke.cont26
	ori	$a0, $zero, 1
	pcaddu18i	$ra, %call36(exit)
	jirl	$ra, $ra, 0
.LBB6_28:                               # %lpad13
.Ltmp173:                               # EH_LABEL
	b	.LBB6_34
.LBB6_29:                               # %lpad4.i
.Ltmp158:                               # EH_LABEL
	ld.d	$a1, $sp, 24
	move	$s1, $a0
	beq	$a1, $s2, .LBB6_35
# %bb.30:                               # %if.then.i.i66
	move	$a0, $a1
	pcaddu18i	$ra, %call36(_ZdlPv)
	jirl	$ra, $ra, 0
	b	.LBB6_35
.LBB6_31:                               # %lpad.i
.Ltmp155:                               # EH_LABEL
	b	.LBB6_34
.LBB6_32:                               # %lpad2
.Ltmp147:                               # EH_LABEL
	move	$s1, $a0
	move	$a0, $fp
	pcaddu18i	$ra, %call36(_ZdlPv)
	jirl	$ra, $ra, 0
	move	$a0, $s1
	pcaddu18i	$ra, %call36(_Unwind_Resume)
	jirl	$ra, $ra, 0
.LBB6_33:                               # %lpad31
.Ltmp152:                               # EH_LABEL
.LBB6_34:                               # %_ZNSt6vectorIcSaIcEED2Ev.exit84
	move	$s1, $a0
.LBB6_35:                               # %_ZNSt6vectorIcSaIcEED2Ev.exit84
	move	$a0, $s0
	pcaddu18i	$ra, %call36(_ZdlPv)
	jirl	$ra, $ra, 0
	move	$a0, $fp
	pcaddu18i	$ra, %call36(_ZdlPv)
	jirl	$ra, $ra, 0
	move	$a0, $s1
	pcaddu18i	$ra, %call36(_Unwind_Resume)
	jirl	$ra, $ra, 0
.Lfunc_end6:
	.size	_Z9BM_MemCmpILi1E12LessThanZero5FirstEvRN9benchmark5StateE, .Lfunc_end6-_Z9BM_MemCmpILi1E12LessThanZero5FirstEvRN9benchmark5StateE
	.cfi_endproc
	.section	.gcc_except_table._Z9BM_MemCmpILi1E12LessThanZero5FirstEvRN9benchmark5StateE,"aG",@progbits,_Z9BM_MemCmpILi1E12LessThanZero5FirstEvRN9benchmark5StateE,comdat
	.p2align	2, 0x0
GCC_except_table6:
.Lexception5:
	.byte	255                             # @LPStart Encoding = omit
	.byte	255                             # @TType Encoding = omit
	.byte	1                               # Call site Encoding = uleb128
	.uleb128 .Lcst_end5-.Lcst_begin5
.Lcst_begin5:
	.uleb128 .Lfunc_begin5-.Lfunc_begin5    # >> Call Site 1 <<
	.uleb128 .Ltmp145-.Lfunc_begin5         #   Call between .Lfunc_begin5 and .Ltmp145
	.byte	0                               #     has no landing pad
	.byte	0                               #   On action: cleanup
	.uleb128 .Ltmp145-.Lfunc_begin5         # >> Call Site 2 <<
	.uleb128 .Ltmp146-.Ltmp145              #   Call between .Ltmp145 and .Ltmp146
	.uleb128 .Ltmp147-.Lfunc_begin5         #     jumps to .Ltmp147
	.byte	0                               #   On action: cleanup
	.uleb128 .Ltmp146-.Lfunc_begin5         # >> Call Site 3 <<
	.uleb128 .Ltmp148-.Ltmp146              #   Call between .Ltmp146 and .Ltmp148
	.byte	0                               #     has no landing pad
	.byte	0                               #   On action: cleanup
	.uleb128 .Ltmp148-.Lfunc_begin5         # >> Call Site 4 <<
	.uleb128 .Ltmp151-.Ltmp148              #   Call between .Ltmp148 and .Ltmp151
	.uleb128 .Ltmp152-.Lfunc_begin5         #     jumps to .Ltmp152
	.byte	0                               #   On action: cleanup
	.uleb128 .Ltmp153-.Lfunc_begin5         # >> Call Site 5 <<
	.uleb128 .Ltmp154-.Ltmp153              #   Call between .Ltmp153 and .Ltmp154
	.uleb128 .Ltmp155-.Lfunc_begin5         #     jumps to .Ltmp155
	.byte	0                               #   On action: cleanup
	.uleb128 .Ltmp156-.Lfunc_begin5         # >> Call Site 6 <<
	.uleb128 .Ltmp157-.Ltmp156              #   Call between .Ltmp156 and .Ltmp157
	.uleb128 .Ltmp158-.Lfunc_begin5         #     jumps to .Ltmp158
	.byte	0                               #   On action: cleanup
	.uleb128 .Ltmp157-.Lfunc_begin5         # >> Call Site 7 <<
	.uleb128 .Ltmp159-.Ltmp157              #   Call between .Ltmp157 and .Ltmp159
	.byte	0                               #     has no landing pad
	.byte	0                               #   On action: cleanup
	.uleb128 .Ltmp159-.Lfunc_begin5         # >> Call Site 8 <<
	.uleb128 .Ltmp172-.Ltmp159              #   Call between .Ltmp159 and .Ltmp172
	.uleb128 .Ltmp173-.Lfunc_begin5         #     jumps to .Ltmp173
	.byte	0                               #   On action: cleanup
	.uleb128 .Ltmp172-.Lfunc_begin5         # >> Call Site 9 <<
	.uleb128 .Lfunc_end6-.Ltmp172           #   Call between .Ltmp172 and .Lfunc_end6
	.byte	0                               #     has no landing pad
	.byte	0                               #   On action: cleanup
.Lcst_end5:
	.p2align	2, 0x0
                                        # -- End function
	.section	.text._Z9BM_MemCmpILi1E12LessThanZero3MidEvRN9benchmark5StateE,"axG",@progbits,_Z9BM_MemCmpILi1E12LessThanZero3MidEvRN9benchmark5StateE,comdat
	.weak	_Z9BM_MemCmpILi1E12LessThanZero3MidEvRN9benchmark5StateE # -- Begin function _Z9BM_MemCmpILi1E12LessThanZero3MidEvRN9benchmark5StateE
	.p2align	5
	.type	_Z9BM_MemCmpILi1E12LessThanZero3MidEvRN9benchmark5StateE,@function
_Z9BM_MemCmpILi1E12LessThanZero3MidEvRN9benchmark5StateE: # @_Z9BM_MemCmpILi1E12LessThanZero3MidEvRN9benchmark5StateE
.Lfunc_begin6:
	.cfi_startproc
	.cfi_personality 155, DW.ref.__gxx_personality_v0
	.cfi_lsda 27, .Lexception6
# %bb.0:                                # %entry
	addi.d	$sp, $sp, -128
	.cfi_def_cfa_offset 128
	st.d	$ra, $sp, 120                   # 8-byte Folded Spill
	st.d	$fp, $sp, 112                   # 8-byte Folded Spill
	st.d	$s0, $sp, 104                   # 8-byte Folded Spill
	st.d	$s1, $sp, 96                    # 8-byte Folded Spill
	st.d	$s2, $sp, 88                    # 8-byte Folded Spill
	st.d	$s3, $sp, 80                    # 8-byte Folded Spill
	st.d	$s4, $sp, 72                    # 8-byte Folded Spill
	fst.d	$fs0, $sp, 64                   # 8-byte Folded Spill
	.cfi_offset 1, -8
	.cfi_offset 22, -16
	.cfi_offset 23, -24
	.cfi_offset 24, -32
	.cfi_offset 25, -40
	.cfi_offset 26, -48
	.cfi_offset 27, -56
	.cfi_offset 56, -64
	move	$s1, $a0
	lu12i.w	$s2, 1
	move	$a0, $s2
	pcaddu18i	$ra, %call36(_Znwm)
	jirl	$ra, $ra, 0
	move	$fp, $a0
	move	$a1, $zero
	move	$a2, $s2
	pcaddu18i	$ra, %call36(memset)
	jirl	$ra, $ra, 0
.Ltmp174:                               # EH_LABEL
	move	$a0, $s2
	pcaddu18i	$ra, %call36(_Znwm)
	jirl	$ra, $ra, 0
.Ltmp175:                               # EH_LABEL
# %bb.1:                                # %invoke.cont3
	move	$s0, $a0
	move	$a1, $zero
	move	$a2, $s2
	pcaddu18i	$ra, %call36(memset)
	jirl	$ra, $ra, 0
	st.d	$fp, $sp, 16
	st.d	$s0, $sp, 8
	lu12i.w	$a0, -1
	vrepli.b	$vr0, -1
	ori	$a1, $s2, 16
	.p2align	4, , 16
.LBB7_2:                                # %vector.body
                                        # =>This Inner Loop Header: Depth=1
	add.d	$a2, $fp, $a0
	vstx	$vr0, $a2, $s2
	addi.d	$a0, $a0, 32
	vstx	$vr0, $a2, $a1
	bnez	$a0, .LBB7_2
# %bb.3:                                # %for.cond.cleanup
	ori	$a2, $zero, 1
	move	$a0, $fp
	move	$a1, $s0
	pcaddu18i	$ra, %call36(_Z10RealMemCmpPKcS0_m)
	jirl	$ra, $ra, 0
	bltz	$a0, .LBB7_20
# %bb.4:                                # %if.end
	addi.d	$a0, $sp, 16
	#APP
	#NO_APP
	addi.d	$a0, $sp, 8
	#APP
	#NO_APP
	ld.w	$s4, $s1, 28
	ld.d	$s3, $s1, 16
.Ltmp177:                               # EH_LABEL
	move	$a0, $s1
	pcaddu18i	$ra, %call36(_ZN9benchmark5State16StartKeepRunningEv)
	jirl	$ra, $ra, 0
.Ltmp178:                               # EH_LABEL
# %bb.5:                                # %for.cond34.preheader
	bnez	$s4, .LBB7_11
# %bb.6:                                # %for.cond34.preheader
	beqz	$s3, .LBB7_11
# %bb.7:
	lu12i.w	$a0, -1
	.p2align	4, , 16
.LBB7_8:                                # %for.body38
                                        # =>This Loop Header: Depth=1
                                        #     Child Loop BB7_9 Depth 2
	#MEMBARRIER
	move	$a1, $a0
	.p2align	4, , 16
.LBB7_9:                                # %for.body45
                                        #   Parent Loop BB7_8 Depth=1
                                        # =>  This Inner Loop Header: Depth=2
	ld.d	$a2, $sp, 16
	ld.d	$a3, $sp, 8
	add.d	$a2, $a2, $a1
	add.d	$a3, $a3, $a1
	ldx.bu	$a2, $a2, $s2
	ldx.bu	$a3, $a3, $s2
	sltu	$a2, $a2, $a3
	st.b	$a2, $sp, 24
	#APP
	#NO_APP
	addi.d	$a1, $a1, 1
	bnez	$a1, .LBB7_9
# %bb.10:                               # %for.cond.cleanup44
                                        #   in Loop: Header=BB7_8 Depth=1
	addi.d	$s3, $s3, -1
	bnez	$s3, .LBB7_8
.LBB7_11:                               # %if.end.i
.Ltmp179:                               # EH_LABEL
	move	$a0, $s1
	pcaddu18i	$ra, %call36(_ZN9benchmark5State17FinishKeepRunningEv)
	jirl	$ra, $ra, 0
.Ltmp180:                               # EH_LABEL
# %bb.12:                               # %for.cond.cleanup37
	ld.bu	$a0, $s1, 24
	beqz	$a0, .LBB7_19
# %bb.13:                               # %if.end.i26
	ld.d	$a0, $s1, 16
	ld.d	$a1, $s1, 0
	ld.d	$a2, $s1, 8
	sub.d	$a0, $a0, $a1
	add.d	$a0, $a0, $a2
	slli.d	$a0, $a0, 12
	movgr2fr.d	$fa0, $a0
	ffint.d.l	$fs0, $fa0
.LBB7_14:                               # %_ZNK9benchmark5State10iterationsEv.exit
	addi.d	$s2, $sp, 40
	st.d	$s2, $sp, 24
	ori	$a0, $zero, 16
	st.d	$a0, $sp, 56
.Ltmp182:                               # EH_LABEL
	addi.d	$a0, $sp, 24
	addi.d	$a1, $sp, 56
	move	$a2, $zero
	pcaddu18i	$ra, %call36(_ZNSt7__cxx1112basic_stringIcSt11char_traitsIcESaIcEE9_M_createERmm)
	jirl	$ra, $ra, 0
.Ltmp183:                               # EH_LABEL
# %bb.15:                               # %call2.i5.i.noexc
	ld.d	$a1, $sp, 56
	pcalau12i	$a2, %pc_hi20(.L.str.341)
	vld	$vr0, $a2, %pc_lo12(.L.str.341)
	st.d	$a0, $sp, 24
	st.d	$a1, $sp, 40
	vst	$vr0, $a0, 0
	ld.d	$a0, $sp, 24
	st.d	$a1, $sp, 32
	stx.b	$zero, $a0, $a1
	addi.d	$a0, $s1, 64
.Ltmp185:                               # EH_LABEL
	addi.d	$a1, $sp, 24
	pcaddu18i	$ra, %call36(_ZNSt3mapINSt7__cxx1112basic_stringIcSt11char_traitsIcESaIcEEEN9benchmark7CounterESt4lessIS5_ESaISt4pairIKS5_S7_EEEixEOS5_)
	jirl	$ra, $ra, 0
.Ltmp186:                               # EH_LABEL
# %bb.16:                               # %_ZN9benchmark5State17SetBytesProcessedEl.exit
	fst.d	$fs0, $a0, 0
	ld.d	$a1, $sp, 24
	ori	$a2, $zero, 1
	lu32i.d	$a2, 1024
	st.d	$a2, $a0, 8
	beq	$a1, $s2, .LBB7_18
# %bb.17:                               # %if.then.i.i69
	move	$a0, $a1
	pcaddu18i	$ra, %call36(_ZdlPv)
	jirl	$ra, $ra, 0
.LBB7_18:                               # %_ZNSt6vectorIcSaIcEED2Ev.exit80
	move	$a0, $s0
	pcaddu18i	$ra, %call36(_ZdlPv)
	jirl	$ra, $ra, 0
	move	$a0, $fp
	pcaddu18i	$ra, %call36(_ZdlPv)
	jirl	$ra, $ra, 0
	fld.d	$fs0, $sp, 64                   # 8-byte Folded Reload
	ld.d	$s4, $sp, 72                    # 8-byte Folded Reload
	ld.d	$s3, $sp, 80                    # 8-byte Folded Reload
	ld.d	$s2, $sp, 88                    # 8-byte Folded Reload
	ld.d	$s1, $sp, 96                    # 8-byte Folded Reload
	ld.d	$s0, $sp, 104                   # 8-byte Folded Reload
	ld.d	$fp, $sp, 112                   # 8-byte Folded Reload
	ld.d	$ra, $sp, 120                   # 8-byte Folded Reload
	addi.d	$sp, $sp, 128
	ret
.LBB7_19:
	movgr2fr.d	$fs0, $zero
	b	.LBB7_14
.LBB7_20:                               # %if.then
.Ltmp188:                               # EH_LABEL
	pcalau12i	$a0, %got_pc_hi20(_ZSt4cerr)
	ld.d	$a0, $a0, %got_pc_lo12(_ZSt4cerr)
	pcalau12i	$a1, %pc_hi20(.L.str.337)
	addi.d	$a1, $a1, %pc_lo12(.L.str.337)
	ori	$a2, $zero, 25
	pcaddu18i	$ra, %call36(_ZSt16__ostream_insertIcSt11char_traitsIcEERSt13basic_ostreamIT_T0_ES6_PKS3_l)
	jirl	$ra, $ra, 0
.Ltmp189:                               # EH_LABEL
# %bb.21:                               # %invoke.cont14
.Ltmp190:                               # EH_LABEL
	pcalau12i	$a0, %got_pc_hi20(_ZSt4cerr)
	ld.d	$a0, $a0, %got_pc_lo12(_ZSt4cerr)
	pcalau12i	$a1, %pc_hi20(_ZN12LessThanZero8kDisplayE)
	addi.d	$a1, $a1, %pc_lo12(_ZN12LessThanZero8kDisplayE)
	ori	$a2, $zero, 12
	pcaddu18i	$ra, %call36(_ZSt16__ostream_insertIcSt11char_traitsIcEERSt13basic_ostreamIT_T0_ES6_PKS3_l)
	jirl	$ra, $ra, 0
.Ltmp191:                               # EH_LABEL
# %bb.22:                               # %invoke.cont16
.Ltmp192:                               # EH_LABEL
	pcalau12i	$a0, %got_pc_hi20(_ZSt4cerr)
	ld.d	$a0, $a0, %got_pc_lo12(_ZSt4cerr)
	pcalau12i	$a1, %pc_hi20(.L.str.338)
	addi.d	$a1, $a1, %pc_lo12(.L.str.338)
	ori	$a2, $zero, 5
	pcaddu18i	$ra, %call36(_ZSt16__ostream_insertIcSt11char_traitsIcEERSt13basic_ostreamIT_T0_ES6_PKS3_l)
	jirl	$ra, $ra, 0
.Ltmp193:                               # EH_LABEL
# %bb.23:                               # %invoke.cont18
.Ltmp194:                               # EH_LABEL
	pcalau12i	$a0, %got_pc_hi20(_ZSt4cerr)
	ld.d	$a0, $a0, %got_pc_lo12(_ZSt4cerr)
	pcalau12i	$a1, %pc_hi20(_ZN3Mid8kDisplayE)
	addi.d	$a1, $a1, %pc_lo12(_ZN3Mid8kDisplayE)
	ori	$a2, $zero, 3
	pcaddu18i	$ra, %call36(_ZSt16__ostream_insertIcSt11char_traitsIcEERSt13basic_ostreamIT_T0_ES6_PKS3_l)
	jirl	$ra, $ra, 0
.Ltmp195:                               # EH_LABEL
# %bb.24:                               # %invoke.cont20
.Ltmp196:                               # EH_LABEL
	pcalau12i	$a0, %got_pc_hi20(_ZSt4cerr)
	ld.d	$a0, $a0, %got_pc_lo12(_ZSt4cerr)
	pcalau12i	$a1, %pc_hi20(.L.str.339)
	addi.d	$a1, $a1, %pc_lo12(.L.str.339)
	ori	$a2, $zero, 7
	pcaddu18i	$ra, %call36(_ZSt16__ostream_insertIcSt11char_traitsIcEERSt13basic_ostreamIT_T0_ES6_PKS3_l)
	jirl	$ra, $ra, 0
.Ltmp197:                               # EH_LABEL
# %bb.25:                               # %invoke.cont22
.Ltmp198:                               # EH_LABEL
	pcalau12i	$a0, %got_pc_hi20(_ZSt4cerr)
	ld.d	$a0, $a0, %got_pc_lo12(_ZSt4cerr)
	ori	$a1, $zero, 1
	pcaddu18i	$ra, %call36(_ZNSolsEi)
	jirl	$ra, $ra, 0
.Ltmp199:                               # EH_LABEL
# %bb.26:                               # %invoke.cont24
.Ltmp200:                               # EH_LABEL
	pcaddu18i	$ra, %call36(_ZSt4endlIcSt11char_traitsIcEERSt13basic_ostreamIT_T0_ES6_)
	jirl	$ra, $ra, 0
.Ltmp201:                               # EH_LABEL
# %bb.27:                               # %invoke.cont26
	ori	$a0, $zero, 1
	pcaddu18i	$ra, %call36(exit)
	jirl	$ra, $ra, 0
.LBB7_28:                               # %lpad13
.Ltmp202:                               # EH_LABEL
	b	.LBB7_34
.LBB7_29:                               # %lpad4.i
.Ltmp187:                               # EH_LABEL
	ld.d	$a1, $sp, 24
	move	$s1, $a0
	beq	$a1, $s2, .LBB7_35
# %bb.30:                               # %if.then.i.i66
	move	$a0, $a1
	pcaddu18i	$ra, %call36(_ZdlPv)
	jirl	$ra, $ra, 0
	b	.LBB7_35
.LBB7_31:                               # %lpad.i
.Ltmp184:                               # EH_LABEL
	b	.LBB7_34
.LBB7_32:                               # %lpad2
.Ltmp176:                               # EH_LABEL
	move	$s1, $a0
	move	$a0, $fp
	pcaddu18i	$ra, %call36(_ZdlPv)
	jirl	$ra, $ra, 0
	move	$a0, $s1
	pcaddu18i	$ra, %call36(_Unwind_Resume)
	jirl	$ra, $ra, 0
.LBB7_33:                               # %lpad31
.Ltmp181:                               # EH_LABEL
.LBB7_34:                               # %_ZNSt6vectorIcSaIcEED2Ev.exit84
	move	$s1, $a0
.LBB7_35:                               # %_ZNSt6vectorIcSaIcEED2Ev.exit84
	move	$a0, $s0
	pcaddu18i	$ra, %call36(_ZdlPv)
	jirl	$ra, $ra, 0
	move	$a0, $fp
	pcaddu18i	$ra, %call36(_ZdlPv)
	jirl	$ra, $ra, 0
	move	$a0, $s1
	pcaddu18i	$ra, %call36(_Unwind_Resume)
	jirl	$ra, $ra, 0
.Lfunc_end7:
	.size	_Z9BM_MemCmpILi1E12LessThanZero3MidEvRN9benchmark5StateE, .Lfunc_end7-_Z9BM_MemCmpILi1E12LessThanZero3MidEvRN9benchmark5StateE
	.cfi_endproc
	.section	.gcc_except_table._Z9BM_MemCmpILi1E12LessThanZero3MidEvRN9benchmark5StateE,"aG",@progbits,_Z9BM_MemCmpILi1E12LessThanZero3MidEvRN9benchmark5StateE,comdat
	.p2align	2, 0x0
GCC_except_table7:
.Lexception6:
	.byte	255                             # @LPStart Encoding = omit
	.byte	255                             # @TType Encoding = omit
	.byte	1                               # Call site Encoding = uleb128
	.uleb128 .Lcst_end6-.Lcst_begin6
.Lcst_begin6:
	.uleb128 .Lfunc_begin6-.Lfunc_begin6    # >> Call Site 1 <<
	.uleb128 .Ltmp174-.Lfunc_begin6         #   Call between .Lfunc_begin6 and .Ltmp174
	.byte	0                               #     has no landing pad
	.byte	0                               #   On action: cleanup
	.uleb128 .Ltmp174-.Lfunc_begin6         # >> Call Site 2 <<
	.uleb128 .Ltmp175-.Ltmp174              #   Call between .Ltmp174 and .Ltmp175
	.uleb128 .Ltmp176-.Lfunc_begin6         #     jumps to .Ltmp176
	.byte	0                               #   On action: cleanup
	.uleb128 .Ltmp175-.Lfunc_begin6         # >> Call Site 3 <<
	.uleb128 .Ltmp177-.Ltmp175              #   Call between .Ltmp175 and .Ltmp177
	.byte	0                               #     has no landing pad
	.byte	0                               #   On action: cleanup
	.uleb128 .Ltmp177-.Lfunc_begin6         # >> Call Site 4 <<
	.uleb128 .Ltmp180-.Ltmp177              #   Call between .Ltmp177 and .Ltmp180
	.uleb128 .Ltmp181-.Lfunc_begin6         #     jumps to .Ltmp181
	.byte	0                               #   On action: cleanup
	.uleb128 .Ltmp182-.Lfunc_begin6         # >> Call Site 5 <<
	.uleb128 .Ltmp183-.Ltmp182              #   Call between .Ltmp182 and .Ltmp183
	.uleb128 .Ltmp184-.Lfunc_begin6         #     jumps to .Ltmp184
	.byte	0                               #   On action: cleanup
	.uleb128 .Ltmp185-.Lfunc_begin6         # >> Call Site 6 <<
	.uleb128 .Ltmp186-.Ltmp185              #   Call between .Ltmp185 and .Ltmp186
	.uleb128 .Ltmp187-.Lfunc_begin6         #     jumps to .Ltmp187
	.byte	0                               #   On action: cleanup
	.uleb128 .Ltmp186-.Lfunc_begin6         # >> Call Site 7 <<
	.uleb128 .Ltmp188-.Ltmp186              #   Call between .Ltmp186 and .Ltmp188
	.byte	0                               #     has no landing pad
	.byte	0                               #   On action: cleanup
	.uleb128 .Ltmp188-.Lfunc_begin6         # >> Call Site 8 <<
	.uleb128 .Ltmp201-.Ltmp188              #   Call between .Ltmp188 and .Ltmp201
	.uleb128 .Ltmp202-.Lfunc_begin6         #     jumps to .Ltmp202
	.byte	0                               #   On action: cleanup
	.uleb128 .Ltmp201-.Lfunc_begin6         # >> Call Site 9 <<
	.uleb128 .Lfunc_end7-.Ltmp201           #   Call between .Ltmp201 and .Lfunc_end7
	.byte	0                               #     has no landing pad
	.byte	0                               #   On action: cleanup
.Lcst_end6:
	.p2align	2, 0x0
                                        # -- End function
	.section	.text._Z9BM_MemCmpILi1E12LessThanZero4LastEvRN9benchmark5StateE,"axG",@progbits,_Z9BM_MemCmpILi1E12LessThanZero4LastEvRN9benchmark5StateE,comdat
	.weak	_Z9BM_MemCmpILi1E12LessThanZero4LastEvRN9benchmark5StateE # -- Begin function _Z9BM_MemCmpILi1E12LessThanZero4LastEvRN9benchmark5StateE
	.p2align	5
	.type	_Z9BM_MemCmpILi1E12LessThanZero4LastEvRN9benchmark5StateE,@function
_Z9BM_MemCmpILi1E12LessThanZero4LastEvRN9benchmark5StateE: # @_Z9BM_MemCmpILi1E12LessThanZero4LastEvRN9benchmark5StateE
.Lfunc_begin7:
	.cfi_startproc
	.cfi_personality 155, DW.ref.__gxx_personality_v0
	.cfi_lsda 27, .Lexception7
# %bb.0:                                # %entry
	addi.d	$sp, $sp, -128
	.cfi_def_cfa_offset 128
	st.d	$ra, $sp, 120                   # 8-byte Folded Spill
	st.d	$fp, $sp, 112                   # 8-byte Folded Spill
	st.d	$s0, $sp, 104                   # 8-byte Folded Spill
	st.d	$s1, $sp, 96                    # 8-byte Folded Spill
	st.d	$s2, $sp, 88                    # 8-byte Folded Spill
	st.d	$s3, $sp, 80                    # 8-byte Folded Spill
	st.d	$s4, $sp, 72                    # 8-byte Folded Spill
	fst.d	$fs0, $sp, 64                   # 8-byte Folded Spill
	.cfi_offset 1, -8
	.cfi_offset 22, -16
	.cfi_offset 23, -24
	.cfi_offset 24, -32
	.cfi_offset 25, -40
	.cfi_offset 26, -48
	.cfi_offset 27, -56
	.cfi_offset 56, -64
	move	$s1, $a0
	lu12i.w	$s2, 1
	move	$a0, $s2
	pcaddu18i	$ra, %call36(_Znwm)
	jirl	$ra, $ra, 0
	move	$fp, $a0
	move	$a1, $zero
	move	$a2, $s2
	pcaddu18i	$ra, %call36(memset)
	jirl	$ra, $ra, 0
.Ltmp203:                               # EH_LABEL
	move	$a0, $s2
	pcaddu18i	$ra, %call36(_Znwm)
	jirl	$ra, $ra, 0
.Ltmp204:                               # EH_LABEL
# %bb.1:                                # %invoke.cont3
	move	$s0, $a0
	move	$a1, $zero
	move	$a2, $s2
	pcaddu18i	$ra, %call36(memset)
	jirl	$ra, $ra, 0
	st.d	$fp, $sp, 16
	st.d	$s0, $sp, 8
	lu12i.w	$a0, -1
	vrepli.b	$vr0, -1
	ori	$a1, $s2, 16
	.p2align	4, , 16
.LBB8_2:                                # %vector.body
                                        # =>This Inner Loop Header: Depth=1
	add.d	$a2, $fp, $a0
	vstx	$vr0, $a2, $s2
	addi.d	$a0, $a0, 32
	vstx	$vr0, $a2, $a1
	bnez	$a0, .LBB8_2
# %bb.3:                                # %for.cond.cleanup
	ori	$a2, $zero, 1
	move	$a0, $fp
	move	$a1, $s0
	pcaddu18i	$ra, %call36(_Z10RealMemCmpPKcS0_m)
	jirl	$ra, $ra, 0
	bltz	$a0, .LBB8_20
# %bb.4:                                # %if.end
	addi.d	$a0, $sp, 16
	#APP
	#NO_APP
	addi.d	$a0, $sp, 8
	#APP
	#NO_APP
	ld.w	$s4, $s1, 28
	ld.d	$s3, $s1, 16
.Ltmp206:                               # EH_LABEL
	move	$a0, $s1
	pcaddu18i	$ra, %call36(_ZN9benchmark5State16StartKeepRunningEv)
	jirl	$ra, $ra, 0
.Ltmp207:                               # EH_LABEL
# %bb.5:                                # %for.cond34.preheader
	bnez	$s4, .LBB8_11
# %bb.6:                                # %for.cond34.preheader
	beqz	$s3, .LBB8_11
# %bb.7:
	lu12i.w	$a0, -1
	.p2align	4, , 16
.LBB8_8:                                # %for.body38
                                        # =>This Loop Header: Depth=1
                                        #     Child Loop BB8_9 Depth 2
	#MEMBARRIER
	move	$a1, $a0
	.p2align	4, , 16
.LBB8_9:                                # %for.body45
                                        #   Parent Loop BB8_8 Depth=1
                                        # =>  This Inner Loop Header: Depth=2
	ld.d	$a2, $sp, 16
	ld.d	$a3, $sp, 8
	add.d	$a2, $a2, $a1
	add.d	$a3, $a3, $a1
	ldx.bu	$a2, $a2, $s2
	ldx.bu	$a3, $a3, $s2
	sltu	$a2, $a2, $a3
	st.b	$a2, $sp, 24
	#APP
	#NO_APP
	addi.d	$a1, $a1, 1
	bnez	$a1, .LBB8_9
# %bb.10:                               # %for.cond.cleanup44
                                        #   in Loop: Header=BB8_8 Depth=1
	addi.d	$s3, $s3, -1
	bnez	$s3, .LBB8_8
.LBB8_11:                               # %if.end.i
.Ltmp208:                               # EH_LABEL
	move	$a0, $s1
	pcaddu18i	$ra, %call36(_ZN9benchmark5State17FinishKeepRunningEv)
	jirl	$ra, $ra, 0
.Ltmp209:                               # EH_LABEL
# %bb.12:                               # %for.cond.cleanup37
	ld.bu	$a0, $s1, 24
	beqz	$a0, .LBB8_19
# %bb.13:                               # %if.end.i26
	ld.d	$a0, $s1, 16
	ld.d	$a1, $s1, 0
	ld.d	$a2, $s1, 8
	sub.d	$a0, $a0, $a1
	add.d	$a0, $a0, $a2
	slli.d	$a0, $a0, 12
	movgr2fr.d	$fa0, $a0
	ffint.d.l	$fs0, $fa0
.LBB8_14:                               # %_ZNK9benchmark5State10iterationsEv.exit
	addi.d	$s2, $sp, 40
	st.d	$s2, $sp, 24
	ori	$a0, $zero, 16
	st.d	$a0, $sp, 56
.Ltmp211:                               # EH_LABEL
	addi.d	$a0, $sp, 24
	addi.d	$a1, $sp, 56
	move	$a2, $zero
	pcaddu18i	$ra, %call36(_ZNSt7__cxx1112basic_stringIcSt11char_traitsIcESaIcEE9_M_createERmm)
	jirl	$ra, $ra, 0
.Ltmp212:                               # EH_LABEL
# %bb.15:                               # %call2.i5.i.noexc
	ld.d	$a1, $sp, 56
	pcalau12i	$a2, %pc_hi20(.L.str.341)
	vld	$vr0, $a2, %pc_lo12(.L.str.341)
	st.d	$a0, $sp, 24
	st.d	$a1, $sp, 40
	vst	$vr0, $a0, 0
	ld.d	$a0, $sp, 24
	st.d	$a1, $sp, 32
	stx.b	$zero, $a0, $a1
	addi.d	$a0, $s1, 64
.Ltmp214:                               # EH_LABEL
	addi.d	$a1, $sp, 24
	pcaddu18i	$ra, %call36(_ZNSt3mapINSt7__cxx1112basic_stringIcSt11char_traitsIcESaIcEEEN9benchmark7CounterESt4lessIS5_ESaISt4pairIKS5_S7_EEEixEOS5_)
	jirl	$ra, $ra, 0
.Ltmp215:                               # EH_LABEL
# %bb.16:                               # %_ZN9benchmark5State17SetBytesProcessedEl.exit
	fst.d	$fs0, $a0, 0
	ld.d	$a1, $sp, 24
	ori	$a2, $zero, 1
	lu32i.d	$a2, 1024
	st.d	$a2, $a0, 8
	beq	$a1, $s2, .LBB8_18
# %bb.17:                               # %if.then.i.i69
	move	$a0, $a1
	pcaddu18i	$ra, %call36(_ZdlPv)
	jirl	$ra, $ra, 0
.LBB8_18:                               # %_ZNSt6vectorIcSaIcEED2Ev.exit80
	move	$a0, $s0
	pcaddu18i	$ra, %call36(_ZdlPv)
	jirl	$ra, $ra, 0
	move	$a0, $fp
	pcaddu18i	$ra, %call36(_ZdlPv)
	jirl	$ra, $ra, 0
	fld.d	$fs0, $sp, 64                   # 8-byte Folded Reload
	ld.d	$s4, $sp, 72                    # 8-byte Folded Reload
	ld.d	$s3, $sp, 80                    # 8-byte Folded Reload
	ld.d	$s2, $sp, 88                    # 8-byte Folded Reload
	ld.d	$s1, $sp, 96                    # 8-byte Folded Reload
	ld.d	$s0, $sp, 104                   # 8-byte Folded Reload
	ld.d	$fp, $sp, 112                   # 8-byte Folded Reload
	ld.d	$ra, $sp, 120                   # 8-byte Folded Reload
	addi.d	$sp, $sp, 128
	ret
.LBB8_19:
	movgr2fr.d	$fs0, $zero
	b	.LBB8_14
.LBB8_20:                               # %if.then
.Ltmp217:                               # EH_LABEL
	pcalau12i	$a0, %got_pc_hi20(_ZSt4cerr)
	ld.d	$a0, $a0, %got_pc_lo12(_ZSt4cerr)
	pcalau12i	$a1, %pc_hi20(.L.str.337)
	addi.d	$a1, $a1, %pc_lo12(.L.str.337)
	ori	$a2, $zero, 25
	pcaddu18i	$ra, %call36(_ZSt16__ostream_insertIcSt11char_traitsIcEERSt13basic_ostreamIT_T0_ES6_PKS3_l)
	jirl	$ra, $ra, 0
.Ltmp218:                               # EH_LABEL
# %bb.21:                               # %invoke.cont14
.Ltmp219:                               # EH_LABEL
	pcalau12i	$a0, %got_pc_hi20(_ZSt4cerr)
	ld.d	$a0, $a0, %got_pc_lo12(_ZSt4cerr)
	pcalau12i	$a1, %pc_hi20(_ZN12LessThanZero8kDisplayE)
	addi.d	$a1, $a1, %pc_lo12(_ZN12LessThanZero8kDisplayE)
	ori	$a2, $zero, 12
	pcaddu18i	$ra, %call36(_ZSt16__ostream_insertIcSt11char_traitsIcEERSt13basic_ostreamIT_T0_ES6_PKS3_l)
	jirl	$ra, $ra, 0
.Ltmp220:                               # EH_LABEL
# %bb.22:                               # %invoke.cont16
.Ltmp221:                               # EH_LABEL
	pcalau12i	$a0, %got_pc_hi20(_ZSt4cerr)
	ld.d	$a0, $a0, %got_pc_lo12(_ZSt4cerr)
	pcalau12i	$a1, %pc_hi20(.L.str.338)
	addi.d	$a1, $a1, %pc_lo12(.L.str.338)
	ori	$a2, $zero, 5
	pcaddu18i	$ra, %call36(_ZSt16__ostream_insertIcSt11char_traitsIcEERSt13basic_ostreamIT_T0_ES6_PKS3_l)
	jirl	$ra, $ra, 0
.Ltmp222:                               # EH_LABEL
# %bb.23:                               # %invoke.cont18
.Ltmp223:                               # EH_LABEL
	pcalau12i	$a0, %got_pc_hi20(_ZSt4cerr)
	ld.d	$a0, $a0, %got_pc_lo12(_ZSt4cerr)
	pcalau12i	$a1, %pc_hi20(_ZN4Last8kDisplayE)
	addi.d	$a1, $a1, %pc_lo12(_ZN4Last8kDisplayE)
	ori	$a2, $zero, 4
	pcaddu18i	$ra, %call36(_ZSt16__ostream_insertIcSt11char_traitsIcEERSt13basic_ostreamIT_T0_ES6_PKS3_l)
	jirl	$ra, $ra, 0
.Ltmp224:                               # EH_LABEL
# %bb.24:                               # %invoke.cont20
.Ltmp225:                               # EH_LABEL
	pcalau12i	$a0, %got_pc_hi20(_ZSt4cerr)
	ld.d	$a0, $a0, %got_pc_lo12(_ZSt4cerr)
	pcalau12i	$a1, %pc_hi20(.L.str.339)
	addi.d	$a1, $a1, %pc_lo12(.L.str.339)
	ori	$a2, $zero, 7
	pcaddu18i	$ra, %call36(_ZSt16__ostream_insertIcSt11char_traitsIcEERSt13basic_ostreamIT_T0_ES6_PKS3_l)
	jirl	$ra, $ra, 0
.Ltmp226:                               # EH_LABEL
# %bb.25:                               # %invoke.cont22
.Ltmp227:                               # EH_LABEL
	pcalau12i	$a0, %got_pc_hi20(_ZSt4cerr)
	ld.d	$a0, $a0, %got_pc_lo12(_ZSt4cerr)
	ori	$a1, $zero, 1
	pcaddu18i	$ra, %call36(_ZNSolsEi)
	jirl	$ra, $ra, 0
.Ltmp228:                               # EH_LABEL
# %bb.26:                               # %invoke.cont24
.Ltmp229:                               # EH_LABEL
	pcaddu18i	$ra, %call36(_ZSt4endlIcSt11char_traitsIcEERSt13basic_ostreamIT_T0_ES6_)
	jirl	$ra, $ra, 0
.Ltmp230:                               # EH_LABEL
# %bb.27:                               # %invoke.cont26
	ori	$a0, $zero, 1
	pcaddu18i	$ra, %call36(exit)
	jirl	$ra, $ra, 0
.LBB8_28:                               # %lpad13
.Ltmp231:                               # EH_LABEL
	b	.LBB8_34
.LBB8_29:                               # %lpad4.i
.Ltmp216:                               # EH_LABEL
	ld.d	$a1, $sp, 24
	move	$s1, $a0
	beq	$a1, $s2, .LBB8_35
# %bb.30:                               # %if.then.i.i66
	move	$a0, $a1
	pcaddu18i	$ra, %call36(_ZdlPv)
	jirl	$ra, $ra, 0
	b	.LBB8_35
.LBB8_31:                               # %lpad.i
.Ltmp213:                               # EH_LABEL
	b	.LBB8_34
.LBB8_32:                               # %lpad2
.Ltmp205:                               # EH_LABEL
	move	$s1, $a0
	move	$a0, $fp
	pcaddu18i	$ra, %call36(_ZdlPv)
	jirl	$ra, $ra, 0
	move	$a0, $s1
	pcaddu18i	$ra, %call36(_Unwind_Resume)
	jirl	$ra, $ra, 0
.LBB8_33:                               # %lpad31
.Ltmp210:                               # EH_LABEL
.LBB8_34:                               # %_ZNSt6vectorIcSaIcEED2Ev.exit84
	move	$s1, $a0
.LBB8_35:                               # %_ZNSt6vectorIcSaIcEED2Ev.exit84
	move	$a0, $s0
	pcaddu18i	$ra, %call36(_ZdlPv)
	jirl	$ra, $ra, 0
	move	$a0, $fp
	pcaddu18i	$ra, %call36(_ZdlPv)
	jirl	$ra, $ra, 0
	move	$a0, $s1
	pcaddu18i	$ra, %call36(_Unwind_Resume)
	jirl	$ra, $ra, 0
.Lfunc_end8:
	.size	_Z9BM_MemCmpILi1E12LessThanZero4LastEvRN9benchmark5StateE, .Lfunc_end8-_Z9BM_MemCmpILi1E12LessThanZero4LastEvRN9benchmark5StateE
	.cfi_endproc
	.section	.gcc_except_table._Z9BM_MemCmpILi1E12LessThanZero4LastEvRN9benchmark5StateE,"aG",@progbits,_Z9BM_MemCmpILi1E12LessThanZero4LastEvRN9benchmark5StateE,comdat
	.p2align	2, 0x0
GCC_except_table8:
.Lexception7:
	.byte	255                             # @LPStart Encoding = omit
	.byte	255                             # @TType Encoding = omit
	.byte	1                               # Call site Encoding = uleb128
	.uleb128 .Lcst_end7-.Lcst_begin7
.Lcst_begin7:
	.uleb128 .Lfunc_begin7-.Lfunc_begin7    # >> Call Site 1 <<
	.uleb128 .Ltmp203-.Lfunc_begin7         #   Call between .Lfunc_begin7 and .Ltmp203
	.byte	0                               #     has no landing pad
	.byte	0                               #   On action: cleanup
	.uleb128 .Ltmp203-.Lfunc_begin7         # >> Call Site 2 <<
	.uleb128 .Ltmp204-.Ltmp203              #   Call between .Ltmp203 and .Ltmp204
	.uleb128 .Ltmp205-.Lfunc_begin7         #     jumps to .Ltmp205
	.byte	0                               #   On action: cleanup
	.uleb128 .Ltmp204-.Lfunc_begin7         # >> Call Site 3 <<
	.uleb128 .Ltmp206-.Ltmp204              #   Call between .Ltmp204 and .Ltmp206
	.byte	0                               #     has no landing pad
	.byte	0                               #   On action: cleanup
	.uleb128 .Ltmp206-.Lfunc_begin7         # >> Call Site 4 <<
	.uleb128 .Ltmp209-.Ltmp206              #   Call between .Ltmp206 and .Ltmp209
	.uleb128 .Ltmp210-.Lfunc_begin7         #     jumps to .Ltmp210
	.byte	0                               #   On action: cleanup
	.uleb128 .Ltmp211-.Lfunc_begin7         # >> Call Site 5 <<
	.uleb128 .Ltmp212-.Ltmp211              #   Call between .Ltmp211 and .Ltmp212
	.uleb128 .Ltmp213-.Lfunc_begin7         #     jumps to .Ltmp213
	.byte	0                               #   On action: cleanup
	.uleb128 .Ltmp214-.Lfunc_begin7         # >> Call Site 6 <<
	.uleb128 .Ltmp215-.Ltmp214              #   Call between .Ltmp214 and .Ltmp215
	.uleb128 .Ltmp216-.Lfunc_begin7         #     jumps to .Ltmp216
	.byte	0                               #   On action: cleanup
	.uleb128 .Ltmp215-.Lfunc_begin7         # >> Call Site 7 <<
	.uleb128 .Ltmp217-.Ltmp215              #   Call between .Ltmp215 and .Ltmp217
	.byte	0                               #     has no landing pad
	.byte	0                               #   On action: cleanup
	.uleb128 .Ltmp217-.Lfunc_begin7         # >> Call Site 8 <<
	.uleb128 .Ltmp230-.Ltmp217              #   Call between .Ltmp217 and .Ltmp230
	.uleb128 .Ltmp231-.Lfunc_begin7         #     jumps to .Ltmp231
	.byte	0                               #   On action: cleanup
	.uleb128 .Ltmp230-.Lfunc_begin7         # >> Call Site 9 <<
	.uleb128 .Lfunc_end8-.Ltmp230           #   Call between .Ltmp230 and .Lfunc_end8
	.byte	0                               #     has no landing pad
	.byte	0                               #   On action: cleanup
.Lcst_end7:
	.p2align	2, 0x0
                                        # -- End function
	.section	.text._Z9BM_MemCmpILi1E15GreaterThanZero4NoneEvRN9benchmark5StateE,"axG",@progbits,_Z9BM_MemCmpILi1E15GreaterThanZero4NoneEvRN9benchmark5StateE,comdat
	.weak	_Z9BM_MemCmpILi1E15GreaterThanZero4NoneEvRN9benchmark5StateE # -- Begin function _Z9BM_MemCmpILi1E15GreaterThanZero4NoneEvRN9benchmark5StateE
	.p2align	5
	.type	_Z9BM_MemCmpILi1E15GreaterThanZero4NoneEvRN9benchmark5StateE,@function
_Z9BM_MemCmpILi1E15GreaterThanZero4NoneEvRN9benchmark5StateE: # @_Z9BM_MemCmpILi1E15GreaterThanZero4NoneEvRN9benchmark5StateE
.Lfunc_begin8:
	.cfi_startproc
	.cfi_personality 155, DW.ref.__gxx_personality_v0
	.cfi_lsda 27, .Lexception8
# %bb.0:                                # %entry
	addi.d	$sp, $sp, -128
	.cfi_def_cfa_offset 128
	st.d	$ra, $sp, 120                   # 8-byte Folded Spill
	st.d	$fp, $sp, 112                   # 8-byte Folded Spill
	st.d	$s0, $sp, 104                   # 8-byte Folded Spill
	st.d	$s1, $sp, 96                    # 8-byte Folded Spill
	st.d	$s2, $sp, 88                    # 8-byte Folded Spill
	st.d	$s3, $sp, 80                    # 8-byte Folded Spill
	st.d	$s4, $sp, 72                    # 8-byte Folded Spill
	fst.d	$fs0, $sp, 64                   # 8-byte Folded Spill
	.cfi_offset 1, -8
	.cfi_offset 22, -16
	.cfi_offset 23, -24
	.cfi_offset 24, -32
	.cfi_offset 25, -40
	.cfi_offset 26, -48
	.cfi_offset 27, -56
	.cfi_offset 56, -64
	move	$s1, $a0
	lu12i.w	$s0, 1
	move	$a0, $s0
	pcaddu18i	$ra, %call36(_Znwm)
	jirl	$ra, $ra, 0
	move	$fp, $a0
	move	$a1, $zero
	move	$a2, $s0
	pcaddu18i	$ra, %call36(memset)
	jirl	$ra, $ra, 0
.Ltmp232:                               # EH_LABEL
	move	$a0, $s0
	pcaddu18i	$ra, %call36(_Znwm)
	jirl	$ra, $ra, 0
.Ltmp233:                               # EH_LABEL
# %bb.1:                                # %invoke.cont3
	move	$s0, $a0
	lu12i.w	$s2, 1
	move	$a1, $zero
	move	$a2, $s2
	pcaddu18i	$ra, %call36(memset)
	jirl	$ra, $ra, 0
	st.d	$fp, $sp, 16
	st.d	$s0, $sp, 8
	ori	$a2, $zero, 1
	move	$a0, $fp
	move	$a1, $s0
	pcaddu18i	$ra, %call36(_Z10RealMemCmpPKcS0_m)
	jirl	$ra, $ra, 0
	bgtz	$a0, .LBB9_18
# %bb.2:                                # %if.end
	addi.d	$a0, $sp, 16
	#APP
	#NO_APP
	addi.d	$a0, $sp, 8
	#APP
	#NO_APP
	ld.w	$s4, $s1, 28
	ld.d	$s3, $s1, 16
.Ltmp235:                               # EH_LABEL
	move	$a0, $s1
	pcaddu18i	$ra, %call36(_ZN9benchmark5State16StartKeepRunningEv)
	jirl	$ra, $ra, 0
.Ltmp236:                               # EH_LABEL
# %bb.3:                                # %for.cond36.preheader
	bnez	$s4, .LBB9_9
# %bb.4:                                # %for.cond36.preheader
	beqz	$s3, .LBB9_9
# %bb.5:
	lu12i.w	$a0, -1
	.p2align	4, , 16
.LBB9_6:                                # %for.body40
                                        # =>This Loop Header: Depth=1
                                        #     Child Loop BB9_7 Depth 2
	#MEMBARRIER
	move	$a1, $a0
	.p2align	4, , 16
.LBB9_7:                                # %for.body47
                                        #   Parent Loop BB9_6 Depth=1
                                        # =>  This Inner Loop Header: Depth=2
	ld.d	$a2, $sp, 16
	ld.d	$a3, $sp, 8
	add.d	$a2, $a2, $a1
	add.d	$a3, $a3, $a1
	ldx.bu	$a2, $a2, $s2
	ldx.bu	$a3, $a3, $s2
	sltu	$a2, $a3, $a2
	st.b	$a2, $sp, 24
	#APP
	#NO_APP
	addi.d	$a1, $a1, 1
	bnez	$a1, .LBB9_7
# %bb.8:                                # %for.cond.cleanup46
                                        #   in Loop: Header=BB9_6 Depth=1
	addi.d	$s3, $s3, -1
	bnez	$s3, .LBB9_6
.LBB9_9:                                # %if.end.i
.Ltmp237:                               # EH_LABEL
	move	$a0, $s1
	pcaddu18i	$ra, %call36(_ZN9benchmark5State17FinishKeepRunningEv)
	jirl	$ra, $ra, 0
.Ltmp238:                               # EH_LABEL
# %bb.10:                               # %for.cond.cleanup39
	ld.bu	$a0, $s1, 24
	beqz	$a0, .LBB9_17
# %bb.11:                               # %if.end.i26
	ld.d	$a0, $s1, 16
	ld.d	$a1, $s1, 0
	ld.d	$a2, $s1, 8
	sub.d	$a0, $a0, $a1
	add.d	$a0, $a0, $a2
	slli.d	$a0, $a0, 12
	movgr2fr.d	$fa0, $a0
	ffint.d.l	$fs0, $fa0
.LBB9_12:                               # %_ZNK9benchmark5State10iterationsEv.exit
	addi.d	$s2, $sp, 40
	st.d	$s2, $sp, 24
	ori	$a0, $zero, 16
	st.d	$a0, $sp, 56
.Ltmp240:                               # EH_LABEL
	addi.d	$a0, $sp, 24
	addi.d	$a1, $sp, 56
	move	$a2, $zero
	pcaddu18i	$ra, %call36(_ZNSt7__cxx1112basic_stringIcSt11char_traitsIcESaIcEE9_M_createERmm)
	jirl	$ra, $ra, 0
.Ltmp241:                               # EH_LABEL
# %bb.13:                               # %call2.i5.i.noexc
	ld.d	$a1, $sp, 56
	pcalau12i	$a2, %pc_hi20(.L.str.341)
	vld	$vr0, $a2, %pc_lo12(.L.str.341)
	st.d	$a0, $sp, 24
	st.d	$a1, $sp, 40
	vst	$vr0, $a0, 0
	ld.d	$a0, $sp, 24
	st.d	$a1, $sp, 32
	stx.b	$zero, $a0, $a1
	addi.d	$a0, $s1, 64
.Ltmp243:                               # EH_LABEL
	addi.d	$a1, $sp, 24
	pcaddu18i	$ra, %call36(_ZNSt3mapINSt7__cxx1112basic_stringIcSt11char_traitsIcESaIcEEEN9benchmark7CounterESt4lessIS5_ESaISt4pairIKS5_S7_EEEixEOS5_)
	jirl	$ra, $ra, 0
.Ltmp244:                               # EH_LABEL
# %bb.14:                               # %_ZN9benchmark5State17SetBytesProcessedEl.exit
	fst.d	$fs0, $a0, 0
	ld.d	$a1, $sp, 24
	ori	$a2, $zero, 1
	lu32i.d	$a2, 1024
	st.d	$a2, $a0, 8
	beq	$a1, $s2, .LBB9_16
# %bb.15:                               # %if.then.i.i69
	move	$a0, $a1
	pcaddu18i	$ra, %call36(_ZdlPv)
	jirl	$ra, $ra, 0
.LBB9_16:                               # %_ZNSt6vectorIcSaIcEED2Ev.exit80
	move	$a0, $s0
	pcaddu18i	$ra, %call36(_ZdlPv)
	jirl	$ra, $ra, 0
	move	$a0, $fp
	pcaddu18i	$ra, %call36(_ZdlPv)
	jirl	$ra, $ra, 0
	fld.d	$fs0, $sp, 64                   # 8-byte Folded Reload
	ld.d	$s4, $sp, 72                    # 8-byte Folded Reload
	ld.d	$s3, $sp, 80                    # 8-byte Folded Reload
	ld.d	$s2, $sp, 88                    # 8-byte Folded Reload
	ld.d	$s1, $sp, 96                    # 8-byte Folded Reload
	ld.d	$s0, $sp, 104                   # 8-byte Folded Reload
	ld.d	$fp, $sp, 112                   # 8-byte Folded Reload
	ld.d	$ra, $sp, 120                   # 8-byte Folded Reload
	addi.d	$sp, $sp, 128
	ret
.LBB9_17:
	movgr2fr.d	$fs0, $zero
	b	.LBB9_12
.LBB9_18:                               # %if.then
.Ltmp246:                               # EH_LABEL
	pcalau12i	$a0, %got_pc_hi20(_ZSt4cerr)
	ld.d	$a0, $a0, %got_pc_lo12(_ZSt4cerr)
	pcalau12i	$a1, %pc_hi20(.L.str.337)
	addi.d	$a1, $a1, %pc_lo12(.L.str.337)
	ori	$a2, $zero, 25
	pcaddu18i	$ra, %call36(_ZSt16__ostream_insertIcSt11char_traitsIcEERSt13basic_ostreamIT_T0_ES6_PKS3_l)
	jirl	$ra, $ra, 0
.Ltmp247:                               # EH_LABEL
# %bb.19:                               # %invoke.cont16
.Ltmp248:                               # EH_LABEL
	pcalau12i	$a0, %got_pc_hi20(_ZSt4cerr)
	ld.d	$a0, $a0, %got_pc_lo12(_ZSt4cerr)
	pcalau12i	$a1, %pc_hi20(_ZN15GreaterThanZero8kDisplayE)
	addi.d	$a1, $a1, %pc_lo12(_ZN15GreaterThanZero8kDisplayE)
	ori	$a2, $zero, 15
	pcaddu18i	$ra, %call36(_ZSt16__ostream_insertIcSt11char_traitsIcEERSt13basic_ostreamIT_T0_ES6_PKS3_l)
	jirl	$ra, $ra, 0
.Ltmp249:                               # EH_LABEL
# %bb.20:                               # %invoke.cont18
.Ltmp250:                               # EH_LABEL
	pcalau12i	$a0, %got_pc_hi20(_ZSt4cerr)
	ld.d	$a0, $a0, %got_pc_lo12(_ZSt4cerr)
	pcalau12i	$a1, %pc_hi20(.L.str.338)
	addi.d	$a1, $a1, %pc_lo12(.L.str.338)
	ori	$a2, $zero, 5
	pcaddu18i	$ra, %call36(_ZSt16__ostream_insertIcSt11char_traitsIcEERSt13basic_ostreamIT_T0_ES6_PKS3_l)
	jirl	$ra, $ra, 0
.Ltmp251:                               # EH_LABEL
# %bb.21:                               # %invoke.cont20
.Ltmp252:                               # EH_LABEL
	pcalau12i	$a0, %got_pc_hi20(_ZSt4cerr)
	ld.d	$a0, $a0, %got_pc_lo12(_ZSt4cerr)
	pcalau12i	$a1, %pc_hi20(_ZN4None8kDisplayE)
	addi.d	$a1, $a1, %pc_lo12(_ZN4None8kDisplayE)
	ori	$a2, $zero, 4
	pcaddu18i	$ra, %call36(_ZSt16__ostream_insertIcSt11char_traitsIcEERSt13basic_ostreamIT_T0_ES6_PKS3_l)
	jirl	$ra, $ra, 0
.Ltmp253:                               # EH_LABEL
# %bb.22:                               # %invoke.cont22
.Ltmp254:                               # EH_LABEL
	pcalau12i	$a0, %got_pc_hi20(_ZSt4cerr)
	ld.d	$a0, $a0, %got_pc_lo12(_ZSt4cerr)
	pcalau12i	$a1, %pc_hi20(.L.str.339)
	addi.d	$a1, $a1, %pc_lo12(.L.str.339)
	ori	$a2, $zero, 7
	pcaddu18i	$ra, %call36(_ZSt16__ostream_insertIcSt11char_traitsIcEERSt13basic_ostreamIT_T0_ES6_PKS3_l)
	jirl	$ra, $ra, 0
.Ltmp255:                               # EH_LABEL
# %bb.23:                               # %invoke.cont24
.Ltmp256:                               # EH_LABEL
	pcalau12i	$a0, %got_pc_hi20(_ZSt4cerr)
	ld.d	$a0, $a0, %got_pc_lo12(_ZSt4cerr)
	ori	$a1, $zero, 1
	pcaddu18i	$ra, %call36(_ZNSolsEi)
	jirl	$ra, $ra, 0
.Ltmp257:                               # EH_LABEL
# %bb.24:                               # %invoke.cont26
.Ltmp258:                               # EH_LABEL
	pcaddu18i	$ra, %call36(_ZSt4endlIcSt11char_traitsIcEERSt13basic_ostreamIT_T0_ES6_)
	jirl	$ra, $ra, 0
.Ltmp259:                               # EH_LABEL
# %bb.25:                               # %invoke.cont28
	ori	$a0, $zero, 1
	pcaddu18i	$ra, %call36(exit)
	jirl	$ra, $ra, 0
.LBB9_26:                               # %lpad7
.Ltmp260:                               # EH_LABEL
	b	.LBB9_32
.LBB9_27:                               # %lpad4.i
.Ltmp245:                               # EH_LABEL
	ld.d	$a1, $sp, 24
	move	$s1, $a0
	beq	$a1, $s2, .LBB9_33
# %bb.28:                               # %if.then.i.i66
	move	$a0, $a1
	pcaddu18i	$ra, %call36(_ZdlPv)
	jirl	$ra, $ra, 0
	b	.LBB9_33
.LBB9_29:                               # %lpad.i
.Ltmp242:                               # EH_LABEL
	b	.LBB9_32
.LBB9_30:                               # %lpad2
.Ltmp234:                               # EH_LABEL
	move	$s1, $a0
	move	$a0, $fp
	pcaddu18i	$ra, %call36(_ZdlPv)
	jirl	$ra, $ra, 0
	move	$a0, $s1
	pcaddu18i	$ra, %call36(_Unwind_Resume)
	jirl	$ra, $ra, 0
.LBB9_31:                               # %lpad33
.Ltmp239:                               # EH_LABEL
.LBB9_32:                               # %_ZNSt6vectorIcSaIcEED2Ev.exit84
	move	$s1, $a0
.LBB9_33:                               # %_ZNSt6vectorIcSaIcEED2Ev.exit84
	move	$a0, $s0
	pcaddu18i	$ra, %call36(_ZdlPv)
	jirl	$ra, $ra, 0
	move	$a0, $fp
	pcaddu18i	$ra, %call36(_ZdlPv)
	jirl	$ra, $ra, 0
	move	$a0, $s1
	pcaddu18i	$ra, %call36(_Unwind_Resume)
	jirl	$ra, $ra, 0
.Lfunc_end9:
	.size	_Z9BM_MemCmpILi1E15GreaterThanZero4NoneEvRN9benchmark5StateE, .Lfunc_end9-_Z9BM_MemCmpILi1E15GreaterThanZero4NoneEvRN9benchmark5StateE
	.cfi_endproc
	.section	.gcc_except_table._Z9BM_MemCmpILi1E15GreaterThanZero4NoneEvRN9benchmark5StateE,"aG",@progbits,_Z9BM_MemCmpILi1E15GreaterThanZero4NoneEvRN9benchmark5StateE,comdat
	.p2align	2, 0x0
GCC_except_table9:
.Lexception8:
	.byte	255                             # @LPStart Encoding = omit
	.byte	255                             # @TType Encoding = omit
	.byte	1                               # Call site Encoding = uleb128
	.uleb128 .Lcst_end8-.Lcst_begin8
.Lcst_begin8:
	.uleb128 .Lfunc_begin8-.Lfunc_begin8    # >> Call Site 1 <<
	.uleb128 .Ltmp232-.Lfunc_begin8         #   Call between .Lfunc_begin8 and .Ltmp232
	.byte	0                               #     has no landing pad
	.byte	0                               #   On action: cleanup
	.uleb128 .Ltmp232-.Lfunc_begin8         # >> Call Site 2 <<
	.uleb128 .Ltmp233-.Ltmp232              #   Call between .Ltmp232 and .Ltmp233
	.uleb128 .Ltmp234-.Lfunc_begin8         #     jumps to .Ltmp234
	.byte	0                               #   On action: cleanup
	.uleb128 .Ltmp233-.Lfunc_begin8         # >> Call Site 3 <<
	.uleb128 .Ltmp235-.Ltmp233              #   Call between .Ltmp233 and .Ltmp235
	.byte	0                               #     has no landing pad
	.byte	0                               #   On action: cleanup
	.uleb128 .Ltmp235-.Lfunc_begin8         # >> Call Site 4 <<
	.uleb128 .Ltmp238-.Ltmp235              #   Call between .Ltmp235 and .Ltmp238
	.uleb128 .Ltmp239-.Lfunc_begin8         #     jumps to .Ltmp239
	.byte	0                               #   On action: cleanup
	.uleb128 .Ltmp240-.Lfunc_begin8         # >> Call Site 5 <<
	.uleb128 .Ltmp241-.Ltmp240              #   Call between .Ltmp240 and .Ltmp241
	.uleb128 .Ltmp242-.Lfunc_begin8         #     jumps to .Ltmp242
	.byte	0                               #   On action: cleanup
	.uleb128 .Ltmp243-.Lfunc_begin8         # >> Call Site 6 <<
	.uleb128 .Ltmp244-.Ltmp243              #   Call between .Ltmp243 and .Ltmp244
	.uleb128 .Ltmp245-.Lfunc_begin8         #     jumps to .Ltmp245
	.byte	0                               #   On action: cleanup
	.uleb128 .Ltmp244-.Lfunc_begin8         # >> Call Site 7 <<
	.uleb128 .Ltmp246-.Ltmp244              #   Call between .Ltmp244 and .Ltmp246
	.byte	0                               #     has no landing pad
	.byte	0                               #   On action: cleanup
	.uleb128 .Ltmp246-.Lfunc_begin8         # >> Call Site 8 <<
	.uleb128 .Ltmp259-.Ltmp246              #   Call between .Ltmp246 and .Ltmp259
	.uleb128 .Ltmp260-.Lfunc_begin8         #     jumps to .Ltmp260
	.byte	0                               #   On action: cleanup
	.uleb128 .Ltmp259-.Lfunc_begin8         # >> Call Site 9 <<
	.uleb128 .Lfunc_end9-.Ltmp259           #   Call between .Ltmp259 and .Lfunc_end9
	.byte	0                               #     has no landing pad
	.byte	0                               #   On action: cleanup
.Lcst_end8:
	.p2align	2, 0x0
                                        # -- End function
	.section	.text._Z9BM_MemCmpILi1E15GreaterThanZero5FirstEvRN9benchmark5StateE,"axG",@progbits,_Z9BM_MemCmpILi1E15GreaterThanZero5FirstEvRN9benchmark5StateE,comdat
	.weak	_Z9BM_MemCmpILi1E15GreaterThanZero5FirstEvRN9benchmark5StateE # -- Begin function _Z9BM_MemCmpILi1E15GreaterThanZero5FirstEvRN9benchmark5StateE
	.p2align	5
	.type	_Z9BM_MemCmpILi1E15GreaterThanZero5FirstEvRN9benchmark5StateE,@function
_Z9BM_MemCmpILi1E15GreaterThanZero5FirstEvRN9benchmark5StateE: # @_Z9BM_MemCmpILi1E15GreaterThanZero5FirstEvRN9benchmark5StateE
.Lfunc_begin9:
	.cfi_startproc
	.cfi_personality 155, DW.ref.__gxx_personality_v0
	.cfi_lsda 27, .Lexception9
# %bb.0:                                # %entry
	addi.d	$sp, $sp, -128
	.cfi_def_cfa_offset 128
	st.d	$ra, $sp, 120                   # 8-byte Folded Spill
	st.d	$fp, $sp, 112                   # 8-byte Folded Spill
	st.d	$s0, $sp, 104                   # 8-byte Folded Spill
	st.d	$s1, $sp, 96                    # 8-byte Folded Spill
	st.d	$s2, $sp, 88                    # 8-byte Folded Spill
	st.d	$s3, $sp, 80                    # 8-byte Folded Spill
	st.d	$s4, $sp, 72                    # 8-byte Folded Spill
	fst.d	$fs0, $sp, 64                   # 8-byte Folded Spill
	.cfi_offset 1, -8
	.cfi_offset 22, -16
	.cfi_offset 23, -24
	.cfi_offset 24, -32
	.cfi_offset 25, -40
	.cfi_offset 26, -48
	.cfi_offset 27, -56
	.cfi_offset 56, -64
	move	$s1, $a0
	lu12i.w	$s2, 1
	move	$a0, $s2
	pcaddu18i	$ra, %call36(_Znwm)
	jirl	$ra, $ra, 0
	move	$fp, $a0
	move	$a1, $zero
	move	$a2, $s2
	pcaddu18i	$ra, %call36(memset)
	jirl	$ra, $ra, 0
.Ltmp261:                               # EH_LABEL
	move	$a0, $s2
	pcaddu18i	$ra, %call36(_Znwm)
	jirl	$ra, $ra, 0
.Ltmp262:                               # EH_LABEL
# %bb.1:                                # %invoke.cont3
	move	$s0, $a0
	move	$a1, $zero
	move	$a2, $s2
	pcaddu18i	$ra, %call36(memset)
	jirl	$ra, $ra, 0
	st.d	$fp, $sp, 16
	st.d	$s0, $sp, 8
	lu12i.w	$a0, -1
	vrepli.b	$vr0, -1
	ori	$a1, $s2, 16
	.p2align	4, , 16
.LBB10_2:                               # %vector.body
                                        # =>This Inner Loop Header: Depth=1
	add.d	$a2, $fp, $a0
	vstx	$vr0, $a2, $s2
	addi.d	$a0, $a0, 32
	vstx	$vr0, $a2, $a1
	bnez	$a0, .LBB10_2
# %bb.3:                                # %for.cond.cleanup
	ori	$a2, $zero, 1
	move	$a0, $fp
	move	$a1, $s0
	pcaddu18i	$ra, %call36(_Z10RealMemCmpPKcS0_m)
	jirl	$ra, $ra, 0
	ld.bu	$a1, $fp, 0
	slt	$a0, $zero, $a0
	sltu	$a1, $zero, $a1
	xor	$a0, $a0, $a1
	bnez	$a0, .LBB10_20
# %bb.4:                                # %if.end
	addi.d	$a0, $sp, 16
	#APP
	#NO_APP
	addi.d	$a0, $sp, 8
	#APP
	#NO_APP
	ld.w	$s4, $s1, 28
	ld.d	$s3, $s1, 16
.Ltmp264:                               # EH_LABEL
	move	$a0, $s1
	pcaddu18i	$ra, %call36(_ZN9benchmark5State16StartKeepRunningEv)
	jirl	$ra, $ra, 0
.Ltmp265:                               # EH_LABEL
# %bb.5:                                # %for.cond34.preheader
	bnez	$s4, .LBB10_11
# %bb.6:                                # %for.cond34.preheader
	beqz	$s3, .LBB10_11
# %bb.7:
	lu12i.w	$a0, -1
	.p2align	4, , 16
.LBB10_8:                               # %for.body38
                                        # =>This Loop Header: Depth=1
                                        #     Child Loop BB10_9 Depth 2
	#MEMBARRIER
	move	$a1, $a0
	.p2align	4, , 16
.LBB10_9:                               # %for.body45
                                        #   Parent Loop BB10_8 Depth=1
                                        # =>  This Inner Loop Header: Depth=2
	ld.d	$a2, $sp, 16
	ld.d	$a3, $sp, 8
	add.d	$a2, $a2, $a1
	add.d	$a3, $a3, $a1
	ldx.bu	$a2, $a2, $s2
	ldx.bu	$a3, $a3, $s2
	sltu	$a2, $a3, $a2
	st.b	$a2, $sp, 24
	#APP
	#NO_APP
	addi.d	$a1, $a1, 1
	bnez	$a1, .LBB10_9
# %bb.10:                               # %for.cond.cleanup44
                                        #   in Loop: Header=BB10_8 Depth=1
	addi.d	$s3, $s3, -1
	bnez	$s3, .LBB10_8
.LBB10_11:                              # %if.end.i
.Ltmp266:                               # EH_LABEL
	move	$a0, $s1
	pcaddu18i	$ra, %call36(_ZN9benchmark5State17FinishKeepRunningEv)
	jirl	$ra, $ra, 0
.Ltmp267:                               # EH_LABEL
# %bb.12:                               # %for.cond.cleanup37
	ld.bu	$a0, $s1, 24
	beqz	$a0, .LBB10_19
# %bb.13:                               # %if.end.i26
	ld.d	$a0, $s1, 16
	ld.d	$a1, $s1, 0
	ld.d	$a2, $s1, 8
	sub.d	$a0, $a0, $a1
	add.d	$a0, $a0, $a2
	slli.d	$a0, $a0, 12
	movgr2fr.d	$fa0, $a0
	ffint.d.l	$fs0, $fa0
.LBB10_14:                              # %_ZNK9benchmark5State10iterationsEv.exit
	addi.d	$s2, $sp, 40
	st.d	$s2, $sp, 24
	ori	$a0, $zero, 16
	st.d	$a0, $sp, 56
.Ltmp269:                               # EH_LABEL
	addi.d	$a0, $sp, 24
	addi.d	$a1, $sp, 56
	move	$a2, $zero
	pcaddu18i	$ra, %call36(_ZNSt7__cxx1112basic_stringIcSt11char_traitsIcESaIcEE9_M_createERmm)
	jirl	$ra, $ra, 0
.Ltmp270:                               # EH_LABEL
# %bb.15:                               # %call2.i5.i.noexc
	ld.d	$a1, $sp, 56
	pcalau12i	$a2, %pc_hi20(.L.str.341)
	vld	$vr0, $a2, %pc_lo12(.L.str.341)
	st.d	$a0, $sp, 24
	st.d	$a1, $sp, 40
	vst	$vr0, $a0, 0
	ld.d	$a0, $sp, 24
	st.d	$a1, $sp, 32
	stx.b	$zero, $a0, $a1
	addi.d	$a0, $s1, 64
.Ltmp272:                               # EH_LABEL
	addi.d	$a1, $sp, 24
	pcaddu18i	$ra, %call36(_ZNSt3mapINSt7__cxx1112basic_stringIcSt11char_traitsIcESaIcEEEN9benchmark7CounterESt4lessIS5_ESaISt4pairIKS5_S7_EEEixEOS5_)
	jirl	$ra, $ra, 0
.Ltmp273:                               # EH_LABEL
# %bb.16:                               # %_ZN9benchmark5State17SetBytesProcessedEl.exit
	fst.d	$fs0, $a0, 0
	ld.d	$a1, $sp, 24
	ori	$a2, $zero, 1
	lu32i.d	$a2, 1024
	st.d	$a2, $a0, 8
	beq	$a1, $s2, .LBB10_18
# %bb.17:                               # %if.then.i.i69
	move	$a0, $a1
	pcaddu18i	$ra, %call36(_ZdlPv)
	jirl	$ra, $ra, 0
.LBB10_18:                              # %_ZNSt6vectorIcSaIcEED2Ev.exit80
	move	$a0, $s0
	pcaddu18i	$ra, %call36(_ZdlPv)
	jirl	$ra, $ra, 0
	move	$a0, $fp
	pcaddu18i	$ra, %call36(_ZdlPv)
	jirl	$ra, $ra, 0
	fld.d	$fs0, $sp, 64                   # 8-byte Folded Reload
	ld.d	$s4, $sp, 72                    # 8-byte Folded Reload
	ld.d	$s3, $sp, 80                    # 8-byte Folded Reload
	ld.d	$s2, $sp, 88                    # 8-byte Folded Reload
	ld.d	$s1, $sp, 96                    # 8-byte Folded Reload
	ld.d	$s0, $sp, 104                   # 8-byte Folded Reload
	ld.d	$fp, $sp, 112                   # 8-byte Folded Reload
	ld.d	$ra, $sp, 120                   # 8-byte Folded Reload
	addi.d	$sp, $sp, 128
	ret
.LBB10_19:
	movgr2fr.d	$fs0, $zero
	b	.LBB10_14
.LBB10_20:                              # %if.then
.Ltmp275:                               # EH_LABEL
	pcalau12i	$a0, %got_pc_hi20(_ZSt4cerr)
	ld.d	$a0, $a0, %got_pc_lo12(_ZSt4cerr)
	pcalau12i	$a1, %pc_hi20(.L.str.337)
	addi.d	$a1, $a1, %pc_lo12(.L.str.337)
	ori	$a2, $zero, 25
	pcaddu18i	$ra, %call36(_ZSt16__ostream_insertIcSt11char_traitsIcEERSt13basic_ostreamIT_T0_ES6_PKS3_l)
	jirl	$ra, $ra, 0
.Ltmp276:                               # EH_LABEL
# %bb.21:                               # %invoke.cont14
.Ltmp277:                               # EH_LABEL
	pcalau12i	$a0, %got_pc_hi20(_ZSt4cerr)
	ld.d	$a0, $a0, %got_pc_lo12(_ZSt4cerr)
	pcalau12i	$a1, %pc_hi20(_ZN15GreaterThanZero8kDisplayE)
	addi.d	$a1, $a1, %pc_lo12(_ZN15GreaterThanZero8kDisplayE)
	ori	$a2, $zero, 15
	pcaddu18i	$ra, %call36(_ZSt16__ostream_insertIcSt11char_traitsIcEERSt13basic_ostreamIT_T0_ES6_PKS3_l)
	jirl	$ra, $ra, 0
.Ltmp278:                               # EH_LABEL
# %bb.22:                               # %invoke.cont16
.Ltmp279:                               # EH_LABEL
	pcalau12i	$a0, %got_pc_hi20(_ZSt4cerr)
	ld.d	$a0, $a0, %got_pc_lo12(_ZSt4cerr)
	pcalau12i	$a1, %pc_hi20(.L.str.338)
	addi.d	$a1, $a1, %pc_lo12(.L.str.338)
	ori	$a2, $zero, 5
	pcaddu18i	$ra, %call36(_ZSt16__ostream_insertIcSt11char_traitsIcEERSt13basic_ostreamIT_T0_ES6_PKS3_l)
	jirl	$ra, $ra, 0
.Ltmp280:                               # EH_LABEL
# %bb.23:                               # %invoke.cont18
.Ltmp281:                               # EH_LABEL
	pcalau12i	$a0, %got_pc_hi20(_ZSt4cerr)
	ld.d	$a0, $a0, %got_pc_lo12(_ZSt4cerr)
	pcalau12i	$a1, %pc_hi20(_ZN5First8kDisplayE)
	addi.d	$a1, $a1, %pc_lo12(_ZN5First8kDisplayE)
	ori	$a2, $zero, 5
	pcaddu18i	$ra, %call36(_ZSt16__ostream_insertIcSt11char_traitsIcEERSt13basic_ostreamIT_T0_ES6_PKS3_l)
	jirl	$ra, $ra, 0
.Ltmp282:                               # EH_LABEL
# %bb.24:                               # %invoke.cont20
.Ltmp283:                               # EH_LABEL
	pcalau12i	$a0, %got_pc_hi20(_ZSt4cerr)
	ld.d	$a0, $a0, %got_pc_lo12(_ZSt4cerr)
	pcalau12i	$a1, %pc_hi20(.L.str.339)
	addi.d	$a1, $a1, %pc_lo12(.L.str.339)
	ori	$a2, $zero, 7
	pcaddu18i	$ra, %call36(_ZSt16__ostream_insertIcSt11char_traitsIcEERSt13basic_ostreamIT_T0_ES6_PKS3_l)
	jirl	$ra, $ra, 0
.Ltmp284:                               # EH_LABEL
# %bb.25:                               # %invoke.cont22
.Ltmp285:                               # EH_LABEL
	pcalau12i	$a0, %got_pc_hi20(_ZSt4cerr)
	ld.d	$a0, $a0, %got_pc_lo12(_ZSt4cerr)
	ori	$a1, $zero, 1
	pcaddu18i	$ra, %call36(_ZNSolsEi)
	jirl	$ra, $ra, 0
.Ltmp286:                               # EH_LABEL
# %bb.26:                               # %invoke.cont24
.Ltmp287:                               # EH_LABEL
	pcaddu18i	$ra, %call36(_ZSt4endlIcSt11char_traitsIcEERSt13basic_ostreamIT_T0_ES6_)
	jirl	$ra, $ra, 0
.Ltmp288:                               # EH_LABEL
# %bb.27:                               # %invoke.cont26
	ori	$a0, $zero, 1
	pcaddu18i	$ra, %call36(exit)
	jirl	$ra, $ra, 0
.LBB10_28:                              # %lpad13
.Ltmp289:                               # EH_LABEL
	b	.LBB10_34
.LBB10_29:                              # %lpad4.i
.Ltmp274:                               # EH_LABEL
	ld.d	$a1, $sp, 24
	move	$s1, $a0
	beq	$a1, $s2, .LBB10_35
# %bb.30:                               # %if.then.i.i66
	move	$a0, $a1
	pcaddu18i	$ra, %call36(_ZdlPv)
	jirl	$ra, $ra, 0
	b	.LBB10_35
.LBB10_31:                              # %lpad.i
.Ltmp271:                               # EH_LABEL
	b	.LBB10_34
.LBB10_32:                              # %lpad2
.Ltmp263:                               # EH_LABEL
	move	$s1, $a0
	move	$a0, $fp
	pcaddu18i	$ra, %call36(_ZdlPv)
	jirl	$ra, $ra, 0
	move	$a0, $s1
	pcaddu18i	$ra, %call36(_Unwind_Resume)
	jirl	$ra, $ra, 0
.LBB10_33:                              # %lpad31
.Ltmp268:                               # EH_LABEL
.LBB10_34:                              # %_ZNSt6vectorIcSaIcEED2Ev.exit84
	move	$s1, $a0
.LBB10_35:                              # %_ZNSt6vectorIcSaIcEED2Ev.exit84
	move	$a0, $s0
	pcaddu18i	$ra, %call36(_ZdlPv)
	jirl	$ra, $ra, 0
	move	$a0, $fp
	pcaddu18i	$ra, %call36(_ZdlPv)
	jirl	$ra, $ra, 0
	move	$a0, $s1
	pcaddu18i	$ra, %call36(_Unwind_Resume)
	jirl	$ra, $ra, 0
.Lfunc_end10:
	.size	_Z9BM_MemCmpILi1E15GreaterThanZero5FirstEvRN9benchmark5StateE, .Lfunc_end10-_Z9BM_MemCmpILi1E15GreaterThanZero5FirstEvRN9benchmark5StateE
	.cfi_endproc
	.section	.gcc_except_table._Z9BM_MemCmpILi1E15GreaterThanZero5FirstEvRN9benchmark5StateE,"aG",@progbits,_Z9BM_MemCmpILi1E15GreaterThanZero5FirstEvRN9benchmark5StateE,comdat
	.p2align	2, 0x0
GCC_except_table10:
.Lexception9:
	.byte	255                             # @LPStart Encoding = omit
	.byte	255                             # @TType Encoding = omit
	.byte	1                               # Call site Encoding = uleb128
	.uleb128 .Lcst_end9-.Lcst_begin9
.Lcst_begin9:
	.uleb128 .Lfunc_begin9-.Lfunc_begin9    # >> Call Site 1 <<
	.uleb128 .Ltmp261-.Lfunc_begin9         #   Call between .Lfunc_begin9 and .Ltmp261
	.byte	0                               #     has no landing pad
	.byte	0                               #   On action: cleanup
	.uleb128 .Ltmp261-.Lfunc_begin9         # >> Call Site 2 <<
	.uleb128 .Ltmp262-.Ltmp261              #   Call between .Ltmp261 and .Ltmp262
	.uleb128 .Ltmp263-.Lfunc_begin9         #     jumps to .Ltmp263
	.byte	0                               #   On action: cleanup
	.uleb128 .Ltmp262-.Lfunc_begin9         # >> Call Site 3 <<
	.uleb128 .Ltmp264-.Ltmp262              #   Call between .Ltmp262 and .Ltmp264
	.byte	0                               #     has no landing pad
	.byte	0                               #   On action: cleanup
	.uleb128 .Ltmp264-.Lfunc_begin9         # >> Call Site 4 <<
	.uleb128 .Ltmp267-.Ltmp264              #   Call between .Ltmp264 and .Ltmp267
	.uleb128 .Ltmp268-.Lfunc_begin9         #     jumps to .Ltmp268
	.byte	0                               #   On action: cleanup
	.uleb128 .Ltmp269-.Lfunc_begin9         # >> Call Site 5 <<
	.uleb128 .Ltmp270-.Ltmp269              #   Call between .Ltmp269 and .Ltmp270
	.uleb128 .Ltmp271-.Lfunc_begin9         #     jumps to .Ltmp271
	.byte	0                               #   On action: cleanup
	.uleb128 .Ltmp272-.Lfunc_begin9         # >> Call Site 6 <<
	.uleb128 .Ltmp273-.Ltmp272              #   Call between .Ltmp272 and .Ltmp273
	.uleb128 .Ltmp274-.Lfunc_begin9         #     jumps to .Ltmp274
	.byte	0                               #   On action: cleanup
	.uleb128 .Ltmp273-.Lfunc_begin9         # >> Call Site 7 <<
	.uleb128 .Ltmp275-.Ltmp273              #   Call between .Ltmp273 and .Ltmp275
	.byte	0                               #     has no landing pad
	.byte	0                               #   On action: cleanup
	.uleb128 .Ltmp275-.Lfunc_begin9         # >> Call Site 8 <<
	.uleb128 .Ltmp288-.Ltmp275              #   Call between .Ltmp275 and .Ltmp288
	.uleb128 .Ltmp289-.Lfunc_begin9         #     jumps to .Ltmp289
	.byte	0                               #   On action: cleanup
	.uleb128 .Ltmp288-.Lfunc_begin9         # >> Call Site 9 <<
	.uleb128 .Lfunc_end10-.Ltmp288          #   Call between .Ltmp288 and .Lfunc_end10
	.byte	0                               #     has no landing pad
	.byte	0                               #   On action: cleanup
.Lcst_end9:
	.p2align	2, 0x0
                                        # -- End function
	.section	.text._Z9BM_MemCmpILi1E15GreaterThanZero3MidEvRN9benchmark5StateE,"axG",@progbits,_Z9BM_MemCmpILi1E15GreaterThanZero3MidEvRN9benchmark5StateE,comdat
	.weak	_Z9BM_MemCmpILi1E15GreaterThanZero3MidEvRN9benchmark5StateE # -- Begin function _Z9BM_MemCmpILi1E15GreaterThanZero3MidEvRN9benchmark5StateE
	.p2align	5
	.type	_Z9BM_MemCmpILi1E15GreaterThanZero3MidEvRN9benchmark5StateE,@function
_Z9BM_MemCmpILi1E15GreaterThanZero3MidEvRN9benchmark5StateE: # @_Z9BM_MemCmpILi1E15GreaterThanZero3MidEvRN9benchmark5StateE
.Lfunc_begin10:
	.cfi_startproc
	.cfi_personality 155, DW.ref.__gxx_personality_v0
	.cfi_lsda 27, .Lexception10
# %bb.0:                                # %entry
	addi.d	$sp, $sp, -128
	.cfi_def_cfa_offset 128
	st.d	$ra, $sp, 120                   # 8-byte Folded Spill
	st.d	$fp, $sp, 112                   # 8-byte Folded Spill
	st.d	$s0, $sp, 104                   # 8-byte Folded Spill
	st.d	$s1, $sp, 96                    # 8-byte Folded Spill
	st.d	$s2, $sp, 88                    # 8-byte Folded Spill
	st.d	$s3, $sp, 80                    # 8-byte Folded Spill
	st.d	$s4, $sp, 72                    # 8-byte Folded Spill
	fst.d	$fs0, $sp, 64                   # 8-byte Folded Spill
	.cfi_offset 1, -8
	.cfi_offset 22, -16
	.cfi_offset 23, -24
	.cfi_offset 24, -32
	.cfi_offset 25, -40
	.cfi_offset 26, -48
	.cfi_offset 27, -56
	.cfi_offset 56, -64
	move	$s1, $a0
	lu12i.w	$s2, 1
	move	$a0, $s2
	pcaddu18i	$ra, %call36(_Znwm)
	jirl	$ra, $ra, 0
	move	$fp, $a0
	move	$a1, $zero
	move	$a2, $s2
	pcaddu18i	$ra, %call36(memset)
	jirl	$ra, $ra, 0
.Ltmp290:                               # EH_LABEL
	move	$a0, $s2
	pcaddu18i	$ra, %call36(_Znwm)
	jirl	$ra, $ra, 0
.Ltmp291:                               # EH_LABEL
# %bb.1:                                # %invoke.cont3
	move	$s0, $a0
	move	$a1, $zero
	move	$a2, $s2
	pcaddu18i	$ra, %call36(memset)
	jirl	$ra, $ra, 0
	st.d	$fp, $sp, 16
	st.d	$s0, $sp, 8
	lu12i.w	$a0, -1
	vrepli.b	$vr0, -1
	ori	$a1, $s2, 16
	.p2align	4, , 16
.LBB11_2:                               # %vector.body
                                        # =>This Inner Loop Header: Depth=1
	add.d	$a2, $fp, $a0
	vstx	$vr0, $a2, $s2
	addi.d	$a0, $a0, 32
	vstx	$vr0, $a2, $a1
	bnez	$a0, .LBB11_2
# %bb.3:                                # %for.cond.cleanup
	ori	$a2, $zero, 1
	move	$a0, $fp
	move	$a1, $s0
	pcaddu18i	$ra, %call36(_Z10RealMemCmpPKcS0_m)
	jirl	$ra, $ra, 0
	ld.bu	$a1, $fp, 0
	slt	$a0, $zero, $a0
	sltu	$a1, $zero, $a1
	xor	$a0, $a0, $a1
	bnez	$a0, .LBB11_20
# %bb.4:                                # %if.end
	addi.d	$a0, $sp, 16
	#APP
	#NO_APP
	addi.d	$a0, $sp, 8
	#APP
	#NO_APP
	ld.w	$s4, $s1, 28
	ld.d	$s3, $s1, 16
.Ltmp293:                               # EH_LABEL
	move	$a0, $s1
	pcaddu18i	$ra, %call36(_ZN9benchmark5State16StartKeepRunningEv)
	jirl	$ra, $ra, 0
.Ltmp294:                               # EH_LABEL
# %bb.5:                                # %for.cond34.preheader
	bnez	$s4, .LBB11_11
# %bb.6:                                # %for.cond34.preheader
	beqz	$s3, .LBB11_11
# %bb.7:
	lu12i.w	$a0, -1
	.p2align	4, , 16
.LBB11_8:                               # %for.body38
                                        # =>This Loop Header: Depth=1
                                        #     Child Loop BB11_9 Depth 2
	#MEMBARRIER
	move	$a1, $a0
	.p2align	4, , 16
.LBB11_9:                               # %for.body45
                                        #   Parent Loop BB11_8 Depth=1
                                        # =>  This Inner Loop Header: Depth=2
	ld.d	$a2, $sp, 16
	ld.d	$a3, $sp, 8
	add.d	$a2, $a2, $a1
	add.d	$a3, $a3, $a1
	ldx.bu	$a2, $a2, $s2
	ldx.bu	$a3, $a3, $s2
	sltu	$a2, $a3, $a2
	st.b	$a2, $sp, 24
	#APP
	#NO_APP
	addi.d	$a1, $a1, 1
	bnez	$a1, .LBB11_9
# %bb.10:                               # %for.cond.cleanup44
                                        #   in Loop: Header=BB11_8 Depth=1
	addi.d	$s3, $s3, -1
	bnez	$s3, .LBB11_8
.LBB11_11:                              # %if.end.i
.Ltmp295:                               # EH_LABEL
	move	$a0, $s1
	pcaddu18i	$ra, %call36(_ZN9benchmark5State17FinishKeepRunningEv)
	jirl	$ra, $ra, 0
.Ltmp296:                               # EH_LABEL
# %bb.12:                               # %for.cond.cleanup37
	ld.bu	$a0, $s1, 24
	beqz	$a0, .LBB11_19
# %bb.13:                               # %if.end.i26
	ld.d	$a0, $s1, 16
	ld.d	$a1, $s1, 0
	ld.d	$a2, $s1, 8
	sub.d	$a0, $a0, $a1
	add.d	$a0, $a0, $a2
	slli.d	$a0, $a0, 12
	movgr2fr.d	$fa0, $a0
	ffint.d.l	$fs0, $fa0
.LBB11_14:                              # %_ZNK9benchmark5State10iterationsEv.exit
	addi.d	$s2, $sp, 40
	st.d	$s2, $sp, 24
	ori	$a0, $zero, 16
	st.d	$a0, $sp, 56
.Ltmp298:                               # EH_LABEL
	addi.d	$a0, $sp, 24
	addi.d	$a1, $sp, 56
	move	$a2, $zero
	pcaddu18i	$ra, %call36(_ZNSt7__cxx1112basic_stringIcSt11char_traitsIcESaIcEE9_M_createERmm)
	jirl	$ra, $ra, 0
.Ltmp299:                               # EH_LABEL
# %bb.15:                               # %call2.i5.i.noexc
	ld.d	$a1, $sp, 56
	pcalau12i	$a2, %pc_hi20(.L.str.341)
	vld	$vr0, $a2, %pc_lo12(.L.str.341)
	st.d	$a0, $sp, 24
	st.d	$a1, $sp, 40
	vst	$vr0, $a0, 0
	ld.d	$a0, $sp, 24
	st.d	$a1, $sp, 32
	stx.b	$zero, $a0, $a1
	addi.d	$a0, $s1, 64
.Ltmp301:                               # EH_LABEL
	addi.d	$a1, $sp, 24
	pcaddu18i	$ra, %call36(_ZNSt3mapINSt7__cxx1112basic_stringIcSt11char_traitsIcESaIcEEEN9benchmark7CounterESt4lessIS5_ESaISt4pairIKS5_S7_EEEixEOS5_)
	jirl	$ra, $ra, 0
.Ltmp302:                               # EH_LABEL
# %bb.16:                               # %_ZN9benchmark5State17SetBytesProcessedEl.exit
	fst.d	$fs0, $a0, 0
	ld.d	$a1, $sp, 24
	ori	$a2, $zero, 1
	lu32i.d	$a2, 1024
	st.d	$a2, $a0, 8
	beq	$a1, $s2, .LBB11_18
# %bb.17:                               # %if.then.i.i69
	move	$a0, $a1
	pcaddu18i	$ra, %call36(_ZdlPv)
	jirl	$ra, $ra, 0
.LBB11_18:                              # %_ZNSt6vectorIcSaIcEED2Ev.exit80
	move	$a0, $s0
	pcaddu18i	$ra, %call36(_ZdlPv)
	jirl	$ra, $ra, 0
	move	$a0, $fp
	pcaddu18i	$ra, %call36(_ZdlPv)
	jirl	$ra, $ra, 0
	fld.d	$fs0, $sp, 64                   # 8-byte Folded Reload
	ld.d	$s4, $sp, 72                    # 8-byte Folded Reload
	ld.d	$s3, $sp, 80                    # 8-byte Folded Reload
	ld.d	$s2, $sp, 88                    # 8-byte Folded Reload
	ld.d	$s1, $sp, 96                    # 8-byte Folded Reload
	ld.d	$s0, $sp, 104                   # 8-byte Folded Reload
	ld.d	$fp, $sp, 112                   # 8-byte Folded Reload
	ld.d	$ra, $sp, 120                   # 8-byte Folded Reload
	addi.d	$sp, $sp, 128
	ret
.LBB11_19:
	movgr2fr.d	$fs0, $zero
	b	.LBB11_14
.LBB11_20:                              # %if.then
.Ltmp304:                               # EH_LABEL
	pcalau12i	$a0, %got_pc_hi20(_ZSt4cerr)
	ld.d	$a0, $a0, %got_pc_lo12(_ZSt4cerr)
	pcalau12i	$a1, %pc_hi20(.L.str.337)
	addi.d	$a1, $a1, %pc_lo12(.L.str.337)
	ori	$a2, $zero, 25
	pcaddu18i	$ra, %call36(_ZSt16__ostream_insertIcSt11char_traitsIcEERSt13basic_ostreamIT_T0_ES6_PKS3_l)
	jirl	$ra, $ra, 0
.Ltmp305:                               # EH_LABEL
# %bb.21:                               # %invoke.cont14
.Ltmp306:                               # EH_LABEL
	pcalau12i	$a0, %got_pc_hi20(_ZSt4cerr)
	ld.d	$a0, $a0, %got_pc_lo12(_ZSt4cerr)
	pcalau12i	$a1, %pc_hi20(_ZN15GreaterThanZero8kDisplayE)
	addi.d	$a1, $a1, %pc_lo12(_ZN15GreaterThanZero8kDisplayE)
	ori	$a2, $zero, 15
	pcaddu18i	$ra, %call36(_ZSt16__ostream_insertIcSt11char_traitsIcEERSt13basic_ostreamIT_T0_ES6_PKS3_l)
	jirl	$ra, $ra, 0
.Ltmp307:                               # EH_LABEL
# %bb.22:                               # %invoke.cont16
.Ltmp308:                               # EH_LABEL
	pcalau12i	$a0, %got_pc_hi20(_ZSt4cerr)
	ld.d	$a0, $a0, %got_pc_lo12(_ZSt4cerr)
	pcalau12i	$a1, %pc_hi20(.L.str.338)
	addi.d	$a1, $a1, %pc_lo12(.L.str.338)
	ori	$a2, $zero, 5
	pcaddu18i	$ra, %call36(_ZSt16__ostream_insertIcSt11char_traitsIcEERSt13basic_ostreamIT_T0_ES6_PKS3_l)
	jirl	$ra, $ra, 0
.Ltmp309:                               # EH_LABEL
# %bb.23:                               # %invoke.cont18
.Ltmp310:                               # EH_LABEL
	pcalau12i	$a0, %got_pc_hi20(_ZSt4cerr)
	ld.d	$a0, $a0, %got_pc_lo12(_ZSt4cerr)
	pcalau12i	$a1, %pc_hi20(_ZN3Mid8kDisplayE)
	addi.d	$a1, $a1, %pc_lo12(_ZN3Mid8kDisplayE)
	ori	$a2, $zero, 3
	pcaddu18i	$ra, %call36(_ZSt16__ostream_insertIcSt11char_traitsIcEERSt13basic_ostreamIT_T0_ES6_PKS3_l)
	jirl	$ra, $ra, 0
.Ltmp311:                               # EH_LABEL
# %bb.24:                               # %invoke.cont20
.Ltmp312:                               # EH_LABEL
	pcalau12i	$a0, %got_pc_hi20(_ZSt4cerr)
	ld.d	$a0, $a0, %got_pc_lo12(_ZSt4cerr)
	pcalau12i	$a1, %pc_hi20(.L.str.339)
	addi.d	$a1, $a1, %pc_lo12(.L.str.339)
	ori	$a2, $zero, 7
	pcaddu18i	$ra, %call36(_ZSt16__ostream_insertIcSt11char_traitsIcEERSt13basic_ostreamIT_T0_ES6_PKS3_l)
	jirl	$ra, $ra, 0
.Ltmp313:                               # EH_LABEL
# %bb.25:                               # %invoke.cont22
.Ltmp314:                               # EH_LABEL
	pcalau12i	$a0, %got_pc_hi20(_ZSt4cerr)
	ld.d	$a0, $a0, %got_pc_lo12(_ZSt4cerr)
	ori	$a1, $zero, 1
	pcaddu18i	$ra, %call36(_ZNSolsEi)
	jirl	$ra, $ra, 0
.Ltmp315:                               # EH_LABEL
# %bb.26:                               # %invoke.cont24
.Ltmp316:                               # EH_LABEL
	pcaddu18i	$ra, %call36(_ZSt4endlIcSt11char_traitsIcEERSt13basic_ostreamIT_T0_ES6_)
	jirl	$ra, $ra, 0
.Ltmp317:                               # EH_LABEL
# %bb.27:                               # %invoke.cont26
	ori	$a0, $zero, 1
	pcaddu18i	$ra, %call36(exit)
	jirl	$ra, $ra, 0
.LBB11_28:                              # %lpad13
.Ltmp318:                               # EH_LABEL
	b	.LBB11_34
.LBB11_29:                              # %lpad4.i
.Ltmp303:                               # EH_LABEL
	ld.d	$a1, $sp, 24
	move	$s1, $a0
	beq	$a1, $s2, .LBB11_35
# %bb.30:                               # %if.then.i.i66
	move	$a0, $a1
	pcaddu18i	$ra, %call36(_ZdlPv)
	jirl	$ra, $ra, 0
	b	.LBB11_35
.LBB11_31:                              # %lpad.i
.Ltmp300:                               # EH_LABEL
	b	.LBB11_34
.LBB11_32:                              # %lpad2
.Ltmp292:                               # EH_LABEL
	move	$s1, $a0
	move	$a0, $fp
	pcaddu18i	$ra, %call36(_ZdlPv)
	jirl	$ra, $ra, 0
	move	$a0, $s1
	pcaddu18i	$ra, %call36(_Unwind_Resume)
	jirl	$ra, $ra, 0
.LBB11_33:                              # %lpad31
.Ltmp297:                               # EH_LABEL
.LBB11_34:                              # %_ZNSt6vectorIcSaIcEED2Ev.exit84
	move	$s1, $a0
.LBB11_35:                              # %_ZNSt6vectorIcSaIcEED2Ev.exit84
	move	$a0, $s0
	pcaddu18i	$ra, %call36(_ZdlPv)
	jirl	$ra, $ra, 0
	move	$a0, $fp
	pcaddu18i	$ra, %call36(_ZdlPv)
	jirl	$ra, $ra, 0
	move	$a0, $s1
	pcaddu18i	$ra, %call36(_Unwind_Resume)
	jirl	$ra, $ra, 0
.Lfunc_end11:
	.size	_Z9BM_MemCmpILi1E15GreaterThanZero3MidEvRN9benchmark5StateE, .Lfunc_end11-_Z9BM_MemCmpILi1E15GreaterThanZero3MidEvRN9benchmark5StateE
	.cfi_endproc
	.section	.gcc_except_table._Z9BM_MemCmpILi1E15GreaterThanZero3MidEvRN9benchmark5StateE,"aG",@progbits,_Z9BM_MemCmpILi1E15GreaterThanZero3MidEvRN9benchmark5StateE,comdat
	.p2align	2, 0x0
GCC_except_table11:
.Lexception10:
	.byte	255                             # @LPStart Encoding = omit
	.byte	255                             # @TType Encoding = omit
	.byte	1                               # Call site Encoding = uleb128
	.uleb128 .Lcst_end10-.Lcst_begin10
.Lcst_begin10:
	.uleb128 .Lfunc_begin10-.Lfunc_begin10  # >> Call Site 1 <<
	.uleb128 .Ltmp290-.Lfunc_begin10        #   Call between .Lfunc_begin10 and .Ltmp290
	.byte	0                               #     has no landing pad
	.byte	0                               #   On action: cleanup
	.uleb128 .Ltmp290-.Lfunc_begin10        # >> Call Site 2 <<
	.uleb128 .Ltmp291-.Ltmp290              #   Call between .Ltmp290 and .Ltmp291
	.uleb128 .Ltmp292-.Lfunc_begin10        #     jumps to .Ltmp292
	.byte	0                               #   On action: cleanup
	.uleb128 .Ltmp291-.Lfunc_begin10        # >> Call Site 3 <<
	.uleb128 .Ltmp293-.Ltmp291              #   Call between .Ltmp291 and .Ltmp293
	.byte	0                               #     has no landing pad
	.byte	0                               #   On action: cleanup
	.uleb128 .Ltmp293-.Lfunc_begin10        # >> Call Site 4 <<
	.uleb128 .Ltmp296-.Ltmp293              #   Call between .Ltmp293 and .Ltmp296
	.uleb128 .Ltmp297-.Lfunc_begin10        #     jumps to .Ltmp297
	.byte	0                               #   On action: cleanup
	.uleb128 .Ltmp298-.Lfunc_begin10        # >> Call Site 5 <<
	.uleb128 .Ltmp299-.Ltmp298              #   Call between .Ltmp298 and .Ltmp299
	.uleb128 .Ltmp300-.Lfunc_begin10        #     jumps to .Ltmp300
	.byte	0                               #   On action: cleanup
	.uleb128 .Ltmp301-.Lfunc_begin10        # >> Call Site 6 <<
	.uleb128 .Ltmp302-.Ltmp301              #   Call between .Ltmp301 and .Ltmp302
	.uleb128 .Ltmp303-.Lfunc_begin10        #     jumps to .Ltmp303
	.byte	0                               #   On action: cleanup
	.uleb128 .Ltmp302-.Lfunc_begin10        # >> Call Site 7 <<
	.uleb128 .Ltmp304-.Ltmp302              #   Call between .Ltmp302 and .Ltmp304
	.byte	0                               #     has no landing pad
	.byte	0                               #   On action: cleanup
	.uleb128 .Ltmp304-.Lfunc_begin10        # >> Call Site 8 <<
	.uleb128 .Ltmp317-.Ltmp304              #   Call between .Ltmp304 and .Ltmp317
	.uleb128 .Ltmp318-.Lfunc_begin10        #     jumps to .Ltmp318
	.byte	0                               #   On action: cleanup
	.uleb128 .Ltmp317-.Lfunc_begin10        # >> Call Site 9 <<
	.uleb128 .Lfunc_end11-.Ltmp317          #   Call between .Ltmp317 and .Lfunc_end11
	.byte	0                               #     has no landing pad
	.byte	0                               #   On action: cleanup
.Lcst_end10:
	.p2align	2, 0x0
                                        # -- End function
	.section	.text._Z9BM_MemCmpILi1E15GreaterThanZero4LastEvRN9benchmark5StateE,"axG",@progbits,_Z9BM_MemCmpILi1E15GreaterThanZero4LastEvRN9benchmark5StateE,comdat
	.weak	_Z9BM_MemCmpILi1E15GreaterThanZero4LastEvRN9benchmark5StateE # -- Begin function _Z9BM_MemCmpILi1E15GreaterThanZero4LastEvRN9benchmark5StateE
	.p2align	5
	.type	_Z9BM_MemCmpILi1E15GreaterThanZero4LastEvRN9benchmark5StateE,@function
_Z9BM_MemCmpILi1E15GreaterThanZero4LastEvRN9benchmark5StateE: # @_Z9BM_MemCmpILi1E15GreaterThanZero4LastEvRN9benchmark5StateE
.Lfunc_begin11:
	.cfi_startproc
	.cfi_personality 155, DW.ref.__gxx_personality_v0
	.cfi_lsda 27, .Lexception11
# %bb.0:                                # %entry
	addi.d	$sp, $sp, -128
	.cfi_def_cfa_offset 128
	st.d	$ra, $sp, 120                   # 8-byte Folded Spill
	st.d	$fp, $sp, 112                   # 8-byte Folded Spill
	st.d	$s0, $sp, 104                   # 8-byte Folded Spill
	st.d	$s1, $sp, 96                    # 8-byte Folded Spill
	st.d	$s2, $sp, 88                    # 8-byte Folded Spill
	st.d	$s3, $sp, 80                    # 8-byte Folded Spill
	st.d	$s4, $sp, 72                    # 8-byte Folded Spill
	fst.d	$fs0, $sp, 64                   # 8-byte Folded Spill
	.cfi_offset 1, -8
	.cfi_offset 22, -16
	.cfi_offset 23, -24
	.cfi_offset 24, -32
	.cfi_offset 25, -40
	.cfi_offset 26, -48
	.cfi_offset 27, -56
	.cfi_offset 56, -64
	move	$s1, $a0
	lu12i.w	$s2, 1
	move	$a0, $s2
	pcaddu18i	$ra, %call36(_Znwm)
	jirl	$ra, $ra, 0
	move	$fp, $a0
	move	$a1, $zero
	move	$a2, $s2
	pcaddu18i	$ra, %call36(memset)
	jirl	$ra, $ra, 0
.Ltmp319:                               # EH_LABEL
	move	$a0, $s2
	pcaddu18i	$ra, %call36(_Znwm)
	jirl	$ra, $ra, 0
.Ltmp320:                               # EH_LABEL
# %bb.1:                                # %invoke.cont3
	move	$s0, $a0
	move	$a1, $zero
	move	$a2, $s2
	pcaddu18i	$ra, %call36(memset)
	jirl	$ra, $ra, 0
	st.d	$fp, $sp, 16
	st.d	$s0, $sp, 8
	lu12i.w	$a0, -1
	vrepli.b	$vr0, -1
	ori	$a1, $s2, 16
	.p2align	4, , 16
.LBB12_2:                               # %vector.body
                                        # =>This Inner Loop Header: Depth=1
	add.d	$a2, $fp, $a0
	vstx	$vr0, $a2, $s2
	addi.d	$a0, $a0, 32
	vstx	$vr0, $a2, $a1
	bnez	$a0, .LBB12_2
# %bb.3:                                # %for.cond.cleanup
	ori	$a2, $zero, 1
	move	$a0, $fp
	move	$a1, $s0
	pcaddu18i	$ra, %call36(_Z10RealMemCmpPKcS0_m)
	jirl	$ra, $ra, 0
	ld.bu	$a1, $fp, 0
	slt	$a0, $zero, $a0
	sltu	$a1, $zero, $a1
	xor	$a0, $a0, $a1
	bnez	$a0, .LBB12_20
# %bb.4:                                # %if.end
	addi.d	$a0, $sp, 16
	#APP
	#NO_APP
	addi.d	$a0, $sp, 8
	#APP
	#NO_APP
	ld.w	$s4, $s1, 28
	ld.d	$s3, $s1, 16
.Ltmp322:                               # EH_LABEL
	move	$a0, $s1
	pcaddu18i	$ra, %call36(_ZN9benchmark5State16StartKeepRunningEv)
	jirl	$ra, $ra, 0
.Ltmp323:                               # EH_LABEL
# %bb.5:                                # %for.cond34.preheader
	bnez	$s4, .LBB12_11
# %bb.6:                                # %for.cond34.preheader
	beqz	$s3, .LBB12_11
# %bb.7:
	lu12i.w	$a0, -1
	.p2align	4, , 16
.LBB12_8:                               # %for.body38
                                        # =>This Loop Header: Depth=1
                                        #     Child Loop BB12_9 Depth 2
	#MEMBARRIER
	move	$a1, $a0
	.p2align	4, , 16
.LBB12_9:                               # %for.body45
                                        #   Parent Loop BB12_8 Depth=1
                                        # =>  This Inner Loop Header: Depth=2
	ld.d	$a2, $sp, 16
	ld.d	$a3, $sp, 8
	add.d	$a2, $a2, $a1
	add.d	$a3, $a3, $a1
	ldx.bu	$a2, $a2, $s2
	ldx.bu	$a3, $a3, $s2
	sltu	$a2, $a3, $a2
	st.b	$a2, $sp, 24
	#APP
	#NO_APP
	addi.d	$a1, $a1, 1
	bnez	$a1, .LBB12_9
# %bb.10:                               # %for.cond.cleanup44
                                        #   in Loop: Header=BB12_8 Depth=1
	addi.d	$s3, $s3, -1
	bnez	$s3, .LBB12_8
.LBB12_11:                              # %if.end.i
.Ltmp324:                               # EH_LABEL
	move	$a0, $s1
	pcaddu18i	$ra, %call36(_ZN9benchmark5State17FinishKeepRunningEv)
	jirl	$ra, $ra, 0
.Ltmp325:                               # EH_LABEL
# %bb.12:                               # %for.cond.cleanup37
	ld.bu	$a0, $s1, 24
	beqz	$a0, .LBB12_19
# %bb.13:                               # %if.end.i26
	ld.d	$a0, $s1, 16
	ld.d	$a1, $s1, 0
	ld.d	$a2, $s1, 8
	sub.d	$a0, $a0, $a1
	add.d	$a0, $a0, $a2
	slli.d	$a0, $a0, 12
	movgr2fr.d	$fa0, $a0
	ffint.d.l	$fs0, $fa0
.LBB12_14:                              # %_ZNK9benchmark5State10iterationsEv.exit
	addi.d	$s2, $sp, 40
	st.d	$s2, $sp, 24
	ori	$a0, $zero, 16
	st.d	$a0, $sp, 56
.Ltmp327:                               # EH_LABEL
	addi.d	$a0, $sp, 24
	addi.d	$a1, $sp, 56
	move	$a2, $zero
	pcaddu18i	$ra, %call36(_ZNSt7__cxx1112basic_stringIcSt11char_traitsIcESaIcEE9_M_createERmm)
	jirl	$ra, $ra, 0
.Ltmp328:                               # EH_LABEL
# %bb.15:                               # %call2.i5.i.noexc
	ld.d	$a1, $sp, 56
	pcalau12i	$a2, %pc_hi20(.L.str.341)
	vld	$vr0, $a2, %pc_lo12(.L.str.341)
	st.d	$a0, $sp, 24
	st.d	$a1, $sp, 40
	vst	$vr0, $a0, 0
	ld.d	$a0, $sp, 24
	st.d	$a1, $sp, 32
	stx.b	$zero, $a0, $a1
	addi.d	$a0, $s1, 64
.Ltmp330:                               # EH_LABEL
	addi.d	$a1, $sp, 24
	pcaddu18i	$ra, %call36(_ZNSt3mapINSt7__cxx1112basic_stringIcSt11char_traitsIcESaIcEEEN9benchmark7CounterESt4lessIS5_ESaISt4pairIKS5_S7_EEEixEOS5_)
	jirl	$ra, $ra, 0
.Ltmp331:                               # EH_LABEL
# %bb.16:                               # %_ZN9benchmark5State17SetBytesProcessedEl.exit
	fst.d	$fs0, $a0, 0
	ld.d	$a1, $sp, 24
	ori	$a2, $zero, 1
	lu32i.d	$a2, 1024
	st.d	$a2, $a0, 8
	beq	$a1, $s2, .LBB12_18
# %bb.17:                               # %if.then.i.i69
	move	$a0, $a1
	pcaddu18i	$ra, %call36(_ZdlPv)
	jirl	$ra, $ra, 0
.LBB12_18:                              # %_ZNSt6vectorIcSaIcEED2Ev.exit80
	move	$a0, $s0
	pcaddu18i	$ra, %call36(_ZdlPv)
	jirl	$ra, $ra, 0
	move	$a0, $fp
	pcaddu18i	$ra, %call36(_ZdlPv)
	jirl	$ra, $ra, 0
	fld.d	$fs0, $sp, 64                   # 8-byte Folded Reload
	ld.d	$s4, $sp, 72                    # 8-byte Folded Reload
	ld.d	$s3, $sp, 80                    # 8-byte Folded Reload
	ld.d	$s2, $sp, 88                    # 8-byte Folded Reload
	ld.d	$s1, $sp, 96                    # 8-byte Folded Reload
	ld.d	$s0, $sp, 104                   # 8-byte Folded Reload
	ld.d	$fp, $sp, 112                   # 8-byte Folded Reload
	ld.d	$ra, $sp, 120                   # 8-byte Folded Reload
	addi.d	$sp, $sp, 128
	ret
.LBB12_19:
	movgr2fr.d	$fs0, $zero
	b	.LBB12_14
.LBB12_20:                              # %if.then
.Ltmp333:                               # EH_LABEL
	pcalau12i	$a0, %got_pc_hi20(_ZSt4cerr)
	ld.d	$a0, $a0, %got_pc_lo12(_ZSt4cerr)
	pcalau12i	$a1, %pc_hi20(.L.str.337)
	addi.d	$a1, $a1, %pc_lo12(.L.str.337)
	ori	$a2, $zero, 25
	pcaddu18i	$ra, %call36(_ZSt16__ostream_insertIcSt11char_traitsIcEERSt13basic_ostreamIT_T0_ES6_PKS3_l)
	jirl	$ra, $ra, 0
.Ltmp334:                               # EH_LABEL
# %bb.21:                               # %invoke.cont14
.Ltmp335:                               # EH_LABEL
	pcalau12i	$a0, %got_pc_hi20(_ZSt4cerr)
	ld.d	$a0, $a0, %got_pc_lo12(_ZSt4cerr)
	pcalau12i	$a1, %pc_hi20(_ZN15GreaterThanZero8kDisplayE)
	addi.d	$a1, $a1, %pc_lo12(_ZN15GreaterThanZero8kDisplayE)
	ori	$a2, $zero, 15
	pcaddu18i	$ra, %call36(_ZSt16__ostream_insertIcSt11char_traitsIcEERSt13basic_ostreamIT_T0_ES6_PKS3_l)
	jirl	$ra, $ra, 0
.Ltmp336:                               # EH_LABEL
# %bb.22:                               # %invoke.cont16
.Ltmp337:                               # EH_LABEL
	pcalau12i	$a0, %got_pc_hi20(_ZSt4cerr)
	ld.d	$a0, $a0, %got_pc_lo12(_ZSt4cerr)
	pcalau12i	$a1, %pc_hi20(.L.str.338)
	addi.d	$a1, $a1, %pc_lo12(.L.str.338)
	ori	$a2, $zero, 5
	pcaddu18i	$ra, %call36(_ZSt16__ostream_insertIcSt11char_traitsIcEERSt13basic_ostreamIT_T0_ES6_PKS3_l)
	jirl	$ra, $ra, 0
.Ltmp338:                               # EH_LABEL
# %bb.23:                               # %invoke.cont18
.Ltmp339:                               # EH_LABEL
	pcalau12i	$a0, %got_pc_hi20(_ZSt4cerr)
	ld.d	$a0, $a0, %got_pc_lo12(_ZSt4cerr)
	pcalau12i	$a1, %pc_hi20(_ZN4Last8kDisplayE)
	addi.d	$a1, $a1, %pc_lo12(_ZN4Last8kDisplayE)
	ori	$a2, $zero, 4
	pcaddu18i	$ra, %call36(_ZSt16__ostream_insertIcSt11char_traitsIcEERSt13basic_ostreamIT_T0_ES6_PKS3_l)
	jirl	$ra, $ra, 0
.Ltmp340:                               # EH_LABEL
# %bb.24:                               # %invoke.cont20
.Ltmp341:                               # EH_LABEL
	pcalau12i	$a0, %got_pc_hi20(_ZSt4cerr)
	ld.d	$a0, $a0, %got_pc_lo12(_ZSt4cerr)
	pcalau12i	$a1, %pc_hi20(.L.str.339)
	addi.d	$a1, $a1, %pc_lo12(.L.str.339)
	ori	$a2, $zero, 7
	pcaddu18i	$ra, %call36(_ZSt16__ostream_insertIcSt11char_traitsIcEERSt13basic_ostreamIT_T0_ES6_PKS3_l)
	jirl	$ra, $ra, 0
.Ltmp342:                               # EH_LABEL
# %bb.25:                               # %invoke.cont22
.Ltmp343:                               # EH_LABEL
	pcalau12i	$a0, %got_pc_hi20(_ZSt4cerr)
	ld.d	$a0, $a0, %got_pc_lo12(_ZSt4cerr)
	ori	$a1, $zero, 1
	pcaddu18i	$ra, %call36(_ZNSolsEi)
	jirl	$ra, $ra, 0
.Ltmp344:                               # EH_LABEL
# %bb.26:                               # %invoke.cont24
.Ltmp345:                               # EH_LABEL
	pcaddu18i	$ra, %call36(_ZSt4endlIcSt11char_traitsIcEERSt13basic_ostreamIT_T0_ES6_)
	jirl	$ra, $ra, 0
.Ltmp346:                               # EH_LABEL
# %bb.27:                               # %invoke.cont26
	ori	$a0, $zero, 1
	pcaddu18i	$ra, %call36(exit)
	jirl	$ra, $ra, 0
.LBB12_28:                              # %lpad13
.Ltmp347:                               # EH_LABEL
	b	.LBB12_34
.LBB12_29:                              # %lpad4.i
.Ltmp332:                               # EH_LABEL
	ld.d	$a1, $sp, 24
	move	$s1, $a0
	beq	$a1, $s2, .LBB12_35
# %bb.30:                               # %if.then.i.i66
	move	$a0, $a1
	pcaddu18i	$ra, %call36(_ZdlPv)
	jirl	$ra, $ra, 0
	b	.LBB12_35
.LBB12_31:                              # %lpad.i
.Ltmp329:                               # EH_LABEL
	b	.LBB12_34
.LBB12_32:                              # %lpad2
.Ltmp321:                               # EH_LABEL
	move	$s1, $a0
	move	$a0, $fp
	pcaddu18i	$ra, %call36(_ZdlPv)
	jirl	$ra, $ra, 0
	move	$a0, $s1
	pcaddu18i	$ra, %call36(_Unwind_Resume)
	jirl	$ra, $ra, 0
.LBB12_33:                              # %lpad31
.Ltmp326:                               # EH_LABEL
.LBB12_34:                              # %_ZNSt6vectorIcSaIcEED2Ev.exit84
	move	$s1, $a0
.LBB12_35:                              # %_ZNSt6vectorIcSaIcEED2Ev.exit84
	move	$a0, $s0
	pcaddu18i	$ra, %call36(_ZdlPv)
	jirl	$ra, $ra, 0
	move	$a0, $fp
	pcaddu18i	$ra, %call36(_ZdlPv)
	jirl	$ra, $ra, 0
	move	$a0, $s1
	pcaddu18i	$ra, %call36(_Unwind_Resume)
	jirl	$ra, $ra, 0
.Lfunc_end12:
	.size	_Z9BM_MemCmpILi1E15GreaterThanZero4LastEvRN9benchmark5StateE, .Lfunc_end12-_Z9BM_MemCmpILi1E15GreaterThanZero4LastEvRN9benchmark5StateE
	.cfi_endproc
	.section	.gcc_except_table._Z9BM_MemCmpILi1E15GreaterThanZero4LastEvRN9benchmark5StateE,"aG",@progbits,_Z9BM_MemCmpILi1E15GreaterThanZero4LastEvRN9benchmark5StateE,comdat
	.p2align	2, 0x0
GCC_except_table12:
.Lexception11:
	.byte	255                             # @LPStart Encoding = omit
	.byte	255                             # @TType Encoding = omit
	.byte	1                               # Call site Encoding = uleb128
	.uleb128 .Lcst_end11-.Lcst_begin11
.Lcst_begin11:
	.uleb128 .Lfunc_begin11-.Lfunc_begin11  # >> Call Site 1 <<
	.uleb128 .Ltmp319-.Lfunc_begin11        #   Call between .Lfunc_begin11 and .Ltmp319
	.byte	0                               #     has no landing pad
	.byte	0                               #   On action: cleanup
	.uleb128 .Ltmp319-.Lfunc_begin11        # >> Call Site 2 <<
	.uleb128 .Ltmp320-.Ltmp319              #   Call between .Ltmp319 and .Ltmp320
	.uleb128 .Ltmp321-.Lfunc_begin11        #     jumps to .Ltmp321
	.byte	0                               #   On action: cleanup
	.uleb128 .Ltmp320-.Lfunc_begin11        # >> Call Site 3 <<
	.uleb128 .Ltmp322-.Ltmp320              #   Call between .Ltmp320 and .Ltmp322
	.byte	0                               #     has no landing pad
	.byte	0                               #   On action: cleanup
	.uleb128 .Ltmp322-.Lfunc_begin11        # >> Call Site 4 <<
	.uleb128 .Ltmp325-.Ltmp322              #   Call between .Ltmp322 and .Ltmp325
	.uleb128 .Ltmp326-.Lfunc_begin11        #     jumps to .Ltmp326
	.byte	0                               #   On action: cleanup
	.uleb128 .Ltmp327-.Lfunc_begin11        # >> Call Site 5 <<
	.uleb128 .Ltmp328-.Ltmp327              #   Call between .Ltmp327 and .Ltmp328
	.uleb128 .Ltmp329-.Lfunc_begin11        #     jumps to .Ltmp329
	.byte	0                               #   On action: cleanup
	.uleb128 .Ltmp330-.Lfunc_begin11        # >> Call Site 6 <<
	.uleb128 .Ltmp331-.Ltmp330              #   Call between .Ltmp330 and .Ltmp331
	.uleb128 .Ltmp332-.Lfunc_begin11        #     jumps to .Ltmp332
	.byte	0                               #   On action: cleanup
	.uleb128 .Ltmp331-.Lfunc_begin11        # >> Call Site 7 <<
	.uleb128 .Ltmp333-.Ltmp331              #   Call between .Ltmp331 and .Ltmp333
	.byte	0                               #     has no landing pad
	.byte	0                               #   On action: cleanup
	.uleb128 .Ltmp333-.Lfunc_begin11        # >> Call Site 8 <<
	.uleb128 .Ltmp346-.Ltmp333              #   Call between .Ltmp333 and .Ltmp346
	.uleb128 .Ltmp347-.Lfunc_begin11        #     jumps to .Ltmp347
	.byte	0                               #   On action: cleanup
	.uleb128 .Ltmp346-.Lfunc_begin11        # >> Call Site 9 <<
	.uleb128 .Lfunc_end12-.Ltmp346          #   Call between .Ltmp346 and .Lfunc_end12
	.byte	0                               #     has no landing pad
	.byte	0                               #   On action: cleanup
.Lcst_end11:
	.p2align	2, 0x0
                                        # -- End function
	.section	.text._Z9BM_MemCmpILi2E6EqZero4NoneEvRN9benchmark5StateE,"axG",@progbits,_Z9BM_MemCmpILi2E6EqZero4NoneEvRN9benchmark5StateE,comdat
	.weak	_Z9BM_MemCmpILi2E6EqZero4NoneEvRN9benchmark5StateE # -- Begin function _Z9BM_MemCmpILi2E6EqZero4NoneEvRN9benchmark5StateE
	.p2align	5
	.type	_Z9BM_MemCmpILi2E6EqZero4NoneEvRN9benchmark5StateE,@function
_Z9BM_MemCmpILi2E6EqZero4NoneEvRN9benchmark5StateE: # @_Z9BM_MemCmpILi2E6EqZero4NoneEvRN9benchmark5StateE
.Lfunc_begin12:
	.cfi_startproc
	.cfi_personality 155, DW.ref.__gxx_personality_v0
	.cfi_lsda 27, .Lexception12
# %bb.0:                                # %entry
	addi.d	$sp, $sp, -128
	.cfi_def_cfa_offset 128
	st.d	$ra, $sp, 120                   # 8-byte Folded Spill
	st.d	$fp, $sp, 112                   # 8-byte Folded Spill
	st.d	$s0, $sp, 104                   # 8-byte Folded Spill
	st.d	$s1, $sp, 96                    # 8-byte Folded Spill
	st.d	$s2, $sp, 88                    # 8-byte Folded Spill
	st.d	$s3, $sp, 80                    # 8-byte Folded Spill
	st.d	$s4, $sp, 72                    # 8-byte Folded Spill
	fst.d	$fs0, $sp, 64                   # 8-byte Folded Spill
	.cfi_offset 1, -8
	.cfi_offset 22, -16
	.cfi_offset 23, -24
	.cfi_offset 24, -32
	.cfi_offset 25, -40
	.cfi_offset 26, -48
	.cfi_offset 27, -56
	.cfi_offset 56, -64
	move	$s1, $a0
	lu12i.w	$s0, 1
	move	$a0, $s0
	pcaddu18i	$ra, %call36(_Znwm)
	jirl	$ra, $ra, 0
	move	$fp, $a0
	move	$a1, $zero
	move	$a2, $s0
	pcaddu18i	$ra, %call36(memset)
	jirl	$ra, $ra, 0
.Ltmp348:                               # EH_LABEL
	move	$a0, $s0
	pcaddu18i	$ra, %call36(_Znwm)
	jirl	$ra, $ra, 0
.Ltmp349:                               # EH_LABEL
# %bb.1:                                # %invoke.cont3
	move	$s0, $a0
	lu12i.w	$s2, 1
	move	$a1, $zero
	move	$a2, $s2
	pcaddu18i	$ra, %call36(memset)
	jirl	$ra, $ra, 0
	st.d	$fp, $sp, 16
	st.d	$s0, $sp, 8
	ori	$a2, $zero, 2
	move	$a0, $fp
	move	$a1, $s0
	pcaddu18i	$ra, %call36(_Z10RealMemCmpPKcS0_m)
	jirl	$ra, $ra, 0
	ld.hu	$a1, $s0, 0
	ld.hu	$a2, $fp, 0
	sltui	$a0, $a0, 1
	xor	$a1, $a2, $a1
	sltui	$a1, $a1, 1
	xor	$a0, $a0, $a1
	bnez	$a0, .LBB13_17
# %bb.2:                                # %if.end
	addi.d	$a0, $sp, 16
	#APP
	#NO_APP
	addi.d	$a0, $sp, 8
	#APP
	#NO_APP
	ld.w	$s4, $s1, 28
	ld.d	$s3, $s1, 16
.Ltmp351:                               # EH_LABEL
	move	$a0, $s1
	pcaddu18i	$ra, %call36(_ZN9benchmark5State16StartKeepRunningEv)
	jirl	$ra, $ra, 0
.Ltmp352:                               # EH_LABEL
# %bb.3:                                # %for.cond36.preheader
	bnez	$s4, .LBB13_8
# %bb.4:                                # %for.cond36.preheader
	beqz	$s3, .LBB13_8
	.p2align	4, , 16
.LBB13_5:                               # %for.body40
                                        # =>This Loop Header: Depth=1
                                        #     Child Loop BB13_6 Depth 2
	move	$a0, $zero
	#MEMBARRIER
	.p2align	4, , 16
.LBB13_6:                               # %for.body47
                                        #   Parent Loop BB13_5 Depth=1
                                        # =>  This Inner Loop Header: Depth=2
	ld.d	$a1, $sp, 8
	ld.d	$a2, $sp, 16
	ldx.hu	$a1, $a1, $a0
	ldx.hu	$a2, $a2, $a0
	xor	$a1, $a2, $a1
	sltui	$a1, $a1, 1
	st.b	$a1, $sp, 24
	#APP
	#NO_APP
	addi.d	$a0, $a0, 2
	bne	$a0, $s2, .LBB13_6
# %bb.7:                                # %for.cond.cleanup46
                                        #   in Loop: Header=BB13_5 Depth=1
	addi.d	$s3, $s3, -1
	bnez	$s3, .LBB13_5
.LBB13_8:                               # %if.end.i
.Ltmp353:                               # EH_LABEL
	move	$a0, $s1
	pcaddu18i	$ra, %call36(_ZN9benchmark5State17FinishKeepRunningEv)
	jirl	$ra, $ra, 0
.Ltmp354:                               # EH_LABEL
# %bb.9:                                # %for.cond.cleanup39
	ld.bu	$a0, $s1, 24
	beqz	$a0, .LBB13_16
# %bb.10:                               # %if.end.i21
	ld.d	$a0, $s1, 16
	ld.d	$a1, $s1, 0
	ld.d	$a2, $s1, 8
	sub.d	$a0, $a0, $a1
	add.d	$a0, $a0, $a2
	slli.d	$a0, $a0, 12
	movgr2fr.d	$fa0, $a0
	ffint.d.l	$fs0, $fa0
.LBB13_11:                              # %_ZNK9benchmark5State10iterationsEv.exit
	addi.d	$s2, $sp, 40
	st.d	$s2, $sp, 24
	ori	$a0, $zero, 16
	st.d	$a0, $sp, 56
.Ltmp356:                               # EH_LABEL
	addi.d	$a0, $sp, 24
	addi.d	$a1, $sp, 56
	move	$a2, $zero
	pcaddu18i	$ra, %call36(_ZNSt7__cxx1112basic_stringIcSt11char_traitsIcESaIcEE9_M_createERmm)
	jirl	$ra, $ra, 0
.Ltmp357:                               # EH_LABEL
# %bb.12:                               # %call2.i5.i.noexc
	ld.d	$a1, $sp, 56
	pcalau12i	$a2, %pc_hi20(.L.str.341)
	vld	$vr0, $a2, %pc_lo12(.L.str.341)
	st.d	$a0, $sp, 24
	st.d	$a1, $sp, 40
	vst	$vr0, $a0, 0
	ld.d	$a0, $sp, 24
	st.d	$a1, $sp, 32
	stx.b	$zero, $a0, $a1
	addi.d	$a0, $s1, 64
.Ltmp359:                               # EH_LABEL
	addi.d	$a1, $sp, 24
	pcaddu18i	$ra, %call36(_ZNSt3mapINSt7__cxx1112basic_stringIcSt11char_traitsIcESaIcEEEN9benchmark7CounterESt4lessIS5_ESaISt4pairIKS5_S7_EEEixEOS5_)
	jirl	$ra, $ra, 0
.Ltmp360:                               # EH_LABEL
# %bb.13:                               # %_ZN9benchmark5State17SetBytesProcessedEl.exit
	fst.d	$fs0, $a0, 0
	ld.d	$a1, $sp, 24
	ori	$a2, $zero, 1
	lu32i.d	$a2, 1024
	st.d	$a2, $a0, 8
	beq	$a1, $s2, .LBB13_15
# %bb.14:                               # %if.then.i.i64
	move	$a0, $a1
	pcaddu18i	$ra, %call36(_ZdlPv)
	jirl	$ra, $ra, 0
.LBB13_15:                              # %_ZNSt6vectorIcSaIcEED2Ev.exit75
	move	$a0, $s0
	pcaddu18i	$ra, %call36(_ZdlPv)
	jirl	$ra, $ra, 0
	move	$a0, $fp
	pcaddu18i	$ra, %call36(_ZdlPv)
	jirl	$ra, $ra, 0
	fld.d	$fs0, $sp, 64                   # 8-byte Folded Reload
	ld.d	$s4, $sp, 72                    # 8-byte Folded Reload
	ld.d	$s3, $sp, 80                    # 8-byte Folded Reload
	ld.d	$s2, $sp, 88                    # 8-byte Folded Reload
	ld.d	$s1, $sp, 96                    # 8-byte Folded Reload
	ld.d	$s0, $sp, 104                   # 8-byte Folded Reload
	ld.d	$fp, $sp, 112                   # 8-byte Folded Reload
	ld.d	$ra, $sp, 120                   # 8-byte Folded Reload
	addi.d	$sp, $sp, 128
	ret
.LBB13_16:
	movgr2fr.d	$fs0, $zero
	b	.LBB13_11
.LBB13_17:                              # %if.then
.Ltmp362:                               # EH_LABEL
	pcalau12i	$a0, %got_pc_hi20(_ZSt4cerr)
	ld.d	$a0, $a0, %got_pc_lo12(_ZSt4cerr)
	pcalau12i	$a1, %pc_hi20(.L.str.337)
	addi.d	$a1, $a1, %pc_lo12(.L.str.337)
	ori	$a2, $zero, 25
	pcaddu18i	$ra, %call36(_ZSt16__ostream_insertIcSt11char_traitsIcEERSt13basic_ostreamIT_T0_ES6_PKS3_l)
	jirl	$ra, $ra, 0
.Ltmp363:                               # EH_LABEL
# %bb.18:                               # %invoke.cont16
.Ltmp364:                               # EH_LABEL
	pcalau12i	$a0, %got_pc_hi20(_ZSt4cerr)
	ld.d	$a0, $a0, %got_pc_lo12(_ZSt4cerr)
	pcalau12i	$a1, %pc_hi20(_ZN6EqZero8kDisplayE)
	addi.d	$a1, $a1, %pc_lo12(_ZN6EqZero8kDisplayE)
	ori	$a2, $zero, 6
	pcaddu18i	$ra, %call36(_ZSt16__ostream_insertIcSt11char_traitsIcEERSt13basic_ostreamIT_T0_ES6_PKS3_l)
	jirl	$ra, $ra, 0
.Ltmp365:                               # EH_LABEL
# %bb.19:                               # %invoke.cont18
.Ltmp366:                               # EH_LABEL
	pcalau12i	$a0, %got_pc_hi20(_ZSt4cerr)
	ld.d	$a0, $a0, %got_pc_lo12(_ZSt4cerr)
	pcalau12i	$a1, %pc_hi20(.L.str.338)
	addi.d	$a1, $a1, %pc_lo12(.L.str.338)
	ori	$a2, $zero, 5
	pcaddu18i	$ra, %call36(_ZSt16__ostream_insertIcSt11char_traitsIcEERSt13basic_ostreamIT_T0_ES6_PKS3_l)
	jirl	$ra, $ra, 0
.Ltmp367:                               # EH_LABEL
# %bb.20:                               # %invoke.cont20
.Ltmp368:                               # EH_LABEL
	pcalau12i	$a0, %got_pc_hi20(_ZSt4cerr)
	ld.d	$a0, $a0, %got_pc_lo12(_ZSt4cerr)
	pcalau12i	$a1, %pc_hi20(_ZN4None8kDisplayE)
	addi.d	$a1, $a1, %pc_lo12(_ZN4None8kDisplayE)
	ori	$a2, $zero, 4
	pcaddu18i	$ra, %call36(_ZSt16__ostream_insertIcSt11char_traitsIcEERSt13basic_ostreamIT_T0_ES6_PKS3_l)
	jirl	$ra, $ra, 0
.Ltmp369:                               # EH_LABEL
# %bb.21:                               # %invoke.cont22
.Ltmp370:                               # EH_LABEL
	pcalau12i	$a0, %got_pc_hi20(_ZSt4cerr)
	ld.d	$a0, $a0, %got_pc_lo12(_ZSt4cerr)
	pcalau12i	$a1, %pc_hi20(.L.str.339)
	addi.d	$a1, $a1, %pc_lo12(.L.str.339)
	ori	$a2, $zero, 7
	pcaddu18i	$ra, %call36(_ZSt16__ostream_insertIcSt11char_traitsIcEERSt13basic_ostreamIT_T0_ES6_PKS3_l)
	jirl	$ra, $ra, 0
.Ltmp371:                               # EH_LABEL
# %bb.22:                               # %invoke.cont24
.Ltmp372:                               # EH_LABEL
	pcalau12i	$a0, %got_pc_hi20(_ZSt4cerr)
	ld.d	$a0, $a0, %got_pc_lo12(_ZSt4cerr)
	ori	$a1, $zero, 2
	pcaddu18i	$ra, %call36(_ZNSolsEi)
	jirl	$ra, $ra, 0
.Ltmp373:                               # EH_LABEL
# %bb.23:                               # %invoke.cont26
.Ltmp374:                               # EH_LABEL
	pcaddu18i	$ra, %call36(_ZSt4endlIcSt11char_traitsIcEERSt13basic_ostreamIT_T0_ES6_)
	jirl	$ra, $ra, 0
.Ltmp375:                               # EH_LABEL
# %bb.24:                               # %invoke.cont28
	ori	$a0, $zero, 1
	pcaddu18i	$ra, %call36(exit)
	jirl	$ra, $ra, 0
.LBB13_25:                              # %lpad15
.Ltmp376:                               # EH_LABEL
	b	.LBB13_31
.LBB13_26:                              # %lpad4.i
.Ltmp361:                               # EH_LABEL
	ld.d	$a1, $sp, 24
	move	$s1, $a0
	beq	$a1, $s2, .LBB13_32
# %bb.27:                               # %if.then.i.i61
	move	$a0, $a1
	pcaddu18i	$ra, %call36(_ZdlPv)
	jirl	$ra, $ra, 0
	b	.LBB13_32
.LBB13_28:                              # %lpad.i
.Ltmp358:                               # EH_LABEL
	b	.LBB13_31
.LBB13_29:                              # %lpad2
.Ltmp350:                               # EH_LABEL
	move	$s1, $a0
	move	$a0, $fp
	pcaddu18i	$ra, %call36(_ZdlPv)
	jirl	$ra, $ra, 0
	move	$a0, $s1
	pcaddu18i	$ra, %call36(_Unwind_Resume)
	jirl	$ra, $ra, 0
.LBB13_30:                              # %lpad33
.Ltmp355:                               # EH_LABEL
.LBB13_31:                              # %_ZNSt6vectorIcSaIcEED2Ev.exit79
	move	$s1, $a0
.LBB13_32:                              # %_ZNSt6vectorIcSaIcEED2Ev.exit79
	move	$a0, $s0
	pcaddu18i	$ra, %call36(_ZdlPv)
	jirl	$ra, $ra, 0
	move	$a0, $fp
	pcaddu18i	$ra, %call36(_ZdlPv)
	jirl	$ra, $ra, 0
	move	$a0, $s1
	pcaddu18i	$ra, %call36(_Unwind_Resume)
	jirl	$ra, $ra, 0
.Lfunc_end13:
	.size	_Z9BM_MemCmpILi2E6EqZero4NoneEvRN9benchmark5StateE, .Lfunc_end13-_Z9BM_MemCmpILi2E6EqZero4NoneEvRN9benchmark5StateE
	.cfi_endproc
	.section	.gcc_except_table._Z9BM_MemCmpILi2E6EqZero4NoneEvRN9benchmark5StateE,"aG",@progbits,_Z9BM_MemCmpILi2E6EqZero4NoneEvRN9benchmark5StateE,comdat
	.p2align	2, 0x0
GCC_except_table13:
.Lexception12:
	.byte	255                             # @LPStart Encoding = omit
	.byte	255                             # @TType Encoding = omit
	.byte	1                               # Call site Encoding = uleb128
	.uleb128 .Lcst_end12-.Lcst_begin12
.Lcst_begin12:
	.uleb128 .Lfunc_begin12-.Lfunc_begin12  # >> Call Site 1 <<
	.uleb128 .Ltmp348-.Lfunc_begin12        #   Call between .Lfunc_begin12 and .Ltmp348
	.byte	0                               #     has no landing pad
	.byte	0                               #   On action: cleanup
	.uleb128 .Ltmp348-.Lfunc_begin12        # >> Call Site 2 <<
	.uleb128 .Ltmp349-.Ltmp348              #   Call between .Ltmp348 and .Ltmp349
	.uleb128 .Ltmp350-.Lfunc_begin12        #     jumps to .Ltmp350
	.byte	0                               #   On action: cleanup
	.uleb128 .Ltmp349-.Lfunc_begin12        # >> Call Site 3 <<
	.uleb128 .Ltmp351-.Ltmp349              #   Call between .Ltmp349 and .Ltmp351
	.byte	0                               #     has no landing pad
	.byte	0                               #   On action: cleanup
	.uleb128 .Ltmp351-.Lfunc_begin12        # >> Call Site 4 <<
	.uleb128 .Ltmp354-.Ltmp351              #   Call between .Ltmp351 and .Ltmp354
	.uleb128 .Ltmp355-.Lfunc_begin12        #     jumps to .Ltmp355
	.byte	0                               #   On action: cleanup
	.uleb128 .Ltmp356-.Lfunc_begin12        # >> Call Site 5 <<
	.uleb128 .Ltmp357-.Ltmp356              #   Call between .Ltmp356 and .Ltmp357
	.uleb128 .Ltmp358-.Lfunc_begin12        #     jumps to .Ltmp358
	.byte	0                               #   On action: cleanup
	.uleb128 .Ltmp359-.Lfunc_begin12        # >> Call Site 6 <<
	.uleb128 .Ltmp360-.Ltmp359              #   Call between .Ltmp359 and .Ltmp360
	.uleb128 .Ltmp361-.Lfunc_begin12        #     jumps to .Ltmp361
	.byte	0                               #   On action: cleanup
	.uleb128 .Ltmp360-.Lfunc_begin12        # >> Call Site 7 <<
	.uleb128 .Ltmp362-.Ltmp360              #   Call between .Ltmp360 and .Ltmp362
	.byte	0                               #     has no landing pad
	.byte	0                               #   On action: cleanup
	.uleb128 .Ltmp362-.Lfunc_begin12        # >> Call Site 8 <<
	.uleb128 .Ltmp375-.Ltmp362              #   Call between .Ltmp362 and .Ltmp375
	.uleb128 .Ltmp376-.Lfunc_begin12        #     jumps to .Ltmp376
	.byte	0                               #   On action: cleanup
	.uleb128 .Ltmp375-.Lfunc_begin12        # >> Call Site 9 <<
	.uleb128 .Lfunc_end13-.Ltmp375          #   Call between .Ltmp375 and .Lfunc_end13
	.byte	0                               #     has no landing pad
	.byte	0                               #   On action: cleanup
.Lcst_end12:
	.p2align	2, 0x0
                                        # -- End function
	.section	.rodata.cst16,"aM",@progbits,16
	.p2align	4, 0x0                          # -- Begin function _Z9BM_MemCmpILi2E6EqZero5FirstEvRN9benchmark5StateE
.LCPI14_0:
	.dword	14                              # 0xe
	.dword	15                              # 0xf
.LCPI14_1:
	.dword	12                              # 0xc
	.dword	13                              # 0xd
.LCPI14_2:
	.dword	10                              # 0xa
	.dword	11                              # 0xb
.LCPI14_3:
	.dword	8                               # 0x8
	.dword	9                               # 0x9
.LCPI14_4:
	.dword	6                               # 0x6
	.dword	7                               # 0x7
.LCPI14_5:
	.dword	4                               # 0x4
	.dword	5                               # 0x5
.LCPI14_6:
	.dword	2                               # 0x2
	.dword	3                               # 0x3
.LCPI14_7:
	.dword	0                               # 0x0
	.dword	1                               # 0x1
	.section	.text._Z9BM_MemCmpILi2E6EqZero5FirstEvRN9benchmark5StateE,"axG",@progbits,_Z9BM_MemCmpILi2E6EqZero5FirstEvRN9benchmark5StateE,comdat
	.weak	_Z9BM_MemCmpILi2E6EqZero5FirstEvRN9benchmark5StateE
	.p2align	5
	.type	_Z9BM_MemCmpILi2E6EqZero5FirstEvRN9benchmark5StateE,@function
_Z9BM_MemCmpILi2E6EqZero5FirstEvRN9benchmark5StateE: # @_Z9BM_MemCmpILi2E6EqZero5FirstEvRN9benchmark5StateE
.Lfunc_begin13:
	.cfi_startproc
	.cfi_personality 155, DW.ref.__gxx_personality_v0
	.cfi_lsda 27, .Lexception13
# %bb.0:                                # %entry
	addi.d	$sp, $sp, -128
	.cfi_def_cfa_offset 128
	st.d	$ra, $sp, 120                   # 8-byte Folded Spill
	st.d	$fp, $sp, 112                   # 8-byte Folded Spill
	st.d	$s0, $sp, 104                   # 8-byte Folded Spill
	st.d	$s1, $sp, 96                    # 8-byte Folded Spill
	st.d	$s2, $sp, 88                    # 8-byte Folded Spill
	st.d	$s3, $sp, 80                    # 8-byte Folded Spill
	st.d	$s4, $sp, 72                    # 8-byte Folded Spill
	fst.d	$fs0, $sp, 64                   # 8-byte Folded Spill
	.cfi_offset 1, -8
	.cfi_offset 22, -16
	.cfi_offset 23, -24
	.cfi_offset 24, -32
	.cfi_offset 25, -40
	.cfi_offset 26, -48
	.cfi_offset 27, -56
	.cfi_offset 56, -64
	move	$s1, $a0
	lu12i.w	$s0, 1
	move	$a0, $s0
	pcaddu18i	$ra, %call36(_Znwm)
	jirl	$ra, $ra, 0
	move	$fp, $a0
	move	$a1, $zero
	move	$a2, $s0
	pcaddu18i	$ra, %call36(memset)
	jirl	$ra, $ra, 0
.Ltmp377:                               # EH_LABEL
	move	$a0, $s0
	pcaddu18i	$ra, %call36(_Znwm)
	jirl	$ra, $ra, 0
.Ltmp378:                               # EH_LABEL
# %bb.1:                                # %invoke.cont3
	move	$s0, $a0
	lu12i.w	$s2, 1
	move	$a1, $zero
	move	$a2, $s2
	pcaddu18i	$ra, %call36(memset)
	jirl	$ra, $ra, 0
	st.d	$fp, $sp, 16
	pcalau12i	$a0, %pc_hi20(.LCPI14_0)
	vld	$vr0, $a0, %pc_lo12(.LCPI14_0)
	pcalau12i	$a0, %pc_hi20(.LCPI14_1)
	vld	$vr1, $a0, %pc_lo12(.LCPI14_1)
	pcalau12i	$a0, %pc_hi20(.LCPI14_2)
	vld	$vr2, $a0, %pc_lo12(.LCPI14_2)
	pcalau12i	$a0, %pc_hi20(.LCPI14_3)
	vld	$vr3, $a0, %pc_lo12(.LCPI14_3)
	pcalau12i	$a0, %pc_hi20(.LCPI14_4)
	vld	$vr4, $a0, %pc_lo12(.LCPI14_4)
	pcalau12i	$a0, %pc_hi20(.LCPI14_5)
	vld	$vr5, $a0, %pc_lo12(.LCPI14_5)
	pcalau12i	$a0, %pc_hi20(.LCPI14_6)
	vld	$vr6, $a0, %pc_lo12(.LCPI14_6)
	pcalau12i	$a0, %pc_hi20(.LCPI14_7)
	vld	$vr7, $a0, %pc_lo12(.LCPI14_7)
	st.d	$s0, $sp, 8
	ori	$a0, $zero, 2048
	ori	$a1, $zero, 255
	.p2align	4, , 16
.LBB14_2:                               # %vector.body
                                        # =>This Inner Loop Header: Depth=1
	vslli.d	$vr8, $vr0, 1
	vslli.d	$vr9, $vr1, 1
	vslli.d	$vr10, $vr2, 1
	vslli.d	$vr11, $vr3, 1
	vslli.d	$vr12, $vr4, 1
	vslli.d	$vr13, $vr5, 1
	vslli.d	$vr14, $vr6, 1
	vslli.d	$vr15, $vr7, 1
	vpickve2gr.d	$a2, $vr15, 0
	vpickve2gr.d	$a3, $vr15, 1
	vpickve2gr.d	$a4, $vr14, 0
	vpickve2gr.d	$a5, $vr14, 1
	vpickve2gr.d	$a6, $vr13, 0
	vpickve2gr.d	$a7, $vr13, 1
	vpickve2gr.d	$t0, $vr12, 0
	vpickve2gr.d	$t1, $vr12, 1
	vpickve2gr.d	$t2, $vr11, 0
	vpickve2gr.d	$t3, $vr11, 1
	vpickve2gr.d	$t4, $vr10, 0
	vpickve2gr.d	$t5, $vr10, 1
	vpickve2gr.d	$t6, $vr9, 0
	vpickve2gr.d	$t7, $vr9, 1
	vpickve2gr.d	$t8, $vr8, 0
	vpickve2gr.d	$s3, $vr8, 1
	stx.b	$a1, $fp, $a2
	stx.b	$a1, $fp, $a3
	stx.b	$a1, $fp, $a4
	stx.b	$a1, $fp, $a5
	stx.b	$a1, $fp, $a6
	stx.b	$a1, $fp, $a7
	stx.b	$a1, $fp, $t0
	stx.b	$a1, $fp, $t1
	stx.b	$a1, $fp, $t2
	stx.b	$a1, $fp, $t3
	stx.b	$a1, $fp, $t4
	stx.b	$a1, $fp, $t5
	stx.b	$a1, $fp, $t6
	stx.b	$a1, $fp, $t7
	stx.b	$a1, $fp, $t8
	stx.b	$a1, $fp, $s3
	vaddi.du	$vr7, $vr7, 16
	vaddi.du	$vr6, $vr6, 16
	vaddi.du	$vr5, $vr5, 16
	vaddi.du	$vr4, $vr4, 16
	vaddi.du	$vr3, $vr3, 16
	vaddi.du	$vr2, $vr2, 16
	vaddi.du	$vr1, $vr1, 16
	addi.d	$a0, $a0, -16
	vaddi.du	$vr0, $vr0, 16
	bnez	$a0, .LBB14_2
# %bb.3:                                # %for.cond.cleanup
	ori	$a2, $zero, 2
	move	$a0, $fp
	move	$a1, $s0
	pcaddu18i	$ra, %call36(_Z10RealMemCmpPKcS0_m)
	jirl	$ra, $ra, 0
	ld.hu	$a1, $s0, 0
	ld.hu	$a2, $fp, 0
	sltui	$a0, $a0, 1
	xor	$a1, $a2, $a1
	sltui	$a1, $a1, 1
	xor	$a0, $a0, $a1
	bnez	$a0, .LBB14_19
# %bb.4:                                # %if.end
	addi.d	$a0, $sp, 16
	#APP
	#NO_APP
	addi.d	$a0, $sp, 8
	#APP
	#NO_APP
	ld.w	$s4, $s1, 28
	ld.d	$s3, $s1, 16
.Ltmp380:                               # EH_LABEL
	move	$a0, $s1
	pcaddu18i	$ra, %call36(_ZN9benchmark5State16StartKeepRunningEv)
	jirl	$ra, $ra, 0
.Ltmp381:                               # EH_LABEL
# %bb.5:                                # %for.cond36.preheader
	bnez	$s4, .LBB14_10
# %bb.6:                                # %for.cond36.preheader
	beqz	$s3, .LBB14_10
	.p2align	4, , 16
.LBB14_7:                               # %for.body40
                                        # =>This Loop Header: Depth=1
                                        #     Child Loop BB14_8 Depth 2
	move	$a0, $zero
	#MEMBARRIER
	.p2align	4, , 16
.LBB14_8:                               # %for.body47
                                        #   Parent Loop BB14_7 Depth=1
                                        # =>  This Inner Loop Header: Depth=2
	ld.d	$a1, $sp, 8
	ld.d	$a2, $sp, 16
	ldx.hu	$a1, $a1, $a0
	ldx.hu	$a2, $a2, $a0
	xor	$a1, $a2, $a1
	sltui	$a1, $a1, 1
	st.b	$a1, $sp, 24
	#APP
	#NO_APP
	addi.d	$a0, $a0, 2
	bne	$a0, $s2, .LBB14_8
# %bb.9:                                # %for.cond.cleanup46
                                        #   in Loop: Header=BB14_7 Depth=1
	addi.d	$s3, $s3, -1
	bnez	$s3, .LBB14_7
.LBB14_10:                              # %if.end.i
.Ltmp382:                               # EH_LABEL
	move	$a0, $s1
	pcaddu18i	$ra, %call36(_ZN9benchmark5State17FinishKeepRunningEv)
	jirl	$ra, $ra, 0
.Ltmp383:                               # EH_LABEL
# %bb.11:                               # %for.cond.cleanup39
	ld.bu	$a0, $s1, 24
	beqz	$a0, .LBB14_18
# %bb.12:                               # %if.end.i21
	ld.d	$a0, $s1, 16
	ld.d	$a1, $s1, 0
	ld.d	$a2, $s1, 8
	sub.d	$a0, $a0, $a1
	add.d	$a0, $a0, $a2
	slli.d	$a0, $a0, 12
	movgr2fr.d	$fa0, $a0
	ffint.d.l	$fs0, $fa0
.LBB14_13:                              # %_ZNK9benchmark5State10iterationsEv.exit
	addi.d	$s2, $sp, 40
	st.d	$s2, $sp, 24
	ori	$a0, $zero, 16
	st.d	$a0, $sp, 56
.Ltmp385:                               # EH_LABEL
	addi.d	$a0, $sp, 24
	addi.d	$a1, $sp, 56
	move	$a2, $zero
	pcaddu18i	$ra, %call36(_ZNSt7__cxx1112basic_stringIcSt11char_traitsIcESaIcEE9_M_createERmm)
	jirl	$ra, $ra, 0
.Ltmp386:                               # EH_LABEL
# %bb.14:                               # %call2.i5.i.noexc
	ld.d	$a1, $sp, 56
	pcalau12i	$a2, %pc_hi20(.L.str.341)
	vld	$vr0, $a2, %pc_lo12(.L.str.341)
	st.d	$a0, $sp, 24
	st.d	$a1, $sp, 40
	vst	$vr0, $a0, 0
	ld.d	$a0, $sp, 24
	st.d	$a1, $sp, 32
	stx.b	$zero, $a0, $a1
	addi.d	$a0, $s1, 64
.Ltmp388:                               # EH_LABEL
	addi.d	$a1, $sp, 24
	pcaddu18i	$ra, %call36(_ZNSt3mapINSt7__cxx1112basic_stringIcSt11char_traitsIcESaIcEEEN9benchmark7CounterESt4lessIS5_ESaISt4pairIKS5_S7_EEEixEOS5_)
	jirl	$ra, $ra, 0
.Ltmp389:                               # EH_LABEL
# %bb.15:                               # %_ZN9benchmark5State17SetBytesProcessedEl.exit
	fst.d	$fs0, $a0, 0
	ld.d	$a1, $sp, 24
	ori	$a2, $zero, 1
	lu32i.d	$a2, 1024
	st.d	$a2, $a0, 8
	beq	$a1, $s2, .LBB14_17
# %bb.16:                               # %if.then.i.i64
	move	$a0, $a1
	pcaddu18i	$ra, %call36(_ZdlPv)
	jirl	$ra, $ra, 0
.LBB14_17:                              # %_ZNSt6vectorIcSaIcEED2Ev.exit75
	move	$a0, $s0
	pcaddu18i	$ra, %call36(_ZdlPv)
	jirl	$ra, $ra, 0
	move	$a0, $fp
	pcaddu18i	$ra, %call36(_ZdlPv)
	jirl	$ra, $ra, 0
	fld.d	$fs0, $sp, 64                   # 8-byte Folded Reload
	ld.d	$s4, $sp, 72                    # 8-byte Folded Reload
	ld.d	$s3, $sp, 80                    # 8-byte Folded Reload
	ld.d	$s2, $sp, 88                    # 8-byte Folded Reload
	ld.d	$s1, $sp, 96                    # 8-byte Folded Reload
	ld.d	$s0, $sp, 104                   # 8-byte Folded Reload
	ld.d	$fp, $sp, 112                   # 8-byte Folded Reload
	ld.d	$ra, $sp, 120                   # 8-byte Folded Reload
	addi.d	$sp, $sp, 128
	ret
.LBB14_18:
	movgr2fr.d	$fs0, $zero
	b	.LBB14_13
.LBB14_19:                              # %if.then
.Ltmp391:                               # EH_LABEL
	pcalau12i	$a0, %got_pc_hi20(_ZSt4cerr)
	ld.d	$a0, $a0, %got_pc_lo12(_ZSt4cerr)
	pcalau12i	$a1, %pc_hi20(.L.str.337)
	addi.d	$a1, $a1, %pc_lo12(.L.str.337)
	ori	$a2, $zero, 25
	pcaddu18i	$ra, %call36(_ZSt16__ostream_insertIcSt11char_traitsIcEERSt13basic_ostreamIT_T0_ES6_PKS3_l)
	jirl	$ra, $ra, 0
.Ltmp392:                               # EH_LABEL
# %bb.20:                               # %invoke.cont16
.Ltmp393:                               # EH_LABEL
	pcalau12i	$a0, %got_pc_hi20(_ZSt4cerr)
	ld.d	$a0, $a0, %got_pc_lo12(_ZSt4cerr)
	pcalau12i	$a1, %pc_hi20(_ZN6EqZero8kDisplayE)
	addi.d	$a1, $a1, %pc_lo12(_ZN6EqZero8kDisplayE)
	ori	$a2, $zero, 6
	pcaddu18i	$ra, %call36(_ZSt16__ostream_insertIcSt11char_traitsIcEERSt13basic_ostreamIT_T0_ES6_PKS3_l)
	jirl	$ra, $ra, 0
.Ltmp394:                               # EH_LABEL
# %bb.21:                               # %invoke.cont18
.Ltmp395:                               # EH_LABEL
	pcalau12i	$a0, %got_pc_hi20(_ZSt4cerr)
	ld.d	$a0, $a0, %got_pc_lo12(_ZSt4cerr)
	pcalau12i	$a1, %pc_hi20(.L.str.338)
	addi.d	$a1, $a1, %pc_lo12(.L.str.338)
	ori	$a2, $zero, 5
	pcaddu18i	$ra, %call36(_ZSt16__ostream_insertIcSt11char_traitsIcEERSt13basic_ostreamIT_T0_ES6_PKS3_l)
	jirl	$ra, $ra, 0
.Ltmp396:                               # EH_LABEL
# %bb.22:                               # %invoke.cont20
.Ltmp397:                               # EH_LABEL
	pcalau12i	$a0, %got_pc_hi20(_ZSt4cerr)
	ld.d	$a0, $a0, %got_pc_lo12(_ZSt4cerr)
	pcalau12i	$a1, %pc_hi20(_ZN5First8kDisplayE)
	addi.d	$a1, $a1, %pc_lo12(_ZN5First8kDisplayE)
	ori	$a2, $zero, 5
	pcaddu18i	$ra, %call36(_ZSt16__ostream_insertIcSt11char_traitsIcEERSt13basic_ostreamIT_T0_ES6_PKS3_l)
	jirl	$ra, $ra, 0
.Ltmp398:                               # EH_LABEL
# %bb.23:                               # %invoke.cont22
.Ltmp399:                               # EH_LABEL
	pcalau12i	$a0, %got_pc_hi20(_ZSt4cerr)
	ld.d	$a0, $a0, %got_pc_lo12(_ZSt4cerr)
	pcalau12i	$a1, %pc_hi20(.L.str.339)
	addi.d	$a1, $a1, %pc_lo12(.L.str.339)
	ori	$a2, $zero, 7
	pcaddu18i	$ra, %call36(_ZSt16__ostream_insertIcSt11char_traitsIcEERSt13basic_ostreamIT_T0_ES6_PKS3_l)
	jirl	$ra, $ra, 0
.Ltmp400:                               # EH_LABEL
# %bb.24:                               # %invoke.cont24
.Ltmp401:                               # EH_LABEL
	pcalau12i	$a0, %got_pc_hi20(_ZSt4cerr)
	ld.d	$a0, $a0, %got_pc_lo12(_ZSt4cerr)
	ori	$a1, $zero, 2
	pcaddu18i	$ra, %call36(_ZNSolsEi)
	jirl	$ra, $ra, 0
.Ltmp402:                               # EH_LABEL
# %bb.25:                               # %invoke.cont26
.Ltmp403:                               # EH_LABEL
	pcaddu18i	$ra, %call36(_ZSt4endlIcSt11char_traitsIcEERSt13basic_ostreamIT_T0_ES6_)
	jirl	$ra, $ra, 0
.Ltmp404:                               # EH_LABEL
# %bb.26:                               # %invoke.cont28
	ori	$a0, $zero, 1
	pcaddu18i	$ra, %call36(exit)
	jirl	$ra, $ra, 0
.LBB14_27:                              # %lpad15
.Ltmp405:                               # EH_LABEL
	b	.LBB14_33
.LBB14_28:                              # %lpad4.i
.Ltmp390:                               # EH_LABEL
	ld.d	$a1, $sp, 24
	move	$s1, $a0
	beq	$a1, $s2, .LBB14_34
# %bb.29:                               # %if.then.i.i61
	move	$a0, $a1
	pcaddu18i	$ra, %call36(_ZdlPv)
	jirl	$ra, $ra, 0
	b	.LBB14_34
.LBB14_30:                              # %lpad.i
.Ltmp387:                               # EH_LABEL
	b	.LBB14_33
.LBB14_31:                              # %lpad2
.Ltmp379:                               # EH_LABEL
	move	$s1, $a0
	move	$a0, $fp
	pcaddu18i	$ra, %call36(_ZdlPv)
	jirl	$ra, $ra, 0
	move	$a0, $s1
	pcaddu18i	$ra, %call36(_Unwind_Resume)
	jirl	$ra, $ra, 0
.LBB14_32:                              # %lpad33
.Ltmp384:                               # EH_LABEL
.LBB14_33:                              # %_ZNSt6vectorIcSaIcEED2Ev.exit79
	move	$s1, $a0
.LBB14_34:                              # %_ZNSt6vectorIcSaIcEED2Ev.exit79
	move	$a0, $s0
	pcaddu18i	$ra, %call36(_ZdlPv)
	jirl	$ra, $ra, 0
	move	$a0, $fp
	pcaddu18i	$ra, %call36(_ZdlPv)
	jirl	$ra, $ra, 0
	move	$a0, $s1
	pcaddu18i	$ra, %call36(_Unwind_Resume)
	jirl	$ra, $ra, 0
.Lfunc_end14:
	.size	_Z9BM_MemCmpILi2E6EqZero5FirstEvRN9benchmark5StateE, .Lfunc_end14-_Z9BM_MemCmpILi2E6EqZero5FirstEvRN9benchmark5StateE
	.cfi_endproc
	.section	.gcc_except_table._Z9BM_MemCmpILi2E6EqZero5FirstEvRN9benchmark5StateE,"aG",@progbits,_Z9BM_MemCmpILi2E6EqZero5FirstEvRN9benchmark5StateE,comdat
	.p2align	2, 0x0
GCC_except_table14:
.Lexception13:
	.byte	255                             # @LPStart Encoding = omit
	.byte	255                             # @TType Encoding = omit
	.byte	1                               # Call site Encoding = uleb128
	.uleb128 .Lcst_end13-.Lcst_begin13
.Lcst_begin13:
	.uleb128 .Lfunc_begin13-.Lfunc_begin13  # >> Call Site 1 <<
	.uleb128 .Ltmp377-.Lfunc_begin13        #   Call between .Lfunc_begin13 and .Ltmp377
	.byte	0                               #     has no landing pad
	.byte	0                               #   On action: cleanup
	.uleb128 .Ltmp377-.Lfunc_begin13        # >> Call Site 2 <<
	.uleb128 .Ltmp378-.Ltmp377              #   Call between .Ltmp377 and .Ltmp378
	.uleb128 .Ltmp379-.Lfunc_begin13        #     jumps to .Ltmp379
	.byte	0                               #   On action: cleanup
	.uleb128 .Ltmp378-.Lfunc_begin13        # >> Call Site 3 <<
	.uleb128 .Ltmp380-.Ltmp378              #   Call between .Ltmp378 and .Ltmp380
	.byte	0                               #     has no landing pad
	.byte	0                               #   On action: cleanup
	.uleb128 .Ltmp380-.Lfunc_begin13        # >> Call Site 4 <<
	.uleb128 .Ltmp383-.Ltmp380              #   Call between .Ltmp380 and .Ltmp383
	.uleb128 .Ltmp384-.Lfunc_begin13        #     jumps to .Ltmp384
	.byte	0                               #   On action: cleanup
	.uleb128 .Ltmp385-.Lfunc_begin13        # >> Call Site 5 <<
	.uleb128 .Ltmp386-.Ltmp385              #   Call between .Ltmp385 and .Ltmp386
	.uleb128 .Ltmp387-.Lfunc_begin13        #     jumps to .Ltmp387
	.byte	0                               #   On action: cleanup
	.uleb128 .Ltmp388-.Lfunc_begin13        # >> Call Site 6 <<
	.uleb128 .Ltmp389-.Ltmp388              #   Call between .Ltmp388 and .Ltmp389
	.uleb128 .Ltmp390-.Lfunc_begin13        #     jumps to .Ltmp390
	.byte	0                               #   On action: cleanup
	.uleb128 .Ltmp389-.Lfunc_begin13        # >> Call Site 7 <<
	.uleb128 .Ltmp391-.Ltmp389              #   Call between .Ltmp389 and .Ltmp391
	.byte	0                               #     has no landing pad
	.byte	0                               #   On action: cleanup
	.uleb128 .Ltmp391-.Lfunc_begin13        # >> Call Site 8 <<
	.uleb128 .Ltmp404-.Ltmp391              #   Call between .Ltmp391 and .Ltmp404
	.uleb128 .Ltmp405-.Lfunc_begin13        #     jumps to .Ltmp405
	.byte	0                               #   On action: cleanup
	.uleb128 .Ltmp404-.Lfunc_begin13        # >> Call Site 9 <<
	.uleb128 .Lfunc_end14-.Ltmp404          #   Call between .Ltmp404 and .Lfunc_end14
	.byte	0                               #     has no landing pad
	.byte	0                               #   On action: cleanup
.Lcst_end13:
	.p2align	2, 0x0
                                        # -- End function
	.section	.rodata.cst16,"aM",@progbits,16
	.p2align	4, 0x0                          # -- Begin function _Z9BM_MemCmpILi2E6EqZero3MidEvRN9benchmark5StateE
.LCPI15_0:
	.dword	14                              # 0xe
	.dword	15                              # 0xf
.LCPI15_1:
	.dword	12                              # 0xc
	.dword	13                              # 0xd
.LCPI15_2:
	.dword	10                              # 0xa
	.dword	11                              # 0xb
.LCPI15_3:
	.dword	8                               # 0x8
	.dword	9                               # 0x9
.LCPI15_4:
	.dword	6                               # 0x6
	.dword	7                               # 0x7
.LCPI15_5:
	.dword	4                               # 0x4
	.dword	5                               # 0x5
.LCPI15_6:
	.dword	2                               # 0x2
	.dword	3                               # 0x3
.LCPI15_7:
	.dword	0                               # 0x0
	.dword	1                               # 0x1
	.section	.text._Z9BM_MemCmpILi2E6EqZero3MidEvRN9benchmark5StateE,"axG",@progbits,_Z9BM_MemCmpILi2E6EqZero3MidEvRN9benchmark5StateE,comdat
	.weak	_Z9BM_MemCmpILi2E6EqZero3MidEvRN9benchmark5StateE
	.p2align	5
	.type	_Z9BM_MemCmpILi2E6EqZero3MidEvRN9benchmark5StateE,@function
_Z9BM_MemCmpILi2E6EqZero3MidEvRN9benchmark5StateE: # @_Z9BM_MemCmpILi2E6EqZero3MidEvRN9benchmark5StateE
.Lfunc_begin14:
	.cfi_startproc
	.cfi_personality 155, DW.ref.__gxx_personality_v0
	.cfi_lsda 27, .Lexception14
# %bb.0:                                # %entry
	addi.d	$sp, $sp, -128
	.cfi_def_cfa_offset 128
	st.d	$ra, $sp, 120                   # 8-byte Folded Spill
	st.d	$fp, $sp, 112                   # 8-byte Folded Spill
	st.d	$s0, $sp, 104                   # 8-byte Folded Spill
	st.d	$s1, $sp, 96                    # 8-byte Folded Spill
	st.d	$s2, $sp, 88                    # 8-byte Folded Spill
	st.d	$s3, $sp, 80                    # 8-byte Folded Spill
	st.d	$s4, $sp, 72                    # 8-byte Folded Spill
	fst.d	$fs0, $sp, 64                   # 8-byte Folded Spill
	.cfi_offset 1, -8
	.cfi_offset 22, -16
	.cfi_offset 23, -24
	.cfi_offset 24, -32
	.cfi_offset 25, -40
	.cfi_offset 26, -48
	.cfi_offset 27, -56
	.cfi_offset 56, -64
	move	$s1, $a0
	lu12i.w	$s0, 1
	move	$a0, $s0
	pcaddu18i	$ra, %call36(_Znwm)
	jirl	$ra, $ra, 0
	move	$fp, $a0
	move	$a1, $zero
	move	$a2, $s0
	pcaddu18i	$ra, %call36(memset)
	jirl	$ra, $ra, 0
.Ltmp406:                               # EH_LABEL
	move	$a0, $s0
	pcaddu18i	$ra, %call36(_Znwm)
	jirl	$ra, $ra, 0
.Ltmp407:                               # EH_LABEL
# %bb.1:                                # %invoke.cont3
	move	$s0, $a0
	lu12i.w	$s2, 1
	move	$a1, $zero
	move	$a2, $s2
	pcaddu18i	$ra, %call36(memset)
	jirl	$ra, $ra, 0
	st.d	$fp, $sp, 16
	pcalau12i	$a0, %pc_hi20(.LCPI15_0)
	vld	$vr0, $a0, %pc_lo12(.LCPI15_0)
	pcalau12i	$a0, %pc_hi20(.LCPI15_1)
	vld	$vr1, $a0, %pc_lo12(.LCPI15_1)
	pcalau12i	$a0, %pc_hi20(.LCPI15_2)
	vld	$vr2, $a0, %pc_lo12(.LCPI15_2)
	pcalau12i	$a0, %pc_hi20(.LCPI15_3)
	vld	$vr3, $a0, %pc_lo12(.LCPI15_3)
	pcalau12i	$a0, %pc_hi20(.LCPI15_4)
	vld	$vr4, $a0, %pc_lo12(.LCPI15_4)
	pcalau12i	$a0, %pc_hi20(.LCPI15_5)
	vld	$vr5, $a0, %pc_lo12(.LCPI15_5)
	pcalau12i	$a0, %pc_hi20(.LCPI15_6)
	vld	$vr6, $a0, %pc_lo12(.LCPI15_6)
	pcalau12i	$a0, %pc_hi20(.LCPI15_7)
	vld	$vr7, $a0, %pc_lo12(.LCPI15_7)
	st.d	$s0, $sp, 8
	ori	$a0, $zero, 2048
	ori	$a1, $zero, 255
	.p2align	4, , 16
.LBB15_2:                               # %vector.body
                                        # =>This Inner Loop Header: Depth=1
	vslli.d	$vr8, $vr0, 1
	vslli.d	$vr9, $vr1, 1
	vslli.d	$vr10, $vr2, 1
	vslli.d	$vr11, $vr3, 1
	vslli.d	$vr12, $vr4, 1
	vslli.d	$vr13, $vr5, 1
	vslli.d	$vr14, $vr6, 1
	vslli.d	$vr15, $vr7, 1
	vpickve2gr.d	$a2, $vr15, 0
	vpickve2gr.d	$a3, $vr15, 1
	vpickve2gr.d	$a4, $vr14, 0
	vpickve2gr.d	$a5, $vr14, 1
	vpickve2gr.d	$a6, $vr13, 0
	vpickve2gr.d	$a7, $vr13, 1
	vpickve2gr.d	$t0, $vr12, 0
	vpickve2gr.d	$t1, $vr12, 1
	vpickve2gr.d	$t2, $vr11, 0
	vpickve2gr.d	$t3, $vr11, 1
	vpickve2gr.d	$t4, $vr10, 0
	vpickve2gr.d	$t5, $vr10, 1
	vpickve2gr.d	$t6, $vr9, 0
	vpickve2gr.d	$t7, $vr9, 1
	vpickve2gr.d	$t8, $vr8, 0
	vpickve2gr.d	$s3, $vr8, 1
	add.d	$a2, $fp, $a2
	add.d	$a3, $fp, $a3
	add.d	$a4, $fp, $a4
	add.d	$a5, $fp, $a5
	add.d	$a6, $fp, $a6
	add.d	$a7, $fp, $a7
	add.d	$t0, $fp, $t0
	add.d	$t1, $fp, $t1
	add.d	$t2, $fp, $t2
	add.d	$t3, $fp, $t3
	add.d	$t4, $fp, $t4
	add.d	$t5, $fp, $t5
	add.d	$t6, $fp, $t6
	add.d	$t7, $fp, $t7
	add.d	$t8, $fp, $t8
	add.d	$s3, $fp, $s3
	st.b	$a1, $a2, 1
	st.b	$a1, $a3, 1
	st.b	$a1, $a4, 1
	st.b	$a1, $a5, 1
	st.b	$a1, $a6, 1
	st.b	$a1, $a7, 1
	st.b	$a1, $t0, 1
	st.b	$a1, $t1, 1
	st.b	$a1, $t2, 1
	st.b	$a1, $t3, 1
	st.b	$a1, $t4, 1
	st.b	$a1, $t5, 1
	st.b	$a1, $t6, 1
	st.b	$a1, $t7, 1
	st.b	$a1, $t8, 1
	st.b	$a1, $s3, 1
	vaddi.du	$vr7, $vr7, 16
	vaddi.du	$vr6, $vr6, 16
	vaddi.du	$vr5, $vr5, 16
	vaddi.du	$vr4, $vr4, 16
	vaddi.du	$vr3, $vr3, 16
	vaddi.du	$vr2, $vr2, 16
	vaddi.du	$vr1, $vr1, 16
	addi.d	$a0, $a0, -16
	vaddi.du	$vr0, $vr0, 16
	bnez	$a0, .LBB15_2
# %bb.3:                                # %for.cond.cleanup
	ori	$a2, $zero, 2
	move	$a0, $fp
	move	$a1, $s0
	pcaddu18i	$ra, %call36(_Z10RealMemCmpPKcS0_m)
	jirl	$ra, $ra, 0
	ld.hu	$a1, $s0, 0
	ld.hu	$a2, $fp, 0
	sltui	$a0, $a0, 1
	xor	$a1, $a2, $a1
	sltui	$a1, $a1, 1
	xor	$a0, $a0, $a1
	bnez	$a0, .LBB15_19
# %bb.4:                                # %if.end
	addi.d	$a0, $sp, 16
	#APP
	#NO_APP
	addi.d	$a0, $sp, 8
	#APP
	#NO_APP
	ld.w	$s4, $s1, 28
	ld.d	$s3, $s1, 16
.Ltmp409:                               # EH_LABEL
	move	$a0, $s1
	pcaddu18i	$ra, %call36(_ZN9benchmark5State16StartKeepRunningEv)
	jirl	$ra, $ra, 0
.Ltmp410:                               # EH_LABEL
# %bb.5:                                # %for.cond36.preheader
	bnez	$s4, .LBB15_10
# %bb.6:                                # %for.cond36.preheader
	beqz	$s3, .LBB15_10
	.p2align	4, , 16
.LBB15_7:                               # %for.body40
                                        # =>This Loop Header: Depth=1
                                        #     Child Loop BB15_8 Depth 2
	move	$a0, $zero
	#MEMBARRIER
	.p2align	4, , 16
.LBB15_8:                               # %for.body47
                                        #   Parent Loop BB15_7 Depth=1
                                        # =>  This Inner Loop Header: Depth=2
	ld.d	$a1, $sp, 8
	ld.d	$a2, $sp, 16
	ldx.hu	$a1, $a1, $a0
	ldx.hu	$a2, $a2, $a0
	xor	$a1, $a2, $a1
	sltui	$a1, $a1, 1
	st.b	$a1, $sp, 24
	#APP
	#NO_APP
	addi.d	$a0, $a0, 2
	bne	$a0, $s2, .LBB15_8
# %bb.9:                                # %for.cond.cleanup46
                                        #   in Loop: Header=BB15_7 Depth=1
	addi.d	$s3, $s3, -1
	bnez	$s3, .LBB15_7
.LBB15_10:                              # %if.end.i
.Ltmp411:                               # EH_LABEL
	move	$a0, $s1
	pcaddu18i	$ra, %call36(_ZN9benchmark5State17FinishKeepRunningEv)
	jirl	$ra, $ra, 0
.Ltmp412:                               # EH_LABEL
# %bb.11:                               # %for.cond.cleanup39
	ld.bu	$a0, $s1, 24
	beqz	$a0, .LBB15_18
# %bb.12:                               # %if.end.i21
	ld.d	$a0, $s1, 16
	ld.d	$a1, $s1, 0
	ld.d	$a2, $s1, 8
	sub.d	$a0, $a0, $a1
	add.d	$a0, $a0, $a2
	slli.d	$a0, $a0, 12
	movgr2fr.d	$fa0, $a0
	ffint.d.l	$fs0, $fa0
.LBB15_13:                              # %_ZNK9benchmark5State10iterationsEv.exit
	addi.d	$s2, $sp, 40
	st.d	$s2, $sp, 24
	ori	$a0, $zero, 16
	st.d	$a0, $sp, 56
.Ltmp414:                               # EH_LABEL
	addi.d	$a0, $sp, 24
	addi.d	$a1, $sp, 56
	move	$a2, $zero
	pcaddu18i	$ra, %call36(_ZNSt7__cxx1112basic_stringIcSt11char_traitsIcESaIcEE9_M_createERmm)
	jirl	$ra, $ra, 0
.Ltmp415:                               # EH_LABEL
# %bb.14:                               # %call2.i5.i.noexc
	ld.d	$a1, $sp, 56
	pcalau12i	$a2, %pc_hi20(.L.str.341)
	vld	$vr0, $a2, %pc_lo12(.L.str.341)
	st.d	$a0, $sp, 24
	st.d	$a1, $sp, 40
	vst	$vr0, $a0, 0
	ld.d	$a0, $sp, 24
	st.d	$a1, $sp, 32
	stx.b	$zero, $a0, $a1
	addi.d	$a0, $s1, 64
.Ltmp417:                               # EH_LABEL
	addi.d	$a1, $sp, 24
	pcaddu18i	$ra, %call36(_ZNSt3mapINSt7__cxx1112basic_stringIcSt11char_traitsIcESaIcEEEN9benchmark7CounterESt4lessIS5_ESaISt4pairIKS5_S7_EEEixEOS5_)
	jirl	$ra, $ra, 0
.Ltmp418:                               # EH_LABEL
# %bb.15:                               # %_ZN9benchmark5State17SetBytesProcessedEl.exit
	fst.d	$fs0, $a0, 0
	ld.d	$a1, $sp, 24
	ori	$a2, $zero, 1
	lu32i.d	$a2, 1024
	st.d	$a2, $a0, 8
	beq	$a1, $s2, .LBB15_17
# %bb.16:                               # %if.then.i.i64
	move	$a0, $a1
	pcaddu18i	$ra, %call36(_ZdlPv)
	jirl	$ra, $ra, 0
.LBB15_17:                              # %_ZNSt6vectorIcSaIcEED2Ev.exit75
	move	$a0, $s0
	pcaddu18i	$ra, %call36(_ZdlPv)
	jirl	$ra, $ra, 0
	move	$a0, $fp
	pcaddu18i	$ra, %call36(_ZdlPv)
	jirl	$ra, $ra, 0
	fld.d	$fs0, $sp, 64                   # 8-byte Folded Reload
	ld.d	$s4, $sp, 72                    # 8-byte Folded Reload
	ld.d	$s3, $sp, 80                    # 8-byte Folded Reload
	ld.d	$s2, $sp, 88                    # 8-byte Folded Reload
	ld.d	$s1, $sp, 96                    # 8-byte Folded Reload
	ld.d	$s0, $sp, 104                   # 8-byte Folded Reload
	ld.d	$fp, $sp, 112                   # 8-byte Folded Reload
	ld.d	$ra, $sp, 120                   # 8-byte Folded Reload
	addi.d	$sp, $sp, 128
	ret
.LBB15_18:
	movgr2fr.d	$fs0, $zero
	b	.LBB15_13
.LBB15_19:                              # %if.then
.Ltmp420:                               # EH_LABEL
	pcalau12i	$a0, %got_pc_hi20(_ZSt4cerr)
	ld.d	$a0, $a0, %got_pc_lo12(_ZSt4cerr)
	pcalau12i	$a1, %pc_hi20(.L.str.337)
	addi.d	$a1, $a1, %pc_lo12(.L.str.337)
	ori	$a2, $zero, 25
	pcaddu18i	$ra, %call36(_ZSt16__ostream_insertIcSt11char_traitsIcEERSt13basic_ostreamIT_T0_ES6_PKS3_l)
	jirl	$ra, $ra, 0
.Ltmp421:                               # EH_LABEL
# %bb.20:                               # %invoke.cont16
.Ltmp422:                               # EH_LABEL
	pcalau12i	$a0, %got_pc_hi20(_ZSt4cerr)
	ld.d	$a0, $a0, %got_pc_lo12(_ZSt4cerr)
	pcalau12i	$a1, %pc_hi20(_ZN6EqZero8kDisplayE)
	addi.d	$a1, $a1, %pc_lo12(_ZN6EqZero8kDisplayE)
	ori	$a2, $zero, 6
	pcaddu18i	$ra, %call36(_ZSt16__ostream_insertIcSt11char_traitsIcEERSt13basic_ostreamIT_T0_ES6_PKS3_l)
	jirl	$ra, $ra, 0
.Ltmp423:                               # EH_LABEL
# %bb.21:                               # %invoke.cont18
.Ltmp424:                               # EH_LABEL
	pcalau12i	$a0, %got_pc_hi20(_ZSt4cerr)
	ld.d	$a0, $a0, %got_pc_lo12(_ZSt4cerr)
	pcalau12i	$a1, %pc_hi20(.L.str.338)
	addi.d	$a1, $a1, %pc_lo12(.L.str.338)
	ori	$a2, $zero, 5
	pcaddu18i	$ra, %call36(_ZSt16__ostream_insertIcSt11char_traitsIcEERSt13basic_ostreamIT_T0_ES6_PKS3_l)
	jirl	$ra, $ra, 0
.Ltmp425:                               # EH_LABEL
# %bb.22:                               # %invoke.cont20
.Ltmp426:                               # EH_LABEL
	pcalau12i	$a0, %got_pc_hi20(_ZSt4cerr)
	ld.d	$a0, $a0, %got_pc_lo12(_ZSt4cerr)
	pcalau12i	$a1, %pc_hi20(_ZN3Mid8kDisplayE)
	addi.d	$a1, $a1, %pc_lo12(_ZN3Mid8kDisplayE)
	ori	$a2, $zero, 3
	pcaddu18i	$ra, %call36(_ZSt16__ostream_insertIcSt11char_traitsIcEERSt13basic_ostreamIT_T0_ES6_PKS3_l)
	jirl	$ra, $ra, 0
.Ltmp427:                               # EH_LABEL
# %bb.23:                               # %invoke.cont22
.Ltmp428:                               # EH_LABEL
	pcalau12i	$a0, %got_pc_hi20(_ZSt4cerr)
	ld.d	$a0, $a0, %got_pc_lo12(_ZSt4cerr)
	pcalau12i	$a1, %pc_hi20(.L.str.339)
	addi.d	$a1, $a1, %pc_lo12(.L.str.339)
	ori	$a2, $zero, 7
	pcaddu18i	$ra, %call36(_ZSt16__ostream_insertIcSt11char_traitsIcEERSt13basic_ostreamIT_T0_ES6_PKS3_l)
	jirl	$ra, $ra, 0
.Ltmp429:                               # EH_LABEL
# %bb.24:                               # %invoke.cont24
.Ltmp430:                               # EH_LABEL
	pcalau12i	$a0, %got_pc_hi20(_ZSt4cerr)
	ld.d	$a0, $a0, %got_pc_lo12(_ZSt4cerr)
	ori	$a1, $zero, 2
	pcaddu18i	$ra, %call36(_ZNSolsEi)
	jirl	$ra, $ra, 0
.Ltmp431:                               # EH_LABEL
# %bb.25:                               # %invoke.cont26
.Ltmp432:                               # EH_LABEL
	pcaddu18i	$ra, %call36(_ZSt4endlIcSt11char_traitsIcEERSt13basic_ostreamIT_T0_ES6_)
	jirl	$ra, $ra, 0
.Ltmp433:                               # EH_LABEL
# %bb.26:                               # %invoke.cont28
	ori	$a0, $zero, 1
	pcaddu18i	$ra, %call36(exit)
	jirl	$ra, $ra, 0
.LBB15_27:                              # %lpad15
.Ltmp434:                               # EH_LABEL
	b	.LBB15_33
.LBB15_28:                              # %lpad4.i
.Ltmp419:                               # EH_LABEL
	ld.d	$a1, $sp, 24
	move	$s1, $a0
	beq	$a1, $s2, .LBB15_34
# %bb.29:                               # %if.then.i.i61
	move	$a0, $a1
	pcaddu18i	$ra, %call36(_ZdlPv)
	jirl	$ra, $ra, 0
	b	.LBB15_34
.LBB15_30:                              # %lpad.i
.Ltmp416:                               # EH_LABEL
	b	.LBB15_33
.LBB15_31:                              # %lpad2
.Ltmp408:                               # EH_LABEL
	move	$s1, $a0
	move	$a0, $fp
	pcaddu18i	$ra, %call36(_ZdlPv)
	jirl	$ra, $ra, 0
	move	$a0, $s1
	pcaddu18i	$ra, %call36(_Unwind_Resume)
	jirl	$ra, $ra, 0
.LBB15_32:                              # %lpad33
.Ltmp413:                               # EH_LABEL
.LBB15_33:                              # %_ZNSt6vectorIcSaIcEED2Ev.exit79
	move	$s1, $a0
.LBB15_34:                              # %_ZNSt6vectorIcSaIcEED2Ev.exit79
	move	$a0, $s0
	pcaddu18i	$ra, %call36(_ZdlPv)
	jirl	$ra, $ra, 0
	move	$a0, $fp
	pcaddu18i	$ra, %call36(_ZdlPv)
	jirl	$ra, $ra, 0
	move	$a0, $s1
	pcaddu18i	$ra, %call36(_Unwind_Resume)
	jirl	$ra, $ra, 0
.Lfunc_end15:
	.size	_Z9BM_MemCmpILi2E6EqZero3MidEvRN9benchmark5StateE, .Lfunc_end15-_Z9BM_MemCmpILi2E6EqZero3MidEvRN9benchmark5StateE
	.cfi_endproc
	.section	.gcc_except_table._Z9BM_MemCmpILi2E6EqZero3MidEvRN9benchmark5StateE,"aG",@progbits,_Z9BM_MemCmpILi2E6EqZero3MidEvRN9benchmark5StateE,comdat
	.p2align	2, 0x0
GCC_except_table15:
.Lexception14:
	.byte	255                             # @LPStart Encoding = omit
	.byte	255                             # @TType Encoding = omit
	.byte	1                               # Call site Encoding = uleb128
	.uleb128 .Lcst_end14-.Lcst_begin14
.Lcst_begin14:
	.uleb128 .Lfunc_begin14-.Lfunc_begin14  # >> Call Site 1 <<
	.uleb128 .Ltmp406-.Lfunc_begin14        #   Call between .Lfunc_begin14 and .Ltmp406
	.byte	0                               #     has no landing pad
	.byte	0                               #   On action: cleanup
	.uleb128 .Ltmp406-.Lfunc_begin14        # >> Call Site 2 <<
	.uleb128 .Ltmp407-.Ltmp406              #   Call between .Ltmp406 and .Ltmp407
	.uleb128 .Ltmp408-.Lfunc_begin14        #     jumps to .Ltmp408
	.byte	0                               #   On action: cleanup
	.uleb128 .Ltmp407-.Lfunc_begin14        # >> Call Site 3 <<
	.uleb128 .Ltmp409-.Ltmp407              #   Call between .Ltmp407 and .Ltmp409
	.byte	0                               #     has no landing pad
	.byte	0                               #   On action: cleanup
	.uleb128 .Ltmp409-.Lfunc_begin14        # >> Call Site 4 <<
	.uleb128 .Ltmp412-.Ltmp409              #   Call between .Ltmp409 and .Ltmp412
	.uleb128 .Ltmp413-.Lfunc_begin14        #     jumps to .Ltmp413
	.byte	0                               #   On action: cleanup
	.uleb128 .Ltmp414-.Lfunc_begin14        # >> Call Site 5 <<
	.uleb128 .Ltmp415-.Ltmp414              #   Call between .Ltmp414 and .Ltmp415
	.uleb128 .Ltmp416-.Lfunc_begin14        #     jumps to .Ltmp416
	.byte	0                               #   On action: cleanup
	.uleb128 .Ltmp417-.Lfunc_begin14        # >> Call Site 6 <<
	.uleb128 .Ltmp418-.Ltmp417              #   Call between .Ltmp417 and .Ltmp418
	.uleb128 .Ltmp419-.Lfunc_begin14        #     jumps to .Ltmp419
	.byte	0                               #   On action: cleanup
	.uleb128 .Ltmp418-.Lfunc_begin14        # >> Call Site 7 <<
	.uleb128 .Ltmp420-.Ltmp418              #   Call between .Ltmp418 and .Ltmp420
	.byte	0                               #     has no landing pad
	.byte	0                               #   On action: cleanup
	.uleb128 .Ltmp420-.Lfunc_begin14        # >> Call Site 8 <<
	.uleb128 .Ltmp433-.Ltmp420              #   Call between .Ltmp420 and .Ltmp433
	.uleb128 .Ltmp434-.Lfunc_begin14        #     jumps to .Ltmp434
	.byte	0                               #   On action: cleanup
	.uleb128 .Ltmp433-.Lfunc_begin14        # >> Call Site 9 <<
	.uleb128 .Lfunc_end15-.Ltmp433          #   Call between .Ltmp433 and .Lfunc_end15
	.byte	0                               #     has no landing pad
	.byte	0                               #   On action: cleanup
.Lcst_end14:
	.p2align	2, 0x0
                                        # -- End function
	.section	.rodata.cst16,"aM",@progbits,16
	.p2align	4, 0x0                          # -- Begin function _Z9BM_MemCmpILi2E6EqZero4LastEvRN9benchmark5StateE
.LCPI16_0:
	.dword	14                              # 0xe
	.dword	15                              # 0xf
.LCPI16_1:
	.dword	12                              # 0xc
	.dword	13                              # 0xd
.LCPI16_2:
	.dword	10                              # 0xa
	.dword	11                              # 0xb
.LCPI16_3:
	.dword	8                               # 0x8
	.dword	9                               # 0x9
.LCPI16_4:
	.dword	6                               # 0x6
	.dword	7                               # 0x7
.LCPI16_5:
	.dword	4                               # 0x4
	.dword	5                               # 0x5
.LCPI16_6:
	.dword	2                               # 0x2
	.dword	3                               # 0x3
.LCPI16_7:
	.dword	0                               # 0x0
	.dword	1                               # 0x1
	.section	.text._Z9BM_MemCmpILi2E6EqZero4LastEvRN9benchmark5StateE,"axG",@progbits,_Z9BM_MemCmpILi2E6EqZero4LastEvRN9benchmark5StateE,comdat
	.weak	_Z9BM_MemCmpILi2E6EqZero4LastEvRN9benchmark5StateE
	.p2align	5
	.type	_Z9BM_MemCmpILi2E6EqZero4LastEvRN9benchmark5StateE,@function
_Z9BM_MemCmpILi2E6EqZero4LastEvRN9benchmark5StateE: # @_Z9BM_MemCmpILi2E6EqZero4LastEvRN9benchmark5StateE
.Lfunc_begin15:
	.cfi_startproc
	.cfi_personality 155, DW.ref.__gxx_personality_v0
	.cfi_lsda 27, .Lexception15
# %bb.0:                                # %entry
	addi.d	$sp, $sp, -128
	.cfi_def_cfa_offset 128
	st.d	$ra, $sp, 120                   # 8-byte Folded Spill
	st.d	$fp, $sp, 112                   # 8-byte Folded Spill
	st.d	$s0, $sp, 104                   # 8-byte Folded Spill
	st.d	$s1, $sp, 96                    # 8-byte Folded Spill
	st.d	$s2, $sp, 88                    # 8-byte Folded Spill
	st.d	$s3, $sp, 80                    # 8-byte Folded Spill
	st.d	$s4, $sp, 72                    # 8-byte Folded Spill
	fst.d	$fs0, $sp, 64                   # 8-byte Folded Spill
	.cfi_offset 1, -8
	.cfi_offset 22, -16
	.cfi_offset 23, -24
	.cfi_offset 24, -32
	.cfi_offset 25, -40
	.cfi_offset 26, -48
	.cfi_offset 27, -56
	.cfi_offset 56, -64
	move	$s1, $a0
	lu12i.w	$s0, 1
	move	$a0, $s0
	pcaddu18i	$ra, %call36(_Znwm)
	jirl	$ra, $ra, 0
	move	$fp, $a0
	move	$a1, $zero
	move	$a2, $s0
	pcaddu18i	$ra, %call36(memset)
	jirl	$ra, $ra, 0
.Ltmp435:                               # EH_LABEL
	move	$a0, $s0
	pcaddu18i	$ra, %call36(_Znwm)
	jirl	$ra, $ra, 0
.Ltmp436:                               # EH_LABEL
# %bb.1:                                # %invoke.cont3
	move	$s0, $a0
	lu12i.w	$s2, 1
	move	$a1, $zero
	move	$a2, $s2
	pcaddu18i	$ra, %call36(memset)
	jirl	$ra, $ra, 0
	st.d	$fp, $sp, 16
	pcalau12i	$a0, %pc_hi20(.LCPI16_0)
	vld	$vr0, $a0, %pc_lo12(.LCPI16_0)
	pcalau12i	$a0, %pc_hi20(.LCPI16_1)
	vld	$vr1, $a0, %pc_lo12(.LCPI16_1)
	pcalau12i	$a0, %pc_hi20(.LCPI16_2)
	vld	$vr2, $a0, %pc_lo12(.LCPI16_2)
	pcalau12i	$a0, %pc_hi20(.LCPI16_3)
	vld	$vr3, $a0, %pc_lo12(.LCPI16_3)
	pcalau12i	$a0, %pc_hi20(.LCPI16_4)
	vld	$vr4, $a0, %pc_lo12(.LCPI16_4)
	pcalau12i	$a0, %pc_hi20(.LCPI16_5)
	vld	$vr5, $a0, %pc_lo12(.LCPI16_5)
	pcalau12i	$a0, %pc_hi20(.LCPI16_6)
	vld	$vr6, $a0, %pc_lo12(.LCPI16_6)
	pcalau12i	$a0, %pc_hi20(.LCPI16_7)
	vld	$vr7, $a0, %pc_lo12(.LCPI16_7)
	st.d	$s0, $sp, 8
	ori	$a0, $zero, 2048
	ori	$a1, $zero, 255
	.p2align	4, , 16
.LBB16_2:                               # %vector.body
                                        # =>This Inner Loop Header: Depth=1
	vslli.d	$vr8, $vr0, 1
	vslli.d	$vr9, $vr1, 1
	vslli.d	$vr10, $vr2, 1
	vslli.d	$vr11, $vr3, 1
	vslli.d	$vr12, $vr4, 1
	vslli.d	$vr13, $vr5, 1
	vslli.d	$vr14, $vr6, 1
	vslli.d	$vr15, $vr7, 1
	vpickve2gr.d	$a2, $vr15, 0
	vpickve2gr.d	$a3, $vr15, 1
	vpickve2gr.d	$a4, $vr14, 0
	vpickve2gr.d	$a5, $vr14, 1
	vpickve2gr.d	$a6, $vr13, 0
	vpickve2gr.d	$a7, $vr13, 1
	vpickve2gr.d	$t0, $vr12, 0
	vpickve2gr.d	$t1, $vr12, 1
	vpickve2gr.d	$t2, $vr11, 0
	vpickve2gr.d	$t3, $vr11, 1
	vpickve2gr.d	$t4, $vr10, 0
	vpickve2gr.d	$t5, $vr10, 1
	vpickve2gr.d	$t6, $vr9, 0
	vpickve2gr.d	$t7, $vr9, 1
	vpickve2gr.d	$t8, $vr8, 0
	vpickve2gr.d	$s3, $vr8, 1
	add.d	$a2, $fp, $a2
	add.d	$a3, $fp, $a3
	add.d	$a4, $fp, $a4
	add.d	$a5, $fp, $a5
	add.d	$a6, $fp, $a6
	add.d	$a7, $fp, $a7
	add.d	$t0, $fp, $t0
	add.d	$t1, $fp, $t1
	add.d	$t2, $fp, $t2
	add.d	$t3, $fp, $t3
	add.d	$t4, $fp, $t4
	add.d	$t5, $fp, $t5
	add.d	$t6, $fp, $t6
	add.d	$t7, $fp, $t7
	add.d	$t8, $fp, $t8
	add.d	$s3, $fp, $s3
	st.b	$a1, $a2, 1
	st.b	$a1, $a3, 1
	st.b	$a1, $a4, 1
	st.b	$a1, $a5, 1
	st.b	$a1, $a6, 1
	st.b	$a1, $a7, 1
	st.b	$a1, $t0, 1
	st.b	$a1, $t1, 1
	st.b	$a1, $t2, 1
	st.b	$a1, $t3, 1
	st.b	$a1, $t4, 1
	st.b	$a1, $t5, 1
	st.b	$a1, $t6, 1
	st.b	$a1, $t7, 1
	st.b	$a1, $t8, 1
	st.b	$a1, $s3, 1
	vaddi.du	$vr7, $vr7, 16
	vaddi.du	$vr6, $vr6, 16
	vaddi.du	$vr5, $vr5, 16
	vaddi.du	$vr4, $vr4, 16
	vaddi.du	$vr3, $vr3, 16
	vaddi.du	$vr2, $vr2, 16
	vaddi.du	$vr1, $vr1, 16
	addi.d	$a0, $a0, -16
	vaddi.du	$vr0, $vr0, 16
	bnez	$a0, .LBB16_2
# %bb.3:                                # %for.cond.cleanup
	ori	$a2, $zero, 2
	move	$a0, $fp
	move	$a1, $s0
	pcaddu18i	$ra, %call36(_Z10RealMemCmpPKcS0_m)
	jirl	$ra, $ra, 0
	ld.hu	$a1, $s0, 0
	ld.hu	$a2, $fp, 0
	sltui	$a0, $a0, 1
	xor	$a1, $a2, $a1
	sltui	$a1, $a1, 1
	xor	$a0, $a0, $a1
	bnez	$a0, .LBB16_19
# %bb.4:                                # %if.end
	addi.d	$a0, $sp, 16
	#APP
	#NO_APP
	addi.d	$a0, $sp, 8
	#APP
	#NO_APP
	ld.w	$s4, $s1, 28
	ld.d	$s3, $s1, 16
.Ltmp438:                               # EH_LABEL
	move	$a0, $s1
	pcaddu18i	$ra, %call36(_ZN9benchmark5State16StartKeepRunningEv)
	jirl	$ra, $ra, 0
.Ltmp439:                               # EH_LABEL
# %bb.5:                                # %for.cond36.preheader
	bnez	$s4, .LBB16_10
# %bb.6:                                # %for.cond36.preheader
	beqz	$s3, .LBB16_10
	.p2align	4, , 16
.LBB16_7:                               # %for.body40
                                        # =>This Loop Header: Depth=1
                                        #     Child Loop BB16_8 Depth 2
	move	$a0, $zero
	#MEMBARRIER
	.p2align	4, , 16
.LBB16_8:                               # %for.body47
                                        #   Parent Loop BB16_7 Depth=1
                                        # =>  This Inner Loop Header: Depth=2
	ld.d	$a1, $sp, 8
	ld.d	$a2, $sp, 16
	ldx.hu	$a1, $a1, $a0
	ldx.hu	$a2, $a2, $a0
	xor	$a1, $a2, $a1
	sltui	$a1, $a1, 1
	st.b	$a1, $sp, 24
	#APP
	#NO_APP
	addi.d	$a0, $a0, 2
	bne	$a0, $s2, .LBB16_8
# %bb.9:                                # %for.cond.cleanup46
                                        #   in Loop: Header=BB16_7 Depth=1
	addi.d	$s3, $s3, -1
	bnez	$s3, .LBB16_7
.LBB16_10:                              # %if.end.i
.Ltmp440:                               # EH_LABEL
	move	$a0, $s1
	pcaddu18i	$ra, %call36(_ZN9benchmark5State17FinishKeepRunningEv)
	jirl	$ra, $ra, 0
.Ltmp441:                               # EH_LABEL
# %bb.11:                               # %for.cond.cleanup39
	ld.bu	$a0, $s1, 24
	beqz	$a0, .LBB16_18
# %bb.12:                               # %if.end.i21
	ld.d	$a0, $s1, 16
	ld.d	$a1, $s1, 0
	ld.d	$a2, $s1, 8
	sub.d	$a0, $a0, $a1
	add.d	$a0, $a0, $a2
	slli.d	$a0, $a0, 12
	movgr2fr.d	$fa0, $a0
	ffint.d.l	$fs0, $fa0
.LBB16_13:                              # %_ZNK9benchmark5State10iterationsEv.exit
	addi.d	$s2, $sp, 40
	st.d	$s2, $sp, 24
	ori	$a0, $zero, 16
	st.d	$a0, $sp, 56
.Ltmp443:                               # EH_LABEL
	addi.d	$a0, $sp, 24
	addi.d	$a1, $sp, 56
	move	$a2, $zero
	pcaddu18i	$ra, %call36(_ZNSt7__cxx1112basic_stringIcSt11char_traitsIcESaIcEE9_M_createERmm)
	jirl	$ra, $ra, 0
.Ltmp444:                               # EH_LABEL
# %bb.14:                               # %call2.i5.i.noexc
	ld.d	$a1, $sp, 56
	pcalau12i	$a2, %pc_hi20(.L.str.341)
	vld	$vr0, $a2, %pc_lo12(.L.str.341)
	st.d	$a0, $sp, 24
	st.d	$a1, $sp, 40
	vst	$vr0, $a0, 0
	ld.d	$a0, $sp, 24
	st.d	$a1, $sp, 32
	stx.b	$zero, $a0, $a1
	addi.d	$a0, $s1, 64
.Ltmp446:                               # EH_LABEL
	addi.d	$a1, $sp, 24
	pcaddu18i	$ra, %call36(_ZNSt3mapINSt7__cxx1112basic_stringIcSt11char_traitsIcESaIcEEEN9benchmark7CounterESt4lessIS5_ESaISt4pairIKS5_S7_EEEixEOS5_)
	jirl	$ra, $ra, 0
.Ltmp447:                               # EH_LABEL
# %bb.15:                               # %_ZN9benchmark5State17SetBytesProcessedEl.exit
	fst.d	$fs0, $a0, 0
	ld.d	$a1, $sp, 24
	ori	$a2, $zero, 1
	lu32i.d	$a2, 1024
	st.d	$a2, $a0, 8
	beq	$a1, $s2, .LBB16_17
# %bb.16:                               # %if.then.i.i64
	move	$a0, $a1
	pcaddu18i	$ra, %call36(_ZdlPv)
	jirl	$ra, $ra, 0
.LBB16_17:                              # %_ZNSt6vectorIcSaIcEED2Ev.exit75
	move	$a0, $s0
	pcaddu18i	$ra, %call36(_ZdlPv)
	jirl	$ra, $ra, 0
	move	$a0, $fp
	pcaddu18i	$ra, %call36(_ZdlPv)
	jirl	$ra, $ra, 0
	fld.d	$fs0, $sp, 64                   # 8-byte Folded Reload
	ld.d	$s4, $sp, 72                    # 8-byte Folded Reload
	ld.d	$s3, $sp, 80                    # 8-byte Folded Reload
	ld.d	$s2, $sp, 88                    # 8-byte Folded Reload
	ld.d	$s1, $sp, 96                    # 8-byte Folded Reload
	ld.d	$s0, $sp, 104                   # 8-byte Folded Reload
	ld.d	$fp, $sp, 112                   # 8-byte Folded Reload
	ld.d	$ra, $sp, 120                   # 8-byte Folded Reload
	addi.d	$sp, $sp, 128
	ret
.LBB16_18:
	movgr2fr.d	$fs0, $zero
	b	.LBB16_13
.LBB16_19:                              # %if.then
.Ltmp449:                               # EH_LABEL
	pcalau12i	$a0, %got_pc_hi20(_ZSt4cerr)
	ld.d	$a0, $a0, %got_pc_lo12(_ZSt4cerr)
	pcalau12i	$a1, %pc_hi20(.L.str.337)
	addi.d	$a1, $a1, %pc_lo12(.L.str.337)
	ori	$a2, $zero, 25
	pcaddu18i	$ra, %call36(_ZSt16__ostream_insertIcSt11char_traitsIcEERSt13basic_ostreamIT_T0_ES6_PKS3_l)
	jirl	$ra, $ra, 0
.Ltmp450:                               # EH_LABEL
# %bb.20:                               # %invoke.cont16
.Ltmp451:                               # EH_LABEL
	pcalau12i	$a0, %got_pc_hi20(_ZSt4cerr)
	ld.d	$a0, $a0, %got_pc_lo12(_ZSt4cerr)
	pcalau12i	$a1, %pc_hi20(_ZN6EqZero8kDisplayE)
	addi.d	$a1, $a1, %pc_lo12(_ZN6EqZero8kDisplayE)
	ori	$a2, $zero, 6
	pcaddu18i	$ra, %call36(_ZSt16__ostream_insertIcSt11char_traitsIcEERSt13basic_ostreamIT_T0_ES6_PKS3_l)
	jirl	$ra, $ra, 0
.Ltmp452:                               # EH_LABEL
# %bb.21:                               # %invoke.cont18
.Ltmp453:                               # EH_LABEL
	pcalau12i	$a0, %got_pc_hi20(_ZSt4cerr)
	ld.d	$a0, $a0, %got_pc_lo12(_ZSt4cerr)
	pcalau12i	$a1, %pc_hi20(.L.str.338)
	addi.d	$a1, $a1, %pc_lo12(.L.str.338)
	ori	$a2, $zero, 5
	pcaddu18i	$ra, %call36(_ZSt16__ostream_insertIcSt11char_traitsIcEERSt13basic_ostreamIT_T0_ES6_PKS3_l)
	jirl	$ra, $ra, 0
.Ltmp454:                               # EH_LABEL
# %bb.22:                               # %invoke.cont20
.Ltmp455:                               # EH_LABEL
	pcalau12i	$a0, %got_pc_hi20(_ZSt4cerr)
	ld.d	$a0, $a0, %got_pc_lo12(_ZSt4cerr)
	pcalau12i	$a1, %pc_hi20(_ZN4Last8kDisplayE)
	addi.d	$a1, $a1, %pc_lo12(_ZN4Last8kDisplayE)
	ori	$a2, $zero, 4
	pcaddu18i	$ra, %call36(_ZSt16__ostream_insertIcSt11char_traitsIcEERSt13basic_ostreamIT_T0_ES6_PKS3_l)
	jirl	$ra, $ra, 0
.Ltmp456:                               # EH_LABEL
# %bb.23:                               # %invoke.cont22
.Ltmp457:                               # EH_LABEL
	pcalau12i	$a0, %got_pc_hi20(_ZSt4cerr)
	ld.d	$a0, $a0, %got_pc_lo12(_ZSt4cerr)
	pcalau12i	$a1, %pc_hi20(.L.str.339)
	addi.d	$a1, $a1, %pc_lo12(.L.str.339)
	ori	$a2, $zero, 7
	pcaddu18i	$ra, %call36(_ZSt16__ostream_insertIcSt11char_traitsIcEERSt13basic_ostreamIT_T0_ES6_PKS3_l)
	jirl	$ra, $ra, 0
.Ltmp458:                               # EH_LABEL
# %bb.24:                               # %invoke.cont24
.Ltmp459:                               # EH_LABEL
	pcalau12i	$a0, %got_pc_hi20(_ZSt4cerr)
	ld.d	$a0, $a0, %got_pc_lo12(_ZSt4cerr)
	ori	$a1, $zero, 2
	pcaddu18i	$ra, %call36(_ZNSolsEi)
	jirl	$ra, $ra, 0
.Ltmp460:                               # EH_LABEL
# %bb.25:                               # %invoke.cont26
.Ltmp461:                               # EH_LABEL
	pcaddu18i	$ra, %call36(_ZSt4endlIcSt11char_traitsIcEERSt13basic_ostreamIT_T0_ES6_)
	jirl	$ra, $ra, 0
.Ltmp462:                               # EH_LABEL
# %bb.26:                               # %invoke.cont28
	ori	$a0, $zero, 1
	pcaddu18i	$ra, %call36(exit)
	jirl	$ra, $ra, 0
.LBB16_27:                              # %lpad15
.Ltmp463:                               # EH_LABEL
	b	.LBB16_33
.LBB16_28:                              # %lpad4.i
.Ltmp448:                               # EH_LABEL
	ld.d	$a1, $sp, 24
	move	$s1, $a0
	beq	$a1, $s2, .LBB16_34
# %bb.29:                               # %if.then.i.i61
	move	$a0, $a1
	pcaddu18i	$ra, %call36(_ZdlPv)
	jirl	$ra, $ra, 0
	b	.LBB16_34
.LBB16_30:                              # %lpad.i
.Ltmp445:                               # EH_LABEL
	b	.LBB16_33
.LBB16_31:                              # %lpad2
.Ltmp437:                               # EH_LABEL
	move	$s1, $a0
	move	$a0, $fp
	pcaddu18i	$ra, %call36(_ZdlPv)
	jirl	$ra, $ra, 0
	move	$a0, $s1
	pcaddu18i	$ra, %call36(_Unwind_Resume)
	jirl	$ra, $ra, 0
.LBB16_32:                              # %lpad33
.Ltmp442:                               # EH_LABEL
.LBB16_33:                              # %_ZNSt6vectorIcSaIcEED2Ev.exit79
	move	$s1, $a0
.LBB16_34:                              # %_ZNSt6vectorIcSaIcEED2Ev.exit79
	move	$a0, $s0
	pcaddu18i	$ra, %call36(_ZdlPv)
	jirl	$ra, $ra, 0
	move	$a0, $fp
	pcaddu18i	$ra, %call36(_ZdlPv)
	jirl	$ra, $ra, 0
	move	$a0, $s1
	pcaddu18i	$ra, %call36(_Unwind_Resume)
	jirl	$ra, $ra, 0
.Lfunc_end16:
	.size	_Z9BM_MemCmpILi2E6EqZero4LastEvRN9benchmark5StateE, .Lfunc_end16-_Z9BM_MemCmpILi2E6EqZero4LastEvRN9benchmark5StateE
	.cfi_endproc
	.section	.gcc_except_table._Z9BM_MemCmpILi2E6EqZero4LastEvRN9benchmark5StateE,"aG",@progbits,_Z9BM_MemCmpILi2E6EqZero4LastEvRN9benchmark5StateE,comdat
	.p2align	2, 0x0
GCC_except_table16:
.Lexception15:
	.byte	255                             # @LPStart Encoding = omit
	.byte	255                             # @TType Encoding = omit
	.byte	1                               # Call site Encoding = uleb128
	.uleb128 .Lcst_end15-.Lcst_begin15
.Lcst_begin15:
	.uleb128 .Lfunc_begin15-.Lfunc_begin15  # >> Call Site 1 <<
	.uleb128 .Ltmp435-.Lfunc_begin15        #   Call between .Lfunc_begin15 and .Ltmp435
	.byte	0                               #     has no landing pad
	.byte	0                               #   On action: cleanup
	.uleb128 .Ltmp435-.Lfunc_begin15        # >> Call Site 2 <<
	.uleb128 .Ltmp436-.Ltmp435              #   Call between .Ltmp435 and .Ltmp436
	.uleb128 .Ltmp437-.Lfunc_begin15        #     jumps to .Ltmp437
	.byte	0                               #   On action: cleanup
	.uleb128 .Ltmp436-.Lfunc_begin15        # >> Call Site 3 <<
	.uleb128 .Ltmp438-.Ltmp436              #   Call between .Ltmp436 and .Ltmp438
	.byte	0                               #     has no landing pad
	.byte	0                               #   On action: cleanup
	.uleb128 .Ltmp438-.Lfunc_begin15        # >> Call Site 4 <<
	.uleb128 .Ltmp441-.Ltmp438              #   Call between .Ltmp438 and .Ltmp441
	.uleb128 .Ltmp442-.Lfunc_begin15        #     jumps to .Ltmp442
	.byte	0                               #   On action: cleanup
	.uleb128 .Ltmp443-.Lfunc_begin15        # >> Call Site 5 <<
	.uleb128 .Ltmp444-.Ltmp443              #   Call between .Ltmp443 and .Ltmp444
	.uleb128 .Ltmp445-.Lfunc_begin15        #     jumps to .Ltmp445
	.byte	0                               #   On action: cleanup
	.uleb128 .Ltmp446-.Lfunc_begin15        # >> Call Site 6 <<
	.uleb128 .Ltmp447-.Ltmp446              #   Call between .Ltmp446 and .Ltmp447
	.uleb128 .Ltmp448-.Lfunc_begin15        #     jumps to .Ltmp448
	.byte	0                               #   On action: cleanup
	.uleb128 .Ltmp447-.Lfunc_begin15        # >> Call Site 7 <<
	.uleb128 .Ltmp449-.Ltmp447              #   Call between .Ltmp447 and .Ltmp449
	.byte	0                               #     has no landing pad
	.byte	0                               #   On action: cleanup
	.uleb128 .Ltmp449-.Lfunc_begin15        # >> Call Site 8 <<
	.uleb128 .Ltmp462-.Ltmp449              #   Call between .Ltmp449 and .Ltmp462
	.uleb128 .Ltmp463-.Lfunc_begin15        #     jumps to .Ltmp463
	.byte	0                               #   On action: cleanup
	.uleb128 .Ltmp462-.Lfunc_begin15        # >> Call Site 9 <<
	.uleb128 .Lfunc_end16-.Ltmp462          #   Call between .Ltmp462 and .Lfunc_end16
	.byte	0                               #     has no landing pad
	.byte	0                               #   On action: cleanup
.Lcst_end15:
	.p2align	2, 0x0
                                        # -- End function
	.section	.text._Z9BM_MemCmpILi2E12LessThanZero4NoneEvRN9benchmark5StateE,"axG",@progbits,_Z9BM_MemCmpILi2E12LessThanZero4NoneEvRN9benchmark5StateE,comdat
	.weak	_Z9BM_MemCmpILi2E12LessThanZero4NoneEvRN9benchmark5StateE # -- Begin function _Z9BM_MemCmpILi2E12LessThanZero4NoneEvRN9benchmark5StateE
	.p2align	5
	.type	_Z9BM_MemCmpILi2E12LessThanZero4NoneEvRN9benchmark5StateE,@function
_Z9BM_MemCmpILi2E12LessThanZero4NoneEvRN9benchmark5StateE: # @_Z9BM_MemCmpILi2E12LessThanZero4NoneEvRN9benchmark5StateE
.Lfunc_begin16:
	.cfi_startproc
	.cfi_personality 155, DW.ref.__gxx_personality_v0
	.cfi_lsda 27, .Lexception16
# %bb.0:                                # %entry
	addi.d	$sp, $sp, -128
	.cfi_def_cfa_offset 128
	st.d	$ra, $sp, 120                   # 8-byte Folded Spill
	st.d	$fp, $sp, 112                   # 8-byte Folded Spill
	st.d	$s0, $sp, 104                   # 8-byte Folded Spill
	st.d	$s1, $sp, 96                    # 8-byte Folded Spill
	st.d	$s2, $sp, 88                    # 8-byte Folded Spill
	st.d	$s3, $sp, 80                    # 8-byte Folded Spill
	st.d	$s4, $sp, 72                    # 8-byte Folded Spill
	fst.d	$fs0, $sp, 64                   # 8-byte Folded Spill
	.cfi_offset 1, -8
	.cfi_offset 22, -16
	.cfi_offset 23, -24
	.cfi_offset 24, -32
	.cfi_offset 25, -40
	.cfi_offset 26, -48
	.cfi_offset 27, -56
	.cfi_offset 56, -64
	move	$s1, $a0
	lu12i.w	$s0, 1
	move	$a0, $s0
	pcaddu18i	$ra, %call36(_Znwm)
	jirl	$ra, $ra, 0
	move	$fp, $a0
	move	$a1, $zero
	move	$a2, $s0
	pcaddu18i	$ra, %call36(memset)
	jirl	$ra, $ra, 0
.Ltmp464:                               # EH_LABEL
	move	$a0, $s0
	pcaddu18i	$ra, %call36(_Znwm)
	jirl	$ra, $ra, 0
.Ltmp465:                               # EH_LABEL
# %bb.1:                                # %invoke.cont3
	move	$s0, $a0
	lu12i.w	$s2, 1
	move	$a1, $zero
	move	$a2, $s2
	pcaddu18i	$ra, %call36(memset)
	jirl	$ra, $ra, 0
	st.d	$fp, $sp, 16
	st.d	$s0, $sp, 8
	ori	$a2, $zero, 2
	move	$a0, $fp
	move	$a1, $s0
	pcaddu18i	$ra, %call36(_Z10RealMemCmpPKcS0_m)
	jirl	$ra, $ra, 0
	move	$s3, $a0
	ori	$a2, $zero, 2
	move	$a0, $fp
	move	$a1, $s0
	pcaddu18i	$ra, %call36(memcmp)
	jirl	$ra, $ra, 0
	xor	$a0, $a0, $s3
	bltz	$a0, .LBB17_17
# %bb.2:                                # %if.end
	addi.d	$a0, $sp, 16
	#APP
	#NO_APP
	addi.d	$a0, $sp, 8
	#APP
	#NO_APP
	ld.w	$s4, $s1, 28
	ld.d	$s3, $s1, 16
.Ltmp467:                               # EH_LABEL
	move	$a0, $s1
	pcaddu18i	$ra, %call36(_ZN9benchmark5State16StartKeepRunningEv)
	jirl	$ra, $ra, 0
.Ltmp468:                               # EH_LABEL
# %bb.3:                                # %for.cond34.preheader
	bnez	$s4, .LBB17_8
# %bb.4:                                # %for.cond34.preheader
	beqz	$s3, .LBB17_8
	.p2align	4, , 16
.LBB17_5:                               # %for.body38
                                        # =>This Loop Header: Depth=1
                                        #     Child Loop BB17_6 Depth 2
	move	$s4, $zero
	#MEMBARRIER
	.p2align	4, , 16
.LBB17_6:                               # %for.body45
                                        #   Parent Loop BB17_5 Depth=1
                                        # =>  This Inner Loop Header: Depth=2
	ld.d	$a0, $sp, 16
	ld.d	$a1, $sp, 8
	add.d	$a0, $a0, $s4
	add.d	$a1, $a1, $s4
	ori	$a2, $zero, 2
	pcaddu18i	$ra, %call36(memcmp)
	jirl	$ra, $ra, 0
	slti	$a1, $a0, 0
	bstrpick.d	$a0, $a0, 31, 31
	st.b	$a0, $sp, 24
	#APP
	#NO_APP
	addi.d	$s4, $s4, 2
	bne	$s4, $s2, .LBB17_6
# %bb.7:                                # %for.cond.cleanup44
                                        #   in Loop: Header=BB17_5 Depth=1
	addi.d	$s3, $s3, -1
	bnez	$s3, .LBB17_5
.LBB17_8:                               # %if.end.i
.Ltmp469:                               # EH_LABEL
	move	$a0, $s1
	pcaddu18i	$ra, %call36(_ZN9benchmark5State17FinishKeepRunningEv)
	jirl	$ra, $ra, 0
.Ltmp470:                               # EH_LABEL
# %bb.9:                                # %for.cond.cleanup37
	ld.bu	$a0, $s1, 24
	beqz	$a0, .LBB17_16
# %bb.10:                               # %if.end.i21
	ld.d	$a0, $s1, 16
	ld.d	$a1, $s1, 0
	ld.d	$a2, $s1, 8
	sub.d	$a0, $a0, $a1
	add.d	$a0, $a0, $a2
	slli.d	$a0, $a0, 12
	movgr2fr.d	$fa0, $a0
	ffint.d.l	$fs0, $fa0
.LBB17_11:                              # %_ZNK9benchmark5State10iterationsEv.exit
	addi.d	$s2, $sp, 40
	st.d	$s2, $sp, 24
	ori	$a0, $zero, 16
	st.d	$a0, $sp, 56
.Ltmp472:                               # EH_LABEL
	addi.d	$a0, $sp, 24
	addi.d	$a1, $sp, 56
	move	$a2, $zero
	pcaddu18i	$ra, %call36(_ZNSt7__cxx1112basic_stringIcSt11char_traitsIcESaIcEE9_M_createERmm)
	jirl	$ra, $ra, 0
.Ltmp473:                               # EH_LABEL
# %bb.12:                               # %call2.i5.i.noexc
	ld.d	$a1, $sp, 56
	pcalau12i	$a2, %pc_hi20(.L.str.341)
	vld	$vr0, $a2, %pc_lo12(.L.str.341)
	st.d	$a0, $sp, 24
	st.d	$a1, $sp, 40
	vst	$vr0, $a0, 0
	ld.d	$a0, $sp, 24
	st.d	$a1, $sp, 32
	stx.b	$zero, $a0, $a1
	addi.d	$a0, $s1, 64
.Ltmp475:                               # EH_LABEL
	addi.d	$a1, $sp, 24
	pcaddu18i	$ra, %call36(_ZNSt3mapINSt7__cxx1112basic_stringIcSt11char_traitsIcESaIcEEEN9benchmark7CounterESt4lessIS5_ESaISt4pairIKS5_S7_EEEixEOS5_)
	jirl	$ra, $ra, 0
.Ltmp476:                               # EH_LABEL
# %bb.13:                               # %_ZN9benchmark5State17SetBytesProcessedEl.exit
	fst.d	$fs0, $a0, 0
	ld.d	$a1, $sp, 24
	ori	$a2, $zero, 1
	lu32i.d	$a2, 1024
	st.d	$a2, $a0, 8
	beq	$a1, $s2, .LBB17_15
# %bb.14:                               # %if.then.i.i64
	move	$a0, $a1
	pcaddu18i	$ra, %call36(_ZdlPv)
	jirl	$ra, $ra, 0
.LBB17_15:                              # %_ZNSt6vectorIcSaIcEED2Ev.exit75
	move	$a0, $s0
	pcaddu18i	$ra, %call36(_ZdlPv)
	jirl	$ra, $ra, 0
	move	$a0, $fp
	pcaddu18i	$ra, %call36(_ZdlPv)
	jirl	$ra, $ra, 0
	fld.d	$fs0, $sp, 64                   # 8-byte Folded Reload
	ld.d	$s4, $sp, 72                    # 8-byte Folded Reload
	ld.d	$s3, $sp, 80                    # 8-byte Folded Reload
	ld.d	$s2, $sp, 88                    # 8-byte Folded Reload
	ld.d	$s1, $sp, 96                    # 8-byte Folded Reload
	ld.d	$s0, $sp, 104                   # 8-byte Folded Reload
	ld.d	$fp, $sp, 112                   # 8-byte Folded Reload
	ld.d	$ra, $sp, 120                   # 8-byte Folded Reload
	addi.d	$sp, $sp, 128
	ret
.LBB17_16:
	movgr2fr.d	$fs0, $zero
	b	.LBB17_11
.LBB17_17:                              # %if.then
.Ltmp478:                               # EH_LABEL
	pcalau12i	$a0, %got_pc_hi20(_ZSt4cerr)
	ld.d	$a0, $a0, %got_pc_lo12(_ZSt4cerr)
	pcalau12i	$a1, %pc_hi20(.L.str.337)
	addi.d	$a1, $a1, %pc_lo12(.L.str.337)
	ori	$a2, $zero, 25
	pcaddu18i	$ra, %call36(_ZSt16__ostream_insertIcSt11char_traitsIcEERSt13basic_ostreamIT_T0_ES6_PKS3_l)
	jirl	$ra, $ra, 0
.Ltmp479:                               # EH_LABEL
# %bb.18:                               # %invoke.cont14
.Ltmp480:                               # EH_LABEL
	pcalau12i	$a0, %got_pc_hi20(_ZSt4cerr)
	ld.d	$a0, $a0, %got_pc_lo12(_ZSt4cerr)
	pcalau12i	$a1, %pc_hi20(_ZN12LessThanZero8kDisplayE)
	addi.d	$a1, $a1, %pc_lo12(_ZN12LessThanZero8kDisplayE)
	ori	$a2, $zero, 12
	pcaddu18i	$ra, %call36(_ZSt16__ostream_insertIcSt11char_traitsIcEERSt13basic_ostreamIT_T0_ES6_PKS3_l)
	jirl	$ra, $ra, 0
.Ltmp481:                               # EH_LABEL
# %bb.19:                               # %invoke.cont16
.Ltmp482:                               # EH_LABEL
	pcalau12i	$a0, %got_pc_hi20(_ZSt4cerr)
	ld.d	$a0, $a0, %got_pc_lo12(_ZSt4cerr)
	pcalau12i	$a1, %pc_hi20(.L.str.338)
	addi.d	$a1, $a1, %pc_lo12(.L.str.338)
	ori	$a2, $zero, 5
	pcaddu18i	$ra, %call36(_ZSt16__ostream_insertIcSt11char_traitsIcEERSt13basic_ostreamIT_T0_ES6_PKS3_l)
	jirl	$ra, $ra, 0
.Ltmp483:                               # EH_LABEL
# %bb.20:                               # %invoke.cont18
.Ltmp484:                               # EH_LABEL
	pcalau12i	$a0, %got_pc_hi20(_ZSt4cerr)
	ld.d	$a0, $a0, %got_pc_lo12(_ZSt4cerr)
	pcalau12i	$a1, %pc_hi20(_ZN4None8kDisplayE)
	addi.d	$a1, $a1, %pc_lo12(_ZN4None8kDisplayE)
	ori	$a2, $zero, 4
	pcaddu18i	$ra, %call36(_ZSt16__ostream_insertIcSt11char_traitsIcEERSt13basic_ostreamIT_T0_ES6_PKS3_l)
	jirl	$ra, $ra, 0
.Ltmp485:                               # EH_LABEL
# %bb.21:                               # %invoke.cont20
.Ltmp486:                               # EH_LABEL
	pcalau12i	$a0, %got_pc_hi20(_ZSt4cerr)
	ld.d	$a0, $a0, %got_pc_lo12(_ZSt4cerr)
	pcalau12i	$a1, %pc_hi20(.L.str.339)
	addi.d	$a1, $a1, %pc_lo12(.L.str.339)
	ori	$a2, $zero, 7
	pcaddu18i	$ra, %call36(_ZSt16__ostream_insertIcSt11char_traitsIcEERSt13basic_ostreamIT_T0_ES6_PKS3_l)
	jirl	$ra, $ra, 0
.Ltmp487:                               # EH_LABEL
# %bb.22:                               # %invoke.cont22
.Ltmp488:                               # EH_LABEL
	pcalau12i	$a0, %got_pc_hi20(_ZSt4cerr)
	ld.d	$a0, $a0, %got_pc_lo12(_ZSt4cerr)
	ori	$a1, $zero, 2
	pcaddu18i	$ra, %call36(_ZNSolsEi)
	jirl	$ra, $ra, 0
.Ltmp489:                               # EH_LABEL
# %bb.23:                               # %invoke.cont24
.Ltmp490:                               # EH_LABEL
	pcaddu18i	$ra, %call36(_ZSt4endlIcSt11char_traitsIcEERSt13basic_ostreamIT_T0_ES6_)
	jirl	$ra, $ra, 0
.Ltmp491:                               # EH_LABEL
# %bb.24:                               # %invoke.cont26
	ori	$a0, $zero, 1
	pcaddu18i	$ra, %call36(exit)
	jirl	$ra, $ra, 0
.LBB17_25:                              # %lpad13
.Ltmp492:                               # EH_LABEL
	b	.LBB17_31
.LBB17_26:                              # %lpad4.i
.Ltmp477:                               # EH_LABEL
	ld.d	$a1, $sp, 24
	move	$s1, $a0
	beq	$a1, $s2, .LBB17_32
# %bb.27:                               # %if.then.i.i61
	move	$a0, $a1
	pcaddu18i	$ra, %call36(_ZdlPv)
	jirl	$ra, $ra, 0
	b	.LBB17_32
.LBB17_28:                              # %lpad.i
.Ltmp474:                               # EH_LABEL
	b	.LBB17_31
.LBB17_29:                              # %lpad2
.Ltmp466:                               # EH_LABEL
	move	$s1, $a0
	move	$a0, $fp
	pcaddu18i	$ra, %call36(_ZdlPv)
	jirl	$ra, $ra, 0
	move	$a0, $s1
	pcaddu18i	$ra, %call36(_Unwind_Resume)
	jirl	$ra, $ra, 0
.LBB17_30:                              # %lpad31
.Ltmp471:                               # EH_LABEL
.LBB17_31:                              # %_ZNSt6vectorIcSaIcEED2Ev.exit79
	move	$s1, $a0
.LBB17_32:                              # %_ZNSt6vectorIcSaIcEED2Ev.exit79
	move	$a0, $s0
	pcaddu18i	$ra, %call36(_ZdlPv)
	jirl	$ra, $ra, 0
	move	$a0, $fp
	pcaddu18i	$ra, %call36(_ZdlPv)
	jirl	$ra, $ra, 0
	move	$a0, $s1
	pcaddu18i	$ra, %call36(_Unwind_Resume)
	jirl	$ra, $ra, 0
.Lfunc_end17:
	.size	_Z9BM_MemCmpILi2E12LessThanZero4NoneEvRN9benchmark5StateE, .Lfunc_end17-_Z9BM_MemCmpILi2E12LessThanZero4NoneEvRN9benchmark5StateE
	.cfi_endproc
	.section	.gcc_except_table._Z9BM_MemCmpILi2E12LessThanZero4NoneEvRN9benchmark5StateE,"aG",@progbits,_Z9BM_MemCmpILi2E12LessThanZero4NoneEvRN9benchmark5StateE,comdat
	.p2align	2, 0x0
GCC_except_table17:
.Lexception16:
	.byte	255                             # @LPStart Encoding = omit
	.byte	255                             # @TType Encoding = omit
	.byte	1                               # Call site Encoding = uleb128
	.uleb128 .Lcst_end16-.Lcst_begin16
.Lcst_begin16:
	.uleb128 .Lfunc_begin16-.Lfunc_begin16  # >> Call Site 1 <<
	.uleb128 .Ltmp464-.Lfunc_begin16        #   Call between .Lfunc_begin16 and .Ltmp464
	.byte	0                               #     has no landing pad
	.byte	0                               #   On action: cleanup
	.uleb128 .Ltmp464-.Lfunc_begin16        # >> Call Site 2 <<
	.uleb128 .Ltmp465-.Ltmp464              #   Call between .Ltmp464 and .Ltmp465
	.uleb128 .Ltmp466-.Lfunc_begin16        #     jumps to .Ltmp466
	.byte	0                               #   On action: cleanup
	.uleb128 .Ltmp465-.Lfunc_begin16        # >> Call Site 3 <<
	.uleb128 .Ltmp467-.Ltmp465              #   Call between .Ltmp465 and .Ltmp467
	.byte	0                               #     has no landing pad
	.byte	0                               #   On action: cleanup
	.uleb128 .Ltmp467-.Lfunc_begin16        # >> Call Site 4 <<
	.uleb128 .Ltmp468-.Ltmp467              #   Call between .Ltmp467 and .Ltmp468
	.uleb128 .Ltmp471-.Lfunc_begin16        #     jumps to .Ltmp471
	.byte	0                               #   On action: cleanup
	.uleb128 .Ltmp468-.Lfunc_begin16        # >> Call Site 5 <<
	.uleb128 .Ltmp469-.Ltmp468              #   Call between .Ltmp468 and .Ltmp469
	.byte	0                               #     has no landing pad
	.byte	0                               #   On action: cleanup
	.uleb128 .Ltmp469-.Lfunc_begin16        # >> Call Site 6 <<
	.uleb128 .Ltmp470-.Ltmp469              #   Call between .Ltmp469 and .Ltmp470
	.uleb128 .Ltmp471-.Lfunc_begin16        #     jumps to .Ltmp471
	.byte	0                               #   On action: cleanup
	.uleb128 .Ltmp472-.Lfunc_begin16        # >> Call Site 7 <<
	.uleb128 .Ltmp473-.Ltmp472              #   Call between .Ltmp472 and .Ltmp473
	.uleb128 .Ltmp474-.Lfunc_begin16        #     jumps to .Ltmp474
	.byte	0                               #   On action: cleanup
	.uleb128 .Ltmp475-.Lfunc_begin16        # >> Call Site 8 <<
	.uleb128 .Ltmp476-.Ltmp475              #   Call between .Ltmp475 and .Ltmp476
	.uleb128 .Ltmp477-.Lfunc_begin16        #     jumps to .Ltmp477
	.byte	0                               #   On action: cleanup
	.uleb128 .Ltmp476-.Lfunc_begin16        # >> Call Site 9 <<
	.uleb128 .Ltmp478-.Ltmp476              #   Call between .Ltmp476 and .Ltmp478
	.byte	0                               #     has no landing pad
	.byte	0                               #   On action: cleanup
	.uleb128 .Ltmp478-.Lfunc_begin16        # >> Call Site 10 <<
	.uleb128 .Ltmp491-.Ltmp478              #   Call between .Ltmp478 and .Ltmp491
	.uleb128 .Ltmp492-.Lfunc_begin16        #     jumps to .Ltmp492
	.byte	0                               #   On action: cleanup
	.uleb128 .Ltmp491-.Lfunc_begin16        # >> Call Site 11 <<
	.uleb128 .Lfunc_end17-.Ltmp491          #   Call between .Ltmp491 and .Lfunc_end17
	.byte	0                               #     has no landing pad
	.byte	0                               #   On action: cleanup
.Lcst_end16:
	.p2align	2, 0x0
                                        # -- End function
	.section	.rodata.cst16,"aM",@progbits,16
	.p2align	4, 0x0                          # -- Begin function _Z9BM_MemCmpILi2E12LessThanZero5FirstEvRN9benchmark5StateE
.LCPI18_0:
	.dword	14                              # 0xe
	.dword	15                              # 0xf
.LCPI18_1:
	.dword	12                              # 0xc
	.dword	13                              # 0xd
.LCPI18_2:
	.dword	10                              # 0xa
	.dword	11                              # 0xb
.LCPI18_3:
	.dword	8                               # 0x8
	.dword	9                               # 0x9
.LCPI18_4:
	.dword	6                               # 0x6
	.dword	7                               # 0x7
.LCPI18_5:
	.dword	4                               # 0x4
	.dword	5                               # 0x5
.LCPI18_6:
	.dword	2                               # 0x2
	.dword	3                               # 0x3
.LCPI18_7:
	.dword	0                               # 0x0
	.dword	1                               # 0x1
	.section	.text._Z9BM_MemCmpILi2E12LessThanZero5FirstEvRN9benchmark5StateE,"axG",@progbits,_Z9BM_MemCmpILi2E12LessThanZero5FirstEvRN9benchmark5StateE,comdat
	.weak	_Z9BM_MemCmpILi2E12LessThanZero5FirstEvRN9benchmark5StateE
	.p2align	5
	.type	_Z9BM_MemCmpILi2E12LessThanZero5FirstEvRN9benchmark5StateE,@function
_Z9BM_MemCmpILi2E12LessThanZero5FirstEvRN9benchmark5StateE: # @_Z9BM_MemCmpILi2E12LessThanZero5FirstEvRN9benchmark5StateE
.Lfunc_begin17:
	.cfi_startproc
	.cfi_personality 155, DW.ref.__gxx_personality_v0
	.cfi_lsda 27, .Lexception17
# %bb.0:                                # %entry
	addi.d	$sp, $sp, -128
	.cfi_def_cfa_offset 128
	st.d	$ra, $sp, 120                   # 8-byte Folded Spill
	st.d	$fp, $sp, 112                   # 8-byte Folded Spill
	st.d	$s0, $sp, 104                   # 8-byte Folded Spill
	st.d	$s1, $sp, 96                    # 8-byte Folded Spill
	st.d	$s2, $sp, 88                    # 8-byte Folded Spill
	st.d	$s3, $sp, 80                    # 8-byte Folded Spill
	st.d	$s4, $sp, 72                    # 8-byte Folded Spill
	fst.d	$fs0, $sp, 64                   # 8-byte Folded Spill
	.cfi_offset 1, -8
	.cfi_offset 22, -16
	.cfi_offset 23, -24
	.cfi_offset 24, -32
	.cfi_offset 25, -40
	.cfi_offset 26, -48
	.cfi_offset 27, -56
	.cfi_offset 56, -64
	move	$s1, $a0
	lu12i.w	$s0, 1
	move	$a0, $s0
	pcaddu18i	$ra, %call36(_Znwm)
	jirl	$ra, $ra, 0
	move	$fp, $a0
	move	$a1, $zero
	move	$a2, $s0
	pcaddu18i	$ra, %call36(memset)
	jirl	$ra, $ra, 0
.Ltmp493:                               # EH_LABEL
	move	$a0, $s0
	pcaddu18i	$ra, %call36(_Znwm)
	jirl	$ra, $ra, 0
.Ltmp494:                               # EH_LABEL
# %bb.1:                                # %invoke.cont3
	move	$s0, $a0
	lu12i.w	$s2, 1
	move	$a1, $zero
	move	$a2, $s2
	pcaddu18i	$ra, %call36(memset)
	jirl	$ra, $ra, 0
	st.d	$fp, $sp, 16
	pcalau12i	$a0, %pc_hi20(.LCPI18_0)
	vld	$vr0, $a0, %pc_lo12(.LCPI18_0)
	pcalau12i	$a0, %pc_hi20(.LCPI18_1)
	vld	$vr1, $a0, %pc_lo12(.LCPI18_1)
	pcalau12i	$a0, %pc_hi20(.LCPI18_2)
	vld	$vr2, $a0, %pc_lo12(.LCPI18_2)
	pcalau12i	$a0, %pc_hi20(.LCPI18_3)
	vld	$vr3, $a0, %pc_lo12(.LCPI18_3)
	pcalau12i	$a0, %pc_hi20(.LCPI18_4)
	vld	$vr4, $a0, %pc_lo12(.LCPI18_4)
	pcalau12i	$a0, %pc_hi20(.LCPI18_5)
	vld	$vr5, $a0, %pc_lo12(.LCPI18_5)
	pcalau12i	$a0, %pc_hi20(.LCPI18_6)
	vld	$vr6, $a0, %pc_lo12(.LCPI18_6)
	pcalau12i	$a0, %pc_hi20(.LCPI18_7)
	vld	$vr7, $a0, %pc_lo12(.LCPI18_7)
	st.d	$s0, $sp, 8
	ori	$a0, $zero, 2048
	ori	$a1, $zero, 255
	.p2align	4, , 16
.LBB18_2:                               # %vector.body
                                        # =>This Inner Loop Header: Depth=1
	vslli.d	$vr8, $vr0, 1
	vslli.d	$vr9, $vr1, 1
	vslli.d	$vr10, $vr2, 1
	vslli.d	$vr11, $vr3, 1
	vslli.d	$vr12, $vr4, 1
	vslli.d	$vr13, $vr5, 1
	vslli.d	$vr14, $vr6, 1
	vslli.d	$vr15, $vr7, 1
	vpickve2gr.d	$a2, $vr15, 0
	vpickve2gr.d	$a3, $vr15, 1
	vpickve2gr.d	$a4, $vr14, 0
	vpickve2gr.d	$a5, $vr14, 1
	vpickve2gr.d	$a6, $vr13, 0
	vpickve2gr.d	$a7, $vr13, 1
	vpickve2gr.d	$t0, $vr12, 0
	vpickve2gr.d	$t1, $vr12, 1
	vpickve2gr.d	$t2, $vr11, 0
	vpickve2gr.d	$t3, $vr11, 1
	vpickve2gr.d	$t4, $vr10, 0
	vpickve2gr.d	$t5, $vr10, 1
	vpickve2gr.d	$t6, $vr9, 0
	vpickve2gr.d	$t7, $vr9, 1
	vpickve2gr.d	$t8, $vr8, 0
	vpickve2gr.d	$s3, $vr8, 1
	stx.b	$a1, $fp, $a2
	stx.b	$a1, $fp, $a3
	stx.b	$a1, $fp, $a4
	stx.b	$a1, $fp, $a5
	stx.b	$a1, $fp, $a6
	stx.b	$a1, $fp, $a7
	stx.b	$a1, $fp, $t0
	stx.b	$a1, $fp, $t1
	stx.b	$a1, $fp, $t2
	stx.b	$a1, $fp, $t3
	stx.b	$a1, $fp, $t4
	stx.b	$a1, $fp, $t5
	stx.b	$a1, $fp, $t6
	stx.b	$a1, $fp, $t7
	stx.b	$a1, $fp, $t8
	stx.b	$a1, $fp, $s3
	vaddi.du	$vr7, $vr7, 16
	vaddi.du	$vr6, $vr6, 16
	vaddi.du	$vr5, $vr5, 16
	vaddi.du	$vr4, $vr4, 16
	vaddi.du	$vr3, $vr3, 16
	vaddi.du	$vr2, $vr2, 16
	vaddi.du	$vr1, $vr1, 16
	addi.d	$a0, $a0, -16
	vaddi.du	$vr0, $vr0, 16
	bnez	$a0, .LBB18_2
# %bb.3:                                # %for.cond.cleanup
	ori	$a2, $zero, 2
	move	$a0, $fp
	move	$a1, $s0
	pcaddu18i	$ra, %call36(_Z10RealMemCmpPKcS0_m)
	jirl	$ra, $ra, 0
	move	$s3, $a0
	ori	$a2, $zero, 2
	move	$a0, $fp
	move	$a1, $s0
	pcaddu18i	$ra, %call36(memcmp)
	jirl	$ra, $ra, 0
	xor	$a0, $a0, $s3
	bltz	$a0, .LBB18_19
# %bb.4:                                # %if.end
	addi.d	$a0, $sp, 16
	#APP
	#NO_APP
	addi.d	$a0, $sp, 8
	#APP
	#NO_APP
	ld.w	$s4, $s1, 28
	ld.d	$s3, $s1, 16
.Ltmp496:                               # EH_LABEL
	move	$a0, $s1
	pcaddu18i	$ra, %call36(_ZN9benchmark5State16StartKeepRunningEv)
	jirl	$ra, $ra, 0
.Ltmp497:                               # EH_LABEL
# %bb.5:                                # %for.cond34.preheader
	bnez	$s4, .LBB18_10
