	.file	"LoopInterleaving.cpp"
                                        # Start of file scope inline assembly
	.globl	_ZSt21ios_base_library_initv

                                        # End of file scope inline assembly
	.text
	.globl	_Z22benchAutoVecForLoopTC1RN9benchmark5StateE # -- Begin function _Z22benchAutoVecForLoopTC1RN9benchmark5StateE
	.p2align	5
	.type	_Z22benchAutoVecForLoopTC1RN9benchmark5StateE,@function
_Z22benchAutoVecForLoopTC1RN9benchmark5StateE: # @_Z22benchAutoVecForLoopTC1RN9benchmark5StateE
	.cfi_startproc
# %bb.0:                                # %entry
	addi.d	$sp, $sp, -96
	.cfi_def_cfa_offset 96
	st.d	$ra, $sp, 88                    # 8-byte Folded Spill
	st.d	$fp, $sp, 80                    # 8-byte Folded Spill
	st.d	$s0, $sp, 72                    # 8-byte Folded Spill
	st.d	$s1, $sp, 64                    # 8-byte Folded Spill
	st.d	$s2, $sp, 56                    # 8-byte Folded Spill
	st.d	$s3, $sp, 48                    # 8-byte Folded Spill
	st.d	$s4, $sp, 40                    # 8-byte Folded Spill
	st.d	$s5, $sp, 32                    # 8-byte Folded Spill
	st.d	$s6, $sp, 24                    # 8-byte Folded Spill
	st.d	$s7, $sp, 16                    # 8-byte Folded Spill
	.cfi_offset 1, -8
	.cfi_offset 22, -16
	.cfi_offset 23, -24
	.cfi_offset 24, -32
	.cfi_offset 25, -40
	.cfi_offset 26, -48
	.cfi_offset 27, -56
	.cfi_offset 28, -64
	.cfi_offset 29, -72
	.cfi_offset 30, -80
	move	$fp, $a0
	pcaddu18i	$ra, %call36(_ZL9init_dataj)
	jirl	$ra, $ra, 0
	ld.w	$s1, $fp, 28
	ld.d	$s0, $fp, 16
	move	$a0, $fp
	pcaddu18i	$ra, %call36(_ZN9benchmark5State16StartKeepRunningEv)
	jirl	$ra, $ra, 0
	bnez	$s1, .LBB0_4
# %bb.1:                                # %entry
	beqz	$s0, .LBB0_4
# %bb.2:                                # %for.body.i.preheader
	pcalau12i	$s1, %pc_hi20(A)
	pcalau12i	$s2, %pc_hi20(B)
	pcalau12i	$s3, %pc_hi20(C)
	pcalau12i	$s4, %pc_hi20(D)
	pcalau12i	$s5, %pc_hi20(E)
	pcalau12i	$s6, %pc_hi20(F)
	pcalau12i	$s7, %pc_hi20(g_sum)
	.p2align	4, , 16
.LBB0_3:                                # %for.body.i
                                        # =>This Inner Loop Header: Depth=1
	#APP
	#NO_APP
	#APP
	#NO_APP
	#APP
	#NO_APP
	#APP
	#NO_APP
	#APP
	#NO_APP
	#APP
	#NO_APP
	#MEMBARRIER
	ori	$a0, $zero, 1
	pcaddu18i	$ra, %call36(_ZL22loopNoReductionAutoVeci)
	jirl	$ra, $ra, 0
	ld.w	$a1, $s7, %pc_lo12(g_sum)
	add.d	$a0, $a1, $a0
	addi.d	$s0, $s0, -1
	st.w	$a0, $s7, %pc_lo12(g_sum)
	bnez	$s0, .LBB0_3
.LBB0_4:                                # %_ZL27runBenchForLoopInterleavingRN9benchmark5StateEPFiiEi.exit
	move	$a0, $fp
	ld.d	$s7, $sp, 16                    # 8-byte Folded Reload
	ld.d	$s6, $sp, 24                    # 8-byte Folded Reload
	ld.d	$s5, $sp, 32                    # 8-byte Folded Reload
	ld.d	$s4, $sp, 40                    # 8-byte Folded Reload
	ld.d	$s3, $sp, 48                    # 8-byte Folded Reload
	ld.d	$s2, $sp, 56                    # 8-byte Folded Reload
	ld.d	$s1, $sp, 64                    # 8-byte Folded Reload
	ld.d	$s0, $sp, 72                    # 8-byte Folded Reload
	ld.d	$fp, $sp, 80                    # 8-byte Folded Reload
	ld.d	$ra, $sp, 88                    # 8-byte Folded Reload
	addi.d	$sp, $sp, 96
	pcaddu18i	$t8, %call36(_ZN9benchmark5State17FinishKeepRunningEv)
	jr	$t8
.Lfunc_end0:
	.size	_Z22benchAutoVecForLoopTC1RN9benchmark5StateE, .Lfunc_end0-_Z22benchAutoVecForLoopTC1RN9benchmark5StateE
	.cfi_endproc
                                        # -- End function
	.p2align	5                               # -- Begin function _ZL22loopNoReductionAutoVeci
	.type	_ZL22loopNoReductionAutoVeci,@function
_ZL22loopNoReductionAutoVeci:           # @_ZL22loopNoReductionAutoVeci
# %bb.0:                                # %entry
	ori	$a1, $zero, 1
	blt	$a0, $a1, .LBB1_8
# %bb.1:                                # %for.body.preheader
	ori	$a1, $zero, 8
	bgeu	$a0, $a1, .LBB1_3
# %bb.2:
	move	$a1, $zero
	b	.LBB1_6
.LBB1_3:                                # %vector.ph
	pcalau12i	$a1, %pc_hi20(A)
	addi.d	$a2, $a1, %pc_lo12(A)
	pcalau12i	$a1, %pc_hi20(C)
	addi.d	$a3, $a1, %pc_lo12(C)
	pcalau12i	$a4, %pc_hi20(B)
	bstrpick.d	$a1, $a0, 30, 3
	slli.d	$a1, $a1, 3
	addi.d	$a4, $a4, %pc_lo12(B)
	move	$a5, $a1
	.p2align	4, , 16
.LBB1_4:                                # %vector.body
                                        # =>This Inner Loop Header: Depth=1
	xvld	$xr0, $a4, 0
	xvld	$xr1, $a3, 0
	xvadd.w	$xr0, $xr1, $xr0
	xvst	$xr0, $a2, 0
	addi.d	$a5, $a5, -8
	addi.d	$a2, $a2, 32
	addi.d	$a3, $a3, 32
	addi.d	$a4, $a4, 32
	bnez	$a5, .LBB1_4
# %bb.5:                                # %middle.block
	beq	$a1, $a0, .LBB1_8
.LBB1_6:                                # %for.body.preheader8
	pcalau12i	$a2, %pc_hi20(A)
	addi.d	$a2, $a2, %pc_lo12(A)
	alsl.d	$a2, $a1, $a2, 2
	pcalau12i	$a3, %pc_hi20(C)
	addi.d	$a3, $a3, %pc_lo12(C)
	alsl.d	$a3, $a1, $a3, 2
	pcalau12i	$a4, %pc_hi20(B)
	addi.d	$a4, $a4, %pc_lo12(B)
	alsl.d	$a4, $a1, $a4, 2
	sub.d	$a0, $a0, $a1
	.p2align	4, , 16
.LBB1_7:                                # %for.body
                                        # =>This Inner Loop Header: Depth=1
	ld.w	$a1, $a4, 0
	ld.w	$a5, $a3, 0
	add.d	$a1, $a5, $a1
	st.w	$a1, $a2, 0
	addi.d	$a2, $a2, 4
	addi.d	$a3, $a3, 4
	addi.d	$a0, $a0, -1
	addi.d	$a4, $a4, 4
	bnez	$a0, .LBB1_7
.LBB1_8:                                # %for.cond.cleanup
	move	$a0, $zero
	ret
.Lfunc_end1:
	.size	_ZL22loopNoReductionAutoVeci, .Lfunc_end1-_ZL22loopNoReductionAutoVeci
                                        # -- End function
	.globl	_Z21benchForIC1VW4LoopTC1RN9benchmark5StateE # -- Begin function _Z21benchForIC1VW4LoopTC1RN9benchmark5StateE
	.p2align	5
	.type	_Z21benchForIC1VW4LoopTC1RN9benchmark5StateE,@function
_Z21benchForIC1VW4LoopTC1RN9benchmark5StateE: # @_Z21benchForIC1VW4LoopTC1RN9benchmark5StateE
	.cfi_startproc
# %bb.0:                                # %entry
	addi.d	$sp, $sp, -96
	.cfi_def_cfa_offset 96
	st.d	$ra, $sp, 88                    # 8-byte Folded Spill
	st.d	$fp, $sp, 80                    # 8-byte Folded Spill
	st.d	$s0, $sp, 72                    # 8-byte Folded Spill
	st.d	$s1, $sp, 64                    # 8-byte Folded Spill
	st.d	$s2, $sp, 56                    # 8-byte Folded Spill
	st.d	$s3, $sp, 48                    # 8-byte Folded Spill
	st.d	$s4, $sp, 40                    # 8-byte Folded Spill
	st.d	$s5, $sp, 32                    # 8-byte Folded Spill
	st.d	$s6, $sp, 24                    # 8-byte Folded Spill
	st.d	$s7, $sp, 16                    # 8-byte Folded Spill
	.cfi_offset 1, -8
	.cfi_offset 22, -16
	.cfi_offset 23, -24
	.cfi_offset 24, -32
	.cfi_offset 25, -40
	.cfi_offset 26, -48
	.cfi_offset 27, -56
	.cfi_offset 28, -64
	.cfi_offset 29, -72
	.cfi_offset 30, -80
	move	$fp, $a0
	pcaddu18i	$ra, %call36(_ZL9init_dataj)
	jirl	$ra, $ra, 0
	ld.w	$s1, $fp, 28
	ld.d	$s0, $fp, 16
	move	$a0, $fp
	pcaddu18i	$ra, %call36(_ZN9benchmark5State16StartKeepRunningEv)
	jirl	$ra, $ra, 0
	bnez	$s1, .LBB2_4
# %bb.1:                                # %entry
	beqz	$s0, .LBB2_4
# %bb.2:                                # %for.body.i.preheader
	pcalau12i	$s1, %pc_hi20(A)
	pcalau12i	$s2, %pc_hi20(B)
	pcalau12i	$s3, %pc_hi20(C)
	pcalau12i	$s4, %pc_hi20(D)
	pcalau12i	$s5, %pc_hi20(E)
	pcalau12i	$s6, %pc_hi20(F)
	pcalau12i	$s7, %pc_hi20(g_sum)
	.p2align	4, , 16
.LBB2_3:                                # %for.body.i
                                        # =>This Inner Loop Header: Depth=1
	#APP
	#NO_APP
	#APP
	#NO_APP
	#APP
	#NO_APP
	#APP
	#NO_APP
	#APP
	#NO_APP
	#APP
	#NO_APP
	#MEMBARRIER
	ori	$a0, $zero, 1
	pcaddu18i	$ra, %call36(_ZL14loopWithVW4IC1i)
	jirl	$ra, $ra, 0
	ld.w	$a1, $s7, %pc_lo12(g_sum)
	add.d	$a0, $a1, $a0
	addi.d	$s0, $s0, -1
	st.w	$a0, $s7, %pc_lo12(g_sum)
	bnez	$s0, .LBB2_3
.LBB2_4:                                # %_ZL27runBenchForLoopInterleavingRN9benchmark5StateEPFiiEi.exit
	move	$a0, $fp
	ld.d	$s7, $sp, 16                    # 8-byte Folded Reload
	ld.d	$s6, $sp, 24                    # 8-byte Folded Reload
	ld.d	$s5, $sp, 32                    # 8-byte Folded Reload
	ld.d	$s4, $sp, 40                    # 8-byte Folded Reload
	ld.d	$s3, $sp, 48                    # 8-byte Folded Reload
	ld.d	$s2, $sp, 56                    # 8-byte Folded Reload
	ld.d	$s1, $sp, 64                    # 8-byte Folded Reload
	ld.d	$s0, $sp, 72                    # 8-byte Folded Reload
	ld.d	$fp, $sp, 80                    # 8-byte Folded Reload
	ld.d	$ra, $sp, 88                    # 8-byte Folded Reload
	addi.d	$sp, $sp, 96
	pcaddu18i	$t8, %call36(_ZN9benchmark5State17FinishKeepRunningEv)
	jr	$t8
.Lfunc_end2:
	.size	_Z21benchForIC1VW4LoopTC1RN9benchmark5StateE, .Lfunc_end2-_Z21benchForIC1VW4LoopTC1RN9benchmark5StateE
	.cfi_endproc
                                        # -- End function
	.p2align	5                               # -- Begin function _ZL14loopWithVW4IC1i
	.type	_ZL14loopWithVW4IC1i,@function
_ZL14loopWithVW4IC1i:                   # @_ZL14loopWithVW4IC1i
# %bb.0:                                # %entry
	ori	$a1, $zero, 1
	blt	$a0, $a1, .LBB3_8
# %bb.1:                                # %for.body.preheader
	ori	$a1, $zero, 4
	bgeu	$a0, $a1, .LBB3_3
# %bb.2:
	move	$a1, $zero
	b	.LBB3_6
.LBB3_3:                                # %vector.ph
	pcalau12i	$a1, %pc_hi20(A)
	addi.d	$a2, $a1, %pc_lo12(A)
	pcalau12i	$a1, %pc_hi20(C)
	addi.d	$a3, $a1, %pc_lo12(C)
	pcalau12i	$a4, %pc_hi20(B)
	bstrpick.d	$a1, $a0, 30, 2
	slli.d	$a1, $a1, 2
	addi.d	$a4, $a4, %pc_lo12(B)
	move	$a5, $a1
	.p2align	4, , 16
.LBB3_4:                                # %vector.body
                                        # =>This Inner Loop Header: Depth=1
	vld	$vr0, $a4, 0
	vld	$vr1, $a3, 0
	vadd.w	$vr0, $vr1, $vr0
	vst	$vr0, $a2, 0
	addi.d	$a5, $a5, -4
	addi.d	$a2, $a2, 16
	addi.d	$a3, $a3, 16
	addi.d	$a4, $a4, 16
	bnez	$a5, .LBB3_4
# %bb.5:                                # %middle.block
	beq	$a1, $a0, .LBB3_8
.LBB3_6:                                # %for.body.preheader8
	pcalau12i	$a2, %pc_hi20(A)
	addi.d	$a2, $a2, %pc_lo12(A)
	alsl.d	$a2, $a1, $a2, 2
	pcalau12i	$a3, %pc_hi20(C)
	addi.d	$a3, $a3, %pc_lo12(C)
	alsl.d	$a3, $a1, $a3, 2
	pcalau12i	$a4, %pc_hi20(B)
	addi.d	$a4, $a4, %pc_lo12(B)
	alsl.d	$a4, $a1, $a4, 2
	sub.d	$a0, $a0, $a1
	.p2align	4, , 16
.LBB3_7:                                # %for.body
                                        # =>This Inner Loop Header: Depth=1
	ld.w	$a1, $a4, 0
	ld.w	$a5, $a3, 0
	add.d	$a1, $a5, $a1
	st.w	$a1, $a2, 0
	addi.d	$a2, $a2, 4
	addi.d	$a3, $a3, 4
	addi.d	$a0, $a0, -1
	addi.d	$a4, $a4, 4
	bnez	$a0, .LBB3_7
.LBB3_8:                                # %for.cond.cleanup
	move	$a0, $zero
	ret
.Lfunc_end3:
	.size	_ZL14loopWithVW4IC1i, .Lfunc_end3-_ZL14loopWithVW4IC1i
                                        # -- End function
	.globl	_Z21benchForIC2VW4LoopTC1RN9benchmark5StateE # -- Begin function _Z21benchForIC2VW4LoopTC1RN9benchmark5StateE
	.p2align	5
	.type	_Z21benchForIC2VW4LoopTC1RN9benchmark5StateE,@function
_Z21benchForIC2VW4LoopTC1RN9benchmark5StateE: # @_Z21benchForIC2VW4LoopTC1RN9benchmark5StateE
	.cfi_startproc
# %bb.0:                                # %entry
	addi.d	$sp, $sp, -96
	.cfi_def_cfa_offset 96
	st.d	$ra, $sp, 88                    # 8-byte Folded Spill
	st.d	$fp, $sp, 80                    # 8-byte Folded Spill
	st.d	$s0, $sp, 72                    # 8-byte Folded Spill
	st.d	$s1, $sp, 64                    # 8-byte Folded Spill
	st.d	$s2, $sp, 56                    # 8-byte Folded Spill
	st.d	$s3, $sp, 48                    # 8-byte Folded Spill
	st.d	$s4, $sp, 40                    # 8-byte Folded Spill
	st.d	$s5, $sp, 32                    # 8-byte Folded Spill
	st.d	$s6, $sp, 24                    # 8-byte Folded Spill
	st.d	$s7, $sp, 16                    # 8-byte Folded Spill
	.cfi_offset 1, -8
	.cfi_offset 22, -16
	.cfi_offset 23, -24
	.cfi_offset 24, -32
	.cfi_offset 25, -40
	.cfi_offset 26, -48
	.cfi_offset 27, -56
	.cfi_offset 28, -64
	.cfi_offset 29, -72
	.cfi_offset 30, -80
	move	$fp, $a0
	pcaddu18i	$ra, %call36(_ZL9init_dataj)
	jirl	$ra, $ra, 0
	ld.w	$s1, $fp, 28
	ld.d	$s0, $fp, 16
	move	$a0, $fp
	pcaddu18i	$ra, %call36(_ZN9benchmark5State16StartKeepRunningEv)
	jirl	$ra, $ra, 0
	bnez	$s1, .LBB4_4
# %bb.1:                                # %entry
	beqz	$s0, .LBB4_4
# %bb.2:                                # %for.body.i.preheader
	pcalau12i	$s1, %pc_hi20(A)
	pcalau12i	$s2, %pc_hi20(B)
	pcalau12i	$s3, %pc_hi20(C)
	pcalau12i	$s4, %pc_hi20(D)
	pcalau12i	$s5, %pc_hi20(E)
	pcalau12i	$s6, %pc_hi20(F)
	pcalau12i	$s7, %pc_hi20(g_sum)
	.p2align	4, , 16
.LBB4_3:                                # %for.body.i
                                        # =>This Inner Loop Header: Depth=1
	#APP
	#NO_APP
	#APP
	#NO_APP
	#APP
	#NO_APP
	#APP
	#NO_APP
	#APP
	#NO_APP
	#APP
	#NO_APP
	#MEMBARRIER
	ori	$a0, $zero, 1
	pcaddu18i	$ra, %call36(_ZL14loopWithVW4IC2i)
	jirl	$ra, $ra, 0
	ld.w	$a1, $s7, %pc_lo12(g_sum)
	add.d	$a0, $a1, $a0
	addi.d	$s0, $s0, -1
	st.w	$a0, $s7, %pc_lo12(g_sum)
	bnez	$s0, .LBB4_3
.LBB4_4:                                # %_ZL27runBenchForLoopInterleavingRN9benchmark5StateEPFiiEi.exit
	move	$a0, $fp
	ld.d	$s7, $sp, 16                    # 8-byte Folded Reload
	ld.d	$s6, $sp, 24                    # 8-byte Folded Reload
	ld.d	$s5, $sp, 32                    # 8-byte Folded Reload
	ld.d	$s4, $sp, 40                    # 8-byte Folded Reload
	ld.d	$s3, $sp, 48                    # 8-byte Folded Reload
	ld.d	$s2, $sp, 56                    # 8-byte Folded Reload
	ld.d	$s1, $sp, 64                    # 8-byte Folded Reload
	ld.d	$s0, $sp, 72                    # 8-byte Folded Reload
	ld.d	$fp, $sp, 80                    # 8-byte Folded Reload
	ld.d	$ra, $sp, 88                    # 8-byte Folded Reload
	addi.d	$sp, $sp, 96
	pcaddu18i	$t8, %call36(_ZN9benchmark5State17FinishKeepRunningEv)
	jr	$t8
.Lfunc_end4:
	.size	_Z21benchForIC2VW4LoopTC1RN9benchmark5StateE, .Lfunc_end4-_Z21benchForIC2VW4LoopTC1RN9benchmark5StateE
	.cfi_endproc
                                        # -- End function
	.p2align	5                               # -- Begin function _ZL14loopWithVW4IC2i
	.type	_ZL14loopWithVW4IC2i,@function
_ZL14loopWithVW4IC2i:                   # @_ZL14loopWithVW4IC2i
# %bb.0:                                # %entry
	ori	$a1, $zero, 1
	blt	$a0, $a1, .LBB5_8
# %bb.1:                                # %for.body.preheader
	ori	$a4, $zero, 8
	pcalau12i	$a1, %pc_hi20(A)
	addi.d	$a1, $a1, %pc_lo12(A)
	pcalau12i	$a2, %pc_hi20(C)
	addi.d	$a2, $a2, %pc_lo12(C)
	pcalau12i	$a3, %pc_hi20(B)
	addi.d	$a3, $a3, %pc_lo12(B)
	bgeu	$a0, $a4, .LBB5_3
# %bb.2:
	move	$a4, $zero
	b	.LBB5_6
.LBB5_3:                                # %vector.ph
	addi.d	$a5, $a1, 16
	addi.d	$a6, $a2, 16
	bstrpick.d	$a4, $a0, 30, 3
	slli.d	$a4, $a4, 3
	addi.d	$a7, $a3, 16
	move	$t0, $a4
	.p2align	4, , 16
.LBB5_4:                                # %vector.body
                                        # =>This Inner Loop Header: Depth=1
	vld	$vr0, $a7, -16
	vld	$vr1, $a7, 0
	vld	$vr2, $a6, -16
	vld	$vr3, $a6, 0
	vadd.w	$vr0, $vr2, $vr0
	vadd.w	$vr1, $vr3, $vr1
	vst	$vr0, $a5, -16
	vst	$vr1, $a5, 0
	addi.d	$t0, $t0, -8
	addi.d	$a5, $a5, 32
	addi.d	$a6, $a6, 32
	addi.d	$a7, $a7, 32
	bnez	$t0, .LBB5_4
# %bb.5:                                # %middle.block
	beq	$a4, $a0, .LBB5_8
.LBB5_6:                                # %for.body.preheader10
	alsl.d	$a1, $a4, $a1, 2
	alsl.d	$a2, $a4, $a2, 2
	alsl.d	$a3, $a4, $a3, 2
	sub.d	$a0, $a0, $a4
	.p2align	4, , 16
.LBB5_7:                                # %for.body
                                        # =>This Inner Loop Header: Depth=1
	ld.w	$a4, $a3, 0
	ld.w	$a5, $a2, 0
	add.d	$a4, $a5, $a4
	st.w	$a4, $a1, 0
	addi.d	$a1, $a1, 4
	addi.d	$a2, $a2, 4
	addi.d	$a0, $a0, -1
	addi.d	$a3, $a3, 4
	bnez	$a0, .LBB5_7
.LBB5_8:                                # %for.cond.cleanup
	move	$a0, $zero
	ret
.Lfunc_end5:
	.size	_ZL14loopWithVW4IC2i, .Lfunc_end5-_ZL14loopWithVW4IC2i
                                        # -- End function
	.globl	_Z21benchForIC4VW4LoopTC1RN9benchmark5StateE # -- Begin function _Z21benchForIC4VW4LoopTC1RN9benchmark5StateE
	.p2align	5
	.type	_Z21benchForIC4VW4LoopTC1RN9benchmark5StateE,@function
_Z21benchForIC4VW4LoopTC1RN9benchmark5StateE: # @_Z21benchForIC4VW4LoopTC1RN9benchmark5StateE
	.cfi_startproc
# %bb.0:                                # %entry
	addi.d	$sp, $sp, -96
	.cfi_def_cfa_offset 96
	st.d	$ra, $sp, 88                    # 8-byte Folded Spill
	st.d	$fp, $sp, 80                    # 8-byte Folded Spill
	st.d	$s0, $sp, 72                    # 8-byte Folded Spill
	st.d	$s1, $sp, 64                    # 8-byte Folded Spill
	st.d	$s2, $sp, 56                    # 8-byte Folded Spill
	st.d	$s3, $sp, 48                    # 8-byte Folded Spill
	st.d	$s4, $sp, 40                    # 8-byte Folded Spill
	st.d	$s5, $sp, 32                    # 8-byte Folded Spill
	st.d	$s6, $sp, 24                    # 8-byte Folded Spill
	st.d	$s7, $sp, 16                    # 8-byte Folded Spill
	.cfi_offset 1, -8
	.cfi_offset 22, -16
	.cfi_offset 23, -24
	.cfi_offset 24, -32
	.cfi_offset 25, -40
	.cfi_offset 26, -48
	.cfi_offset 27, -56
	.cfi_offset 28, -64
	.cfi_offset 29, -72
	.cfi_offset 30, -80
	move	$fp, $a0
	pcaddu18i	$ra, %call36(_ZL9init_dataj)
	jirl	$ra, $ra, 0
	ld.w	$s1, $fp, 28
	ld.d	$s0, $fp, 16
	move	$a0, $fp
	pcaddu18i	$ra, %call36(_ZN9benchmark5State16StartKeepRunningEv)
	jirl	$ra, $ra, 0
	bnez	$s1, .LBB6_4
# %bb.1:                                # %entry
	beqz	$s0, .LBB6_4
# %bb.2:                                # %for.body.i.preheader
	pcalau12i	$s1, %pc_hi20(A)
	pcalau12i	$s2, %pc_hi20(B)
	pcalau12i	$s3, %pc_hi20(C)
	pcalau12i	$s4, %pc_hi20(D)
	pcalau12i	$s5, %pc_hi20(E)
	pcalau12i	$s6, %pc_hi20(F)
	pcalau12i	$s7, %pc_hi20(g_sum)
	.p2align	4, , 16
.LBB6_3:                                # %for.body.i
                                        # =>This Inner Loop Header: Depth=1
	#APP
	#NO_APP
	#APP
	#NO_APP
	#APP
	#NO_APP
	#APP
	#NO_APP
	#APP
	#NO_APP
	#APP
	#NO_APP
	#MEMBARRIER
	ori	$a0, $zero, 1
	pcaddu18i	$ra, %call36(_ZL14loopWithVW4IC4i)
	jirl	$ra, $ra, 0
	ld.w	$a1, $s7, %pc_lo12(g_sum)
	add.d	$a0, $a1, $a0
	addi.d	$s0, $s0, -1
	st.w	$a0, $s7, %pc_lo12(g_sum)
	bnez	$s0, .LBB6_3
.LBB6_4:                                # %_ZL27runBenchForLoopInterleavingRN9benchmark5StateEPFiiEi.exit
	move	$a0, $fp
	ld.d	$s7, $sp, 16                    # 8-byte Folded Reload
	ld.d	$s6, $sp, 24                    # 8-byte Folded Reload
	ld.d	$s5, $sp, 32                    # 8-byte Folded Reload
	ld.d	$s4, $sp, 40                    # 8-byte Folded Reload
	ld.d	$s3, $sp, 48                    # 8-byte Folded Reload
	ld.d	$s2, $sp, 56                    # 8-byte Folded Reload
	ld.d	$s1, $sp, 64                    # 8-byte Folded Reload
	ld.d	$s0, $sp, 72                    # 8-byte Folded Reload
	ld.d	$fp, $sp, 80                    # 8-byte Folded Reload
	ld.d	$ra, $sp, 88                    # 8-byte Folded Reload
	addi.d	$sp, $sp, 96
	pcaddu18i	$t8, %call36(_ZN9benchmark5State17FinishKeepRunningEv)
	jr	$t8
.Lfunc_end6:
	.size	_Z21benchForIC4VW4LoopTC1RN9benchmark5StateE, .Lfunc_end6-_Z21benchForIC4VW4LoopTC1RN9benchmark5StateE
	.cfi_endproc
                                        # -- End function
	.p2align	5                               # -- Begin function _ZL14loopWithVW4IC4i
	.type	_ZL14loopWithVW4IC4i,@function
_ZL14loopWithVW4IC4i:                   # @_ZL14loopWithVW4IC4i
# %bb.0:                                # %entry
	ori	$a1, $zero, 1
	blt	$a0, $a1, .LBB7_8
# %bb.1:                                # %for.body.preheader
	ori	$a4, $zero, 16
	pcalau12i	$a1, %pc_hi20(A)
	addi.d	$a1, $a1, %pc_lo12(A)
	pcalau12i	$a2, %pc_hi20(C)
	addi.d	$a2, $a2, %pc_lo12(C)
	pcalau12i	$a3, %pc_hi20(B)
	addi.d	$a3, $a3, %pc_lo12(B)
	bgeu	$a0, $a4, .LBB7_3
# %bb.2:
	move	$a4, $zero
	b	.LBB7_6
.LBB7_3:                                # %vector.ph
	addi.d	$a5, $a3, 32
	addi.d	$a6, $a2, 32
	bstrpick.d	$a4, $a0, 30, 4
	slli.d	$a4, $a4, 4
	addi.d	$a7, $a1, 32
	move	$t0, $a4
	.p2align	4, , 16
.LBB7_4:                                # %vector.body
                                        # =>This Inner Loop Header: Depth=1
	vld	$vr0, $a5, -32
	vld	$vr1, $a5, -16
	vld	$vr2, $a5, 0
	vld	$vr3, $a5, 16
	vld	$vr4, $a6, -32
	vld	$vr5, $a6, -16
	vld	$vr6, $a6, 0
	vld	$vr7, $a6, 16
	vadd.w	$vr0, $vr4, $vr0
	vadd.w	$vr1, $vr5, $vr1
	vadd.w	$vr2, $vr6, $vr2
	vadd.w	$vr3, $vr7, $vr3
	vst	$vr0, $a7, -32
	vst	$vr1, $a7, -16
	vst	$vr2, $a7, 0
	vst	$vr3, $a7, 16
	addi.d	$t0, $t0, -16
	addi.d	$a5, $a5, 64
	addi.d	$a6, $a6, 64
	addi.d	$a7, $a7, 64
	bnez	$t0, .LBB7_4
# %bb.5:                                # %middle.block
	beq	$a4, $a0, .LBB7_8
.LBB7_6:                                # %for.body.preheader14
	alsl.d	$a1, $a4, $a1, 2
	alsl.d	$a2, $a4, $a2, 2
	alsl.d	$a3, $a4, $a3, 2
	sub.d	$a0, $a0, $a4
	.p2align	4, , 16
.LBB7_7:                                # %for.body
                                        # =>This Inner Loop Header: Depth=1
	ld.w	$a4, $a3, 0
	ld.w	$a5, $a2, 0
	add.d	$a4, $a5, $a4
	st.w	$a4, $a1, 0
	addi.d	$a1, $a1, 4
	addi.d	$a2, $a2, 4
	addi.d	$a0, $a0, -1
	addi.d	$a3, $a3, 4
	bnez	$a0, .LBB7_7
.LBB7_8:                                # %for.cond.cleanup
	move	$a0, $zero
	ret
.Lfunc_end7:
	.size	_ZL14loopWithVW4IC4i, .Lfunc_end7-_ZL14loopWithVW4IC4i
                                        # -- End function
	.globl	_Z35benchForLoopWithReductionAutoVecTC1RN9benchmark5StateE # -- Begin function _Z35benchForLoopWithReductionAutoVecTC1RN9benchmark5StateE
	.p2align	5
	.type	_Z35benchForLoopWithReductionAutoVecTC1RN9benchmark5StateE,@function
_Z35benchForLoopWithReductionAutoVecTC1RN9benchmark5StateE: # @_Z35benchForLoopWithReductionAutoVecTC1RN9benchmark5StateE
	.cfi_startproc
# %bb.0:                                # %entry
	addi.d	$sp, $sp, -96
	.cfi_def_cfa_offset 96
	st.d	$ra, $sp, 88                    # 8-byte Folded Spill
	st.d	$fp, $sp, 80                    # 8-byte Folded Spill
	st.d	$s0, $sp, 72                    # 8-byte Folded Spill
	st.d	$s1, $sp, 64                    # 8-byte Folded Spill
	st.d	$s2, $sp, 56                    # 8-byte Folded Spill
	st.d	$s3, $sp, 48                    # 8-byte Folded Spill
	st.d	$s4, $sp, 40                    # 8-byte Folded Spill
	st.d	$s5, $sp, 32                    # 8-byte Folded Spill
	st.d	$s6, $sp, 24                    # 8-byte Folded Spill
	st.d	$s7, $sp, 16                    # 8-byte Folded Spill
	.cfi_offset 1, -8
	.cfi_offset 22, -16
	.cfi_offset 23, -24
	.cfi_offset 24, -32
	.cfi_offset 25, -40
	.cfi_offset 26, -48
	.cfi_offset 27, -56
	.cfi_offset 28, -64
	.cfi_offset 29, -72
	.cfi_offset 30, -80
	move	$fp, $a0
	pcaddu18i	$ra, %call36(_ZL9init_dataj)
	jirl	$ra, $ra, 0
	ld.w	$s1, $fp, 28
	ld.d	$s0, $fp, 16
	move	$a0, $fp
	pcaddu18i	$ra, %call36(_ZN9benchmark5State16StartKeepRunningEv)
	jirl	$ra, $ra, 0
	bnez	$s1, .LBB8_4
# %bb.1:                                # %entry
	beqz	$s0, .LBB8_4
# %bb.2:                                # %for.body.i.preheader
	pcalau12i	$s1, %pc_hi20(A)
	pcalau12i	$s2, %pc_hi20(B)
	pcalau12i	$s3, %pc_hi20(C)
	pcalau12i	$s4, %pc_hi20(D)
	pcalau12i	$s5, %pc_hi20(E)
	pcalau12i	$s6, %pc_hi20(F)
	pcalau12i	$s7, %pc_hi20(g_sum)
	.p2align	4, , 16
.LBB8_3:                                # %for.body.i
                                        # =>This Inner Loop Header: Depth=1
	#APP
	#NO_APP
	#APP
	#NO_APP
	#APP
	#NO_APP
	#APP
	#NO_APP
	#APP
	#NO_APP
	#APP
	#NO_APP
	#MEMBARRIER
	ori	$a0, $zero, 1
	pcaddu18i	$ra, %call36(_ZL24loopWithReductionAutoVeci)
	jirl	$ra, $ra, 0
	ld.w	$a1, $s7, %pc_lo12(g_sum)
	add.d	$a0, $a1, $a0
	addi.d	$s0, $s0, -1
	st.w	$a0, $s7, %pc_lo12(g_sum)
	bnez	$s0, .LBB8_3
.LBB8_4:                                # %_ZL27runBenchForLoopInterleavingRN9benchmark5StateEPFiiEi.exit
	move	$a0, $fp
	ld.d	$s7, $sp, 16                    # 8-byte Folded Reload
	ld.d	$s6, $sp, 24                    # 8-byte Folded Reload
	ld.d	$s5, $sp, 32                    # 8-byte Folded Reload
	ld.d	$s4, $sp, 40                    # 8-byte Folded Reload
	ld.d	$s3, $sp, 48                    # 8-byte Folded Reload
	ld.d	$s2, $sp, 56                    # 8-byte Folded Reload
	ld.d	$s1, $sp, 64                    # 8-byte Folded Reload
	ld.d	$s0, $sp, 72                    # 8-byte Folded Reload
	ld.d	$fp, $sp, 80                    # 8-byte Folded Reload
	ld.d	$ra, $sp, 88                    # 8-byte Folded Reload
	addi.d	$sp, $sp, 96
	pcaddu18i	$t8, %call36(_ZN9benchmark5State17FinishKeepRunningEv)
	jr	$t8
.Lfunc_end8:
	.size	_Z35benchForLoopWithReductionAutoVecTC1RN9benchmark5StateE, .Lfunc_end8-_Z35benchForLoopWithReductionAutoVecTC1RN9benchmark5StateE
	.cfi_endproc
                                        # -- End function
	.p2align	5                               # -- Begin function _ZL24loopWithReductionAutoVeci
	.type	_ZL24loopWithReductionAutoVeci,@function
_ZL24loopWithReductionAutoVeci:         # @_ZL24loopWithReductionAutoVeci
# %bb.0:                                # %entry
	ori	$a1, $zero, 1
	blt	$a0, $a1, .LBB9_3
# %bb.1:                                # %for.body.preheader
	ori	$a1, $zero, 8
	bgeu	$a0, $a1, .LBB9_4
# %bb.2:
	move	$a2, $zero
	move	$a1, $zero
	b	.LBB9_7
.LBB9_3:
	move	$a1, $zero
	move	$a0, $a1
	ret
.LBB9_4:                                # %vector.ph
	pcalau12i	$a1, %pc_hi20(A)
	addi.d	$a1, $a1, %pc_lo12(A)
	bstrpick.d	$a2, $a0, 30, 3
	slli.d	$a2, $a2, 3
	xvrepli.b	$xr0, 0
	move	$a3, $a2
	.p2align	4, , 16
.LBB9_5:                                # %vector.body
                                        # =>This Inner Loop Header: Depth=1
	xvld	$xr1, $a1, 0
	xvadd.w	$xr0, $xr1, $xr0
	addi.d	$a3, $a3, -8
	addi.d	$a1, $a1, 32
	bnez	$a3, .LBB9_5
# %bb.6:                                # %middle.block
	xvpermi.d	$xr1, $xr0, 78
	xvshuf4i.w	$xr1, $xr1, 228
	xvadd.w	$xr0, $xr0, $xr1
	xvpermi.d	$xr1, $xr0, 68
	xvshuf4i.w	$xr1, $xr1, 14
	xvadd.w	$xr0, $xr0, $xr1
	xvpermi.d	$xr1, $xr0, 68
	xvrepl128vei.w	$xr1, $xr1, 1
	xvadd.w	$xr0, $xr0, $xr1
	xvpickve2gr.w	$a1, $xr0, 0
	beq	$a2, $a0, .LBB9_9
.LBB9_7:                                # %for.body.preheader7
	pcalau12i	$a3, %pc_hi20(A)
	addi.d	$a3, $a3, %pc_lo12(A)
	alsl.d	$a3, $a2, $a3, 2
	sub.d	$a0, $a0, $a2
	.p2align	4, , 16
.LBB9_8:                                # %for.body
                                        # =>This Inner Loop Header: Depth=1
	ld.w	$a2, $a3, 0
	add.w	$a1, $a2, $a1
	addi.d	$a0, $a0, -1
	addi.d	$a3, $a3, 4
	bnez	$a0, .LBB9_8
.LBB9_9:                                # %for.cond.cleanup
	move	$a0, $a1
	ret
.Lfunc_end9:
	.size	_ZL24loopWithReductionAutoVeci, .Lfunc_end9-_ZL24loopWithReductionAutoVeci
                                        # -- End function
	.globl	_Z34benchForIC1VW4LoopWithReductionTC1RN9benchmark5StateE # -- Begin function _Z34benchForIC1VW4LoopWithReductionTC1RN9benchmark5StateE
	.p2align	5
	.type	_Z34benchForIC1VW4LoopWithReductionTC1RN9benchmark5StateE,@function
_Z34benchForIC1VW4LoopWithReductionTC1RN9benchmark5StateE: # @_Z34benchForIC1VW4LoopWithReductionTC1RN9benchmark5StateE
	.cfi_startproc
# %bb.0:                                # %entry
	addi.d	$sp, $sp, -96
	.cfi_def_cfa_offset 96
	st.d	$ra, $sp, 88                    # 8-byte Folded Spill
	st.d	$fp, $sp, 80                    # 8-byte Folded Spill
	st.d	$s0, $sp, 72                    # 8-byte Folded Spill
	st.d	$s1, $sp, 64                    # 8-byte Folded Spill
	st.d	$s2, $sp, 56                    # 8-byte Folded Spill
	st.d	$s3, $sp, 48                    # 8-byte Folded Spill
	st.d	$s4, $sp, 40                    # 8-byte Folded Spill
	st.d	$s5, $sp, 32                    # 8-byte Folded Spill
	st.d	$s6, $sp, 24                    # 8-byte Folded Spill
	st.d	$s7, $sp, 16                    # 8-byte Folded Spill
	.cfi_offset 1, -8
	.cfi_offset 22, -16
	.cfi_offset 23, -24
	.cfi_offset 24, -32
	.cfi_offset 25, -40
	.cfi_offset 26, -48
	.cfi_offset 27, -56
	.cfi_offset 28, -64
	.cfi_offset 29, -72
	.cfi_offset 30, -80
	move	$fp, $a0
	pcaddu18i	$ra, %call36(_ZL9init_dataj)
	jirl	$ra, $ra, 0
	ld.w	$s1, $fp, 28
	ld.d	$s0, $fp, 16
	move	$a0, $fp
	pcaddu18i	$ra, %call36(_ZN9benchmark5State16StartKeepRunningEv)
	jirl	$ra, $ra, 0
	bnez	$s1, .LBB10_4
# %bb.1:                                # %entry
	beqz	$s0, .LBB10_4
# %bb.2:                                # %for.body.i.preheader
	pcalau12i	$s1, %pc_hi20(A)
	pcalau12i	$s2, %pc_hi20(B)
	pcalau12i	$s3, %pc_hi20(C)
	pcalau12i	$s4, %pc_hi20(D)
	pcalau12i	$s5, %pc_hi20(E)
	pcalau12i	$s6, %pc_hi20(F)
	pcalau12i	$s7, %pc_hi20(g_sum)
	.p2align	4, , 16
.LBB10_3:                               # %for.body.i
                                        # =>This Inner Loop Header: Depth=1
	#APP
	#NO_APP
	#APP
	#NO_APP
	#APP
	#NO_APP
	#APP
	#NO_APP
	#APP
	#NO_APP
	#APP
	#NO_APP
	#MEMBARRIER
	ori	$a0, $zero, 1
	pcaddu18i	$ra, %call36(_ZL27loopWithReductionWithVW4IC1i)
	jirl	$ra, $ra, 0
	ld.w	$a1, $s7, %pc_lo12(g_sum)
	add.d	$a0, $a1, $a0
	addi.d	$s0, $s0, -1
	st.w	$a0, $s7, %pc_lo12(g_sum)
	bnez	$s0, .LBB10_3
.LBB10_4:                               # %_ZL27runBenchForLoopInterleavingRN9benchmark5StateEPFiiEi.exit
	move	$a0, $fp
	ld.d	$s7, $sp, 16                    # 8-byte Folded Reload
	ld.d	$s6, $sp, 24                    # 8-byte Folded Reload
	ld.d	$s5, $sp, 32                    # 8-byte Folded Reload
	ld.d	$s4, $sp, 40                    # 8-byte Folded Reload
	ld.d	$s3, $sp, 48                    # 8-byte Folded Reload
	ld.d	$s2, $sp, 56                    # 8-byte Folded Reload
	ld.d	$s1, $sp, 64                    # 8-byte Folded Reload
	ld.d	$s0, $sp, 72                    # 8-byte Folded Reload
	ld.d	$fp, $sp, 80                    # 8-byte Folded Reload
	ld.d	$ra, $sp, 88                    # 8-byte Folded Reload
	addi.d	$sp, $sp, 96
	pcaddu18i	$t8, %call36(_ZN9benchmark5State17FinishKeepRunningEv)
	jr	$t8
.Lfunc_end10:
	.size	_Z34benchForIC1VW4LoopWithReductionTC1RN9benchmark5StateE, .Lfunc_end10-_Z34benchForIC1VW4LoopWithReductionTC1RN9benchmark5StateE
	.cfi_endproc
                                        # -- End function
	.p2align	5                               # -- Begin function _ZL27loopWithReductionWithVW4IC1i
	.type	_ZL27loopWithReductionWithVW4IC1i,@function
_ZL27loopWithReductionWithVW4IC1i:      # @_ZL27loopWithReductionWithVW4IC1i
# %bb.0:                                # %entry
	ori	$a1, $zero, 1
	blt	$a0, $a1, .LBB11_3
# %bb.1:                                # %for.body.preheader
	ori	$a1, $zero, 4
	bgeu	$a0, $a1, .LBB11_4
# %bb.2:
	move	$a2, $zero
	move	$a1, $zero
	b	.LBB11_7
.LBB11_3:
	move	$a1, $zero
	move	$a0, $a1
	ret
.LBB11_4:                               # %vector.ph
	pcalau12i	$a1, %pc_hi20(A)
	addi.d	$a1, $a1, %pc_lo12(A)
	bstrpick.d	$a2, $a0, 30, 2
	slli.d	$a2, $a2, 2
	vrepli.b	$vr0, 0
	move	$a3, $a2
	.p2align	4, , 16
.LBB11_5:                               # %vector.body
                                        # =>This Inner Loop Header: Depth=1
	vld	$vr1, $a1, 0
	vadd.w	$vr0, $vr1, $vr0
	addi.d	$a3, $a3, -4
	addi.d	$a1, $a1, 16
	bnez	$a3, .LBB11_5
# %bb.6:                                # %middle.block
	vshuf4i.w	$vr1, $vr0, 14
	vadd.w	$vr0, $vr0, $vr1
	vreplvei.w	$vr1, $vr0, 1
	vadd.w	$vr0, $vr0, $vr1
	vpickve2gr.w	$a1, $vr0, 0
	beq	$a2, $a0, .LBB11_9
.LBB11_7:                               # %for.body.preheader7
	pcalau12i	$a3, %pc_hi20(A)
	addi.d	$a3, $a3, %pc_lo12(A)
	alsl.d	$a3, $a2, $a3, 2
	sub.d	$a0, $a0, $a2
	.p2align	4, , 16
.LBB11_8:                               # %for.body
                                        # =>This Inner Loop Header: Depth=1
	ld.w	$a2, $a3, 0
	add.w	$a1, $a2, $a1
	addi.d	$a0, $a0, -1
	addi.d	$a3, $a3, 4
	bnez	$a0, .LBB11_8
.LBB11_9:                               # %for.cond.cleanup
	move	$a0, $a1
	ret
.Lfunc_end11:
	.size	_ZL27loopWithReductionWithVW4IC1i, .Lfunc_end11-_ZL27loopWithReductionWithVW4IC1i
                                        # -- End function
	.globl	_Z34benchForIC2VW4LoopWithReductionTC1RN9benchmark5StateE # -- Begin function _Z34benchForIC2VW4LoopWithReductionTC1RN9benchmark5StateE
	.p2align	5
	.type	_Z34benchForIC2VW4LoopWithReductionTC1RN9benchmark5StateE,@function
_Z34benchForIC2VW4LoopWithReductionTC1RN9benchmark5StateE: # @_Z34benchForIC2VW4LoopWithReductionTC1RN9benchmark5StateE
	.cfi_startproc
# %bb.0:                                # %entry
	addi.d	$sp, $sp, -96
	.cfi_def_cfa_offset 96
	st.d	$ra, $sp, 88                    # 8-byte Folded Spill
	st.d	$fp, $sp, 80                    # 8-byte Folded Spill
	st.d	$s0, $sp, 72                    # 8-byte Folded Spill
	st.d	$s1, $sp, 64                    # 8-byte Folded Spill
	st.d	$s2, $sp, 56                    # 8-byte Folded Spill
	st.d	$s3, $sp, 48                    # 8-byte Folded Spill
	st.d	$s4, $sp, 40                    # 8-byte Folded Spill
	st.d	$s5, $sp, 32                    # 8-byte Folded Spill
	st.d	$s6, $sp, 24                    # 8-byte Folded Spill
	st.d	$s7, $sp, 16                    # 8-byte Folded Spill
	.cfi_offset 1, -8
	.cfi_offset 22, -16
	.cfi_offset 23, -24
	.cfi_offset 24, -32
	.cfi_offset 25, -40
	.cfi_offset 26, -48
	.cfi_offset 27, -56
	.cfi_offset 28, -64
	.cfi_offset 29, -72
	.cfi_offset 30, -80
	move	$fp, $a0
	pcaddu18i	$ra, %call36(_ZL9init_dataj)
	jirl	$ra, $ra, 0
	ld.w	$s1, $fp, 28
	ld.d	$s0, $fp, 16
	move	$a0, $fp
	pcaddu18i	$ra, %call36(_ZN9benchmark5State16StartKeepRunningEv)
	jirl	$ra, $ra, 0
	bnez	$s1, .LBB12_4
# %bb.1:                                # %entry
	beqz	$s0, .LBB12_4
# %bb.2:                                # %for.body.i.preheader
	pcalau12i	$s1, %pc_hi20(A)
	pcalau12i	$s2, %pc_hi20(B)
	pcalau12i	$s3, %pc_hi20(C)
	pcalau12i	$s4, %pc_hi20(D)
	pcalau12i	$s5, %pc_hi20(E)
	pcalau12i	$s6, %pc_hi20(F)
	pcalau12i	$s7, %pc_hi20(g_sum)
	.p2align	4, , 16
.LBB12_3:                               # %for.body.i
                                        # =>This Inner Loop Header: Depth=1
	#APP
	#NO_APP
	#APP
	#NO_APP
	#APP
	#NO_APP
	#APP
	#NO_APP
	#APP
	#NO_APP
	#APP
	#NO_APP
	#MEMBARRIER
	ori	$a0, $zero, 1
	pcaddu18i	$ra, %call36(_ZL27loopWithReductionWithVW4IC2i)
	jirl	$ra, $ra, 0
	ld.w	$a1, $s7, %pc_lo12(g_sum)
	add.d	$a0, $a1, $a0
	addi.d	$s0, $s0, -1
	st.w	$a0, $s7, %pc_lo12(g_sum)
	bnez	$s0, .LBB12_3
.LBB12_4:                               # %_ZL27runBenchForLoopInterleavingRN9benchmark5StateEPFiiEi.exit
	move	$a0, $fp
	ld.d	$s7, $sp, 16                    # 8-byte Folded Reload
	ld.d	$s6, $sp, 24                    # 8-byte Folded Reload
	ld.d	$s5, $sp, 32                    # 8-byte Folded Reload
	ld.d	$s4, $sp, 40                    # 8-byte Folded Reload
	ld.d	$s3, $sp, 48                    # 8-byte Folded Reload
	ld.d	$s2, $sp, 56                    # 8-byte Folded Reload
	ld.d	$s1, $sp, 64                    # 8-byte Folded Reload
	ld.d	$s0, $sp, 72                    # 8-byte Folded Reload
	ld.d	$fp, $sp, 80                    # 8-byte Folded Reload
	ld.d	$ra, $sp, 88                    # 8-byte Folded Reload
	addi.d	$sp, $sp, 96
	pcaddu18i	$t8, %call36(_ZN9benchmark5State17FinishKeepRunningEv)
	jr	$t8
.Lfunc_end12:
	.size	_Z34benchForIC2VW4LoopWithReductionTC1RN9benchmark5StateE, .Lfunc_end12-_Z34benchForIC2VW4LoopWithReductionTC1RN9benchmark5StateE
	.cfi_endproc
                                        # -- End function
	.p2align	5                               # -- Begin function _ZL27loopWithReductionWithVW4IC2i
	.type	_ZL27loopWithReductionWithVW4IC2i,@function
_ZL27loopWithReductionWithVW4IC2i:      # @_ZL27loopWithReductionWithVW4IC2i
# %bb.0:                                # %entry
	ori	$a1, $zero, 1
	blt	$a0, $a1, .LBB13_3
# %bb.1:                                # %for.body.preheader
	ori	$a1, $zero, 8
	pcalau12i	$a2, %pc_hi20(A)
	addi.d	$a2, $a2, %pc_lo12(A)
	bgeu	$a0, $a1, .LBB13_4
# %bb.2:
	move	$a3, $zero
	move	$a1, $zero
	b	.LBB13_7
.LBB13_3:
	move	$a1, $zero
	move	$a0, $a1
	ret
.LBB13_4:                               # %vector.ph
	bstrpick.d	$a1, $a0, 30, 3
	slli.d	$a3, $a1, 3
	vrepli.b	$vr0, 0
	addi.d	$a1, $a2, 16
	move	$a4, $a3
	vori.b	$vr1, $vr0, 0
	.p2align	4, , 16
.LBB13_5:                               # %vector.body
                                        # =>This Inner Loop Header: Depth=1
	vld	$vr2, $a1, -16
	vld	$vr3, $a1, 0
	vadd.w	$vr0, $vr2, $vr0
	vadd.w	$vr1, $vr3, $vr1
	addi.d	$a4, $a4, -8
	addi.d	$a1, $a1, 32
	bnez	$a4, .LBB13_5
# %bb.6:                                # %middle.block
	vadd.w	$vr0, $vr1, $vr0
	vshuf4i.w	$vr1, $vr0, 14
	vadd.w	$vr0, $vr0, $vr1
	vreplvei.w	$vr1, $vr0, 1
	vadd.w	$vr0, $vr0, $vr1
	vpickve2gr.w	$a1, $vr0, 0
	beq	$a3, $a0, .LBB13_9
.LBB13_7:                               # %for.body.preheader9
	alsl.d	$a2, $a3, $a2, 2
	sub.d	$a0, $a0, $a3
	.p2align	4, , 16
.LBB13_8:                               # %for.body
                                        # =>This Inner Loop Header: Depth=1
	ld.w	$a3, $a2, 0
	add.w	$a1, $a3, $a1
	addi.d	$a0, $a0, -1
	addi.d	$a2, $a2, 4
	bnez	$a0, .LBB13_8
.LBB13_9:                               # %for.cond.cleanup
	move	$a0, $a1
	ret
.Lfunc_end13:
	.size	_ZL27loopWithReductionWithVW4IC2i, .Lfunc_end13-_ZL27loopWithReductionWithVW4IC2i
                                        # -- End function
	.globl	_Z34benchForIC4VW4LoopWithReductionTC1RN9benchmark5StateE # -- Begin function _Z34benchForIC4VW4LoopWithReductionTC1RN9benchmark5StateE
	.p2align	5
	.type	_Z34benchForIC4VW4LoopWithReductionTC1RN9benchmark5StateE,@function
_Z34benchForIC4VW4LoopWithReductionTC1RN9benchmark5StateE: # @_Z34benchForIC4VW4LoopWithReductionTC1RN9benchmark5StateE
	.cfi_startproc
# %bb.0:                                # %entry
	addi.d	$sp, $sp, -96
	.cfi_def_cfa_offset 96
	st.d	$ra, $sp, 88                    # 8-byte Folded Spill
	st.d	$fp, $sp, 80                    # 8-byte Folded Spill
	st.d	$s0, $sp, 72                    # 8-byte Folded Spill
	st.d	$s1, $sp, 64                    # 8-byte Folded Spill
	st.d	$s2, $sp, 56                    # 8-byte Folded Spill
	st.d	$s3, $sp, 48                    # 8-byte Folded Spill
	st.d	$s4, $sp, 40                    # 8-byte Folded Spill
	st.d	$s5, $sp, 32                    # 8-byte Folded Spill
	st.d	$s6, $sp, 24                    # 8-byte Folded Spill
	st.d	$s7, $sp, 16                    # 8-byte Folded Spill
	.cfi_offset 1, -8
	.cfi_offset 22, -16
	.cfi_offset 23, -24
	.cfi_offset 24, -32
	.cfi_offset 25, -40
	.cfi_offset 26, -48
	.cfi_offset 27, -56
	.cfi_offset 28, -64
	.cfi_offset 29, -72
	.cfi_offset 30, -80
	move	$fp, $a0
	pcaddu18i	$ra, %call36(_ZL9init_dataj)
	jirl	$ra, $ra, 0
	ld.w	$s1, $fp, 28
	ld.d	$s0, $fp, 16
	move	$a0, $fp
	pcaddu18i	$ra, %call36(_ZN9benchmark5State16StartKeepRunningEv)
	jirl	$ra, $ra, 0
	bnez	$s1, .LBB14_4
# %bb.1:                                # %entry
	beqz	$s0, .LBB14_4
# %bb.2:                                # %for.body.i.preheader
	pcalau12i	$s1, %pc_hi20(A)
	pcalau12i	$s2, %pc_hi20(B)
	pcalau12i	$s3, %pc_hi20(C)
	pcalau12i	$s4, %pc_hi20(D)
	pcalau12i	$s5, %pc_hi20(E)
	pcalau12i	$s6, %pc_hi20(F)
	pcalau12i	$s7, %pc_hi20(g_sum)
	.p2align	4, , 16
.LBB14_3:                               # %for.body.i
                                        # =>This Inner Loop Header: Depth=1
	#APP
	#NO_APP
	#APP
	#NO_APP
	#APP
	#NO_APP
	#APP
	#NO_APP
	#APP
	#NO_APP
	#APP
	#NO_APP
	#MEMBARRIER
	ori	$a0, $zero, 1
	pcaddu18i	$ra, %call36(_ZL27loopWithReductionWithVW4IC4i)
	jirl	$ra, $ra, 0
	ld.w	$a1, $s7, %pc_lo12(g_sum)
	add.d	$a0, $a1, $a0
	addi.d	$s0, $s0, -1
	st.w	$a0, $s7, %pc_lo12(g_sum)
	bnez	$s0, .LBB14_3
.LBB14_4:                               # %_ZL27runBenchForLoopInterleavingRN9benchmark5StateEPFiiEi.exit
	move	$a0, $fp
	ld.d	$s7, $sp, 16                    # 8-byte Folded Reload
	ld.d	$s6, $sp, 24                    # 8-byte Folded Reload
	ld.d	$s5, $sp, 32                    # 8-byte Folded Reload
	ld.d	$s4, $sp, 40                    # 8-byte Folded Reload
	ld.d	$s3, $sp, 48                    # 8-byte Folded Reload
	ld.d	$s2, $sp, 56                    # 8-byte Folded Reload
	ld.d	$s1, $sp, 64                    # 8-byte Folded Reload
	ld.d	$s0, $sp, 72                    # 8-byte Folded Reload
	ld.d	$fp, $sp, 80                    # 8-byte Folded Reload
	ld.d	$ra, $sp, 88                    # 8-byte Folded Reload
	addi.d	$sp, $sp, 96
	pcaddu18i	$t8, %call36(_ZN9benchmark5State17FinishKeepRunningEv)
	jr	$t8
.Lfunc_end14:
	.size	_Z34benchForIC4VW4LoopWithReductionTC1RN9benchmark5StateE, .Lfunc_end14-_Z34benchForIC4VW4LoopWithReductionTC1RN9benchmark5StateE
	.cfi_endproc
                                        # -- End function
	.p2align	5                               # -- Begin function _ZL27loopWithReductionWithVW4IC4i
	.type	_ZL27loopWithReductionWithVW4IC4i,@function
_ZL27loopWithReductionWithVW4IC4i:      # @_ZL27loopWithReductionWithVW4IC4i
# %bb.0:                                # %entry
	ori	$a1, $zero, 1
	blt	$a0, $a1, .LBB15_3
# %bb.1:                                # %for.body.preheader
	ori	$a1, $zero, 16
	pcalau12i	$a2, %pc_hi20(A)
	addi.d	$a2, $a2, %pc_lo12(A)
	bgeu	$a0, $a1, .LBB15_4
# %bb.2:
	move	$a3, $zero
	move	$a1, $zero
	b	.LBB15_7
.LBB15_3:
	move	$a1, $zero
	move	$a0, $a1
	ret
.LBB15_4:                               # %vector.ph
	bstrpick.d	$a1, $a0, 30, 4
	slli.d	$a3, $a1, 4
	vrepli.b	$vr0, 0
	addi.d	$a1, $a2, 32
	move	$a4, $a3
	vori.b	$vr1, $vr0, 0
	vori.b	$vr2, $vr0, 0
	vori.b	$vr3, $vr0, 0
	.p2align	4, , 16
.LBB15_5:                               # %vector.body
                                        # =>This Inner Loop Header: Depth=1
	vld	$vr4, $a1, -32
	vld	$vr5, $a1, -16
	vld	$vr6, $a1, 0
	vld	$vr7, $a1, 16
	vadd.w	$vr0, $vr4, $vr0
	vadd.w	$vr1, $vr5, $vr1
	vadd.w	$vr2, $vr6, $vr2
	vadd.w	$vr3, $vr7, $vr3
	addi.d	$a4, $a4, -16
	addi.d	$a1, $a1, 64
	bnez	$a4, .LBB15_5
# %bb.6:                                # %middle.block
	vadd.w	$vr0, $vr1, $vr0
	vadd.w	$vr0, $vr2, $vr0
	vadd.w	$vr0, $vr3, $vr0
	vshuf4i.w	$vr1, $vr0, 14
	vadd.w	$vr0, $vr0, $vr1
	vreplvei.w	$vr1, $vr0, 1
	vadd.w	$vr0, $vr0, $vr1
	vpickve2gr.w	$a1, $vr0, 0
	beq	$a3, $a0, .LBB15_9
.LBB15_7:                               # %for.body.preheader15
	alsl.d	$a2, $a3, $a2, 2
	sub.d	$a0, $a0, $a3
	.p2align	4, , 16
.LBB15_8:                               # %for.body
                                        # =>This Inner Loop Header: Depth=1
	ld.w	$a3, $a2, 0
	add.w	$a1, $a3, $a1
	addi.d	$a0, $a0, -1
	addi.d	$a2, $a2, 4
	bnez	$a0, .LBB15_8
.LBB15_9:                               # %for.cond.cleanup
	move	$a0, $a1
	ret
.Lfunc_end15:
	.size	_ZL27loopWithReductionWithVW4IC4i, .Lfunc_end15-_ZL27loopWithReductionWithVW4IC4i
                                        # -- End function
	.globl	_Z34benchForIC1VW1LoopWithReductionTC1RN9benchmark5StateE # -- Begin function _Z34benchForIC1VW1LoopWithReductionTC1RN9benchmark5StateE
	.p2align	5
	.type	_Z34benchForIC1VW1LoopWithReductionTC1RN9benchmark5StateE,@function
_Z34benchForIC1VW1LoopWithReductionTC1RN9benchmark5StateE: # @_Z34benchForIC1VW1LoopWithReductionTC1RN9benchmark5StateE
	.cfi_startproc
# %bb.0:                                # %entry
	addi.d	$sp, $sp, -96
	.cfi_def_cfa_offset 96
	st.d	$ra, $sp, 88                    # 8-byte Folded Spill
	st.d	$fp, $sp, 80                    # 8-byte Folded Spill
	st.d	$s0, $sp, 72                    # 8-byte Folded Spill
	st.d	$s1, $sp, 64                    # 8-byte Folded Spill
	st.d	$s2, $sp, 56                    # 8-byte Folded Spill
	st.d	$s3, $sp, 48                    # 8-byte Folded Spill
	st.d	$s4, $sp, 40                    # 8-byte Folded Spill
	st.d	$s5, $sp, 32                    # 8-byte Folded Spill
	st.d	$s6, $sp, 24                    # 8-byte Folded Spill
	st.d	$s7, $sp, 16                    # 8-byte Folded Spill
	.cfi_offset 1, -8
	.cfi_offset 22, -16
	.cfi_offset 23, -24
	.cfi_offset 24, -32
	.cfi_offset 25, -40
	.cfi_offset 26, -48
	.cfi_offset 27, -56
	.cfi_offset 28, -64
	.cfi_offset 29, -72
	.cfi_offset 30, -80
	move	$fp, $a0
	pcaddu18i	$ra, %call36(_ZL9init_dataj)
	jirl	$ra, $ra, 0
	ld.w	$s1, $fp, 28
	ld.d	$s0, $fp, 16
	move	$a0, $fp
	pcaddu18i	$ra, %call36(_ZN9benchmark5State16StartKeepRunningEv)
	jirl	$ra, $ra, 0
	bnez	$s1, .LBB16_4
# %bb.1:                                # %entry
	beqz	$s0, .LBB16_4
# %bb.2:                                # %for.body.i.preheader
	pcalau12i	$s1, %pc_hi20(A)
	pcalau12i	$s2, %pc_hi20(B)
	pcalau12i	$s3, %pc_hi20(C)
	pcalau12i	$s4, %pc_hi20(D)
	pcalau12i	$s5, %pc_hi20(E)
	pcalau12i	$s6, %pc_hi20(F)
	pcalau12i	$s7, %pc_hi20(g_sum)
	.p2align	4, , 16
.LBB16_3:                               # %for.body.i
                                        # =>This Inner Loop Header: Depth=1
	#APP
	#NO_APP
	#APP
	#NO_APP
	#APP
	#NO_APP
	#APP
	#NO_APP
	#APP
	#NO_APP
	#APP
	#NO_APP
	#MEMBARRIER
	ori	$a0, $zero, 1
	pcaddu18i	$ra, %call36(_ZL27loopWithReductionWithVW1IC1i)
	jirl	$ra, $ra, 0
	ld.w	$a1, $s7, %pc_lo12(g_sum)
	add.d	$a0, $a1, $a0
	addi.d	$s0, $s0, -1
	st.w	$a0, $s7, %pc_lo12(g_sum)
	bnez	$s0, .LBB16_3
.LBB16_4:                               # %_ZL27runBenchForLoopInterleavingRN9benchmark5StateEPFiiEi.exit
	move	$a0, $fp
	ld.d	$s7, $sp, 16                    # 8-byte Folded Reload
	ld.d	$s6, $sp, 24                    # 8-byte Folded Reload
	ld.d	$s5, $sp, 32                    # 8-byte Folded Reload
	ld.d	$s4, $sp, 40                    # 8-byte Folded Reload
	ld.d	$s3, $sp, 48                    # 8-byte Folded Reload
	ld.d	$s2, $sp, 56                    # 8-byte Folded Reload
	ld.d	$s1, $sp, 64                    # 8-byte Folded Reload
	ld.d	$s0, $sp, 72                    # 8-byte Folded Reload
	ld.d	$fp, $sp, 80                    # 8-byte Folded Reload
	ld.d	$ra, $sp, 88                    # 8-byte Folded Reload
	addi.d	$sp, $sp, 96
	pcaddu18i	$t8, %call36(_ZN9benchmark5State17FinishKeepRunningEv)
	jr	$t8
.Lfunc_end16:
	.size	_Z34benchForIC1VW1LoopWithReductionTC1RN9benchmark5StateE, .Lfunc_end16-_Z34benchForIC1VW1LoopWithReductionTC1RN9benchmark5StateE
	.cfi_endproc
                                        # -- End function
	.p2align	5                               # -- Begin function _ZL27loopWithReductionWithVW1IC1i
	.type	_ZL27loopWithReductionWithVW1IC1i,@function
_ZL27loopWithReductionWithVW1IC1i:      # @_ZL27loopWithReductionWithVW1IC1i
# %bb.0:                                # %entry
	ori	$a1, $zero, 1
	blt	$a0, $a1, .LBB17_4
# %bb.1:                                # %for.body.preheader
	move	$a1, $zero
	pcalau12i	$a2, %pc_hi20(A)
	addi.d	$a2, $a2, %pc_lo12(A)
	.p2align	4, , 16
.LBB17_2:                               # %for.body
                                        # =>This Inner Loop Header: Depth=1
	ld.w	$a3, $a2, 0
	add.w	$a1, $a3, $a1
	addi.d	$a0, $a0, -1
	addi.d	$a2, $a2, 4
	bnez	$a0, .LBB17_2
# %bb.3:                                # %for.cond.cleanup
	move	$a0, $a1
	ret
.LBB17_4:
	move	$a1, $zero
	move	$a0, $a1
	ret
.Lfunc_end17:
	.size	_ZL27loopWithReductionWithVW1IC1i, .Lfunc_end17-_ZL27loopWithReductionWithVW1IC1i
                                        # -- End function
	.globl	_Z34benchForIC2VW1LoopWithReductionTC1RN9benchmark5StateE # -- Begin function _Z34benchForIC2VW1LoopWithReductionTC1RN9benchmark5StateE
	.p2align	5
	.type	_Z34benchForIC2VW1LoopWithReductionTC1RN9benchmark5StateE,@function
_Z34benchForIC2VW1LoopWithReductionTC1RN9benchmark5StateE: # @_Z34benchForIC2VW1LoopWithReductionTC1RN9benchmark5StateE
	.cfi_startproc
# %bb.0:                                # %entry
	addi.d	$sp, $sp, -96
	.cfi_def_cfa_offset 96
	st.d	$ra, $sp, 88                    # 8-byte Folded Spill
	st.d	$fp, $sp, 80                    # 8-byte Folded Spill
	st.d	$s0, $sp, 72                    # 8-byte Folded Spill
	st.d	$s1, $sp, 64                    # 8-byte Folded Spill
	st.d	$s2, $sp, 56                    # 8-byte Folded Spill
	st.d	$s3, $sp, 48                    # 8-byte Folded Spill
	st.d	$s4, $sp, 40                    # 8-byte Folded Spill
	st.d	$s5, $sp, 32                    # 8-byte Folded Spill
	st.d	$s6, $sp, 24                    # 8-byte Folded Spill
	st.d	$s7, $sp, 16                    # 8-byte Folded Spill
	.cfi_offset 1, -8
	.cfi_offset 22, -16
	.cfi_offset 23, -24
	.cfi_offset 24, -32
	.cfi_offset 25, -40
	.cfi_offset 26, -48
	.cfi_offset 27, -56
	.cfi_offset 28, -64
	.cfi_offset 29, -72
	.cfi_offset 30, -80
	move	$fp, $a0
	pcaddu18i	$ra, %call36(_ZL9init_dataj)
	jirl	$ra, $ra, 0
	ld.w	$s1, $fp, 28
	ld.d	$s0, $fp, 16
	move	$a0, $fp
	pcaddu18i	$ra, %call36(_ZN9benchmark5State16StartKeepRunningEv)
	jirl	$ra, $ra, 0
	bnez	$s1, .LBB18_4
# %bb.1:                                # %entry
	beqz	$s0, .LBB18_4
# %bb.2:                                # %for.body.i.preheader
	pcalau12i	$s1, %pc_hi20(A)
	pcalau12i	$s2, %pc_hi20(B)
	pcalau12i	$s3, %pc_hi20(C)
	pcalau12i	$s4, %pc_hi20(D)
	pcalau12i	$s5, %pc_hi20(E)
	pcalau12i	$s6, %pc_hi20(F)
	pcalau12i	$s7, %pc_hi20(g_sum)
	.p2align	4, , 16
.LBB18_3:                               # %for.body.i
                                        # =>This Inner Loop Header: Depth=1
	#APP
	#NO_APP
	#APP
	#NO_APP
	#APP
	#NO_APP
	#APP
	#NO_APP
	#APP
	#NO_APP
	#APP
	#NO_APP
	#MEMBARRIER
	ori	$a0, $zero, 1
	pcaddu18i	$ra, %call36(_ZL27loopWithReductionWithVW1IC2i)
	jirl	$ra, $ra, 0
	ld.w	$a1, $s7, %pc_lo12(g_sum)
	add.d	$a0, $a1, $a0
	addi.d	$s0, $s0, -1
	st.w	$a0, $s7, %pc_lo12(g_sum)
	bnez	$s0, .LBB18_3
.LBB18_4:                               # %_ZL27runBenchForLoopInterleavingRN9benchmark5StateEPFiiEi.exit
	move	$a0, $fp
	ld.d	$s7, $sp, 16                    # 8-byte Folded Reload
	ld.d	$s6, $sp, 24                    # 8-byte Folded Reload
	ld.d	$s5, $sp, 32                    # 8-byte Folded Reload
	ld.d	$s4, $sp, 40                    # 8-byte Folded Reload
	ld.d	$s3, $sp, 48                    # 8-byte Folded Reload
	ld.d	$s2, $sp, 56                    # 8-byte Folded Reload
	ld.d	$s1, $sp, 64                    # 8-byte Folded Reload
	ld.d	$s0, $sp, 72                    # 8-byte Folded Reload
	ld.d	$fp, $sp, 80                    # 8-byte Folded Reload
	ld.d	$ra, $sp, 88                    # 8-byte Folded Reload
	addi.d	$sp, $sp, 96
	pcaddu18i	$t8, %call36(_ZN9benchmark5State17FinishKeepRunningEv)
	jr	$t8
.Lfunc_end18:
	.size	_Z34benchForIC2VW1LoopWithReductionTC1RN9benchmark5StateE, .Lfunc_end18-_Z34benchForIC2VW1LoopWithReductionTC1RN9benchmark5StateE
	.cfi_endproc
                                        # -- End function
	.p2align	5                               # -- Begin function _ZL27loopWithReductionWithVW1IC2i
	.type	_ZL27loopWithReductionWithVW1IC2i,@function
_ZL27loopWithReductionWithVW1IC2i:      # @_ZL27loopWithReductionWithVW1IC2i
# %bb.0:                                # %entry
	ori	$a1, $zero, 1
	blt	$a0, $a1, .LBB19_3
# %bb.1:                                # %for.body.preheader
	pcalau12i	$a2, %pc_hi20(A)
	addi.d	$a2, $a2, %pc_lo12(A)
	bne	$a0, $a1, .LBB19_4
# %bb.2:
	move	$a3, $zero
	move	$a1, $zero
	b	.LBB19_7
.LBB19_3:
	move	$a1, $zero
	move	$a0, $a1
	ret
.LBB19_4:                               # %vector.ph
	move	$a1, $zero
	move	$a4, $zero
	bstrpick.d	$a3, $a0, 30, 1
	slli.d	$a3, $a3, 1
	addi.d	$a5, $a2, 4
	move	$a6, $a3
	.p2align	4, , 16
.LBB19_5:                               # %vector.body
                                        # =>This Inner Loop Header: Depth=1
	ld.w	$a7, $a5, -4
	ld.w	$t0, $a5, 0
	add.d	$a1, $a7, $a1
	add.d	$a4, $t0, $a4
	addi.d	$a6, $a6, -2
	addi.d	$a5, $a5, 8
	bnez	$a6, .LBB19_5
# %bb.6:                                # %middle.block
	add.w	$a1, $a4, $a1
	beq	$a3, $a0, .LBB19_9
.LBB19_7:                               # %for.body.preheader8
	alsl.d	$a2, $a3, $a2, 2
	sub.d	$a0, $a0, $a3
	.p2align	4, , 16
.LBB19_8:                               # %for.body
                                        # =>This Inner Loop Header: Depth=1
	ld.w	$a3, $a2, 0
	add.w	$a1, $a3, $a1
	addi.d	$a0, $a0, -1
	addi.d	$a2, $a2, 4
	bnez	$a0, .LBB19_8
.LBB19_9:                               # %for.cond.cleanup
	move	$a0, $a1
	ret
.Lfunc_end19:
	.size	_ZL27loopWithReductionWithVW1IC2i, .Lfunc_end19-_ZL27loopWithReductionWithVW1IC2i
                                        # -- End function
	.globl	_Z34benchForIC4VW1LoopWithReductionTC1RN9benchmark5StateE # -- Begin function _Z34benchForIC4VW1LoopWithReductionTC1RN9benchmark5StateE
	.p2align	5
	.type	_Z34benchForIC4VW1LoopWithReductionTC1RN9benchmark5StateE,@function
_Z34benchForIC4VW1LoopWithReductionTC1RN9benchmark5StateE: # @_Z34benchForIC4VW1LoopWithReductionTC1RN9benchmark5StateE
	.cfi_startproc
# %bb.0:                                # %entry
	addi.d	$sp, $sp, -96
	.cfi_def_cfa_offset 96
	st.d	$ra, $sp, 88                    # 8-byte Folded Spill
	st.d	$fp, $sp, 80                    # 8-byte Folded Spill
	st.d	$s0, $sp, 72                    # 8-byte Folded Spill
	st.d	$s1, $sp, 64                    # 8-byte Folded Spill
	st.d	$s2, $sp, 56                    # 8-byte Folded Spill
	st.d	$s3, $sp, 48                    # 8-byte Folded Spill
	st.d	$s4, $sp, 40                    # 8-byte Folded Spill
	st.d	$s5, $sp, 32                    # 8-byte Folded Spill
	st.d	$s6, $sp, 24                    # 8-byte Folded Spill
	st.d	$s7, $sp, 16                    # 8-byte Folded Spill
	.cfi_offset 1, -8
	.cfi_offset 22, -16
	.cfi_offset 23, -24
	.cfi_offset 24, -32
	.cfi_offset 25, -40
	.cfi_offset 26, -48
	.cfi_offset 27, -56
	.cfi_offset 28, -64
	.cfi_offset 29, -72
	.cfi_offset 30, -80
	move	$fp, $a0
	pcaddu18i	$ra, %call36(_ZL9init_dataj)
	jirl	$ra, $ra, 0
	ld.w	$s1, $fp, 28
	ld.d	$s0, $fp, 16
	move	$a0, $fp
	pcaddu18i	$ra, %call36(_ZN9benchmark5State16StartKeepRunningEv)
	jirl	$ra, $ra, 0
	bnez	$s1, .LBB20_4
# %bb.1:                                # %entry
	beqz	$s0, .LBB20_4
# %bb.2:                                # %for.body.i.preheader
	pcalau12i	$s1, %pc_hi20(A)
	pcalau12i	$s2, %pc_hi20(B)
	pcalau12i	$s3, %pc_hi20(C)
	pcalau12i	$s4, %pc_hi20(D)
	pcalau12i	$s5, %pc_hi20(E)
	pcalau12i	$s6, %pc_hi20(F)
	pcalau12i	$s7, %pc_hi20(g_sum)
	.p2align	4, , 16
.LBB20_3:                               # %for.body.i
                                        # =>This Inner Loop Header: Depth=1
	#APP
	#NO_APP
	#APP
	#NO_APP
	#APP
	#NO_APP
	#APP
	#NO_APP
	#APP
	#NO_APP
	#APP
	#NO_APP
	#MEMBARRIER
	ori	$a0, $zero, 1
	pcaddu18i	$ra, %call36(_ZL27loopWithReductionWithVW1IC4i)
	jirl	$ra, $ra, 0
	ld.w	$a1, $s7, %pc_lo12(g_sum)
	add.d	$a0, $a1, $a0
	addi.d	$s0, $s0, -1
	st.w	$a0, $s7, %pc_lo12(g_sum)
	bnez	$s0, .LBB20_3
.LBB20_4:                               # %_ZL27runBenchForLoopInterleavingRN9benchmark5StateEPFiiEi.exit
	move	$a0, $fp
	ld.d	$s7, $sp, 16                    # 8-byte Folded Reload
	ld.d	$s6, $sp, 24                    # 8-byte Folded Reload
	ld.d	$s5, $sp, 32                    # 8-byte Folded Reload
	ld.d	$s4, $sp, 40                    # 8-byte Folded Reload
	ld.d	$s3, $sp, 48                    # 8-byte Folded Reload
	ld.d	$s2, $sp, 56                    # 8-byte Folded Reload
	ld.d	$s1, $sp, 64                    # 8-byte Folded Reload
	ld.d	$s0, $sp, 72                    # 8-byte Folded Reload
	ld.d	$fp, $sp, 80                    # 8-byte Folded Reload
	ld.d	$ra, $sp, 88                    # 8-byte Folded Reload
	addi.d	$sp, $sp, 96
	pcaddu18i	$t8, %call36(_ZN9benchmark5State17FinishKeepRunningEv)
	jr	$t8
.Lfunc_end20:
	.size	_Z34benchForIC4VW1LoopWithReductionTC1RN9benchmark5StateE, .Lfunc_end20-_Z34benchForIC4VW1LoopWithReductionTC1RN9benchmark5StateE
	.cfi_endproc
                                        # -- End function
	.p2align	5                               # -- Begin function _ZL27loopWithReductionWithVW1IC4i
	.type	_ZL27loopWithReductionWithVW1IC4i,@function
_ZL27loopWithReductionWithVW1IC4i:      # @_ZL27loopWithReductionWithVW1IC4i
# %bb.0:                                # %entry
	ori	$a1, $zero, 1
	blt	$a0, $a1, .LBB21_3
# %bb.1:                                # %for.body.preheader
	ori	$a1, $zero, 4
	bgeu	$a0, $a1, .LBB21_4
# %bb.2:
	move	$a2, $zero
	move	$a1, $zero
	b	.LBB21_7
.LBB21_3:
	move	$a1, $zero
	move	$a0, $a1
	ret
.LBB21_4:                               # %vector.ph
	pcalau12i	$a1, %pc_hi20(A)
	addi.d	$a1, $a1, %pc_lo12(A)
	bstrpick.d	$a2, $a0, 30, 2
	slli.d	$a2, $a2, 2
	vrepli.b	$vr0, 0
	move	$a3, $a2
	.p2align	4, , 16
.LBB21_5:                               # %vector.body
                                        # =>This Inner Loop Header: Depth=1
	vld	$vr1, $a1, 0
	vadd.w	$vr0, $vr1, $vr0
	addi.d	$a3, $a3, -4
	addi.d	$a1, $a1, 16
	bnez	$a3, .LBB21_5
# %bb.6:                                # %middle.block
	vpickve2gr.w	$a1, $vr0, 0
	vpickve2gr.w	$a3, $vr0, 1
	add.d	$a1, $a3, $a1
	vpickve2gr.w	$a3, $vr0, 2
	add.d	$a1, $a3, $a1
	vpickve2gr.w	$a3, $vr0, 3
	add.w	$a1, $a3, $a1
	beq	$a2, $a0, .LBB21_9
.LBB21_7:                               # %for.body.preheader12
	pcalau12i	$a3, %pc_hi20(A)
	addi.d	$a3, $a3, %pc_lo12(A)
	alsl.d	$a3, $a2, $a3, 2
	sub.d	$a0, $a0, $a2
	.p2align	4, , 16
.LBB21_8:                               # %for.body
                                        # =>This Inner Loop Header: Depth=1
	ld.w	$a2, $a3, 0
	add.w	$a1, $a2, $a1
	addi.d	$a0, $a0, -1
	addi.d	$a3, $a3, 4
	bnez	$a0, .LBB21_8
.LBB21_9:                               # %for.cond.cleanup
	move	$a0, $a1
	ret
.Lfunc_end21:
	.size	_ZL27loopWithReductionWithVW1IC4i, .Lfunc_end21-_ZL27loopWithReductionWithVW1IC4i
                                        # -- End function
	.globl	_Z25benchAutoVecForBigLoopTC1RN9benchmark5StateE # -- Begin function _Z25benchAutoVecForBigLoopTC1RN9benchmark5StateE
	.p2align	5
	.type	_Z25benchAutoVecForBigLoopTC1RN9benchmark5StateE,@function
_Z25benchAutoVecForBigLoopTC1RN9benchmark5StateE: # @_Z25benchAutoVecForBigLoopTC1RN9benchmark5StateE
	.cfi_startproc
# %bb.0:                                # %entry
	addi.d	$sp, $sp, -96
	.cfi_def_cfa_offset 96
	st.d	$ra, $sp, 88                    # 8-byte Folded Spill
	st.d	$fp, $sp, 80                    # 8-byte Folded Spill
	st.d	$s0, $sp, 72                    # 8-byte Folded Spill
	st.d	$s1, $sp, 64                    # 8-byte Folded Spill
	st.d	$s2, $sp, 56                    # 8-byte Folded Spill
	st.d	$s3, $sp, 48                    # 8-byte Folded Spill
	st.d	$s4, $sp, 40                    # 8-byte Folded Spill
	st.d	$s5, $sp, 32                    # 8-byte Folded Spill
	st.d	$s6, $sp, 24                    # 8-byte Folded Spill
	st.d	$s7, $sp, 16                    # 8-byte Folded Spill
	.cfi_offset 1, -8
	.cfi_offset 22, -16
	.cfi_offset 23, -24
	.cfi_offset 24, -32
	.cfi_offset 25, -40
	.cfi_offset 26, -48
	.cfi_offset 27, -56
	.cfi_offset 28, -64
	.cfi_offset 29, -72
	.cfi_offset 30, -80
	move	$fp, $a0
	pcaddu18i	$ra, %call36(_ZL9init_dataj)
	jirl	$ra, $ra, 0
	ld.w	$s1, $fp, 28
	ld.d	$s0, $fp, 16
	move	$a0, $fp
	pcaddu18i	$ra, %call36(_ZN9benchmark5State16StartKeepRunningEv)
	jirl	$ra, $ra, 0
	bnez	$s1, .LBB22_4
# %bb.1:                                # %entry
	beqz	$s0, .LBB22_4
# %bb.2:                                # %for.body.i.preheader
	pcalau12i	$s1, %pc_hi20(A)
	pcalau12i	$s2, %pc_hi20(B)
	pcalau12i	$s3, %pc_hi20(C)
	pcalau12i	$s4, %pc_hi20(D)
	pcalau12i	$s5, %pc_hi20(E)
	pcalau12i	$s6, %pc_hi20(F)
	pcalau12i	$s7, %pc_hi20(g_sum)
	.p2align	4, , 16
.LBB22_3:                               # %for.body.i
                                        # =>This Inner Loop Header: Depth=1
	#APP
	#NO_APP
	#APP
	#NO_APP
	#APP
	#NO_APP
	#APP
	#NO_APP
	#APP
	#NO_APP
	#APP
	#NO_APP
	#MEMBARRIER
	ori	$a0, $zero, 1
	pcaddu18i	$ra, %call36(_ZL22loopNoReductionAutoVeci)
	jirl	$ra, $ra, 0
	ld.w	$a1, $s7, %pc_lo12(g_sum)
	add.d	$a0, $a1, $a0
	addi.d	$s0, $s0, -1
	st.w	$a0, $s7, %pc_lo12(g_sum)
	bnez	$s0, .LBB22_3
.LBB22_4:                               # %_ZL27runBenchForLoopInterleavingRN9benchmark5StateEPFiiEi.exit
	move	$a0, $fp
	ld.d	$s7, $sp, 16                    # 8-byte Folded Reload
	ld.d	$s6, $sp, 24                    # 8-byte Folded Reload
	ld.d	$s5, $sp, 32                    # 8-byte Folded Reload
	ld.d	$s4, $sp, 40                    # 8-byte Folded Reload
	ld.d	$s3, $sp, 48                    # 8-byte Folded Reload
	ld.d	$s2, $sp, 56                    # 8-byte Folded Reload
	ld.d	$s1, $sp, 64                    # 8-byte Folded Reload
	ld.d	$s0, $sp, 72                    # 8-byte Folded Reload
	ld.d	$fp, $sp, 80                    # 8-byte Folded Reload
	ld.d	$ra, $sp, 88                    # 8-byte Folded Reload
	addi.d	$sp, $sp, 96
	pcaddu18i	$t8, %call36(_ZN9benchmark5State17FinishKeepRunningEv)
	jr	$t8
.Lfunc_end22:
	.size	_Z25benchAutoVecForBigLoopTC1RN9benchmark5StateE, .Lfunc_end22-_Z25benchAutoVecForBigLoopTC1RN9benchmark5StateE
	.cfi_endproc
                                        # -- End function
	.globl	_Z24benchForIC1VW4BigLoopTC1RN9benchmark5StateE # -- Begin function _Z24benchForIC1VW4BigLoopTC1RN9benchmark5StateE
	.p2align	5
	.type	_Z24benchForIC1VW4BigLoopTC1RN9benchmark5StateE,@function
_Z24benchForIC1VW4BigLoopTC1RN9benchmark5StateE: # @_Z24benchForIC1VW4BigLoopTC1RN9benchmark5StateE
	.cfi_startproc
# %bb.0:                                # %entry
	addi.d	$sp, $sp, -96
	.cfi_def_cfa_offset 96
	st.d	$ra, $sp, 88                    # 8-byte Folded Spill
	st.d	$fp, $sp, 80                    # 8-byte Folded Spill
	st.d	$s0, $sp, 72                    # 8-byte Folded Spill
	st.d	$s1, $sp, 64                    # 8-byte Folded Spill
	st.d	$s2, $sp, 56                    # 8-byte Folded Spill
	st.d	$s3, $sp, 48                    # 8-byte Folded Spill
	st.d	$s4, $sp, 40                    # 8-byte Folded Spill
	st.d	$s5, $sp, 32                    # 8-byte Folded Spill
	st.d	$s6, $sp, 24                    # 8-byte Folded Spill
	st.d	$s7, $sp, 16                    # 8-byte Folded Spill
	.cfi_offset 1, -8
	.cfi_offset 22, -16
	.cfi_offset 23, -24
	.cfi_offset 24, -32
	.cfi_offset 25, -40
	.cfi_offset 26, -48
	.cfi_offset 27, -56
	.cfi_offset 28, -64
	.cfi_offset 29, -72
	.cfi_offset 30, -80
	move	$fp, $a0
	pcaddu18i	$ra, %call36(_ZL9init_dataj)
	jirl	$ra, $ra, 0
	ld.w	$s1, $fp, 28
	ld.d	$s0, $fp, 16
	move	$a0, $fp
	pcaddu18i	$ra, %call36(_ZN9benchmark5State16StartKeepRunningEv)
	jirl	$ra, $ra, 0
	bnez	$s1, .LBB23_4
# %bb.1:                                # %entry
	beqz	$s0, .LBB23_4
# %bb.2:                                # %for.body.i.preheader
	pcalau12i	$s1, %pc_hi20(A)
	pcalau12i	$s2, %pc_hi20(B)
	pcalau12i	$s3, %pc_hi20(C)
	pcalau12i	$s4, %pc_hi20(D)
	pcalau12i	$s5, %pc_hi20(E)
	pcalau12i	$s6, %pc_hi20(F)
	pcalau12i	$s7, %pc_hi20(g_sum)
	.p2align	4, , 16
.LBB23_3:                               # %for.body.i
                                        # =>This Inner Loop Header: Depth=1
	#APP
	#NO_APP
	#APP
	#NO_APP
	#APP
	#NO_APP
	#APP
	#NO_APP
	#APP
	#NO_APP
	#APP
	#NO_APP
	#MEMBARRIER
	ori	$a0, $zero, 1
	pcaddu18i	$ra, %call36(_ZL17bigLoopWithVW4IC1i)
	jirl	$ra, $ra, 0
	ld.w	$a1, $s7, %pc_lo12(g_sum)
	add.d	$a0, $a1, $a0
	addi.d	$s0, $s0, -1
	st.w	$a0, $s7, %pc_lo12(g_sum)
	bnez	$s0, .LBB23_3
.LBB23_4:                               # %_ZL27runBenchForLoopInterleavingRN9benchmark5StateEPFiiEi.exit
	move	$a0, $fp
	ld.d	$s7, $sp, 16                    # 8-byte Folded Reload
	ld.d	$s6, $sp, 24                    # 8-byte Folded Reload
	ld.d	$s5, $sp, 32                    # 8-byte Folded Reload
	ld.d	$s4, $sp, 40                    # 8-byte Folded Reload
	ld.d	$s3, $sp, 48                    # 8-byte Folded Reload
	ld.d	$s2, $sp, 56                    # 8-byte Folded Reload
	ld.d	$s1, $sp, 64                    # 8-byte Folded Reload
	ld.d	$s0, $sp, 72                    # 8-byte Folded Reload
	ld.d	$fp, $sp, 80                    # 8-byte Folded Reload
	ld.d	$ra, $sp, 88                    # 8-byte Folded Reload
	addi.d	$sp, $sp, 96
	pcaddu18i	$t8, %call36(_ZN9benchmark5State17FinishKeepRunningEv)
	jr	$t8
.Lfunc_end23:
	.size	_Z24benchForIC1VW4BigLoopTC1RN9benchmark5StateE, .Lfunc_end23-_Z24benchForIC1VW4BigLoopTC1RN9benchmark5StateE
	.cfi_endproc
                                        # -- End function
	.p2align	5                               # -- Begin function _ZL17bigLoopWithVW4IC1i
	.type	_ZL17bigLoopWithVW4IC1i,@function
_ZL17bigLoopWithVW4IC1i:                # @_ZL17bigLoopWithVW4IC1i
# %bb.0:                                # %entry
	ori	$a1, $zero, 1
	blt	$a0, $a1, .LBB24_8
# %bb.1:                                # %for.body.preheader
	ori	$a2, $zero, 4
	lu12i.w	$a1, 419430
	bgeu	$a0, $a2, .LBB24_3
# %bb.2:
	move	$a2, $zero
	b	.LBB24_6
.LBB24_3:                               # %vector.ph
	pcalau12i	$a2, %pc_hi20(F)
	addi.d	$a3, $a2, %pc_lo12(F)
	pcalau12i	$a2, %pc_hi20(E)
	addi.d	$a4, $a2, %pc_lo12(E)
	pcalau12i	$a2, %pc_hi20(D)
	addi.d	$a5, $a2, %pc_lo12(D)
	pcalau12i	$a2, %pc_hi20(A)
	addi.d	$a6, $a2, %pc_lo12(A)
	pcalau12i	$a2, %pc_hi20(C)
	addi.d	$a7, $a2, %pc_lo12(C)
	pcalau12i	$a2, %pc_hi20(B)
	addi.d	$t0, $a2, %pc_lo12(B)
	bstrpick.d	$a2, $a0, 30, 2
	slli.d	$a2, $a2, 2
	ori	$t1, $a1, 1639
	vreplgr2vr.w	$vr0, $t1
	move	$t1, $a2
	.p2align	4, , 16
.LBB24_4:                               # %vector.body
                                        # =>This Inner Loop Header: Depth=1
	vld	$vr1, $t0, 0
	vld	$vr2, $a7, 0
	vld	$vr3, $a5, 0
	vadd.w	$vr1, $vr2, $vr1
	vst	$vr1, $a6, 0
	vld	$vr1, $a4, 0
	vaddi.wu	$vr2, $vr3, 1
	vld	$vr3, $a3, 0
	vst	$vr2, $a5, 0
	vslli.w	$vr1, $vr1, 1
	vst	$vr1, $a4, 0
	vmuh.w	$vr1, $vr3, $vr0
	vsrai.w	$vr1, $vr1, 1
	vsrli.w	$vr2, $vr1, 31
	vadd.w	$vr1, $vr1, $vr2
	vst	$vr1, $a3, 0
	addi.d	$t1, $t1, -4
	addi.d	$a3, $a3, 16
	addi.d	$a4, $a4, 16
	addi.d	$a5, $a5, 16
	addi.d	$a6, $a6, 16
	addi.d	$a7, $a7, 16
	addi.d	$t0, $t0, 16
	bnez	$t1, .LBB24_4
# %bb.5:                                # %middle.block
	beq	$a2, $a0, .LBB24_8
.LBB24_6:                               # %for.body.preheader14
	pcalau12i	$a3, %pc_hi20(F)
	addi.d	$a3, $a3, %pc_lo12(F)
	alsl.d	$a3, $a2, $a3, 2
	pcalau12i	$a4, %pc_hi20(E)
	addi.d	$a4, $a4, %pc_lo12(E)
	alsl.d	$a4, $a2, $a4, 2
	pcalau12i	$a5, %pc_hi20(D)
	addi.d	$a5, $a5, %pc_lo12(D)
	alsl.d	$a5, $a2, $a5, 2
	pcalau12i	$a6, %pc_hi20(A)
	addi.d	$a6, $a6, %pc_lo12(A)
	alsl.d	$a6, $a2, $a6, 2
	pcalau12i	$a7, %pc_hi20(C)
	addi.d	$a7, $a7, %pc_lo12(C)
	alsl.d	$a7, $a2, $a7, 2
	pcalau12i	$t0, %pc_hi20(B)
	addi.d	$t0, $t0, %pc_lo12(B)
	alsl.d	$t0, $a2, $t0, 2
	sub.d	$a0, $a0, $a2
	ori	$a1, $a1, 1639
	.p2align	4, , 16
.LBB24_7:                               # %for.body
                                        # =>This Inner Loop Header: Depth=1
	ld.w	$a2, $t0, 0
	ld.w	$t1, $a7, 0
	ld.w	$t2, $a5, 0
	add.d	$a2, $t1, $a2
	st.w	$a2, $a6, 0
	ld.w	$a2, $a4, 0
	addi.d	$t1, $t2, 1
	ld.w	$t2, $a3, 0
	st.w	$t1, $a5, 0
	slli.d	$a2, $a2, 1
	st.w	$a2, $a4, 0
	mul.d	$a2, $t2, $a1
	srli.d	$t1, $a2, 63
	srai.d	$a2, $a2, 33
	add.d	$a2, $a2, $t1
	st.w	$a2, $a3, 0
	addi.d	$a3, $a3, 4
	addi.d	$a4, $a4, 4
	addi.d	$a5, $a5, 4
	addi.d	$a6, $a6, 4
	addi.d	$a7, $a7, 4
	addi.d	$a0, $a0, -1
	addi.d	$t0, $t0, 4
	bnez	$a0, .LBB24_7
.LBB24_8:                               # %for.cond.cleanup
	move	$a0, $zero
	ret
.Lfunc_end24:
	.size	_ZL17bigLoopWithVW4IC1i, .Lfunc_end24-_ZL17bigLoopWithVW4IC1i
                                        # -- End function
	.globl	_Z24benchForIC2VW4BigLoopTC1RN9benchmark5StateE # -- Begin function _Z24benchForIC2VW4BigLoopTC1RN9benchmark5StateE
	.p2align	5
	.type	_Z24benchForIC2VW4BigLoopTC1RN9benchmark5StateE,@function
_Z24benchForIC2VW4BigLoopTC1RN9benchmark5StateE: # @_Z24benchForIC2VW4BigLoopTC1RN9benchmark5StateE
	.cfi_startproc
# %bb.0:                                # %entry
	addi.d	$sp, $sp, -96
	.cfi_def_cfa_offset 96
	st.d	$ra, $sp, 88                    # 8-byte Folded Spill
	st.d	$fp, $sp, 80                    # 8-byte Folded Spill
	st.d	$s0, $sp, 72                    # 8-byte Folded Spill
	st.d	$s1, $sp, 64                    # 8-byte Folded Spill
	st.d	$s2, $sp, 56                    # 8-byte Folded Spill
	st.d	$s3, $sp, 48                    # 8-byte Folded Spill
	st.d	$s4, $sp, 40                    # 8-byte Folded Spill
	st.d	$s5, $sp, 32                    # 8-byte Folded Spill
	st.d	$s6, $sp, 24                    # 8-byte Folded Spill
	st.d	$s7, $sp, 16                    # 8-byte Folded Spill
	.cfi_offset 1, -8
	.cfi_offset 22, -16
	.cfi_offset 23, -24
	.cfi_offset 24, -32
	.cfi_offset 25, -40
	.cfi_offset 26, -48
	.cfi_offset 27, -56
	.cfi_offset 28, -64
	.cfi_offset 29, -72
	.cfi_offset 30, -80
	move	$fp, $a0
	pcaddu18i	$ra, %call36(_ZL9init_dataj)
	jirl	$ra, $ra, 0
	ld.w	$s1, $fp, 28
	ld.d	$s0, $fp, 16
	move	$a0, $fp
	pcaddu18i	$ra, %call36(_ZN9benchmark5State16StartKeepRunningEv)
	jirl	$ra, $ra, 0
	bnez	$s1, .LBB25_4
# %bb.1:                                # %entry
	beqz	$s0, .LBB25_4
# %bb.2:                                # %for.body.i.preheader
	pcalau12i	$s1, %pc_hi20(A)
	pcalau12i	$s2, %pc_hi20(B)
	pcalau12i	$s3, %pc_hi20(C)
	pcalau12i	$s4, %pc_hi20(D)
	pcalau12i	$s5, %pc_hi20(E)
	pcalau12i	$s6, %pc_hi20(F)
	pcalau12i	$s7, %pc_hi20(g_sum)
	.p2align	4, , 16
.LBB25_3:                               # %for.body.i
                                        # =>This Inner Loop Header: Depth=1
	#APP
	#NO_APP
	#APP
	#NO_APP
	#APP
	#NO_APP
	#APP
	#NO_APP
	#APP
	#NO_APP
	#APP
	#NO_APP
	#MEMBARRIER
	ori	$a0, $zero, 1
	pcaddu18i	$ra, %call36(_ZL17bigLoopWithVW4IC2i)
	jirl	$ra, $ra, 0
	ld.w	$a1, $s7, %pc_lo12(g_sum)
	add.d	$a0, $a1, $a0
	addi.d	$s0, $s0, -1
	st.w	$a0, $s7, %pc_lo12(g_sum)
	bnez	$s0, .LBB25_3
.LBB25_4:                               # %_ZL27runBenchForLoopInterleavingRN9benchmark5StateEPFiiEi.exit
	move	$a0, $fp
	ld.d	$s7, $sp, 16                    # 8-byte Folded Reload
	ld.d	$s6, $sp, 24                    # 8-byte Folded Reload
	ld.d	$s5, $sp, 32                    # 8-byte Folded Reload
	ld.d	$s4, $sp, 40                    # 8-byte Folded Reload
	ld.d	$s3, $sp, 48                    # 8-byte Folded Reload
	ld.d	$s2, $sp, 56                    # 8-byte Folded Reload
	ld.d	$s1, $sp, 64                    # 8-byte Folded Reload
	ld.d	$s0, $sp, 72                    # 8-byte Folded Reload
	ld.d	$fp, $sp, 80                    # 8-byte Folded Reload
	ld.d	$ra, $sp, 88                    # 8-byte Folded Reload
	addi.d	$sp, $sp, 96
	pcaddu18i	$t8, %call36(_ZN9benchmark5State17FinishKeepRunningEv)
	jr	$t8
.Lfunc_end25:
	.size	_Z24benchForIC2VW4BigLoopTC1RN9benchmark5StateE, .Lfunc_end25-_Z24benchForIC2VW4BigLoopTC1RN9benchmark5StateE
	.cfi_endproc
                                        # -- End function
	.p2align	5                               # -- Begin function _ZL17bigLoopWithVW4IC2i
	.type	_ZL17bigLoopWithVW4IC2i,@function
_ZL17bigLoopWithVW4IC2i:                # @_ZL17bigLoopWithVW4IC2i
# %bb.0:                                # %entry
	ori	$a1, $zero, 1
	blt	$a0, $a1, .LBB26_8
# %bb.1:                                # %for.body.preheader
	ori	$t0, $zero, 8
	pcalau12i	$a1, %pc_hi20(F)
	addi.d	$a1, $a1, %pc_lo12(F)
	pcalau12i	$a2, %pc_hi20(E)
	addi.d	$a2, $a2, %pc_lo12(E)
	pcalau12i	$a3, %pc_hi20(D)
	addi.d	$a3, $a3, %pc_lo12(D)
	pcalau12i	$a4, %pc_hi20(A)
	addi.d	$a4, $a4, %pc_lo12(A)
	pcalau12i	$a5, %pc_hi20(C)
	addi.d	$a5, $a5, %pc_lo12(C)
	pcalau12i	$a6, %pc_hi20(B)
	addi.d	$a7, $a6, %pc_lo12(B)
	lu12i.w	$a6, 419430
	bgeu	$a0, $t0, .LBB26_3
# %bb.2:
	move	$t0, $zero
	b	.LBB26_6
.LBB26_3:                               # %vector.ph
	addi.d	$t1, $a7, 16
	addi.d	$t2, $a1, 16
	addi.d	$t3, $a5, 16
	addi.d	$t4, $a2, 16
	addi.d	$t5, $a4, 16
	addi.d	$t6, $a3, 16
	bstrpick.d	$t0, $a0, 30, 3
	slli.d	$t0, $t0, 3
	ori	$t7, $a6, 1639
	vreplgr2vr.w	$vr0, $t7
	move	$t7, $t0
	.p2align	4, , 16
.LBB26_4:                               # %vector.body
                                        # =>This Inner Loop Header: Depth=1
	vld	$vr1, $t1, -16
	vld	$vr2, $t1, 0
	vld	$vr3, $t3, -16
	vld	$vr4, $t3, 0
	vadd.w	$vr1, $vr3, $vr1
	vadd.w	$vr2, $vr4, $vr2
	vld	$vr3, $t6, -16
	vld	$vr4, $t6, 0
	vst	$vr1, $t5, -16
	vst	$vr2, $t5, 0
	vaddi.wu	$vr1, $vr3, 1
	vaddi.wu	$vr2, $vr4, 1
	vld	$vr3, $t4, -16
	vld	$vr4, $t4, 0
	vst	$vr1, $t6, -16
	vst	$vr2, $t6, 0
	vslli.w	$vr1, $vr3, 1
	vslli.w	$vr2, $vr4, 1
	vld	$vr3, $t2, -16
	vst	$vr1, $t4, -16
	vst	$vr2, $t4, 0
	vld	$vr1, $t2, 0
	vmuh.w	$vr2, $vr3, $vr0
	vsrai.w	$vr2, $vr2, 1
	vsrli.w	$vr3, $vr2, 31
	vadd.w	$vr2, $vr2, $vr3
	vmuh.w	$vr1, $vr1, $vr0
	vsrai.w	$vr1, $vr1, 1
	vsrli.w	$vr3, $vr1, 31
	vadd.w	$vr1, $vr1, $vr3
	vst	$vr2, $t2, -16
	vst	$vr1, $t2, 0
	addi.d	$t7, $t7, -8
	addi.d	$t1, $t1, 32
	addi.d	$t2, $t2, 32
	addi.d	$t3, $t3, 32
	addi.d	$t4, $t4, 32
	addi.d	$t5, $t5, 32
	addi.d	$t6, $t6, 32
	bnez	$t7, .LBB26_4
# %bb.5:                                # %middle.block
	beq	$t0, $a0, .LBB26_8
.LBB26_6:                               # %for.body.preheader19
	alsl.d	$a1, $t0, $a1, 2
	alsl.d	$a2, $t0, $a2, 2
	alsl.d	$a3, $t0, $a3, 2
	alsl.d	$a4, $t0, $a4, 2
	alsl.d	$a5, $t0, $a5, 2
	alsl.d	$a7, $t0, $a7, 2
	sub.d	$a0, $a0, $t0
	ori	$a6, $a6, 1639
	.p2align	4, , 16
.LBB26_7:                               # %for.body
                                        # =>This Inner Loop Header: Depth=1
	ld.w	$t0, $a7, 0
	ld.w	$t1, $a5, 0
	ld.w	$t2, $a3, 0
	add.d	$t0, $t1, $t0
	st.w	$t0, $a4, 0
	ld.w	$t0, $a2, 0
	addi.d	$t1, $t2, 1
	ld.w	$t2, $a1, 0
	st.w	$t1, $a3, 0
	slli.d	$t0, $t0, 1
	st.w	$t0, $a2, 0
	mul.d	$t0, $t2, $a6
	srli.d	$t1, $t0, 63
	srai.d	$t0, $t0, 33
	add.d	$t0, $t0, $t1
	st.w	$t0, $a1, 0
	addi.d	$a1, $a1, 4
	addi.d	$a2, $a2, 4
	addi.d	$a3, $a3, 4
	addi.d	$a4, $a4, 4
	addi.d	$a5, $a5, 4
	addi.d	$a0, $a0, -1
	addi.d	$a7, $a7, 4
	bnez	$a0, .LBB26_7
.LBB26_8:                               # %for.cond.cleanup
	move	$a0, $zero
	ret
.Lfunc_end26:
	.size	_ZL17bigLoopWithVW4IC2i, .Lfunc_end26-_ZL17bigLoopWithVW4IC2i
                                        # -- End function
	.globl	_Z24benchForIC4VW4BigLoopTC1RN9benchmark5StateE # -- Begin function _Z24benchForIC4VW4BigLoopTC1RN9benchmark5StateE
	.p2align	5
	.type	_Z24benchForIC4VW4BigLoopTC1RN9benchmark5StateE,@function
_Z24benchForIC4VW4BigLoopTC1RN9benchmark5StateE: # @_Z24benchForIC4VW4BigLoopTC1RN9benchmark5StateE
	.cfi_startproc
# %bb.0:                                # %entry
	addi.d	$sp, $sp, -96
	.cfi_def_cfa_offset 96
	st.d	$ra, $sp, 88                    # 8-byte Folded Spill
	st.d	$fp, $sp, 80                    # 8-byte Folded Spill
	st.d	$s0, $sp, 72                    # 8-byte Folded Spill
	st.d	$s1, $sp, 64                    # 8-byte Folded Spill
	st.d	$s2, $sp, 56                    # 8-byte Folded Spill
	st.d	$s3, $sp, 48                    # 8-byte Folded Spill
	st.d	$s4, $sp, 40                    # 8-byte Folded Spill
	st.d	$s5, $sp, 32                    # 8-byte Folded Spill
	st.d	$s6, $sp, 24                    # 8-byte Folded Spill
	st.d	$s7, $sp, 16                    # 8-byte Folded Spill
	.cfi_offset 1, -8
	.cfi_offset 22, -16
	.cfi_offset 23, -24
	.cfi_offset 24, -32
	.cfi_offset 25, -40
	.cfi_offset 26, -48
	.cfi_offset 27, -56
	.cfi_offset 28, -64
	.cfi_offset 29, -72
	.cfi_offset 30, -80
	move	$fp, $a0
	pcaddu18i	$ra, %call36(_ZL9init_dataj)
	jirl	$ra, $ra, 0
	ld.w	$s1, $fp, 28
	ld.d	$s0, $fp, 16
	move	$a0, $fp
	pcaddu18i	$ra, %call36(_ZN9benchmark5State16StartKeepRunningEv)
	jirl	$ra, $ra, 0
	bnez	$s1, .LBB27_4
# %bb.1:                                # %entry
	beqz	$s0, .LBB27_4
# %bb.2:                                # %for.body.i.preheader
	pcalau12i	$s1, %pc_hi20(A)
	pcalau12i	$s2, %pc_hi20(B)
	pcalau12i	$s3, %pc_hi20(C)
	pcalau12i	$s4, %pc_hi20(D)
	pcalau12i	$s5, %pc_hi20(E)
	pcalau12i	$s6, %pc_hi20(F)
	pcalau12i	$s7, %pc_hi20(g_sum)
	.p2align	4, , 16
.LBB27_3:                               # %for.body.i
                                        # =>This Inner Loop Header: Depth=1
	#APP
	#NO_APP
	#APP
	#NO_APP
	#APP
	#NO_APP
	#APP
	#NO_APP
	#APP
	#NO_APP
	#APP
	#NO_APP
	#MEMBARRIER
	ori	$a0, $zero, 1
	pcaddu18i	$ra, %call36(_ZL17bigLoopWithVW4IC4i)
	jirl	$ra, $ra, 0
	ld.w	$a1, $s7, %pc_lo12(g_sum)
	add.d	$a0, $a1, $a0
	addi.d	$s0, $s0, -1
	st.w	$a0, $s7, %pc_lo12(g_sum)
	bnez	$s0, .LBB27_3
.LBB27_4:                               # %_ZL27runBenchForLoopInterleavingRN9benchmark5StateEPFiiEi.exit
	move	$a0, $fp
	ld.d	$s7, $sp, 16                    # 8-byte Folded Reload
	ld.d	$s6, $sp, 24                    # 8-byte Folded Reload
	ld.d	$s5, $sp, 32                    # 8-byte Folded Reload
	ld.d	$s4, $sp, 40                    # 8-byte Folded Reload
	ld.d	$s3, $sp, 48                    # 8-byte Folded Reload
	ld.d	$s2, $sp, 56                    # 8-byte Folded Reload
	ld.d	$s1, $sp, 64                    # 8-byte Folded Reload
	ld.d	$s0, $sp, 72                    # 8-byte Folded Reload
	ld.d	$fp, $sp, 80                    # 8-byte Folded Reload
	ld.d	$ra, $sp, 88                    # 8-byte Folded Reload
	addi.d	$sp, $sp, 96
	pcaddu18i	$t8, %call36(_ZN9benchmark5State17FinishKeepRunningEv)
	jr	$t8
.Lfunc_end27:
	.size	_Z24benchForIC4VW4BigLoopTC1RN9benchmark5StateE, .Lfunc_end27-_Z24benchForIC4VW4BigLoopTC1RN9benchmark5StateE
	.cfi_endproc
                                        # -- End function
	.p2align	5                               # -- Begin function _ZL17bigLoopWithVW4IC4i
	.type	_ZL17bigLoopWithVW4IC4i,@function
_ZL17bigLoopWithVW4IC4i:                # @_ZL17bigLoopWithVW4IC4i
# %bb.0:                                # %entry
	ori	$a1, $zero, 1
	blt	$a0, $a1, .LBB28_8
# %bb.1:                                # %for.body.preheader
	ori	$t0, $zero, 16
	pcalau12i	$a1, %pc_hi20(F)
	addi.d	$a1, $a1, %pc_lo12(F)
	pcalau12i	$a2, %pc_hi20(E)
	addi.d	$a2, $a2, %pc_lo12(E)
	pcalau12i	$a3, %pc_hi20(D)
	addi.d	$a3, $a3, %pc_lo12(D)
	pcalau12i	$a4, %pc_hi20(A)
	addi.d	$a4, $a4, %pc_lo12(A)
	pcalau12i	$a5, %pc_hi20(C)
	addi.d	$a5, $a5, %pc_lo12(C)
	pcalau12i	$a6, %pc_hi20(B)
	addi.d	$a7, $a6, %pc_lo12(B)
	lu12i.w	$a6, 419430
	bgeu	$a0, $t0, .LBB28_3
# %bb.2:
	move	$t0, $zero
	b	.LBB28_6
.LBB28_3:                               # %vector.ph
	addi.d	$t1, $a7, 32
	addi.d	$t2, $a5, 32
	addi.d	$t3, $a4, 32
	addi.d	$t4, $a1, 32
	addi.d	$t5, $a3, 32
	addi.d	$t6, $a2, 32
	bstrpick.d	$t0, $a0, 30, 4
	slli.d	$t0, $t0, 4
	ori	$t7, $a6, 1639
	vreplgr2vr.w	$vr0, $t7
	move	$t7, $t0
	.p2align	4, , 16
.LBB28_4:                               # %vector.body
                                        # =>This Inner Loop Header: Depth=1
	vld	$vr1, $t1, -32
	vld	$vr2, $t1, -16
	vld	$vr3, $t1, 0
	vld	$vr4, $t1, 16
	vld	$vr5, $t2, -32
	vld	$vr6, $t2, -16
	vld	$vr7, $t2, 0
	vld	$vr8, $t2, 16
	vadd.w	$vr1, $vr5, $vr1
	vadd.w	$vr2, $vr6, $vr2
	vadd.w	$vr3, $vr7, $vr3
	vadd.w	$vr4, $vr8, $vr4
	vst	$vr1, $t3, -32
	vst	$vr2, $t3, -16
	vst	$vr3, $t3, 0
	vst	$vr4, $t3, 16
	vld	$vr1, $t5, -32
	vld	$vr2, $t5, -16
	vld	$vr3, $t5, 0
	vld	$vr4, $t5, 16
	vaddi.wu	$vr1, $vr1, 1
	vaddi.wu	$vr2, $vr2, 1
	vaddi.wu	$vr3, $vr3, 1
	vaddi.wu	$vr4, $vr4, 1
	vst	$vr1, $t5, -32
	vst	$vr2, $t5, -16
	vst	$vr3, $t5, 0
	vst	$vr4, $t5, 16
	vld	$vr1, $t6, -32
	vld	$vr2, $t6, -16
	vld	$vr3, $t6, 0
	vld	$vr4, $t6, 16
	vslli.w	$vr1, $vr1, 1
	vslli.w	$vr2, $vr2, 1
	vslli.w	$vr3, $vr3, 1
	vslli.w	$vr4, $vr4, 1
	vst	$vr1, $t6, -32
	vst	$vr2, $t6, -16
	vst	$vr3, $t6, 0
	vst	$vr4, $t6, 16
	vld	$vr1, $t4, -32
	vld	$vr2, $t4, -16
	vld	$vr3, $t4, 0
	vld	$vr4, $t4, 16
	vmuh.w	$vr1, $vr1, $vr0
	vsrai.w	$vr1, $vr1, 1
	vsrli.w	$vr5, $vr1, 31
	vadd.w	$vr1, $vr1, $vr5
	vmuh.w	$vr2, $vr2, $vr0
	vsrai.w	$vr2, $vr2, 1
	vsrli.w	$vr5, $vr2, 31
	vadd.w	$vr2, $vr2, $vr5
	vmuh.w	$vr3, $vr3, $vr0
	vsrai.w	$vr3, $vr3, 1
	vsrli.w	$vr5, $vr3, 31
	vadd.w	$vr3, $vr3, $vr5
	vmuh.w	$vr4, $vr4, $vr0
	vsrai.w	$vr4, $vr4, 1
	vsrli.w	$vr5, $vr4, 31
	vadd.w	$vr4, $vr4, $vr5
	vst	$vr1, $t4, -32
	vst	$vr2, $t4, -16
	vst	$vr3, $t4, 0
	vst	$vr4, $t4, 16
	addi.d	$t7, $t7, -16
	addi.d	$t1, $t1, 64
	addi.d	$t2, $t2, 64
	addi.d	$t3, $t3, 64
	addi.d	$t4, $t4, 64
	addi.d	$t5, $t5, 64
	addi.d	$t6, $t6, 64
	bnez	$t7, .LBB28_4
# %bb.5:                                # %middle.block
	beq	$t0, $a0, .LBB28_8
.LBB28_6:                               # %for.body.preheader29
	alsl.d	$a1, $t0, $a1, 2
	alsl.d	$a2, $t0, $a2, 2
	alsl.d	$a3, $t0, $a3, 2
	alsl.d	$a4, $t0, $a4, 2
	alsl.d	$a5, $t0, $a5, 2
	alsl.d	$a7, $t0, $a7, 2
	sub.d	$a0, $a0, $t0
	ori	$a6, $a6, 1639
	.p2align	4, , 16
.LBB28_7:                               # %for.body
                                        # =>This Inner Loop Header: Depth=1
	ld.w	$t0, $a7, 0
	ld.w	$t1, $a5, 0
	ld.w	$t2, $a3, 0
	add.d	$t0, $t1, $t0
	st.w	$t0, $a4, 0
	ld.w	$t0, $a2, 0
	addi.d	$t1, $t2, 1
	ld.w	$t2, $a1, 0
	st.w	$t1, $a3, 0
	slli.d	$t0, $t0, 1
	st.w	$t0, $a2, 0
	mul.d	$t0, $t2, $a6
	srli.d	$t1, $t0, 63
	srai.d	$t0, $t0, 33
	add.d	$t0, $t0, $t1
	st.w	$t0, $a1, 0
	addi.d	$a1, $a1, 4
	addi.d	$a2, $a2, 4
	addi.d	$a3, $a3, 4
	addi.d	$a4, $a4, 4
	addi.d	$a5, $a5, 4
	addi.d	$a0, $a0, -1
	addi.d	$a7, $a7, 4
	bnez	$a0, .LBB28_7
.LBB28_8:                               # %for.cond.cleanup
	move	$a0, $zero
	ret
.Lfunc_end28:
	.size	_ZL17bigLoopWithVW4IC4i, .Lfunc_end28-_ZL17bigLoopWithVW4IC4i
                                        # -- End function
	.globl	_Z38benchForBigLoopWithReductionAutoVecTC1RN9benchmark5StateE # -- Begin function _Z38benchForBigLoopWithReductionAutoVecTC1RN9benchmark5StateE
	.p2align	5
	.type	_Z38benchForBigLoopWithReductionAutoVecTC1RN9benchmark5StateE,@function
_Z38benchForBigLoopWithReductionAutoVecTC1RN9benchmark5StateE: # @_Z38benchForBigLoopWithReductionAutoVecTC1RN9benchmark5StateE
	.cfi_startproc
# %bb.0:                                # %entry
	addi.d	$sp, $sp, -96
	.cfi_def_cfa_offset 96
	st.d	$ra, $sp, 88                    # 8-byte Folded Spill
	st.d	$fp, $sp, 80                    # 8-byte Folded Spill
	st.d	$s0, $sp, 72                    # 8-byte Folded Spill
	st.d	$s1, $sp, 64                    # 8-byte Folded Spill
	st.d	$s2, $sp, 56                    # 8-byte Folded Spill
	st.d	$s3, $sp, 48                    # 8-byte Folded Spill
	st.d	$s4, $sp, 40                    # 8-byte Folded Spill
	st.d	$s5, $sp, 32                    # 8-byte Folded Spill
	st.d	$s6, $sp, 24                    # 8-byte Folded Spill
	st.d	$s7, $sp, 16                    # 8-byte Folded Spill
	.cfi_offset 1, -8
	.cfi_offset 22, -16
	.cfi_offset 23, -24
	.cfi_offset 24, -32
	.cfi_offset 25, -40
	.cfi_offset 26, -48
	.cfi_offset 27, -56
	.cfi_offset 28, -64
	.cfi_offset 29, -72
	.cfi_offset 30, -80
	move	$fp, $a0
	pcaddu18i	$ra, %call36(_ZL9init_dataj)
	jirl	$ra, $ra, 0
	ld.w	$s1, $fp, 28
	ld.d	$s0, $fp, 16
	move	$a0, $fp
	pcaddu18i	$ra, %call36(_ZN9benchmark5State16StartKeepRunningEv)
	jirl	$ra, $ra, 0
	bnez	$s1, .LBB29_4
# %bb.1:                                # %entry
	beqz	$s0, .LBB29_4
# %bb.2:                                # %for.body.i.preheader
	pcalau12i	$s1, %pc_hi20(A)
	pcalau12i	$s2, %pc_hi20(B)
	pcalau12i	$s3, %pc_hi20(C)
	pcalau12i	$s4, %pc_hi20(D)
	pcalau12i	$s5, %pc_hi20(E)
	pcalau12i	$s6, %pc_hi20(F)
	pcalau12i	$s7, %pc_hi20(g_sum)
	.p2align	4, , 16
.LBB29_3:                               # %for.body.i
                                        # =>This Inner Loop Header: Depth=1
	#APP
	#NO_APP
	#APP
	#NO_APP
	#APP
	#NO_APP
	#APP
	#NO_APP
	#APP
	#NO_APP
	#APP
	#NO_APP
	#MEMBARRIER
	ori	$a0, $zero, 1
	pcaddu18i	$ra, %call36(_ZL27bigLoopWithReductionAutoVeci)
	jirl	$ra, $ra, 0
	ld.w	$a1, $s7, %pc_lo12(g_sum)
	add.d	$a0, $a1, $a0
	addi.d	$s0, $s0, -1
	st.w	$a0, $s7, %pc_lo12(g_sum)
	bnez	$s0, .LBB29_3
.LBB29_4:                               # %_ZL27runBenchForLoopInterleavingRN9benchmark5StateEPFiiEi.exit
	move	$a0, $fp
	ld.d	$s7, $sp, 16                    # 8-byte Folded Reload
	ld.d	$s6, $sp, 24                    # 8-byte Folded Reload
	ld.d	$s5, $sp, 32                    # 8-byte Folded Reload
	ld.d	$s4, $sp, 40                    # 8-byte Folded Reload
	ld.d	$s3, $sp, 48                    # 8-byte Folded Reload
	ld.d	$s2, $sp, 56                    # 8-byte Folded Reload
	ld.d	$s1, $sp, 64                    # 8-byte Folded Reload
	ld.d	$s0, $sp, 72                    # 8-byte Folded Reload
	ld.d	$fp, $sp, 80                    # 8-byte Folded Reload
	ld.d	$ra, $sp, 88                    # 8-byte Folded Reload
	addi.d	$sp, $sp, 96
	pcaddu18i	$t8, %call36(_ZN9benchmark5State17FinishKeepRunningEv)
	jr	$t8
.Lfunc_end29:
	.size	_Z38benchForBigLoopWithReductionAutoVecTC1RN9benchmark5StateE, .Lfunc_end29-_Z38benchForBigLoopWithReductionAutoVecTC1RN9benchmark5StateE
	.cfi_endproc
                                        # -- End function
	.p2align	5                               # -- Begin function _ZL27bigLoopWithReductionAutoVeci
	.type	_ZL27bigLoopWithReductionAutoVeci,@function
_ZL27bigLoopWithReductionAutoVeci:      # @_ZL27bigLoopWithReductionAutoVeci
# %bb.0:                                # %entry
	ori	$a1, $zero, 1
	blt	$a0, $a1, .LBB30_3
# %bb.1:                                # %for.body.preheader
	ori	$a1, $zero, 8
	lu12i.w	$a2, 419430
	bgeu	$a0, $a1, .LBB30_4
# %bb.2:
	move	$a3, $zero
	move	$a1, $zero
	b	.LBB30_7
.LBB30_3:
	move	$a1, $zero
	move	$a0, $a1
	ret
.LBB30_4:                               # %vector.ph
	pcalau12i	$a1, %pc_hi20(F)
	addi.d	$a1, $a1, %pc_lo12(F)
	pcalau12i	$a3, %pc_hi20(E)
	addi.d	$a4, $a3, %pc_lo12(E)
	pcalau12i	$a3, %pc_hi20(D)
	addi.d	$a5, $a3, %pc_lo12(D)
	pcalau12i	$a3, %pc_hi20(A)
	addi.d	$a6, $a3, %pc_lo12(A)
	bstrpick.d	$a3, $a0, 30, 3
	slli.d	$a3, $a3, 3
	xvrepli.b	$xr0, 0
	ori	$a7, $a2, 1639
	xvreplgr2vr.w	$xr1, $a7
	move	$a7, $a3
	.p2align	4, , 16
.LBB30_5:                               # %vector.body
                                        # =>This Inner Loop Header: Depth=1
	xvld	$xr2, $a6, 0
	xvld	$xr3, $a5, 0
	xvadd.w	$xr0, $xr2, $xr0
	xvld	$xr2, $a4, 0
	xvaddi.wu	$xr3, $xr3, 1
	xvld	$xr4, $a1, 0
	xvst	$xr3, $a5, 0
	xvslli.w	$xr2, $xr2, 1
	xvst	$xr2, $a4, 0
	xvmuh.w	$xr2, $xr4, $xr1
	xvsrai.w	$xr2, $xr2, 1
	xvsrli.w	$xr3, $xr2, 31
	xvadd.w	$xr2, $xr2, $xr3
	xvst	$xr2, $a1, 0
	addi.d	$a7, $a7, -8
	addi.d	$a1, $a1, 32
	addi.d	$a4, $a4, 32
	addi.d	$a5, $a5, 32
	addi.d	$a6, $a6, 32
	bnez	$a7, .LBB30_5
# %bb.6:                                # %middle.block
	xvpermi.d	$xr1, $xr0, 78
	xvshuf4i.w	$xr1, $xr1, 228
	xvadd.w	$xr0, $xr0, $xr1
	xvpermi.d	$xr1, $xr0, 68
	xvshuf4i.w	$xr1, $xr1, 14
	xvadd.w	$xr0, $xr0, $xr1
	xvpermi.d	$xr1, $xr0, 68
	xvrepl128vei.w	$xr1, $xr1, 1
	xvadd.w	$xr0, $xr0, $xr1
	xvpickve2gr.w	$a1, $xr0, 0
	beq	$a3, $a0, .LBB30_9
.LBB30_7:                               # %for.body.preheader13
	pcalau12i	$a4, %pc_hi20(F)
	addi.d	$a4, $a4, %pc_lo12(F)
	alsl.d	$a4, $a3, $a4, 2
	pcalau12i	$a5, %pc_hi20(E)
	addi.d	$a5, $a5, %pc_lo12(E)
	alsl.d	$a5, $a3, $a5, 2
	pcalau12i	$a6, %pc_hi20(D)
	addi.d	$a6, $a6, %pc_lo12(D)
	alsl.d	$a6, $a3, $a6, 2
	pcalau12i	$a7, %pc_hi20(A)
	addi.d	$a7, $a7, %pc_lo12(A)
	alsl.d	$a7, $a3, $a7, 2
	sub.d	$a0, $a0, $a3
	ori	$a2, $a2, 1639
	.p2align	4, , 16
.LBB30_8:                               # %for.body
                                        # =>This Inner Loop Header: Depth=1
	ld.w	$a3, $a7, 0
	ld.w	$t0, $a6, 0
	add.w	$a1, $a3, $a1
	ld.w	$a3, $a5, 0
	addi.d	$t0, $t0, 1
	ld.w	$t1, $a4, 0
	st.w	$t0, $a6, 0
	slli.d	$a3, $a3, 1
	st.w	$a3, $a5, 0
	mul.d	$a3, $t1, $a2
	srli.d	$t0, $a3, 63
	srai.d	$a3, $a3, 33
	add.d	$a3, $a3, $t0
	st.w	$a3, $a4, 0
	addi.d	$a4, $a4, 4
	addi.d	$a5, $a5, 4
	addi.d	$a6, $a6, 4
	addi.d	$a0, $a0, -1
	addi.d	$a7, $a7, 4
	bnez	$a0, .LBB30_8
.LBB30_9:                               # %for.cond.cleanup
	move	$a0, $a1
	ret
.Lfunc_end30:
	.size	_ZL27bigLoopWithReductionAutoVeci, .Lfunc_end30-_ZL27bigLoopWithReductionAutoVeci
                                        # -- End function
	.globl	_Z37benchForIC1VW4BigLoopWithReductionTC1RN9benchmark5StateE # -- Begin function _Z37benchForIC1VW4BigLoopWithReductionTC1RN9benchmark5StateE
	.p2align	5
	.type	_Z37benchForIC1VW4BigLoopWithReductionTC1RN9benchmark5StateE,@function
_Z37benchForIC1VW4BigLoopWithReductionTC1RN9benchmark5StateE: # @_Z37benchForIC1VW4BigLoopWithReductionTC1RN9benchmark5StateE
	.cfi_startproc
# %bb.0:                                # %entry
	addi.d	$sp, $sp, -96
	.cfi_def_cfa_offset 96
	st.d	$ra, $sp, 88                    # 8-byte Folded Spill
	st.d	$fp, $sp, 80                    # 8-byte Folded Spill
	st.d	$s0, $sp, 72                    # 8-byte Folded Spill
	st.d	$s1, $sp, 64                    # 8-byte Folded Spill
	st.d	$s2, $sp, 56                    # 8-byte Folded Spill
	st.d	$s3, $sp, 48                    # 8-byte Folded Spill
	st.d	$s4, $sp, 40                    # 8-byte Folded Spill
	st.d	$s5, $sp, 32                    # 8-byte Folded Spill
	st.d	$s6, $sp, 24                    # 8-byte Folded Spill
	st.d	$s7, $sp, 16                    # 8-byte Folded Spill
	.cfi_offset 1, -8
	.cfi_offset 22, -16
	.cfi_offset 23, -24
	.cfi_offset 24, -32
	.cfi_offset 25, -40
	.cfi_offset 26, -48
	.cfi_offset 27, -56
	.cfi_offset 28, -64
	.cfi_offset 29, -72
	.cfi_offset 30, -80
	move	$fp, $a0
	pcaddu18i	$ra, %call36(_ZL9init_dataj)
	jirl	$ra, $ra, 0
	ld.w	$s1, $fp, 28
	ld.d	$s0, $fp, 16
	move	$a0, $fp
	pcaddu18i	$ra, %call36(_ZN9benchmark5State16StartKeepRunningEv)
	jirl	$ra, $ra, 0
	bnez	$s1, .LBB31_4
# %bb.1:                                # %entry
	beqz	$s0, .LBB31_4
# %bb.2:                                # %for.body.i.preheader
	pcalau12i	$s1, %pc_hi20(A)
	pcalau12i	$s2, %pc_hi20(B)
	pcalau12i	$s3, %pc_hi20(C)
	pcalau12i	$s4, %pc_hi20(D)
	pcalau12i	$s5, %pc_hi20(E)
	pcalau12i	$s6, %pc_hi20(F)
	pcalau12i	$s7, %pc_hi20(g_sum)
	.p2align	4, , 16
.LBB31_3:                               # %for.body.i
                                        # =>This Inner Loop Header: Depth=1
	#APP
	#NO_APP
	#APP
	#NO_APP
	#APP
	#NO_APP
	#APP
	#NO_APP
	#APP
	#NO_APP
	#APP
	#NO_APP
	#MEMBARRIER
	ori	$a0, $zero, 1
	pcaddu18i	$ra, %call36(_ZL30bigLoopWithReductionWithVW4IC1i)
	jirl	$ra, $ra, 0
	ld.w	$a1, $s7, %pc_lo12(g_sum)
	add.d	$a0, $a1, $a0
	addi.d	$s0, $s0, -1
	st.w	$a0, $s7, %pc_lo12(g_sum)
	bnez	$s0, .LBB31_3
.LBB31_4:                               # %_ZL27runBenchForLoopInterleavingRN9benchmark5StateEPFiiEi.exit
	move	$a0, $fp
	ld.d	$s7, $sp, 16                    # 8-byte Folded Reload
	ld.d	$s6, $sp, 24                    # 8-byte Folded Reload
	ld.d	$s5, $sp, 32                    # 8-byte Folded Reload
	ld.d	$s4, $sp, 40                    # 8-byte Folded Reload
	ld.d	$s3, $sp, 48                    # 8-byte Folded Reload
	ld.d	$s2, $sp, 56                    # 8-byte Folded Reload
	ld.d	$s1, $sp, 64                    # 8-byte Folded Reload
	ld.d	$s0, $sp, 72                    # 8-byte Folded Reload
	ld.d	$fp, $sp, 80                    # 8-byte Folded Reload
	ld.d	$ra, $sp, 88                    # 8-byte Folded Reload
	addi.d	$sp, $sp, 96
	pcaddu18i	$t8, %call36(_ZN9benchmark5State17FinishKeepRunningEv)
	jr	$t8
.Lfunc_end31:
	.size	_Z37benchForIC1VW4BigLoopWithReductionTC1RN9benchmark5StateE, .Lfunc_end31-_Z37benchForIC1VW4BigLoopWithReductionTC1RN9benchmark5StateE
	.cfi_endproc
                                        # -- End function
	.p2align	5                               # -- Begin function _ZL30bigLoopWithReductionWithVW4IC1i
	.type	_ZL30bigLoopWithReductionWithVW4IC1i,@function
_ZL30bigLoopWithReductionWithVW4IC1i:   # @_ZL30bigLoopWithReductionWithVW4IC1i
# %bb.0:                                # %entry
	ori	$a1, $zero, 1
	blt	$a0, $a1, .LBB32_3
# %bb.1:                                # %for.body.preheader
	ori	$a1, $zero, 4
	lu12i.w	$a2, 419430
	bgeu	$a0, $a1, .LBB32_4
# %bb.2:
	move	$a3, $zero
	move	$a1, $zero
	b	.LBB32_7
.LBB32_3:
	move	$a1, $zero
	move	$a0, $a1
	ret
.LBB32_4:                               # %vector.ph
	pcalau12i	$a1, %pc_hi20(F)
	addi.d	$a1, $a1, %pc_lo12(F)
	pcalau12i	$a3, %pc_hi20(E)
	addi.d	$a4, $a3, %pc_lo12(E)
	pcalau12i	$a3, %pc_hi20(D)
	addi.d	$a5, $a3, %pc_lo12(D)
	pcalau12i	$a3, %pc_hi20(A)
	addi.d	$a6, $a3, %pc_lo12(A)
	bstrpick.d	$a3, $a0, 30, 2
	slli.d	$a3, $a3, 2
	vrepli.b	$vr0, 0
	ori	$a7, $a2, 1639
	vreplgr2vr.w	$vr1, $a7
	move	$a7, $a3
	.p2align	4, , 16
.LBB32_5:                               # %vector.body
                                        # =>This Inner Loop Header: Depth=1
	vld	$vr2, $a6, 0
	vld	$vr3, $a5, 0
	vadd.w	$vr0, $vr2, $vr0
	vld	$vr2, $a4, 0
	vaddi.wu	$vr3, $vr3, 1
	vld	$vr4, $a1, 0
	vst	$vr3, $a5, 0
	vslli.w	$vr2, $vr2, 1
	vst	$vr2, $a4, 0
	vmuh.w	$vr2, $vr4, $vr1
	vsrai.w	$vr2, $vr2, 1
	vsrli.w	$vr3, $vr2, 31
	vadd.w	$vr2, $vr2, $vr3
	vst	$vr2, $a1, 0
	addi.d	$a7, $a7, -4
	addi.d	$a1, $a1, 16
	addi.d	$a4, $a4, 16
	addi.d	$a5, $a5, 16
	addi.d	$a6, $a6, 16
	bnez	$a7, .LBB32_5
# %bb.6:                                # %middle.block
	vshuf4i.w	$vr1, $vr0, 14
	vadd.w	$vr0, $vr0, $vr1
	vreplvei.w	$vr1, $vr0, 1
	vadd.w	$vr0, $vr0, $vr1
	vpickve2gr.w	$a1, $vr0, 0
	beq	$a3, $a0, .LBB32_9
.LBB32_7:                               # %for.body.preheader13
	pcalau12i	$a4, %pc_hi20(F)
	addi.d	$a4, $a4, %pc_lo12(F)
	alsl.d	$a4, $a3, $a4, 2
	pcalau12i	$a5, %pc_hi20(E)
	addi.d	$a5, $a5, %pc_lo12(E)
	alsl.d	$a5, $a3, $a5, 2
	pcalau12i	$a6, %pc_hi20(D)
	addi.d	$a6, $a6, %pc_lo12(D)
	alsl.d	$a6, $a3, $a6, 2
	pcalau12i	$a7, %pc_hi20(A)
	addi.d	$a7, $a7, %pc_lo12(A)
	alsl.d	$a7, $a3, $a7, 2
	sub.d	$a0, $a0, $a3
	ori	$a2, $a2, 1639
	.p2align	4, , 16
.LBB32_8:                               # %for.body
                                        # =>This Inner Loop Header: Depth=1
	ld.w	$a3, $a7, 0
	ld.w	$t0, $a6, 0
	add.w	$a1, $a3, $a1
	ld.w	$a3, $a5, 0
	addi.d	$t0, $t0, 1
	ld.w	$t1, $a4, 0
	st.w	$t0, $a6, 0
	slli.d	$a3, $a3, 1
	st.w	$a3, $a5, 0
	mul.d	$a3, $t1, $a2
	srli.d	$t0, $a3, 63
	srai.d	$a3, $a3, 33
	add.d	$a3, $a3, $t0
	st.w	$a3, $a4, 0
	addi.d	$a4, $a4, 4
	addi.d	$a5, $a5, 4
	addi.d	$a6, $a6, 4
	addi.d	$a0, $a0, -1
	addi.d	$a7, $a7, 4
	bnez	$a0, .LBB32_8
.LBB32_9:                               # %for.cond.cleanup
	move	$a0, $a1
	ret
.Lfunc_end32:
	.size	_ZL30bigLoopWithReductionWithVW4IC1i, .Lfunc_end32-_ZL30bigLoopWithReductionWithVW4IC1i
                                        # -- End function
	.globl	_Z37benchForIC2VW4BigLoopWithReductionTC1RN9benchmark5StateE # -- Begin function _Z37benchForIC2VW4BigLoopWithReductionTC1RN9benchmark5StateE
	.p2align	5
	.type	_Z37benchForIC2VW4BigLoopWithReductionTC1RN9benchmark5StateE,@function
_Z37benchForIC2VW4BigLoopWithReductionTC1RN9benchmark5StateE: # @_Z37benchForIC2VW4BigLoopWithReductionTC1RN9benchmark5StateE
	.cfi_startproc
# %bb.0:                                # %entry
	addi.d	$sp, $sp, -96
	.cfi_def_cfa_offset 96
	st.d	$ra, $sp, 88                    # 8-byte Folded Spill
	st.d	$fp, $sp, 80                    # 8-byte Folded Spill
	st.d	$s0, $sp, 72                    # 8-byte Folded Spill
	st.d	$s1, $sp, 64                    # 8-byte Folded Spill
	st.d	$s2, $sp, 56                    # 8-byte Folded Spill
	st.d	$s3, $sp, 48                    # 8-byte Folded Spill
	st.d	$s4, $sp, 40                    # 8-byte Folded Spill
	st.d	$s5, $sp, 32                    # 8-byte Folded Spill
	st.d	$s6, $sp, 24                    # 8-byte Folded Spill
	st.d	$s7, $sp, 16                    # 8-byte Folded Spill
	.cfi_offset 1, -8
	.cfi_offset 22, -16
	.cfi_offset 23, -24
	.cfi_offset 24, -32
	.cfi_offset 25, -40
	.cfi_offset 26, -48
	.cfi_offset 27, -56
	.cfi_offset 28, -64
	.cfi_offset 29, -72
	.cfi_offset 30, -80
	move	$fp, $a0
	pcaddu18i	$ra, %call36(_ZL9init_dataj)
	jirl	$ra, $ra, 0
	ld.w	$s1, $fp, 28
	ld.d	$s0, $fp, 16
	move	$a0, $fp
	pcaddu18i	$ra, %call36(_ZN9benchmark5State16StartKeepRunningEv)
	jirl	$ra, $ra, 0
	bnez	$s1, .LBB33_4
# %bb.1:                                # %entry
	beqz	$s0, .LBB33_4
# %bb.2:                                # %for.body.i.preheader
	pcalau12i	$s1, %pc_hi20(A)
	pcalau12i	$s2, %pc_hi20(B)
	pcalau12i	$s3, %pc_hi20(C)
	pcalau12i	$s4, %pc_hi20(D)
	pcalau12i	$s5, %pc_hi20(E)
	pcalau12i	$s6, %pc_hi20(F)
	pcalau12i	$s7, %pc_hi20(g_sum)
	.p2align	4, , 16
.LBB33_3:                               # %for.body.i
                                        # =>This Inner Loop Header: Depth=1
	#APP
	#NO_APP
	#APP
	#NO_APP
	#APP
	#NO_APP
	#APP
	#NO_APP
	#APP
	#NO_APP
	#APP
	#NO_APP
	#MEMBARRIER
	ori	$a0, $zero, 1
	pcaddu18i	$ra, %call36(_ZL30bigLoopWithReductionWithVW4IC2i)
	jirl	$ra, $ra, 0
	ld.w	$a1, $s7, %pc_lo12(g_sum)
	add.d	$a0, $a1, $a0
	addi.d	$s0, $s0, -1
	st.w	$a0, $s7, %pc_lo12(g_sum)
	bnez	$s0, .LBB33_3
.LBB33_4:                               # %_ZL27runBenchForLoopInterleavingRN9benchmark5StateEPFiiEi.exit
	move	$a0, $fp
	ld.d	$s7, $sp, 16                    # 8-byte Folded Reload
	ld.d	$s6, $sp, 24                    # 8-byte Folded Reload
	ld.d	$s5, $sp, 32                    # 8-byte Folded Reload
	ld.d	$s4, $sp, 40                    # 8-byte Folded Reload
	ld.d	$s3, $sp, 48                    # 8-byte Folded Reload
	ld.d	$s2, $sp, 56                    # 8-byte Folded Reload
	ld.d	$s1, $sp, 64                    # 8-byte Folded Reload
	ld.d	$s0, $sp, 72                    # 8-byte Folded Reload
	ld.d	$fp, $sp, 80                    # 8-byte Folded Reload
	ld.d	$ra, $sp, 88                    # 8-byte Folded Reload
	addi.d	$sp, $sp, 96
	pcaddu18i	$t8, %call36(_ZN9benchmark5State17FinishKeepRunningEv)
	jr	$t8
.Lfunc_end33:
	.size	_Z37benchForIC2VW4BigLoopWithReductionTC1RN9benchmark5StateE, .Lfunc_end33-_Z37benchForIC2VW4BigLoopWithReductionTC1RN9benchmark5StateE
	.cfi_endproc
                                        # -- End function
	.p2align	5                               # -- Begin function _ZL30bigLoopWithReductionWithVW4IC2i
	.type	_ZL30bigLoopWithReductionWithVW4IC2i,@function
_ZL30bigLoopWithReductionWithVW4IC2i:   # @_ZL30bigLoopWithReductionWithVW4IC2i
# %bb.0:                                # %entry
	ori	$a1, $zero, 1
	blt	$a0, $a1, .LBB34_3
# %bb.1:                                # %for.body.preheader
	ori	$a1, $zero, 8
	pcalau12i	$a2, %pc_hi20(F)
	addi.d	$a2, $a2, %pc_lo12(F)
	pcalau12i	$a3, %pc_hi20(E)
	addi.d	$a3, $a3, %pc_lo12(E)
	pcalau12i	$a4, %pc_hi20(D)
	addi.d	$a4, $a4, %pc_lo12(D)
	pcalau12i	$a5, %pc_hi20(A)
	addi.d	$a6, $a5, %pc_lo12(A)
	lu12i.w	$a5, 419430
	bgeu	$a0, $a1, .LBB34_4
# %bb.2:
	move	$a7, $zero
	move	$a1, $zero
	b	.LBB34_7
.LBB34_3:
	move	$a1, $zero
	move	$a0, $a1
	ret
.LBB34_4:                               # %vector.ph
	addi.d	$a1, $a6, 16
	addi.d	$t0, $a2, 16
	addi.d	$t1, $a4, 16
	addi.d	$t2, $a3, 16
	bstrpick.d	$a7, $a0, 30, 3
	slli.d	$a7, $a7, 3
	vrepli.b	$vr0, 0
	ori	$t3, $a5, 1639
	vreplgr2vr.w	$vr1, $t3
	move	$t3, $a7
	vori.b	$vr2, $vr0, 0
	.p2align	4, , 16
.LBB34_5:                               # %vector.body
                                        # =>This Inner Loop Header: Depth=1
	vld	$vr3, $a1, -16
	vld	$vr4, $a1, 0
	vld	$vr5, $t1, -16
	vadd.w	$vr0, $vr3, $vr0
	vadd.w	$vr2, $vr4, $vr2
	vld	$vr3, $t1, 0
	vaddi.wu	$vr4, $vr5, 1
	vst	$vr4, $t1, -16
	vld	$vr4, $t2, -16
	vld	$vr5, $t2, 0
	vaddi.wu	$vr3, $vr3, 1
	vst	$vr3, $t1, 0
	vslli.w	$vr3, $vr4, 1
	vslli.w	$vr4, $vr5, 1
	vld	$vr5, $t0, -16
	vst	$vr3, $t2, -16
	vst	$vr4, $t2, 0
	vld	$vr3, $t0, 0
	vmuh.w	$vr4, $vr5, $vr1
	vsrai.w	$vr4, $vr4, 1
	vsrli.w	$vr5, $vr4, 31
	vadd.w	$vr4, $vr4, $vr5
	vmuh.w	$vr3, $vr3, $vr1
	vsrai.w	$vr3, $vr3, 1
	vsrli.w	$vr5, $vr3, 31
	vadd.w	$vr3, $vr3, $vr5
	vst	$vr4, $t0, -16
	vst	$vr3, $t0, 0
	addi.d	$t3, $t3, -8
	addi.d	$a1, $a1, 32
	addi.d	$t0, $t0, 32
	addi.d	$t1, $t1, 32
	addi.d	$t2, $t2, 32
	bnez	$t3, .LBB34_5
# %bb.6:                                # %middle.block
	vadd.w	$vr0, $vr2, $vr0
	vshuf4i.w	$vr1, $vr0, 14
	vadd.w	$vr0, $vr0, $vr1
	vreplvei.w	$vr1, $vr0, 1
	vadd.w	$vr0, $vr0, $vr1
	vpickve2gr.w	$a1, $vr0, 0
	beq	$a7, $a0, .LBB34_9
.LBB34_7:                               # %for.body.preheader18
	alsl.d	$a2, $a7, $a2, 2
	alsl.d	$a3, $a7, $a3, 2
	alsl.d	$a4, $a7, $a4, 2
	alsl.d	$a6, $a7, $a6, 2
	sub.d	$a0, $a0, $a7
	ori	$a5, $a5, 1639
	.p2align	4, , 16
.LBB34_8:                               # %for.body
                                        # =>This Inner Loop Header: Depth=1
	ld.w	$a7, $a6, 0
	ld.w	$t0, $a4, 0
	add.w	$a1, $a7, $a1
	ld.w	$a7, $a3, 0
	addi.d	$t0, $t0, 1
	ld.w	$t1, $a2, 0
	st.w	$t0, $a4, 0
	slli.d	$a7, $a7, 1
	st.w	$a7, $a3, 0
	mul.d	$a7, $t1, $a5
	srli.d	$t0, $a7, 63
	srai.d	$a7, $a7, 33
	add.d	$a7, $a7, $t0
	st.w	$a7, $a2, 0
	addi.d	$a2, $a2, 4
	addi.d	$a3, $a3, 4
	addi.d	$a4, $a4, 4
	addi.d	$a0, $a0, -1
	addi.d	$a6, $a6, 4
	bnez	$a0, .LBB34_8
.LBB34_9:                               # %for.cond.cleanup
	move	$a0, $a1
	ret
.Lfunc_end34:
	.size	_ZL30bigLoopWithReductionWithVW4IC2i, .Lfunc_end34-_ZL30bigLoopWithReductionWithVW4IC2i
                                        # -- End function
	.globl	_Z37benchForIC4VW4BigLoopWithReductionTC1RN9benchmark5StateE # -- Begin function _Z37benchForIC4VW4BigLoopWithReductionTC1RN9benchmark5StateE
	.p2align	5
	.type	_Z37benchForIC4VW4BigLoopWithReductionTC1RN9benchmark5StateE,@function
_Z37benchForIC4VW4BigLoopWithReductionTC1RN9benchmark5StateE: # @_Z37benchForIC4VW4BigLoopWithReductionTC1RN9benchmark5StateE
	.cfi_startproc
# %bb.0:                                # %entry
	addi.d	$sp, $sp, -96
	.cfi_def_cfa_offset 96
	st.d	$ra, $sp, 88                    # 8-byte Folded Spill
	st.d	$fp, $sp, 80                    # 8-byte Folded Spill
	st.d	$s0, $sp, 72                    # 8-byte Folded Spill
	st.d	$s1, $sp, 64                    # 8-byte Folded Spill
	st.d	$s2, $sp, 56                    # 8-byte Folded Spill
	st.d	$s3, $sp, 48                    # 8-byte Folded Spill
	st.d	$s4, $sp, 40                    # 8-byte Folded Spill
	st.d	$s5, $sp, 32                    # 8-byte Folded Spill
	st.d	$s6, $sp, 24                    # 8-byte Folded Spill
	st.d	$s7, $sp, 16                    # 8-byte Folded Spill
	.cfi_offset 1, -8
	.cfi_offset 22, -16
	.cfi_offset 23, -24
	.cfi_offset 24, -32
	.cfi_offset 25, -40
	.cfi_offset 26, -48
	.cfi_offset 27, -56
	.cfi_offset 28, -64
	.cfi_offset 29, -72
	.cfi_offset 30, -80
	move	$fp, $a0
	pcaddu18i	$ra, %call36(_ZL9init_dataj)
	jirl	$ra, $ra, 0
	ld.w	$s1, $fp, 28
	ld.d	$s0, $fp, 16
	move	$a0, $fp
	pcaddu18i	$ra, %call36(_ZN9benchmark5State16StartKeepRunningEv)
	jirl	$ra, $ra, 0
	bnez	$s1, .LBB35_4
# %bb.1:                                # %entry
	beqz	$s0, .LBB35_4
# %bb.2:                                # %for.body.i.preheader
	pcalau12i	$s1, %pc_hi20(A)
	pcalau12i	$s2, %pc_hi20(B)
	pcalau12i	$s3, %pc_hi20(C)
	pcalau12i	$s4, %pc_hi20(D)
	pcalau12i	$s5, %pc_hi20(E)
	pcalau12i	$s6, %pc_hi20(F)
	pcalau12i	$s7, %pc_hi20(g_sum)
	.p2align	4, , 16
.LBB35_3:                               # %for.body.i
                                        # =>This Inner Loop Header: Depth=1
	#APP
	#NO_APP
	#APP
	#NO_APP
	#APP
	#NO_APP
	#APP
	#NO_APP
	#APP
	#NO_APP
	#APP
	#NO_APP
	#MEMBARRIER
	ori	$a0, $zero, 1
	pcaddu18i	$ra, %call36(_ZL30bigLoopWithReductionWithVW4IC4i)
	jirl	$ra, $ra, 0
	ld.w	$a1, $s7, %pc_lo12(g_sum)
	add.d	$a0, $a1, $a0
	addi.d	$s0, $s0, -1
	st.w	$a0, $s7, %pc_lo12(g_sum)
	bnez	$s0, .LBB35_3
.LBB35_4:                               # %_ZL27runBenchForLoopInterleavingRN9benchmark5StateEPFiiEi.exit
	move	$a0, $fp
	ld.d	$s7, $sp, 16                    # 8-byte Folded Reload
	ld.d	$s6, $sp, 24                    # 8-byte Folded Reload
	ld.d	$s5, $sp, 32                    # 8-byte Folded Reload
	ld.d	$s4, $sp, 40                    # 8-byte Folded Reload
	ld.d	$s3, $sp, 48                    # 8-byte Folded Reload
	ld.d	$s2, $sp, 56                    # 8-byte Folded Reload
	ld.d	$s1, $sp, 64                    # 8-byte Folded Reload
	ld.d	$s0, $sp, 72                    # 8-byte Folded Reload
	ld.d	$fp, $sp, 80                    # 8-byte Folded Reload
	ld.d	$ra, $sp, 88                    # 8-byte Folded Reload
	addi.d	$sp, $sp, 96
	pcaddu18i	$t8, %call36(_ZN9benchmark5State17FinishKeepRunningEv)
	jr	$t8
.Lfunc_end35:
	.size	_Z37benchForIC4VW4BigLoopWithReductionTC1RN9benchmark5StateE, .Lfunc_end35-_Z37benchForIC4VW4BigLoopWithReductionTC1RN9benchmark5StateE
	.cfi_endproc
                                        # -- End function
	.p2align	5                               # -- Begin function _ZL30bigLoopWithReductionWithVW4IC4i
	.type	_ZL30bigLoopWithReductionWithVW4IC4i,@function
_ZL30bigLoopWithReductionWithVW4IC4i:   # @_ZL30bigLoopWithReductionWithVW4IC4i
# %bb.0:                                # %entry
	ori	$a1, $zero, 1
	blt	$a0, $a1, .LBB36_3
# %bb.1:                                # %for.body.preheader
	ori	$a1, $zero, 16
	pcalau12i	$a2, %pc_hi20(F)
	addi.d	$a2, $a2, %pc_lo12(F)
	pcalau12i	$a3, %pc_hi20(E)
	addi.d	$a3, $a3, %pc_lo12(E)
	pcalau12i	$a4, %pc_hi20(D)
	addi.d	$a4, $a4, %pc_lo12(D)
	pcalau12i	$a5, %pc_hi20(A)
	addi.d	$a6, $a5, %pc_lo12(A)
	lu12i.w	$a5, 419430
	bgeu	$a0, $a1, .LBB36_4
# %bb.2:
	move	$a7, $zero
	move	$a1, $zero
	b	.LBB36_7
.LBB36_3:
	move	$a1, $zero
	move	$a0, $a1
	ret
.LBB36_4:                               # %vector.ph
	addi.d	$a1, $a6, 32
	addi.d	$t0, $a4, 32
	addi.d	$t1, $a3, 32
	addi.d	$t2, $a2, 32
	bstrpick.d	$a7, $a0, 30, 4
	slli.d	$a7, $a7, 4
	vrepli.b	$vr0, 0
	ori	$t3, $a5, 1639
	vreplgr2vr.w	$vr1, $t3
	move	$t3, $a7
	vori.b	$vr2, $vr0, 0
	vori.b	$vr3, $vr0, 0
	vori.b	$vr4, $vr0, 0
	.p2align	4, , 16
.LBB36_5:                               # %vector.body
                                        # =>This Inner Loop Header: Depth=1
	vld	$vr5, $a1, -32
	vld	$vr6, $a1, -16
	vld	$vr7, $a1, 0
	vld	$vr8, $a1, 16
	vadd.w	$vr0, $vr5, $vr0
	vadd.w	$vr2, $vr6, $vr2
	vadd.w	$vr3, $vr7, $vr3
	vadd.w	$vr4, $vr8, $vr4
	vld	$vr5, $t0, -32
	vld	$vr6, $t0, -16
	vld	$vr7, $t0, 0
	vld	$vr8, $t0, 16
	vaddi.wu	$vr5, $vr5, 1
	vaddi.wu	$vr6, $vr6, 1
	vaddi.wu	$vr7, $vr7, 1
	vaddi.wu	$vr8, $vr8, 1
	vst	$vr5, $t0, -32
	vst	$vr6, $t0, -16
	vst	$vr7, $t0, 0
	vst	$vr8, $t0, 16
	vld	$vr5, $t1, -32
	vld	$vr6, $t1, -16
	vld	$vr7, $t1, 0
	vld	$vr8, $t1, 16
	vslli.w	$vr5, $vr5, 1
	vslli.w	$vr6, $vr6, 1
	vslli.w	$vr7, $vr7, 1
	vslli.w	$vr8, $vr8, 1
	vst	$vr5, $t1, -32
	vst	$vr6, $t1, -16
	vst	$vr7, $t1, 0
	vst	$vr8, $t1, 16
	vld	$vr5, $t2, -32
	vld	$vr6, $t2, -16
	vld	$vr7, $t2, 0
	vld	$vr8, $t2, 16
	vmuh.w	$vr5, $vr5, $vr1
	vsrai.w	$vr5, $vr5, 1
	vsrli.w	$vr9, $vr5, 31
	vadd.w	$vr5, $vr5, $vr9
	vmuh.w	$vr6, $vr6, $vr1
	vsrai.w	$vr6, $vr6, 1
	vsrli.w	$vr9, $vr6, 31
	vadd.w	$vr6, $vr6, $vr9
	vmuh.w	$vr7, $vr7, $vr1
	vsrai.w	$vr7, $vr7, 1
	vsrli.w	$vr9, $vr7, 31
	vadd.w	$vr7, $vr7, $vr9
	vmuh.w	$vr8, $vr8, $vr1
	vsrai.w	$vr8, $vr8, 1
	vsrli.w	$vr9, $vr8, 31
	vadd.w	$vr8, $vr8, $vr9
	vst	$vr5, $t2, -32
	vst	$vr6, $t2, -16
	vst	$vr7, $t2, 0
	vst	$vr8, $t2, 16
	addi.d	$t3, $t3, -16
	addi.d	$a1, $a1, 64
	addi.d	$t0, $t0, 64
	addi.d	$t1, $t1, 64
	addi.d	$t2, $t2, 64
	bnez	$t3, .LBB36_5
# %bb.6:                                # %middle.block
	vadd.w	$vr0, $vr2, $vr0
	vadd.w	$vr0, $vr3, $vr0
	vadd.w	$vr0, $vr4, $vr0
	vshuf4i.w	$vr1, $vr0, 14
	vadd.w	$vr0, $vr0, $vr1
	vreplvei.w	$vr1, $vr0, 1
	vadd.w	$vr0, $vr0, $vr1
	vpickve2gr.w	$a1, $vr0, 0
	beq	$a7, $a0, .LBB36_9
.LBB36_7:                               # %for.body.preheader30
	alsl.d	$a2, $a7, $a2, 2
	alsl.d	$a3, $a7, $a3, 2
	alsl.d	$a4, $a7, $a4, 2
	alsl.d	$a6, $a7, $a6, 2
	sub.d	$a0, $a0, $a7
	ori	$a5, $a5, 1639
	.p2align	4, , 16
.LBB36_8:                               # %for.body
                                        # =>This Inner Loop Header: Depth=1
	ld.w	$a7, $a6, 0
	ld.w	$t0, $a4, 0
	add.w	$a1, $a7, $a1
	ld.w	$a7, $a3, 0
	addi.d	$t0, $t0, 1
	ld.w	$t1, $a2, 0
	st.w	$t0, $a4, 0
	slli.d	$a7, $a7, 1
	st.w	$a7, $a3, 0
	mul.d	$a7, $t1, $a5
	srli.d	$t0, $a7, 63
	srai.d	$a7, $a7, 33
	add.d	$a7, $a7, $t0
	st.w	$a7, $a2, 0
	addi.d	$a2, $a2, 4
	addi.d	$a3, $a3, 4
	addi.d	$a4, $a4, 4
	addi.d	$a0, $a0, -1
	addi.d	$a6, $a6, 4
	bnez	$a0, .LBB36_8
.LBB36_9:                               # %for.cond.cleanup
	move	$a0, $a1
	ret
.Lfunc_end36:
	.size	_ZL30bigLoopWithReductionWithVW4IC4i, .Lfunc_end36-_ZL30bigLoopWithReductionWithVW4IC4i
                                        # -- End function
	.globl	_Z37benchForIC1VW1BigLoopWithReductionTC1RN9benchmark5StateE # -- Begin function _Z37benchForIC1VW1BigLoopWithReductionTC1RN9benchmark5StateE
	.p2align	5
	.type	_Z37benchForIC1VW1BigLoopWithReductionTC1RN9benchmark5StateE,@function
_Z37benchForIC1VW1BigLoopWithReductionTC1RN9benchmark5StateE: # @_Z37benchForIC1VW1BigLoopWithReductionTC1RN9benchmark5StateE
	.cfi_startproc
# %bb.0:                                # %entry
	addi.d	$sp, $sp, -96
	.cfi_def_cfa_offset 96
	st.d	$ra, $sp, 88                    # 8-byte Folded Spill
	st.d	$fp, $sp, 80                    # 8-byte Folded Spill
	st.d	$s0, $sp, 72                    # 8-byte Folded Spill
	st.d	$s1, $sp, 64                    # 8-byte Folded Spill
	st.d	$s2, $sp, 56                    # 8-byte Folded Spill
	st.d	$s3, $sp, 48                    # 8-byte Folded Spill
	st.d	$s4, $sp, 40                    # 8-byte Folded Spill
	st.d	$s5, $sp, 32                    # 8-byte Folded Spill
	st.d	$s6, $sp, 24                    # 8-byte Folded Spill
	st.d	$s7, $sp, 16                    # 8-byte Folded Spill
	.cfi_offset 1, -8
	.cfi_offset 22, -16
	.cfi_offset 23, -24
	.cfi_offset 24, -32
	.cfi_offset 25, -40
	.cfi_offset 26, -48
	.cfi_offset 27, -56
	.cfi_offset 28, -64
	.cfi_offset 29, -72
	.cfi_offset 30, -80
	move	$fp, $a0
	pcaddu18i	$ra, %call36(_ZL9init_dataj)
	jirl	$ra, $ra, 0
	ld.w	$s1, $fp, 28
	ld.d	$s0, $fp, 16
	move	$a0, $fp
	pcaddu18i	$ra, %call36(_ZN9benchmark5State16StartKeepRunningEv)
	jirl	$ra, $ra, 0
	bnez	$s1, .LBB37_4
# %bb.1:                                # %entry
	beqz	$s0, .LBB37_4
# %bb.2:                                # %for.body.i.preheader
	pcalau12i	$s1, %pc_hi20(A)
	pcalau12i	$s2, %pc_hi20(B)
	pcalau12i	$s3, %pc_hi20(C)
	pcalau12i	$s4, %pc_hi20(D)
	pcalau12i	$s5, %pc_hi20(E)
	pcalau12i	$s6, %pc_hi20(F)
	pcalau12i	$s7, %pc_hi20(g_sum)
	.p2align	4, , 16
.LBB37_3:                               # %for.body.i
                                        # =>This Inner Loop Header: Depth=1
	#APP
	#NO_APP
	#APP
	#NO_APP
	#APP
	#NO_APP
	#APP
	#NO_APP
	#APP
	#NO_APP
	#APP
	#NO_APP
	#MEMBARRIER
	ori	$a0, $zero, 1
	pcaddu18i	$ra, %call36(_ZL30bigLoopWithReductionWithVW1IC1i)
	jirl	$ra, $ra, 0
	ld.w	$a1, $s7, %pc_lo12(g_sum)
	add.d	$a0, $a1, $a0
	addi.d	$s0, $s0, -1
	st.w	$a0, $s7, %pc_lo12(g_sum)
	bnez	$s0, .LBB37_3
.LBB37_4:                               # %_ZL27runBenchForLoopInterleavingRN9benchmark5StateEPFiiEi.exit
	move	$a0, $fp
	ld.d	$s7, $sp, 16                    # 8-byte Folded Reload
	ld.d	$s6, $sp, 24                    # 8-byte Folded Reload
	ld.d	$s5, $sp, 32                    # 8-byte Folded Reload
	ld.d	$s4, $sp, 40                    # 8-byte Folded Reload
	ld.d	$s3, $sp, 48                    # 8-byte Folded Reload
	ld.d	$s2, $sp, 56                    # 8-byte Folded Reload
	ld.d	$s1, $sp, 64                    # 8-byte Folded Reload
	ld.d	$s0, $sp, 72                    # 8-byte Folded Reload
	ld.d	$fp, $sp, 80                    # 8-byte Folded Reload
	ld.d	$ra, $sp, 88                    # 8-byte Folded Reload
	addi.d	$sp, $sp, 96
	pcaddu18i	$t8, %call36(_ZN9benchmark5State17FinishKeepRunningEv)
	jr	$t8
.Lfunc_end37:
	.size	_Z37benchForIC1VW1BigLoopWithReductionTC1RN9benchmark5StateE, .Lfunc_end37-_Z37benchForIC1VW1BigLoopWithReductionTC1RN9benchmark5StateE
	.cfi_endproc
                                        # -- End function
	.p2align	5                               # -- Begin function _ZL30bigLoopWithReductionWithVW1IC1i
	.type	_ZL30bigLoopWithReductionWithVW1IC1i,@function
_ZL30bigLoopWithReductionWithVW1IC1i:   # @_ZL30bigLoopWithReductionWithVW1IC1i
# %bb.0:                                # %entry
	ori	$a1, $zero, 1
	blt	$a0, $a1, .LBB38_4
# %bb.1:                                # %for.body.preheader
	move	$a1, $zero
	pcalau12i	$a2, %pc_hi20(F)
	addi.d	$a2, $a2, %pc_lo12(F)
	pcalau12i	$a3, %pc_hi20(E)
	addi.d	$a3, $a3, %pc_lo12(E)
	pcalau12i	$a4, %pc_hi20(D)
	addi.d	$a4, $a4, %pc_lo12(D)
	pcalau12i	$a5, %pc_hi20(A)
	addi.d	$a5, $a5, %pc_lo12(A)
	lu12i.w	$a6, 419430
	ori	$a6, $a6, 1639
	.p2align	4, , 16
.LBB38_2:                               # %for.body
                                        # =>This Inner Loop Header: Depth=1
	ld.w	$a7, $a5, 0
	ld.w	$t0, $a4, 0
	add.w	$a1, $a7, $a1
	ld.w	$a7, $a3, 0
	addi.d	$t0, $t0, 1
	ld.w	$t1, $a2, 0
	st.w	$t0, $a4, 0
	slli.d	$a7, $a7, 1
	st.w	$a7, $a3, 0
	mul.d	$a7, $t1, $a6
	srli.d	$t0, $a7, 63
	srai.d	$a7, $a7, 33
	add.d	$a7, $a7, $t0
	st.w	$a7, $a2, 0
	addi.d	$a2, $a2, 4
	addi.d	$a3, $a3, 4
	addi.d	$a4, $a4, 4
	addi.d	$a0, $a0, -1
	addi.d	$a5, $a5, 4
	bnez	$a0, .LBB38_2
# %bb.3:                                # %for.cond.cleanup
	move	$a0, $a1
	ret
.LBB38_4:
	move	$a1, $zero
	move	$a0, $a1
	ret
.Lfunc_end38:
	.size	_ZL30bigLoopWithReductionWithVW1IC1i, .Lfunc_end38-_ZL30bigLoopWithReductionWithVW1IC1i
                                        # -- End function
	.globl	_Z37benchForIC2VW1BigLoopWithReductionTC1RN9benchmark5StateE # -- Begin function _Z37benchForIC2VW1BigLoopWithReductionTC1RN9benchmark5StateE
	.p2align	5
	.type	_Z37benchForIC2VW1BigLoopWithReductionTC1RN9benchmark5StateE,@function
_Z37benchForIC2VW1BigLoopWithReductionTC1RN9benchmark5StateE: # @_Z37benchForIC2VW1BigLoopWithReductionTC1RN9benchmark5StateE
	.cfi_startproc
# %bb.0:                                # %entry
	addi.d	$sp, $sp, -96
	.cfi_def_cfa_offset 96
	st.d	$ra, $sp, 88                    # 8-byte Folded Spill
	st.d	$fp, $sp, 80                    # 8-byte Folded Spill
	st.d	$s0, $sp, 72                    # 8-byte Folded Spill
	st.d	$s1, $sp, 64                    # 8-byte Folded Spill
	st.d	$s2, $sp, 56                    # 8-byte Folded Spill
	st.d	$s3, $sp, 48                    # 8-byte Folded Spill
	st.d	$s4, $sp, 40                    # 8-byte Folded Spill
	st.d	$s5, $sp, 32                    # 8-byte Folded Spill
	st.d	$s6, $sp, 24                    # 8-byte Folded Spill
	st.d	$s7, $sp, 16                    # 8-byte Folded Spill
	.cfi_offset 1, -8
	.cfi_offset 22, -16
	.cfi_offset 23, -24
	.cfi_offset 24, -32
	.cfi_offset 25, -40
	.cfi_offset 26, -48
	.cfi_offset 27, -56
	.cfi_offset 28, -64
	.cfi_offset 29, -72
	.cfi_offset 30, -80
	move	$fp, $a0
	pcaddu18i	$ra, %call36(_ZL9init_dataj)
	jirl	$ra, $ra, 0
	ld.w	$s1, $fp, 28
	ld.d	$s0, $fp, 16
	move	$a0, $fp
	pcaddu18i	$ra, %call36(_ZN9benchmark5State16StartKeepRunningEv)
	jirl	$ra, $ra, 0
	bnez	$s1, .LBB39_4
# %bb.1:                                # %entry
	beqz	$s0, .LBB39_4
# %bb.2:                                # %for.body.i.preheader
	pcalau12i	$s1, %pc_hi20(A)
	pcalau12i	$s2, %pc_hi20(B)
	pcalau12i	$s3, %pc_hi20(C)
	pcalau12i	$s4, %pc_hi20(D)
	pcalau12i	$s5, %pc_hi20(E)
	pcalau12i	$s6, %pc_hi20(F)
	pcalau12i	$s7, %pc_hi20(g_sum)
	.p2align	4, , 16
.LBB39_3:                               # %for.body.i
                                        # =>This Inner Loop Header: Depth=1
	#APP
	#NO_APP
	#APP
	#NO_APP
	#APP
	#NO_APP
	#APP
	#NO_APP
	#APP
	#NO_APP
	#APP
	#NO_APP
	#MEMBARRIER
	ori	$a0, $zero, 1
	pcaddu18i	$ra, %call36(_ZL30bigLoopWithReductionWithVW1IC2i)
	jirl	$ra, $ra, 0
	ld.w	$a1, $s7, %pc_lo12(g_sum)
	add.d	$a0, $a1, $a0
	addi.d	$s0, $s0, -1
	st.w	$a0, $s7, %pc_lo12(g_sum)
	bnez	$s0, .LBB39_3
.LBB39_4:                               # %_ZL27runBenchForLoopInterleavingRN9benchmark5StateEPFiiEi.exit
	move	$a0, $fp
	ld.d	$s7, $sp, 16                    # 8-byte Folded Reload
	ld.d	$s6, $sp, 24                    # 8-byte Folded Reload
	ld.d	$s5, $sp, 32                    # 8-byte Folded Reload
	ld.d	$s4, $sp, 40                    # 8-byte Folded Reload
	ld.d	$s3, $sp, 48                    # 8-byte Folded Reload
	ld.d	$s2, $sp, 56                    # 8-byte Folded Reload
	ld.d	$s1, $sp, 64                    # 8-byte Folded Reload
	ld.d	$s0, $sp, 72                    # 8-byte Folded Reload
	ld.d	$fp, $sp, 80                    # 8-byte Folded Reload
	ld.d	$ra, $sp, 88                    # 8-byte Folded Reload
	addi.d	$sp, $sp, 96
	pcaddu18i	$t8, %call36(_ZN9benchmark5State17FinishKeepRunningEv)
	jr	$t8
.Lfunc_end39:
	.size	_Z37benchForIC2VW1BigLoopWithReductionTC1RN9benchmark5StateE, .Lfunc_end39-_Z37benchForIC2VW1BigLoopWithReductionTC1RN9benchmark5StateE
	.cfi_endproc
                                        # -- End function
	.p2align	5                               # -- Begin function _ZL30bigLoopWithReductionWithVW1IC2i
	.type	_ZL30bigLoopWithReductionWithVW1IC2i,@function
_ZL30bigLoopWithReductionWithVW1IC2i:   # @_ZL30bigLoopWithReductionWithVW1IC2i
# %bb.0:                                # %entry
	ori	$a1, $zero, 1
	blt	$a0, $a1, .LBB40_3
# %bb.1:                                # %for.body.preheader
	addi.d	$sp, $sp, -16
	st.d	$fp, $sp, 8                     # 8-byte Folded Spill
	pcalau12i	$a2, %pc_hi20(F)
	addi.d	$a2, $a2, %pc_lo12(F)
	pcalau12i	$a3, %pc_hi20(E)
	addi.d	$a3, $a3, %pc_lo12(E)
	pcalau12i	$a4, %pc_hi20(D)
	addi.d	$a4, $a4, %pc_lo12(D)
	pcalau12i	$a5, %pc_hi20(A)
	addi.d	$a6, $a5, %pc_lo12(A)
	lu12i.w	$a5, 419430
	bne	$a0, $a1, .LBB40_4
# %bb.2:
	move	$a7, $zero
	move	$a1, $zero
	b	.LBB40_7
.LBB40_3:
	move	$a0, $zero
	ret
.LBB40_4:                               # %vector.ph
	move	$a1, $zero
	move	$t0, $zero
	addi.d	$t1, $a6, 4
	addi.d	$t2, $a4, 4
	addi.d	$t3, $a3, 4
	addi.d	$t4, $a2, 4
	bstrpick.d	$a7, $a0, 30, 1
	slli.d	$a7, $a7, 1
	ori	$t5, $a5, 1639
	move	$t6, $a7
	.p2align	4, , 16
.LBB40_5:                               # %vector.body
                                        # =>This Inner Loop Header: Depth=1
	ld.w	$t7, $t1, -4
	ld.w	$t8, $t1, 0
	ld.w	$fp, $t2, -4
	add.d	$a1, $t7, $a1
	add.d	$t0, $t8, $t0
	ld.w	$t7, $t2, 0
	addi.d	$t8, $fp, 1
	st.w	$t8, $t2, -4
	ld.w	$t8, $t3, -4
	ld.w	$fp, $t3, 0
	addi.d	$t7, $t7, 1
	st.w	$t7, $t2, 0
	slli.d	$t7, $t8, 1
	slli.d	$t8, $fp, 1
	ld.w	$fp, $t4, -4
	st.w	$t7, $t3, -4
	st.w	$t8, $t3, 0
	ld.w	$t7, $t4, 0
	mul.d	$t8, $fp, $t5
	srli.d	$fp, $t8, 63
	srai.d	$t8, $t8, 33
	add.d	$t8, $t8, $fp
	mul.d	$t7, $t7, $t5
	srli.d	$fp, $t7, 63
	srai.d	$t7, $t7, 33
	add.d	$t7, $t7, $fp
	st.w	$t8, $t4, -4
	st.w	$t7, $t4, 0
	addi.d	$t1, $t1, 8
	addi.d	$t2, $t2, 8
	addi.d	$t3, $t3, 8
	addi.d	$t6, $t6, -2
	addi.d	$t4, $t4, 8
	bnez	$t6, .LBB40_5
# %bb.6:                                # %middle.block
	add.w	$a1, $t0, $a1
	beq	$a7, $a0, .LBB40_9
.LBB40_7:                               # %for.body.preheader11
	alsl.d	$a2, $a7, $a2, 2
	alsl.d	$a3, $a7, $a3, 2
	alsl.d	$a4, $a7, $a4, 2
	alsl.d	$a6, $a7, $a6, 2
	sub.d	$a0, $a0, $a7
	ori	$a5, $a5, 1639
	.p2align	4, , 16
.LBB40_8:                               # %for.body
                                        # =>This Inner Loop Header: Depth=1
	ld.w	$a7, $a6, 0
	ld.w	$t0, $a4, 0
	add.w	$a1, $a7, $a1
	ld.w	$a7, $a3, 0
	addi.d	$t0, $t0, 1
	ld.w	$t1, $a2, 0
	st.w	$t0, $a4, 0
	slli.d	$a7, $a7, 1
	st.w	$a7, $a3, 0
	mul.d	$a7, $t1, $a5
	srli.d	$t0, $a7, 63
	srai.d	$a7, $a7, 33
	add.d	$a7, $a7, $t0
	st.w	$a7, $a2, 0
	addi.d	$a2, $a2, 4
	addi.d	$a3, $a3, 4
	addi.d	$a4, $a4, 4
	addi.d	$a0, $a0, -1
	addi.d	$a6, $a6, 4
	bnez	$a0, .LBB40_8
.LBB40_9:
	ld.d	$fp, $sp, 8                     # 8-byte Folded Reload
	addi.d	$sp, $sp, 16
	move	$a0, $a1
	ret
.Lfunc_end40:
	.size	_ZL30bigLoopWithReductionWithVW1IC2i, .Lfunc_end40-_ZL30bigLoopWithReductionWithVW1IC2i
                                        # -- End function
	.globl	_Z37benchForIC4VW1BigLoopWithReductionTC1RN9benchmark5StateE # -- Begin function _Z37benchForIC4VW1BigLoopWithReductionTC1RN9benchmark5StateE
	.p2align	5
	.type	_Z37benchForIC4VW1BigLoopWithReductionTC1RN9benchmark5StateE,@function
_Z37benchForIC4VW1BigLoopWithReductionTC1RN9benchmark5StateE: # @_Z37benchForIC4VW1BigLoopWithReductionTC1RN9benchmark5StateE
	.cfi_startproc
# %bb.0:                                # %entry
	addi.d	$sp, $sp, -96
	.cfi_def_cfa_offset 96
	st.d	$ra, $sp, 88                    # 8-byte Folded Spill
	st.d	$fp, $sp, 80                    # 8-byte Folded Spill
	st.d	$s0, $sp, 72                    # 8-byte Folded Spill
	st.d	$s1, $sp, 64                    # 8-byte Folded Spill
	st.d	$s2, $sp, 56                    # 8-byte Folded Spill
	st.d	$s3, $sp, 48                    # 8-byte Folded Spill
	st.d	$s4, $sp, 40                    # 8-byte Folded Spill
	st.d	$s5, $sp, 32                    # 8-byte Folded Spill
	st.d	$s6, $sp, 24                    # 8-byte Folded Spill
	st.d	$s7, $sp, 16                    # 8-byte Folded Spill
	.cfi_offset 1, -8
	.cfi_offset 22, -16
	.cfi_offset 23, -24
	.cfi_offset 24, -32
	.cfi_offset 25, -40
	.cfi_offset 26, -48
	.cfi_offset 27, -56
	.cfi_offset 28, -64
	.cfi_offset 29, -72
	.cfi_offset 30, -80
	move	$fp, $a0
	pcaddu18i	$ra, %call36(_ZL9init_dataj)
	jirl	$ra, $ra, 0
	ld.w	$s1, $fp, 28
	ld.d	$s0, $fp, 16
	move	$a0, $fp
	pcaddu18i	$ra, %call36(_ZN9benchmark5State16StartKeepRunningEv)
	jirl	$ra, $ra, 0
	bnez	$s1, .LBB41_4
# %bb.1:                                # %entry
	beqz	$s0, .LBB41_4
# %bb.2:                                # %for.body.i.preheader
	pcalau12i	$s1, %pc_hi20(A)
	pcalau12i	$s2, %pc_hi20(B)
	pcalau12i	$s3, %pc_hi20(C)
	pcalau12i	$s4, %pc_hi20(D)
	pcalau12i	$s5, %pc_hi20(E)
	pcalau12i	$s6, %pc_hi20(F)
	pcalau12i	$s7, %pc_hi20(g_sum)
	.p2align	4, , 16
.LBB41_3:                               # %for.body.i
                                        # =>This Inner Loop Header: Depth=1
	#APP
	#NO_APP
	#APP
	#NO_APP
	#APP
	#NO_APP
	#APP
	#NO_APP
	#APP
	#NO_APP
	#APP
	#NO_APP
	#MEMBARRIER
	ori	$a0, $zero, 1
	pcaddu18i	$ra, %call36(_ZL30bigLoopWithReductionWithVW1IC4i)
	jirl	$ra, $ra, 0
	ld.w	$a1, $s7, %pc_lo12(g_sum)
	add.d	$a0, $a1, $a0
	addi.d	$s0, $s0, -1
	st.w	$a0, $s7, %pc_lo12(g_sum)
	bnez	$s0, .LBB41_3
.LBB41_4:                               # %_ZL27runBenchForLoopInterleavingRN9benchmark5StateEPFiiEi.exit
	move	$a0, $fp
	ld.d	$s7, $sp, 16                    # 8-byte Folded Reload
	ld.d	$s6, $sp, 24                    # 8-byte Folded Reload
	ld.d	$s5, $sp, 32                    # 8-byte Folded Reload
	ld.d	$s4, $sp, 40                    # 8-byte Folded Reload
	ld.d	$s3, $sp, 48                    # 8-byte Folded Reload
	ld.d	$s2, $sp, 56                    # 8-byte Folded Reload
	ld.d	$s1, $sp, 64                    # 8-byte Folded Reload
	ld.d	$s0, $sp, 72                    # 8-byte Folded Reload
	ld.d	$fp, $sp, 80                    # 8-byte Folded Reload
	ld.d	$ra, $sp, 88                    # 8-byte Folded Reload
	addi.d	$sp, $sp, 96
	pcaddu18i	$t8, %call36(_ZN9benchmark5State17FinishKeepRunningEv)
	jr	$t8
.Lfunc_end41:
	.size	_Z37benchForIC4VW1BigLoopWithReductionTC1RN9benchmark5StateE, .Lfunc_end41-_Z37benchForIC4VW1BigLoopWithReductionTC1RN9benchmark5StateE
	.cfi_endproc
                                        # -- End function
	.p2align	5                               # -- Begin function _ZL30bigLoopWithReductionWithVW1IC4i
	.type	_ZL30bigLoopWithReductionWithVW1IC4i,@function
_ZL30bigLoopWithReductionWithVW1IC4i:   # @_ZL30bigLoopWithReductionWithVW1IC4i
# %bb.0:                                # %entry
	ori	$a1, $zero, 1
	blt	$a0, $a1, .LBB42_3
# %bb.1:                                # %for.body.preheader
	ori	$a1, $zero, 4
	lu12i.w	$a2, 419430
	bgeu	$a0, $a1, .LBB42_4
# %bb.2:
	move	$a3, $zero
	move	$a1, $zero
	b	.LBB42_7
.LBB42_3:
	move	$a1, $zero
	move	$a0, $a1
	ret
.LBB42_4:                               # %vector.ph
	pcalau12i	$a1, %pc_hi20(F)
	addi.d	$a1, $a1, %pc_lo12(F)
	pcalau12i	$a3, %pc_hi20(E)
	addi.d	$a4, $a3, %pc_lo12(E)
	pcalau12i	$a3, %pc_hi20(D)
	addi.d	$a5, $a3, %pc_lo12(D)
	pcalau12i	$a3, %pc_hi20(A)
	addi.d	$a6, $a3, %pc_lo12(A)
	bstrpick.d	$a3, $a0, 30, 2
	slli.d	$a3, $a3, 2
	vrepli.b	$vr0, 0
	ori	$a7, $a2, 1639
	vreplgr2vr.w	$vr1, $a7
	move	$a7, $a3
	.p2align	4, , 16
.LBB42_5:                               # %vector.body
                                        # =>This Inner Loop Header: Depth=1
	vld	$vr2, $a6, 0
	vld	$vr3, $a5, 0
	vadd.w	$vr0, $vr2, $vr0
	vld	$vr2, $a4, 0
	vaddi.wu	$vr3, $vr3, 1
	vld	$vr4, $a1, 0
	vst	$vr3, $a5, 0
	vslli.w	$vr2, $vr2, 1
	vst	$vr2, $a4, 0
	vmuh.w	$vr2, $vr4, $vr1
	vsrai.w	$vr2, $vr2, 1
	vsrli.w	$vr3, $vr2, 31
	vadd.w	$vr2, $vr2, $vr3
	vst	$vr2, $a1, 0
	addi.d	$a7, $a7, -4
	addi.d	$a1, $a1, 16
	addi.d	$a4, $a4, 16
	addi.d	$a5, $a5, 16
	addi.d	$a6, $a6, 16
	bnez	$a7, .LBB42_5
# %bb.6:                                # %middle.block
	vpickve2gr.w	$a1, $vr0, 0
	vpickve2gr.w	$a4, $vr0, 1
	add.d	$a1, $a4, $a1
	vpickve2gr.w	$a4, $vr0, 2
	add.d	$a1, $a4, $a1
	vpickve2gr.w	$a4, $vr0, 3
	add.w	$a1, $a4, $a1
	beq	$a3, $a0, .LBB42_9
.LBB42_7:                               # %for.body.preheader15
	pcalau12i	$a4, %pc_hi20(F)
	addi.d	$a4, $a4, %pc_lo12(F)
	alsl.d	$a4, $a3, $a4, 2
	pcalau12i	$a5, %pc_hi20(E)
	addi.d	$a5, $a5, %pc_lo12(E)
	alsl.d	$a5, $a3, $a5, 2
	pcalau12i	$a6, %pc_hi20(D)
	addi.d	$a6, $a6, %pc_lo12(D)
	alsl.d	$a6, $a3, $a6, 2
	pcalau12i	$a7, %pc_hi20(A)
	addi.d	$a7, $a7, %pc_lo12(A)
	alsl.d	$a7, $a3, $a7, 2
	sub.d	$a0, $a0, $a3
	ori	$a2, $a2, 1639
	.p2align	4, , 16
.LBB42_8:                               # %for.body
                                        # =>This Inner Loop Header: Depth=1
	ld.w	$a3, $a7, 0
	ld.w	$t0, $a6, 0
	add.w	$a1, $a3, $a1
	ld.w	$a3, $a5, 0
	addi.d	$t0, $t0, 1
	ld.w	$t1, $a4, 0
	st.w	$t0, $a6, 0
	slli.d	$a3, $a3, 1
	st.w	$a3, $a5, 0
	mul.d	$a3, $t1, $a2
	srli.d	$t0, $a3, 63
	srai.d	$a3, $a3, 33
	add.d	$a3, $a3, $t0
	st.w	$a3, $a4, 0
	addi.d	$a4, $a4, 4
	addi.d	$a5, $a5, 4
	addi.d	$a6, $a6, 4
	addi.d	$a0, $a0, -1
	addi.d	$a7, $a7, 4
	bnez	$a0, .LBB42_8
.LBB42_9:                               # %for.cond.cleanup
	move	$a0, $a1
	ret
.Lfunc_end42:
	.size	_ZL30bigLoopWithReductionWithVW1IC4i, .Lfunc_end42-_ZL30bigLoopWithReductionWithVW1IC4i
                                        # -- End function
	.globl	_Z22benchAutoVecForLoopTC2RN9benchmark5StateE # -- Begin function _Z22benchAutoVecForLoopTC2RN9benchmark5StateE
	.p2align	5
	.type	_Z22benchAutoVecForLoopTC2RN9benchmark5StateE,@function
_Z22benchAutoVecForLoopTC2RN9benchmark5StateE: # @_Z22benchAutoVecForLoopTC2RN9benchmark5StateE
	.cfi_startproc
# %bb.0:                                # %entry
	addi.d	$sp, $sp, -96
	.cfi_def_cfa_offset 96
	st.d	$ra, $sp, 88                    # 8-byte Folded Spill
	st.d	$fp, $sp, 80                    # 8-byte Folded Spill
	st.d	$s0, $sp, 72                    # 8-byte Folded Spill
	st.d	$s1, $sp, 64                    # 8-byte Folded Spill
	st.d	$s2, $sp, 56                    # 8-byte Folded Spill
	st.d	$s3, $sp, 48                    # 8-byte Folded Spill
	st.d	$s4, $sp, 40                    # 8-byte Folded Spill
	st.d	$s5, $sp, 32                    # 8-byte Folded Spill
	st.d	$s6, $sp, 24                    # 8-byte Folded Spill
	st.d	$s7, $sp, 16                    # 8-byte Folded Spill
	.cfi_offset 1, -8
	.cfi_offset 22, -16
	.cfi_offset 23, -24
	.cfi_offset 24, -32
	.cfi_offset 25, -40
	.cfi_offset 26, -48
	.cfi_offset 27, -56
	.cfi_offset 28, -64
	.cfi_offset 29, -72
	.cfi_offset 30, -80
	move	$fp, $a0
	pcaddu18i	$ra, %call36(_ZL9init_dataj)
	jirl	$ra, $ra, 0
	ld.w	$s1, $fp, 28
	ld.d	$s0, $fp, 16
	move	$a0, $fp
	pcaddu18i	$ra, %call36(_ZN9benchmark5State16StartKeepRunningEv)
	jirl	$ra, $ra, 0
	bnez	$s1, .LBB43_4
# %bb.1:                                # %entry
	beqz	$s0, .LBB43_4
# %bb.2:                                # %for.body.i.preheader
	pcalau12i	$s1, %pc_hi20(A)
	pcalau12i	$s2, %pc_hi20(B)
	pcalau12i	$s3, %pc_hi20(C)
	pcalau12i	$s4, %pc_hi20(D)
	pcalau12i	$s5, %pc_hi20(E)
	pcalau12i	$s6, %pc_hi20(F)
	pcalau12i	$s7, %pc_hi20(g_sum)
	.p2align	4, , 16
.LBB43_3:                               # %for.body.i
                                        # =>This Inner Loop Header: Depth=1
	#APP
	#NO_APP
	#APP
	#NO_APP
	#APP
	#NO_APP
	#APP
	#NO_APP
	#APP
	#NO_APP
	#APP
	#NO_APP
	#MEMBARRIER
	ori	$a0, $zero, 2
	pcaddu18i	$ra, %call36(_ZL22loopNoReductionAutoVeci)
	jirl	$ra, $ra, 0
	ld.w	$a1, $s7, %pc_lo12(g_sum)
	add.d	$a0, $a1, $a0
	addi.d	$s0, $s0, -1
	st.w	$a0, $s7, %pc_lo12(g_sum)
	bnez	$s0, .LBB43_3
.LBB43_4:                               # %_ZL27runBenchForLoopInterleavingRN9benchmark5StateEPFiiEi.exit
	move	$a0, $fp
	ld.d	$s7, $sp, 16                    # 8-byte Folded Reload
	ld.d	$s6, $sp, 24                    # 8-byte Folded Reload
	ld.d	$s5, $sp, 32                    # 8-byte Folded Reload
	ld.d	$s4, $sp, 40                    # 8-byte Folded Reload
	ld.d	$s3, $sp, 48                    # 8-byte Folded Reload
	ld.d	$s2, $sp, 56                    # 8-byte Folded Reload
	ld.d	$s1, $sp, 64                    # 8-byte Folded Reload
	ld.d	$s0, $sp, 72                    # 8-byte Folded Reload
	ld.d	$fp, $sp, 80                    # 8-byte Folded Reload
	ld.d	$ra, $sp, 88                    # 8-byte Folded Reload
	addi.d	$sp, $sp, 96
	pcaddu18i	$t8, %call36(_ZN9benchmark5State17FinishKeepRunningEv)
	jr	$t8
.Lfunc_end43:
	.size	_Z22benchAutoVecForLoopTC2RN9benchmark5StateE, .Lfunc_end43-_Z22benchAutoVecForLoopTC2RN9benchmark5StateE
	.cfi_endproc
                                        # -- End function
	.globl	_Z21benchForIC1VW4LoopTC2RN9benchmark5StateE # -- Begin function _Z21benchForIC1VW4LoopTC2RN9benchmark5StateE
	.p2align	5
	.type	_Z21benchForIC1VW4LoopTC2RN9benchmark5StateE,@function
_Z21benchForIC1VW4LoopTC2RN9benchmark5StateE: # @_Z21benchForIC1VW4LoopTC2RN9benchmark5StateE
	.cfi_startproc
# %bb.0:                                # %entry
	addi.d	$sp, $sp, -96
	.cfi_def_cfa_offset 96
	st.d	$ra, $sp, 88                    # 8-byte Folded Spill
	st.d	$fp, $sp, 80                    # 8-byte Folded Spill
	st.d	$s0, $sp, 72                    # 8-byte Folded Spill
	st.d	$s1, $sp, 64                    # 8-byte Folded Spill
	st.d	$s2, $sp, 56                    # 8-byte Folded Spill
	st.d	$s3, $sp, 48                    # 8-byte Folded Spill
	st.d	$s4, $sp, 40                    # 8-byte Folded Spill
	st.d	$s5, $sp, 32                    # 8-byte Folded Spill
	st.d	$s6, $sp, 24                    # 8-byte Folded Spill
	st.d	$s7, $sp, 16                    # 8-byte Folded Spill
	.cfi_offset 1, -8
	.cfi_offset 22, -16
	.cfi_offset 23, -24
	.cfi_offset 24, -32
	.cfi_offset 25, -40
	.cfi_offset 26, -48
	.cfi_offset 27, -56
	.cfi_offset 28, -64
	.cfi_offset 29, -72
	.cfi_offset 30, -80
	move	$fp, $a0
	pcaddu18i	$ra, %call36(_ZL9init_dataj)
	jirl	$ra, $ra, 0
	ld.w	$s1, $fp, 28
	ld.d	$s0, $fp, 16
	move	$a0, $fp
	pcaddu18i	$ra, %call36(_ZN9benchmark5State16StartKeepRunningEv)
	jirl	$ra, $ra, 0
	bnez	$s1, .LBB44_4
# %bb.1:                                # %entry
	beqz	$s0, .LBB44_4
# %bb.2:                                # %for.body.i.preheader
	pcalau12i	$s1, %pc_hi20(A)
	pcalau12i	$s2, %pc_hi20(B)
	pcalau12i	$s3, %pc_hi20(C)
	pcalau12i	$s4, %pc_hi20(D)
	pcalau12i	$s5, %pc_hi20(E)
	pcalau12i	$s6, %pc_hi20(F)
	pcalau12i	$s7, %pc_hi20(g_sum)
	.p2align	4, , 16
.LBB44_3:                               # %for.body.i
                                        # =>This Inner Loop Header: Depth=1
	#APP
	#NO_APP
	#APP
	#NO_APP
	#APP
	#NO_APP
	#APP
	#NO_APP
	#APP
	#NO_APP
	#APP
	#NO_APP
	#MEMBARRIER
	ori	$a0, $zero, 2
	pcaddu18i	$ra, %call36(_ZL14loopWithVW4IC1i)
	jirl	$ra, $ra, 0
	ld.w	$a1, $s7, %pc_lo12(g_sum)
	add.d	$a0, $a1, $a0
	addi.d	$s0, $s0, -1
	st.w	$a0, $s7, %pc_lo12(g_sum)
	bnez	$s0, .LBB44_3
.LBB44_4:                               # %_ZL27runBenchForLoopInterleavingRN9benchmark5StateEPFiiEi.exit
	move	$a0, $fp
	ld.d	$s7, $sp, 16                    # 8-byte Folded Reload
	ld.d	$s6, $sp, 24                    # 8-byte Folded Reload
	ld.d	$s5, $sp, 32                    # 8-byte Folded Reload
	ld.d	$s4, $sp, 40                    # 8-byte Folded Reload
	ld.d	$s3, $sp, 48                    # 8-byte Folded Reload
	ld.d	$s2, $sp, 56                    # 8-byte Folded Reload
	ld.d	$s1, $sp, 64                    # 8-byte Folded Reload
	ld.d	$s0, $sp, 72                    # 8-byte Folded Reload
	ld.d	$fp, $sp, 80                    # 8-byte Folded Reload
	ld.d	$ra, $sp, 88                    # 8-byte Folded Reload
	addi.d	$sp, $sp, 96
	pcaddu18i	$t8, %call36(_ZN9benchmark5State17FinishKeepRunningEv)
	jr	$t8
.Lfunc_end44:
	.size	_Z21benchForIC1VW4LoopTC2RN9benchmark5StateE, .Lfunc_end44-_Z21benchForIC1VW4LoopTC2RN9benchmark5StateE
	.cfi_endproc
                                        # -- End function
	.globl	_Z21benchForIC2VW4LoopTC2RN9benchmark5StateE # -- Begin function _Z21benchForIC2VW4LoopTC2RN9benchmark5StateE
	.p2align	5
	.type	_Z21benchForIC2VW4LoopTC2RN9benchmark5StateE,@function
_Z21benchForIC2VW4LoopTC2RN9benchmark5StateE: # @_Z21benchForIC2VW4LoopTC2RN9benchmark5StateE
	.cfi_startproc
# %bb.0:                                # %entry
	addi.d	$sp, $sp, -96
	.cfi_def_cfa_offset 96
	st.d	$ra, $sp, 88                    # 8-byte Folded Spill
	st.d	$fp, $sp, 80                    # 8-byte Folded Spill
	st.d	$s0, $sp, 72                    # 8-byte Folded Spill
	st.d	$s1, $sp, 64                    # 8-byte Folded Spill
	st.d	$s2, $sp, 56                    # 8-byte Folded Spill
	st.d	$s3, $sp, 48                    # 8-byte Folded Spill
	st.d	$s4, $sp, 40                    # 8-byte Folded Spill
	st.d	$s5, $sp, 32                    # 8-byte Folded Spill
	st.d	$s6, $sp, 24                    # 8-byte Folded Spill
	st.d	$s7, $sp, 16                    # 8-byte Folded Spill
	.cfi_offset 1, -8
	.cfi_offset 22, -16
	.cfi_offset 23, -24
	.cfi_offset 24, -32
	.cfi_offset 25, -40
	.cfi_offset 26, -48
	.cfi_offset 27, -56
	.cfi_offset 28, -64
	.cfi_offset 29, -72
	.cfi_offset 30, -80
	move	$fp, $a0
	pcaddu18i	$ra, %call36(_ZL9init_dataj)
	jirl	$ra, $ra, 0
	ld.w	$s1, $fp, 28
	ld.d	$s0, $fp, 16
	move	$a0, $fp
	pcaddu18i	$ra, %call36(_ZN9benchmark5State16StartKeepRunningEv)
	jirl	$ra, $ra, 0
	bnez	$s1, .LBB45_4
# %bb.1:                                # %entry
	beqz	$s0, .LBB45_4
# %bb.2:                                # %for.body.i.preheader
	pcalau12i	$s1, %pc_hi20(A)
	pcalau12i	$s2, %pc_hi20(B)
	pcalau12i	$s3, %pc_hi20(C)
	pcalau12i	$s4, %pc_hi20(D)
	pcalau12i	$s5, %pc_hi20(E)
	pcalau12i	$s6, %pc_hi20(F)
	pcalau12i	$s7, %pc_hi20(g_sum)
	.p2align	4, , 16
.LBB45_3:                               # %for.body.i
                                        # =>This Inner Loop Header: Depth=1
	#APP
	#NO_APP
	#APP
	#NO_APP
	#APP
	#NO_APP
	#APP
	#NO_APP
	#APP
	#NO_APP
	#APP
	#NO_APP
	#MEMBARRIER
	ori	$a0, $zero, 2
	pcaddu18i	$ra, %call36(_ZL14loopWithVW4IC2i)
	jirl	$ra, $ra, 0
	ld.w	$a1, $s7, %pc_lo12(g_sum)
	add.d	$a0, $a1, $a0
	addi.d	$s0, $s0, -1
	st.w	$a0, $s7, %pc_lo12(g_sum)
	bnez	$s0, .LBB45_3
.LBB45_4:                               # %_ZL27runBenchForLoopInterleavingRN9benchmark5StateEPFiiEi.exit
	move	$a0, $fp
	ld.d	$s7, $sp, 16                    # 8-byte Folded Reload
	ld.d	$s6, $sp, 24                    # 8-byte Folded Reload
	ld.d	$s5, $sp, 32                    # 8-byte Folded Reload
	ld.d	$s4, $sp, 40                    # 8-byte Folded Reload
	ld.d	$s3, $sp, 48                    # 8-byte Folded Reload
	ld.d	$s2, $sp, 56                    # 8-byte Folded Reload
	ld.d	$s1, $sp, 64                    # 8-byte Folded Reload
	ld.d	$s0, $sp, 72                    # 8-byte Folded Reload
	ld.d	$fp, $sp, 80                    # 8-byte Folded Reload
	ld.d	$ra, $sp, 88                    # 8-byte Folded Reload
	addi.d	$sp, $sp, 96
	pcaddu18i	$t8, %call36(_ZN9benchmark5State17FinishKeepRunningEv)
	jr	$t8
.Lfunc_end45:
	.size	_Z21benchForIC2VW4LoopTC2RN9benchmark5StateE, .Lfunc_end45-_Z21benchForIC2VW4LoopTC2RN9benchmark5StateE
	.cfi_endproc
                                        # -- End function
	.globl	_Z21benchForIC4VW4LoopTC2RN9benchmark5StateE # -- Begin function _Z21benchForIC4VW4LoopTC2RN9benchmark5StateE
	.p2align	5
	.type	_Z21benchForIC4VW4LoopTC2RN9benchmark5StateE,@function
_Z21benchForIC4VW4LoopTC2RN9benchmark5StateE: # @_Z21benchForIC4VW4LoopTC2RN9benchmark5StateE
	.cfi_startproc
# %bb.0:                                # %entry
	addi.d	$sp, $sp, -96
	.cfi_def_cfa_offset 96
	st.d	$ra, $sp, 88                    # 8-byte Folded Spill
	st.d	$fp, $sp, 80                    # 8-byte Folded Spill
	st.d	$s0, $sp, 72                    # 8-byte Folded Spill
	st.d	$s1, $sp, 64                    # 8-byte Folded Spill
	st.d	$s2, $sp, 56                    # 8-byte Folded Spill
	st.d	$s3, $sp, 48                    # 8-byte Folded Spill
	st.d	$s4, $sp, 40                    # 8-byte Folded Spill
	st.d	$s5, $sp, 32                    # 8-byte Folded Spill
	st.d	$s6, $sp, 24                    # 8-byte Folded Spill
	st.d	$s7, $sp, 16                    # 8-byte Folded Spill
	.cfi_offset 1, -8
	.cfi_offset 22, -16
	.cfi_offset 23, -24
	.cfi_offset 24, -32
	.cfi_offset 25, -40
	.cfi_offset 26, -48
	.cfi_offset 27, -56
	.cfi_offset 28, -64
	.cfi_offset 29, -72
	.cfi_offset 30, -80
	move	$fp, $a0
	pcaddu18i	$ra, %call36(_ZL9init_dataj)
	jirl	$ra, $ra, 0
	ld.w	$s1, $fp, 28
	ld.d	$s0, $fp, 16
	move	$a0, $fp
	pcaddu18i	$ra, %call36(_ZN9benchmark5State16StartKeepRunningEv)
	jirl	$ra, $ra, 0
	bnez	$s1, .LBB46_4
# %bb.1:                                # %entry
	beqz	$s0, .LBB46_4
# %bb.2:                                # %for.body.i.preheader
	pcalau12i	$s1, %pc_hi20(A)
	pcalau12i	$s2, %pc_hi20(B)
	pcalau12i	$s3, %pc_hi20(C)
	pcalau12i	$s4, %pc_hi20(D)
	pcalau12i	$s5, %pc_hi20(E)
	pcalau12i	$s6, %pc_hi20(F)
	pcalau12i	$s7, %pc_hi20(g_sum)
	.p2align	4, , 16
.LBB46_3:                               # %for.body.i
                                        # =>This Inner Loop Header: Depth=1
	#APP
	#NO_APP
	#APP
	#NO_APP
	#APP
	#NO_APP
	#APP
	#NO_APP
	#APP
	#NO_APP
	#APP
	#NO_APP
	#MEMBARRIER
	ori	$a0, $zero, 2
	pcaddu18i	$ra, %call36(_ZL14loopWithVW4IC4i)
	jirl	$ra, $ra, 0
	ld.w	$a1, $s7, %pc_lo12(g_sum)
	add.d	$a0, $a1, $a0
	addi.d	$s0, $s0, -1
	st.w	$a0, $s7, %pc_lo12(g_sum)
	bnez	$s0, .LBB46_3
.LBB46_4:                               # %_ZL27runBenchForLoopInterleavingRN9benchmark5StateEPFiiEi.exit
	move	$a0, $fp
	ld.d	$s7, $sp, 16                    # 8-byte Folded Reload
	ld.d	$s6, $sp, 24                    # 8-byte Folded Reload
	ld.d	$s5, $sp, 32                    # 8-byte Folded Reload
	ld.d	$s4, $sp, 40                    # 8-byte Folded Reload
	ld.d	$s3, $sp, 48                    # 8-byte Folded Reload
	ld.d	$s2, $sp, 56                    # 8-byte Folded Reload
	ld.d	$s1, $sp, 64                    # 8-byte Folded Reload
	ld.d	$s0, $sp, 72                    # 8-byte Folded Reload
	ld.d	$fp, $sp, 80                    # 8-byte Folded Reload
	ld.d	$ra, $sp, 88                    # 8-byte Folded Reload
	addi.d	$sp, $sp, 96
	pcaddu18i	$t8, %call36(_ZN9benchmark5State17FinishKeepRunningEv)
	jr	$t8
.Lfunc_end46:
	.size	_Z21benchForIC4VW4LoopTC2RN9benchmark5StateE, .Lfunc_end46-_Z21benchForIC4VW4LoopTC2RN9benchmark5StateE
	.cfi_endproc
                                        # -- End function
	.globl	_Z35benchForLoopWithReductionAutoVecTC2RN9benchmark5StateE # -- Begin function _Z35benchForLoopWithReductionAutoVecTC2RN9benchmark5StateE
	.p2align	5
	.type	_Z35benchForLoopWithReductionAutoVecTC2RN9benchmark5StateE,@function
_Z35benchForLoopWithReductionAutoVecTC2RN9benchmark5StateE: # @_Z35benchForLoopWithReductionAutoVecTC2RN9benchmark5StateE
	.cfi_startproc
# %bb.0:                                # %entry
	addi.d	$sp, $sp, -96
	.cfi_def_cfa_offset 96
	st.d	$ra, $sp, 88                    # 8-byte Folded Spill
	st.d	$fp, $sp, 80                    # 8-byte Folded Spill
	st.d	$s0, $sp, 72                    # 8-byte Folded Spill
	st.d	$s1, $sp, 64                    # 8-byte Folded Spill
	st.d	$s2, $sp, 56                    # 8-byte Folded Spill
	st.d	$s3, $sp, 48                    # 8-byte Folded Spill
	st.d	$s4, $sp, 40                    # 8-byte Folded Spill
	st.d	$s5, $sp, 32                    # 8-byte Folded Spill
	st.d	$s6, $sp, 24                    # 8-byte Folded Spill
	st.d	$s7, $sp, 16                    # 8-byte Folded Spill
	.cfi_offset 1, -8
	.cfi_offset 22, -16
	.cfi_offset 23, -24
	.cfi_offset 24, -32
	.cfi_offset 25, -40
	.cfi_offset 26, -48
	.cfi_offset 27, -56
	.cfi_offset 28, -64
	.cfi_offset 29, -72
	.cfi_offset 30, -80
	move	$fp, $a0
	pcaddu18i	$ra, %call36(_ZL9init_dataj)
	jirl	$ra, $ra, 0
	ld.w	$s1, $fp, 28
	ld.d	$s0, $fp, 16
	move	$a0, $fp
	pcaddu18i	$ra, %call36(_ZN9benchmark5State16StartKeepRunningEv)
	jirl	$ra, $ra, 0
	bnez	$s1, .LBB47_4
# %bb.1:                                # %entry
	beqz	$s0, .LBB47_4
# %bb.2:                                # %for.body.i.preheader
	pcalau12i	$s1, %pc_hi20(A)
	pcalau12i	$s2, %pc_hi20(B)
	pcalau12i	$s3, %pc_hi20(C)
	pcalau12i	$s4, %pc_hi20(D)
	pcalau12i	$s5, %pc_hi20(E)
	pcalau12i	$s6, %pc_hi20(F)
	pcalau12i	$s7, %pc_hi20(g_sum)
	.p2align	4, , 16
.LBB47_3:                               # %for.body.i
                                        # =>This Inner Loop Header: Depth=1
	#APP
	#NO_APP
	#APP
	#NO_APP
	#APP
	#NO_APP
	#APP
	#NO_APP
	#APP
	#NO_APP
	#APP
	#NO_APP
	#MEMBARRIER
	ori	$a0, $zero, 2
	pcaddu18i	$ra, %call36(_ZL24loopWithReductionAutoVeci)
	jirl	$ra, $ra, 0
	ld.w	$a1, $s7, %pc_lo12(g_sum)
	add.d	$a0, $a1, $a0
	addi.d	$s0, $s0, -1
	st.w	$a0, $s7, %pc_lo12(g_sum)
	bnez	$s0, .LBB47_3
.LBB47_4:                               # %_ZL27runBenchForLoopInterleavingRN9benchmark5StateEPFiiEi.exit
	move	$a0, $fp
	ld.d	$s7, $sp, 16                    # 8-byte Folded Reload
	ld.d	$s6, $sp, 24                    # 8-byte Folded Reload
	ld.d	$s5, $sp, 32                    # 8-byte Folded Reload
	ld.d	$s4, $sp, 40                    # 8-byte Folded Reload
	ld.d	$s3, $sp, 48                    # 8-byte Folded Reload
	ld.d	$s2, $sp, 56                    # 8-byte Folded Reload
	ld.d	$s1, $sp, 64                    # 8-byte Folded Reload
	ld.d	$s0, $sp, 72                    # 8-byte Folded Reload
	ld.d	$fp, $sp, 80                    # 8-byte Folded Reload
	ld.d	$ra, $sp, 88                    # 8-byte Folded Reload
	addi.d	$sp, $sp, 96
	pcaddu18i	$t8, %call36(_ZN9benchmark5State17FinishKeepRunningEv)
	jr	$t8
.Lfunc_end47:
	.size	_Z35benchForLoopWithReductionAutoVecTC2RN9benchmark5StateE, .Lfunc_end47-_Z35benchForLoopWithReductionAutoVecTC2RN9benchmark5StateE
	.cfi_endproc
                                        # -- End function
	.globl	_Z34benchForIC1VW4LoopWithReductionTC2RN9benchmark5StateE # -- Begin function _Z34benchForIC1VW4LoopWithReductionTC2RN9benchmark5StateE
	.p2align	5
	.type	_Z34benchForIC1VW4LoopWithReductionTC2RN9benchmark5StateE,@function
_Z34benchForIC1VW4LoopWithReductionTC2RN9benchmark5StateE: # @_Z34benchForIC1VW4LoopWithReductionTC2RN9benchmark5StateE
	.cfi_startproc
# %bb.0:                                # %entry
	addi.d	$sp, $sp, -96
	.cfi_def_cfa_offset 96
	st.d	$ra, $sp, 88                    # 8-byte Folded Spill
	st.d	$fp, $sp, 80                    # 8-byte Folded Spill
	st.d	$s0, $sp, 72                    # 8-byte Folded Spill
	st.d	$s1, $sp, 64                    # 8-byte Folded Spill
	st.d	$s2, $sp, 56                    # 8-byte Folded Spill
	st.d	$s3, $sp, 48                    # 8-byte Folded Spill
	st.d	$s4, $sp, 40                    # 8-byte Folded Spill
	st.d	$s5, $sp, 32                    # 8-byte Folded Spill
	st.d	$s6, $sp, 24                    # 8-byte Folded Spill
	st.d	$s7, $sp, 16                    # 8-byte Folded Spill
	.cfi_offset 1, -8
	.cfi_offset 22, -16
	.cfi_offset 23, -24
	.cfi_offset 24, -32
	.cfi_offset 25, -40
	.cfi_offset 26, -48
	.cfi_offset 27, -56
	.cfi_offset 28, -64
	.cfi_offset 29, -72
	.cfi_offset 30, -80
	move	$fp, $a0
	pcaddu18i	$ra, %call36(_ZL9init_dataj)
	jirl	$ra, $ra, 0
	ld.w	$s1, $fp, 28
	ld.d	$s0, $fp, 16
	move	$a0, $fp
	pcaddu18i	$ra, %call36(_ZN9benchmark5State16StartKeepRunningEv)
	jirl	$ra, $ra, 0
	bnez	$s1, .LBB48_4
# %bb.1:                                # %entry
	beqz	$s0, .LBB48_4
# %bb.2:                                # %for.body.i.preheader
	pcalau12i	$s1, %pc_hi20(A)
	pcalau12i	$s2, %pc_hi20(B)
	pcalau12i	$s3, %pc_hi20(C)
	pcalau12i	$s4, %pc_hi20(D)
	pcalau12i	$s5, %pc_hi20(E)
	pcalau12i	$s6, %pc_hi20(F)
	pcalau12i	$s7, %pc_hi20(g_sum)
	.p2align	4, , 16
.LBB48_3:                               # %for.body.i
                                        # =>This Inner Loop Header: Depth=1
	#APP
	#NO_APP
	#APP
	#NO_APP
	#APP
	#NO_APP
	#APP
	#NO_APP
	#APP
	#NO_APP
	#APP
	#NO_APP
	#MEMBARRIER
	ori	$a0, $zero, 2
	pcaddu18i	$ra, %call36(_ZL27loopWithReductionWithVW4IC1i)
	jirl	$ra, $ra, 0
	ld.w	$a1, $s7, %pc_lo12(g_sum)
	add.d	$a0, $a1, $a0
	addi.d	$s0, $s0, -1
	st.w	$a0, $s7, %pc_lo12(g_sum)
	bnez	$s0, .LBB48_3
.LBB48_4:                               # %_ZL27runBenchForLoopInterleavingRN9benchmark5StateEPFiiEi.exit
	move	$a0, $fp
	ld.d	$s7, $sp, 16                    # 8-byte Folded Reload
	ld.d	$s6, $sp, 24                    # 8-byte Folded Reload
	ld.d	$s5, $sp, 32                    # 8-byte Folded Reload
	ld.d	$s4, $sp, 40                    # 8-byte Folded Reload
	ld.d	$s3, $sp, 48                    # 8-byte Folded Reload
	ld.d	$s2, $sp, 56                    # 8-byte Folded Reload
	ld.d	$s1, $sp, 64                    # 8-byte Folded Reload
	ld.d	$s0, $sp, 72                    # 8-byte Folded Reload
	ld.d	$fp, $sp, 80                    # 8-byte Folded Reload
	ld.d	$ra, $sp, 88                    # 8-byte Folded Reload
	addi.d	$sp, $sp, 96
	pcaddu18i	$t8, %call36(_ZN9benchmark5State17FinishKeepRunningEv)
	jr	$t8
.Lfunc_end48:
	.size	_Z34benchForIC1VW4LoopWithReductionTC2RN9benchmark5StateE, .Lfunc_end48-_Z34benchForIC1VW4LoopWithReductionTC2RN9benchmark5StateE
	.cfi_endproc
                                        # -- End function
	.globl	_Z34benchForIC2VW4LoopWithReductionTC2RN9benchmark5StateE # -- Begin function _Z34benchForIC2VW4LoopWithReductionTC2RN9benchmark5StateE
	.p2align	5
	.type	_Z34benchForIC2VW4LoopWithReductionTC2RN9benchmark5StateE,@function
_Z34benchForIC2VW4LoopWithReductionTC2RN9benchmark5StateE: # @_Z34benchForIC2VW4LoopWithReductionTC2RN9benchmark5StateE
	.cfi_startproc
# %bb.0:                                # %entry
	addi.d	$sp, $sp, -96
	.cfi_def_cfa_offset 96
	st.d	$ra, $sp, 88                    # 8-byte Folded Spill
	st.d	$fp, $sp, 80                    # 8-byte Folded Spill
	st.d	$s0, $sp, 72                    # 8-byte Folded Spill
	st.d	$s1, $sp, 64                    # 8-byte Folded Spill
	st.d	$s2, $sp, 56                    # 8-byte Folded Spill
	st.d	$s3, $sp, 48                    # 8-byte Folded Spill
	st.d	$s4, $sp, 40                    # 8-byte Folded Spill
	st.d	$s5, $sp, 32                    # 8-byte Folded Spill
	st.d	$s6, $sp, 24                    # 8-byte Folded Spill
	st.d	$s7, $sp, 16                    # 8-byte Folded Spill
	.cfi_offset 1, -8
	.cfi_offset 22, -16
	.cfi_offset 23, -24
	.cfi_offset 24, -32
	.cfi_offset 25, -40
	.cfi_offset 26, -48
	.cfi_offset 27, -56
	.cfi_offset 28, -64
	.cfi_offset 29, -72
	.cfi_offset 30, -80
	move	$fp, $a0
	pcaddu18i	$ra, %call36(_ZL9init_dataj)
	jirl	$ra, $ra, 0
	ld.w	$s1, $fp, 28
	ld.d	$s0, $fp, 16
	move	$a0, $fp
	pcaddu18i	$ra, %call36(_ZN9benchmark5State16StartKeepRunningEv)
	jirl	$ra, $ra, 0
	bnez	$s1, .LBB49_4
# %bb.1:                                # %entry
	beqz	$s0, .LBB49_4
# %bb.2:                                # %for.body.i.preheader
	pcalau12i	$s1, %pc_hi20(A)
	pcalau12i	$s2, %pc_hi20(B)
	pcalau12i	$s3, %pc_hi20(C)
	pcalau12i	$s4, %pc_hi20(D)
	pcalau12i	$s5, %pc_hi20(E)
	pcalau12i	$s6, %pc_hi20(F)
	pcalau12i	$s7, %pc_hi20(g_sum)
	.p2align	4, , 16
.LBB49_3:                               # %for.body.i
                                        # =>This Inner Loop Header: Depth=1
	#APP
	#NO_APP
	#APP
	#NO_APP
	#APP
	#NO_APP
	#APP
	#NO_APP
	#APP
	#NO_APP
	#APP
	#NO_APP
	#MEMBARRIER
	ori	$a0, $zero, 2
	pcaddu18i	$ra, %call36(_ZL27loopWithReductionWithVW4IC2i)
	jirl	$ra, $ra, 0
	ld.w	$a1, $s7, %pc_lo12(g_sum)
	add.d	$a0, $a1, $a0
	addi.d	$s0, $s0, -1
	st.w	$a0, $s7, %pc_lo12(g_sum)
	bnez	$s0, .LBB49_3
.LBB49_4:                               # %_ZL27runBenchForLoopInterleavingRN9benchmark5StateEPFiiEi.exit
	move	$a0, $fp
	ld.d	$s7, $sp, 16                    # 8-byte Folded Reload
	ld.d	$s6, $sp, 24                    # 8-byte Folded Reload
	ld.d	$s5, $sp, 32                    # 8-byte Folded Reload
	ld.d	$s4, $sp, 40                    # 8-byte Folded Reload
	ld.d	$s3, $sp, 48                    # 8-byte Folded Reload
	ld.d	$s2, $sp, 56                    # 8-byte Folded Reload
	ld.d	$s1, $sp, 64                    # 8-byte Folded Reload
	ld.d	$s0, $sp, 72                    # 8-byte Folded Reload
	ld.d	$fp, $sp, 80                    # 8-byte Folded Reload
	ld.d	$ra, $sp, 88                    # 8-byte Folded Reload
	addi.d	$sp, $sp, 96
	pcaddu18i	$t8, %call36(_ZN9benchmark5State17FinishKeepRunningEv)
	jr	$t8
.Lfunc_end49:
	.size	_Z34benchForIC2VW4LoopWithReductionTC2RN9benchmark5StateE, .Lfunc_end49-_Z34benchForIC2VW4LoopWithReductionTC2RN9benchmark5StateE
	.cfi_endproc
                                        # -- End function
	.globl	_Z34benchForIC4VW4LoopWithReductionTC2RN9benchmark5StateE # -- Begin function _Z34benchForIC4VW4LoopWithReductionTC2RN9benchmark5StateE
	.p2align	5
	.type	_Z34benchForIC4VW4LoopWithReductionTC2RN9benchmark5StateE,@function
_Z34benchForIC4VW4LoopWithReductionTC2RN9benchmark5StateE: # @_Z34benchForIC4VW4LoopWithReductionTC2RN9benchmark5StateE
	.cfi_startproc
# %bb.0:                                # %entry
	addi.d	$sp, $sp, -96
	.cfi_def_cfa_offset 96
	st.d	$ra, $sp, 88                    # 8-byte Folded Spill
	st.d	$fp, $sp, 80                    # 8-byte Folded Spill
	st.d	$s0, $sp, 72                    # 8-byte Folded Spill
	st.d	$s1, $sp, 64                    # 8-byte Folded Spill
	st.d	$s2, $sp, 56                    # 8-byte Folded Spill
	st.d	$s3, $sp, 48                    # 8-byte Folded Spill
	st.d	$s4, $sp, 40                    # 8-byte Folded Spill
	st.d	$s5, $sp, 32                    # 8-byte Folded Spill
	st.d	$s6, $sp, 24                    # 8-byte Folded Spill
	st.d	$s7, $sp, 16                    # 8-byte Folded Spill
	.cfi_offset 1, -8
	.cfi_offset 22, -16
	.cfi_offset 23, -24
	.cfi_offset 24, -32
	.cfi_offset 25, -40
	.cfi_offset 26, -48
	.cfi_offset 27, -56
	.cfi_offset 28, -64
	.cfi_offset 29, -72
	.cfi_offset 30, -80
	move	$fp, $a0
	pcaddu18i	$ra, %call36(_ZL9init_dataj)
	jirl	$ra, $ra, 0
	ld.w	$s1, $fp, 28
	ld.d	$s0, $fp, 16
	move	$a0, $fp
	pcaddu18i	$ra, %call36(_ZN9benchmark5State16StartKeepRunningEv)
	jirl	$ra, $ra, 0
	bnez	$s1, .LBB50_4
# %bb.1:                                # %entry
	beqz	$s0, .LBB50_4
# %bb.2:                                # %for.body.i.preheader
	pcalau12i	$s1, %pc_hi20(A)
	pcalau12i	$s2, %pc_hi20(B)
	pcalau12i	$s3, %pc_hi20(C)
	pcalau12i	$s4, %pc_hi20(D)
	pcalau12i	$s5, %pc_hi20(E)
	pcalau12i	$s6, %pc_hi20(F)
	pcalau12i	$s7, %pc_hi20(g_sum)
	.p2align	4, , 16
.LBB50_3:                               # %for.body.i
                                        # =>This Inner Loop Header: Depth=1
	#APP
	#NO_APP
	#APP
	#NO_APP
	#APP
	#NO_APP
	#APP
	#NO_APP
	#APP
	#NO_APP
	#APP
	#NO_APP
	#MEMBARRIER
	ori	$a0, $zero, 2
	pcaddu18i	$ra, %call36(_ZL27loopWithReductionWithVW4IC4i)
	jirl	$ra, $ra, 0
	ld.w	$a1, $s7, %pc_lo12(g_sum)
	add.d	$a0, $a1, $a0
	addi.d	$s0, $s0, -1
	st.w	$a0, $s7, %pc_lo12(g_sum)
	bnez	$s0, .LBB50_3
.LBB50_4:                               # %_ZL27runBenchForLoopInterleavingRN9benchmark5StateEPFiiEi.exit
	move	$a0, $fp
	ld.d	$s7, $sp, 16                    # 8-byte Folded Reload
	ld.d	$s6, $sp, 24                    # 8-byte Folded Reload
	ld.d	$s5, $sp, 32                    # 8-byte Folded Reload
	ld.d	$s4, $sp, 40                    # 8-byte Folded Reload
	ld.d	$s3, $sp, 48                    # 8-byte Folded Reload
	ld.d	$s2, $sp, 56                    # 8-byte Folded Reload
	ld.d	$s1, $sp, 64                    # 8-byte Folded Reload
	ld.d	$s0, $sp, 72                    # 8-byte Folded Reload
	ld.d	$fp, $sp, 80                    # 8-byte Folded Reload
	ld.d	$ra, $sp, 88                    # 8-byte Folded Reload
	addi.d	$sp, $sp, 96
	pcaddu18i	$t8, %call36(_ZN9benchmark5State17FinishKeepRunningEv)
	jr	$t8
.Lfunc_end50:
	.size	_Z34benchForIC4VW4LoopWithReductionTC2RN9benchmark5StateE, .Lfunc_end50-_Z34benchForIC4VW4LoopWithReductionTC2RN9benchmark5StateE
	.cfi_endproc
                                        # -- End function
	.globl	_Z34benchForIC1VW1LoopWithReductionTC2RN9benchmark5StateE # -- Begin function _Z34benchForIC1VW1LoopWithReductionTC2RN9benchmark5StateE
	.p2align	5
	.type	_Z34benchForIC1VW1LoopWithReductionTC2RN9benchmark5StateE,@function
_Z34benchForIC1VW1LoopWithReductionTC2RN9benchmark5StateE: # @_Z34benchForIC1VW1LoopWithReductionTC2RN9benchmark5StateE
	.cfi_startproc
# %bb.0:                                # %entry
	addi.d	$sp, $sp, -96
	.cfi_def_cfa_offset 96
	st.d	$ra, $sp, 88                    # 8-byte Folded Spill
	st.d	$fp, $sp, 80                    # 8-byte Folded Spill
	st.d	$s0, $sp, 72                    # 8-byte Folded Spill
	st.d	$s1, $sp, 64                    # 8-byte Folded Spill
	st.d	$s2, $sp, 56                    # 8-byte Folded Spill
	st.d	$s3, $sp, 48                    # 8-byte Folded Spill
	st.d	$s4, $sp, 40                    # 8-byte Folded Spill
	st.d	$s5, $sp, 32                    # 8-byte Folded Spill
	st.d	$s6, $sp, 24                    # 8-byte Folded Spill
	st.d	$s7, $sp, 16                    # 8-byte Folded Spill
	.cfi_offset 1, -8
	.cfi_offset 22, -16
	.cfi_offset 23, -24
	.cfi_offset 24, -32
	.cfi_offset 25, -40
	.cfi_offset 26, -48
	.cfi_offset 27, -56
	.cfi_offset 28, -64
	.cfi_offset 29, -72
	.cfi_offset 30, -80
	move	$fp, $a0
	pcaddu18i	$ra, %call36(_ZL9init_dataj)
	jirl	$ra, $ra, 0
	ld.w	$s1, $fp, 28
	ld.d	$s0, $fp, 16
	move	$a0, $fp
	pcaddu18i	$ra, %call36(_ZN9benchmark5State16StartKeepRunningEv)
	jirl	$ra, $ra, 0
	bnez	$s1, .LBB51_4
# %bb.1:                                # %entry
	beqz	$s0, .LBB51_4
# %bb.2:                                # %for.body.i.preheader
	pcalau12i	$s1, %pc_hi20(A)
	pcalau12i	$s2, %pc_hi20(B)
	pcalau12i	$s3, %pc_hi20(C)
	pcalau12i	$s4, %pc_hi20(D)
	pcalau12i	$s5, %pc_hi20(E)
	pcalau12i	$s6, %pc_hi20(F)
	pcalau12i	$s7, %pc_hi20(g_sum)
	.p2align	4, , 16
.LBB51_3:                               # %for.body.i
                                        # =>This Inner Loop Header: Depth=1
	#APP
	#NO_APP
	#APP
	#NO_APP
	#APP
	#NO_APP
	#APP
	#NO_APP
	#APP
	#NO_APP
	#APP
	#NO_APP
	#MEMBARRIER
	ori	$a0, $zero, 2
	pcaddu18i	$ra, %call36(_ZL27loopWithReductionWithVW1IC1i)
	jirl	$ra, $ra, 0
	ld.w	$a1, $s7, %pc_lo12(g_sum)
	add.d	$a0, $a1, $a0
	addi.d	$s0, $s0, -1
	st.w	$a0, $s7, %pc_lo12(g_sum)
	bnez	$s0, .LBB51_3
.LBB51_4:                               # %_ZL27runBenchForLoopInterleavingRN9benchmark5StateEPFiiEi.exit
	move	$a0, $fp
	ld.d	$s7, $sp, 16                    # 8-byte Folded Reload
	ld.d	$s6, $sp, 24                    # 8-byte Folded Reload
	ld.d	$s5, $sp, 32                    # 8-byte Folded Reload
	ld.d	$s4, $sp, 40                    # 8-byte Folded Reload
	ld.d	$s3, $sp, 48                    # 8-byte Folded Reload
	ld.d	$s2, $sp, 56                    # 8-byte Folded Reload
	ld.d	$s1, $sp, 64                    # 8-byte Folded Reload
	ld.d	$s0, $sp, 72                    # 8-byte Folded Reload
	ld.d	$fp, $sp, 80                    # 8-byte Folded Reload
	ld.d	$ra, $sp, 88                    # 8-byte Folded Reload
	addi.d	$sp, $sp, 96
	pcaddu18i	$t8, %call36(_ZN9benchmark5State17FinishKeepRunningEv)
	jr	$t8
.Lfunc_end51:
	.size	_Z34benchForIC1VW1LoopWithReductionTC2RN9benchmark5StateE, .Lfunc_end51-_Z34benchForIC1VW1LoopWithReductionTC2RN9benchmark5StateE
	.cfi_endproc
                                        # -- End function
	.globl	_Z34benchForIC2VW1LoopWithReductionTC2RN9benchmark5StateE # -- Begin function _Z34benchForIC2VW1LoopWithReductionTC2RN9benchmark5StateE
	.p2align	5
	.type	_Z34benchForIC2VW1LoopWithReductionTC2RN9benchmark5StateE,@function
_Z34benchForIC2VW1LoopWithReductionTC2RN9benchmark5StateE: # @_Z34benchForIC2VW1LoopWithReductionTC2RN9benchmark5StateE
	.cfi_startproc
# %bb.0:                                # %entry
	addi.d	$sp, $sp, -96
	.cfi_def_cfa_offset 96
	st.d	$ra, $sp, 88                    # 8-byte Folded Spill
	st.d	$fp, $sp, 80                    # 8-byte Folded Spill
	st.d	$s0, $sp, 72                    # 8-byte Folded Spill
	st.d	$s1, $sp, 64                    # 8-byte Folded Spill
	st.d	$s2, $sp, 56                    # 8-byte Folded Spill
	st.d	$s3, $sp, 48                    # 8-byte Folded Spill
	st.d	$s4, $sp, 40                    # 8-byte Folded Spill
	st.d	$s5, $sp, 32                    # 8-byte Folded Spill
	st.d	$s6, $sp, 24                    # 8-byte Folded Spill
	st.d	$s7, $sp, 16                    # 8-byte Folded Spill
	.cfi_offset 1, -8
	.cfi_offset 22, -16
	.cfi_offset 23, -24
	.cfi_offset 24, -32
	.cfi_offset 25, -40
	.cfi_offset 26, -48
	.cfi_offset 27, -56
	.cfi_offset 28, -64
	.cfi_offset 29, -72
	.cfi_offset 30, -80
	move	$fp, $a0
	pcaddu18i	$ra, %call36(_ZL9init_dataj)
	jirl	$ra, $ra, 0
	ld.w	$s1, $fp, 28
	ld.d	$s0, $fp, 16
	move	$a0, $fp
	pcaddu18i	$ra, %call36(_ZN9benchmark5State16StartKeepRunningEv)
	jirl	$ra, $ra, 0
	bnez	$s1, .LBB52_4
# %bb.1:                                # %entry
	beqz	$s0, .LBB52_4
# %bb.2:                                # %for.body.i.preheader
	pcalau12i	$s1, %pc_hi20(A)
	pcalau12i	$s2, %pc_hi20(B)
	pcalau12i	$s3, %pc_hi20(C)
	pcalau12i	$s4, %pc_hi20(D)
	pcalau12i	$s5, %pc_hi20(E)
	pcalau12i	$s6, %pc_hi20(F)
	pcalau12i	$s7, %pc_hi20(g_sum)
	.p2align	4, , 16
.LBB52_3:                               # %for.body.i
                                        # =>This Inner Loop Header: Depth=1
	#APP
	#NO_APP
	#APP
	#NO_APP
	#APP
	#NO_APP
	#APP
	#NO_APP
	#APP
	#NO_APP
	#APP
	#NO_APP
	#MEMBARRIER
	ori	$a0, $zero, 2
	pcaddu18i	$ra, %call36(_ZL27loopWithReductionWithVW1IC2i)
	jirl	$ra, $ra, 0
	ld.w	$a1, $s7, %pc_lo12(g_sum)
	add.d	$a0, $a1, $a0
	addi.d	$s0, $s0, -1
	st.w	$a0, $s7, %pc_lo12(g_sum)
	bnez	$s0, .LBB52_3
.LBB52_4:                               # %_ZL27runBenchForLoopInterleavingRN9benchmark5StateEPFiiEi.exit
	move	$a0, $fp
	ld.d	$s7, $sp, 16                    # 8-byte Folded Reload
	ld.d	$s6, $sp, 24                    # 8-byte Folded Reload
	ld.d	$s5, $sp, 32                    # 8-byte Folded Reload
	ld.d	$s4, $sp, 40                    # 8-byte Folded Reload
	ld.d	$s3, $sp, 48                    # 8-byte Folded Reload
	ld.d	$s2, $sp, 56                    # 8-byte Folded Reload
	ld.d	$s1, $sp, 64                    # 8-byte Folded Reload
	ld.d	$s0, $sp, 72                    # 8-byte Folded Reload
	ld.d	$fp, $sp, 80                    # 8-byte Folded Reload
	ld.d	$ra, $sp, 88                    # 8-byte Folded Reload
	addi.d	$sp, $sp, 96
	pcaddu18i	$t8, %call36(_ZN9benchmark5State17FinishKeepRunningEv)
	jr	$t8
.Lfunc_end52:
	.size	_Z34benchForIC2VW1LoopWithReductionTC2RN9benchmark5StateE, .Lfunc_end52-_Z34benchForIC2VW1LoopWithReductionTC2RN9benchmark5StateE
	.cfi_endproc
                                        # -- End function
	.globl	_Z34benchForIC4VW1LoopWithReductionTC2RN9benchmark5StateE # -- Begin function _Z34benchForIC4VW1LoopWithReductionTC2RN9benchmark5StateE
	.p2align	5
	.type	_Z34benchForIC4VW1LoopWithReductionTC2RN9benchmark5StateE,@function
_Z34benchForIC4VW1LoopWithReductionTC2RN9benchmark5StateE: # @_Z34benchForIC4VW1LoopWithReductionTC2RN9benchmark5StateE
	.cfi_startproc
# %bb.0:                                # %entry
	addi.d	$sp, $sp, -96
	.cfi_def_cfa_offset 96
	st.d	$ra, $sp, 88                    # 8-byte Folded Spill
	st.d	$fp, $sp, 80                    # 8-byte Folded Spill
	st.d	$s0, $sp, 72                    # 8-byte Folded Spill
	st.d	$s1, $sp, 64                    # 8-byte Folded Spill
	st.d	$s2, $sp, 56                    # 8-byte Folded Spill
	st.d	$s3, $sp, 48                    # 8-byte Folded Spill
	st.d	$s4, $sp, 40                    # 8-byte Folded Spill
	st.d	$s5, $sp, 32                    # 8-byte Folded Spill
	st.d	$s6, $sp, 24                    # 8-byte Folded Spill
	st.d	$s7, $sp, 16                    # 8-byte Folded Spill
	.cfi_offset 1, -8
	.cfi_offset 22, -16
	.cfi_offset 23, -24
	.cfi_offset 24, -32
	.cfi_offset 25, -40
	.cfi_offset 26, -48
	.cfi_offset 27, -56
	.cfi_offset 28, -64
	.cfi_offset 29, -72
	.cfi_offset 30, -80
	move	$fp, $a0
	pcaddu18i	$ra, %call36(_ZL9init_dataj)
	jirl	$ra, $ra, 0
	ld.w	$s1, $fp, 28
	ld.d	$s0, $fp, 16
	move	$a0, $fp
	pcaddu18i	$ra, %call36(_ZN9benchmark5State16StartKeepRunningEv)
	jirl	$ra, $ra, 0
	bnez	$s1, .LBB53_4
# %bb.1:                                # %entry
	beqz	$s0, .LBB53_4
# %bb.2:                                # %for.body.i.preheader
	pcalau12i	$s1, %pc_hi20(A)
	pcalau12i	$s2, %pc_hi20(B)
	pcalau12i	$s3, %pc_hi20(C)
	pcalau12i	$s4, %pc_hi20(D)
	pcalau12i	$s5, %pc_hi20(E)
	pcalau12i	$s6, %pc_hi20(F)
	pcalau12i	$s7, %pc_hi20(g_sum)
	.p2align	4, , 16
.LBB53_3:                               # %for.body.i
                                        # =>This Inner Loop Header: Depth=1
	#APP
	#NO_APP
	#APP
	#NO_APP
	#APP
	#NO_APP
	#APP
	#NO_APP
	#APP
	#NO_APP
	#APP
	#NO_APP
	#MEMBARRIER
	ori	$a0, $zero, 2
	pcaddu18i	$ra, %call36(_ZL27loopWithReductionWithVW1IC4i)
	jirl	$ra, $ra, 0
	ld.w	$a1, $s7, %pc_lo12(g_sum)
	add.d	$a0, $a1, $a0
	addi.d	$s0, $s0, -1
	st.w	$a0, $s7, %pc_lo12(g_sum)
	bnez	$s0, .LBB53_3
.LBB53_4:                               # %_ZL27runBenchForLoopInterleavingRN9benchmark5StateEPFiiEi.exit
	move	$a0, $fp
	ld.d	$s7, $sp, 16                    # 8-byte Folded Reload
	ld.d	$s6, $sp, 24                    # 8-byte Folded Reload
	ld.d	$s5, $sp, 32                    # 8-byte Folded Reload
	ld.d	$s4, $sp, 40                    # 8-byte Folded Reload
	ld.d	$s3, $sp, 48                    # 8-byte Folded Reload
	ld.d	$s2, $sp, 56                    # 8-byte Folded Reload
	ld.d	$s1, $sp, 64                    # 8-byte Folded Reload
	ld.d	$s0, $sp, 72                    # 8-byte Folded Reload
	ld.d	$fp, $sp, 80                    # 8-byte Folded Reload
	ld.d	$ra, $sp, 88                    # 8-byte Folded Reload
	addi.d	$sp, $sp, 96
	pcaddu18i	$t8, %call36(_ZN9benchmark5State17FinishKeepRunningEv)
	jr	$t8
.Lfunc_end53:
	.size	_Z34benchForIC4VW1LoopWithReductionTC2RN9benchmark5StateE, .Lfunc_end53-_Z34benchForIC4VW1LoopWithReductionTC2RN9benchmark5StateE
	.cfi_endproc
                                        # -- End function
	.globl	_Z25benchAutoVecForBigLoopTC2RN9benchmark5StateE # -- Begin function _Z25benchAutoVecForBigLoopTC2RN9benchmark5StateE
	.p2align	5
	.type	_Z25benchAutoVecForBigLoopTC2RN9benchmark5StateE,@function
_Z25benchAutoVecForBigLoopTC2RN9benchmark5StateE: # @_Z25benchAutoVecForBigLoopTC2RN9benchmark5StateE
	.cfi_startproc
# %bb.0:                                # %entry
	addi.d	$sp, $sp, -96
	.cfi_def_cfa_offset 96
	st.d	$ra, $sp, 88                    # 8-byte Folded Spill
	st.d	$fp, $sp, 80                    # 8-byte Folded Spill
	st.d	$s0, $sp, 72                    # 8-byte Folded Spill
	st.d	$s1, $sp, 64                    # 8-byte Folded Spill
	st.d	$s2, $sp, 56                    # 8-byte Folded Spill
	st.d	$s3, $sp, 48                    # 8-byte Folded Spill
	st.d	$s4, $sp, 40                    # 8-byte Folded Spill
	st.d	$s5, $sp, 32                    # 8-byte Folded Spill
	st.d	$s6, $sp, 24                    # 8-byte Folded Spill
	st.d	$s7, $sp, 16                    # 8-byte Folded Spill
	.cfi_offset 1, -8
	.cfi_offset 22, -16
	.cfi_offset 23, -24
	.cfi_offset 24, -32
	.cfi_offset 25, -40
	.cfi_offset 26, -48
	.cfi_offset 27, -56
	.cfi_offset 28, -64
	.cfi_offset 29, -72
	.cfi_offset 30, -80
	move	$fp, $a0
	pcaddu18i	$ra, %call36(_ZL9init_dataj)
	jirl	$ra, $ra, 0
	ld.w	$s1, $fp, 28
	ld.d	$s0, $fp, 16
	move	$a0, $fp
	pcaddu18i	$ra, %call36(_ZN9benchmark5State16StartKeepRunningEv)
	jirl	$ra, $ra, 0
	bnez	$s1, .LBB54_4
# %bb.1:                                # %entry
	beqz	$s0, .LBB54_4
# %bb.2:                                # %for.body.i.preheader
	pcalau12i	$s1, %pc_hi20(A)
	pcalau12i	$s2, %pc_hi20(B)
	pcalau12i	$s3, %pc_hi20(C)
	pcalau12i	$s4, %pc_hi20(D)
	pcalau12i	$s5, %pc_hi20(E)
	pcalau12i	$s6, %pc_hi20(F)
	pcalau12i	$s7, %pc_hi20(g_sum)
	.p2align	4, , 16
.LBB54_3:                               # %for.body.i
                                        # =>This Inner Loop Header: Depth=1
	#APP
	#NO_APP
	#APP
	#NO_APP
	#APP
	#NO_APP
	#APP
	#NO_APP
	#APP
	#NO_APP
	#APP
	#NO_APP
	#MEMBARRIER
	ori	$a0, $zero, 2
	pcaddu18i	$ra, %call36(_ZL22loopNoReductionAutoVeci)
	jirl	$ra, $ra, 0
	ld.w	$a1, $s7, %pc_lo12(g_sum)
	add.d	$a0, $a1, $a0
	addi.d	$s0, $s0, -1
	st.w	$a0, $s7, %pc_lo12(g_sum)
	bnez	$s0, .LBB54_3
.LBB54_4:                               # %_ZL27runBenchForLoopInterleavingRN9benchmark5StateEPFiiEi.exit
	move	$a0, $fp
	ld.d	$s7, $sp, 16                    # 8-byte Folded Reload
	ld.d	$s6, $sp, 24                    # 8-byte Folded Reload
	ld.d	$s5, $sp, 32                    # 8-byte Folded Reload
	ld.d	$s4, $sp, 40                    # 8-byte Folded Reload
	ld.d	$s3, $sp, 48                    # 8-byte Folded Reload
	ld.d	$s2, $sp, 56                    # 8-byte Folded Reload
	ld.d	$s1, $sp, 64                    # 8-byte Folded Reload
	ld.d	$s0, $sp, 72                    # 8-byte Folded Reload
	ld.d	$fp, $sp, 80                    # 8-byte Folded Reload
	ld.d	$ra, $sp, 88                    # 8-byte Folded Reload
	addi.d	$sp, $sp, 96
	pcaddu18i	$t8, %call36(_ZN9benchmark5State17FinishKeepRunningEv)
	jr	$t8
.Lfunc_end54:
	.size	_Z25benchAutoVecForBigLoopTC2RN9benchmark5StateE, .Lfunc_end54-_Z25benchAutoVecForBigLoopTC2RN9benchmark5StateE
	.cfi_endproc
                                        # -- End function
	.globl	_Z24benchForIC1VW4BigLoopTC2RN9benchmark5StateE # -- Begin function _Z24benchForIC1VW4BigLoopTC2RN9benchmark5StateE
	.p2align	5
	.type	_Z24benchForIC1VW4BigLoopTC2RN9benchmark5StateE,@function
_Z24benchForIC1VW4BigLoopTC2RN9benchmark5StateE: # @_Z24benchForIC1VW4BigLoopTC2RN9benchmark5StateE
	.cfi_startproc
# %bb.0:                                # %entry
	addi.d	$sp, $sp, -96
	.cfi_def_cfa_offset 96
	st.d	$ra, $sp, 88                    # 8-byte Folded Spill
	st.d	$fp, $sp, 80                    # 8-byte Folded Spill
	st.d	$s0, $sp, 72                    # 8-byte Folded Spill
	st.d	$s1, $sp, 64                    # 8-byte Folded Spill
	st.d	$s2, $sp, 56                    # 8-byte Folded Spill
	st.d	$s3, $sp, 48                    # 8-byte Folded Spill
	st.d	$s4, $sp, 40                    # 8-byte Folded Spill
	st.d	$s5, $sp, 32                    # 8-byte Folded Spill
	st.d	$s6, $sp, 24                    # 8-byte Folded Spill
	st.d	$s7, $sp, 16                    # 8-byte Folded Spill
	.cfi_offset 1, -8
	.cfi_offset 22, -16
	.cfi_offset 23, -24
	.cfi_offset 24, -32
	.cfi_offset 25, -40
	.cfi_offset 26, -48
	.cfi_offset 27, -56
	.cfi_offset 28, -64
	.cfi_offset 29, -72
	.cfi_offset 30, -80
	move	$fp, $a0
	pcaddu18i	$ra, %call36(_ZL9init_dataj)
	jirl	$ra, $ra, 0
	ld.w	$s1, $fp, 28
	ld.d	$s0, $fp, 16
	move	$a0, $fp
	pcaddu18i	$ra, %call36(_ZN9benchmark5State16StartKeepRunningEv)
	jirl	$ra, $ra, 0
	bnez	$s1, .LBB55_4
# %bb.1:                                # %entry
	beqz	$s0, .LBB55_4
# %bb.2:                                # %for.body.i.preheader
	pcalau12i	$s1, %pc_hi20(A)
	pcalau12i	$s2, %pc_hi20(B)
	pcalau12i	$s3, %pc_hi20(C)
	pcalau12i	$s4, %pc_hi20(D)
	pcalau12i	$s5, %pc_hi20(E)
	pcalau12i	$s6, %pc_hi20(F)
	pcalau12i	$s7, %pc_hi20(g_sum)
	.p2align	4, , 16
.LBB55_3:                               # %for.body.i
                                        # =>This Inner Loop Header: Depth=1
	#APP
	#NO_APP
	#APP
	#NO_APP
	#APP
	#NO_APP
	#APP
	#NO_APP
	#APP
	#NO_APP
	#APP
	#NO_APP
	#MEMBARRIER
	ori	$a0, $zero, 2
	pcaddu18i	$ra, %call36(_ZL17bigLoopWithVW4IC1i)
	jirl	$ra, $ra, 0
	ld.w	$a1, $s7, %pc_lo12(g_sum)
	add.d	$a0, $a1, $a0
	addi.d	$s0, $s0, -1
	st.w	$a0, $s7, %pc_lo12(g_sum)
	bnez	$s0, .LBB55_3
.LBB55_4:                               # %_ZL27runBenchForLoopInterleavingRN9benchmark5StateEPFiiEi.exit
	move	$a0, $fp
	ld.d	$s7, $sp, 16                    # 8-byte Folded Reload
	ld.d	$s6, $sp, 24                    # 8-byte Folded Reload
	ld.d	$s5, $sp, 32                    # 8-byte Folded Reload
	ld.d	$s4, $sp, 40                    # 8-byte Folded Reload
	ld.d	$s3, $sp, 48                    # 8-byte Folded Reload
	ld.d	$s2, $sp, 56                    # 8-byte Folded Reload
	ld.d	$s1, $sp, 64                    # 8-byte Folded Reload
	ld.d	$s0, $sp, 72                    # 8-byte Folded Reload
	ld.d	$fp, $sp, 80                    # 8-byte Folded Reload
	ld.d	$ra, $sp, 88                    # 8-byte Folded Reload
	addi.d	$sp, $sp, 96
	pcaddu18i	$t8, %call36(_ZN9benchmark5State17FinishKeepRunningEv)
	jr	$t8
.Lfunc_end55:
	.size	_Z24benchForIC1VW4BigLoopTC2RN9benchmark5StateE, .Lfunc_end55-_Z24benchForIC1VW4BigLoopTC2RN9benchmark5StateE
	.cfi_endproc
                                        # -- End function
	.globl	_Z24benchForIC2VW4BigLoopTC2RN9benchmark5StateE # -- Begin function _Z24benchForIC2VW4BigLoopTC2RN9benchmark5StateE
	.p2align	5
	.type	_Z24benchForIC2VW4BigLoopTC2RN9benchmark5StateE,@function
_Z24benchForIC2VW4BigLoopTC2RN9benchmark5StateE: # @_Z24benchForIC2VW4BigLoopTC2RN9benchmark5StateE
	.cfi_startproc
# %bb.0:                                # %entry
	addi.d	$sp, $sp, -96
	.cfi_def_cfa_offset 96
	st.d	$ra, $sp, 88                    # 8-byte Folded Spill
	st.d	$fp, $sp, 80                    # 8-byte Folded Spill
	st.d	$s0, $sp, 72                    # 8-byte Folded Spill
	st.d	$s1, $sp, 64                    # 8-byte Folded Spill
	st.d	$s2, $sp, 56                    # 8-byte Folded Spill
	st.d	$s3, $sp, 48                    # 8-byte Folded Spill
	st.d	$s4, $sp, 40                    # 8-byte Folded Spill
	st.d	$s5, $sp, 32                    # 8-byte Folded Spill
	st.d	$s6, $sp, 24                    # 8-byte Folded Spill
	st.d	$s7, $sp, 16                    # 8-byte Folded Spill
	.cfi_offset 1, -8
	.cfi_offset 22, -16
	.cfi_offset 23, -24
	.cfi_offset 24, -32
	.cfi_offset 25, -40
	.cfi_offset 26, -48
	.cfi_offset 27, -56
	.cfi_offset 28, -64
	.cfi_offset 29, -72
	.cfi_offset 30, -80
	move	$fp, $a0
	pcaddu18i	$ra, %call36(_ZL9init_dataj)
	jirl	$ra, $ra, 0
	ld.w	$s1, $fp, 28
	ld.d	$s0, $fp, 16
	move	$a0, $fp
	pcaddu18i	$ra, %call36(_ZN9benchmark5State16StartKeepRunningEv)
	jirl	$ra, $ra, 0
	bnez	$s1, .LBB56_4
# %bb.1:                                # %entry
	beqz	$s0, .LBB56_4
# %bb.2:                                # %for.body.i.preheader
	pcalau12i	$s1, %pc_hi20(A)
	pcalau12i	$s2, %pc_hi20(B)
	pcalau12i	$s3, %pc_hi20(C)
	pcalau12i	$s4, %pc_hi20(D)
	pcalau12i	$s5, %pc_hi20(E)
	pcalau12i	$s6, %pc_hi20(F)
	pcalau12i	$s7, %pc_hi20(g_sum)
	.p2align	4, , 16
.LBB56_3:                               # %for.body.i
                                        # =>This Inner Loop Header: Depth=1
	#APP
	#NO_APP
	#APP
	#NO_APP
	#APP
	#NO_APP
	#APP
	#NO_APP
	#APP
	#NO_APP
	#APP
	#NO_APP
	#MEMBARRIER
	ori	$a0, $zero, 2
	pcaddu18i	$ra, %call36(_ZL17bigLoopWithVW4IC2i)
	jirl	$ra, $ra, 0
	ld.w	$a1, $s7, %pc_lo12(g_sum)
	add.d	$a0, $a1, $a0
	addi.d	$s0, $s0, -1
	st.w	$a0, $s7, %pc_lo12(g_sum)
	bnez	$s0, .LBB56_3
.LBB56_4:                               # %_ZL27runBenchForLoopInterleavingRN9benchmark5StateEPFiiEi.exit
	move	$a0, $fp
	ld.d	$s7, $sp, 16                    # 8-byte Folded Reload
	ld.d	$s6, $sp, 24                    # 8-byte Folded Reload
	ld.d	$s5, $sp, 32                    # 8-byte Folded Reload
	ld.d	$s4, $sp, 40                    # 8-byte Folded Reload
	ld.d	$s3, $sp, 48                    # 8-byte Folded Reload
	ld.d	$s2, $sp, 56                    # 8-byte Folded Reload
	ld.d	$s1, $sp, 64                    # 8-byte Folded Reload
	ld.d	$s0, $sp, 72                    # 8-byte Folded Reload
	ld.d	$fp, $sp, 80                    # 8-byte Folded Reload
	ld.d	$ra, $sp, 88                    # 8-byte Folded Reload
	addi.d	$sp, $sp, 96
	pcaddu18i	$t8, %call36(_ZN9benchmark5State17FinishKeepRunningEv)
	jr	$t8
.Lfunc_end56:
	.size	_Z24benchForIC2VW4BigLoopTC2RN9benchmark5StateE, .Lfunc_end56-_Z24benchForIC2VW4BigLoopTC2RN9benchmark5StateE
	.cfi_endproc
                                        # -- End function
	.globl	_Z24benchForIC4VW4BigLoopTC2RN9benchmark5StateE # -- Begin function _Z24benchForIC4VW4BigLoopTC2RN9benchmark5StateE
	.p2align	5
	.type	_Z24benchForIC4VW4BigLoopTC2RN9benchmark5StateE,@function
_Z24benchForIC4VW4BigLoopTC2RN9benchmark5StateE: # @_Z24benchForIC4VW4BigLoopTC2RN9benchmark5StateE
	.cfi_startproc
# %bb.0:                                # %entry
	addi.d	$sp, $sp, -96
	.cfi_def_cfa_offset 96
	st.d	$ra, $sp, 88                    # 8-byte Folded Spill
	st.d	$fp, $sp, 80                    # 8-byte Folded Spill
	st.d	$s0, $sp, 72                    # 8-byte Folded Spill
	st.d	$s1, $sp, 64                    # 8-byte Folded Spill
	st.d	$s2, $sp, 56                    # 8-byte Folded Spill
	st.d	$s3, $sp, 48                    # 8-byte Folded Spill
	st.d	$s4, $sp, 40                    # 8-byte Folded Spill
	st.d	$s5, $sp, 32                    # 8-byte Folded Spill
	st.d	$s6, $sp, 24                    # 8-byte Folded Spill
	st.d	$s7, $sp, 16                    # 8-byte Folded Spill
	.cfi_offset 1, -8
	.cfi_offset 22, -16
	.cfi_offset 23, -24
	.cfi_offset 24, -32
	.cfi_offset 25, -40
	.cfi_offset 26, -48
	.cfi_offset 27, -56
	.cfi_offset 28, -64
	.cfi_offset 29, -72
	.cfi_offset 30, -80
	move	$fp, $a0
	pcaddu18i	$ra, %call36(_ZL9init_dataj)
	jirl	$ra, $ra, 0
	ld.w	$s1, $fp, 28
	ld.d	$s0, $fp, 16
	move	$a0, $fp
	pcaddu18i	$ra, %call36(_ZN9benchmark5State16StartKeepRunningEv)
	jirl	$ra, $ra, 0
	bnez	$s1, .LBB57_4
# %bb.1:                                # %entry
	beqz	$s0, .LBB57_4
# %bb.2:                                # %for.body.i.preheader
	pcalau12i	$s1, %pc_hi20(A)
	pcalau12i	$s2, %pc_hi20(B)
	pcalau12i	$s3, %pc_hi20(C)
	pcalau12i	$s4, %pc_hi20(D)
	pcalau12i	$s5, %pc_hi20(E)
	pcalau12i	$s6, %pc_hi20(F)
	pcalau12i	$s7, %pc_hi20(g_sum)
	.p2align	4, , 16
.LBB57_3:                               # %for.body.i
                                        # =>This Inner Loop Header: Depth=1
	#APP
	#NO_APP
	#APP
	#NO_APP
	#APP
	#NO_APP
	#APP
	#NO_APP
	#APP
	#NO_APP
	#APP
	#NO_APP
	#MEMBARRIER
	ori	$a0, $zero, 2
	pcaddu18i	$ra, %call36(_ZL17bigLoopWithVW4IC4i)
	jirl	$ra, $ra, 0
	ld.w	$a1, $s7, %pc_lo12(g_sum)
	add.d	$a0, $a1, $a0
	addi.d	$s0, $s0, -1
	st.w	$a0, $s7, %pc_lo12(g_sum)
	bnez	$s0, .LBB57_3
.LBB57_4:                               # %_ZL27runBenchForLoopInterleavingRN9benchmark5StateEPFiiEi.exit
	move	$a0, $fp
	ld.d	$s7, $sp, 16                    # 8-byte Folded Reload
	ld.d	$s6, $sp, 24                    # 8-byte Folded Reload
	ld.d	$s5, $sp, 32                    # 8-byte Folded Reload
	ld.d	$s4, $sp, 40                    # 8-byte Folded Reload
	ld.d	$s3, $sp, 48                    # 8-byte Folded Reload
	ld.d	$s2, $sp, 56                    # 8-byte Folded Reload
	ld.d	$s1, $sp, 64                    # 8-byte Folded Reload
	ld.d	$s0, $sp, 72                    # 8-byte Folded Reload
	ld.d	$fp, $sp, 80                    # 8-byte Folded Reload
	ld.d	$ra, $sp, 88                    # 8-byte Folded Reload
	addi.d	$sp, $sp, 96
	pcaddu18i	$t8, %call36(_ZN9benchmark5State17FinishKeepRunningEv)
	jr	$t8
.Lfunc_end57:
	.size	_Z24benchForIC4VW4BigLoopTC2RN9benchmark5StateE, .Lfunc_end57-_Z24benchForIC4VW4BigLoopTC2RN9benchmark5StateE
	.cfi_endproc
                                        # -- End function
	.globl	_Z38benchForBigLoopWithReductionAutoVecTC2RN9benchmark5StateE # -- Begin function _Z38benchForBigLoopWithReductionAutoVecTC2RN9benchmark5StateE
	.p2align	5
	.type	_Z38benchForBigLoopWithReductionAutoVecTC2RN9benchmark5StateE,@function
_Z38benchForBigLoopWithReductionAutoVecTC2RN9benchmark5StateE: # @_Z38benchForBigLoopWithReductionAutoVecTC2RN9benchmark5StateE
	.cfi_startproc
# %bb.0:                                # %entry
	addi.d	$sp, $sp, -96
	.cfi_def_cfa_offset 96
	st.d	$ra, $sp, 88                    # 8-byte Folded Spill
	st.d	$fp, $sp, 80                    # 8-byte Folded Spill
	st.d	$s0, $sp, 72                    # 8-byte Folded Spill
	st.d	$s1, $sp, 64                    # 8-byte Folded Spill
	st.d	$s2, $sp, 56                    # 8-byte Folded Spill
	st.d	$s3, $sp, 48                    # 8-byte Folded Spill
	st.d	$s4, $sp, 40                    # 8-byte Folded Spill
	st.d	$s5, $sp, 32                    # 8-byte Folded Spill
	st.d	$s6, $sp, 24                    # 8-byte Folded Spill
	st.d	$s7, $sp, 16                    # 8-byte Folded Spill
	.cfi_offset 1, -8
	.cfi_offset 22, -16
	.cfi_offset 23, -24
	.cfi_offset 24, -32
	.cfi_offset 25, -40
	.cfi_offset 26, -48
	.cfi_offset 27, -56
	.cfi_offset 28, -64
	.cfi_offset 29, -72
	.cfi_offset 30, -80
	move	$fp, $a0
	pcaddu18i	$ra, %call36(_ZL9init_dataj)
	jirl	$ra, $ra, 0
	ld.w	$s1, $fp, 28
	ld.d	$s0, $fp, 16
	move	$a0, $fp
	pcaddu18i	$ra, %call36(_ZN9benchmark5State16StartKeepRunningEv)
	jirl	$ra, $ra, 0
	bnez	$s1, .LBB58_4
# %bb.1:                                # %entry
	beqz	$s0, .LBB58_4
# %bb.2:                                # %for.body.i.preheader
	pcalau12i	$s1, %pc_hi20(A)
	pcalau12i	$s2, %pc_hi20(B)
	pcalau12i	$s3, %pc_hi20(C)
	pcalau12i	$s4, %pc_hi20(D)
	pcalau12i	$s5, %pc_hi20(E)
	pcalau12i	$s6, %pc_hi20(F)
	pcalau12i	$s7, %pc_hi20(g_sum)
	.p2align	4, , 16
.LBB58_3:                               # %for.body.i
                                        # =>This Inner Loop Header: Depth=1
	#APP
	#NO_APP
	#APP
	#NO_APP
	#APP
	#NO_APP
	#APP
	#NO_APP
	#APP
	#NO_APP
	#APP
	#NO_APP
	#MEMBARRIER
	ori	$a0, $zero, 2
	pcaddu18i	$ra, %call36(_ZL27bigLoopWithReductionAutoVeci)
	jirl	$ra, $ra, 0
	ld.w	$a1, $s7, %pc_lo12(g_sum)
	add.d	$a0, $a1, $a0
	addi.d	$s0, $s0, -1
	st.w	$a0, $s7, %pc_lo12(g_sum)
	bnez	$s0, .LBB58_3
.LBB58_4:                               # %_ZL27runBenchForLoopInterleavingRN9benchmark5StateEPFiiEi.exit
	move	$a0, $fp
	ld.d	$s7, $sp, 16                    # 8-byte Folded Reload
	ld.d	$s6, $sp, 24                    # 8-byte Folded Reload
	ld.d	$s5, $sp, 32                    # 8-byte Folded Reload
	ld.d	$s4, $sp, 40                    # 8-byte Folded Reload
	ld.d	$s3, $sp, 48                    # 8-byte Folded Reload
	ld.d	$s2, $sp, 56                    # 8-byte Folded Reload
	ld.d	$s1, $sp, 64                    # 8-byte Folded Reload
	ld.d	$s0, $sp, 72                    # 8-byte Folded Reload
	ld.d	$fp, $sp, 80                    # 8-byte Folded Reload
	ld.d	$ra, $sp, 88                    # 8-byte Folded Reload
	addi.d	$sp, $sp, 96
	pcaddu18i	$t8, %call36(_ZN9benchmark5State17FinishKeepRunningEv)
	jr	$t8
.Lfunc_end58:
	.size	_Z38benchForBigLoopWithReductionAutoVecTC2RN9benchmark5StateE, .Lfunc_end58-_Z38benchForBigLoopWithReductionAutoVecTC2RN9benchmark5StateE
	.cfi_endproc
                                        # -- End function
	.globl	_Z37benchForIC1VW4BigLoopWithReductionTC2RN9benchmark5StateE # -- Begin function _Z37benchForIC1VW4BigLoopWithReductionTC2RN9benchmark5StateE
	.p2align	5
	.type	_Z37benchForIC1VW4BigLoopWithReductionTC2RN9benchmark5StateE,@function
_Z37benchForIC1VW4BigLoopWithReductionTC2RN9benchmark5StateE: # @_Z37benchForIC1VW4BigLoopWithReductionTC2RN9benchmark5StateE
	.cfi_startproc
# %bb.0:                                # %entry
	addi.d	$sp, $sp, -96
	.cfi_def_cfa_offset 96
	st.d	$ra, $sp, 88                    # 8-byte Folded Spill
	st.d	$fp, $sp, 80                    # 8-byte Folded Spill
	st.d	$s0, $sp, 72                    # 8-byte Folded Spill
	st.d	$s1, $sp, 64                    # 8-byte Folded Spill
	st.d	$s2, $sp, 56                    # 8-byte Folded Spill
	st.d	$s3, $sp, 48                    # 8-byte Folded Spill
	st.d	$s4, $sp, 40                    # 8-byte Folded Spill
	st.d	$s5, $sp, 32                    # 8-byte Folded Spill
	st.d	$s6, $sp, 24                    # 8-byte Folded Spill
	st.d	$s7, $sp, 16                    # 8-byte Folded Spill
	.cfi_offset 1, -8
	.cfi_offset 22, -16
	.cfi_offset 23, -24
	.cfi_offset 24, -32
	.cfi_offset 25, -40
	.cfi_offset 26, -48
	.cfi_offset 27, -56
	.cfi_offset 28, -64
	.cfi_offset 29, -72
	.cfi_offset 30, -80
	move	$fp, $a0
	pcaddu18i	$ra, %call36(_ZL9init_dataj)
	jirl	$ra, $ra, 0
	ld.w	$s1, $fp, 28
	ld.d	$s0, $fp, 16
	move	$a0, $fp
	pcaddu18i	$ra, %call36(_ZN9benchmark5State16StartKeepRunningEv)
	jirl	$ra, $ra, 0
	bnez	$s1, .LBB59_4
# %bb.1:                                # %entry
	beqz	$s0, .LBB59_4
# %bb.2:                                # %for.body.i.preheader
	pcalau12i	$s1, %pc_hi20(A)
	pcalau12i	$s2, %pc_hi20(B)
	pcalau12i	$s3, %pc_hi20(C)
	pcalau12i	$s4, %pc_hi20(D)
	pcalau12i	$s5, %pc_hi20(E)
	pcalau12i	$s6, %pc_hi20(F)
	pcalau12i	$s7, %pc_hi20(g_sum)
	.p2align	4, , 16
.LBB59_3:                               # %for.body.i
                                        # =>This Inner Loop Header: Depth=1
	#APP
	#NO_APP
	#APP
	#NO_APP
	#APP
	#NO_APP
	#APP
	#NO_APP
	#APP
	#NO_APP
	#APP
	#NO_APP
	#MEMBARRIER
	ori	$a0, $zero, 2
	pcaddu18i	$ra, %call36(_ZL30bigLoopWithReductionWithVW4IC1i)
	jirl	$ra, $ra, 0
	ld.w	$a1, $s7, %pc_lo12(g_sum)
	add.d	$a0, $a1, $a0
	addi.d	$s0, $s0, -1
	st.w	$a0, $s7, %pc_lo12(g_sum)
	bnez	$s0, .LBB59_3
.LBB59_4:                               # %_ZL27runBenchForLoopInterleavingRN9benchmark5StateEPFiiEi.exit
	move	$a0, $fp
	ld.d	$s7, $sp, 16                    # 8-byte Folded Reload
	ld.d	$s6, $sp, 24                    # 8-byte Folded Reload
	ld.d	$s5, $sp, 32                    # 8-byte Folded Reload
	ld.d	$s4, $sp, 40                    # 8-byte Folded Reload
	ld.d	$s3, $sp, 48                    # 8-byte Folded Reload
	ld.d	$s2, $sp, 56                    # 8-byte Folded Reload
	ld.d	$s1, $sp, 64                    # 8-byte Folded Reload
	ld.d	$s0, $sp, 72                    # 8-byte Folded Reload
	ld.d	$fp, $sp, 80                    # 8-byte Folded Reload
	ld.d	$ra, $sp, 88                    # 8-byte Folded Reload
	addi.d	$sp, $sp, 96
	pcaddu18i	$t8, %call36(_ZN9benchmark5State17FinishKeepRunningEv)
	jr	$t8
.Lfunc_end59:
	.size	_Z37benchForIC1VW4BigLoopWithReductionTC2RN9benchmark5StateE, .Lfunc_end59-_Z37benchForIC1VW4BigLoopWithReductionTC2RN9benchmark5StateE
	.cfi_endproc
                                        # -- End function
	.globl	_Z37benchForIC2VW4BigLoopWithReductionTC2RN9benchmark5StateE # -- Begin function _Z37benchForIC2VW4BigLoopWithReductionTC2RN9benchmark5StateE
	.p2align	5
	.type	_Z37benchForIC2VW4BigLoopWithReductionTC2RN9benchmark5StateE,@function
_Z37benchForIC2VW4BigLoopWithReductionTC2RN9benchmark5StateE: # @_Z37benchForIC2VW4BigLoopWithReductionTC2RN9benchmark5StateE
	.cfi_startproc
# %bb.0:                                # %entry
	addi.d	$sp, $sp, -96
	.cfi_def_cfa_offset 96
	st.d	$ra, $sp, 88                    # 8-byte Folded Spill
	st.d	$fp, $sp, 80                    # 8-byte Folded Spill
	st.d	$s0, $sp, 72                    # 8-byte Folded Spill
	st.d	$s1, $sp, 64                    # 8-byte Folded Spill
	st.d	$s2, $sp, 56                    # 8-byte Folded Spill
	st.d	$s3, $sp, 48                    # 8-byte Folded Spill
	st.d	$s4, $sp, 40                    # 8-byte Folded Spill
	st.d	$s5, $sp, 32                    # 8-byte Folded Spill
	st.d	$s6, $sp, 24                    # 8-byte Folded Spill
	st.d	$s7, $sp, 16                    # 8-byte Folded Spill
	.cfi_offset 1, -8
	.cfi_offset 22, -16
	.cfi_offset 23, -24
	.cfi_offset 24, -32
	.cfi_offset 25, -40
	.cfi_offset 26, -48
	.cfi_offset 27, -56
	.cfi_offset 28, -64
	.cfi_offset 29, -72
	.cfi_offset 30, -80
	move	$fp, $a0
	pcaddu18i	$ra, %call36(_ZL9init_dataj)
	jirl	$ra, $ra, 0
	ld.w	$s1, $fp, 28
	ld.d	$s0, $fp, 16
	move	$a0, $fp
	pcaddu18i	$ra, %call36(_ZN9benchmark5State16StartKeepRunningEv)
	jirl	$ra, $ra, 0
	bnez	$s1, .LBB60_4
# %bb.1:                                # %entry
	beqz	$s0, .LBB60_4
# %bb.2:                                # %for.body.i.preheader
	pcalau12i	$s1, %pc_hi20(A)
	pcalau12i	$s2, %pc_hi20(B)
	pcalau12i	$s3, %pc_hi20(C)
	pcalau12i	$s4, %pc_hi20(D)
	pcalau12i	$s5, %pc_hi20(E)
	pcalau12i	$s6, %pc_hi20(F)
	pcalau12i	$s7, %pc_hi20(g_sum)
	.p2align	4, , 16
.LBB60_3:                               # %for.body.i
                                        # =>This Inner Loop Header: Depth=1
	#APP
	#NO_APP
	#APP
	#NO_APP
	#APP
	#NO_APP
	#APP
	#NO_APP
	#APP
	#NO_APP
	#APP
	#NO_APP
	#MEMBARRIER
	ori	$a0, $zero, 2
	pcaddu18i	$ra, %call36(_ZL30bigLoopWithReductionWithVW4IC2i)
	jirl	$ra, $ra, 0
	ld.w	$a1, $s7, %pc_lo12(g_sum)
	add.d	$a0, $a1, $a0
	addi.d	$s0, $s0, -1
	st.w	$a0, $s7, %pc_lo12(g_sum)
	bnez	$s0, .LBB60_3
.LBB60_4:                               # %_ZL27runBenchForLoopInterleavingRN9benchmark5StateEPFiiEi.exit
	move	$a0, $fp
	ld.d	$s7, $sp, 16                    # 8-byte Folded Reload
	ld.d	$s6, $sp, 24                    # 8-byte Folded Reload
	ld.d	$s5, $sp, 32                    # 8-byte Folded Reload
	ld.d	$s4, $sp, 40                    # 8-byte Folded Reload
	ld.d	$s3, $sp, 48                    # 8-byte Folded Reload
	ld.d	$s2, $sp, 56                    # 8-byte Folded Reload
	ld.d	$s1, $sp, 64                    # 8-byte Folded Reload
	ld.d	$s0, $sp, 72                    # 8-byte Folded Reload
	ld.d	$fp, $sp, 80                    # 8-byte Folded Reload
	ld.d	$ra, $sp, 88                    # 8-byte Folded Reload
	addi.d	$sp, $sp, 96
	pcaddu18i	$t8, %call36(_ZN9benchmark5State17FinishKeepRunningEv)
	jr	$t8
.Lfunc_end60:
	.size	_Z37benchForIC2VW4BigLoopWithReductionTC2RN9benchmark5StateE, .Lfunc_end60-_Z37benchForIC2VW4BigLoopWithReductionTC2RN9benchmark5StateE
	.cfi_endproc
                                        # -- End function
	.globl	_Z37benchForIC4VW4BigLoopWithReductionTC2RN9benchmark5StateE # -- Begin function _Z37benchForIC4VW4BigLoopWithReductionTC2RN9benchmark5StateE
	.p2align	5
	.type	_Z37benchForIC4VW4BigLoopWithReductionTC2RN9benchmark5StateE,@function
_Z37benchForIC4VW4BigLoopWithReductionTC2RN9benchmark5StateE: # @_Z37benchForIC4VW4BigLoopWithReductionTC2RN9benchmark5StateE
	.cfi_startproc
# %bb.0:                                # %entry
	addi.d	$sp, $sp, -96
	.cfi_def_cfa_offset 96
	st.d	$ra, $sp, 88                    # 8-byte Folded Spill
	st.d	$fp, $sp, 80                    # 8-byte Folded Spill
	st.d	$s0, $sp, 72                    # 8-byte Folded Spill
	st.d	$s1, $sp, 64                    # 8-byte Folded Spill
	st.d	$s2, $sp, 56                    # 8-byte Folded Spill
	st.d	$s3, $sp, 48                    # 8-byte Folded Spill
	st.d	$s4, $sp, 40                    # 8-byte Folded Spill
	st.d	$s5, $sp, 32                    # 8-byte Folded Spill
	st.d	$s6, $sp, 24                    # 8-byte Folded Spill
	st.d	$s7, $sp, 16                    # 8-byte Folded Spill
	.cfi_offset 1, -8
	.cfi_offset 22, -16
	.cfi_offset 23, -24
	.cfi_offset 24, -32
	.cfi_offset 25, -40
	.cfi_offset 26, -48
	.cfi_offset 27, -56
	.cfi_offset 28, -64
	.cfi_offset 29, -72
	.cfi_offset 30, -80
	move	$fp, $a0
	pcaddu18i	$ra, %call36(_ZL9init_dataj)
	jirl	$ra, $ra, 0
	ld.w	$s1, $fp, 28
	ld.d	$s0, $fp, 16
	move	$a0, $fp
	pcaddu18i	$ra, %call36(_ZN9benchmark5State16StartKeepRunningEv)
	jirl	$ra, $ra, 0
	bnez	$s1, .LBB61_4
# %bb.1:                                # %entry
	beqz	$s0, .LBB61_4
# %bb.2:                                # %for.body.i.preheader
	pcalau12i	$s1, %pc_hi20(A)
	pcalau12i	$s2, %pc_hi20(B)
	pcalau12i	$s3, %pc_hi20(C)
	pcalau12i	$s4, %pc_hi20(D)
	pcalau12i	$s5, %pc_hi20(E)
	pcalau12i	$s6, %pc_hi20(F)
	pcalau12i	$s7, %pc_hi20(g_sum)
	.p2align	4, , 16
.LBB61_3:                               # %for.body.i
                                        # =>This Inner Loop Header: Depth=1
	#APP
	#NO_APP
	#APP
	#NO_APP
	#APP
	#NO_APP
	#APP
	#NO_APP
	#APP
	#NO_APP
	#APP
	#NO_APP
	#MEMBARRIER
	ori	$a0, $zero, 2
	pcaddu18i	$ra, %call36(_ZL30bigLoopWithReductionWithVW4IC4i)
	jirl	$ra, $ra, 0
	ld.w	$a1, $s7, %pc_lo12(g_sum)
	add.d	$a0, $a1, $a0
	addi.d	$s0, $s0, -1
	st.w	$a0, $s7, %pc_lo12(g_sum)
	bnez	$s0, .LBB61_3
.LBB61_4:                               # %_ZL27runBenchForLoopInterleavingRN9benchmark5StateEPFiiEi.exit
	move	$a0, $fp
	ld.d	$s7, $sp, 16                    # 8-byte Folded Reload
	ld.d	$s6, $sp, 24                    # 8-byte Folded Reload
	ld.d	$s5, $sp, 32                    # 8-byte Folded Reload
	ld.d	$s4, $sp, 40                    # 8-byte Folded Reload
	ld.d	$s3, $sp, 48                    # 8-byte Folded Reload
	ld.d	$s2, $sp, 56                    # 8-byte Folded Reload
	ld.d	$s1, $sp, 64                    # 8-byte Folded Reload
	ld.d	$s0, $sp, 72                    # 8-byte Folded Reload
	ld.d	$fp, $sp, 80                    # 8-byte Folded Reload
	ld.d	$ra, $sp, 88                    # 8-byte Folded Reload
	addi.d	$sp, $sp, 96
	pcaddu18i	$t8, %call36(_ZN9benchmark5State17FinishKeepRunningEv)
	jr	$t8
.Lfunc_end61:
	.size	_Z37benchForIC4VW4BigLoopWithReductionTC2RN9benchmark5StateE, .Lfunc_end61-_Z37benchForIC4VW4BigLoopWithReductionTC2RN9benchmark5StateE
	.cfi_endproc
                                        # -- End function
	.globl	_Z37benchForIC1VW1BigLoopWithReductionTC2RN9benchmark5StateE # -- Begin function _Z37benchForIC1VW1BigLoopWithReductionTC2RN9benchmark5StateE
	.p2align	5
	.type	_Z37benchForIC1VW1BigLoopWithReductionTC2RN9benchmark5StateE,@function
_Z37benchForIC1VW1BigLoopWithReductionTC2RN9benchmark5StateE: # @_Z37benchForIC1VW1BigLoopWithReductionTC2RN9benchmark5StateE
	.cfi_startproc
# %bb.0:                                # %entry
	addi.d	$sp, $sp, -96
	.cfi_def_cfa_offset 96
	st.d	$ra, $sp, 88                    # 8-byte Folded Spill
	st.d	$fp, $sp, 80                    # 8-byte Folded Spill
	st.d	$s0, $sp, 72                    # 8-byte Folded Spill
	st.d	$s1, $sp, 64                    # 8-byte Folded Spill
	st.d	$s2, $sp, 56                    # 8-byte Folded Spill
	st.d	$s3, $sp, 48                    # 8-byte Folded Spill
	st.d	$s4, $sp, 40                    # 8-byte Folded Spill
	st.d	$s5, $sp, 32                    # 8-byte Folded Spill
	st.d	$s6, $sp, 24                    # 8-byte Folded Spill
	st.d	$s7, $sp, 16                    # 8-byte Folded Spill
	.cfi_offset 1, -8
	.cfi_offset 22, -16
	.cfi_offset 23, -24
	.cfi_offset 24, -32
	.cfi_offset 25, -40
	.cfi_offset 26, -48
	.cfi_offset 27, -56
	.cfi_offset 28, -64
	.cfi_offset 29, -72
	.cfi_offset 30, -80
	move	$fp, $a0
	pcaddu18i	$ra, %call36(_ZL9init_dataj)
	jirl	$ra, $ra, 0
	ld.w	$s1, $fp, 28
	ld.d	$s0, $fp, 16
	move	$a0, $fp
	pcaddu18i	$ra, %call36(_ZN9benchmark5State16StartKeepRunningEv)
	jirl	$ra, $ra, 0
	bnez	$s1, .LBB62_4
# %bb.1:                                # %entry
	beqz	$s0, .LBB62_4
# %bb.2:                                # %for.body.i.preheader
	pcalau12i	$s1, %pc_hi20(A)
	pcalau12i	$s2, %pc_hi20(B)
	pcalau12i	$s3, %pc_hi20(C)
	pcalau12i	$s4, %pc_hi20(D)
	pcalau12i	$s5, %pc_hi20(E)
	pcalau12i	$s6, %pc_hi20(F)
	pcalau12i	$s7, %pc_hi20(g_sum)
	.p2align	4, , 16
.LBB62_3:                               # %for.body.i
                                        # =>This Inner Loop Header: Depth=1
	#APP
	#NO_APP
	#APP
	#NO_APP
	#APP
	#NO_APP
	#APP
	#NO_APP
	#APP
	#NO_APP
	#APP
	#NO_APP
	#MEMBARRIER
	ori	$a0, $zero, 2
	pcaddu18i	$ra, %call36(_ZL30bigLoopWithReductionWithVW1IC1i)
	jirl	$ra, $ra, 0
	ld.w	$a1, $s7, %pc_lo12(g_sum)
	add.d	$a0, $a1, $a0
	addi.d	$s0, $s0, -1
	st.w	$a0, $s7, %pc_lo12(g_sum)
	bnez	$s0, .LBB62_3
.LBB62_4:                               # %_ZL27runBenchForLoopInterleavingRN9benchmark5StateEPFiiEi.exit
	move	$a0, $fp
	ld.d	$s7, $sp, 16                    # 8-byte Folded Reload
	ld.d	$s6, $sp, 24                    # 8-byte Folded Reload
	ld.d	$s5, $sp, 32                    # 8-byte Folded Reload
	ld.d	$s4, $sp, 40                    # 8-byte Folded Reload
	ld.d	$s3, $sp, 48                    # 8-byte Folded Reload
	ld.d	$s2, $sp, 56                    # 8-byte Folded Reload
	ld.d	$s1, $sp, 64                    # 8-byte Folded Reload
	ld.d	$s0, $sp, 72                    # 8-byte Folded Reload
	ld.d	$fp, $sp, 80                    # 8-byte Folded Reload
	ld.d	$ra, $sp, 88                    # 8-byte Folded Reload
	addi.d	$sp, $sp, 96
	pcaddu18i	$t8, %call36(_ZN9benchmark5State17FinishKeepRunningEv)
	jr	$t8
.Lfunc_end62:
	.size	_Z37benchForIC1VW1BigLoopWithReductionTC2RN9benchmark5StateE, .Lfunc_end62-_Z37benchForIC1VW1BigLoopWithReductionTC2RN9benchmark5StateE
	.cfi_endproc
                                        # -- End function
	.globl	_Z37benchForIC2VW1BigLoopWithReductionTC2RN9benchmark5StateE # -- Begin function _Z37benchForIC2VW1BigLoopWithReductionTC2RN9benchmark5StateE
	.p2align	5
	.type	_Z37benchForIC2VW1BigLoopWithReductionTC2RN9benchmark5StateE,@function
_Z37benchForIC2VW1BigLoopWithReductionTC2RN9benchmark5StateE: # @_Z37benchForIC2VW1BigLoopWithReductionTC2RN9benchmark5StateE
	.cfi_startproc
# %bb.0:                                # %entry
	addi.d	$sp, $sp, -96
	.cfi_def_cfa_offset 96
	st.d	$ra, $sp, 88                    # 8-byte Folded Spill
	st.d	$fp, $sp, 80                    # 8-byte Folded Spill
	st.d	$s0, $sp, 72                    # 8-byte Folded Spill
	st.d	$s1, $sp, 64                    # 8-byte Folded Spill
	st.d	$s2, $sp, 56                    # 8-byte Folded Spill
	st.d	$s3, $sp, 48                    # 8-byte Folded Spill
	st.d	$s4, $sp, 40                    # 8-byte Folded Spill
	st.d	$s5, $sp, 32                    # 8-byte Folded Spill
	st.d	$s6, $sp, 24                    # 8-byte Folded Spill
	st.d	$s7, $sp, 16                    # 8-byte Folded Spill
	.cfi_offset 1, -8
	.cfi_offset 22, -16
	.cfi_offset 23, -24
	.cfi_offset 24, -32
	.cfi_offset 25, -40
	.cfi_offset 26, -48
	.cfi_offset 27, -56
	.cfi_offset 28, -64
	.cfi_offset 29, -72
	.cfi_offset 30, -80
	move	$fp, $a0
	pcaddu18i	$ra, %call36(_ZL9init_dataj)
	jirl	$ra, $ra, 0
	ld.w	$s1, $fp, 28
	ld.d	$s0, $fp, 16
	move	$a0, $fp
	pcaddu18i	$ra, %call36(_ZN9benchmark5State16StartKeepRunningEv)
	jirl	$ra, $ra, 0
	bnez	$s1, .LBB63_4
# %bb.1:                                # %entry
	beqz	$s0, .LBB63_4
# %bb.2:                                # %for.body.i.preheader
	pcalau12i	$s1, %pc_hi20(A)
	pcalau12i	$s2, %pc_hi20(B)
	pcalau12i	$s3, %pc_hi20(C)
	pcalau12i	$s4, %pc_hi20(D)
	pcalau12i	$s5, %pc_hi20(E)
	pcalau12i	$s6, %pc_hi20(F)
	pcalau12i	$s7, %pc_hi20(g_sum)
	.p2align	4, , 16
.LBB63_3:                               # %for.body.i
                                        # =>This Inner Loop Header: Depth=1
	#APP
	#NO_APP
	#APP
	#NO_APP
	#APP
	#NO_APP
	#APP
	#NO_APP
	#APP
	#NO_APP
	#APP
	#NO_APP
	#MEMBARRIER
	ori	$a0, $zero, 2
	pcaddu18i	$ra, %call36(_ZL30bigLoopWithReductionWithVW1IC2i)
	jirl	$ra, $ra, 0
	ld.w	$a1, $s7, %pc_lo12(g_sum)
	add.d	$a0, $a1, $a0
	addi.d	$s0, $s0, -1
	st.w	$a0, $s7, %pc_lo12(g_sum)
	bnez	$s0, .LBB63_3
.LBB63_4:                               # %_ZL27runBenchForLoopInterleavingRN9benchmark5StateEPFiiEi.exit
	move	$a0, $fp
	ld.d	$s7, $sp, 16                    # 8-byte Folded Reload
	ld.d	$s6, $sp, 24                    # 8-byte Folded Reload
	ld.d	$s5, $sp, 32                    # 8-byte Folded Reload
	ld.d	$s4, $sp, 40                    # 8-byte Folded Reload
	ld.d	$s3, $sp, 48                    # 8-byte Folded Reload
	ld.d	$s2, $sp, 56                    # 8-byte Folded Reload
	ld.d	$s1, $sp, 64                    # 8-byte Folded Reload
	ld.d	$s0, $sp, 72                    # 8-byte Folded Reload
	ld.d	$fp, $sp, 80                    # 8-byte Folded Reload
	ld.d	$ra, $sp, 88                    # 8-byte Folded Reload
	addi.d	$sp, $sp, 96
	pcaddu18i	$t8, %call36(_ZN9benchmark5State17FinishKeepRunningEv)
	jr	$t8
.Lfunc_end63:
	.size	_Z37benchForIC2VW1BigLoopWithReductionTC2RN9benchmark5StateE, .Lfunc_end63-_Z37benchForIC2VW1BigLoopWithReductionTC2RN9benchmark5StateE
	.cfi_endproc
                                        # -- End function
	.globl	_Z37benchForIC4VW1BigLoopWithReductionTC2RN9benchmark5StateE # -- Begin function _Z37benchForIC4VW1BigLoopWithReductionTC2RN9benchmark5StateE
	.p2align	5
	.type	_Z37benchForIC4VW1BigLoopWithReductionTC2RN9benchmark5StateE,@function
_Z37benchForIC4VW1BigLoopWithReductionTC2RN9benchmark5StateE: # @_Z37benchForIC4VW1BigLoopWithReductionTC2RN9benchmark5StateE
	.cfi_startproc
# %bb.0:                                # %entry
	addi.d	$sp, $sp, -96
	.cfi_def_cfa_offset 96
	st.d	$ra, $sp, 88                    # 8-byte Folded Spill
	st.d	$fp, $sp, 80                    # 8-byte Folded Spill
	st.d	$s0, $sp, 72                    # 8-byte Folded Spill
	st.d	$s1, $sp, 64                    # 8-byte Folded Spill
	st.d	$s2, $sp, 56                    # 8-byte Folded Spill
	st.d	$s3, $sp, 48                    # 8-byte Folded Spill
	st.d	$s4, $sp, 40                    # 8-byte Folded Spill
	st.d	$s5, $sp, 32                    # 8-byte Folded Spill
	st.d	$s6, $sp, 24                    # 8-byte Folded Spill
	st.d	$s7, $sp, 16                    # 8-byte Folded Spill
	.cfi_offset 1, -8
	.cfi_offset 22, -16
	.cfi_offset 23, -24
	.cfi_offset 24, -32
	.cfi_offset 25, -40
	.cfi_offset 26, -48
	.cfi_offset 27, -56
	.cfi_offset 28, -64
	.cfi_offset 29, -72
	.cfi_offset 30, -80
	move	$fp, $a0
	pcaddu18i	$ra, %call36(_ZL9init_dataj)
	jirl	$ra, $ra, 0
	ld.w	$s1, $fp, 28
	ld.d	$s0, $fp, 16
	move	$a0, $fp
	pcaddu18i	$ra, %call36(_ZN9benchmark5State16StartKeepRunningEv)
	jirl	$ra, $ra, 0
	bnez	$s1, .LBB64_4
# %bb.1:                                # %entry
	beqz	$s0, .LBB64_4
# %bb.2:                                # %for.body.i.preheader
	pcalau12i	$s1, %pc_hi20(A)
	pcalau12i	$s2, %pc_hi20(B)
	pcalau12i	$s3, %pc_hi20(C)
	pcalau12i	$s4, %pc_hi20(D)
	pcalau12i	$s5, %pc_hi20(E)
	pcalau12i	$s6, %pc_hi20(F)
	pcalau12i	$s7, %pc_hi20(g_sum)
	.p2align	4, , 16
.LBB64_3:                               # %for.body.i
                                        # =>This Inner Loop Header: Depth=1
	#APP
	#NO_APP
	#APP
	#NO_APP
	#APP
	#NO_APP
	#APP
	#NO_APP
	#APP
	#NO_APP
	#APP
	#NO_APP
	#MEMBARRIER
	ori	$a0, $zero, 2
	pcaddu18i	$ra, %call36(_ZL30bigLoopWithReductionWithVW1IC4i)
	jirl	$ra, $ra, 0
	ld.w	$a1, $s7, %pc_lo12(g_sum)
	add.d	$a0, $a1, $a0
	addi.d	$s0, $s0, -1
	st.w	$a0, $s7, %pc_lo12(g_sum)
	bnez	$s0, .LBB64_3
.LBB64_4:                               # %_ZL27runBenchForLoopInterleavingRN9benchmark5StateEPFiiEi.exit
	move	$a0, $fp
	ld.d	$s7, $sp, 16                    # 8-byte Folded Reload
	ld.d	$s6, $sp, 24                    # 8-byte Folded Reload
	ld.d	$s5, $sp, 32                    # 8-byte Folded Reload
	ld.d	$s4, $sp, 40                    # 8-byte Folded Reload
	ld.d	$s3, $sp, 48                    # 8-byte Folded Reload
	ld.d	$s2, $sp, 56                    # 8-byte Folded Reload
	ld.d	$s1, $sp, 64                    # 8-byte Folded Reload
	ld.d	$s0, $sp, 72                    # 8-byte Folded Reload
	ld.d	$fp, $sp, 80                    # 8-byte Folded Reload
	ld.d	$ra, $sp, 88                    # 8-byte Folded Reload
	addi.d	$sp, $sp, 96
	pcaddu18i	$t8, %call36(_ZN9benchmark5State17FinishKeepRunningEv)
	jr	$t8
.Lfunc_end64:
	.size	_Z37benchForIC4VW1BigLoopWithReductionTC2RN9benchmark5StateE, .Lfunc_end64-_Z37benchForIC4VW1BigLoopWithReductionTC2RN9benchmark5StateE
	.cfi_endproc
                                        # -- End function
	.globl	_Z22benchAutoVecForLoopTC3RN9benchmark5StateE # -- Begin function _Z22benchAutoVecForLoopTC3RN9benchmark5StateE
	.p2align	5
	.type	_Z22benchAutoVecForLoopTC3RN9benchmark5StateE,@function
_Z22benchAutoVecForLoopTC3RN9benchmark5StateE: # @_Z22benchAutoVecForLoopTC3RN9benchmark5StateE
	.cfi_startproc
# %bb.0:                                # %entry
	addi.d	$sp, $sp, -96
	.cfi_def_cfa_offset 96
	st.d	$ra, $sp, 88                    # 8-byte Folded Spill
	st.d	$fp, $sp, 80                    # 8-byte Folded Spill
	st.d	$s0, $sp, 72                    # 8-byte Folded Spill
	st.d	$s1, $sp, 64                    # 8-byte Folded Spill
	st.d	$s2, $sp, 56                    # 8-byte Folded Spill
	st.d	$s3, $sp, 48                    # 8-byte Folded Spill
	st.d	$s4, $sp, 40                    # 8-byte Folded Spill
	st.d	$s5, $sp, 32                    # 8-byte Folded Spill
	st.d	$s6, $sp, 24                    # 8-byte Folded Spill
	st.d	$s7, $sp, 16                    # 8-byte Folded Spill
	.cfi_offset 1, -8
	.cfi_offset 22, -16
	.cfi_offset 23, -24
	.cfi_offset 24, -32
	.cfi_offset 25, -40
	.cfi_offset 26, -48
	.cfi_offset 27, -56
	.cfi_offset 28, -64
	.cfi_offset 29, -72
	.cfi_offset 30, -80
	move	$fp, $a0
	pcaddu18i	$ra, %call36(_ZL9init_dataj)
	jirl	$ra, $ra, 0
	ld.w	$s1, $fp, 28
	ld.d	$s0, $fp, 16
	move	$a0, $fp
	pcaddu18i	$ra, %call36(_ZN9benchmark5State16StartKeepRunningEv)
	jirl	$ra, $ra, 0
	bnez	$s1, .LBB65_4
# %bb.1:                                # %entry
	beqz	$s0, .LBB65_4
# %bb.2:                                # %for.body.i.preheader
	pcalau12i	$s1, %pc_hi20(A)
	pcalau12i	$s2, %pc_hi20(B)
	pcalau12i	$s3, %pc_hi20(C)
	pcalau12i	$s4, %pc_hi20(D)
	pcalau12i	$s5, %pc_hi20(E)
	pcalau12i	$s6, %pc_hi20(F)
	pcalau12i	$s7, %pc_hi20(g_sum)
	.p2align	4, , 16
.LBB65_3:                               # %for.body.i
                                        # =>This Inner Loop Header: Depth=1
	#APP
	#NO_APP
	#APP
	#NO_APP
	#APP
	#NO_APP
	#APP
	#NO_APP
	#APP
	#NO_APP
	#APP
	#NO_APP
	#MEMBARRIER
	ori	$a0, $zero, 3
	pcaddu18i	$ra, %call36(_ZL22loopNoReductionAutoVeci)
	jirl	$ra, $ra, 0
	ld.w	$a1, $s7, %pc_lo12(g_sum)
	add.d	$a0, $a1, $a0
	addi.d	$s0, $s0, -1
	st.w	$a0, $s7, %pc_lo12(g_sum)
	bnez	$s0, .LBB65_3
.LBB65_4:                               # %_ZL27runBenchForLoopInterleavingRN9benchmark5StateEPFiiEi.exit
	move	$a0, $fp
	ld.d	$s7, $sp, 16                    # 8-byte Folded Reload
	ld.d	$s6, $sp, 24                    # 8-byte Folded Reload
	ld.d	$s5, $sp, 32                    # 8-byte Folded Reload
	ld.d	$s4, $sp, 40                    # 8-byte Folded Reload
	ld.d	$s3, $sp, 48                    # 8-byte Folded Reload
	ld.d	$s2, $sp, 56                    # 8-byte Folded Reload
	ld.d	$s1, $sp, 64                    # 8-byte Folded Reload
	ld.d	$s0, $sp, 72                    # 8-byte Folded Reload
	ld.d	$fp, $sp, 80                    # 8-byte Folded Reload
	ld.d	$ra, $sp, 88                    # 8-byte Folded Reload
	addi.d	$sp, $sp, 96
	pcaddu18i	$t8, %call36(_ZN9benchmark5State17FinishKeepRunningEv)
	jr	$t8
.Lfunc_end65:
	.size	_Z22benchAutoVecForLoopTC3RN9benchmark5StateE, .Lfunc_end65-_Z22benchAutoVecForLoopTC3RN9benchmark5StateE
	.cfi_endproc
                                        # -- End function
	.globl	_Z21benchForIC1VW4LoopTC3RN9benchmark5StateE # -- Begin function _Z21benchForIC1VW4LoopTC3RN9benchmark5StateE
	.p2align	5
	.type	_Z21benchForIC1VW4LoopTC3RN9benchmark5StateE,@function
_Z21benchForIC1VW4LoopTC3RN9benchmark5StateE: # @_Z21benchForIC1VW4LoopTC3RN9benchmark5StateE
	.cfi_startproc
# %bb.0:                                # %entry
	addi.d	$sp, $sp, -96
	.cfi_def_cfa_offset 96
	st.d	$ra, $sp, 88                    # 8-byte Folded Spill
	st.d	$fp, $sp, 80                    # 8-byte Folded Spill
	st.d	$s0, $sp, 72                    # 8-byte Folded Spill
	st.d	$s1, $sp, 64                    # 8-byte Folded Spill
	st.d	$s2, $sp, 56                    # 8-byte Folded Spill
	st.d	$s3, $sp, 48                    # 8-byte Folded Spill
	st.d	$s4, $sp, 40                    # 8-byte Folded Spill
	st.d	$s5, $sp, 32                    # 8-byte Folded Spill
	st.d	$s6, $sp, 24                    # 8-byte Folded Spill
	st.d	$s7, $sp, 16                    # 8-byte Folded Spill
	.cfi_offset 1, -8
	.cfi_offset 22, -16
	.cfi_offset 23, -24
	.cfi_offset 24, -32
	.cfi_offset 25, -40
	.cfi_offset 26, -48
	.cfi_offset 27, -56
	.cfi_offset 28, -64
	.cfi_offset 29, -72
	.cfi_offset 30, -80
	move	$fp, $a0
	pcaddu18i	$ra, %call36(_ZL9init_dataj)
	jirl	$ra, $ra, 0
	ld.w	$s1, $fp, 28
	ld.d	$s0, $fp, 16
	move	$a0, $fp
	pcaddu18i	$ra, %call36(_ZN9benchmark5State16StartKeepRunningEv)
	jirl	$ra, $ra, 0
	bnez	$s1, .LBB66_4
# %bb.1:                                # %entry
	beqz	$s0, .LBB66_4
# %bb.2:                                # %for.body.i.preheader
	pcalau12i	$s1, %pc_hi20(A)
	pcalau12i	$s2, %pc_hi20(B)
	pcalau12i	$s3, %pc_hi20(C)
	pcalau12i	$s4, %pc_hi20(D)
	pcalau12i	$s5, %pc_hi20(E)
	pcalau12i	$s6, %pc_hi20(F)
	pcalau12i	$s7, %pc_hi20(g_sum)
	.p2align	4, , 16
.LBB66_3:                               # %for.body.i
                                        # =>This Inner Loop Header: Depth=1
	#APP
	#NO_APP
	#APP
	#NO_APP
	#APP
	#NO_APP
	#APP
	#NO_APP
	#APP
	#NO_APP
	#APP
	#NO_APP
	#MEMBARRIER
	ori	$a0, $zero, 3
	pcaddu18i	$ra, %call36(_ZL14loopWithVW4IC1i)
	jirl	$ra, $ra, 0
	ld.w	$a1, $s7, %pc_lo12(g_sum)
	add.d	$a0, $a1, $a0
	addi.d	$s0, $s0, -1
	st.w	$a0, $s7, %pc_lo12(g_sum)
	bnez	$s0, .LBB66_3
.LBB66_4:                               # %_ZL27runBenchForLoopInterleavingRN9benchmark5StateEPFiiEi.exit
	move	$a0, $fp
	ld.d	$s7, $sp, 16                    # 8-byte Folded Reload
	ld.d	$s6, $sp, 24                    # 8-byte Folded Reload
	ld.d	$s5, $sp, 32                    # 8-byte Folded Reload
	ld.d	$s4, $sp, 40                    # 8-byte Folded Reload
	ld.d	$s3, $sp, 48                    # 8-byte Folded Reload
	ld.d	$s2, $sp, 56                    # 8-byte Folded Reload
	ld.d	$s1, $sp, 64                    # 8-byte Folded Reload
	ld.d	$s0, $sp, 72                    # 8-byte Folded Reload
	ld.d	$fp, $sp, 80                    # 8-byte Folded Reload
	ld.d	$ra, $sp, 88                    # 8-byte Folded Reload
	addi.d	$sp, $sp, 96
	pcaddu18i	$t8, %call36(_ZN9benchmark5State17FinishKeepRunningEv)
	jr	$t8
.Lfunc_end66:
	.size	_Z21benchForIC1VW4LoopTC3RN9benchmark5StateE, .Lfunc_end66-_Z21benchForIC1VW4LoopTC3RN9benchmark5StateE
	.cfi_endproc
                                        # -- End function
	.globl	_Z21benchForIC2VW4LoopTC3RN9benchmark5StateE # -- Begin function _Z21benchForIC2VW4LoopTC3RN9benchmark5StateE
	.p2align	5
	.type	_Z21benchForIC2VW4LoopTC3RN9benchmark5StateE,@function
_Z21benchForIC2VW4LoopTC3RN9benchmark5StateE: # @_Z21benchForIC2VW4LoopTC3RN9benchmark5StateE
	.cfi_startproc
# %bb.0:                                # %entry
	addi.d	$sp, $sp, -96
	.cfi_def_cfa_offset 96
	st.d	$ra, $sp, 88                    # 8-byte Folded Spill
	st.d	$fp, $sp, 80                    # 8-byte Folded Spill
	st.d	$s0, $sp, 72                    # 8-byte Folded Spill
	st.d	$s1, $sp, 64                    # 8-byte Folded Spill
	st.d	$s2, $sp, 56                    # 8-byte Folded Spill
	st.d	$s3, $sp, 48                    # 8-byte Folded Spill
	st.d	$s4, $sp, 40                    # 8-byte Folded Spill
	st.d	$s5, $sp, 32                    # 8-byte Folded Spill
	st.d	$s6, $sp, 24                    # 8-byte Folded Spill
	st.d	$s7, $sp, 16                    # 8-byte Folded Spill
	.cfi_offset 1, -8
	.cfi_offset 22, -16
	.cfi_offset 23, -24
	.cfi_offset 24, -32
	.cfi_offset 25, -40
	.cfi_offset 26, -48
	.cfi_offset 27, -56
	.cfi_offset 28, -64
	.cfi_offset 29, -72
	.cfi_offset 30, -80
	move	$fp, $a0
	pcaddu18i	$ra, %call36(_ZL9init_dataj)
	jirl	$ra, $ra, 0
	ld.w	$s1, $fp, 28
	ld.d	$s0, $fp, 16
	move	$a0, $fp
	pcaddu18i	$ra, %call36(_ZN9benchmark5State16StartKeepRunningEv)
	jirl	$ra, $ra, 0
	bnez	$s1, .LBB67_4
# %bb.1:                                # %entry
	beqz	$s0, .LBB67_4
# %bb.2:                                # %for.body.i.preheader
	pcalau12i	$s1, %pc_hi20(A)
	pcalau12i	$s2, %pc_hi20(B)
	pcalau12i	$s3, %pc_hi20(C)
	pcalau12i	$s4, %pc_hi20(D)
	pcalau12i	$s5, %pc_hi20(E)
	pcalau12i	$s6, %pc_hi20(F)
	pcalau12i	$s7, %pc_hi20(g_sum)
	.p2align	4, , 16
.LBB67_3:                               # %for.body.i
                                        # =>This Inner Loop Header: Depth=1
	#APP
	#NO_APP
	#APP
	#NO_APP
	#APP
	#NO_APP
	#APP
	#NO_APP
	#APP
	#NO_APP
	#APP
	#NO_APP
	#MEMBARRIER
	ori	$a0, $zero, 3
	pcaddu18i	$ra, %call36(_ZL14loopWithVW4IC2i)
	jirl	$ra, $ra, 0
	ld.w	$a1, $s7, %pc_lo12(g_sum)
	add.d	$a0, $a1, $a0
	addi.d	$s0, $s0, -1
	st.w	$a0, $s7, %pc_lo12(g_sum)
	bnez	$s0, .LBB67_3
.LBB67_4:                               # %_ZL27runBenchForLoopInterleavingRN9benchmark5StateEPFiiEi.exit
	move	$a0, $fp
	ld.d	$s7, $sp, 16                    # 8-byte Folded Reload
	ld.d	$s6, $sp, 24                    # 8-byte Folded Reload
	ld.d	$s5, $sp, 32                    # 8-byte Folded Reload
	ld.d	$s4, $sp, 40                    # 8-byte Folded Reload
	ld.d	$s3, $sp, 48                    # 8-byte Folded Reload
	ld.d	$s2, $sp, 56                    # 8-byte Folded Reload
	ld.d	$s1, $sp, 64                    # 8-byte Folded Reload
	ld.d	$s0, $sp, 72                    # 8-byte Folded Reload
	ld.d	$fp, $sp, 80                    # 8-byte Folded Reload
	ld.d	$ra, $sp, 88                    # 8-byte Folded Reload
	addi.d	$sp, $sp, 96
	pcaddu18i	$t8, %call36(_ZN9benchmark5State17FinishKeepRunningEv)
	jr	$t8
.Lfunc_end67:
	.size	_Z21benchForIC2VW4LoopTC3RN9benchmark5StateE, .Lfunc_end67-_Z21benchForIC2VW4LoopTC3RN9benchmark5StateE
	.cfi_endproc
                                        # -- End function
	.globl	_Z21benchForIC4VW4LoopTC3RN9benchmark5StateE # -- Begin function _Z21benchForIC4VW4LoopTC3RN9benchmark5StateE
	.p2align	5
	.type	_Z21benchForIC4VW4LoopTC3RN9benchmark5StateE,@function
_Z21benchForIC4VW4LoopTC3RN9benchmark5StateE: # @_Z21benchForIC4VW4LoopTC3RN9benchmark5StateE
	.cfi_startproc
# %bb.0:                                # %entry
	addi.d	$sp, $sp, -96
	.cfi_def_cfa_offset 96
	st.d	$ra, $sp, 88                    # 8-byte Folded Spill
	st.d	$fp, $sp, 80                    # 8-byte Folded Spill
	st.d	$s0, $sp, 72                    # 8-byte Folded Spill
	st.d	$s1, $sp, 64                    # 8-byte Folded Spill
	st.d	$s2, $sp, 56                    # 8-byte Folded Spill
	st.d	$s3, $sp, 48                    # 8-byte Folded Spill
	st.d	$s4, $sp, 40                    # 8-byte Folded Spill
	st.d	$s5, $sp, 32                    # 8-byte Folded Spill
	st.d	$s6, $sp, 24                    # 8-byte Folded Spill
	st.d	$s7, $sp, 16                    # 8-byte Folded Spill
	.cfi_offset 1, -8
	.cfi_offset 22, -16
	.cfi_offset 23, -24
	.cfi_offset 24, -32
	.cfi_offset 25, -40
	.cfi_offset 26, -48
	.cfi_offset 27, -56
	.cfi_offset 28, -64
	.cfi_offset 29, -72
	.cfi_offset 30, -80
	move	$fp, $a0
	pcaddu18i	$ra, %call36(_ZL9init_dataj)
	jirl	$ra, $ra, 0
	ld.w	$s1, $fp, 28
	ld.d	$s0, $fp, 16
	move	$a0, $fp
	pcaddu18i	$ra, %call36(_ZN9benchmark5State16StartKeepRunningEv)
	jirl	$ra, $ra, 0
	bnez	$s1, .LBB68_4
# %bb.1:                                # %entry
	beqz	$s0, .LBB68_4
# %bb.2:                                # %for.body.i.preheader
	pcalau12i	$s1, %pc_hi20(A)
	pcalau12i	$s2, %pc_hi20(B)
	pcalau12i	$s3, %pc_hi20(C)
	pcalau12i	$s4, %pc_hi20(D)
	pcalau12i	$s5, %pc_hi20(E)
	pcalau12i	$s6, %pc_hi20(F)
	pcalau12i	$s7, %pc_hi20(g_sum)
	.p2align	4, , 16
.LBB68_3:                               # %for.body.i
                                        # =>This Inner Loop Header: Depth=1
	#APP
	#NO_APP
	#APP
	#NO_APP
	#APP
	#NO_APP
	#APP
	#NO_APP
	#APP
	#NO_APP
	#APP
	#NO_APP
	#MEMBARRIER
	ori	$a0, $zero, 3
	pcaddu18i	$ra, %call36(_ZL14loopWithVW4IC4i)
	jirl	$ra, $ra, 0
	ld.w	$a1, $s7, %pc_lo12(g_sum)
	add.d	$a0, $a1, $a0
	addi.d	$s0, $s0, -1
	st.w	$a0, $s7, %pc_lo12(g_sum)
	bnez	$s0, .LBB68_3
.LBB68_4:                               # %_ZL27runBenchForLoopInterleavingRN9benchmark5StateEPFiiEi.exit
	move	$a0, $fp
	ld.d	$s7, $sp, 16                    # 8-byte Folded Reload
	ld.d	$s6, $sp, 24                    # 8-byte Folded Reload
	ld.d	$s5, $sp, 32                    # 8-byte Folded Reload
	ld.d	$s4, $sp, 40                    # 8-byte Folded Reload
	ld.d	$s3, $sp, 48                    # 8-byte Folded Reload
	ld.d	$s2, $sp, 56                    # 8-byte Folded Reload
	ld.d	$s1, $sp, 64                    # 8-byte Folded Reload
	ld.d	$s0, $sp, 72                    # 8-byte Folded Reload
	ld.d	$fp, $sp, 80                    # 8-byte Folded Reload
	ld.d	$ra, $sp, 88                    # 8-byte Folded Reload
	addi.d	$sp, $sp, 96
	pcaddu18i	$t8, %call36(_ZN9benchmark5State17FinishKeepRunningEv)
	jr	$t8
.Lfunc_end68:
	.size	_Z21benchForIC4VW4LoopTC3RN9benchmark5StateE, .Lfunc_end68-_Z21benchForIC4VW4LoopTC3RN9benchmark5StateE
	.cfi_endproc
                                        # -- End function
	.globl	_Z35benchForLoopWithReductionAutoVecTC3RN9benchmark5StateE # -- Begin function _Z35benchForLoopWithReductionAutoVecTC3RN9benchmark5StateE
	.p2align	5
	.type	_Z35benchForLoopWithReductionAutoVecTC3RN9benchmark5StateE,@function
_Z35benchForLoopWithReductionAutoVecTC3RN9benchmark5StateE: # @_Z35benchForLoopWithReductionAutoVecTC3RN9benchmark5StateE
	.cfi_startproc
# %bb.0:                                # %entry
	addi.d	$sp, $sp, -96
	.cfi_def_cfa_offset 96
	st.d	$ra, $sp, 88                    # 8-byte Folded Spill
	st.d	$fp, $sp, 80                    # 8-byte Folded Spill
	st.d	$s0, $sp, 72                    # 8-byte Folded Spill
	st.d	$s1, $sp, 64                    # 8-byte Folded Spill
	st.d	$s2, $sp, 56                    # 8-byte Folded Spill
	st.d	$s3, $sp, 48                    # 8-byte Folded Spill
	st.d	$s4, $sp, 40                    # 8-byte Folded Spill
	st.d	$s5, $sp, 32                    # 8-byte Folded Spill
	st.d	$s6, $sp, 24                    # 8-byte Folded Spill
	st.d	$s7, $sp, 16                    # 8-byte Folded Spill
	.cfi_offset 1, -8
	.cfi_offset 22, -16
	.cfi_offset 23, -24
	.cfi_offset 24, -32
	.cfi_offset 25, -40
	.cfi_offset 26, -48
	.cfi_offset 27, -56
	.cfi_offset 28, -64
	.cfi_offset 29, -72
	.cfi_offset 30, -80
	move	$fp, $a0
	pcaddu18i	$ra, %call36(_ZL9init_dataj)
	jirl	$ra, $ra, 0
	ld.w	$s1, $fp, 28
	ld.d	$s0, $fp, 16
	move	$a0, $fp
	pcaddu18i	$ra, %call36(_ZN9benchmark5State16StartKeepRunningEv)
	jirl	$ra, $ra, 0
	bnez	$s1, .LBB69_4
# %bb.1:                                # %entry
	beqz	$s0, .LBB69_4
# %bb.2:                                # %for.body.i.preheader
	pcalau12i	$s1, %pc_hi20(A)
	pcalau12i	$s2, %pc_hi20(B)
	pcalau12i	$s3, %pc_hi20(C)
	pcalau12i	$s4, %pc_hi20(D)
	pcalau12i	$s5, %pc_hi20(E)
	pcalau12i	$s6, %pc_hi20(F)
	pcalau12i	$s7, %pc_hi20(g_sum)
	.p2align	4, , 16
.LBB69_3:                               # %for.body.i
                                        # =>This Inner Loop Header: Depth=1
	#APP
	#NO_APP
	#APP
	#NO_APP
	#APP
	#NO_APP
	#APP
	#NO_APP
	#APP
	#NO_APP
	#APP
	#NO_APP
	#MEMBARRIER
	ori	$a0, $zero, 3
	pcaddu18i	$ra, %call36(_ZL24loopWithReductionAutoVeci)
	jirl	$ra, $ra, 0
	ld.w	$a1, $s7, %pc_lo12(g_sum)
	add.d	$a0, $a1, $a0
	addi.d	$s0, $s0, -1
	st.w	$a0, $s7, %pc_lo12(g_sum)
	bnez	$s0, .LBB69_3
.LBB69_4:                               # %_ZL27runBenchForLoopInterleavingRN9benchmark5StateEPFiiEi.exit
	move	$a0, $fp
	ld.d	$s7, $sp, 16                    # 8-byte Folded Reload
	ld.d	$s6, $sp, 24                    # 8-byte Folded Reload
	ld.d	$s5, $sp, 32                    # 8-byte Folded Reload
	ld.d	$s4, $sp, 40                    # 8-byte Folded Reload
	ld.d	$s3, $sp, 48                    # 8-byte Folded Reload
	ld.d	$s2, $sp, 56                    # 8-byte Folded Reload
	ld.d	$s1, $sp, 64                    # 8-byte Folded Reload
	ld.d	$s0, $sp, 72                    # 8-byte Folded Reload
	ld.d	$fp, $sp, 80                    # 8-byte Folded Reload
	ld.d	$ra, $sp, 88                    # 8-byte Folded Reload
	addi.d	$sp, $sp, 96
	pcaddu18i	$t8, %call36(_ZN9benchmark5State17FinishKeepRunningEv)
	jr	$t8
.Lfunc_end69:
	.size	_Z35benchForLoopWithReductionAutoVecTC3RN9benchmark5StateE, .Lfunc_end69-_Z35benchForLoopWithReductionAutoVecTC3RN9benchmark5StateE
	.cfi_endproc
                                        # -- End function
	.globl	_Z34benchForIC1VW4LoopWithReductionTC3RN9benchmark5StateE # -- Begin function _Z34benchForIC1VW4LoopWithReductionTC3RN9benchmark5StateE
	.p2align	5
	.type	_Z34benchForIC1VW4LoopWithReductionTC3RN9benchmark5StateE,@function
_Z34benchForIC1VW4LoopWithReductionTC3RN9benchmark5StateE: # @_Z34benchForIC1VW4LoopWithReductionTC3RN9benchmark5StateE
	.cfi_startproc
# %bb.0:                                # %entry
	addi.d	$sp, $sp, -96
	.cfi_def_cfa_offset 96
	st.d	$ra, $sp, 88                    # 8-byte Folded Spill
	st.d	$fp, $sp, 80                    # 8-byte Folded Spill
	st.d	$s0, $sp, 72                    # 8-byte Folded Spill
	st.d	$s1, $sp, 64                    # 8-byte Folded Spill
	st.d	$s2, $sp, 56                    # 8-byte Folded Spill
	st.d	$s3, $sp, 48                    # 8-byte Folded Spill
	st.d	$s4, $sp, 40                    # 8-byte Folded Spill
	st.d	$s5, $sp, 32                    # 8-byte Folded Spill
	st.d	$s6, $sp, 24                    # 8-byte Folded Spill
	st.d	$s7, $sp, 16                    # 8-byte Folded Spill
	.cfi_offset 1, -8
	.cfi_offset 22, -16
	.cfi_offset 23, -24
	.cfi_offset 24, -32
	.cfi_offset 25, -40
	.cfi_offset 26, -48
	.cfi_offset 27, -56
	.cfi_offset 28, -64
	.cfi_offset 29, -72
	.cfi_offset 30, -80
	move	$fp, $a0
	pcaddu18i	$ra, %call36(_ZL9init_dataj)
	jirl	$ra, $ra, 0
	ld.w	$s1, $fp, 28
	ld.d	$s0, $fp, 16
	move	$a0, $fp
	pcaddu18i	$ra, %call36(_ZN9benchmark5State16StartKeepRunningEv)
	jirl	$ra, $ra, 0
	bnez	$s1, .LBB70_4
# %bb.1:                                # %entry
	beqz	$s0, .LBB70_4
# %bb.2:                                # %for.body.i.preheader
	pcalau12i	$s1, %pc_hi20(A)
	pcalau12i	$s2, %pc_hi20(B)
	pcalau12i	$s3, %pc_hi20(C)
	pcalau12i	$s4, %pc_hi20(D)
	pcalau12i	$s5, %pc_hi20(E)
	pcalau12i	$s6, %pc_hi20(F)
	pcalau12i	$s7, %pc_hi20(g_sum)
	.p2align	4, , 16
.LBB70_3:                               # %for.body.i
                                        # =>This Inner Loop Header: Depth=1
	#APP
	#NO_APP
	#APP
	#NO_APP
	#APP
	#NO_APP
	#APP
	#NO_APP
	#APP
	#NO_APP
	#APP
	#NO_APP
	#MEMBARRIER
	ori	$a0, $zero, 3
	pcaddu18i	$ra, %call36(_ZL27loopWithReductionWithVW4IC1i)
	jirl	$ra, $ra, 0
	ld.w	$a1, $s7, %pc_lo12(g_sum)
	add.d	$a0, $a1, $a0
	addi.d	$s0, $s0, -1
	st.w	$a0, $s7, %pc_lo12(g_sum)
	bnez	$s0, .LBB70_3
.LBB70_4:                               # %_ZL27runBenchForLoopInterleavingRN9benchmark5StateEPFiiEi.exit
	move	$a0, $fp
	ld.d	$s7, $sp, 16                    # 8-byte Folded Reload
	ld.d	$s6, $sp, 24                    # 8-byte Folded Reload
	ld.d	$s5, $sp, 32                    # 8-byte Folded Reload
	ld.d	$s4, $sp, 40                    # 8-byte Folded Reload
	ld.d	$s3, $sp, 48                    # 8-byte Folded Reload
	ld.d	$s2, $sp, 56                    # 8-byte Folded Reload
	ld.d	$s1, $sp, 64                    # 8-byte Folded Reload
	ld.d	$s0, $sp, 72                    # 8-byte Folded Reload
	ld.d	$fp, $sp, 80                    # 8-byte Folded Reload
	ld.d	$ra, $sp, 88                    # 8-byte Folded Reload
	addi.d	$sp, $sp, 96
	pcaddu18i	$t8, %call36(_ZN9benchmark5State17FinishKeepRunningEv)
	jr	$t8
.Lfunc_end70:
	.size	_Z34benchForIC1VW4LoopWithReductionTC3RN9benchmark5StateE, .Lfunc_end70-_Z34benchForIC1VW4LoopWithReductionTC3RN9benchmark5StateE
	.cfi_endproc
                                        # -- End function
	.globl	_Z34benchForIC2VW4LoopWithReductionTC3RN9benchmark5StateE # -- Begin function _Z34benchForIC2VW4LoopWithReductionTC3RN9benchmark5StateE
	.p2align	5
	.type	_Z34benchForIC2VW4LoopWithReductionTC3RN9benchmark5StateE,@function
_Z34benchForIC2VW4LoopWithReductionTC3RN9benchmark5StateE: # @_Z34benchForIC2VW4LoopWithReductionTC3RN9benchmark5StateE
	.cfi_startproc
# %bb.0:                                # %entry
	addi.d	$sp, $sp, -96
	.cfi_def_cfa_offset 96
	st.d	$ra, $sp, 88                    # 8-byte Folded Spill
	st.d	$fp, $sp, 80                    # 8-byte Folded Spill
	st.d	$s0, $sp, 72                    # 8-byte Folded Spill
	st.d	$s1, $sp, 64                    # 8-byte Folded Spill
	st.d	$s2, $sp, 56                    # 8-byte Folded Spill
	st.d	$s3, $sp, 48                    # 8-byte Folded Spill
	st.d	$s4, $sp, 40                    # 8-byte Folded Spill
	st.d	$s5, $sp, 32                    # 8-byte Folded Spill
	st.d	$s6, $sp, 24                    # 8-byte Folded Spill
	st.d	$s7, $sp, 16                    # 8-byte Folded Spill
	.cfi_offset 1, -8
	.cfi_offset 22, -16
	.cfi_offset 23, -24
	.cfi_offset 24, -32
	.cfi_offset 25, -40
	.cfi_offset 26, -48
	.cfi_offset 27, -56
	.cfi_offset 28, -64
	.cfi_offset 29, -72
	.cfi_offset 30, -80
	move	$fp, $a0
	pcaddu18i	$ra, %call36(_ZL9init_dataj)
	jirl	$ra, $ra, 0
	ld.w	$s1, $fp, 28
	ld.d	$s0, $fp, 16
	move	$a0, $fp
	pcaddu18i	$ra, %call36(_ZN9benchmark5State16StartKeepRunningEv)
	jirl	$ra, $ra, 0
	bnez	$s1, .LBB71_4
# %bb.1:                                # %entry
	beqz	$s0, .LBB71_4
# %bb.2:                                # %for.body.i.preheader
	pcalau12i	$s1, %pc_hi20(A)
	pcalau12i	$s2, %pc_hi20(B)
	pcalau12i	$s3, %pc_hi20(C)
	pcalau12i	$s4, %pc_hi20(D)
	pcalau12i	$s5, %pc_hi20(E)
	pcalau12i	$s6, %pc_hi20(F)
	pcalau12i	$s7, %pc_hi20(g_sum)
	.p2align	4, , 16
.LBB71_3:                               # %for.body.i
                                        # =>This Inner Loop Header: Depth=1
	#APP
	#NO_APP
	#APP
	#NO_APP
	#APP
	#NO_APP
	#APP
	#NO_APP
	#APP
	#NO_APP
	#APP
	#NO_APP
	#MEMBARRIER
	ori	$a0, $zero, 3
	pcaddu18i	$ra, %call36(_ZL27loopWithReductionWithVW4IC2i)
	jirl	$ra, $ra, 0
	ld.w	$a1, $s7, %pc_lo12(g_sum)
	add.d	$a0, $a1, $a0
	addi.d	$s0, $s0, -1
	st.w	$a0, $s7, %pc_lo12(g_sum)
	bnez	$s0, .LBB71_3
.LBB71_4:                               # %_ZL27runBenchForLoopInterleavingRN9benchmark5StateEPFiiEi.exit
	move	$a0, $fp
	ld.d	$s7, $sp, 16                    # 8-byte Folded Reload
	ld.d	$s6, $sp, 24                    # 8-byte Folded Reload
	ld.d	$s5, $sp, 32                    # 8-byte Folded Reload
	ld.d	$s4, $sp, 40                    # 8-byte Folded Reload
	ld.d	$s3, $sp, 48                    # 8-byte Folded Reload
	ld.d	$s2, $sp, 56                    # 8-byte Folded Reload
	ld.d	$s1, $sp, 64                    # 8-byte Folded Reload
	ld.d	$s0, $sp, 72                    # 8-byte Folded Reload
	ld.d	$fp, $sp, 80                    # 8-byte Folded Reload
	ld.d	$ra, $sp, 88                    # 8-byte Folded Reload
	addi.d	$sp, $sp, 96
	pcaddu18i	$t8, %call36(_ZN9benchmark5State17FinishKeepRunningEv)
	jr	$t8
.Lfunc_end71:
	.size	_Z34benchForIC2VW4LoopWithReductionTC3RN9benchmark5StateE, .Lfunc_end71-_Z34benchForIC2VW4LoopWithReductionTC3RN9benchmark5StateE
	.cfi_endproc
                                        # -- End function
	.globl	_Z34benchForIC4VW4LoopWithReductionTC3RN9benchmark5StateE # -- Begin function _Z34benchForIC4VW4LoopWithReductionTC3RN9benchmark5StateE
	.p2align	5
	.type	_Z34benchForIC4VW4LoopWithReductionTC3RN9benchmark5StateE,@function
_Z34benchForIC4VW4LoopWithReductionTC3RN9benchmark5StateE: # @_Z34benchForIC4VW4LoopWithReductionTC3RN9benchmark5StateE
	.cfi_startproc
# %bb.0:                                # %entry
	addi.d	$sp, $sp, -96
	.cfi_def_cfa_offset 96
	st.d	$ra, $sp, 88                    # 8-byte Folded Spill
	st.d	$fp, $sp, 80                    # 8-byte Folded Spill
	st.d	$s0, $sp, 72                    # 8-byte Folded Spill
	st.d	$s1, $sp, 64                    # 8-byte Folded Spill
	st.d	$s2, $sp, 56                    # 8-byte Folded Spill
	st.d	$s3, $sp, 48                    # 8-byte Folded Spill
	st.d	$s4, $sp, 40                    # 8-byte Folded Spill
	st.d	$s5, $sp, 32                    # 8-byte Folded Spill
	st.d	$s6, $sp, 24                    # 8-byte Folded Spill
	st.d	$s7, $sp, 16                    # 8-byte Folded Spill
	.cfi_offset 1, -8
	.cfi_offset 22, -16
	.cfi_offset 23, -24
	.cfi_offset 24, -32
	.cfi_offset 25, -40
	.cfi_offset 26, -48
	.cfi_offset 27, -56
	.cfi_offset 28, -64
	.cfi_offset 29, -72
	.cfi_offset 30, -80
	move	$fp, $a0
	pcaddu18i	$ra, %call36(_ZL9init_dataj)
	jirl	$ra, $ra, 0
	ld.w	$s1, $fp, 28
	ld.d	$s0, $fp, 16
	move	$a0, $fp
	pcaddu18i	$ra, %call36(_ZN9benchmark5State16StartKeepRunningEv)
	jirl	$ra, $ra, 0
	bnez	$s1, .LBB72_4
# %bb.1:                                # %entry
	beqz	$s0, .LBB72_4
# %bb.2:                                # %for.body.i.preheader
	pcalau12i	$s1, %pc_hi20(A)
	pcalau12i	$s2, %pc_hi20(B)
	pcalau12i	$s3, %pc_hi20(C)
	pcalau12i	$s4, %pc_hi20(D)
	pcalau12i	$s5, %pc_hi20(E)
	pcalau12i	$s6, %pc_hi20(F)
	pcalau12i	$s7, %pc_hi20(g_sum)
	.p2align	4, , 16
.LBB72_3:                               # %for.body.i
                                        # =>This Inner Loop Header: Depth=1
	#APP
	#NO_APP
	#APP
	#NO_APP
	#APP
	#NO_APP
	#APP
	#NO_APP
	#APP
	#NO_APP
	#APP
	#NO_APP
	#MEMBARRIER
	ori	$a0, $zero, 3
	pcaddu18i	$ra, %call36(_ZL27loopWithReductionWithVW4IC4i)
	jirl	$ra, $ra, 0
	ld.w	$a1, $s7, %pc_lo12(g_sum)
	add.d	$a0, $a1, $a0
	addi.d	$s0, $s0, -1
	st.w	$a0, $s7, %pc_lo12(g_sum)
	bnez	$s0, .LBB72_3
.LBB72_4:                               # %_ZL27runBenchForLoopInterleavingRN9benchmark5StateEPFiiEi.exit
	move	$a0, $fp
	ld.d	$s7, $sp, 16                    # 8-byte Folded Reload
	ld.d	$s6, $sp, 24                    # 8-byte Folded Reload
	ld.d	$s5, $sp, 32                    # 8-byte Folded Reload
	ld.d	$s4, $sp, 40                    # 8-byte Folded Reload
	ld.d	$s3, $sp, 48                    # 8-byte Folded Reload
	ld.d	$s2, $sp, 56                    # 8-byte Folded Reload
	ld.d	$s1, $sp, 64                    # 8-byte Folded Reload
	ld.d	$s0, $sp, 72                    # 8-byte Folded Reload
	ld.d	$fp, $sp, 80                    # 8-byte Folded Reload
	ld.d	$ra, $sp, 88                    # 8-byte Folded Reload
	addi.d	$sp, $sp, 96
	pcaddu18i	$t8, %call36(_ZN9benchmark5State17FinishKeepRunningEv)
	jr	$t8
.Lfunc_end72:
	.size	_Z34benchForIC4VW4LoopWithReductionTC3RN9benchmark5StateE, .Lfunc_end72-_Z34benchForIC4VW4LoopWithReductionTC3RN9benchmark5StateE
	.cfi_endproc
                                        # -- End function
	.globl	_Z34benchForIC1VW1LoopWithReductionTC3RN9benchmark5StateE # -- Begin function _Z34benchForIC1VW1LoopWithReductionTC3RN9benchmark5StateE
	.p2align	5
	.type	_Z34benchForIC1VW1LoopWithReductionTC3RN9benchmark5StateE,@function
_Z34benchForIC1VW1LoopWithReductionTC3RN9benchmark5StateE: # @_Z34benchForIC1VW1LoopWithReductionTC3RN9benchmark5StateE
	.cfi_startproc
# %bb.0:                                # %entry
	addi.d	$sp, $sp, -96
	.cfi_def_cfa_offset 96
	st.d	$ra, $sp, 88                    # 8-byte Folded Spill
	st.d	$fp, $sp, 80                    # 8-byte Folded Spill
	st.d	$s0, $sp, 72                    # 8-byte Folded Spill
	st.d	$s1, $sp, 64                    # 8-byte Folded Spill
	st.d	$s2, $sp, 56                    # 8-byte Folded Spill
	st.d	$s3, $sp, 48                    # 8-byte Folded Spill
	st.d	$s4, $sp, 40                    # 8-byte Folded Spill
	st.d	$s5, $sp, 32                    # 8-byte Folded Spill
	st.d	$s6, $sp, 24                    # 8-byte Folded Spill
	st.d	$s7, $sp, 16                    # 8-byte Folded Spill
	.cfi_offset 1, -8
	.cfi_offset 22, -16
	.cfi_offset 23, -24
	.cfi_offset 24, -32
	.cfi_offset 25, -40
	.cfi_offset 26, -48
	.cfi_offset 27, -56
	.cfi_offset 28, -64
	.cfi_offset 29, -72
	.cfi_offset 30, -80
	move	$fp, $a0
	pcaddu18i	$ra, %call36(_ZL9init_dataj)
	jirl	$ra, $ra, 0
	ld.w	$s1, $fp, 28
	ld.d	$s0, $fp, 16
	move	$a0, $fp
	pcaddu18i	$ra, %call36(_ZN9benchmark5State16StartKeepRunningEv)
	jirl	$ra, $ra, 0
	bnez	$s1, .LBB73_4
# %bb.1:                                # %entry
	beqz	$s0, .LBB73_4
# %bb.2:                                # %for.body.i.preheader
	pcalau12i	$s1, %pc_hi20(A)
	pcalau12i	$s2, %pc_hi20(B)
	pcalau12i	$s3, %pc_hi20(C)
	pcalau12i	$s4, %pc_hi20(D)
	pcalau12i	$s5, %pc_hi20(E)
	pcalau12i	$s6, %pc_hi20(F)
	pcalau12i	$s7, %pc_hi20(g_sum)
	.p2align	4, , 16
.LBB73_3:                               # %for.body.i
                                        # =>This Inner Loop Header: Depth=1
	#APP
	#NO_APP
	#APP
	#NO_APP
	#APP
	#NO_APP
	#APP
	#NO_APP
	#APP
	#NO_APP
	#APP
	#NO_APP
	#MEMBARRIER
	ori	$a0, $zero, 3
	pcaddu18i	$ra, %call36(_ZL27loopWithReductionWithVW1IC1i)
	jirl	$ra, $ra, 0
	ld.w	$a1, $s7, %pc_lo12(g_sum)
	add.d	$a0, $a1, $a0
	addi.d	$s0, $s0, -1
	st.w	$a0, $s7, %pc_lo12(g_sum)
	bnez	$s0, .LBB73_3
.LBB73_4:                               # %_ZL27runBenchForLoopInterleavingRN9benchmark5StateEPFiiEi.exit
	move	$a0, $fp
	ld.d	$s7, $sp, 16                    # 8-byte Folded Reload
	ld.d	$s6, $sp, 24                    # 8-byte Folded Reload
	ld.d	$s5, $sp, 32                    # 8-byte Folded Reload
	ld.d	$s4, $sp, 40                    # 8-byte Folded Reload
	ld.d	$s3, $sp, 48                    # 8-byte Folded Reload
	ld.d	$s2, $sp, 56                    # 8-byte Folded Reload
	ld.d	$s1, $sp, 64                    # 8-byte Folded Reload
	ld.d	$s0, $sp, 72                    # 8-byte Folded Reload
	ld.d	$fp, $sp, 80                    # 8-byte Folded Reload
	ld.d	$ra, $sp, 88                    # 8-byte Folded Reload
	addi.d	$sp, $sp, 96
	pcaddu18i	$t8, %call36(_ZN9benchmark5State17FinishKeepRunningEv)
	jr	$t8
.Lfunc_end73:
	.size	_Z34benchForIC1VW1LoopWithReductionTC3RN9benchmark5StateE, .Lfunc_end73-_Z34benchForIC1VW1LoopWithReductionTC3RN9benchmark5StateE
	.cfi_endproc
                                        # -- End function
	.globl	_Z34benchForIC2VW1LoopWithReductionTC3RN9benchmark5StateE # -- Begin function _Z34benchForIC2VW1LoopWithReductionTC3RN9benchmark5StateE
	.p2align	5
	.type	_Z34benchForIC2VW1LoopWithReductionTC3RN9benchmark5StateE,@function
_Z34benchForIC2VW1LoopWithReductionTC3RN9benchmark5StateE: # @_Z34benchForIC2VW1LoopWithReductionTC3RN9benchmark5StateE
	.cfi_startproc
# %bb.0:                                # %entry
	addi.d	$sp, $sp, -96
	.cfi_def_cfa_offset 96
	st.d	$ra, $sp, 88                    # 8-byte Folded Spill
	st.d	$fp, $sp, 80                    # 8-byte Folded Spill
	st.d	$s0, $sp, 72                    # 8-byte Folded Spill
	st.d	$s1, $sp, 64                    # 8-byte Folded Spill
	st.d	$s2, $sp, 56                    # 8-byte Folded Spill
	st.d	$s3, $sp, 48                    # 8-byte Folded Spill
	st.d	$s4, $sp, 40                    # 8-byte Folded Spill
	st.d	$s5, $sp, 32                    # 8-byte Folded Spill
	st.d	$s6, $sp, 24                    # 8-byte Folded Spill
	st.d	$s7, $sp, 16                    # 8-byte Folded Spill
	.cfi_offset 1, -8
	.cfi_offset 22, -16
	.cfi_offset 23, -24
	.cfi_offset 24, -32
	.cfi_offset 25, -40
	.cfi_offset 26, -48
	.cfi_offset 27, -56
	.cfi_offset 28, -64
	.cfi_offset 29, -72
	.cfi_offset 30, -80
	move	$fp, $a0
	pcaddu18i	$ra, %call36(_ZL9init_dataj)
	jirl	$ra, $ra, 0
	ld.w	$s1, $fp, 28
	ld.d	$s0, $fp, 16
	move	$a0, $fp
	pcaddu18i	$ra, %call36(_ZN9benchmark5State16StartKeepRunningEv)
	jirl	$ra, $ra, 0
	bnez	$s1, .LBB74_4
# %bb.1:                                # %entry
	beqz	$s0, .LBB74_4
# %bb.2:                                # %for.body.i.preheader
	pcalau12i	$s1, %pc_hi20(A)
	pcalau12i	$s2, %pc_hi20(B)
	pcalau12i	$s3, %pc_hi20(C)
	pcalau12i	$s4, %pc_hi20(D)
	pcalau12i	$s5, %pc_hi20(E)
	pcalau12i	$s6, %pc_hi20(F)
	pcalau12i	$s7, %pc_hi20(g_sum)
	.p2align	4, , 16
.LBB74_3:                               # %for.body.i
                                        # =>This Inner Loop Header: Depth=1
	#APP
	#NO_APP
	#APP
	#NO_APP
	#APP
	#NO_APP
	#APP
	#NO_APP
	#APP
	#NO_APP
	#APP
	#NO_APP
	#MEMBARRIER
	ori	$a0, $zero, 3
	pcaddu18i	$ra, %call36(_ZL27loopWithReductionWithVW1IC2i)
	jirl	$ra, $ra, 0
	ld.w	$a1, $s7, %pc_lo12(g_sum)
	add.d	$a0, $a1, $a0
	addi.d	$s0, $s0, -1
	st.w	$a0, $s7, %pc_lo12(g_sum)
	bnez	$s0, .LBB74_3
.LBB74_4:                               # %_ZL27runBenchForLoopInterleavingRN9benchmark5StateEPFiiEi.exit
	move	$a0, $fp
	ld.d	$s7, $sp, 16                    # 8-byte Folded Reload
	ld.d	$s6, $sp, 24                    # 8-byte Folded Reload
	ld.d	$s5, $sp, 32                    # 8-byte Folded Reload
	ld.d	$s4, $sp, 40                    # 8-byte Folded Reload
	ld.d	$s3, $sp, 48                    # 8-byte Folded Reload
	ld.d	$s2, $sp, 56                    # 8-byte Folded Reload
	ld.d	$s1, $sp, 64                    # 8-byte Folded Reload
	ld.d	$s0, $sp, 72                    # 8-byte Folded Reload
	ld.d	$fp, $sp, 80                    # 8-byte Folded Reload
	ld.d	$ra, $sp, 88                    # 8-byte Folded Reload
	addi.d	$sp, $sp, 96
	pcaddu18i	$t8, %call36(_ZN9benchmark5State17FinishKeepRunningEv)
	jr	$t8
.Lfunc_end74:
	.size	_Z34benchForIC2VW1LoopWithReductionTC3RN9benchmark5StateE, .Lfunc_end74-_Z34benchForIC2VW1LoopWithReductionTC3RN9benchmark5StateE
	.cfi_endproc
                                        # -- End function
	.globl	_Z34benchForIC4VW1LoopWithReductionTC3RN9benchmark5StateE # -- Begin function _Z34benchForIC4VW1LoopWithReductionTC3RN9benchmark5StateE
	.p2align	5
	.type	_Z34benchForIC4VW1LoopWithReductionTC3RN9benchmark5StateE,@function
_Z34benchForIC4VW1LoopWithReductionTC3RN9benchmark5StateE: # @_Z34benchForIC4VW1LoopWithReductionTC3RN9benchmark5StateE
	.cfi_startproc
# %bb.0:                                # %entry
	addi.d	$sp, $sp, -96
	.cfi_def_cfa_offset 96
	st.d	$ra, $sp, 88                    # 8-byte Folded Spill
	st.d	$fp, $sp, 80                    # 8-byte Folded Spill
	st.d	$s0, $sp, 72                    # 8-byte Folded Spill
	st.d	$s1, $sp, 64                    # 8-byte Folded Spill
	st.d	$s2, $sp, 56                    # 8-byte Folded Spill
	st.d	$s3, $sp, 48                    # 8-byte Folded Spill
	st.d	$s4, $sp, 40                    # 8-byte Folded Spill
	st.d	$s5, $sp, 32                    # 8-byte Folded Spill
	st.d	$s6, $sp, 24                    # 8-byte Folded Spill
	st.d	$s7, $sp, 16                    # 8-byte Folded Spill
	.cfi_offset 1, -8
	.cfi_offset 22, -16
	.cfi_offset 23, -24
	.cfi_offset 24, -32
	.cfi_offset 25, -40
	.cfi_offset 26, -48
	.cfi_offset 27, -56
	.cfi_offset 28, -64
	.cfi_offset 29, -72
	.cfi_offset 30, -80
	move	$fp, $a0
	pcaddu18i	$ra, %call36(_ZL9init_dataj)
	jirl	$ra, $ra, 0
	ld.w	$s1, $fp, 28
	ld.d	$s0, $fp, 16
	move	$a0, $fp
	pcaddu18i	$ra, %call36(_ZN9benchmark5State16StartKeepRunningEv)
	jirl	$ra, $ra, 0
	bnez	$s1, .LBB75_4
# %bb.1:                                # %entry
	beqz	$s0, .LBB75_4
# %bb.2:                                # %for.body.i.preheader
	pcalau12i	$s1, %pc_hi20(A)
	pcalau12i	$s2, %pc_hi20(B)
	pcalau12i	$s3, %pc_hi20(C)
	pcalau12i	$s4, %pc_hi20(D)
	pcalau12i	$s5, %pc_hi20(E)
	pcalau12i	$s6, %pc_hi20(F)
	pcalau12i	$s7, %pc_hi20(g_sum)
	.p2align	4, , 16
.LBB75_3:                               # %for.body.i
                                        # =>This Inner Loop Header: Depth=1
	#APP
	#NO_APP
	#APP
	#NO_APP
	#APP
	#NO_APP
	#APP
	#NO_APP
	#APP
	#NO_APP
	#APP
	#NO_APP
	#MEMBARRIER
	ori	$a0, $zero, 3
	pcaddu18i	$ra, %call36(_ZL27loopWithReductionWithVW1IC4i)
	jirl	$ra, $ra, 0
	ld.w	$a1, $s7, %pc_lo12(g_sum)
	add.d	$a0, $a1, $a0
	addi.d	$s0, $s0, -1
	st.w	$a0, $s7, %pc_lo12(g_sum)
	bnez	$s0, .LBB75_3
.LBB75_4:                               # %_ZL27runBenchForLoopInterleavingRN9benchmark5StateEPFiiEi.exit
	move	$a0, $fp
	ld.d	$s7, $sp, 16                    # 8-byte Folded Reload
	ld.d	$s6, $sp, 24                    # 8-byte Folded Reload
	ld.d	$s5, $sp, 32                    # 8-byte Folded Reload
	ld.d	$s4, $sp, 40                    # 8-byte Folded Reload
	ld.d	$s3, $sp, 48                    # 8-byte Folded Reload
	ld.d	$s2, $sp, 56                    # 8-byte Folded Reload
	ld.d	$s1, $sp, 64                    # 8-byte Folded Reload
	ld.d	$s0, $sp, 72                    # 8-byte Folded Reload
	ld.d	$fp, $sp, 80                    # 8-byte Folded Reload
	ld.d	$ra, $sp, 88                    # 8-byte Folded Reload
	addi.d	$sp, $sp, 96
	pcaddu18i	$t8, %call36(_ZN9benchmark5State17FinishKeepRunningEv)
	jr	$t8
.Lfunc_end75:
	.size	_Z34benchForIC4VW1LoopWithReductionTC3RN9benchmark5StateE, .Lfunc_end75-_Z34benchForIC4VW1LoopWithReductionTC3RN9benchmark5StateE
	.cfi_endproc
                                        # -- End function
	.globl	_Z25benchAutoVecForBigLoopTC3RN9benchmark5StateE # -- Begin function _Z25benchAutoVecForBigLoopTC3RN9benchmark5StateE
	.p2align	5
	.type	_Z25benchAutoVecForBigLoopTC3RN9benchmark5StateE,@function
_Z25benchAutoVecForBigLoopTC3RN9benchmark5StateE: # @_Z25benchAutoVecForBigLoopTC3RN9benchmark5StateE
	.cfi_startproc
# %bb.0:                                # %entry
	addi.d	$sp, $sp, -96
	.cfi_def_cfa_offset 96
	st.d	$ra, $sp, 88                    # 8-byte Folded Spill
	st.d	$fp, $sp, 80                    # 8-byte Folded Spill
	st.d	$s0, $sp, 72                    # 8-byte Folded Spill
	st.d	$s1, $sp, 64                    # 8-byte Folded Spill
	st.d	$s2, $sp, 56                    # 8-byte Folded Spill
	st.d	$s3, $sp, 48                    # 8-byte Folded Spill
	st.d	$s4, $sp, 40                    # 8-byte Folded Spill
	st.d	$s5, $sp, 32                    # 8-byte Folded Spill
	st.d	$s6, $sp, 24                    # 8-byte Folded Spill
	st.d	$s7, $sp, 16                    # 8-byte Folded Spill
	.cfi_offset 1, -8
	.cfi_offset 22, -16
	.cfi_offset 23, -24
	.cfi_offset 24, -32
	.cfi_offset 25, -40
	.cfi_offset 26, -48
	.cfi_offset 27, -56
	.cfi_offset 28, -64
	.cfi_offset 29, -72
	.cfi_offset 30, -80
	move	$fp, $a0
	pcaddu18i	$ra, %call36(_ZL9init_dataj)
	jirl	$ra, $ra, 0
	ld.w	$s1, $fp, 28
	ld.d	$s0, $fp, 16
	move	$a0, $fp
	pcaddu18i	$ra, %call36(_ZN9benchmark5State16StartKeepRunningEv)
	jirl	$ra, $ra, 0
	bnez	$s1, .LBB76_4
# %bb.1:                                # %entry
	beqz	$s0, .LBB76_4
# %bb.2:                                # %for.body.i.preheader
	pcalau12i	$s1, %pc_hi20(A)
	pcalau12i	$s2, %pc_hi20(B)
	pcalau12i	$s3, %pc_hi20(C)
	pcalau12i	$s4, %pc_hi20(D)
	pcalau12i	$s5, %pc_hi20(E)
	pcalau12i	$s6, %pc_hi20(F)
	pcalau12i	$s7, %pc_hi20(g_sum)
	.p2align	4, , 16
.LBB76_3:                               # %for.body.i
                                        # =>This Inner Loop Header: Depth=1
	#APP
	#NO_APP
	#APP
	#NO_APP
	#APP
	#NO_APP
	#APP
	#NO_APP
	#APP
	#NO_APP
	#APP
	#NO_APP
	#MEMBARRIER
	ori	$a0, $zero, 3
	pcaddu18i	$ra, %call36(_ZL22loopNoReductionAutoVeci)
	jirl	$ra, $ra, 0
	ld.w	$a1, $s7, %pc_lo12(g_sum)
	add.d	$a0, $a1, $a0
	addi.d	$s0, $s0, -1
	st.w	$a0, $s7, %pc_lo12(g_sum)
	bnez	$s0, .LBB76_3
.LBB76_4:                               # %_ZL27runBenchForLoopInterleavingRN9benchmark5StateEPFiiEi.exit
	move	$a0, $fp
	ld.d	$s7, $sp, 16                    # 8-byte Folded Reload
	ld.d	$s6, $sp, 24                    # 8-byte Folded Reload
	ld.d	$s5, $sp, 32                    # 8-byte Folded Reload
	ld.d	$s4, $sp, 40                    # 8-byte Folded Reload
	ld.d	$s3, $sp, 48                    # 8-byte Folded Reload
	ld.d	$s2, $sp, 56                    # 8-byte Folded Reload
	ld.d	$s1, $sp, 64                    # 8-byte Folded Reload
	ld.d	$s0, $sp, 72                    # 8-byte Folded Reload
	ld.d	$fp, $sp, 80                    # 8-byte Folded Reload
	ld.d	$ra, $sp, 88                    # 8-byte Folded Reload
	addi.d	$sp, $sp, 96
	pcaddu18i	$t8, %call36(_ZN9benchmark5State17FinishKeepRunningEv)
	jr	$t8
.Lfunc_end76:
	.size	_Z25benchAutoVecForBigLoopTC3RN9benchmark5StateE, .Lfunc_end76-_Z25benchAutoVecForBigLoopTC3RN9benchmark5StateE
	.cfi_endproc
                                        # -- End function
	.globl	_Z24benchForIC1VW4BigLoopTC3RN9benchmark5StateE # -- Begin function _Z24benchForIC1VW4BigLoopTC3RN9benchmark5StateE
	.p2align	5
	.type	_Z24benchForIC1VW4BigLoopTC3RN9benchmark5StateE,@function
_Z24benchForIC1VW4BigLoopTC3RN9benchmark5StateE: # @_Z24benchForIC1VW4BigLoopTC3RN9benchmark5StateE
	.cfi_startproc
# %bb.0:                                # %entry
	addi.d	$sp, $sp, -96
	.cfi_def_cfa_offset 96
	st.d	$ra, $sp, 88                    # 8-byte Folded Spill
	st.d	$fp, $sp, 80                    # 8-byte Folded Spill
	st.d	$s0, $sp, 72                    # 8-byte Folded Spill
	st.d	$s1, $sp, 64                    # 8-byte Folded Spill
	st.d	$s2, $sp, 56                    # 8-byte Folded Spill
	st.d	$s3, $sp, 48                    # 8-byte Folded Spill
	st.d	$s4, $sp, 40                    # 8-byte Folded Spill
	st.d	$s5, $sp, 32                    # 8-byte Folded Spill
	st.d	$s6, $sp, 24                    # 8-byte Folded Spill
	st.d	$s7, $sp, 16                    # 8-byte Folded Spill
	.cfi_offset 1, -8
	.cfi_offset 22, -16
	.cfi_offset 23, -24
	.cfi_offset 24, -32
	.cfi_offset 25, -40
	.cfi_offset 26, -48
	.cfi_offset 27, -56
	.cfi_offset 28, -64
	.cfi_offset 29, -72
	.cfi_offset 30, -80
	move	$fp, $a0
	pcaddu18i	$ra, %call36(_ZL9init_dataj)
	jirl	$ra, $ra, 0
	ld.w	$s1, $fp, 28
	ld.d	$s0, $fp, 16
	move	$a0, $fp
	pcaddu18i	$ra, %call36(_ZN9benchmark5State16StartKeepRunningEv)
	jirl	$ra, $ra, 0
	bnez	$s1, .LBB77_4
# %bb.1:                                # %entry
	beqz	$s0, .LBB77_4
# %bb.2:                                # %for.body.i.preheader
	pcalau12i	$s1, %pc_hi20(A)
	pcalau12i	$s2, %pc_hi20(B)
	pcalau12i	$s3, %pc_hi20(C)
	pcalau12i	$s4, %pc_hi20(D)
	pcalau12i	$s5, %pc_hi20(E)
	pcalau12i	$s6, %pc_hi20(F)
	pcalau12i	$s7, %pc_hi20(g_sum)
	.p2align	4, , 16
.LBB77_3:                               # %for.body.i
                                        # =>This Inner Loop Header: Depth=1
	#APP
	#NO_APP
	#APP
	#NO_APP
	#APP
	#NO_APP
	#APP
	#NO_APP
	#APP
	#NO_APP
	#APP
	#NO_APP
	#MEMBARRIER
	ori	$a0, $zero, 3
	pcaddu18i	$ra, %call36(_ZL17bigLoopWithVW4IC1i)
	jirl	$ra, $ra, 0
	ld.w	$a1, $s7, %pc_lo12(g_sum)
	add.d	$a0, $a1, $a0
	addi.d	$s0, $s0, -1
	st.w	$a0, $s7, %pc_lo12(g_sum)
	bnez	$s0, .LBB77_3
.LBB77_4:                               # %_ZL27runBenchForLoopInterleavingRN9benchmark5StateEPFiiEi.exit
	move	$a0, $fp
	ld.d	$s7, $sp, 16                    # 8-byte Folded Reload
	ld.d	$s6, $sp, 24                    # 8-byte Folded Reload
	ld.d	$s5, $sp, 32                    # 8-byte Folded Reload
	ld.d	$s4, $sp, 40                    # 8-byte Folded Reload
	ld.d	$s3, $sp, 48                    # 8-byte Folded Reload
	ld.d	$s2, $sp, 56                    # 8-byte Folded Reload
	ld.d	$s1, $sp, 64                    # 8-byte Folded Reload
	ld.d	$s0, $sp, 72                    # 8-byte Folded Reload
	ld.d	$fp, $sp, 80                    # 8-byte Folded Reload
	ld.d	$ra, $sp, 88                    # 8-byte Folded Reload
	addi.d	$sp, $sp, 96
	pcaddu18i	$t8, %call36(_ZN9benchmark5State17FinishKeepRunningEv)
	jr	$t8
.Lfunc_end77:
	.size	_Z24benchForIC1VW4BigLoopTC3RN9benchmark5StateE, .Lfunc_end77-_Z24benchForIC1VW4BigLoopTC3RN9benchmark5StateE
	.cfi_endproc
                                        # -- End function
	.globl	_Z24benchForIC2VW4BigLoopTC3RN9benchmark5StateE # -- Begin function _Z24benchForIC2VW4BigLoopTC3RN9benchmark5StateE
	.p2align	5
	.type	_Z24benchForIC2VW4BigLoopTC3RN9benchmark5StateE,@function
_Z24benchForIC2VW4BigLoopTC3RN9benchmark5StateE: # @_Z24benchForIC2VW4BigLoopTC3RN9benchmark5StateE
	.cfi_startproc
# %bb.0:                                # %entry
	addi.d	$sp, $sp, -96
	.cfi_def_cfa_offset 96
	st.d	$ra, $sp, 88                    # 8-byte Folded Spill
	st.d	$fp, $sp, 80                    # 8-byte Folded Spill
	st.d	$s0, $sp, 72                    # 8-byte Folded Spill
	st.d	$s1, $sp, 64                    # 8-byte Folded Spill
	st.d	$s2, $sp, 56                    # 8-byte Folded Spill
	st.d	$s3, $sp, 48                    # 8-byte Folded Spill
	st.d	$s4, $sp, 40                    # 8-byte Folded Spill
	st.d	$s5, $sp, 32                    # 8-byte Folded Spill
	st.d	$s6, $sp, 24                    # 8-byte Folded Spill
	st.d	$s7, $sp, 16                    # 8-byte Folded Spill
	.cfi_offset 1, -8
	.cfi_offset 22, -16
	.cfi_offset 23, -24
	.cfi_offset 24, -32
	.cfi_offset 25, -40
	.cfi_offset 26, -48
	.cfi_offset 27, -56
	.cfi_offset 28, -64
	.cfi_offset 29, -72
	.cfi_offset 30, -80
	move	$fp, $a0
	pcaddu18i	$ra, %call36(_ZL9init_dataj)
	jirl	$ra, $ra, 0
	ld.w	$s1, $fp, 28
	ld.d	$s0, $fp, 16
	move	$a0, $fp
	pcaddu18i	$ra, %call36(_ZN9benchmark5State16StartKeepRunningEv)
	jirl	$ra, $ra, 0
	bnez	$s1, .LBB78_4
# %bb.1:                                # %entry
	beqz	$s0, .LBB78_4
# %bb.2:                                # %for.body.i.preheader
	pcalau12i	$s1, %pc_hi20(A)
	pcalau12i	$s2, %pc_hi20(B)
	pcalau12i	$s3, %pc_hi20(C)
	pcalau12i	$s4, %pc_hi20(D)
	pcalau12i	$s5, %pc_hi20(E)
	pcalau12i	$s6, %pc_hi20(F)
	pcalau12i	$s7, %pc_hi20(g_sum)
	.p2align	4, , 16
.LBB78_3:                               # %for.body.i
                                        # =>This Inner Loop Header: Depth=1
	#APP
	#NO_APP
	#APP
	#NO_APP
	#APP
	#NO_APP
	#APP
	#NO_APP
	#APP
	#NO_APP
	#APP
	#NO_APP
	#MEMBARRIER
	ori	$a0, $zero, 3
	pcaddu18i	$ra, %call36(_ZL17bigLoopWithVW4IC2i)
	jirl	$ra, $ra, 0
	ld.w	$a1, $s7, %pc_lo12(g_sum)
	add.d	$a0, $a1, $a0
	addi.d	$s0, $s0, -1
	st.w	$a0, $s7, %pc_lo12(g_sum)
	bnez	$s0, .LBB78_3
.LBB78_4:                               # %_ZL27runBenchForLoopInterleavingRN9benchmark5StateEPFiiEi.exit
	move	$a0, $fp
	ld.d	$s7, $sp, 16                    # 8-byte Folded Reload
	ld.d	$s6, $sp, 24                    # 8-byte Folded Reload
	ld.d	$s5, $sp, 32                    # 8-byte Folded Reload
	ld.d	$s4, $sp, 40                    # 8-byte Folded Reload
	ld.d	$s3, $sp, 48                    # 8-byte Folded Reload
	ld.d	$s2, $sp, 56                    # 8-byte Folded Reload
	ld.d	$s1, $sp, 64                    # 8-byte Folded Reload
	ld.d	$s0, $sp, 72                    # 8-byte Folded Reload
	ld.d	$fp, $sp, 80                    # 8-byte Folded Reload
	ld.d	$ra, $sp, 88                    # 8-byte Folded Reload
	addi.d	$sp, $sp, 96
	pcaddu18i	$t8, %call36(_ZN9benchmark5State17FinishKeepRunningEv)
	jr	$t8
.Lfunc_end78:
	.size	_Z24benchForIC2VW4BigLoopTC3RN9benchmark5StateE, .Lfunc_end78-_Z24benchForIC2VW4BigLoopTC3RN9benchmark5StateE
	.cfi_endproc
                                        # -- End function
	.globl	_Z24benchForIC4VW4BigLoopTC3RN9benchmark5StateE # -- Begin function _Z24benchForIC4VW4BigLoopTC3RN9benchmark5StateE
	.p2align	5
	.type	_Z24benchForIC4VW4BigLoopTC3RN9benchmark5StateE,@function
_Z24benchForIC4VW4BigLoopTC3RN9benchmark5StateE: # @_Z24benchForIC4VW4BigLoopTC3RN9benchmark5StateE
	.cfi_startproc
# %bb.0:                                # %entry
	addi.d	$sp, $sp, -96
	.cfi_def_cfa_offset 96
	st.d	$ra, $sp, 88                    # 8-byte Folded Spill
	st.d	$fp, $sp, 80                    # 8-byte Folded Spill
	st.d	$s0, $sp, 72                    # 8-byte Folded Spill
	st.d	$s1, $sp, 64                    # 8-byte Folded Spill
	st.d	$s2, $sp, 56                    # 8-byte Folded Spill
	st.d	$s3, $sp, 48                    # 8-byte Folded Spill
	st.d	$s4, $sp, 40                    # 8-byte Folded Spill
	st.d	$s5, $sp, 32                    # 8-byte Folded Spill
	st.d	$s6, $sp, 24                    # 8-byte Folded Spill
	st.d	$s7, $sp, 16                    # 8-byte Folded Spill
	.cfi_offset 1, -8
	.cfi_offset 22, -16
	.cfi_offset 23, -24
	.cfi_offset 24, -32
	.cfi_offset 25, -40
	.cfi_offset 26, -48
	.cfi_offset 27, -56
	.cfi_offset 28, -64
	.cfi_offset 29, -72
	.cfi_offset 30, -80
	move	$fp, $a0
	pcaddu18i	$ra, %call36(_ZL9init_dataj)
	jirl	$ra, $ra, 0
	ld.w	$s1, $fp, 28
	ld.d	$s0, $fp, 16
	move	$a0, $fp
	pcaddu18i	$ra, %call36(_ZN9benchmark5State16StartKeepRunningEv)
	jirl	$ra, $ra, 0
	bnez	$s1, .LBB79_4
# %bb.1:                                # %entry
	beqz	$s0, .LBB79_4
# %bb.2:                                # %for.body.i.preheader
	pcalau12i	$s1, %pc_hi20(A)
	pcalau12i	$s2, %pc_hi20(B)
	pcalau12i	$s3, %pc_hi20(C)
	pcalau12i	$s4, %pc_hi20(D)
	pcalau12i	$s5, %pc_hi20(E)
	pcalau12i	$s6, %pc_hi20(F)
	pcalau12i	$s7, %pc_hi20(g_sum)
	.p2align	4, , 16
.LBB79_3:                               # %for.body.i
                                        # =>This Inner Loop Header: Depth=1
	#APP
	#NO_APP
	#APP
	#NO_APP
	#APP
	#NO_APP
	#APP
	#NO_APP
	#APP
	#NO_APP
	#APP
	#NO_APP
	#MEMBARRIER
	ori	$a0, $zero, 3
	pcaddu18i	$ra, %call36(_ZL17bigLoopWithVW4IC4i)
	jirl	$ra, $ra, 0
	ld.w	$a1, $s7, %pc_lo12(g_sum)
	add.d	$a0, $a1, $a0
	addi.d	$s0, $s0, -1
	st.w	$a0, $s7, %pc_lo12(g_sum)
	bnez	$s0, .LBB79_3
.LBB79_4:                               # %_ZL27runBenchForLoopInterleavingRN9benchmark5StateEPFiiEi.exit
	move	$a0, $fp
	ld.d	$s7, $sp, 16                    # 8-byte Folded Reload
	ld.d	$s6, $sp, 24                    # 8-byte Folded Reload
	ld.d	$s5, $sp, 32                    # 8-byte Folded Reload
	ld.d	$s4, $sp, 40                    # 8-byte Folded Reload
	ld.d	$s3, $sp, 48                    # 8-byte Folded Reload
	ld.d	$s2, $sp, 56                    # 8-byte Folded Reload
	ld.d	$s1, $sp, 64                    # 8-byte Folded Reload
	ld.d	$s0, $sp, 72                    # 8-byte Folded Reload
	ld.d	$fp, $sp, 80                    # 8-byte Folded Reload
	ld.d	$ra, $sp, 88                    # 8-byte Folded Reload
	addi.d	$sp, $sp, 96
	pcaddu18i	$t8, %call36(_ZN9benchmark5State17FinishKeepRunningEv)
	jr	$t8
.Lfunc_end79:
	.size	_Z24benchForIC4VW4BigLoopTC3RN9benchmark5StateE, .Lfunc_end79-_Z24benchForIC4VW4BigLoopTC3RN9benchmark5StateE
	.cfi_endproc
                                        # -- End function
	.globl	_Z38benchForBigLoopWithReductionAutoVecTC3RN9benchmark5StateE # -- Begin function _Z38benchForBigLoopWithReductionAutoVecTC3RN9benchmark5StateE
	.p2align	5
	.type	_Z38benchForBigLoopWithReductionAutoVecTC3RN9benchmark5StateE,@function
_Z38benchForBigLoopWithReductionAutoVecTC3RN9benchmark5StateE: # @_Z38benchForBigLoopWithReductionAutoVecTC3RN9benchmark5StateE
	.cfi_startproc
# %bb.0:                                # %entry
	addi.d	$sp, $sp, -96
	.cfi_def_cfa_offset 96
	st.d	$ra, $sp, 88                    # 8-byte Folded Spill
	st.d	$fp, $sp, 80                    # 8-byte Folded Spill
	st.d	$s0, $sp, 72                    # 8-byte Folded Spill
	st.d	$s1, $sp, 64                    # 8-byte Folded Spill
	st.d	$s2, $sp, 56                    # 8-byte Folded Spill
	st.d	$s3, $sp, 48                    # 8-byte Folded Spill
	st.d	$s4, $sp, 40                    # 8-byte Folded Spill
	st.d	$s5, $sp, 32                    # 8-byte Folded Spill
	st.d	$s6, $sp, 24                    # 8-byte Folded Spill
	st.d	$s7, $sp, 16                    # 8-byte Folded Spill
	.cfi_offset 1, -8
	.cfi_offset 22, -16
	.cfi_offset 23, -24
	.cfi_offset 24, -32
	.cfi_offset 25, -40
	.cfi_offset 26, -48
	.cfi_offset 27, -56
	.cfi_offset 28, -64
	.cfi_offset 29, -72
	.cfi_offset 30, -80
	move	$fp, $a0
	pcaddu18i	$ra, %call36(_ZL9init_dataj)
	jirl	$ra, $ra, 0
	ld.w	$s1, $fp, 28
	ld.d	$s0, $fp, 16
	move	$a0, $fp
	pcaddu18i	$ra, %call36(_ZN9benchmark5State16StartKeepRunningEv)
	jirl	$ra, $ra, 0
	bnez	$s1, .LBB80_4
# %bb.1:                                # %entry
	beqz	$s0, .LBB80_4
# %bb.2:                                # %for.body.i.preheader
	pcalau12i	$s1, %pc_hi20(A)
	pcalau12i	$s2, %pc_hi20(B)
	pcalau12i	$s3, %pc_hi20(C)
	pcalau12i	$s4, %pc_hi20(D)
	pcalau12i	$s5, %pc_hi20(E)
	pcalau12i	$s6, %pc_hi20(F)
	pcalau12i	$s7, %pc_hi20(g_sum)
	.p2align	4, , 16
.LBB80_3:                               # %for.body.i
                                        # =>This Inner Loop Header: Depth=1
	#APP
	#NO_APP
	#APP
	#NO_APP
	#APP
	#NO_APP
	#APP
	#NO_APP
	#APP
	#NO_APP
	#APP
	#NO_APP
	#MEMBARRIER
	ori	$a0, $zero, 3
	pcaddu18i	$ra, %call36(_ZL27bigLoopWithReductionAutoVeci)
	jirl	$ra, $ra, 0
	ld.w	$a1, $s7, %pc_lo12(g_sum)
	add.d	$a0, $a1, $a0
