	.file	"MathFunctions.cpp"
                                        # Start of file scope inline assembly
	.globl	_ZSt21ios_base_library_initv

                                        # End of file scope inline assembly
	.text
	.globl	_Z29BENCHMARK_expf_autovec_float_RN9benchmark5StateE # -- Begin function _Z29BENCHMARK_expf_autovec_float_RN9benchmark5StateE
	.p2align	5
	.type	_Z29BENCHMARK_expf_autovec_float_RN9benchmark5StateE,@function
_Z29BENCHMARK_expf_autovec_float_RN9benchmark5StateE: # @_Z29BENCHMARK_expf_autovec_float_RN9benchmark5StateE
.Lfunc_begin0:
	.cfi_startproc
	.cfi_personality 155, DW.ref.__gxx_personality_v0
	.cfi_lsda 27, .Lexception0
# %bb.0:                                # %entry
	addi.d	$sp, $sp, -128
	.cfi_def_cfa_offset 128
	st.d	$ra, $sp, 120                   # 8-byte Folded Spill
	st.d	$fp, $sp, 112                   # 8-byte Folded Spill
	st.d	$s0, $sp, 104                   # 8-byte Folded Spill
	st.d	$s1, $sp, 96                    # 8-byte Folded Spill
	st.d	$s2, $sp, 88                    # 8-byte Folded Spill
	st.d	$s3, $sp, 80                    # 8-byte Folded Spill
	st.d	$s4, $sp, 72                    # 8-byte Folded Spill
	st.d	$s5, $sp, 64                    # 8-byte Folded Spill
	st.d	$s6, $sp, 56                    # 8-byte Folded Spill
	st.d	$s7, $sp, 48                    # 8-byte Folded Spill
	st.d	$s8, $sp, 40                    # 8-byte Folded Spill
	fst.d	$fs0, $sp, 32                   # 8-byte Folded Spill
	.cfi_offset 1, -8
	.cfi_offset 22, -16
	.cfi_offset 23, -24
	.cfi_offset 24, -32
	.cfi_offset 25, -40
	.cfi_offset 26, -48
	.cfi_offset 27, -56
	.cfi_offset 28, -64
	.cfi_offset 29, -72
	.cfi_offset 30, -80
	.cfi_offset 31, -88
	.cfi_offset 56, -96
	move	$s0, $a0
	lu12i.w	$a0, 9
	ori	$s4, $a0, 3136
	move	$a0, $s4
	pcaddu18i	$ra, %call36(_Znam)
	jirl	$ra, $ra, 0
	move	$s2, $a0
	st.d	$a0, $sp, 24
.Ltmp0:                                 # EH_LABEL
	move	$a0, $s4
	pcaddu18i	$ra, %call36(_Znam)
	jirl	$ra, $ra, 0
.Ltmp1:                                 # EH_LABEL
# %bb.1:                                # %invoke.cont.i
	move	$s3, $a0
	st.d	$a0, $sp, 16
.Ltmp3:                                 # EH_LABEL
	move	$a0, $s4
	pcaddu18i	$ra, %call36(_Znam)
	jirl	$ra, $ra, 0
.Ltmp4:                                 # EH_LABEL
# %bb.2:                                # %invoke.cont3.i
	move	$fp, $a0
	st.d	$a0, $sp, 8
	move	$a0, $s2
	move	$a1, $s3
	move	$a2, $fp
	pcaddu18i	$ra, %call36(_ZL9init_dataIfEvPT_S1_S1_)
	jirl	$ra, $ra, 0
.Ltmp6:                                 # EH_LABEL
	move	$a0, $s4
	pcaddu18i	$ra, %call36(_Znam)
	jirl	$ra, $ra, 0
.Ltmp7:                                 # EH_LABEL
# %bb.3:                                # %vector.body.preheader
	move	$s1, $a0
	move	$a0, $zero
	.p2align	4, , 16
.LBB0_4:                                # %vector.body
                                        # =>This Inner Loop Header: Depth=1
	vldx	$vr0, $fp, $a0
	add.d	$a1, $fp, $a0
	vld	$vr1, $a1, 16
	add.d	$a1, $s1, $a0
	vstx	$vr0, $s1, $a0
	addi.d	$a0, $a0, 32
	vst	$vr1, $a1, 16
	bne	$a0, $s4, .LBB0_4
# %bb.5:                                # %for.body.i14.preheader
	move	$s5, $zero
	.p2align	4, , 16
.LBB0_6:                                # %for.body.i14
                                        # =>This Inner Loop Header: Depth=1
	fldx.s	$fa0, $s2, $s5
	pcaddu18i	$ra, %call36(expf)
	jirl	$ra, $ra, 0
	fldx.s	$fa1, $s3, $s5
	fmov.s	$fs0, $fa0
	fmov.s	$fa0, $fa1
	pcaddu18i	$ra, %call36(expf)
	jirl	$ra, $ra, 0
	fadd.s	$fa0, $fs0, $fa0
	fstx.s	$fa0, $s1, $s5
	addi.d	$s5, $s5, 4
	bne	$s5, $s4, .LBB0_6
# %bb.7:                                # %for.body.i22.preheader
	move	$s5, $zero
	.p2align	4, , 16
.LBB0_8:                                # %for.body.i22
                                        # =>This Inner Loop Header: Depth=1
	fldx.s	$fa0, $s2, $s5
	pcaddu18i	$ra, %call36(expf)
	jirl	$ra, $ra, 0
	fldx.s	$fa1, $s3, $s5
	fmov.s	$fs0, $fa0
	fmov.s	$fa0, $fa1
	pcaddu18i	$ra, %call36(expf)
	jirl	$ra, $ra, 0
	fadd.s	$fa0, $fs0, $fa0
	fstx.s	$fa0, $fp, $s5
	addi.d	$s5, $s5, 4
	bne	$s5, $s4, .LBB0_8
# %bb.9:                                # %for.body41.i.preheader
	move	$s2, $zero
	movgr2fr.w	$fa0, $zero
	lu12i.w	$a0, 2048
	movgr2fr.w	$fa1, $a0
	lu12i.w	$a0, 2
	ori	$s3, $a0, 1808
	move	$s4, $s1
	move	$s5, $fp
	b	.LBB0_13
.LBB0_10:                               #   in Loop: Header=BB0_13 Depth=1
	move	$a0, $zero
	.p2align	4, , 16
.LBB0_11:                               # %_ZSt10fpclassifyf.exit49
                                        #   in Loop: Header=BB0_13 Depth=1
	bne	$a1, $a0, .LBB0_38
.LBB0_12:                               # %for.inc81.i
                                        #   in Loop: Header=BB0_13 Depth=1
	addi.d	$s2, $s2, 1
	addi.d	$s5, $s5, 4
	addi.d	$s4, $s4, 4
	beq	$s2, $s3, .LBB0_23
.LBB0_13:                               # %for.body41.i
                                        # =>This Inner Loop Header: Depth=1
	fld.s	$fa3, $s5, 0
	fld.s	$fa2, $s4, 0
	fcmp.ceq.s	$fcc0, $fa3, $fa2
	bcnez	$fcc0, .LBB0_12
# %bb.14:                               # %land.lhs.true.i
                                        #   in Loop: Header=BB0_13 Depth=1
	ori	$a0, $zero, 2
	fcmp.ceq.s	$fcc0, $fa3, $fa0
	ori	$a1, $zero, 2
	bcnez	$fcc0, .LBB0_18
# %bb.15:                               # %fpclassify_not_zero.i
                                        #   in Loop: Header=BB0_13 Depth=1
	fcmp.cun.s	$fcc0, $fa3, $fa3
	bcnez	$fcc0, .LBB0_22
# %bb.16:                               # %fpclassify_not_nan.i
                                        #   in Loop: Header=BB0_13 Depth=1
	fclass.s	$fa4, $fa3
	movfr2gr.s	$a1, $fa4
	andi	$a1, $a1, 68
	sltu	$a1, $zero, $a1
	andi	$a2, $a1, 1
	ori	$a1, $zero, 1
	bnez	$a2, .LBB0_18
# %bb.17:                               # %fpclassify_not_inf.i
                                        #   in Loop: Header=BB0_13 Depth=1
	fabs.s	$fa3, $fa3
	fcmp.cule.s	$fcc0, $fa1, $fa3
	movcf2gr	$a1, $fcc0
	addi.d	$a1, $a1, 3
	.p2align	4, , 16
.LBB0_18:                               # %_ZSt10fpclassifyf.exit
                                        #   in Loop: Header=BB0_13 Depth=1
	fcmp.ceq.s	$fcc0, $fa2, $fa0
	bcnez	$fcc0, .LBB0_11
.LBB0_19:                               # %fpclassify_not_zero.i42
                                        #   in Loop: Header=BB0_13 Depth=1
	fcmp.cun.s	$fcc0, $fa2, $fa2
	bcnez	$fcc0, .LBB0_10
# %bb.20:                               # %fpclassify_not_nan.i44
                                        #   in Loop: Header=BB0_13 Depth=1
	fclass.s	$fa3, $fa2
	movfr2gr.s	$a0, $fa3
	andi	$a0, $a0, 68
	sltu	$a0, $zero, $a0
	andi	$a2, $a0, 1
	ori	$a0, $zero, 1
	bnez	$a2, .LBB0_11
# %bb.21:                               # %fpclassify_not_inf.i46
                                        #   in Loop: Header=BB0_13 Depth=1
	fabs.s	$fa2, $fa2
	fcmp.cule.s	$fcc0, $fa1, $fa2
	movcf2gr	$a0, $fcc0
	addi.d	$a0, $a0, 3
	b	.LBB0_11
.LBB0_22:                               #   in Loop: Header=BB0_13 Depth=1
	move	$a1, $zero
	fcmp.ceq.s	$fcc0, $fa2, $fa0
	bcnez	$fcc0, .LBB0_11
	b	.LBB0_19
.LBB0_23:                               # %_ZNSt10unique_ptrIA_fSt14default_deleteIS0_EED2Ev.exit
	move	$a0, $s1
	pcaddu18i	$ra, %call36(_ZdaPv)
	jirl	$ra, $ra, 0
	ld.w	$s1, $s0, 28
	ld.d	$fp, $s0, 16
.Ltmp24:                                # EH_LABEL
	move	$a0, $s0
	pcaddu18i	$ra, %call36(_ZN9benchmark5State16StartKeepRunningEv)
	jirl	$ra, $ra, 0
.Ltmp25:                                # EH_LABEL
# %bb.24:                               # %for.cond91.i.preheader
	bnez	$s1, .LBB0_30
# %bb.25:                               # %for.cond91.i.preheader
	beqz	$fp, .LBB0_30
# %bb.26:
	addi.d	$s1, $sp, 24
	addi.d	$s2, $sp, 16
	addi.d	$s4, $sp, 8
	.p2align	4, , 16
.LBB0_27:                               # %for.body95.i
                                        # =>This Loop Header: Depth=1
                                        #     Child Loop BB0_28 Depth 2
	ld.d	$s5, $sp, 24
	ld.d	$s6, $sp, 16
	ld.d	$s7, $sp, 8
	move	$s8, $s3
	.p2align	4, , 16
.LBB0_28:                               # %for.body.i79
                                        #   Parent Loop BB0_27 Depth=1
                                        # =>  This Inner Loop Header: Depth=2
	fld.s	$fa0, $s5, 0
	pcaddu18i	$ra, %call36(expf)
	jirl	$ra, $ra, 0
	fld.s	$fa1, $s6, 0
	fmov.s	$fs0, $fa0
	fmov.s	$fa0, $fa1
	pcaddu18i	$ra, %call36(expf)
	jirl	$ra, $ra, 0
	fadd.s	$fa0, $fs0, $fa0
	fst.s	$fa0, $s7, 0
	addi.d	$s8, $s8, -1
	addi.d	$s7, $s7, 4
	addi.d	$s6, $s6, 4
	addi.d	$s5, $s5, 4
	bnez	$s8, .LBB0_28
# %bb.29:                               # %invoke.cont105.i
                                        #   in Loop: Header=BB0_27 Depth=1
	#APP
	#NO_APP
	#APP
	#NO_APP
	#APP
	#NO_APP
	addi.d	$fp, $fp, -1
	#MEMBARRIER
	bnez	$fp, .LBB0_27
.LBB0_30:                               # %if.end.i
.Ltmp26:                                # EH_LABEL
	move	$a0, $s0
	pcaddu18i	$ra, %call36(_ZN9benchmark5State17FinishKeepRunningEv)
	jirl	$ra, $ra, 0
.Ltmp27:                                # EH_LABEL
# %bb.31:                               # %_ZL20benchmark_fn_autovecIfEvRN9benchmark5StateEPFT_S3_E.exit
	ld.d	$a0, $sp, 8
	beqz	$a0, .LBB0_33
# %bb.32:                               # %_ZNKSt14default_deleteIA_fEclIfEENSt9enable_ifIXsr14is_convertibleIPA_T_PS0_EE5valueEvE4typeEPS4_.exit.i104
	pcaddu18i	$ra, %call36(_ZdaPv)
	jirl	$ra, $ra, 0
.LBB0_33:                               # %_ZNSt10unique_ptrIA_fSt14default_deleteIS0_EED2Ev.exit106
	ld.d	$a0, $sp, 16
	beqz	$a0, .LBB0_35
# %bb.34:                               # %_ZNKSt14default_deleteIA_fEclIfEENSt9enable_ifIXsr14is_convertibleIPA_T_PS0_EE5valueEvE4typeEPS4_.exit.i108
	pcaddu18i	$ra, %call36(_ZdaPv)
	jirl	$ra, $ra, 0
.LBB0_35:                               # %_ZNSt10unique_ptrIA_fSt14default_deleteIS0_EED2Ev.exit110
	ld.d	$a0, $sp, 24
	beqz	$a0, .LBB0_37
# %bb.36:                               # %_ZNKSt14default_deleteIA_fEclIfEENSt9enable_ifIXsr14is_convertibleIPA_T_PS0_EE5valueEvE4typeEPS4_.exit.i112
	pcaddu18i	$ra, %call36(_ZdaPv)
	jirl	$ra, $ra, 0
.LBB0_37:                               # %_ZNSt10unique_ptrIA_fSt14default_deleteIS0_EED2Ev.exit114
	fld.d	$fs0, $sp, 32                   # 8-byte Folded Reload
	ld.d	$s8, $sp, 40                    # 8-byte Folded Reload
	ld.d	$s7, $sp, 48                    # 8-byte Folded Reload
	ld.d	$s6, $sp, 56                    # 8-byte Folded Reload
	ld.d	$s5, $sp, 64                    # 8-byte Folded Reload
	ld.d	$s4, $sp, 72                    # 8-byte Folded Reload
	ld.d	$s3, $sp, 80                    # 8-byte Folded Reload
	ld.d	$s2, $sp, 88                    # 8-byte Folded Reload
	ld.d	$s1, $sp, 96                    # 8-byte Folded Reload
	ld.d	$s0, $sp, 104                   # 8-byte Folded Reload
	ld.d	$fp, $sp, 112                   # 8-byte Folded Reload
	ld.d	$ra, $sp, 120                   # 8-byte Folded Reload
	addi.d	$sp, $sp, 128
	ret
.LBB0_38:                               # %if.then.i
.Ltmp9:                                 # EH_LABEL
	pcalau12i	$a0, %got_pc_hi20(_ZSt4cerr)
	ld.d	$a0, $a0, %got_pc_lo12(_ZSt4cerr)
	pcalau12i	$a1, %pc_hi20(.L.str.73)
	addi.d	$a1, $a1, %pc_lo12(.L.str.73)
	ori	$a2, $zero, 49
	pcaddu18i	$ra, %call36(_ZSt16__ostream_insertIcSt11char_traitsIcEERSt13basic_ostreamIT_T0_ES6_PKS3_l)
	jirl	$ra, $ra, 0
.Ltmp10:                                # EH_LABEL
# %bb.39:                               # %invoke.cont61.i
	fld.s	$fa0, $s5, 0
	fcvt.d.s	$fa0, $fa0
.Ltmp11:                                # EH_LABEL
	pcalau12i	$a0, %got_pc_hi20(_ZSt4cerr)
	ld.d	$a0, $a0, %got_pc_lo12(_ZSt4cerr)
	pcaddu18i	$ra, %call36(_ZNSo9_M_insertIdEERSoT_)
	jirl	$ra, $ra, 0
.Ltmp12:                                # EH_LABEL
# %bb.40:                               # %invoke.cont66.i
.Ltmp13:                                # EH_LABEL
	move	$s0, $a0
	pcalau12i	$a0, %pc_hi20(.L.str.74)
	addi.d	$a1, $a0, %pc_lo12(.L.str.74)
	ori	$a2, $zero, 4
	move	$a0, $s0
	pcaddu18i	$ra, %call36(_ZSt16__ostream_insertIcSt11char_traitsIcEERSt13basic_ostreamIT_T0_ES6_PKS3_l)
	jirl	$ra, $ra, 0
.Ltmp14:                                # EH_LABEL
# %bb.41:                               # %invoke.cont68.i
	fld.s	$fa0, $s4, 0
	fcvt.d.s	$fa0, $fa0
.Ltmp15:                                # EH_LABEL
	move	$a0, $s0
	pcaddu18i	$ra, %call36(_ZNSo9_M_insertIdEERSoT_)
	jirl	$ra, $ra, 0
.Ltmp16:                                # EH_LABEL
# %bb.42:                               # %invoke.cont73.i
.Ltmp17:                                # EH_LABEL
	move	$s0, $a0
	pcalau12i	$a0, %pc_hi20(.L.str.75)
	addi.d	$a1, $a0, %pc_lo12(.L.str.75)
	ori	$a2, $zero, 10
	move	$a0, $s0
	pcaddu18i	$ra, %call36(_ZSt16__ostream_insertIcSt11char_traitsIcEERSt13basic_ostreamIT_T0_ES6_PKS3_l)
	jirl	$ra, $ra, 0
.Ltmp18:                                # EH_LABEL
# %bb.43:                               # %invoke.cont75.i
.Ltmp19:                                # EH_LABEL
	move	$a0, $s0
	move	$a1, $s2
	pcaddu18i	$ra, %call36(_ZNSo9_M_insertImEERSoT_)
	jirl	$ra, $ra, 0
.Ltmp20:                                # EH_LABEL
# %bb.44:                               # %invoke.cont77.i
.Ltmp21:                                # EH_LABEL
	pcalau12i	$a1, %pc_hi20(.L.str.76)
	addi.d	$a1, $a1, %pc_lo12(.L.str.76)
	pcaddu18i	$ra, %call36(_ZStlsISt11char_traitsIcEERSt13basic_ostreamIcT_ES5_PKc)
	jirl	$ra, $ra, 0
.Ltmp22:                                # EH_LABEL
# %bb.45:                               # %invoke.cont79.i
	ori	$a0, $zero, 1
	pcaddu18i	$ra, %call36(exit)
	jirl	$ra, $ra, 0
.LBB0_46:                               # %lpad13.i
.Ltmp8:                                 # EH_LABEL
	move	$s0, $a0
	b	.LBB0_54
.LBB0_47:                               # %ehcleanup119.i.thread
.Ltmp5:                                 # EH_LABEL
	move	$s0, $a0
	b	.LBB0_55
.LBB0_48:                               # %ehcleanup121.i.thread
.Ltmp2:                                 # EH_LABEL
	move	$s0, $a0
	move	$a0, $s2
	pcaddu18i	$ra, %call36(_ZdaPv)
	jirl	$ra, $ra, 0
	move	$a0, $s0
	pcaddu18i	$ra, %call36(_Unwind_Resume)
	jirl	$ra, $ra, 0
.LBB0_49:                               # %ehcleanup118.i
.Ltmp28:                                # EH_LABEL
	ld.d	$fp, $sp, 8
	move	$s0, $a0
	bnez	$fp, .LBB0_54
# %bb.50:                               # %ehcleanup119.i
	ld.d	$s3, $sp, 16
	bnez	$s3, .LBB0_55
.LBB0_51:                               # %ehcleanup121.i
	ld.d	$s2, $sp, 24
	bnez	$s2, .LBB0_56
.LBB0_52:                               # %_ZNSt10unique_ptrIA_fSt14default_deleteIS0_EED2Ev.exit102
	move	$a0, $s0
	pcaddu18i	$ra, %call36(_Unwind_Resume)
	jirl	$ra, $ra, 0
.LBB0_53:                               # %lpad43.i
.Ltmp23:                                # EH_LABEL
	move	$s0, $a0
	move	$a0, $s1
	pcaddu18i	$ra, %call36(_ZdaPv)
	jirl	$ra, $ra, 0
.LBB0_54:                               # %_ZNKSt14default_deleteIA_fEclIfEENSt9enable_ifIXsr14is_convertibleIPA_T_PS0_EE5valueEvE4typeEPS4_.exit.i92
	move	$a0, $fp
	pcaddu18i	$ra, %call36(_ZdaPv)
	jirl	$ra, $ra, 0
	ld.d	$s3, $sp, 16
	beqz	$s3, .LBB0_51
.LBB0_55:                               # %_ZNKSt14default_deleteIA_fEclIfEENSt9enable_ifIXsr14is_convertibleIPA_T_PS0_EE5valueEvE4typeEPS4_.exit.i96
	move	$a0, $s3
	pcaddu18i	$ra, %call36(_ZdaPv)
	jirl	$ra, $ra, 0
	ld.d	$s2, $sp, 24
	beqz	$s2, .LBB0_52
.LBB0_56:                               # %_ZNKSt14default_deleteIA_fEclIfEENSt9enable_ifIXsr14is_convertibleIPA_T_PS0_EE5valueEvE4typeEPS4_.exit.i100
	move	$a0, $s2
	pcaddu18i	$ra, %call36(_ZdaPv)
	jirl	$ra, $ra, 0
	move	$a0, $s0
	pcaddu18i	$ra, %call36(_Unwind_Resume)
	jirl	$ra, $ra, 0
.Lfunc_end0:
	.size	_Z29BENCHMARK_expf_autovec_float_RN9benchmark5StateE, .Lfunc_end0-_Z29BENCHMARK_expf_autovec_float_RN9benchmark5StateE
	.cfi_endproc
	.section	.gcc_except_table,"a",@progbits
	.p2align	2, 0x0
GCC_except_table0:
.Lexception0:
	.byte	255                             # @LPStart Encoding = omit
	.byte	255                             # @TType Encoding = omit
	.byte	1                               # Call site Encoding = uleb128
	.uleb128 .Lcst_end0-.Lcst_begin0
.Lcst_begin0:
	.uleb128 .Lfunc_begin0-.Lfunc_begin0    # >> Call Site 1 <<
	.uleb128 .Ltmp0-.Lfunc_begin0           #   Call between .Lfunc_begin0 and .Ltmp0
	.byte	0                               #     has no landing pad
	.byte	0                               #   On action: cleanup
	.uleb128 .Ltmp0-.Lfunc_begin0           # >> Call Site 2 <<
	.uleb128 .Ltmp1-.Ltmp0                  #   Call between .Ltmp0 and .Ltmp1
	.uleb128 .Ltmp2-.Lfunc_begin0           #     jumps to .Ltmp2
	.byte	0                               #   On action: cleanup
	.uleb128 .Ltmp3-.Lfunc_begin0           # >> Call Site 3 <<
	.uleb128 .Ltmp4-.Ltmp3                  #   Call between .Ltmp3 and .Ltmp4
	.uleb128 .Ltmp5-.Lfunc_begin0           #     jumps to .Ltmp5
	.byte	0                               #   On action: cleanup
	.uleb128 .Ltmp4-.Lfunc_begin0           # >> Call Site 4 <<
	.uleb128 .Ltmp6-.Ltmp4                  #   Call between .Ltmp4 and .Ltmp6
	.byte	0                               #     has no landing pad
	.byte	0                               #   On action: cleanup
	.uleb128 .Ltmp6-.Lfunc_begin0           # >> Call Site 5 <<
	.uleb128 .Ltmp7-.Ltmp6                  #   Call between .Ltmp6 and .Ltmp7
	.uleb128 .Ltmp8-.Lfunc_begin0           #     jumps to .Ltmp8
	.byte	0                               #   On action: cleanup
	.uleb128 .Ltmp7-.Lfunc_begin0           # >> Call Site 6 <<
	.uleb128 .Ltmp24-.Ltmp7                 #   Call between .Ltmp7 and .Ltmp24
	.byte	0                               #     has no landing pad
	.byte	0                               #   On action: cleanup
	.uleb128 .Ltmp24-.Lfunc_begin0          # >> Call Site 7 <<
	.uleb128 .Ltmp25-.Ltmp24                #   Call between .Ltmp24 and .Ltmp25
	.uleb128 .Ltmp28-.Lfunc_begin0          #     jumps to .Ltmp28
	.byte	0                               #   On action: cleanup
	.uleb128 .Ltmp25-.Lfunc_begin0          # >> Call Site 8 <<
	.uleb128 .Ltmp26-.Ltmp25                #   Call between .Ltmp25 and .Ltmp26
	.byte	0                               #     has no landing pad
	.byte	0                               #   On action: cleanup
	.uleb128 .Ltmp26-.Lfunc_begin0          # >> Call Site 9 <<
	.uleb128 .Ltmp27-.Ltmp26                #   Call between .Ltmp26 and .Ltmp27
	.uleb128 .Ltmp28-.Lfunc_begin0          #     jumps to .Ltmp28
	.byte	0                               #   On action: cleanup
	.uleb128 .Ltmp27-.Lfunc_begin0          # >> Call Site 10 <<
	.uleb128 .Ltmp9-.Ltmp27                 #   Call between .Ltmp27 and .Ltmp9
	.byte	0                               #     has no landing pad
	.byte	0                               #   On action: cleanup
	.uleb128 .Ltmp9-.Lfunc_begin0           # >> Call Site 11 <<
	.uleb128 .Ltmp22-.Ltmp9                 #   Call between .Ltmp9 and .Ltmp22
	.uleb128 .Ltmp23-.Lfunc_begin0          #     jumps to .Ltmp23
	.byte	0                               #   On action: cleanup
	.uleb128 .Ltmp22-.Lfunc_begin0          # >> Call Site 12 <<
	.uleb128 .Lfunc_end0-.Ltmp22            #   Call between .Ltmp22 and .Lfunc_end0
	.byte	0                               #     has no landing pad
	.byte	0                               #   On action: cleanup
.Lcst_end0:
	.p2align	2, 0x0
                                        # -- End function
	.text
	.globl	_Z27BENCHMARK_expf_novec_float_RN9benchmark5StateE # -- Begin function _Z27BENCHMARK_expf_novec_float_RN9benchmark5StateE
	.p2align	5
	.type	_Z27BENCHMARK_expf_novec_float_RN9benchmark5StateE,@function
_Z27BENCHMARK_expf_novec_float_RN9benchmark5StateE: # @_Z27BENCHMARK_expf_novec_float_RN9benchmark5StateE
.Lfunc_begin1:
	.cfi_startproc
	.cfi_personality 155, DW.ref.__gxx_personality_v0
	.cfi_lsda 27, .Lexception1
# %bb.0:                                # %entry
	addi.d	$sp, $sp, -128
	.cfi_def_cfa_offset 128
	st.d	$ra, $sp, 120                   # 8-byte Folded Spill
	st.d	$fp, $sp, 112                   # 8-byte Folded Spill
	st.d	$s0, $sp, 104                   # 8-byte Folded Spill
	st.d	$s1, $sp, 96                    # 8-byte Folded Spill
	st.d	$s2, $sp, 88                    # 8-byte Folded Spill
	st.d	$s3, $sp, 80                    # 8-byte Folded Spill
	st.d	$s4, $sp, 72                    # 8-byte Folded Spill
	st.d	$s5, $sp, 64                    # 8-byte Folded Spill
	st.d	$s6, $sp, 56                    # 8-byte Folded Spill
	st.d	$s7, $sp, 48                    # 8-byte Folded Spill
	st.d	$s8, $sp, 40                    # 8-byte Folded Spill
	fst.d	$fs0, $sp, 32                   # 8-byte Folded Spill
	.cfi_offset 1, -8
	.cfi_offset 22, -16
	.cfi_offset 23, -24
	.cfi_offset 24, -32
	.cfi_offset 25, -40
	.cfi_offset 26, -48
	.cfi_offset 27, -56
	.cfi_offset 28, -64
	.cfi_offset 29, -72
	.cfi_offset 30, -80
	.cfi_offset 31, -88
	.cfi_offset 56, -96
	move	$fp, $a0
	lu12i.w	$a0, 9
	ori	$s2, $a0, 3136
	move	$a0, $s2
	pcaddu18i	$ra, %call36(_Znam)
	jirl	$ra, $ra, 0
	move	$s0, $a0
	st.d	$a0, $sp, 24
.Ltmp29:                                # EH_LABEL
	move	$a0, $s2
	pcaddu18i	$ra, %call36(_Znam)
	jirl	$ra, $ra, 0
.Ltmp30:                                # EH_LABEL
# %bb.1:                                # %invoke.cont.i
	move	$s1, $a0
	st.d	$a0, $sp, 16
.Ltmp32:                                # EH_LABEL
	move	$a0, $s2
	pcaddu18i	$ra, %call36(_Znam)
	jirl	$ra, $ra, 0
.Ltmp33:                                # EH_LABEL
# %bb.2:                                # %invoke.cont3.i
	move	$a2, $a0
	st.d	$a0, $sp, 8
	move	$a0, $s0
	move	$a1, $s1
	pcaddu18i	$ra, %call36(_ZL9init_dataIfEvPT_S1_S1_)
	jirl	$ra, $ra, 0
	ld.w	$s1, $fp, 28
	ld.d	$s0, $fp, 16
.Ltmp35:                                # EH_LABEL
	move	$a0, $fp
	pcaddu18i	$ra, %call36(_ZN9benchmark5State16StartKeepRunningEv)
	jirl	$ra, $ra, 0
.Ltmp36:                                # EH_LABEL
# %bb.3:                                # %for.cond.i.preheader
	bnez	$s1, .LBB1_9
# %bb.4:                                # %for.cond.i.preheader
	beqz	$s0, .LBB1_9
# %bb.5:
	lu12i.w	$a0, 2
	ori	$s1, $a0, 1808
	addi.d	$s2, $sp, 24
	addi.d	$s3, $sp, 16
	addi.d	$s4, $sp, 8
	.p2align	4, , 16
.LBB1_6:                                # %for.body.i
                                        # =>This Loop Header: Depth=1
                                        #     Child Loop BB1_7 Depth 2
	ld.d	$s5, $sp, 24
	ld.d	$s6, $sp, 16
	ld.d	$s7, $sp, 8
	move	$s8, $s1
	.p2align	4, , 16
.LBB1_7:                                # %for.body.i13
                                        #   Parent Loop BB1_6 Depth=1
                                        # =>  This Inner Loop Header: Depth=2
	fld.s	$fa0, $s5, 0
	pcaddu18i	$ra, %call36(expf)
	jirl	$ra, $ra, 0
	fld.s	$fa1, $s6, 0
	fmov.s	$fs0, $fa0
	fmov.s	$fa0, $fa1
	pcaddu18i	$ra, %call36(expf)
	jirl	$ra, $ra, 0
	fadd.s	$fa0, $fs0, $fa0
	fst.s	$fa0, $s7, 0
	addi.d	$s8, $s8, -1
	addi.d	$s7, $s7, 4
	addi.d	$s6, $s6, 4
	addi.d	$s5, $s5, 4
	bnez	$s8, .LBB1_7
# %bb.8:                                # %invoke.cont23.i
                                        #   in Loop: Header=BB1_6 Depth=1
	#APP
	#NO_APP
	#APP
	#NO_APP
	#APP
	#NO_APP
	addi.d	$s0, $s0, -1
	bnez	$s0, .LBB1_6
.LBB1_9:                                # %if.end.i
.Ltmp37:                                # EH_LABEL
	move	$a0, $fp
	pcaddu18i	$ra, %call36(_ZN9benchmark5State17FinishKeepRunningEv)
	jirl	$ra, $ra, 0
.Ltmp38:                                # EH_LABEL
# %bb.10:                               # %_ZL18benchmark_fn_novecIfEvRN9benchmark5StateEPFT_S3_E.exit
	ld.d	$a0, $sp, 8
	beqz	$a0, .LBB1_12
# %bb.11:                               # %_ZNKSt14default_deleteIA_fEclIfEENSt9enable_ifIXsr14is_convertibleIPA_T_PS0_EE5valueEvE4typeEPS4_.exit.i26
	pcaddu18i	$ra, %call36(_ZdaPv)
	jirl	$ra, $ra, 0
.LBB1_12:                               # %_ZNSt10unique_ptrIA_fSt14default_deleteIS0_EED2Ev.exit28
	ld.d	$a0, $sp, 16
	beqz	$a0, .LBB1_14
# %bb.13:                               # %_ZNKSt14default_deleteIA_fEclIfEENSt9enable_ifIXsr14is_convertibleIPA_T_PS0_EE5valueEvE4typeEPS4_.exit.i30
	pcaddu18i	$ra, %call36(_ZdaPv)
	jirl	$ra, $ra, 0
.LBB1_14:                               # %_ZNSt10unique_ptrIA_fSt14default_deleteIS0_EED2Ev.exit32
	ld.d	$a0, $sp, 24
	beqz	$a0, .LBB1_16
# %bb.15:                               # %_ZNKSt14default_deleteIA_fEclIfEENSt9enable_ifIXsr14is_convertibleIPA_T_PS0_EE5valueEvE4typeEPS4_.exit.i34
	pcaddu18i	$ra, %call36(_ZdaPv)
	jirl	$ra, $ra, 0
.LBB1_16:                               # %_ZNSt10unique_ptrIA_fSt14default_deleteIS0_EED2Ev.exit36
	fld.d	$fs0, $sp, 32                   # 8-byte Folded Reload
	ld.d	$s8, $sp, 40                    # 8-byte Folded Reload
	ld.d	$s7, $sp, 48                    # 8-byte Folded Reload
	ld.d	$s6, $sp, 56                    # 8-byte Folded Reload
	ld.d	$s5, $sp, 64                    # 8-byte Folded Reload
	ld.d	$s4, $sp, 72                    # 8-byte Folded Reload
	ld.d	$s3, $sp, 80                    # 8-byte Folded Reload
	ld.d	$s2, $sp, 88                    # 8-byte Folded Reload
	ld.d	$s1, $sp, 96                    # 8-byte Folded Reload
	ld.d	$s0, $sp, 104                   # 8-byte Folded Reload
	ld.d	$fp, $sp, 112                   # 8-byte Folded Reload
	ld.d	$ra, $sp, 120                   # 8-byte Folded Reload
	addi.d	$sp, $sp, 128
	ret
.LBB1_17:                               # %ehcleanup28.i.thread
.Ltmp34:                                # EH_LABEL
	move	$fp, $a0
	b	.LBB1_24
.LBB1_18:                               # %ehcleanup30.i.thread
.Ltmp31:                                # EH_LABEL
	move	$fp, $a0
	move	$a0, $s0
	pcaddu18i	$ra, %call36(_ZdaPv)
	jirl	$ra, $ra, 0
	move	$a0, $fp
	pcaddu18i	$ra, %call36(_Unwind_Resume)
	jirl	$ra, $ra, 0
.LBB1_19:                               # %lpad13.i
.Ltmp39:                                # EH_LABEL
	ld.d	$a1, $sp, 8
	move	$fp, $a0
	bnez	$a1, .LBB1_23
# %bb.20:                               # %ehcleanup28.i
	ld.d	$s1, $sp, 16
	bnez	$s1, .LBB1_24
.LBB1_21:                               # %ehcleanup30.i
	ld.d	$s0, $sp, 24
	bnez	$s0, .LBB1_25
.LBB1_22:                               # %_ZNSt10unique_ptrIA_fSt14default_deleteIS0_EED2Ev.exit24
	move	$a0, $fp
	pcaddu18i	$ra, %call36(_Unwind_Resume)
	jirl	$ra, $ra, 0
.LBB1_23:                               # %_ZNKSt14default_deleteIA_fEclIfEENSt9enable_ifIXsr14is_convertibleIPA_T_PS0_EE5valueEvE4typeEPS4_.exit.i
	move	$a0, $a1
	pcaddu18i	$ra, %call36(_ZdaPv)
	jirl	$ra, $ra, 0
	ld.d	$s1, $sp, 16
	beqz	$s1, .LBB1_21
.LBB1_24:                               # %_ZNKSt14default_deleteIA_fEclIfEENSt9enable_ifIXsr14is_convertibleIPA_T_PS0_EE5valueEvE4typeEPS4_.exit.i18
	move	$a0, $s1
	pcaddu18i	$ra, %call36(_ZdaPv)
	jirl	$ra, $ra, 0
	ld.d	$s0, $sp, 24
	beqz	$s0, .LBB1_22
.LBB1_25:                               # %_ZNKSt14default_deleteIA_fEclIfEENSt9enable_ifIXsr14is_convertibleIPA_T_PS0_EE5valueEvE4typeEPS4_.exit.i22
	move	$a0, $s0
	pcaddu18i	$ra, %call36(_ZdaPv)
	jirl	$ra, $ra, 0
	move	$a0, $fp
	pcaddu18i	$ra, %call36(_Unwind_Resume)
	jirl	$ra, $ra, 0
.Lfunc_end1:
	.size	_Z27BENCHMARK_expf_novec_float_RN9benchmark5StateE, .Lfunc_end1-_Z27BENCHMARK_expf_novec_float_RN9benchmark5StateE
	.cfi_endproc
	.section	.gcc_except_table,"a",@progbits
	.p2align	2, 0x0
GCC_except_table1:
.Lexception1:
	.byte	255                             # @LPStart Encoding = omit
	.byte	255                             # @TType Encoding = omit
	.byte	1                               # Call site Encoding = uleb128
	.uleb128 .Lcst_end1-.Lcst_begin1
.Lcst_begin1:
	.uleb128 .Lfunc_begin1-.Lfunc_begin1    # >> Call Site 1 <<
	.uleb128 .Ltmp29-.Lfunc_begin1          #   Call between .Lfunc_begin1 and .Ltmp29
	.byte	0                               #     has no landing pad
	.byte	0                               #   On action: cleanup
	.uleb128 .Ltmp29-.Lfunc_begin1          # >> Call Site 2 <<
	.uleb128 .Ltmp30-.Ltmp29                #   Call between .Ltmp29 and .Ltmp30
	.uleb128 .Ltmp31-.Lfunc_begin1          #     jumps to .Ltmp31
	.byte	0                               #   On action: cleanup
	.uleb128 .Ltmp32-.Lfunc_begin1          # >> Call Site 3 <<
	.uleb128 .Ltmp33-.Ltmp32                #   Call between .Ltmp32 and .Ltmp33
	.uleb128 .Ltmp34-.Lfunc_begin1          #     jumps to .Ltmp34
	.byte	0                               #   On action: cleanup
	.uleb128 .Ltmp33-.Lfunc_begin1          # >> Call Site 4 <<
	.uleb128 .Ltmp35-.Ltmp33                #   Call between .Ltmp33 and .Ltmp35
	.byte	0                               #     has no landing pad
	.byte	0                               #   On action: cleanup
	.uleb128 .Ltmp35-.Lfunc_begin1          # >> Call Site 5 <<
	.uleb128 .Ltmp36-.Ltmp35                #   Call between .Ltmp35 and .Ltmp36
	.uleb128 .Ltmp39-.Lfunc_begin1          #     jumps to .Ltmp39
	.byte	0                               #   On action: cleanup
	.uleb128 .Ltmp36-.Lfunc_begin1          # >> Call Site 6 <<
	.uleb128 .Ltmp37-.Ltmp36                #   Call between .Ltmp36 and .Ltmp37
	.byte	0                               #     has no landing pad
	.byte	0                               #   On action: cleanup
	.uleb128 .Ltmp37-.Lfunc_begin1          # >> Call Site 7 <<
	.uleb128 .Ltmp38-.Ltmp37                #   Call between .Ltmp37 and .Ltmp38
	.uleb128 .Ltmp39-.Lfunc_begin1          #     jumps to .Ltmp39
	.byte	0                               #   On action: cleanup
	.uleb128 .Ltmp38-.Lfunc_begin1          # >> Call Site 8 <<
	.uleb128 .Lfunc_end1-.Ltmp38            #   Call between .Ltmp38 and .Lfunc_end1
	.byte	0                               #     has no landing pad
	.byte	0                               #   On action: cleanup
.Lcst_end1:
	.p2align	2, 0x0
                                        # -- End function
	.text
	.globl	_Z29BENCHMARK_exp_autovec_double_RN9benchmark5StateE # -- Begin function _Z29BENCHMARK_exp_autovec_double_RN9benchmark5StateE
	.p2align	5
	.type	_Z29BENCHMARK_exp_autovec_double_RN9benchmark5StateE,@function
_Z29BENCHMARK_exp_autovec_double_RN9benchmark5StateE: # @_Z29BENCHMARK_exp_autovec_double_RN9benchmark5StateE
.Lfunc_begin2:
	.cfi_startproc
	.cfi_personality 155, DW.ref.__gxx_personality_v0
	.cfi_lsda 27, .Lexception2
# %bb.0:                                # %entry
	addi.d	$sp, $sp, -128
	.cfi_def_cfa_offset 128
	st.d	$ra, $sp, 120                   # 8-byte Folded Spill
	st.d	$fp, $sp, 112                   # 8-byte Folded Spill
	st.d	$s0, $sp, 104                   # 8-byte Folded Spill
	st.d	$s1, $sp, 96                    # 8-byte Folded Spill
	st.d	$s2, $sp, 88                    # 8-byte Folded Spill
	st.d	$s3, $sp, 80                    # 8-byte Folded Spill
	st.d	$s4, $sp, 72                    # 8-byte Folded Spill
	st.d	$s5, $sp, 64                    # 8-byte Folded Spill
	st.d	$s6, $sp, 56                    # 8-byte Folded Spill
	st.d	$s7, $sp, 48                    # 8-byte Folded Spill
	st.d	$s8, $sp, 40                    # 8-byte Folded Spill
	fst.d	$fs0, $sp, 32                   # 8-byte Folded Spill
	.cfi_offset 1, -8
	.cfi_offset 22, -16
	.cfi_offset 23, -24
	.cfi_offset 24, -32
	.cfi_offset 25, -40
	.cfi_offset 26, -48
	.cfi_offset 27, -56
	.cfi_offset 28, -64
	.cfi_offset 29, -72
	.cfi_offset 30, -80
	.cfi_offset 31, -88
	.cfi_offset 56, -96
	move	$s0, $a0
	lu12i.w	$a0, 19
	ori	$s4, $a0, 2176
	move	$a0, $s4
	pcaddu18i	$ra, %call36(_Znam)
	jirl	$ra, $ra, 0
	move	$s2, $a0
	st.d	$a0, $sp, 24
.Ltmp40:                                # EH_LABEL
	move	$a0, $s4
	pcaddu18i	$ra, %call36(_Znam)
	jirl	$ra, $ra, 0
.Ltmp41:                                # EH_LABEL
# %bb.1:                                # %invoke.cont.i
	move	$s3, $a0
	st.d	$a0, $sp, 16
.Ltmp43:                                # EH_LABEL
	move	$a0, $s4
	pcaddu18i	$ra, %call36(_Znam)
	jirl	$ra, $ra, 0
.Ltmp44:                                # EH_LABEL
# %bb.2:                                # %invoke.cont3.i
	move	$fp, $a0
	st.d	$a0, $sp, 8
	move	$a0, $s2
	move	$a1, $s3
	move	$a2, $fp
	pcaddu18i	$ra, %call36(_ZL9init_dataIdEvPT_S1_S1_)
	jirl	$ra, $ra, 0
.Ltmp46:                                # EH_LABEL
	move	$a0, $s4
	pcaddu18i	$ra, %call36(_Znam)
	jirl	$ra, $ra, 0
.Ltmp47:                                # EH_LABEL
# %bb.3:                                # %vector.body.preheader
	move	$s1, $a0
	move	$a0, $zero
	.p2align	4, , 16
.LBB2_4:                                # %vector.body
                                        # =>This Inner Loop Header: Depth=1
	vldx	$vr0, $fp, $a0
	add.d	$a1, $fp, $a0
	vld	$vr1, $a1, 16
	add.d	$a1, $s1, $a0
	vstx	$vr0, $s1, $a0
	addi.d	$a0, $a0, 32
	vst	$vr1, $a1, 16
	bne	$a0, $s4, .LBB2_4
# %bb.5:                                # %for.body.i14.preheader
	move	$s5, $zero
	.p2align	4, , 16
.LBB2_6:                                # %for.body.i14
                                        # =>This Inner Loop Header: Depth=1
	fldx.d	$fa0, $s2, $s5
	pcaddu18i	$ra, %call36(exp)
	jirl	$ra, $ra, 0
	fldx.d	$fa1, $s3, $s5
	fmov.d	$fs0, $fa0
	fmov.d	$fa0, $fa1
	pcaddu18i	$ra, %call36(exp)
	jirl	$ra, $ra, 0
	fadd.d	$fa0, $fs0, $fa0
	fstx.d	$fa0, $s1, $s5
	addi.d	$s5, $s5, 8
	bne	$s5, $s4, .LBB2_6
# %bb.7:                                # %for.body.i22.preheader
	move	$s5, $zero
	.p2align	4, , 16
.LBB2_8:                                # %for.body.i22
                                        # =>This Inner Loop Header: Depth=1
	fldx.d	$fa0, $s2, $s5
	pcaddu18i	$ra, %call36(exp)
	jirl	$ra, $ra, 0
	fldx.d	$fa1, $s3, $s5
	fmov.d	$fs0, $fa0
	fmov.d	$fa0, $fa1
	pcaddu18i	$ra, %call36(exp)
	jirl	$ra, $ra, 0
	fadd.d	$fa0, $fs0, $fa0
	fstx.d	$fa0, $fp, $s5
	addi.d	$s5, $s5, 8
	bne	$s5, $s4, .LBB2_8
# %bb.9:                                # %for.body41.i.preheader
	move	$s2, $zero
	movgr2fr.d	$fa0, $zero
	lu52i.d	$a0, $zero, 1
	movgr2fr.d	$fa1, $a0
	lu12i.w	$a0, 2
	ori	$s3, $a0, 1808
	move	$s4, $s1
	move	$s5, $fp
	b	.LBB2_13
.LBB2_10:                               #   in Loop: Header=BB2_13 Depth=1
	move	$a0, $zero
	.p2align	4, , 16
.LBB2_11:                               # %_ZSt10fpclassifyd.exit49
                                        #   in Loop: Header=BB2_13 Depth=1
	bne	$a1, $a0, .LBB2_38
.LBB2_12:                               # %for.inc81.i
                                        #   in Loop: Header=BB2_13 Depth=1
	addi.d	$s2, $s2, 1
	addi.d	$s5, $s5, 8
	addi.d	$s4, $s4, 8
	beq	$s2, $s3, .LBB2_23
.LBB2_13:                               # %for.body41.i
                                        # =>This Inner Loop Header: Depth=1
	fld.d	$fa3, $s5, 0
	fld.d	$fa2, $s4, 0
	fcmp.ceq.d	$fcc0, $fa3, $fa2
	bcnez	$fcc0, .LBB2_12
# %bb.14:                               # %land.lhs.true.i
                                        #   in Loop: Header=BB2_13 Depth=1
	ori	$a0, $zero, 2
	fcmp.ceq.d	$fcc0, $fa3, $fa0
	ori	$a1, $zero, 2
	bcnez	$fcc0, .LBB2_18
# %bb.15:                               # %fpclassify_not_zero.i
                                        #   in Loop: Header=BB2_13 Depth=1
	fcmp.cun.d	$fcc0, $fa3, $fa3
	bcnez	$fcc0, .LBB2_22
# %bb.16:                               # %fpclassify_not_nan.i
                                        #   in Loop: Header=BB2_13 Depth=1
	fclass.d	$fa4, $fa3
	movfr2gr.d	$a1, $fa4
	andi	$a1, $a1, 68
	sltu	$a1, $zero, $a1
	andi	$a2, $a1, 1
	ori	$a1, $zero, 1
	bnez	$a2, .LBB2_18
# %bb.17:                               # %fpclassify_not_inf.i
                                        #   in Loop: Header=BB2_13 Depth=1
	fabs.d	$fa3, $fa3
	fcmp.cule.d	$fcc0, $fa1, $fa3
	movcf2gr	$a1, $fcc0
	addi.d	$a1, $a1, 3
	.p2align	4, , 16
.LBB2_18:                               # %_ZSt10fpclassifyd.exit
                                        #   in Loop: Header=BB2_13 Depth=1
	fcmp.ceq.d	$fcc0, $fa2, $fa0
	bcnez	$fcc0, .LBB2_11
.LBB2_19:                               # %fpclassify_not_zero.i42
                                        #   in Loop: Header=BB2_13 Depth=1
	fcmp.cun.d	$fcc0, $fa2, $fa2
	bcnez	$fcc0, .LBB2_10
# %bb.20:                               # %fpclassify_not_nan.i44
                                        #   in Loop: Header=BB2_13 Depth=1
	fclass.d	$fa3, $fa2
	movfr2gr.d	$a0, $fa3
	andi	$a0, $a0, 68
	sltu	$a0, $zero, $a0
	andi	$a2, $a0, 1
	ori	$a0, $zero, 1
	bnez	$a2, .LBB2_11
# %bb.21:                               # %fpclassify_not_inf.i46
                                        #   in Loop: Header=BB2_13 Depth=1
	fabs.d	$fa2, $fa2
	fcmp.cule.d	$fcc0, $fa1, $fa2
	movcf2gr	$a0, $fcc0
	addi.d	$a0, $a0, 3
	b	.LBB2_11
.LBB2_22:                               #   in Loop: Header=BB2_13 Depth=1
	move	$a1, $zero
	fcmp.ceq.d	$fcc0, $fa2, $fa0
	bcnez	$fcc0, .LBB2_11
	b	.LBB2_19
.LBB2_23:                               # %_ZNSt10unique_ptrIA_dSt14default_deleteIS0_EED2Ev.exit
	move	$a0, $s1
	pcaddu18i	$ra, %call36(_ZdaPv)
	jirl	$ra, $ra, 0
	ld.w	$s1, $s0, 28
	ld.d	$fp, $s0, 16
.Ltmp64:                                # EH_LABEL
	move	$a0, $s0
	pcaddu18i	$ra, %call36(_ZN9benchmark5State16StartKeepRunningEv)
	jirl	$ra, $ra, 0
.Ltmp65:                                # EH_LABEL
# %bb.24:                               # %for.cond91.i.preheader
	bnez	$s1, .LBB2_30
# %bb.25:                               # %for.cond91.i.preheader
	beqz	$fp, .LBB2_30
# %bb.26:
	addi.d	$s1, $sp, 24
	addi.d	$s2, $sp, 16
	addi.d	$s4, $sp, 8
	.p2align	4, , 16
.LBB2_27:                               # %for.body95.i
                                        # =>This Loop Header: Depth=1
                                        #     Child Loop BB2_28 Depth 2
	ld.d	$s5, $sp, 24
	ld.d	$s6, $sp, 16
	ld.d	$s7, $sp, 8
	move	$s8, $s3
	.p2align	4, , 16
.LBB2_28:                               # %for.body.i80
                                        #   Parent Loop BB2_27 Depth=1
                                        # =>  This Inner Loop Header: Depth=2
	fld.d	$fa0, $s5, 0
	pcaddu18i	$ra, %call36(exp)
	jirl	$ra, $ra, 0
	fld.d	$fa1, $s6, 0
	fmov.d	$fs0, $fa0
	fmov.d	$fa0, $fa1
	pcaddu18i	$ra, %call36(exp)
	jirl	$ra, $ra, 0
	fadd.d	$fa0, $fs0, $fa0
	fst.d	$fa0, $s7, 0
	addi.d	$s8, $s8, -1
	addi.d	$s7, $s7, 8
	addi.d	$s6, $s6, 8
	addi.d	$s5, $s5, 8
	bnez	$s8, .LBB2_28
# %bb.29:                               # %invoke.cont104.i
                                        #   in Loop: Header=BB2_27 Depth=1
	#APP
	#NO_APP
	#APP
	#NO_APP
	#APP
	#NO_APP
	addi.d	$fp, $fp, -1
	#MEMBARRIER
	bnez	$fp, .LBB2_27
.LBB2_30:                               # %if.end.i
.Ltmp66:                                # EH_LABEL
	move	$a0, $s0
	pcaddu18i	$ra, %call36(_ZN9benchmark5State17FinishKeepRunningEv)
	jirl	$ra, $ra, 0
.Ltmp67:                                # EH_LABEL
# %bb.31:                               # %_ZL20benchmark_fn_autovecIdEvRN9benchmark5StateEPFT_S3_E.exit
	ld.d	$a0, $sp, 8
	beqz	$a0, .LBB2_33
# %bb.32:                               # %_ZNKSt14default_deleteIA_dEclIdEENSt9enable_ifIXsr14is_convertibleIPA_T_PS0_EE5valueEvE4typeEPS4_.exit.i105
	pcaddu18i	$ra, %call36(_ZdaPv)
	jirl	$ra, $ra, 0
.LBB2_33:                               # %_ZNSt10unique_ptrIA_dSt14default_deleteIS0_EED2Ev.exit107
	ld.d	$a0, $sp, 16
	beqz	$a0, .LBB2_35
# %bb.34:                               # %_ZNKSt14default_deleteIA_dEclIdEENSt9enable_ifIXsr14is_convertibleIPA_T_PS0_EE5valueEvE4typeEPS4_.exit.i109
	pcaddu18i	$ra, %call36(_ZdaPv)
	jirl	$ra, $ra, 0
.LBB2_35:                               # %_ZNSt10unique_ptrIA_dSt14default_deleteIS0_EED2Ev.exit111
	ld.d	$a0, $sp, 24
	beqz	$a0, .LBB2_37
# %bb.36:                               # %_ZNKSt14default_deleteIA_dEclIdEENSt9enable_ifIXsr14is_convertibleIPA_T_PS0_EE5valueEvE4typeEPS4_.exit.i113
	pcaddu18i	$ra, %call36(_ZdaPv)
	jirl	$ra, $ra, 0
.LBB2_37:                               # %_ZNSt10unique_ptrIA_dSt14default_deleteIS0_EED2Ev.exit115
	fld.d	$fs0, $sp, 32                   # 8-byte Folded Reload
	ld.d	$s8, $sp, 40                    # 8-byte Folded Reload
	ld.d	$s7, $sp, 48                    # 8-byte Folded Reload
	ld.d	$s6, $sp, 56                    # 8-byte Folded Reload
	ld.d	$s5, $sp, 64                    # 8-byte Folded Reload
	ld.d	$s4, $sp, 72                    # 8-byte Folded Reload
	ld.d	$s3, $sp, 80                    # 8-byte Folded Reload
	ld.d	$s2, $sp, 88                    # 8-byte Folded Reload
	ld.d	$s1, $sp, 96                    # 8-byte Folded Reload
	ld.d	$s0, $sp, 104                   # 8-byte Folded Reload
	ld.d	$fp, $sp, 112                   # 8-byte Folded Reload
	ld.d	$ra, $sp, 120                   # 8-byte Folded Reload
	addi.d	$sp, $sp, 128
	ret
.LBB2_38:                               # %if.then.i
.Ltmp49:                                # EH_LABEL
	pcalau12i	$a0, %got_pc_hi20(_ZSt4cerr)
	ld.d	$a0, $a0, %got_pc_lo12(_ZSt4cerr)
	pcalau12i	$a1, %pc_hi20(.L.str.73)
	addi.d	$a1, $a1, %pc_lo12(.L.str.73)
	ori	$a2, $zero, 49
	pcaddu18i	$ra, %call36(_ZSt16__ostream_insertIcSt11char_traitsIcEERSt13basic_ostreamIT_T0_ES6_PKS3_l)
	jirl	$ra, $ra, 0
.Ltmp50:                                # EH_LABEL
# %bb.39:                               # %invoke.cont61.i
	fld.d	$fa0, $s5, 0
.Ltmp51:                                # EH_LABEL
	pcalau12i	$a0, %got_pc_hi20(_ZSt4cerr)
	ld.d	$a0, $a0, %got_pc_lo12(_ZSt4cerr)
	pcaddu18i	$ra, %call36(_ZNSo9_M_insertIdEERSoT_)
	jirl	$ra, $ra, 0
.Ltmp52:                                # EH_LABEL
# %bb.40:                               # %invoke.cont66.i
.Ltmp53:                                # EH_LABEL
	move	$s0, $a0
	pcalau12i	$a0, %pc_hi20(.L.str.74)
	addi.d	$a1, $a0, %pc_lo12(.L.str.74)
	ori	$a2, $zero, 4
	move	$a0, $s0
	pcaddu18i	$ra, %call36(_ZSt16__ostream_insertIcSt11char_traitsIcEERSt13basic_ostreamIT_T0_ES6_PKS3_l)
	jirl	$ra, $ra, 0
.Ltmp54:                                # EH_LABEL
# %bb.41:                               # %invoke.cont68.i
	fld.d	$fa0, $s4, 0
.Ltmp55:                                # EH_LABEL
	move	$a0, $s0
	pcaddu18i	$ra, %call36(_ZNSo9_M_insertIdEERSoT_)
	jirl	$ra, $ra, 0
.Ltmp56:                                # EH_LABEL
# %bb.42:                               # %invoke.cont73.i
.Ltmp57:                                # EH_LABEL
	move	$s0, $a0
	pcalau12i	$a0, %pc_hi20(.L.str.75)
	addi.d	$a1, $a0, %pc_lo12(.L.str.75)
	ori	$a2, $zero, 10
	move	$a0, $s0
	pcaddu18i	$ra, %call36(_ZSt16__ostream_insertIcSt11char_traitsIcEERSt13basic_ostreamIT_T0_ES6_PKS3_l)
	jirl	$ra, $ra, 0
.Ltmp58:                                # EH_LABEL
# %bb.43:                               # %invoke.cont75.i
.Ltmp59:                                # EH_LABEL
	move	$a0, $s0
	move	$a1, $s2
	pcaddu18i	$ra, %call36(_ZNSo9_M_insertImEERSoT_)
	jirl	$ra, $ra, 0
.Ltmp60:                                # EH_LABEL
# %bb.44:                               # %invoke.cont77.i
.Ltmp61:                                # EH_LABEL
	pcalau12i	$a1, %pc_hi20(.L.str.76)
	addi.d	$a1, $a1, %pc_lo12(.L.str.76)
	pcaddu18i	$ra, %call36(_ZStlsISt11char_traitsIcEERSt13basic_ostreamIcT_ES5_PKc)
	jirl	$ra, $ra, 0
.Ltmp62:                                # EH_LABEL
# %bb.45:                               # %invoke.cont79.i
	ori	$a0, $zero, 1
	pcaddu18i	$ra, %call36(exit)
	jirl	$ra, $ra, 0
.LBB2_46:                               # %lpad13.i
.Ltmp48:                                # EH_LABEL
	move	$s0, $a0
	b	.LBB2_54
.LBB2_47:                               # %ehcleanup116.i.thread
.Ltmp45:                                # EH_LABEL
	move	$s0, $a0
	b	.LBB2_55
.LBB2_48:                               # %ehcleanup118.i.thread
.Ltmp42:                                # EH_LABEL
	move	$s0, $a0
	move	$a0, $s2
	pcaddu18i	$ra, %call36(_ZdaPv)
	jirl	$ra, $ra, 0
	move	$a0, $s0
	pcaddu18i	$ra, %call36(_Unwind_Resume)
	jirl	$ra, $ra, 0
.LBB2_49:                               # %ehcleanup115.i
.Ltmp68:                                # EH_LABEL
	ld.d	$fp, $sp, 8
	move	$s0, $a0
	bnez	$fp, .LBB2_54
# %bb.50:                               # %ehcleanup116.i
	ld.d	$s3, $sp, 16
	bnez	$s3, .LBB2_55
.LBB2_51:                               # %ehcleanup118.i
	ld.d	$s2, $sp, 24
	bnez	$s2, .LBB2_56
.LBB2_52:                               # %_ZNSt10unique_ptrIA_dSt14default_deleteIS0_EED2Ev.exit103
	move	$a0, $s0
	pcaddu18i	$ra, %call36(_Unwind_Resume)
	jirl	$ra, $ra, 0
.LBB2_53:                               # %lpad43.i
.Ltmp63:                                # EH_LABEL
	move	$s0, $a0
	move	$a0, $s1
	pcaddu18i	$ra, %call36(_ZdaPv)
	jirl	$ra, $ra, 0
.LBB2_54:                               # %_ZNKSt14default_deleteIA_dEclIdEENSt9enable_ifIXsr14is_convertibleIPA_T_PS0_EE5valueEvE4typeEPS4_.exit.i93
	move	$a0, $fp
	pcaddu18i	$ra, %call36(_ZdaPv)
	jirl	$ra, $ra, 0
	ld.d	$s3, $sp, 16
	beqz	$s3, .LBB2_51
.LBB2_55:                               # %_ZNKSt14default_deleteIA_dEclIdEENSt9enable_ifIXsr14is_convertibleIPA_T_PS0_EE5valueEvE4typeEPS4_.exit.i97
	move	$a0, $s3
	pcaddu18i	$ra, %call36(_ZdaPv)
	jirl	$ra, $ra, 0
	ld.d	$s2, $sp, 24
	beqz	$s2, .LBB2_52
.LBB2_56:                               # %_ZNKSt14default_deleteIA_dEclIdEENSt9enable_ifIXsr14is_convertibleIPA_T_PS0_EE5valueEvE4typeEPS4_.exit.i101
	move	$a0, $s2
	pcaddu18i	$ra, %call36(_ZdaPv)
	jirl	$ra, $ra, 0
	move	$a0, $s0
	pcaddu18i	$ra, %call36(_Unwind_Resume)
	jirl	$ra, $ra, 0
.Lfunc_end2:
	.size	_Z29BENCHMARK_exp_autovec_double_RN9benchmark5StateE, .Lfunc_end2-_Z29BENCHMARK_exp_autovec_double_RN9benchmark5StateE
	.cfi_endproc
	.section	.gcc_except_table,"a",@progbits
	.p2align	2, 0x0
GCC_except_table2:
.Lexception2:
	.byte	255                             # @LPStart Encoding = omit
	.byte	255                             # @TType Encoding = omit
	.byte	1                               # Call site Encoding = uleb128
	.uleb128 .Lcst_end2-.Lcst_begin2
.Lcst_begin2:
	.uleb128 .Lfunc_begin2-.Lfunc_begin2    # >> Call Site 1 <<
	.uleb128 .Ltmp40-.Lfunc_begin2          #   Call between .Lfunc_begin2 and .Ltmp40
	.byte	0                               #     has no landing pad
	.byte	0                               #   On action: cleanup
	.uleb128 .Ltmp40-.Lfunc_begin2          # >> Call Site 2 <<
	.uleb128 .Ltmp41-.Ltmp40                #   Call between .Ltmp40 and .Ltmp41
	.uleb128 .Ltmp42-.Lfunc_begin2          #     jumps to .Ltmp42
	.byte	0                               #   On action: cleanup
	.uleb128 .Ltmp43-.Lfunc_begin2          # >> Call Site 3 <<
	.uleb128 .Ltmp44-.Ltmp43                #   Call between .Ltmp43 and .Ltmp44
	.uleb128 .Ltmp45-.Lfunc_begin2          #     jumps to .Ltmp45
	.byte	0                               #   On action: cleanup
	.uleb128 .Ltmp44-.Lfunc_begin2          # >> Call Site 4 <<
	.uleb128 .Ltmp46-.Ltmp44                #   Call between .Ltmp44 and .Ltmp46
	.byte	0                               #     has no landing pad
	.byte	0                               #   On action: cleanup
	.uleb128 .Ltmp46-.Lfunc_begin2          # >> Call Site 5 <<
	.uleb128 .Ltmp47-.Ltmp46                #   Call between .Ltmp46 and .Ltmp47
	.uleb128 .Ltmp48-.Lfunc_begin2          #     jumps to .Ltmp48
	.byte	0                               #   On action: cleanup
	.uleb128 .Ltmp47-.Lfunc_begin2          # >> Call Site 6 <<
	.uleb128 .Ltmp64-.Ltmp47                #   Call between .Ltmp47 and .Ltmp64
	.byte	0                               #     has no landing pad
	.byte	0                               #   On action: cleanup
	.uleb128 .Ltmp64-.Lfunc_begin2          # >> Call Site 7 <<
	.uleb128 .Ltmp65-.Ltmp64                #   Call between .Ltmp64 and .Ltmp65
	.uleb128 .Ltmp68-.Lfunc_begin2          #     jumps to .Ltmp68
	.byte	0                               #   On action: cleanup
	.uleb128 .Ltmp65-.Lfunc_begin2          # >> Call Site 8 <<
	.uleb128 .Ltmp66-.Ltmp65                #   Call between .Ltmp65 and .Ltmp66
	.byte	0                               #     has no landing pad
	.byte	0                               #   On action: cleanup
	.uleb128 .Ltmp66-.Lfunc_begin2          # >> Call Site 9 <<
	.uleb128 .Ltmp67-.Ltmp66                #   Call between .Ltmp66 and .Ltmp67
	.uleb128 .Ltmp68-.Lfunc_begin2          #     jumps to .Ltmp68
	.byte	0                               #   On action: cleanup
	.uleb128 .Ltmp67-.Lfunc_begin2          # >> Call Site 10 <<
	.uleb128 .Ltmp49-.Ltmp67                #   Call between .Ltmp67 and .Ltmp49
	.byte	0                               #     has no landing pad
	.byte	0                               #   On action: cleanup
	.uleb128 .Ltmp49-.Lfunc_begin2          # >> Call Site 11 <<
	.uleb128 .Ltmp62-.Ltmp49                #   Call between .Ltmp49 and .Ltmp62
	.uleb128 .Ltmp63-.Lfunc_begin2          #     jumps to .Ltmp63
	.byte	0                               #   On action: cleanup
	.uleb128 .Ltmp62-.Lfunc_begin2          # >> Call Site 12 <<
	.uleb128 .Lfunc_end2-.Ltmp62            #   Call between .Ltmp62 and .Lfunc_end2
	.byte	0                               #     has no landing pad
	.byte	0                               #   On action: cleanup
.Lcst_end2:
	.p2align	2, 0x0
                                        # -- End function
	.text
	.globl	_Z27BENCHMARK_exp_novec_double_RN9benchmark5StateE # -- Begin function _Z27BENCHMARK_exp_novec_double_RN9benchmark5StateE
	.p2align	5
	.type	_Z27BENCHMARK_exp_novec_double_RN9benchmark5StateE,@function
_Z27BENCHMARK_exp_novec_double_RN9benchmark5StateE: # @_Z27BENCHMARK_exp_novec_double_RN9benchmark5StateE
.Lfunc_begin3:
	.cfi_startproc
	.cfi_personality 155, DW.ref.__gxx_personality_v0
	.cfi_lsda 27, .Lexception3
# %bb.0:                                # %entry
	addi.d	$sp, $sp, -128
	.cfi_def_cfa_offset 128
	st.d	$ra, $sp, 120                   # 8-byte Folded Spill
	st.d	$fp, $sp, 112                   # 8-byte Folded Spill
	st.d	$s0, $sp, 104                   # 8-byte Folded Spill
	st.d	$s1, $sp, 96                    # 8-byte Folded Spill
	st.d	$s2, $sp, 88                    # 8-byte Folded Spill
	st.d	$s3, $sp, 80                    # 8-byte Folded Spill
	st.d	$s4, $sp, 72                    # 8-byte Folded Spill
	st.d	$s5, $sp, 64                    # 8-byte Folded Spill
	st.d	$s6, $sp, 56                    # 8-byte Folded Spill
	st.d	$s7, $sp, 48                    # 8-byte Folded Spill
	st.d	$s8, $sp, 40                    # 8-byte Folded Spill
	fst.d	$fs0, $sp, 32                   # 8-byte Folded Spill
	.cfi_offset 1, -8
	.cfi_offset 22, -16
	.cfi_offset 23, -24
	.cfi_offset 24, -32
	.cfi_offset 25, -40
	.cfi_offset 26, -48
	.cfi_offset 27, -56
	.cfi_offset 28, -64
	.cfi_offset 29, -72
	.cfi_offset 30, -80
	.cfi_offset 31, -88
	.cfi_offset 56, -96
	move	$fp, $a0
	lu12i.w	$a0, 19
	ori	$s2, $a0, 2176
	move	$a0, $s2
	pcaddu18i	$ra, %call36(_Znam)
	jirl	$ra, $ra, 0
	move	$s0, $a0
	st.d	$a0, $sp, 24
.Ltmp69:                                # EH_LABEL
	move	$a0, $s2
	pcaddu18i	$ra, %call36(_Znam)
	jirl	$ra, $ra, 0
.Ltmp70:                                # EH_LABEL
# %bb.1:                                # %invoke.cont.i
	move	$s1, $a0
	st.d	$a0, $sp, 16
.Ltmp72:                                # EH_LABEL
	move	$a0, $s2
	pcaddu18i	$ra, %call36(_Znam)
	jirl	$ra, $ra, 0
.Ltmp73:                                # EH_LABEL
# %bb.2:                                # %invoke.cont3.i
	move	$a2, $a0
	st.d	$a0, $sp, 8
	move	$a0, $s0
	move	$a1, $s1
	pcaddu18i	$ra, %call36(_ZL9init_dataIdEvPT_S1_S1_)
	jirl	$ra, $ra, 0
	ld.w	$s1, $fp, 28
	ld.d	$s0, $fp, 16
.Ltmp75:                                # EH_LABEL
	move	$a0, $fp
	pcaddu18i	$ra, %call36(_ZN9benchmark5State16StartKeepRunningEv)
	jirl	$ra, $ra, 0
.Ltmp76:                                # EH_LABEL
# %bb.3:                                # %for.cond.i.preheader
	bnez	$s1, .LBB3_9
# %bb.4:                                # %for.cond.i.preheader
	beqz	$s0, .LBB3_9
# %bb.5:
	lu12i.w	$a0, 2
	ori	$s1, $a0, 1808
	addi.d	$s2, $sp, 24
	addi.d	$s3, $sp, 16
	addi.d	$s4, $sp, 8
	.p2align	4, , 16
.LBB3_6:                                # %for.body.i
                                        # =>This Loop Header: Depth=1
                                        #     Child Loop BB3_7 Depth 2
	ld.d	$s5, $sp, 24
	ld.d	$s6, $sp, 16
	ld.d	$s7, $sp, 8
	move	$s8, $s1
	.p2align	4, , 16
.LBB3_7:                                # %for.body.i13
                                        #   Parent Loop BB3_6 Depth=1
                                        # =>  This Inner Loop Header: Depth=2
	fld.d	$fa0, $s5, 0
	pcaddu18i	$ra, %call36(exp)
	jirl	$ra, $ra, 0
	fld.d	$fa1, $s6, 0
	fmov.d	$fs0, $fa0
	fmov.d	$fa0, $fa1
	pcaddu18i	$ra, %call36(exp)
	jirl	$ra, $ra, 0
	fadd.d	$fa0, $fs0, $fa0
	fst.d	$fa0, $s7, 0
	addi.d	$s8, $s8, -1
	addi.d	$s7, $s7, 8
	addi.d	$s6, $s6, 8
	addi.d	$s5, $s5, 8
	bnez	$s8, .LBB3_7
# %bb.8:                                # %invoke.cont23.i
                                        #   in Loop: Header=BB3_6 Depth=1
	#APP
	#NO_APP
	#APP
	#NO_APP
	#APP
	#NO_APP
	addi.d	$s0, $s0, -1
	bnez	$s0, .LBB3_6
.LBB3_9:                                # %if.end.i
.Ltmp77:                                # EH_LABEL
	move	$a0, $fp
	pcaddu18i	$ra, %call36(_ZN9benchmark5State17FinishKeepRunningEv)
	jirl	$ra, $ra, 0
.Ltmp78:                                # EH_LABEL
# %bb.10:                               # %_ZL18benchmark_fn_novecIdEvRN9benchmark5StateEPFT_S3_E.exit
	ld.d	$a0, $sp, 8
	beqz	$a0, .LBB3_12
# %bb.11:                               # %_ZNKSt14default_deleteIA_dEclIdEENSt9enable_ifIXsr14is_convertibleIPA_T_PS0_EE5valueEvE4typeEPS4_.exit.i26
	pcaddu18i	$ra, %call36(_ZdaPv)
	jirl	$ra, $ra, 0
.LBB3_12:                               # %_ZNSt10unique_ptrIA_dSt14default_deleteIS0_EED2Ev.exit28
	ld.d	$a0, $sp, 16
	beqz	$a0, .LBB3_14
# %bb.13:                               # %_ZNKSt14default_deleteIA_dEclIdEENSt9enable_ifIXsr14is_convertibleIPA_T_PS0_EE5valueEvE4typeEPS4_.exit.i30
	pcaddu18i	$ra, %call36(_ZdaPv)
	jirl	$ra, $ra, 0
.LBB3_14:                               # %_ZNSt10unique_ptrIA_dSt14default_deleteIS0_EED2Ev.exit32
	ld.d	$a0, $sp, 24
	beqz	$a0, .LBB3_16
# %bb.15:                               # %_ZNKSt14default_deleteIA_dEclIdEENSt9enable_ifIXsr14is_convertibleIPA_T_PS0_EE5valueEvE4typeEPS4_.exit.i34
	pcaddu18i	$ra, %call36(_ZdaPv)
	jirl	$ra, $ra, 0
.LBB3_16:                               # %_ZNSt10unique_ptrIA_dSt14default_deleteIS0_EED2Ev.exit36
	fld.d	$fs0, $sp, 32                   # 8-byte Folded Reload
	ld.d	$s8, $sp, 40                    # 8-byte Folded Reload
	ld.d	$s7, $sp, 48                    # 8-byte Folded Reload
	ld.d	$s6, $sp, 56                    # 8-byte Folded Reload
	ld.d	$s5, $sp, 64                    # 8-byte Folded Reload
	ld.d	$s4, $sp, 72                    # 8-byte Folded Reload
	ld.d	$s3, $sp, 80                    # 8-byte Folded Reload
	ld.d	$s2, $sp, 88                    # 8-byte Folded Reload
	ld.d	$s1, $sp, 96                    # 8-byte Folded Reload
	ld.d	$s0, $sp, 104                   # 8-byte Folded Reload
	ld.d	$fp, $sp, 112                   # 8-byte Folded Reload
	ld.d	$ra, $sp, 120                   # 8-byte Folded Reload
	addi.d	$sp, $sp, 128
	ret
.LBB3_17:                               # %ehcleanup28.i.thread
.Ltmp74:                                # EH_LABEL
	move	$fp, $a0
	b	.LBB3_24
.LBB3_18:                               # %ehcleanup30.i.thread
.Ltmp71:                                # EH_LABEL
	move	$fp, $a0
	move	$a0, $s0
	pcaddu18i	$ra, %call36(_ZdaPv)
	jirl	$ra, $ra, 0
	move	$a0, $fp
	pcaddu18i	$ra, %call36(_Unwind_Resume)
	jirl	$ra, $ra, 0
.LBB3_19:                               # %lpad13.i
.Ltmp79:                                # EH_LABEL
	ld.d	$a1, $sp, 8
	move	$fp, $a0
	bnez	$a1, .LBB3_23
# %bb.20:                               # %ehcleanup28.i
	ld.d	$s1, $sp, 16
	bnez	$s1, .LBB3_24
.LBB3_21:                               # %ehcleanup30.i
	ld.d	$s0, $sp, 24
	bnez	$s0, .LBB3_25
.LBB3_22:                               # %_ZNSt10unique_ptrIA_dSt14default_deleteIS0_EED2Ev.exit24
	move	$a0, $fp
	pcaddu18i	$ra, %call36(_Unwind_Resume)
	jirl	$ra, $ra, 0
.LBB3_23:                               # %_ZNKSt14default_deleteIA_dEclIdEENSt9enable_ifIXsr14is_convertibleIPA_T_PS0_EE5valueEvE4typeEPS4_.exit.i
	move	$a0, $a1
	pcaddu18i	$ra, %call36(_ZdaPv)
	jirl	$ra, $ra, 0
	ld.d	$s1, $sp, 16
	beqz	$s1, .LBB3_21
.LBB3_24:                               # %_ZNKSt14default_deleteIA_dEclIdEENSt9enable_ifIXsr14is_convertibleIPA_T_PS0_EE5valueEvE4typeEPS4_.exit.i18
	move	$a0, $s1
	pcaddu18i	$ra, %call36(_ZdaPv)
	jirl	$ra, $ra, 0
	ld.d	$s0, $sp, 24
	beqz	$s0, .LBB3_22
.LBB3_25:                               # %_ZNKSt14default_deleteIA_dEclIdEENSt9enable_ifIXsr14is_convertibleIPA_T_PS0_EE5valueEvE4typeEPS4_.exit.i22
	move	$a0, $s0
	pcaddu18i	$ra, %call36(_ZdaPv)
	jirl	$ra, $ra, 0
	move	$a0, $fp
	pcaddu18i	$ra, %call36(_Unwind_Resume)
	jirl	$ra, $ra, 0
.Lfunc_end3:
	.size	_Z27BENCHMARK_exp_novec_double_RN9benchmark5StateE, .Lfunc_end3-_Z27BENCHMARK_exp_novec_double_RN9benchmark5StateE
	.cfi_endproc
	.section	.gcc_except_table,"a",@progbits
	.p2align	2, 0x0
GCC_except_table3:
.Lexception3:
	.byte	255                             # @LPStart Encoding = omit
	.byte	255                             # @TType Encoding = omit
	.byte	1                               # Call site Encoding = uleb128
	.uleb128 .Lcst_end3-.Lcst_begin3
.Lcst_begin3:
	.uleb128 .Lfunc_begin3-.Lfunc_begin3    # >> Call Site 1 <<
	.uleb128 .Ltmp69-.Lfunc_begin3          #   Call between .Lfunc_begin3 and .Ltmp69
	.byte	0                               #     has no landing pad
	.byte	0                               #   On action: cleanup
	.uleb128 .Ltmp69-.Lfunc_begin3          # >> Call Site 2 <<
	.uleb128 .Ltmp70-.Ltmp69                #   Call between .Ltmp69 and .Ltmp70
	.uleb128 .Ltmp71-.Lfunc_begin3          #     jumps to .Ltmp71
	.byte	0                               #   On action: cleanup
	.uleb128 .Ltmp72-.Lfunc_begin3          # >> Call Site 3 <<
	.uleb128 .Ltmp73-.Ltmp72                #   Call between .Ltmp72 and .Ltmp73
	.uleb128 .Ltmp74-.Lfunc_begin3          #     jumps to .Ltmp74
	.byte	0                               #   On action: cleanup
	.uleb128 .Ltmp73-.Lfunc_begin3          # >> Call Site 4 <<
	.uleb128 .Ltmp75-.Ltmp73                #   Call between .Ltmp73 and .Ltmp75
	.byte	0                               #     has no landing pad
	.byte	0                               #   On action: cleanup
	.uleb128 .Ltmp75-.Lfunc_begin3          # >> Call Site 5 <<
	.uleb128 .Ltmp76-.Ltmp75                #   Call between .Ltmp75 and .Ltmp76
	.uleb128 .Ltmp79-.Lfunc_begin3          #     jumps to .Ltmp79
	.byte	0                               #   On action: cleanup
	.uleb128 .Ltmp76-.Lfunc_begin3          # >> Call Site 6 <<
	.uleb128 .Ltmp77-.Ltmp76                #   Call between .Ltmp76 and .Ltmp77
	.byte	0                               #     has no landing pad
	.byte	0                               #   On action: cleanup
	.uleb128 .Ltmp77-.Lfunc_begin3          # >> Call Site 7 <<
	.uleb128 .Ltmp78-.Ltmp77                #   Call between .Ltmp77 and .Ltmp78
	.uleb128 .Ltmp79-.Lfunc_begin3          #     jumps to .Ltmp79
	.byte	0                               #   On action: cleanup
	.uleb128 .Ltmp78-.Lfunc_begin3          # >> Call Site 8 <<
	.uleb128 .Lfunc_end3-.Ltmp78            #   Call between .Ltmp78 and .Lfunc_end3
	.byte	0                               #     has no landing pad
	.byte	0                               #   On action: cleanup
.Lcst_end3:
	.p2align	2, 0x0
                                        # -- End function
	.text
	.globl	_Z30BENCHMARK_acosf_autovec_float_RN9benchmark5StateE # -- Begin function _Z30BENCHMARK_acosf_autovec_float_RN9benchmark5StateE
	.p2align	5
	.type	_Z30BENCHMARK_acosf_autovec_float_RN9benchmark5StateE,@function
_Z30BENCHMARK_acosf_autovec_float_RN9benchmark5StateE: # @_Z30BENCHMARK_acosf_autovec_float_RN9benchmark5StateE
.Lfunc_begin4:
	.cfi_startproc
	.cfi_personality 155, DW.ref.__gxx_personality_v0
	.cfi_lsda 27, .Lexception4
# %bb.0:                                # %entry
	addi.d	$sp, $sp, -128
	.cfi_def_cfa_offset 128
	st.d	$ra, $sp, 120                   # 8-byte Folded Spill
	st.d	$fp, $sp, 112                   # 8-byte Folded Spill
	st.d	$s0, $sp, 104                   # 8-byte Folded Spill
	st.d	$s1, $sp, 96                    # 8-byte Folded Spill
	st.d	$s2, $sp, 88                    # 8-byte Folded Spill
	st.d	$s3, $sp, 80                    # 8-byte Folded Spill
	st.d	$s4, $sp, 72                    # 8-byte Folded Spill
	st.d	$s5, $sp, 64                    # 8-byte Folded Spill
	st.d	$s6, $sp, 56                    # 8-byte Folded Spill
	st.d	$s7, $sp, 48                    # 8-byte Folded Spill
	st.d	$s8, $sp, 40                    # 8-byte Folded Spill
	fst.d	$fs0, $sp, 32                   # 8-byte Folded Spill
	.cfi_offset 1, -8
	.cfi_offset 22, -16
	.cfi_offset 23, -24
	.cfi_offset 24, -32
	.cfi_offset 25, -40
	.cfi_offset 26, -48
	.cfi_offset 27, -56
	.cfi_offset 28, -64
	.cfi_offset 29, -72
	.cfi_offset 30, -80
	.cfi_offset 31, -88
	.cfi_offset 56, -96
	move	$s0, $a0
	lu12i.w	$a0, 9
	ori	$s4, $a0, 3136
	move	$a0, $s4
	pcaddu18i	$ra, %call36(_Znam)
	jirl	$ra, $ra, 0
	move	$s2, $a0
	st.d	$a0, $sp, 24
.Ltmp80:                                # EH_LABEL
	move	$a0, $s4
	pcaddu18i	$ra, %call36(_Znam)
	jirl	$ra, $ra, 0
.Ltmp81:                                # EH_LABEL
# %bb.1:                                # %invoke.cont.i
	move	$s3, $a0
	st.d	$a0, $sp, 16
.Ltmp83:                                # EH_LABEL
	move	$a0, $s4
	pcaddu18i	$ra, %call36(_Znam)
	jirl	$ra, $ra, 0
.Ltmp84:                                # EH_LABEL
# %bb.2:                                # %invoke.cont3.i
	move	$fp, $a0
	st.d	$a0, $sp, 8
	move	$a0, $s2
	move	$a1, $s3
	move	$a2, $fp
	pcaddu18i	$ra, %call36(_ZL9init_dataIfEvPT_S1_S1_)
	jirl	$ra, $ra, 0
.Ltmp86:                                # EH_LABEL
	move	$a0, $s4
	pcaddu18i	$ra, %call36(_Znam)
	jirl	$ra, $ra, 0
.Ltmp87:                                # EH_LABEL
# %bb.3:                                # %vector.body.preheader
	move	$s1, $a0
	move	$a0, $zero
	.p2align	4, , 16
.LBB4_4:                                # %vector.body
                                        # =>This Inner Loop Header: Depth=1
	vldx	$vr0, $fp, $a0
	add.d	$a1, $fp, $a0
	vld	$vr1, $a1, 16
	add.d	$a1, $s1, $a0
	vstx	$vr0, $s1, $a0
	addi.d	$a0, $a0, 32
	vst	$vr1, $a1, 16
	bne	$a0, $s4, .LBB4_4
# %bb.5:                                # %for.body.i14.preheader
	move	$s5, $zero
	.p2align	4, , 16
.LBB4_6:                                # %for.body.i14
                                        # =>This Inner Loop Header: Depth=1
	fldx.s	$fa0, $s2, $s5
	pcaddu18i	$ra, %call36(acosf)
	jirl	$ra, $ra, 0
	fldx.s	$fa1, $s3, $s5
	fmov.s	$fs0, $fa0
	fmov.s	$fa0, $fa1
	pcaddu18i	$ra, %call36(acosf)
	jirl	$ra, $ra, 0
	fadd.s	$fa0, $fs0, $fa0
	fstx.s	$fa0, $s1, $s5
	addi.d	$s5, $s5, 4
	bne	$s5, $s4, .LBB4_6
# %bb.7:                                # %for.body.i22.preheader
	move	$s5, $zero
	.p2align	4, , 16
.LBB4_8:                                # %for.body.i22
                                        # =>This Inner Loop Header: Depth=1
	fldx.s	$fa0, $s2, $s5
	pcaddu18i	$ra, %call36(acosf)
	jirl	$ra, $ra, 0
	fldx.s	$fa1, $s3, $s5
	fmov.s	$fs0, $fa0
	fmov.s	$fa0, $fa1
	pcaddu18i	$ra, %call36(acosf)
	jirl	$ra, $ra, 0
	fadd.s	$fa0, $fs0, $fa0
	fstx.s	$fa0, $fp, $s5
	addi.d	$s5, $s5, 4
	bne	$s5, $s4, .LBB4_8
# %bb.9:                                # %for.body41.i.preheader
	move	$s2, $zero
	movgr2fr.w	$fa0, $zero
	lu12i.w	$a0, 2048
	movgr2fr.w	$fa1, $a0
	lu12i.w	$a0, 2
	ori	$s3, $a0, 1808
	move	$s4, $s1
	move	$s5, $fp
	b	.LBB4_13
.LBB4_10:                               #   in Loop: Header=BB4_13 Depth=1
	move	$a0, $zero
	.p2align	4, , 16
.LBB4_11:                               # %_ZSt10fpclassifyf.exit49
                                        #   in Loop: Header=BB4_13 Depth=1
	bne	$a1, $a0, .LBB4_38
.LBB4_12:                               # %for.inc81.i
                                        #   in Loop: Header=BB4_13 Depth=1
	addi.d	$s2, $s2, 1
	addi.d	$s5, $s5, 4
	addi.d	$s4, $s4, 4
	beq	$s2, $s3, .LBB4_23
.LBB4_13:                               # %for.body41.i
                                        # =>This Inner Loop Header: Depth=1
	fld.s	$fa3, $s5, 0
	fld.s	$fa2, $s4, 0
	fcmp.ceq.s	$fcc0, $fa3, $fa2
	bcnez	$fcc0, .LBB4_12
# %bb.14:                               # %land.lhs.true.i
                                        #   in Loop: Header=BB4_13 Depth=1
	ori	$a0, $zero, 2
	fcmp.ceq.s	$fcc0, $fa3, $fa0
	ori	$a1, $zero, 2
	bcnez	$fcc0, .LBB4_18
# %bb.15:                               # %fpclassify_not_zero.i
                                        #   in Loop: Header=BB4_13 Depth=1
	fcmp.cun.s	$fcc0, $fa3, $fa3
	bcnez	$fcc0, .LBB4_22
# %bb.16:                               # %fpclassify_not_nan.i
                                        #   in Loop: Header=BB4_13 Depth=1
	fclass.s	$fa4, $fa3
	movfr2gr.s	$a1, $fa4
	andi	$a1, $a1, 68
	sltu	$a1, $zero, $a1
	andi	$a2, $a1, 1
	ori	$a1, $zero, 1
	bnez	$a2, .LBB4_18
# %bb.17:                               # %fpclassify_not_inf.i
                                        #   in Loop: Header=BB4_13 Depth=1
	fabs.s	$fa3, $fa3
	fcmp.cule.s	$fcc0, $fa1, $fa3
	movcf2gr	$a1, $fcc0
	addi.d	$a1, $a1, 3
	.p2align	4, , 16
.LBB4_18:                               # %_ZSt10fpclassifyf.exit
                                        #   in Loop: Header=BB4_13 Depth=1
	fcmp.ceq.s	$fcc0, $fa2, $fa0
	bcnez	$fcc0, .LBB4_11
.LBB4_19:                               # %fpclassify_not_zero.i42
                                        #   in Loop: Header=BB4_13 Depth=1
	fcmp.cun.s	$fcc0, $fa2, $fa2
	bcnez	$fcc0, .LBB4_10
# %bb.20:                               # %fpclassify_not_nan.i44
                                        #   in Loop: Header=BB4_13 Depth=1
	fclass.s	$fa3, $fa2
	movfr2gr.s	$a0, $fa3
	andi	$a0, $a0, 68
	sltu	$a0, $zero, $a0
	andi	$a2, $a0, 1
	ori	$a0, $zero, 1
	bnez	$a2, .LBB4_11
# %bb.21:                               # %fpclassify_not_inf.i46
                                        #   in Loop: Header=BB4_13 Depth=1
	fabs.s	$fa2, $fa2
	fcmp.cule.s	$fcc0, $fa1, $fa2
	movcf2gr	$a0, $fcc0
	addi.d	$a0, $a0, 3
	b	.LBB4_11
.LBB4_22:                               #   in Loop: Header=BB4_13 Depth=1
	move	$a1, $zero
	fcmp.ceq.s	$fcc0, $fa2, $fa0
	bcnez	$fcc0, .LBB4_11
	b	.LBB4_19
.LBB4_23:                               # %_ZNSt10unique_ptrIA_fSt14default_deleteIS0_EED2Ev.exit
	move	$a0, $s1
	pcaddu18i	$ra, %call36(_ZdaPv)
	jirl	$ra, $ra, 0
	ld.w	$s1, $s0, 28
	ld.d	$fp, $s0, 16
.Ltmp104:                               # EH_LABEL
	move	$a0, $s0
	pcaddu18i	$ra, %call36(_ZN9benchmark5State16StartKeepRunningEv)
	jirl	$ra, $ra, 0
.Ltmp105:                               # EH_LABEL
# %bb.24:                               # %for.cond91.i.preheader
	bnez	$s1, .LBB4_30
# %bb.25:                               # %for.cond91.i.preheader
	beqz	$fp, .LBB4_30
# %bb.26:
	addi.d	$s1, $sp, 24
	addi.d	$s2, $sp, 16
	addi.d	$s4, $sp, 8
	.p2align	4, , 16
.LBB4_27:                               # %for.body95.i
                                        # =>This Loop Header: Depth=1
                                        #     Child Loop BB4_28 Depth 2
	ld.d	$s5, $sp, 24
	ld.d	$s6, $sp, 16
	ld.d	$s7, $sp, 8
	move	$s8, $s3
	.p2align	4, , 16
.LBB4_28:                               # %for.body.i79
                                        #   Parent Loop BB4_27 Depth=1
                                        # =>  This Inner Loop Header: Depth=2
	fld.s	$fa0, $s5, 0
	pcaddu18i	$ra, %call36(acosf)
	jirl	$ra, $ra, 0
	fld.s	$fa1, $s6, 0
	fmov.s	$fs0, $fa0
	fmov.s	$fa0, $fa1
	pcaddu18i	$ra, %call36(acosf)
	jirl	$ra, $ra, 0
	fadd.s	$fa0, $fs0, $fa0
	fst.s	$fa0, $s7, 0
	addi.d	$s8, $s8, -1
	addi.d	$s7, $s7, 4
	addi.d	$s6, $s6, 4
	addi.d	$s5, $s5, 4
	bnez	$s8, .LBB4_28
# %bb.29:                               # %invoke.cont105.i
                                        #   in Loop: Header=BB4_27 Depth=1
	#APP
	#NO_APP
	#APP
	#NO_APP
	#APP
	#NO_APP
	addi.d	$fp, $fp, -1
	#MEMBARRIER
	bnez	$fp, .LBB4_27
.LBB4_30:                               # %if.end.i
.Ltmp106:                               # EH_LABEL
	move	$a0, $s0
	pcaddu18i	$ra, %call36(_ZN9benchmark5State17FinishKeepRunningEv)
	jirl	$ra, $ra, 0
.Ltmp107:                               # EH_LABEL
# %bb.31:                               # %_ZL20benchmark_fn_autovecIfEvRN9benchmark5StateEPFT_S3_E.exit
	ld.d	$a0, $sp, 8
	beqz	$a0, .LBB4_33
# %bb.32:                               # %_ZNKSt14default_deleteIA_fEclIfEENSt9enable_ifIXsr14is_convertibleIPA_T_PS0_EE5valueEvE4typeEPS4_.exit.i104
	pcaddu18i	$ra, %call36(_ZdaPv)
	jirl	$ra, $ra, 0
.LBB4_33:                               # %_ZNSt10unique_ptrIA_fSt14default_deleteIS0_EED2Ev.exit106
	ld.d	$a0, $sp, 16
	beqz	$a0, .LBB4_35
# %bb.34:                               # %_ZNKSt14default_deleteIA_fEclIfEENSt9enable_ifIXsr14is_convertibleIPA_T_PS0_EE5valueEvE4typeEPS4_.exit.i108
	pcaddu18i	$ra, %call36(_ZdaPv)
	jirl	$ra, $ra, 0
.LBB4_35:                               # %_ZNSt10unique_ptrIA_fSt14default_deleteIS0_EED2Ev.exit110
	ld.d	$a0, $sp, 24
	beqz	$a0, .LBB4_37
# %bb.36:                               # %_ZNKSt14default_deleteIA_fEclIfEENSt9enable_ifIXsr14is_convertibleIPA_T_PS0_EE5valueEvE4typeEPS4_.exit.i112
	pcaddu18i	$ra, %call36(_ZdaPv)
	jirl	$ra, $ra, 0
.LBB4_37:                               # %_ZNSt10unique_ptrIA_fSt14default_deleteIS0_EED2Ev.exit114
	fld.d	$fs0, $sp, 32                   # 8-byte Folded Reload
	ld.d	$s8, $sp, 40                    # 8-byte Folded Reload
	ld.d	$s7, $sp, 48                    # 8-byte Folded Reload
	ld.d	$s6, $sp, 56                    # 8-byte Folded Reload
	ld.d	$s5, $sp, 64                    # 8-byte Folded Reload
	ld.d	$s4, $sp, 72                    # 8-byte Folded Reload
	ld.d	$s3, $sp, 80                    # 8-byte Folded Reload
	ld.d	$s2, $sp, 88                    # 8-byte Folded Reload
	ld.d	$s1, $sp, 96                    # 8-byte Folded Reload
	ld.d	$s0, $sp, 104                   # 8-byte Folded Reload
	ld.d	$fp, $sp, 112                   # 8-byte Folded Reload
	ld.d	$ra, $sp, 120                   # 8-byte Folded Reload
	addi.d	$sp, $sp, 128
	ret
.LBB4_38:                               # %if.then.i
.Ltmp89:                                # EH_LABEL
	pcalau12i	$a0, %got_pc_hi20(_ZSt4cerr)
	ld.d	$a0, $a0, %got_pc_lo12(_ZSt4cerr)
	pcalau12i	$a1, %pc_hi20(.L.str.73)
	addi.d	$a1, $a1, %pc_lo12(.L.str.73)
	ori	$a2, $zero, 49
	pcaddu18i	$ra, %call36(_ZSt16__ostream_insertIcSt11char_traitsIcEERSt13basic_ostreamIT_T0_ES6_PKS3_l)
	jirl	$ra, $ra, 0
.Ltmp90:                                # EH_LABEL
# %bb.39:                               # %invoke.cont61.i
	fld.s	$fa0, $s5, 0
	fcvt.d.s	$fa0, $fa0
.Ltmp91:                                # EH_LABEL
	pcalau12i	$a0, %got_pc_hi20(_ZSt4cerr)
	ld.d	$a0, $a0, %got_pc_lo12(_ZSt4cerr)
	pcaddu18i	$ra, %call36(_ZNSo9_M_insertIdEERSoT_)
	jirl	$ra, $ra, 0
.Ltmp92:                                # EH_LABEL
# %bb.40:                               # %invoke.cont66.i
.Ltmp93:                                # EH_LABEL
	move	$s0, $a0
	pcalau12i	$a0, %pc_hi20(.L.str.74)
	addi.d	$a1, $a0, %pc_lo12(.L.str.74)
	ori	$a2, $zero, 4
	move	$a0, $s0
	pcaddu18i	$ra, %call36(_ZSt16__ostream_insertIcSt11char_traitsIcEERSt13basic_ostreamIT_T0_ES6_PKS3_l)
	jirl	$ra, $ra, 0
.Ltmp94:                                # EH_LABEL
# %bb.41:                               # %invoke.cont68.i
	fld.s	$fa0, $s4, 0
	fcvt.d.s	$fa0, $fa0
.Ltmp95:                                # EH_LABEL
	move	$a0, $s0
	pcaddu18i	$ra, %call36(_ZNSo9_M_insertIdEERSoT_)
	jirl	$ra, $ra, 0
.Ltmp96:                                # EH_LABEL
# %bb.42:                               # %invoke.cont73.i
.Ltmp97:                                # EH_LABEL
	move	$s0, $a0
	pcalau12i	$a0, %pc_hi20(.L.str.75)
	addi.d	$a1, $a0, %pc_lo12(.L.str.75)
	ori	$a2, $zero, 10
	move	$a0, $s0
	pcaddu18i	$ra, %call36(_ZSt16__ostream_insertIcSt11char_traitsIcEERSt13basic_ostreamIT_T0_ES6_PKS3_l)
	jirl	$ra, $ra, 0
.Ltmp98:                                # EH_LABEL
# %bb.43:                               # %invoke.cont75.i
.Ltmp99:                                # EH_LABEL
	move	$a0, $s0
	move	$a1, $s2
	pcaddu18i	$ra, %call36(_ZNSo9_M_insertImEERSoT_)
	jirl	$ra, $ra, 0
.Ltmp100:                               # EH_LABEL
# %bb.44:                               # %invoke.cont77.i
.Ltmp101:                               # EH_LABEL
	pcalau12i	$a1, %pc_hi20(.L.str.76)
	addi.d	$a1, $a1, %pc_lo12(.L.str.76)
	pcaddu18i	$ra, %call36(_ZStlsISt11char_traitsIcEERSt13basic_ostreamIcT_ES5_PKc)
	jirl	$ra, $ra, 0
.Ltmp102:                               # EH_LABEL
# %bb.45:                               # %invoke.cont79.i
	ori	$a0, $zero, 1
	pcaddu18i	$ra, %call36(exit)
	jirl	$ra, $ra, 0
.LBB4_46:                               # %lpad13.i
.Ltmp88:                                # EH_LABEL
	move	$s0, $a0
	b	.LBB4_54
.LBB4_47:                               # %ehcleanup119.i.thread
.Ltmp85:                                # EH_LABEL
	move	$s0, $a0
	b	.LBB4_55
.LBB4_48:                               # %ehcleanup121.i.thread
.Ltmp82:                                # EH_LABEL
	move	$s0, $a0
	move	$a0, $s2
	pcaddu18i	$ra, %call36(_ZdaPv)
	jirl	$ra, $ra, 0
	move	$a0, $s0
	pcaddu18i	$ra, %call36(_Unwind_Resume)
	jirl	$ra, $ra, 0
.LBB4_49:                               # %ehcleanup118.i
.Ltmp108:                               # EH_LABEL
	ld.d	$fp, $sp, 8
	move	$s0, $a0
	bnez	$fp, .LBB4_54
# %bb.50:                               # %ehcleanup119.i
	ld.d	$s3, $sp, 16
	bnez	$s3, .LBB4_55
.LBB4_51:                               # %ehcleanup121.i
	ld.d	$s2, $sp, 24
	bnez	$s2, .LBB4_56
.LBB4_52:                               # %_ZNSt10unique_ptrIA_fSt14default_deleteIS0_EED2Ev.exit102
	move	$a0, $s0
	pcaddu18i	$ra, %call36(_Unwind_Resume)
	jirl	$ra, $ra, 0
.LBB4_53:                               # %lpad43.i
.Ltmp103:                               # EH_LABEL
	move	$s0, $a0
	move	$a0, $s1
	pcaddu18i	$ra, %call36(_ZdaPv)
	jirl	$ra, $ra, 0
.LBB4_54:                               # %_ZNKSt14default_deleteIA_fEclIfEENSt9enable_ifIXsr14is_convertibleIPA_T_PS0_EE5valueEvE4typeEPS4_.exit.i92
	move	$a0, $fp
	pcaddu18i	$ra, %call36(_ZdaPv)
	jirl	$ra, $ra, 0
	ld.d	$s3, $sp, 16
	beqz	$s3, .LBB4_51
.LBB4_55:                               # %_ZNKSt14default_deleteIA_fEclIfEENSt9enable_ifIXsr14is_convertibleIPA_T_PS0_EE5valueEvE4typeEPS4_.exit.i96
	move	$a0, $s3
	pcaddu18i	$ra, %call36(_ZdaPv)
	jirl	$ra, $ra, 0
	ld.d	$s2, $sp, 24
	beqz	$s2, .LBB4_52
.LBB4_56:                               # %_ZNKSt14default_deleteIA_fEclIfEENSt9enable_ifIXsr14is_convertibleIPA_T_PS0_EE5valueEvE4typeEPS4_.exit.i100
	move	$a0, $s2
	pcaddu18i	$ra, %call36(_ZdaPv)
	jirl	$ra, $ra, 0
	move	$a0, $s0
	pcaddu18i	$ra, %call36(_Unwind_Resume)
	jirl	$ra, $ra, 0
.Lfunc_end4:
	.size	_Z30BENCHMARK_acosf_autovec_float_RN9benchmark5StateE, .Lfunc_end4-_Z30BENCHMARK_acosf_autovec_float_RN9benchmark5StateE
	.cfi_endproc
	.section	.gcc_except_table,"a",@progbits
	.p2align	2, 0x0
GCC_except_table4:
.Lexception4:
	.byte	255                             # @LPStart Encoding = omit
	.byte	255                             # @TType Encoding = omit
	.byte	1                               # Call site Encoding = uleb128
	.uleb128 .Lcst_end4-.Lcst_begin4
.Lcst_begin4:
	.uleb128 .Lfunc_begin4-.Lfunc_begin4    # >> Call Site 1 <<
	.uleb128 .Ltmp80-.Lfunc_begin4          #   Call between .Lfunc_begin4 and .Ltmp80
	.byte	0                               #     has no landing pad
	.byte	0                               #   On action: cleanup
	.uleb128 .Ltmp80-.Lfunc_begin4          # >> Call Site 2 <<
	.uleb128 .Ltmp81-.Ltmp80                #   Call between .Ltmp80 and .Ltmp81
	.uleb128 .Ltmp82-.Lfunc_begin4          #     jumps to .Ltmp82
	.byte	0                               #   On action: cleanup
	.uleb128 .Ltmp83-.Lfunc_begin4          # >> Call Site 3 <<
	.uleb128 .Ltmp84-.Ltmp83                #   Call between .Ltmp83 and .Ltmp84
	.uleb128 .Ltmp85-.Lfunc_begin4          #     jumps to .Ltmp85
	.byte	0                               #   On action: cleanup
	.uleb128 .Ltmp84-.Lfunc_begin4          # >> Call Site 4 <<
	.uleb128 .Ltmp86-.Ltmp84                #   Call between .Ltmp84 and .Ltmp86
	.byte	0                               #     has no landing pad
	.byte	0                               #   On action: cleanup
	.uleb128 .Ltmp86-.Lfunc_begin4          # >> Call Site 5 <<
	.uleb128 .Ltmp87-.Ltmp86                #   Call between .Ltmp86 and .Ltmp87
	.uleb128 .Ltmp88-.Lfunc_begin4          #     jumps to .Ltmp88
	.byte	0                               #   On action: cleanup
	.uleb128 .Ltmp87-.Lfunc_begin4          # >> Call Site 6 <<
	.uleb128 .Ltmp104-.Ltmp87               #   Call between .Ltmp87 and .Ltmp104
	.byte	0                               #     has no landing pad
	.byte	0                               #   On action: cleanup
	.uleb128 .Ltmp104-.Lfunc_begin4         # >> Call Site 7 <<
	.uleb128 .Ltmp105-.Ltmp104              #   Call between .Ltmp104 and .Ltmp105
	.uleb128 .Ltmp108-.Lfunc_begin4         #     jumps to .Ltmp108
	.byte	0                               #   On action: cleanup
	.uleb128 .Ltmp105-.Lfunc_begin4         # >> Call Site 8 <<
	.uleb128 .Ltmp106-.Ltmp105              #   Call between .Ltmp105 and .Ltmp106
	.byte	0                               #     has no landing pad
	.byte	0                               #   On action: cleanup
	.uleb128 .Ltmp106-.Lfunc_begin4         # >> Call Site 9 <<
	.uleb128 .Ltmp107-.Ltmp106              #   Call between .Ltmp106 and .Ltmp107
	.uleb128 .Ltmp108-.Lfunc_begin4         #     jumps to .Ltmp108
	.byte	0                               #   On action: cleanup
	.uleb128 .Ltmp107-.Lfunc_begin4         # >> Call Site 10 <<
	.uleb128 .Ltmp89-.Ltmp107               #   Call between .Ltmp107 and .Ltmp89
	.byte	0                               #     has no landing pad
	.byte	0                               #   On action: cleanup
	.uleb128 .Ltmp89-.Lfunc_begin4          # >> Call Site 11 <<
	.uleb128 .Ltmp102-.Ltmp89               #   Call between .Ltmp89 and .Ltmp102
	.uleb128 .Ltmp103-.Lfunc_begin4         #     jumps to .Ltmp103
	.byte	0                               #   On action: cleanup
	.uleb128 .Ltmp102-.Lfunc_begin4         # >> Call Site 12 <<
	.uleb128 .Lfunc_end4-.Ltmp102           #   Call between .Ltmp102 and .Lfunc_end4
	.byte	0                               #     has no landing pad
	.byte	0                               #   On action: cleanup
.Lcst_end4:
	.p2align	2, 0x0
                                        # -- End function
	.text
	.globl	_Z28BENCHMARK_acosf_novec_float_RN9benchmark5StateE # -- Begin function _Z28BENCHMARK_acosf_novec_float_RN9benchmark5StateE
	.p2align	5
	.type	_Z28BENCHMARK_acosf_novec_float_RN9benchmark5StateE,@function
_Z28BENCHMARK_acosf_novec_float_RN9benchmark5StateE: # @_Z28BENCHMARK_acosf_novec_float_RN9benchmark5StateE
.Lfunc_begin5:
	.cfi_startproc
	.cfi_personality 155, DW.ref.__gxx_personality_v0
	.cfi_lsda 27, .Lexception5
# %bb.0:                                # %entry
	addi.d	$sp, $sp, -128
	.cfi_def_cfa_offset 128
	st.d	$ra, $sp, 120                   # 8-byte Folded Spill
	st.d	$fp, $sp, 112                   # 8-byte Folded Spill
	st.d	$s0, $sp, 104                   # 8-byte Folded Spill
	st.d	$s1, $sp, 96                    # 8-byte Folded Spill
	st.d	$s2, $sp, 88                    # 8-byte Folded Spill
	st.d	$s3, $sp, 80                    # 8-byte Folded Spill
	st.d	$s4, $sp, 72                    # 8-byte Folded Spill
	st.d	$s5, $sp, 64                    # 8-byte Folded Spill
	st.d	$s6, $sp, 56                    # 8-byte Folded Spill
	st.d	$s7, $sp, 48                    # 8-byte Folded Spill
	st.d	$s8, $sp, 40                    # 8-byte Folded Spill
	fst.d	$fs0, $sp, 32                   # 8-byte Folded Spill
	.cfi_offset 1, -8
	.cfi_offset 22, -16
	.cfi_offset 23, -24
	.cfi_offset 24, -32
	.cfi_offset 25, -40
	.cfi_offset 26, -48
	.cfi_offset 27, -56
	.cfi_offset 28, -64
	.cfi_offset 29, -72
	.cfi_offset 30, -80
	.cfi_offset 31, -88
	.cfi_offset 56, -96
	move	$fp, $a0
	lu12i.w	$a0, 9
	ori	$s2, $a0, 3136
	move	$a0, $s2
	pcaddu18i	$ra, %call36(_Znam)
	jirl	$ra, $ra, 0
	move	$s0, $a0
	st.d	$a0, $sp, 24
.Ltmp109:                               # EH_LABEL
	move	$a0, $s2
	pcaddu18i	$ra, %call36(_Znam)
	jirl	$ra, $ra, 0
.Ltmp110:                               # EH_LABEL
# %bb.1:                                # %invoke.cont.i
	move	$s1, $a0
	st.d	$a0, $sp, 16
.Ltmp112:                               # EH_LABEL
	move	$a0, $s2
	pcaddu18i	$ra, %call36(_Znam)
	jirl	$ra, $ra, 0
.Ltmp113:                               # EH_LABEL
# %bb.2:                                # %invoke.cont3.i
	move	$a2, $a0
	st.d	$a0, $sp, 8
	move	$a0, $s0
	move	$a1, $s1
	pcaddu18i	$ra, %call36(_ZL9init_dataIfEvPT_S1_S1_)
	jirl	$ra, $ra, 0
	ld.w	$s1, $fp, 28
	ld.d	$s0, $fp, 16
.Ltmp115:                               # EH_LABEL
	move	$a0, $fp
	pcaddu18i	$ra, %call36(_ZN9benchmark5State16StartKeepRunningEv)
	jirl	$ra, $ra, 0
.Ltmp116:                               # EH_LABEL
# %bb.3:                                # %for.cond.i.preheader
	bnez	$s1, .LBB5_9
# %bb.4:                                # %for.cond.i.preheader
	beqz	$s0, .LBB5_9
# %bb.5:
	lu12i.w	$a0, 2
	ori	$s1, $a0, 1808
	addi.d	$s2, $sp, 24
	addi.d	$s3, $sp, 16
	addi.d	$s4, $sp, 8
	.p2align	4, , 16
.LBB5_6:                                # %for.body.i
                                        # =>This Loop Header: Depth=1
                                        #     Child Loop BB5_7 Depth 2
	ld.d	$s5, $sp, 24
	ld.d	$s6, $sp, 16
	ld.d	$s7, $sp, 8
	move	$s8, $s1
	.p2align	4, , 16
.LBB5_7:                                # %for.body.i13
                                        #   Parent Loop BB5_6 Depth=1
                                        # =>  This Inner Loop Header: Depth=2
	fld.s	$fa0, $s5, 0
	pcaddu18i	$ra, %call36(acosf)
	jirl	$ra, $ra, 0
	fld.s	$fa1, $s6, 0
	fmov.s	$fs0, $fa0
	fmov.s	$fa0, $fa1
	pcaddu18i	$ra, %call36(acosf)
	jirl	$ra, $ra, 0
	fadd.s	$fa0, $fs0, $fa0
	fst.s	$fa0, $s7, 0
	addi.d	$s8, $s8, -1
	addi.d	$s7, $s7, 4
	addi.d	$s6, $s6, 4
	addi.d	$s5, $s5, 4
	bnez	$s8, .LBB5_7
# %bb.8:                                # %invoke.cont23.i
                                        #   in Loop: Header=BB5_6 Depth=1
	#APP
	#NO_APP
	#APP
	#NO_APP
	#APP
	#NO_APP
	addi.d	$s0, $s0, -1
	bnez	$s0, .LBB5_6
.LBB5_9:                                # %if.end.i
.Ltmp117:                               # EH_LABEL
	move	$a0, $fp
	pcaddu18i	$ra, %call36(_ZN9benchmark5State17FinishKeepRunningEv)
	jirl	$ra, $ra, 0
.Ltmp118:                               # EH_LABEL
# %bb.10:                               # %_ZL18benchmark_fn_novecIfEvRN9benchmark5StateEPFT_S3_E.exit
	ld.d	$a0, $sp, 8
	beqz	$a0, .LBB5_12
# %bb.11:                               # %_ZNKSt14default_deleteIA_fEclIfEENSt9enable_ifIXsr14is_convertibleIPA_T_PS0_EE5valueEvE4typeEPS4_.exit.i26
	pcaddu18i	$ra, %call36(_ZdaPv)
	jirl	$ra, $ra, 0
.LBB5_12:                               # %_ZNSt10unique_ptrIA_fSt14default_deleteIS0_EED2Ev.exit28
	ld.d	$a0, $sp, 16
	beqz	$a0, .LBB5_14
# %bb.13:                               # %_ZNKSt14default_deleteIA_fEclIfEENSt9enable_ifIXsr14is_convertibleIPA_T_PS0_EE5valueEvE4typeEPS4_.exit.i30
	pcaddu18i	$ra, %call36(_ZdaPv)
	jirl	$ra, $ra, 0
.LBB5_14:                               # %_ZNSt10unique_ptrIA_fSt14default_deleteIS0_EED2Ev.exit32
	ld.d	$a0, $sp, 24
	beqz	$a0, .LBB5_16
# %bb.15:                               # %_ZNKSt14default_deleteIA_fEclIfEENSt9enable_ifIXsr14is_convertibleIPA_T_PS0_EE5valueEvE4typeEPS4_.exit.i34
	pcaddu18i	$ra, %call36(_ZdaPv)
	jirl	$ra, $ra, 0
.LBB5_16:                               # %_ZNSt10unique_ptrIA_fSt14default_deleteIS0_EED2Ev.exit36
	fld.d	$fs0, $sp, 32                   # 8-byte Folded Reload
	ld.d	$s8, $sp, 40                    # 8-byte Folded Reload
	ld.d	$s7, $sp, 48                    # 8-byte Folded Reload
	ld.d	$s6, $sp, 56                    # 8-byte Folded Reload
	ld.d	$s5, $sp, 64                    # 8-byte Folded Reload
	ld.d	$s4, $sp, 72                    # 8-byte Folded Reload
	ld.d	$s3, $sp, 80                    # 8-byte Folded Reload
	ld.d	$s2, $sp, 88                    # 8-byte Folded Reload
	ld.d	$s1, $sp, 96                    # 8-byte Folded Reload
	ld.d	$s0, $sp, 104                   # 8-byte Folded Reload
	ld.d	$fp, $sp, 112                   # 8-byte Folded Reload
	ld.d	$ra, $sp, 120                   # 8-byte Folded Reload
	addi.d	$sp, $sp, 128
	ret
.LBB5_17:                               # %ehcleanup28.i.thread
.Ltmp114:                               # EH_LABEL
	move	$fp, $a0
	b	.LBB5_24
.LBB5_18:                               # %ehcleanup30.i.thread
.Ltmp111:                               # EH_LABEL
	move	$fp, $a0
	move	$a0, $s0
	pcaddu18i	$ra, %call36(_ZdaPv)
	jirl	$ra, $ra, 0
	move	$a0, $fp
	pcaddu18i	$ra, %call36(_Unwind_Resume)
	jirl	$ra, $ra, 0
.LBB5_19:                               # %lpad13.i
.Ltmp119:                               # EH_LABEL
	ld.d	$a1, $sp, 8
	move	$fp, $a0
	bnez	$a1, .LBB5_23
# %bb.20:                               # %ehcleanup28.i
	ld.d	$s1, $sp, 16
	bnez	$s1, .LBB5_24
.LBB5_21:                               # %ehcleanup30.i
	ld.d	$s0, $sp, 24
	bnez	$s0, .LBB5_25
.LBB5_22:                               # %_ZNSt10unique_ptrIA_fSt14default_deleteIS0_EED2Ev.exit24
	move	$a0, $fp
	pcaddu18i	$ra, %call36(_Unwind_Resume)
	jirl	$ra, $ra, 0
.LBB5_23:                               # %_ZNKSt14default_deleteIA_fEclIfEENSt9enable_ifIXsr14is_convertibleIPA_T_PS0_EE5valueEvE4typeEPS4_.exit.i
	move	$a0, $a1
	pcaddu18i	$ra, %call36(_ZdaPv)
	jirl	$ra, $ra, 0
	ld.d	$s1, $sp, 16
	beqz	$s1, .LBB5_21
.LBB5_24:                               # %_ZNKSt14default_deleteIA_fEclIfEENSt9enable_ifIXsr14is_convertibleIPA_T_PS0_EE5valueEvE4typeEPS4_.exit.i18
	move	$a0, $s1
	pcaddu18i	$ra, %call36(_ZdaPv)
	jirl	$ra, $ra, 0
	ld.d	$s0, $sp, 24
	beqz	$s0, .LBB5_22
.LBB5_25:                               # %_ZNKSt14default_deleteIA_fEclIfEENSt9enable_ifIXsr14is_convertibleIPA_T_PS0_EE5valueEvE4typeEPS4_.exit.i22
	move	$a0, $s0
	pcaddu18i	$ra, %call36(_ZdaPv)
	jirl	$ra, $ra, 0
	move	$a0, $fp
	pcaddu18i	$ra, %call36(_Unwind_Resume)
	jirl	$ra, $ra, 0
.Lfunc_end5:
	.size	_Z28BENCHMARK_acosf_novec_float_RN9benchmark5StateE, .Lfunc_end5-_Z28BENCHMARK_acosf_novec_float_RN9benchmark5StateE
	.cfi_endproc
	.section	.gcc_except_table,"a",@progbits
	.p2align	2, 0x0
GCC_except_table5:
.Lexception5:
	.byte	255                             # @LPStart Encoding = omit
	.byte	255                             # @TType Encoding = omit
	.byte	1                               # Call site Encoding = uleb128
	.uleb128 .Lcst_end5-.Lcst_begin5
.Lcst_begin5:
	.uleb128 .Lfunc_begin5-.Lfunc_begin5    # >> Call Site 1 <<
	.uleb128 .Ltmp109-.Lfunc_begin5         #   Call between .Lfunc_begin5 and .Ltmp109
	.byte	0                               #     has no landing pad
	.byte	0                               #   On action: cleanup
	.uleb128 .Ltmp109-.Lfunc_begin5         # >> Call Site 2 <<
	.uleb128 .Ltmp110-.Ltmp109              #   Call between .Ltmp109 and .Ltmp110
	.uleb128 .Ltmp111-.Lfunc_begin5         #     jumps to .Ltmp111
	.byte	0                               #   On action: cleanup
	.uleb128 .Ltmp112-.Lfunc_begin5         # >> Call Site 3 <<
	.uleb128 .Ltmp113-.Ltmp112              #   Call between .Ltmp112 and .Ltmp113
	.uleb128 .Ltmp114-.Lfunc_begin5         #     jumps to .Ltmp114
	.byte	0                               #   On action: cleanup
	.uleb128 .Ltmp113-.Lfunc_begin5         # >> Call Site 4 <<
	.uleb128 .Ltmp115-.Ltmp113              #   Call between .Ltmp113 and .Ltmp115
	.byte	0                               #     has no landing pad
	.byte	0                               #   On action: cleanup
	.uleb128 .Ltmp115-.Lfunc_begin5         # >> Call Site 5 <<
	.uleb128 .Ltmp116-.Ltmp115              #   Call between .Ltmp115 and .Ltmp116
	.uleb128 .Ltmp119-.Lfunc_begin5         #     jumps to .Ltmp119
	.byte	0                               #   On action: cleanup
	.uleb128 .Ltmp116-.Lfunc_begin5         # >> Call Site 6 <<
	.uleb128 .Ltmp117-.Ltmp116              #   Call between .Ltmp116 and .Ltmp117
	.byte	0                               #     has no landing pad
	.byte	0                               #   On action: cleanup
	.uleb128 .Ltmp117-.Lfunc_begin5         # >> Call Site 7 <<
	.uleb128 .Ltmp118-.Ltmp117              #   Call between .Ltmp117 and .Ltmp118
	.uleb128 .Ltmp119-.Lfunc_begin5         #     jumps to .Ltmp119
	.byte	0                               #   On action: cleanup
	.uleb128 .Ltmp118-.Lfunc_begin5         # >> Call Site 8 <<
	.uleb128 .Lfunc_end5-.Ltmp118           #   Call between .Ltmp118 and .Lfunc_end5
	.byte	0                               #     has no landing pad
	.byte	0                               #   On action: cleanup
.Lcst_end5:
	.p2align	2, 0x0
                                        # -- End function
	.text
	.globl	_Z30BENCHMARK_acos_autovec_double_RN9benchmark5StateE # -- Begin function _Z30BENCHMARK_acos_autovec_double_RN9benchmark5StateE
	.p2align	5
	.type	_Z30BENCHMARK_acos_autovec_double_RN9benchmark5StateE,@function
_Z30BENCHMARK_acos_autovec_double_RN9benchmark5StateE: # @_Z30BENCHMARK_acos_autovec_double_RN9benchmark5StateE
.Lfunc_begin6:
	.cfi_startproc
	.cfi_personality 155, DW.ref.__gxx_personality_v0
	.cfi_lsda 27, .Lexception6
# %bb.0:                                # %entry
	addi.d	$sp, $sp, -128
	.cfi_def_cfa_offset 128
	st.d	$ra, $sp, 120                   # 8-byte Folded Spill
	st.d	$fp, $sp, 112                   # 8-byte Folded Spill
	st.d	$s0, $sp, 104                   # 8-byte Folded Spill
	st.d	$s1, $sp, 96                    # 8-byte Folded Spill
	st.d	$s2, $sp, 88                    # 8-byte Folded Spill
	st.d	$s3, $sp, 80                    # 8-byte Folded Spill
	st.d	$s4, $sp, 72                    # 8-byte Folded Spill
	st.d	$s5, $sp, 64                    # 8-byte Folded Spill
	st.d	$s6, $sp, 56                    # 8-byte Folded Spill
	st.d	$s7, $sp, 48                    # 8-byte Folded Spill
	st.d	$s8, $sp, 40                    # 8-byte Folded Spill
	fst.d	$fs0, $sp, 32                   # 8-byte Folded Spill
	.cfi_offset 1, -8
	.cfi_offset 22, -16
	.cfi_offset 23, -24
	.cfi_offset 24, -32
	.cfi_offset 25, -40
	.cfi_offset 26, -48
	.cfi_offset 27, -56
	.cfi_offset 28, -64
	.cfi_offset 29, -72
	.cfi_offset 30, -80
	.cfi_offset 31, -88
	.cfi_offset 56, -96
	move	$s0, $a0
	lu12i.w	$a0, 19
	ori	$s4, $a0, 2176
	move	$a0, $s4
	pcaddu18i	$ra, %call36(_Znam)
	jirl	$ra, $ra, 0
	move	$s2, $a0
	st.d	$a0, $sp, 24
.Ltmp120:                               # EH_LABEL
	move	$a0, $s4
	pcaddu18i	$ra, %call36(_Znam)
	jirl	$ra, $ra, 0
.Ltmp121:                               # EH_LABEL
# %bb.1:                                # %invoke.cont.i
	move	$s3, $a0
	st.d	$a0, $sp, 16
.Ltmp123:                               # EH_LABEL
	move	$a0, $s4
	pcaddu18i	$ra, %call36(_Znam)
	jirl	$ra, $ra, 0
.Ltmp124:                               # EH_LABEL
# %bb.2:                                # %invoke.cont3.i
	move	$fp, $a0
	st.d	$a0, $sp, 8
	move	$a0, $s2
	move	$a1, $s3
	move	$a2, $fp
	pcaddu18i	$ra, %call36(_ZL9init_dataIdEvPT_S1_S1_)
	jirl	$ra, $ra, 0
.Ltmp126:                               # EH_LABEL
	move	$a0, $s4
	pcaddu18i	$ra, %call36(_Znam)
	jirl	$ra, $ra, 0
.Ltmp127:                               # EH_LABEL
# %bb.3:                                # %vector.body.preheader
	move	$s1, $a0
	move	$a0, $zero
	.p2align	4, , 16
.LBB6_4:                                # %vector.body
                                        # =>This Inner Loop Header: Depth=1
	vldx	$vr0, $fp, $a0
	add.d	$a1, $fp, $a0
	vld	$vr1, $a1, 16
	add.d	$a1, $s1, $a0
	vstx	$vr0, $s1, $a0
	addi.d	$a0, $a0, 32
	vst	$vr1, $a1, 16
	bne	$a0, $s4, .LBB6_4
# %bb.5:                                # %for.body.i14.preheader
	move	$s5, $zero
	.p2align	4, , 16
.LBB6_6:                                # %for.body.i14
                                        # =>This Inner Loop Header: Depth=1
	fldx.d	$fa0, $s2, $s5
	pcaddu18i	$ra, %call36(acos)
	jirl	$ra, $ra, 0
	fldx.d	$fa1, $s3, $s5
	fmov.d	$fs0, $fa0
	fmov.d	$fa0, $fa1
	pcaddu18i	$ra, %call36(acos)
	jirl	$ra, $ra, 0
	fadd.d	$fa0, $fs0, $fa0
	fstx.d	$fa0, $s1, $s5
	addi.d	$s5, $s5, 8
	bne	$s5, $s4, .LBB6_6
# %bb.7:                                # %for.body.i22.preheader
	move	$s5, $zero
	.p2align	4, , 16
.LBB6_8:                                # %for.body.i22
                                        # =>This Inner Loop Header: Depth=1
	fldx.d	$fa0, $s2, $s5
	pcaddu18i	$ra, %call36(acos)
	jirl	$ra, $ra, 0
	fldx.d	$fa1, $s3, $s5
	fmov.d	$fs0, $fa0
	fmov.d	$fa0, $fa1
	pcaddu18i	$ra, %call36(acos)
	jirl	$ra, $ra, 0
	fadd.d	$fa0, $fs0, $fa0
	fstx.d	$fa0, $fp, $s5
	addi.d	$s5, $s5, 8
	bne	$s5, $s4, .LBB6_8
# %bb.9:                                # %for.body41.i.preheader
	move	$s2, $zero
	movgr2fr.d	$fa0, $zero
	lu52i.d	$a0, $zero, 1
	movgr2fr.d	$fa1, $a0
	lu12i.w	$a0, 2
	ori	$s3, $a0, 1808
	move	$s4, $s1
	move	$s5, $fp
	b	.LBB6_13
.LBB6_10:                               #   in Loop: Header=BB6_13 Depth=1
	move	$a0, $zero
	.p2align	4, , 16
.LBB6_11:                               # %_ZSt10fpclassifyd.exit49
                                        #   in Loop: Header=BB6_13 Depth=1
	bne	$a1, $a0, .LBB6_38
.LBB6_12:                               # %for.inc81.i
                                        #   in Loop: Header=BB6_13 Depth=1
	addi.d	$s2, $s2, 1
	addi.d	$s5, $s5, 8
	addi.d	$s4, $s4, 8
	beq	$s2, $s3, .LBB6_23
.LBB6_13:                               # %for.body41.i
                                        # =>This Inner Loop Header: Depth=1
	fld.d	$fa3, $s5, 0
	fld.d	$fa2, $s4, 0
	fcmp.ceq.d	$fcc0, $fa3, $fa2
	bcnez	$fcc0, .LBB6_12
# %bb.14:                               # %land.lhs.true.i
                                        #   in Loop: Header=BB6_13 Depth=1
	ori	$a0, $zero, 2
	fcmp.ceq.d	$fcc0, $fa3, $fa0
	ori	$a1, $zero, 2
	bcnez	$fcc0, .LBB6_18
# %bb.15:                               # %fpclassify_not_zero.i
                                        #   in Loop: Header=BB6_13 Depth=1
	fcmp.cun.d	$fcc0, $fa3, $fa3
	bcnez	$fcc0, .LBB6_22
# %bb.16:                               # %fpclassify_not_nan.i
                                        #   in Loop: Header=BB6_13 Depth=1
	fclass.d	$fa4, $fa3
	movfr2gr.d	$a1, $fa4
	andi	$a1, $a1, 68
	sltu	$a1, $zero, $a1
	andi	$a2, $a1, 1
	ori	$a1, $zero, 1
	bnez	$a2, .LBB6_18
# %bb.17:                               # %fpclassify_not_inf.i
                                        #   in Loop: Header=BB6_13 Depth=1
	fabs.d	$fa3, $fa3
	fcmp.cule.d	$fcc0, $fa1, $fa3
	movcf2gr	$a1, $fcc0
	addi.d	$a1, $a1, 3
	.p2align	4, , 16
.LBB6_18:                               # %_ZSt10fpclassifyd.exit
                                        #   in Loop: Header=BB6_13 Depth=1
	fcmp.ceq.d	$fcc0, $fa2, $fa0
	bcnez	$fcc0, .LBB6_11
.LBB6_19:                               # %fpclassify_not_zero.i42
                                        #   in Loop: Header=BB6_13 Depth=1
	fcmp.cun.d	$fcc0, $fa2, $fa2
	bcnez	$fcc0, .LBB6_10
# %bb.20:                               # %fpclassify_not_nan.i44
                                        #   in Loop: Header=BB6_13 Depth=1
	fclass.d	$fa3, $fa2
	movfr2gr.d	$a0, $fa3
	andi	$a0, $a0, 68
	sltu	$a0, $zero, $a0
	andi	$a2, $a0, 1
	ori	$a0, $zero, 1
	bnez	$a2, .LBB6_11
# %bb.21:                               # %fpclassify_not_inf.i46
                                        #   in Loop: Header=BB6_13 Depth=1
	fabs.d	$fa2, $fa2
	fcmp.cule.d	$fcc0, $fa1, $fa2
	movcf2gr	$a0, $fcc0
	addi.d	$a0, $a0, 3
	b	.LBB6_11
.LBB6_22:                               #   in Loop: Header=BB6_13 Depth=1
	move	$a1, $zero
	fcmp.ceq.d	$fcc0, $fa2, $fa0
	bcnez	$fcc0, .LBB6_11
	b	.LBB6_19
.LBB6_23:                               # %_ZNSt10unique_ptrIA_dSt14default_deleteIS0_EED2Ev.exit
	move	$a0, $s1
	pcaddu18i	$ra, %call36(_ZdaPv)
	jirl	$ra, $ra, 0
	ld.w	$s1, $s0, 28
	ld.d	$fp, $s0, 16
.Ltmp144:                               # EH_LABEL
	move	$a0, $s0
	pcaddu18i	$ra, %call36(_ZN9benchmark5State16StartKeepRunningEv)
	jirl	$ra, $ra, 0
.Ltmp145:                               # EH_LABEL
# %bb.24:                               # %for.cond91.i.preheader
	bnez	$s1, .LBB6_30
# %bb.25:                               # %for.cond91.i.preheader
	beqz	$fp, .LBB6_30
# %bb.26:
	addi.d	$s1, $sp, 24
	addi.d	$s2, $sp, 16
	addi.d	$s4, $sp, 8
	.p2align	4, , 16
.LBB6_27:                               # %for.body95.i
                                        # =>This Loop Header: Depth=1
                                        #     Child Loop BB6_28 Depth 2
	ld.d	$s5, $sp, 24
	ld.d	$s6, $sp, 16
	ld.d	$s7, $sp, 8
	move	$s8, $s3
	.p2align	4, , 16
.LBB6_28:                               # %for.body.i80
                                        #   Parent Loop BB6_27 Depth=1
                                        # =>  This Inner Loop Header: Depth=2
	fld.d	$fa0, $s5, 0
	pcaddu18i	$ra, %call36(acos)
	jirl	$ra, $ra, 0
	fld.d	$fa1, $s6, 0
	fmov.d	$fs0, $fa0
	fmov.d	$fa0, $fa1
	pcaddu18i	$ra, %call36(acos)
	jirl	$ra, $ra, 0
	fadd.d	$fa0, $fs0, $fa0
	fst.d	$fa0, $s7, 0
	addi.d	$s8, $s8, -1
	addi.d	$s7, $s7, 8
	addi.d	$s6, $s6, 8
	addi.d	$s5, $s5, 8
	bnez	$s8, .LBB6_28
# %bb.29:                               # %invoke.cont104.i
                                        #   in Loop: Header=BB6_27 Depth=1
	#APP
	#NO_APP
	#APP
	#NO_APP
	#APP
	#NO_APP
	addi.d	$fp, $fp, -1
	#MEMBARRIER
	bnez	$fp, .LBB6_27
.LBB6_30:                               # %if.end.i
.Ltmp146:                               # EH_LABEL
	move	$a0, $s0
	pcaddu18i	$ra, %call36(_ZN9benchmark5State17FinishKeepRunningEv)
	jirl	$ra, $ra, 0
.Ltmp147:                               # EH_LABEL
# %bb.31:                               # %_ZL20benchmark_fn_autovecIdEvRN9benchmark5StateEPFT_S3_E.exit
	ld.d	$a0, $sp, 8
	beqz	$a0, .LBB6_33
# %bb.32:                               # %_ZNKSt14default_deleteIA_dEclIdEENSt9enable_ifIXsr14is_convertibleIPA_T_PS0_EE5valueEvE4typeEPS4_.exit.i105
	pcaddu18i	$ra, %call36(_ZdaPv)
	jirl	$ra, $ra, 0
.LBB6_33:                               # %_ZNSt10unique_ptrIA_dSt14default_deleteIS0_EED2Ev.exit107
	ld.d	$a0, $sp, 16
	beqz	$a0, .LBB6_35
# %bb.34:                               # %_ZNKSt14default_deleteIA_dEclIdEENSt9enable_ifIXsr14is_convertibleIPA_T_PS0_EE5valueEvE4typeEPS4_.exit.i109
	pcaddu18i	$ra, %call36(_ZdaPv)
	jirl	$ra, $ra, 0
.LBB6_35:                               # %_ZNSt10unique_ptrIA_dSt14default_deleteIS0_EED2Ev.exit111
	ld.d	$a0, $sp, 24
	beqz	$a0, .LBB6_37
# %bb.36:                               # %_ZNKSt14default_deleteIA_dEclIdEENSt9enable_ifIXsr14is_convertibleIPA_T_PS0_EE5valueEvE4typeEPS4_.exit.i113
	pcaddu18i	$ra, %call36(_ZdaPv)
	jirl	$ra, $ra, 0
.LBB6_37:                               # %_ZNSt10unique_ptrIA_dSt14default_deleteIS0_EED2Ev.exit115
	fld.d	$fs0, $sp, 32                   # 8-byte Folded Reload
	ld.d	$s8, $sp, 40                    # 8-byte Folded Reload
	ld.d	$s7, $sp, 48                    # 8-byte Folded Reload
	ld.d	$s6, $sp, 56                    # 8-byte Folded Reload
	ld.d	$s5, $sp, 64                    # 8-byte Folded Reload
	ld.d	$s4, $sp, 72                    # 8-byte Folded Reload
	ld.d	$s3, $sp, 80                    # 8-byte Folded Reload
	ld.d	$s2, $sp, 88                    # 8-byte Folded Reload
	ld.d	$s1, $sp, 96                    # 8-byte Folded Reload
	ld.d	$s0, $sp, 104                   # 8-byte Folded Reload
	ld.d	$fp, $sp, 112                   # 8-byte Folded Reload
	ld.d	$ra, $sp, 120                   # 8-byte Folded Reload
	addi.d	$sp, $sp, 128
	ret
.LBB6_38:                               # %if.then.i
.Ltmp129:                               # EH_LABEL
	pcalau12i	$a0, %got_pc_hi20(_ZSt4cerr)
	ld.d	$a0, $a0, %got_pc_lo12(_ZSt4cerr)
	pcalau12i	$a1, %pc_hi20(.L.str.73)
	addi.d	$a1, $a1, %pc_lo12(.L.str.73)
	ori	$a2, $zero, 49
	pcaddu18i	$ra, %call36(_ZSt16__ostream_insertIcSt11char_traitsIcEERSt13basic_ostreamIT_T0_ES6_PKS3_l)
	jirl	$ra, $ra, 0
.Ltmp130:                               # EH_LABEL
# %bb.39:                               # %invoke.cont61.i
	fld.d	$fa0, $s5, 0
.Ltmp131:                               # EH_LABEL
	pcalau12i	$a0, %got_pc_hi20(_ZSt4cerr)
	ld.d	$a0, $a0, %got_pc_lo12(_ZSt4cerr)
	pcaddu18i	$ra, %call36(_ZNSo9_M_insertIdEERSoT_)
	jirl	$ra, $ra, 0
.Ltmp132:                               # EH_LABEL
# %bb.40:                               # %invoke.cont66.i
.Ltmp133:                               # EH_LABEL
	move	$s0, $a0
	pcalau12i	$a0, %pc_hi20(.L.str.74)
	addi.d	$a1, $a0, %pc_lo12(.L.str.74)
	ori	$a2, $zero, 4
	move	$a0, $s0
	pcaddu18i	$ra, %call36(_ZSt16__ostream_insertIcSt11char_traitsIcEERSt13basic_ostreamIT_T0_ES6_PKS3_l)
	jirl	$ra, $ra, 0
.Ltmp134:                               # EH_LABEL
# %bb.41:                               # %invoke.cont68.i
	fld.d	$fa0, $s4, 0
.Ltmp135:                               # EH_LABEL
	move	$a0, $s0
	pcaddu18i	$ra, %call36(_ZNSo9_M_insertIdEERSoT_)
	jirl	$ra, $ra, 0
.Ltmp136:                               # EH_LABEL
# %bb.42:                               # %invoke.cont73.i
.Ltmp137:                               # EH_LABEL
	move	$s0, $a0
	pcalau12i	$a0, %pc_hi20(.L.str.75)
	addi.d	$a1, $a0, %pc_lo12(.L.str.75)
	ori	$a2, $zero, 10
	move	$a0, $s0
	pcaddu18i	$ra, %call36(_ZSt16__ostream_insertIcSt11char_traitsIcEERSt13basic_ostreamIT_T0_ES6_PKS3_l)
	jirl	$ra, $ra, 0
.Ltmp138:                               # EH_LABEL
# %bb.43:                               # %invoke.cont75.i
.Ltmp139:                               # EH_LABEL
	move	$a0, $s0
	move	$a1, $s2
	pcaddu18i	$ra, %call36(_ZNSo9_M_insertImEERSoT_)
	jirl	$ra, $ra, 0
.Ltmp140:                               # EH_LABEL
# %bb.44:                               # %invoke.cont77.i
.Ltmp141:                               # EH_LABEL
	pcalau12i	$a1, %pc_hi20(.L.str.76)
	addi.d	$a1, $a1, %pc_lo12(.L.str.76)
	pcaddu18i	$ra, %call36(_ZStlsISt11char_traitsIcEERSt13basic_ostreamIcT_ES5_PKc)
	jirl	$ra, $ra, 0
.Ltmp142:                               # EH_LABEL
# %bb.45:                               # %invoke.cont79.i
	ori	$a0, $zero, 1
	pcaddu18i	$ra, %call36(exit)
	jirl	$ra, $ra, 0
.LBB6_46:                               # %lpad13.i
.Ltmp128:                               # EH_LABEL
	move	$s0, $a0
	b	.LBB6_54
.LBB6_47:                               # %ehcleanup116.i.thread
.Ltmp125:                               # EH_LABEL
	move	$s0, $a0
	b	.LBB6_55
.LBB6_48:                               # %ehcleanup118.i.thread
.Ltmp122:                               # EH_LABEL
	move	$s0, $a0
	move	$a0, $s2
	pcaddu18i	$ra, %call36(_ZdaPv)
	jirl	$ra, $ra, 0
	move	$a0, $s0
	pcaddu18i	$ra, %call36(_Unwind_Resume)
	jirl	$ra, $ra, 0
.LBB6_49:                               # %ehcleanup115.i
.Ltmp148:                               # EH_LABEL
	ld.d	$fp, $sp, 8
	move	$s0, $a0
	bnez	$fp, .LBB6_54
# %bb.50:                               # %ehcleanup116.i
	ld.d	$s3, $sp, 16
	bnez	$s3, .LBB6_55
.LBB6_51:                               # %ehcleanup118.i
	ld.d	$s2, $sp, 24
	bnez	$s2, .LBB6_56
.LBB6_52:                               # %_ZNSt10unique_ptrIA_dSt14default_deleteIS0_EED2Ev.exit103
	move	$a0, $s0
	pcaddu18i	$ra, %call36(_Unwind_Resume)
	jirl	$ra, $ra, 0
.LBB6_53:                               # %lpad43.i
.Ltmp143:                               # EH_LABEL
	move	$s0, $a0
	move	$a0, $s1
	pcaddu18i	$ra, %call36(_ZdaPv)
	jirl	$ra, $ra, 0
.LBB6_54:                               # %_ZNKSt14default_deleteIA_dEclIdEENSt9enable_ifIXsr14is_convertibleIPA_T_PS0_EE5valueEvE4typeEPS4_.exit.i93
	move	$a0, $fp
	pcaddu18i	$ra, %call36(_ZdaPv)
	jirl	$ra, $ra, 0
	ld.d	$s3, $sp, 16
	beqz	$s3, .LBB6_51
.LBB6_55:                               # %_ZNKSt14default_deleteIA_dEclIdEENSt9enable_ifIXsr14is_convertibleIPA_T_PS0_EE5valueEvE4typeEPS4_.exit.i97
	move	$a0, $s3
	pcaddu18i	$ra, %call36(_ZdaPv)
	jirl	$ra, $ra, 0
	ld.d	$s2, $sp, 24
	beqz	$s2, .LBB6_52
.LBB6_56:                               # %_ZNKSt14default_deleteIA_dEclIdEENSt9enable_ifIXsr14is_convertibleIPA_T_PS0_EE5valueEvE4typeEPS4_.exit.i101
	move	$a0, $s2
	pcaddu18i	$ra, %call36(_ZdaPv)
	jirl	$ra, $ra, 0
	move	$a0, $s0
	pcaddu18i	$ra, %call36(_Unwind_Resume)
	jirl	$ra, $ra, 0
.Lfunc_end6:
	.size	_Z30BENCHMARK_acos_autovec_double_RN9benchmark5StateE, .Lfunc_end6-_Z30BENCHMARK_acos_autovec_double_RN9benchmark5StateE
	.cfi_endproc
	.section	.gcc_except_table,"a",@progbits
	.p2align	2, 0x0
GCC_except_table6:
.Lexception6:
	.byte	255                             # @LPStart Encoding = omit
	.byte	255                             # @TType Encoding = omit
	.byte	1                               # Call site Encoding = uleb128
	.uleb128 .Lcst_end6-.Lcst_begin6
.Lcst_begin6:
	.uleb128 .Lfunc_begin6-.Lfunc_begin6    # >> Call Site 1 <<
	.uleb128 .Ltmp120-.Lfunc_begin6         #   Call between .Lfunc_begin6 and .Ltmp120
	.byte	0                               #     has no landing pad
	.byte	0                               #   On action: cleanup
	.uleb128 .Ltmp120-.Lfunc_begin6         # >> Call Site 2 <<
	.uleb128 .Ltmp121-.Ltmp120              #   Call between .Ltmp120 and .Ltmp121
	.uleb128 .Ltmp122-.Lfunc_begin6         #     jumps to .Ltmp122
	.byte	0                               #   On action: cleanup
	.uleb128 .Ltmp123-.Lfunc_begin6         # >> Call Site 3 <<
	.uleb128 .Ltmp124-.Ltmp123              #   Call between .Ltmp123 and .Ltmp124
	.uleb128 .Ltmp125-.Lfunc_begin6         #     jumps to .Ltmp125
	.byte	0                               #   On action: cleanup
	.uleb128 .Ltmp124-.Lfunc_begin6         # >> Call Site 4 <<
	.uleb128 .Ltmp126-.Ltmp124              #   Call between .Ltmp124 and .Ltmp126
	.byte	0                               #     has no landing pad
	.byte	0                               #   On action: cleanup
	.uleb128 .Ltmp126-.Lfunc_begin6         # >> Call Site 5 <<
	.uleb128 .Ltmp127-.Ltmp126              #   Call between .Ltmp126 and .Ltmp127
	.uleb128 .Ltmp128-.Lfunc_begin6         #     jumps to .Ltmp128
	.byte	0                               #   On action: cleanup
	.uleb128 .Ltmp127-.Lfunc_begin6         # >> Call Site 6 <<
	.uleb128 .Ltmp144-.Ltmp127              #   Call between .Ltmp127 and .Ltmp144
	.byte	0                               #     has no landing pad
	.byte	0                               #   On action: cleanup
	.uleb128 .Ltmp144-.Lfunc_begin6         # >> Call Site 7 <<
	.uleb128 .Ltmp145-.Ltmp144              #   Call between .Ltmp144 and .Ltmp145
	.uleb128 .Ltmp148-.Lfunc_begin6         #     jumps to .Ltmp148
	.byte	0                               #   On action: cleanup
	.uleb128 .Ltmp145-.Lfunc_begin6         # >> Call Site 8 <<
	.uleb128 .Ltmp146-.Ltmp145              #   Call between .Ltmp145 and .Ltmp146
	.byte	0                               #     has no landing pad
	.byte	0                               #   On action: cleanup
	.uleb128 .Ltmp146-.Lfunc_begin6         # >> Call Site 9 <<
	.uleb128 .Ltmp147-.Ltmp146              #   Call between .Ltmp146 and .Ltmp147
	.uleb128 .Ltmp148-.Lfunc_begin6         #     jumps to .Ltmp148
	.byte	0                               #   On action: cleanup
	.uleb128 .Ltmp147-.Lfunc_begin6         # >> Call Site 10 <<
	.uleb128 .Ltmp129-.Ltmp147              #   Call between .Ltmp147 and .Ltmp129
	.byte	0                               #     has no landing pad
	.byte	0                               #   On action: cleanup
	.uleb128 .Ltmp129-.Lfunc_begin6         # >> Call Site 11 <<
	.uleb128 .Ltmp142-.Ltmp129              #   Call between .Ltmp129 and .Ltmp142
	.uleb128 .Ltmp143-.Lfunc_begin6         #     jumps to .Ltmp143
	.byte	0                               #   On action: cleanup
	.uleb128 .Ltmp142-.Lfunc_begin6         # >> Call Site 12 <<
	.uleb128 .Lfunc_end6-.Ltmp142           #   Call between .Ltmp142 and .Lfunc_end6
	.byte	0                               #     has no landing pad
	.byte	0                               #   On action: cleanup
.Lcst_end6:
	.p2align	2, 0x0
                                        # -- End function
	.text
	.globl	_Z28BENCHMARK_acos_novec_double_RN9benchmark5StateE # -- Begin function _Z28BENCHMARK_acos_novec_double_RN9benchmark5StateE
	.p2align	5
	.type	_Z28BENCHMARK_acos_novec_double_RN9benchmark5StateE,@function
_Z28BENCHMARK_acos_novec_double_RN9benchmark5StateE: # @_Z28BENCHMARK_acos_novec_double_RN9benchmark5StateE
.Lfunc_begin7:
	.cfi_startproc
	.cfi_personality 155, DW.ref.__gxx_personality_v0
	.cfi_lsda 27, .Lexception7
# %bb.0:                                # %entry
	addi.d	$sp, $sp, -128
	.cfi_def_cfa_offset 128
	st.d	$ra, $sp, 120                   # 8-byte Folded Spill
	st.d	$fp, $sp, 112                   # 8-byte Folded Spill
	st.d	$s0, $sp, 104                   # 8-byte Folded Spill
	st.d	$s1, $sp, 96                    # 8-byte Folded Spill
	st.d	$s2, $sp, 88                    # 8-byte Folded Spill
	st.d	$s3, $sp, 80                    # 8-byte Folded Spill
	st.d	$s4, $sp, 72                    # 8-byte Folded Spill
	st.d	$s5, $sp, 64                    # 8-byte Folded Spill
	st.d	$s6, $sp, 56                    # 8-byte Folded Spill
	st.d	$s7, $sp, 48                    # 8-byte Folded Spill
	st.d	$s8, $sp, 40                    # 8-byte Folded Spill
	fst.d	$fs0, $sp, 32                   # 8-byte Folded Spill
	.cfi_offset 1, -8
	.cfi_offset 22, -16
	.cfi_offset 23, -24
	.cfi_offset 24, -32
	.cfi_offset 25, -40
	.cfi_offset 26, -48
	.cfi_offset 27, -56
	.cfi_offset 28, -64
	.cfi_offset 29, -72
	.cfi_offset 30, -80
	.cfi_offset 31, -88
	.cfi_offset 56, -96
	move	$fp, $a0
	lu12i.w	$a0, 19
	ori	$s2, $a0, 2176
	move	$a0, $s2
	pcaddu18i	$ra, %call36(_Znam)
	jirl	$ra, $ra, 0
	move	$s0, $a0
	st.d	$a0, $sp, 24
.Ltmp149:                               # EH_LABEL
	move	$a0, $s2
	pcaddu18i	$ra, %call36(_Znam)
	jirl	$ra, $ra, 0
.Ltmp150:                               # EH_LABEL
# %bb.1:                                # %invoke.cont.i
	move	$s1, $a0
	st.d	$a0, $sp, 16
.Ltmp152:                               # EH_LABEL
	move	$a0, $s2
	pcaddu18i	$ra, %call36(_Znam)
	jirl	$ra, $ra, 0
.Ltmp153:                               # EH_LABEL
# %bb.2:                                # %invoke.cont3.i
	move	$a2, $a0
	st.d	$a0, $sp, 8
	move	$a0, $s0
	move	$a1, $s1
	pcaddu18i	$ra, %call36(_ZL9init_dataIdEvPT_S1_S1_)
	jirl	$ra, $ra, 0
	ld.w	$s1, $fp, 28
	ld.d	$s0, $fp, 16
.Ltmp155:                               # EH_LABEL
	move	$a0, $fp
	pcaddu18i	$ra, %call36(_ZN9benchmark5State16StartKeepRunningEv)
	jirl	$ra, $ra, 0
.Ltmp156:                               # EH_LABEL
# %bb.3:                                # %for.cond.i.preheader
	bnez	$s1, .LBB7_9
# %bb.4:                                # %for.cond.i.preheader
	beqz	$s0, .LBB7_9
# %bb.5:
	lu12i.w	$a0, 2
	ori	$s1, $a0, 1808
	addi.d	$s2, $sp, 24
	addi.d	$s3, $sp, 16
	addi.d	$s4, $sp, 8
	.p2align	4, , 16
.LBB7_6:                                # %for.body.i
                                        # =>This Loop Header: Depth=1
                                        #     Child Loop BB7_7 Depth 2
	ld.d	$s5, $sp, 24
	ld.d	$s6, $sp, 16
	ld.d	$s7, $sp, 8
	move	$s8, $s1
	.p2align	4, , 16
.LBB7_7:                                # %for.body.i13
                                        #   Parent Loop BB7_6 Depth=1
                                        # =>  This Inner Loop Header: Depth=2
	fld.d	$fa0, $s5, 0
	pcaddu18i	$ra, %call36(acos)
	jirl	$ra, $ra, 0
	fld.d	$fa1, $s6, 0
	fmov.d	$fs0, $fa0
	fmov.d	$fa0, $fa1
	pcaddu18i	$ra, %call36(acos)
	jirl	$ra, $ra, 0
	fadd.d	$fa0, $fs0, $fa0
	fst.d	$fa0, $s7, 0
	addi.d	$s8, $s8, -1
	addi.d	$s7, $s7, 8
	addi.d	$s6, $s6, 8
	addi.d	$s5, $s5, 8
	bnez	$s8, .LBB7_7
# %bb.8:                                # %invoke.cont23.i
                                        #   in Loop: Header=BB7_6 Depth=1
	#APP
	#NO_APP
	#APP
	#NO_APP
	#APP
	#NO_APP
	addi.d	$s0, $s0, -1
	bnez	$s0, .LBB7_6
.LBB7_9:                                # %if.end.i
.Ltmp157:                               # EH_LABEL
	move	$a0, $fp
	pcaddu18i	$ra, %call36(_ZN9benchmark5State17FinishKeepRunningEv)
	jirl	$ra, $ra, 0
.Ltmp158:                               # EH_LABEL
# %bb.10:                               # %_ZL18benchmark_fn_novecIdEvRN9benchmark5StateEPFT_S3_E.exit
	ld.d	$a0, $sp, 8
	beqz	$a0, .LBB7_12
# %bb.11:                               # %_ZNKSt14default_deleteIA_dEclIdEENSt9enable_ifIXsr14is_convertibleIPA_T_PS0_EE5valueEvE4typeEPS4_.exit.i26
	pcaddu18i	$ra, %call36(_ZdaPv)
	jirl	$ra, $ra, 0
.LBB7_12:                               # %_ZNSt10unique_ptrIA_dSt14default_deleteIS0_EED2Ev.exit28
	ld.d	$a0, $sp, 16
	beqz	$a0, .LBB7_14
# %bb.13:                               # %_ZNKSt14default_deleteIA_dEclIdEENSt9enable_ifIXsr14is_convertibleIPA_T_PS0_EE5valueEvE4typeEPS4_.exit.i30
	pcaddu18i	$ra, %call36(_ZdaPv)
	jirl	$ra, $ra, 0
.LBB7_14:                               # %_ZNSt10unique_ptrIA_dSt14default_deleteIS0_EED2Ev.exit32
	ld.d	$a0, $sp, 24
	beqz	$a0, .LBB7_16
# %bb.15:                               # %_ZNKSt14default_deleteIA_dEclIdEENSt9enable_ifIXsr14is_convertibleIPA_T_PS0_EE5valueEvE4typeEPS4_.exit.i34
	pcaddu18i	$ra, %call36(_ZdaPv)
	jirl	$ra, $ra, 0
.LBB7_16:                               # %_ZNSt10unique_ptrIA_dSt14default_deleteIS0_EED2Ev.exit36
	fld.d	$fs0, $sp, 32                   # 8-byte Folded Reload
	ld.d	$s8, $sp, 40                    # 8-byte Folded Reload
	ld.d	$s7, $sp, 48                    # 8-byte Folded Reload
	ld.d	$s6, $sp, 56                    # 8-byte Folded Reload
	ld.d	$s5, $sp, 64                    # 8-byte Folded Reload
	ld.d	$s4, $sp, 72                    # 8-byte Folded Reload
	ld.d	$s3, $sp, 80                    # 8-byte Folded Reload
	ld.d	$s2, $sp, 88                    # 8-byte Folded Reload
	ld.d	$s1, $sp, 96                    # 8-byte Folded Reload
	ld.d	$s0, $sp, 104                   # 8-byte Folded Reload
	ld.d	$fp, $sp, 112                   # 8-byte Folded Reload
	ld.d	$ra, $sp, 120                   # 8-byte Folded Reload
	addi.d	$sp, $sp, 128
	ret
.LBB7_17:                               # %ehcleanup28.i.thread
.Ltmp154:                               # EH_LABEL
	move	$fp, $a0
	b	.LBB7_24
.LBB7_18:                               # %ehcleanup30.i.thread
.Ltmp151:                               # EH_LABEL
	move	$fp, $a0
	move	$a0, $s0
	pcaddu18i	$ra, %call36(_ZdaPv)
	jirl	$ra, $ra, 0
	move	$a0, $fp
	pcaddu18i	$ra, %call36(_Unwind_Resume)
	jirl	$ra, $ra, 0
.LBB7_19:                               # %lpad13.i
.Ltmp159:                               # EH_LABEL
	ld.d	$a1, $sp, 8
	move	$fp, $a0
	bnez	$a1, .LBB7_23
# %bb.20:                               # %ehcleanup28.i
	ld.d	$s1, $sp, 16
	bnez	$s1, .LBB7_24
.LBB7_21:                               # %ehcleanup30.i
	ld.d	$s0, $sp, 24
	bnez	$s0, .LBB7_25
.LBB7_22:                               # %_ZNSt10unique_ptrIA_dSt14default_deleteIS0_EED2Ev.exit24
	move	$a0, $fp
	pcaddu18i	$ra, %call36(_Unwind_Resume)
	jirl	$ra, $ra, 0
.LBB7_23:                               # %_ZNKSt14default_deleteIA_dEclIdEENSt9enable_ifIXsr14is_convertibleIPA_T_PS0_EE5valueEvE4typeEPS4_.exit.i
	move	$a0, $a1
	pcaddu18i	$ra, %call36(_ZdaPv)
	jirl	$ra, $ra, 0
	ld.d	$s1, $sp, 16
	beqz	$s1, .LBB7_21
.LBB7_24:                               # %_ZNKSt14default_deleteIA_dEclIdEENSt9enable_ifIXsr14is_convertibleIPA_T_PS0_EE5valueEvE4typeEPS4_.exit.i18
	move	$a0, $s1
	pcaddu18i	$ra, %call36(_ZdaPv)
	jirl	$ra, $ra, 0
	ld.d	$s0, $sp, 24
	beqz	$s0, .LBB7_22
.LBB7_25:                               # %_ZNKSt14default_deleteIA_dEclIdEENSt9enable_ifIXsr14is_convertibleIPA_T_PS0_EE5valueEvE4typeEPS4_.exit.i22
	move	$a0, $s0
	pcaddu18i	$ra, %call36(_ZdaPv)
	jirl	$ra, $ra, 0
	move	$a0, $fp
	pcaddu18i	$ra, %call36(_Unwind_Resume)
	jirl	$ra, $ra, 0
.Lfunc_end7:
	.size	_Z28BENCHMARK_acos_novec_double_RN9benchmark5StateE, .Lfunc_end7-_Z28BENCHMARK_acos_novec_double_RN9benchmark5StateE
	.cfi_endproc
	.section	.gcc_except_table,"a",@progbits
	.p2align	2, 0x0
GCC_except_table7:
.Lexception7:
	.byte	255                             # @LPStart Encoding = omit
	.byte	255                             # @TType Encoding = omit
	.byte	1                               # Call site Encoding = uleb128
	.uleb128 .Lcst_end7-.Lcst_begin7
.Lcst_begin7:
	.uleb128 .Lfunc_begin7-.Lfunc_begin7    # >> Call Site 1 <<
	.uleb128 .Ltmp149-.Lfunc_begin7         #   Call between .Lfunc_begin7 and .Ltmp149
	.byte	0                               #     has no landing pad
	.byte	0                               #   On action: cleanup
	.uleb128 .Ltmp149-.Lfunc_begin7         # >> Call Site 2 <<
	.uleb128 .Ltmp150-.Ltmp149              #   Call between .Ltmp149 and .Ltmp150
	.uleb128 .Ltmp151-.Lfunc_begin7         #     jumps to .Ltmp151
	.byte	0                               #   On action: cleanup
	.uleb128 .Ltmp152-.Lfunc_begin7         # >> Call Site 3 <<
	.uleb128 .Ltmp153-.Ltmp152              #   Call between .Ltmp152 and .Ltmp153
	.uleb128 .Ltmp154-.Lfunc_begin7         #     jumps to .Ltmp154
	.byte	0                               #   On action: cleanup
	.uleb128 .Ltmp153-.Lfunc_begin7         # >> Call Site 4 <<
	.uleb128 .Ltmp155-.Ltmp153              #   Call between .Ltmp153 and .Ltmp155
	.byte	0                               #     has no landing pad
	.byte	0                               #   On action: cleanup
	.uleb128 .Ltmp155-.Lfunc_begin7         # >> Call Site 5 <<
	.uleb128 .Ltmp156-.Ltmp155              #   Call between .Ltmp155 and .Ltmp156
	.uleb128 .Ltmp159-.Lfunc_begin7         #     jumps to .Ltmp159
	.byte	0                               #   On action: cleanup
	.uleb128 .Ltmp156-.Lfunc_begin7         # >> Call Site 6 <<
	.uleb128 .Ltmp157-.Ltmp156              #   Call between .Ltmp156 and .Ltmp157
	.byte	0                               #     has no landing pad
	.byte	0                               #   On action: cleanup
	.uleb128 .Ltmp157-.Lfunc_begin7         # >> Call Site 7 <<
	.uleb128 .Ltmp158-.Ltmp157              #   Call between .Ltmp157 and .Ltmp158
	.uleb128 .Ltmp159-.Lfunc_begin7         #     jumps to .Ltmp159
	.byte	0                               #   On action: cleanup
	.uleb128 .Ltmp158-.Lfunc_begin7         # >> Call Site 8 <<
	.uleb128 .Lfunc_end7-.Ltmp158           #   Call between .Ltmp158 and .Lfunc_end7
	.byte	0                               #     has no landing pad
	.byte	0                               #   On action: cleanup
.Lcst_end7:
	.p2align	2, 0x0
                                        # -- End function
	.text
	.globl	_Z30BENCHMARK_asinf_autovec_float_RN9benchmark5StateE # -- Begin function _Z30BENCHMARK_asinf_autovec_float_RN9benchmark5StateE
	.p2align	5
	.type	_Z30BENCHMARK_asinf_autovec_float_RN9benchmark5StateE,@function
_Z30BENCHMARK_asinf_autovec_float_RN9benchmark5StateE: # @_Z30BENCHMARK_asinf_autovec_float_RN9benchmark5StateE
.Lfunc_begin8:
	.cfi_startproc
	.cfi_personality 155, DW.ref.__gxx_personality_v0
	.cfi_lsda 27, .Lexception8
# %bb.0:                                # %entry
	addi.d	$sp, $sp, -128
	.cfi_def_cfa_offset 128
	st.d	$ra, $sp, 120                   # 8-byte Folded Spill
	st.d	$fp, $sp, 112                   # 8-byte Folded Spill
	st.d	$s0, $sp, 104                   # 8-byte Folded Spill
	st.d	$s1, $sp, 96                    # 8-byte Folded Spill
	st.d	$s2, $sp, 88                    # 8-byte Folded Spill
	st.d	$s3, $sp, 80                    # 8-byte Folded Spill
	st.d	$s4, $sp, 72                    # 8-byte Folded Spill
	st.d	$s5, $sp, 64                    # 8-byte Folded Spill
	st.d	$s6, $sp, 56                    # 8-byte Folded Spill
	st.d	$s7, $sp, 48                    # 8-byte Folded Spill
	st.d	$s8, $sp, 40                    # 8-byte Folded Spill
	fst.d	$fs0, $sp, 32                   # 8-byte Folded Spill
	.cfi_offset 1, -8
	.cfi_offset 22, -16
	.cfi_offset 23, -24
	.cfi_offset 24, -32
	.cfi_offset 25, -40
	.cfi_offset 26, -48
	.cfi_offset 27, -56
	.cfi_offset 28, -64
	.cfi_offset 29, -72
	.cfi_offset 30, -80
	.cfi_offset 31, -88
	.cfi_offset 56, -96
	move	$s0, $a0
	lu12i.w	$a0, 9
	ori	$s4, $a0, 3136
	move	$a0, $s4
	pcaddu18i	$ra, %call36(_Znam)
	jirl	$ra, $ra, 0
	move	$s2, $a0
	st.d	$a0, $sp, 24
.Ltmp160:                               # EH_LABEL
	move	$a0, $s4
	pcaddu18i	$ra, %call36(_Znam)
	jirl	$ra, $ra, 0
.Ltmp161:                               # EH_LABEL
# %bb.1:                                # %invoke.cont.i
	move	$s3, $a0
	st.d	$a0, $sp, 16
.Ltmp163:                               # EH_LABEL
	move	$a0, $s4
	pcaddu18i	$ra, %call36(_Znam)
	jirl	$ra, $ra, 0
.Ltmp164:                               # EH_LABEL
# %bb.2:                                # %invoke.cont3.i
	move	$fp, $a0
	st.d	$a0, $sp, 8
	move	$a0, $s2
	move	$a1, $s3
	move	$a2, $fp
	pcaddu18i	$ra, %call36(_ZL9init_dataIfEvPT_S1_S1_)
	jirl	$ra, $ra, 0
.Ltmp166:                               # EH_LABEL
	move	$a0, $s4
	pcaddu18i	$ra, %call36(_Znam)
	jirl	$ra, $ra, 0
.Ltmp167:                               # EH_LABEL
# %bb.3:                                # %vector.body.preheader
	move	$s1, $a0
	move	$a0, $zero
	.p2align	4, , 16
.LBB8_4:                                # %vector.body
                                        # =>This Inner Loop Header: Depth=1
	vldx	$vr0, $fp, $a0
	add.d	$a1, $fp, $a0
	vld	$vr1, $a1, 16
	add.d	$a1, $s1, $a0
	vstx	$vr0, $s1, $a0
	addi.d	$a0, $a0, 32
	vst	$vr1, $a1, 16
	bne	$a0, $s4, .LBB8_4
# %bb.5:                                # %for.body.i14.preheader
	move	$s5, $zero
	.p2align	4, , 16
.LBB8_6:                                # %for.body.i14
                                        # =>This Inner Loop Header: Depth=1
	fldx.s	$fa0, $s2, $s5
	pcaddu18i	$ra, %call36(asinf)
	jirl	$ra, $ra, 0
	fldx.s	$fa1, $s3, $s5
	fmov.s	$fs0, $fa0
	fmov.s	$fa0, $fa1
	pcaddu18i	$ra, %call36(asinf)
	jirl	$ra, $ra, 0
	fadd.s	$fa0, $fs0, $fa0
	fstx.s	$fa0, $s1, $s5
	addi.d	$s5, $s5, 4
	bne	$s5, $s4, .LBB8_6
# %bb.7:                                # %for.body.i22.preheader
	move	$s5, $zero
	.p2align	4, , 16
.LBB8_8:                                # %for.body.i22
                                        # =>This Inner Loop Header: Depth=1
	fldx.s	$fa0, $s2, $s5
	pcaddu18i	$ra, %call36(asinf)
	jirl	$ra, $ra, 0
	fldx.s	$fa1, $s3, $s5
	fmov.s	$fs0, $fa0
	fmov.s	$fa0, $fa1
	pcaddu18i	$ra, %call36(asinf)
	jirl	$ra, $ra, 0
	fadd.s	$fa0, $fs0, $fa0
	fstx.s	$fa0, $fp, $s5
	addi.d	$s5, $s5, 4
	bne	$s5, $s4, .LBB8_8
# %bb.9:                                # %for.body41.i.preheader
	move	$s2, $zero
	movgr2fr.w	$fa0, $zero
	lu12i.w	$a0, 2048
	movgr2fr.w	$fa1, $a0
	lu12i.w	$a0, 2
	ori	$s3, $a0, 1808
	move	$s4, $s1
	move	$s5, $fp
	b	.LBB8_13
.LBB8_10:                               #   in Loop: Header=BB8_13 Depth=1
	move	$a0, $zero
	.p2align	4, , 16
.LBB8_11:                               # %_ZSt10fpclassifyf.exit49
                                        #   in Loop: Header=BB8_13 Depth=1
	bne	$a1, $a0, .LBB8_38
.LBB8_12:                               # %for.inc81.i
                                        #   in Loop: Header=BB8_13 Depth=1
	addi.d	$s2, $s2, 1
	addi.d	$s5, $s5, 4
	addi.d	$s4, $s4, 4
	beq	$s2, $s3, .LBB8_23
.LBB8_13:                               # %for.body41.i
                                        # =>This Inner Loop Header: Depth=1
	fld.s	$fa3, $s5, 0
	fld.s	$fa2, $s4, 0
	fcmp.ceq.s	$fcc0, $fa3, $fa2
	bcnez	$fcc0, .LBB8_12
# %bb.14:                               # %land.lhs.true.i
                                        #   in Loop: Header=BB8_13 Depth=1
	ori	$a0, $zero, 2
	fcmp.ceq.s	$fcc0, $fa3, $fa0
	ori	$a1, $zero, 2
	bcnez	$fcc0, .LBB8_18
# %bb.15:                               # %fpclassify_not_zero.i
                                        #   in Loop: Header=BB8_13 Depth=1
	fcmp.cun.s	$fcc0, $fa3, $fa3
	bcnez	$fcc0, .LBB8_22
# %bb.16:                               # %fpclassify_not_nan.i
                                        #   in Loop: Header=BB8_13 Depth=1
	fclass.s	$fa4, $fa3
	movfr2gr.s	$a1, $fa4
	andi	$a1, $a1, 68
	sltu	$a1, $zero, $a1
	andi	$a2, $a1, 1
	ori	$a1, $zero, 1
	bnez	$a2, .LBB8_18
# %bb.17:                               # %fpclassify_not_inf.i
                                        #   in Loop: Header=BB8_13 Depth=1
	fabs.s	$fa3, $fa3
	fcmp.cule.s	$fcc0, $fa1, $fa3
	movcf2gr	$a1, $fcc0
	addi.d	$a1, $a1, 3
	.p2align	4, , 16
.LBB8_18:                               # %_ZSt10fpclassifyf.exit
                                        #   in Loop: Header=BB8_13 Depth=1
	fcmp.ceq.s	$fcc0, $fa2, $fa0
	bcnez	$fcc0, .LBB8_11
.LBB8_19:                               # %fpclassify_not_zero.i42
                                        #   in Loop: Header=BB8_13 Depth=1
	fcmp.cun.s	$fcc0, $fa2, $fa2
	bcnez	$fcc0, .LBB8_10
# %bb.20:                               # %fpclassify_not_nan.i44
                                        #   in Loop: Header=BB8_13 Depth=1
	fclass.s	$fa3, $fa2
	movfr2gr.s	$a0, $fa3
	andi	$a0, $a0, 68
	sltu	$a0, $zero, $a0
	andi	$a2, $a0, 1
	ori	$a0, $zero, 1
	bnez	$a2, .LBB8_11
# %bb.21:                               # %fpclassify_not_inf.i46
                                        #   in Loop: Header=BB8_13 Depth=1
	fabs.s	$fa2, $fa2
	fcmp.cule.s	$fcc0, $fa1, $fa2
	movcf2gr	$a0, $fcc0
	addi.d	$a0, $a0, 3
	b	.LBB8_11
.LBB8_22:                               #   in Loop: Header=BB8_13 Depth=1
	move	$a1, $zero
	fcmp.ceq.s	$fcc0, $fa2, $fa0
	bcnez	$fcc0, .LBB8_11
	b	.LBB8_19
.LBB8_23:                               # %_ZNSt10unique_ptrIA_fSt14default_deleteIS0_EED2Ev.exit
	move	$a0, $s1
	pcaddu18i	$ra, %call36(_ZdaPv)
	jirl	$ra, $ra, 0
	ld.w	$s1, $s0, 28
	ld.d	$fp, $s0, 16
.Ltmp184:                               # EH_LABEL
	move	$a0, $s0
	pcaddu18i	$ra, %call36(_ZN9benchmark5State16StartKeepRunningEv)
	jirl	$ra, $ra, 0
.Ltmp185:                               # EH_LABEL
# %bb.24:                               # %for.cond91.i.preheader
	bnez	$s1, .LBB8_30
# %bb.25:                               # %for.cond91.i.preheader
	beqz	$fp, .LBB8_30
# %bb.26:
	addi.d	$s1, $sp, 24
	addi.d	$s2, $sp, 16
	addi.d	$s4, $sp, 8
	.p2align	4, , 16
.LBB8_27:                               # %for.body95.i
                                        # =>This Loop Header: Depth=1
                                        #     Child Loop BB8_28 Depth 2
	ld.d	$s5, $sp, 24
	ld.d	$s6, $sp, 16
	ld.d	$s7, $sp, 8
	move	$s8, $s3
	.p2align	4, , 16
.LBB8_28:                               # %for.body.i79
                                        #   Parent Loop BB8_27 Depth=1
                                        # =>  This Inner Loop Header: Depth=2
	fld.s	$fa0, $s5, 0
	pcaddu18i	$ra, %call36(asinf)
	jirl	$ra, $ra, 0
	fld.s	$fa1, $s6, 0
	fmov.s	$fs0, $fa0
	fmov.s	$fa0, $fa1
	pcaddu18i	$ra, %call36(asinf)
	jirl	$ra, $ra, 0
	fadd.s	$fa0, $fs0, $fa0
	fst.s	$fa0, $s7, 0
	addi.d	$s8, $s8, -1
	addi.d	$s7, $s7, 4
	addi.d	$s6, $s6, 4
	addi.d	$s5, $s5, 4
	bnez	$s8, .LBB8_28
# %bb.29:                               # %invoke.cont105.i
                                        #   in Loop: Header=BB8_27 Depth=1
	#APP
	#NO_APP
	#APP
	#NO_APP
	#APP
	#NO_APP
	addi.d	$fp, $fp, -1
	#MEMBARRIER
	bnez	$fp, .LBB8_27
.LBB8_30:                               # %if.end.i
.Ltmp186:                               # EH_LABEL
	move	$a0, $s0
	pcaddu18i	$ra, %call36(_ZN9benchmark5State17FinishKeepRunningEv)
	jirl	$ra, $ra, 0
.Ltmp187:                               # EH_LABEL
# %bb.31:                               # %_ZL20benchmark_fn_autovecIfEvRN9benchmark5StateEPFT_S3_E.exit
	ld.d	$a0, $sp, 8
	beqz	$a0, .LBB8_33
# %bb.32:                               # %_ZNKSt14default_deleteIA_fEclIfEENSt9enable_ifIXsr14is_convertibleIPA_T_PS0_EE5valueEvE4typeEPS4_.exit.i104
	pcaddu18i	$ra, %call36(_ZdaPv)
	jirl	$ra, $ra, 0
.LBB8_33:                               # %_ZNSt10unique_ptrIA_fSt14default_deleteIS0_EED2Ev.exit106
	ld.d	$a0, $sp, 16
	beqz	$a0, .LBB8_35
# %bb.34:                               # %_ZNKSt14default_deleteIA_fEclIfEENSt9enable_ifIXsr14is_convertibleIPA_T_PS0_EE5valueEvE4typeEPS4_.exit.i108
	pcaddu18i	$ra, %call36(_ZdaPv)
	jirl	$ra, $ra, 0
.LBB8_35:                               # %_ZNSt10unique_ptrIA_fSt14default_deleteIS0_EED2Ev.exit110
	ld.d	$a0, $sp, 24
	beqz	$a0, .LBB8_37
# %bb.36:                               # %_ZNKSt14default_deleteIA_fEclIfEENSt9enable_ifIXsr14is_convertibleIPA_T_PS0_EE5valueEvE4typeEPS4_.exit.i112
	pcaddu18i	$ra, %call36(_ZdaPv)
	jirl	$ra, $ra, 0
.LBB8_37:                               # %_ZNSt10unique_ptrIA_fSt14default_deleteIS0_EED2Ev.exit114
	fld.d	$fs0, $sp, 32                   # 8-byte Folded Reload
	ld.d	$s8, $sp, 40                    # 8-byte Folded Reload
	ld.d	$s7, $sp, 48                    # 8-byte Folded Reload
	ld.d	$s6, $sp, 56                    # 8-byte Folded Reload
	ld.d	$s5, $sp, 64                    # 8-byte Folded Reload
	ld.d	$s4, $sp, 72                    # 8-byte Folded Reload
	ld.d	$s3, $sp, 80                    # 8-byte Folded Reload
	ld.d	$s2, $sp, 88                    # 8-byte Folded Reload
	ld.d	$s1, $sp, 96                    # 8-byte Folded Reload
	ld.d	$s0, $sp, 104                   # 8-byte Folded Reload
	ld.d	$fp, $sp, 112                   # 8-byte Folded Reload
	ld.d	$ra, $sp, 120                   # 8-byte Folded Reload
	addi.d	$sp, $sp, 128
	ret
.LBB8_38:                               # %if.then.i
.Ltmp169:                               # EH_LABEL
	pcalau12i	$a0, %got_pc_hi20(_ZSt4cerr)
	ld.d	$a0, $a0, %got_pc_lo12(_ZSt4cerr)
	pcalau12i	$a1, %pc_hi20(.L.str.73)
	addi.d	$a1, $a1, %pc_lo12(.L.str.73)
	ori	$a2, $zero, 49
	pcaddu18i	$ra, %call36(_ZSt16__ostream_insertIcSt11char_traitsIcEERSt13basic_ostreamIT_T0_ES6_PKS3_l)
	jirl	$ra, $ra, 0
.Ltmp170:                               # EH_LABEL
# %bb.39:                               # %invoke.cont61.i
	fld.s	$fa0, $s5, 0
	fcvt.d.s	$fa0, $fa0
.Ltmp171:                               # EH_LABEL
	pcalau12i	$a0, %got_pc_hi20(_ZSt4cerr)
	ld.d	$a0, $a0, %got_pc_lo12(_ZSt4cerr)
	pcaddu18i	$ra, %call36(_ZNSo9_M_insertIdEERSoT_)
	jirl	$ra, $ra, 0
.Ltmp172:                               # EH_LABEL
# %bb.40:                               # %invoke.cont66.i
.Ltmp173:                               # EH_LABEL
	move	$s0, $a0
	pcalau12i	$a0, %pc_hi20(.L.str.74)
	addi.d	$a1, $a0, %pc_lo12(.L.str.74)
	ori	$a2, $zero, 4
	move	$a0, $s0
	pcaddu18i	$ra, %call36(_ZSt16__ostream_insertIcSt11char_traitsIcEERSt13basic_ostreamIT_T0_ES6_PKS3_l)
	jirl	$ra, $ra, 0
.Ltmp174:                               # EH_LABEL
# %bb.41:                               # %invoke.cont68.i
	fld.s	$fa0, $s4, 0
	fcvt.d.s	$fa0, $fa0
.Ltmp175:                               # EH_LABEL
	move	$a0, $s0
	pcaddu18i	$ra, %call36(_ZNSo9_M_insertIdEERSoT_)
	jirl	$ra, $ra, 0
.Ltmp176:                               # EH_LABEL
# %bb.42:                               # %invoke.cont73.i
.Ltmp177:                               # EH_LABEL
	move	$s0, $a0
	pcalau12i	$a0, %pc_hi20(.L.str.75)
	addi.d	$a1, $a0, %pc_lo12(.L.str.75)
	ori	$a2, $zero, 10
	move	$a0, $s0
	pcaddu18i	$ra, %call36(_ZSt16__ostream_insertIcSt11char_traitsIcEERSt13basic_ostreamIT_T0_ES6_PKS3_l)
	jirl	$ra, $ra, 0
.Ltmp178:                               # EH_LABEL
# %bb.43:                               # %invoke.cont75.i
.Ltmp179:                               # EH_LABEL
	move	$a0, $s0
	move	$a1, $s2
	pcaddu18i	$ra, %call36(_ZNSo9_M_insertImEERSoT_)
	jirl	$ra, $ra, 0
.Ltmp180:                               # EH_LABEL
# %bb.44:                               # %invoke.cont77.i
.Ltmp181:                               # EH_LABEL
	pcalau12i	$a1, %pc_hi20(.L.str.76)
	addi.d	$a1, $a1, %pc_lo12(.L.str.76)
	pcaddu18i	$ra, %call36(_ZStlsISt11char_traitsIcEERSt13basic_ostreamIcT_ES5_PKc)
	jirl	$ra, $ra, 0
.Ltmp182:                               # EH_LABEL
# %bb.45:                               # %invoke.cont79.i
	ori	$a0, $zero, 1
	pcaddu18i	$ra, %call36(exit)
	jirl	$ra, $ra, 0
.LBB8_46:                               # %lpad13.i
.Ltmp168:                               # EH_LABEL
	move	$s0, $a0
	b	.LBB8_54
.LBB8_47:                               # %ehcleanup119.i.thread
.Ltmp165:                               # EH_LABEL
	move	$s0, $a0
	b	.LBB8_55
.LBB8_48:                               # %ehcleanup121.i.thread
.Ltmp162:                               # EH_LABEL
	move	$s0, $a0
	move	$a0, $s2
	pcaddu18i	$ra, %call36(_ZdaPv)
	jirl	$ra, $ra, 0
	move	$a0, $s0
	pcaddu18i	$ra, %call36(_Unwind_Resume)
	jirl	$ra, $ra, 0
.LBB8_49:                               # %ehcleanup118.i
.Ltmp188:                               # EH_LABEL
	ld.d	$fp, $sp, 8
	move	$s0, $a0
	bnez	$fp, .LBB8_54
# %bb.50:                               # %ehcleanup119.i
	ld.d	$s3, $sp, 16
	bnez	$s3, .LBB8_55
.LBB8_51:                               # %ehcleanup121.i
	ld.d	$s2, $sp, 24
	bnez	$s2, .LBB8_56
.LBB8_52:                               # %_ZNSt10unique_ptrIA_fSt14default_deleteIS0_EED2Ev.exit102
	move	$a0, $s0
	pcaddu18i	$ra, %call36(_Unwind_Resume)
	jirl	$ra, $ra, 0
.LBB8_53:                               # %lpad43.i
.Ltmp183:                               # EH_LABEL
	move	$s0, $a0
	move	$a0, $s1
	pcaddu18i	$ra, %call36(_ZdaPv)
	jirl	$ra, $ra, 0
.LBB8_54:                               # %_ZNKSt14default_deleteIA_fEclIfEENSt9enable_ifIXsr14is_convertibleIPA_T_PS0_EE5valueEvE4typeEPS4_.exit.i92
	move	$a0, $fp
	pcaddu18i	$ra, %call36(_ZdaPv)
	jirl	$ra, $ra, 0
	ld.d	$s3, $sp, 16
	beqz	$s3, .LBB8_51
.LBB8_55:                               # %_ZNKSt14default_deleteIA_fEclIfEENSt9enable_ifIXsr14is_convertibleIPA_T_PS0_EE5valueEvE4typeEPS4_.exit.i96
	move	$a0, $s3
	pcaddu18i	$ra, %call36(_ZdaPv)
	jirl	$ra, $ra, 0
	ld.d	$s2, $sp, 24
	beqz	$s2, .LBB8_52
.LBB8_56:                               # %_ZNKSt14default_deleteIA_fEclIfEENSt9enable_ifIXsr14is_convertibleIPA_T_PS0_EE5valueEvE4typeEPS4_.exit.i100
	move	$a0, $s2
	pcaddu18i	$ra, %call36(_ZdaPv)
	jirl	$ra, $ra, 0
	move	$a0, $s0
	pcaddu18i	$ra, %call36(_Unwind_Resume)
	jirl	$ra, $ra, 0
.Lfunc_end8:
	.size	_Z30BENCHMARK_asinf_autovec_float_RN9benchmark5StateE, .Lfunc_end8-_Z30BENCHMARK_asinf_autovec_float_RN9benchmark5StateE
	.cfi_endproc
	.section	.gcc_except_table,"a",@progbits
	.p2align	2, 0x0
GCC_except_table8:
.Lexception8:
	.byte	255                             # @LPStart Encoding = omit
	.byte	255                             # @TType Encoding = omit
	.byte	1                               # Call site Encoding = uleb128
	.uleb128 .Lcst_end8-.Lcst_begin8
.Lcst_begin8:
	.uleb128 .Lfunc_begin8-.Lfunc_begin8    # >> Call Site 1 <<
	.uleb128 .Ltmp160-.Lfunc_begin8         #   Call between .Lfunc_begin8 and .Ltmp160
	.byte	0                               #     has no landing pad
	.byte	0                               #   On action: cleanup
	.uleb128 .Ltmp160-.Lfunc_begin8         # >> Call Site 2 <<
	.uleb128 .Ltmp161-.Ltmp160              #   Call between .Ltmp160 and .Ltmp161
	.uleb128 .Ltmp162-.Lfunc_begin8         #     jumps to .Ltmp162
	.byte	0                               #   On action: cleanup
	.uleb128 .Ltmp163-.Lfunc_begin8         # >> Call Site 3 <<
	.uleb128 .Ltmp164-.Ltmp163              #   Call between .Ltmp163 and .Ltmp164
	.uleb128 .Ltmp165-.Lfunc_begin8         #     jumps to .Ltmp165
	.byte	0                               #   On action: cleanup
	.uleb128 .Ltmp164-.Lfunc_begin8         # >> Call Site 4 <<
	.uleb128 .Ltmp166-.Ltmp164              #   Call between .Ltmp164 and .Ltmp166
	.byte	0                               #     has no landing pad
	.byte	0                               #   On action: cleanup
	.uleb128 .Ltmp166-.Lfunc_begin8         # >> Call Site 5 <<
	.uleb128 .Ltmp167-.Ltmp166              #   Call between .Ltmp166 and .Ltmp167
	.uleb128 .Ltmp168-.Lfunc_begin8         #     jumps to .Ltmp168
	.byte	0                               #   On action: cleanup
	.uleb128 .Ltmp167-.Lfunc_begin8         # >> Call Site 6 <<
	.uleb128 .Ltmp184-.Ltmp167              #   Call between .Ltmp167 and .Ltmp184
	.byte	0                               #     has no landing pad
	.byte	0                               #   On action: cleanup
	.uleb128 .Ltmp184-.Lfunc_begin8         # >> Call Site 7 <<
	.uleb128 .Ltmp185-.Ltmp184              #   Call between .Ltmp184 and .Ltmp185
	.uleb128 .Ltmp188-.Lfunc_begin8         #     jumps to .Ltmp188
	.byte	0                               #   On action: cleanup
	.uleb128 .Ltmp185-.Lfunc_begin8         # >> Call Site 8 <<
	.uleb128 .Ltmp186-.Ltmp185              #   Call between .Ltmp185 and .Ltmp186
	.byte	0                               #     has no landing pad
	.byte	0                               #   On action: cleanup
	.uleb128 .Ltmp186-.Lfunc_begin8         # >> Call Site 9 <<
	.uleb128 .Ltmp187-.Ltmp186              #   Call between .Ltmp186 and .Ltmp187
	.uleb128 .Ltmp188-.Lfunc_begin8         #     jumps to .Ltmp188
	.byte	0                               #   On action: cleanup
	.uleb128 .Ltmp187-.Lfunc_begin8         # >> Call Site 10 <<
	.uleb128 .Ltmp169-.Ltmp187              #   Call between .Ltmp187 and .Ltmp169
	.byte	0                               #     has no landing pad
	.byte	0                               #   On action: cleanup
	.uleb128 .Ltmp169-.Lfunc_begin8         # >> Call Site 11 <<
	.uleb128 .Ltmp182-.Ltmp169              #   Call between .Ltmp169 and .Ltmp182
	.uleb128 .Ltmp183-.Lfunc_begin8         #     jumps to .Ltmp183
	.byte	0                               #   On action: cleanup
	.uleb128 .Ltmp182-.Lfunc_begin8         # >> Call Site 12 <<
	.uleb128 .Lfunc_end8-.Ltmp182           #   Call between .Ltmp182 and .Lfunc_end8
	.byte	0                               #     has no landing pad
	.byte	0                               #   On action: cleanup
.Lcst_end8:
	.p2align	2, 0x0
                                        # -- End function
	.text
	.globl	_Z28BENCHMARK_asinf_novec_float_RN9benchmark5StateE # -- Begin function _Z28BENCHMARK_asinf_novec_float_RN9benchmark5StateE
	.p2align	5
	.type	_Z28BENCHMARK_asinf_novec_float_RN9benchmark5StateE,@function
_Z28BENCHMARK_asinf_novec_float_RN9benchmark5StateE: # @_Z28BENCHMARK_asinf_novec_float_RN9benchmark5StateE
.Lfunc_begin9:
	.cfi_startproc
	.cfi_personality 155, DW.ref.__gxx_personality_v0
	.cfi_lsda 27, .Lexception9
# %bb.0:                                # %entry
	addi.d	$sp, $sp, -128
	.cfi_def_cfa_offset 128
	st.d	$ra, $sp, 120                   # 8-byte Folded Spill
	st.d	$fp, $sp, 112                   # 8-byte Folded Spill
	st.d	$s0, $sp, 104                   # 8-byte Folded Spill
	st.d	$s1, $sp, 96                    # 8-byte Folded Spill
	st.d	$s2, $sp, 88                    # 8-byte Folded Spill
	st.d	$s3, $sp, 80                    # 8-byte Folded Spill
	st.d	$s4, $sp, 72                    # 8-byte Folded Spill
	st.d	$s5, $sp, 64                    # 8-byte Folded Spill
	st.d	$s6, $sp, 56                    # 8-byte Folded Spill
	st.d	$s7, $sp, 48                    # 8-byte Folded Spill
	st.d	$s8, $sp, 40                    # 8-byte Folded Spill
	fst.d	$fs0, $sp, 32                   # 8-byte Folded Spill
	.cfi_offset 1, -8
	.cfi_offset 22, -16
	.cfi_offset 23, -24
	.cfi_offset 24, -32
	.cfi_offset 25, -40
	.cfi_offset 26, -48
	.cfi_offset 27, -56
	.cfi_offset 28, -64
	.cfi_offset 29, -72
	.cfi_offset 30, -80
	.cfi_offset 31, -88
	.cfi_offset 56, -96
	move	$fp, $a0
	lu12i.w	$a0, 9
	ori	$s2, $a0, 3136
	move	$a0, $s2
	pcaddu18i	$ra, %call36(_Znam)
	jirl	$ra, $ra, 0
	move	$s0, $a0
	st.d	$a0, $sp, 24
.Ltmp189:                               # EH_LABEL
	move	$a0, $s2
	pcaddu18i	$ra, %call36(_Znam)
	jirl	$ra, $ra, 0
.Ltmp190:                               # EH_LABEL
# %bb.1:                                # %invoke.cont.i
	move	$s1, $a0
	st.d	$a0, $sp, 16
.Ltmp192:                               # EH_LABEL
	move	$a0, $s2
	pcaddu18i	$ra, %call36(_Znam)
	jirl	$ra, $ra, 0
.Ltmp193:                               # EH_LABEL
# %bb.2:                                # %invoke.cont3.i
	move	$a2, $a0
	st.d	$a0, $sp, 8
	move	$a0, $s0
	move	$a1, $s1
	pcaddu18i	$ra, %call36(_ZL9init_dataIfEvPT_S1_S1_)
	jirl	$ra, $ra, 0
	ld.w	$s1, $fp, 28
	ld.d	$s0, $fp, 16
.Ltmp195:                               # EH_LABEL
	move	$a0, $fp
	pcaddu18i	$ra, %call36(_ZN9benchmark5State16StartKeepRunningEv)
	jirl	$ra, $ra, 0
.Ltmp196:                               # EH_LABEL
# %bb.3:                                # %for.cond.i.preheader
	bnez	$s1, .LBB9_9
# %bb.4:                                # %for.cond.i.preheader
	beqz	$s0, .LBB9_9
# %bb.5:
	lu12i.w	$a0, 2
	ori	$s1, $a0, 1808
	addi.d	$s2, $sp, 24
	addi.d	$s3, $sp, 16
	addi.d	$s4, $sp, 8
	.p2align	4, , 16
.LBB9_6:                                # %for.body.i
                                        # =>This Loop Header: Depth=1
                                        #     Child Loop BB9_7 Depth 2
	ld.d	$s5, $sp, 24
	ld.d	$s6, $sp, 16
	ld.d	$s7, $sp, 8
	move	$s8, $s1
	.p2align	4, , 16
.LBB9_7:                                # %for.body.i13
                                        #   Parent Loop BB9_6 Depth=1
                                        # =>  This Inner Loop Header: Depth=2
	fld.s	$fa0, $s5, 0
	pcaddu18i	$ra, %call36(asinf)
	jirl	$ra, $ra, 0
	fld.s	$fa1, $s6, 0
	fmov.s	$fs0, $fa0
	fmov.s	$fa0, $fa1
	pcaddu18i	$ra, %call36(asinf)
	jirl	$ra, $ra, 0
	fadd.s	$fa0, $fs0, $fa0
	fst.s	$fa0, $s7, 0
	addi.d	$s8, $s8, -1
	addi.d	$s7, $s7, 4
	addi.d	$s6, $s6, 4
	addi.d	$s5, $s5, 4
	bnez	$s8, .LBB9_7
# %bb.8:                                # %invoke.cont23.i
                                        #   in Loop: Header=BB9_6 Depth=1
	#APP
	#NO_APP
	#APP
	#NO_APP
	#APP
	#NO_APP
	addi.d	$s0, $s0, -1
	bnez	$s0, .LBB9_6
.LBB9_9:                                # %if.end.i
.Ltmp197:                               # EH_LABEL
	move	$a0, $fp
	pcaddu18i	$ra, %call36(_ZN9benchmark5State17FinishKeepRunningEv)
	jirl	$ra, $ra, 0
.Ltmp198:                               # EH_LABEL
# %bb.10:                               # %_ZL18benchmark_fn_novecIfEvRN9benchmark5StateEPFT_S3_E.exit
	ld.d	$a0, $sp, 8
	beqz	$a0, .LBB9_12
# %bb.11:                               # %_ZNKSt14default_deleteIA_fEclIfEENSt9enable_ifIXsr14is_convertibleIPA_T_PS0_EE5valueEvE4typeEPS4_.exit.i26
	pcaddu18i	$ra, %call36(_ZdaPv)
	jirl	$ra, $ra, 0
.LBB9_12:                               # %_ZNSt10unique_ptrIA_fSt14default_deleteIS0_EED2Ev.exit28
	ld.d	$a0, $sp, 16
	beqz	$a0, .LBB9_14
# %bb.13:                               # %_ZNKSt14default_deleteIA_fEclIfEENSt9enable_ifIXsr14is_convertibleIPA_T_PS0_EE5valueEvE4typeEPS4_.exit.i30
	pcaddu18i	$ra, %call36(_ZdaPv)
	jirl	$ra, $ra, 0
.LBB9_14:                               # %_ZNSt10unique_ptrIA_fSt14default_deleteIS0_EED2Ev.exit32
	ld.d	$a0, $sp, 24
	beqz	$a0, .LBB9_16
# %bb.15:                               # %_ZNKSt14default_deleteIA_fEclIfEENSt9enable_ifIXsr14is_convertibleIPA_T_PS0_EE5valueEvE4typeEPS4_.exit.i34
	pcaddu18i	$ra, %call36(_ZdaPv)
	jirl	$ra, $ra, 0
.LBB9_16:                               # %_ZNSt10unique_ptrIA_fSt14default_deleteIS0_EED2Ev.exit36
	fld.d	$fs0, $sp, 32                   # 8-byte Folded Reload
	ld.d	$s8, $sp, 40                    # 8-byte Folded Reload
	ld.d	$s7, $sp, 48                    # 8-byte Folded Reload
	ld.d	$s6, $sp, 56                    # 8-byte Folded Reload
	ld.d	$s5, $sp, 64                    # 8-byte Folded Reload
	ld.d	$s4, $sp, 72                    # 8-byte Folded Reload
	ld.d	$s3, $sp, 80                    # 8-byte Folded Reload
	ld.d	$s2, $sp, 88                    # 8-byte Folded Reload
	ld.d	$s1, $sp, 96                    # 8-byte Folded Reload
	ld.d	$s0, $sp, 104                   # 8-byte Folded Reload
	ld.d	$fp, $sp, 112                   # 8-byte Folded Reload
	ld.d	$ra, $sp, 120                   # 8-byte Folded Reload
	addi.d	$sp, $sp, 128
	ret
.LBB9_17:                               # %ehcleanup28.i.thread
.Ltmp194:                               # EH_LABEL
	move	$fp, $a0
	b	.LBB9_24
.LBB9_18:                               # %ehcleanup30.i.thread
.Ltmp191:                               # EH_LABEL
	move	$fp, $a0
	move	$a0, $s0
	pcaddu18i	$ra, %call36(_ZdaPv)
	jirl	$ra, $ra, 0
	move	$a0, $fp
	pcaddu18i	$ra, %call36(_Unwind_Resume)
	jirl	$ra, $ra, 0
.LBB9_19:                               # %lpad13.i
.Ltmp199:                               # EH_LABEL
	ld.d	$a1, $sp, 8
	move	$fp, $a0
	bnez	$a1, .LBB9_23
# %bb.20:                               # %ehcleanup28.i
	ld.d	$s1, $sp, 16
	bnez	$s1, .LBB9_24
.LBB9_21:                               # %ehcleanup30.i
	ld.d	$s0, $sp, 24
	bnez	$s0, .LBB9_25
.LBB9_22:                               # %_ZNSt10unique_ptrIA_fSt14default_deleteIS0_EED2Ev.exit24
	move	$a0, $fp
	pcaddu18i	$ra, %call36(_Unwind_Resume)
	jirl	$ra, $ra, 0
.LBB9_23:                               # %_ZNKSt14default_deleteIA_fEclIfEENSt9enable_ifIXsr14is_convertibleIPA_T_PS0_EE5valueEvE4typeEPS4_.exit.i
	move	$a0, $a1
	pcaddu18i	$ra, %call36(_ZdaPv)
	jirl	$ra, $ra, 0
	ld.d	$s1, $sp, 16
	beqz	$s1, .LBB9_21
.LBB9_24:                               # %_ZNKSt14default_deleteIA_fEclIfEENSt9enable_ifIXsr14is_convertibleIPA_T_PS0_EE5valueEvE4typeEPS4_.exit.i18
	move	$a0, $s1
	pcaddu18i	$ra, %call36(_ZdaPv)
	jirl	$ra, $ra, 0
	ld.d	$s0, $sp, 24
	beqz	$s0, .LBB9_22
.LBB9_25:                               # %_ZNKSt14default_deleteIA_fEclIfEENSt9enable_ifIXsr14is_convertibleIPA_T_PS0_EE5valueEvE4typeEPS4_.exit.i22
	move	$a0, $s0
	pcaddu18i	$ra, %call36(_ZdaPv)
	jirl	$ra, $ra, 0
	move	$a0, $fp
	pcaddu18i	$ra, %call36(_Unwind_Resume)
	jirl	$ra, $ra, 0
.Lfunc_end9:
	.size	_Z28BENCHMARK_asinf_novec_float_RN9benchmark5StateE, .Lfunc_end9-_Z28BENCHMARK_asinf_novec_float_RN9benchmark5StateE
	.cfi_endproc
	.section	.gcc_except_table,"a",@progbits
	.p2align	2, 0x0
GCC_except_table9:
.Lexception9:
	.byte	255                             # @LPStart Encoding = omit
	.byte	255                             # @TType Encoding = omit
	.byte	1                               # Call site Encoding = uleb128
	.uleb128 .Lcst_end9-.Lcst_begin9
.Lcst_begin9:
	.uleb128 .Lfunc_begin9-.Lfunc_begin9    # >> Call Site 1 <<
	.uleb128 .Ltmp189-.Lfunc_begin9         #   Call between .Lfunc_begin9 and .Ltmp189
	.byte	0                               #     has no landing pad
	.byte	0                               #   On action: cleanup
	.uleb128 .Ltmp189-.Lfunc_begin9         # >> Call Site 2 <<
	.uleb128 .Ltmp190-.Ltmp189              #   Call between .Ltmp189 and .Ltmp190
	.uleb128 .Ltmp191-.Lfunc_begin9         #     jumps to .Ltmp191
	.byte	0                               #   On action: cleanup
	.uleb128 .Ltmp192-.Lfunc_begin9         # >> Call Site 3 <<
	.uleb128 .Ltmp193-.Ltmp192              #   Call between .Ltmp192 and .Ltmp193
	.uleb128 .Ltmp194-.Lfunc_begin9         #     jumps to .Ltmp194
	.byte	0                               #   On action: cleanup
	.uleb128 .Ltmp193-.Lfunc_begin9         # >> Call Site 4 <<
	.uleb128 .Ltmp195-.Ltmp193              #   Call between .Ltmp193 and .Ltmp195
	.byte	0                               #     has no landing pad
	.byte	0                               #   On action: cleanup
	.uleb128 .Ltmp195-.Lfunc_begin9         # >> Call Site 5 <<
	.uleb128 .Ltmp196-.Ltmp195              #   Call between .Ltmp195 and .Ltmp196
	.uleb128 .Ltmp199-.Lfunc_begin9         #     jumps to .Ltmp199
	.byte	0                               #   On action: cleanup
	.uleb128 .Ltmp196-.Lfunc_begin9         # >> Call Site 6 <<
	.uleb128 .Ltmp197-.Ltmp196              #   Call between .Ltmp196 and .Ltmp197
	.byte	0                               #     has no landing pad
	.byte	0                               #   On action: cleanup
	.uleb128 .Ltmp197-.Lfunc_begin9         # >> Call Site 7 <<
	.uleb128 .Ltmp198-.Ltmp197              #   Call between .Ltmp197 and .Ltmp198
	.uleb128 .Ltmp199-.Lfunc_begin9         #     jumps to .Ltmp199
	.byte	0                               #   On action: cleanup
	.uleb128 .Ltmp198-.Lfunc_begin9         # >> Call Site 8 <<
	.uleb128 .Lfunc_end9-.Ltmp198           #   Call between .Ltmp198 and .Lfunc_end9
	.byte	0                               #     has no landing pad
	.byte	0                               #   On action: cleanup
.Lcst_end9:
	.p2align	2, 0x0
                                        # -- End function
	.text
	.globl	_Z30BENCHMARK_asin_autovec_double_RN9benchmark5StateE # -- Begin function _Z30BENCHMARK_asin_autovec_double_RN9benchmark5StateE
	.p2align	5
	.type	_Z30BENCHMARK_asin_autovec_double_RN9benchmark5StateE,@function
_Z30BENCHMARK_asin_autovec_double_RN9benchmark5StateE: # @_Z30BENCHMARK_asin_autovec_double_RN9benchmark5StateE
.Lfunc_begin10:
	.cfi_startproc
	.cfi_personality 155, DW.ref.__gxx_personality_v0
	.cfi_lsda 27, .Lexception10
# %bb.0:                                # %entry
	addi.d	$sp, $sp, -128
	.cfi_def_cfa_offset 128
	st.d	$ra, $sp, 120                   # 8-byte Folded Spill
	st.d	$fp, $sp, 112                   # 8-byte Folded Spill
	st.d	$s0, $sp, 104                   # 8-byte Folded Spill
	st.d	$s1, $sp, 96                    # 8-byte Folded Spill
	st.d	$s2, $sp, 88                    # 8-byte Folded Spill
	st.d	$s3, $sp, 80                    # 8-byte Folded Spill
	st.d	$s4, $sp, 72                    # 8-byte Folded Spill
	st.d	$s5, $sp, 64                    # 8-byte Folded Spill
	st.d	$s6, $sp, 56                    # 8-byte Folded Spill
	st.d	$s7, $sp, 48                    # 8-byte Folded Spill
	st.d	$s8, $sp, 40                    # 8-byte Folded Spill
	fst.d	$fs0, $sp, 32                   # 8-byte Folded Spill
	.cfi_offset 1, -8
	.cfi_offset 22, -16
	.cfi_offset 23, -24
	.cfi_offset 24, -32
	.cfi_offset 25, -40
	.cfi_offset 26, -48
	.cfi_offset 27, -56
	.cfi_offset 28, -64
	.cfi_offset 29, -72
	.cfi_offset 30, -80
	.cfi_offset 31, -88
	.cfi_offset 56, -96
	move	$s0, $a0
	lu12i.w	$a0, 19
	ori	$s4, $a0, 2176
	move	$a0, $s4
	pcaddu18i	$ra, %call36(_Znam)
	jirl	$ra, $ra, 0
	move	$s2, $a0
	st.d	$a0, $sp, 24
.Ltmp200:                               # EH_LABEL
	move	$a0, $s4
	pcaddu18i	$ra, %call36(_Znam)
	jirl	$ra, $ra, 0
.Ltmp201:                               # EH_LABEL
# %bb.1:                                # %invoke.cont.i
	move	$s3, $a0
	st.d	$a0, $sp, 16
.Ltmp203:                               # EH_LABEL
	move	$a0, $s4
	pcaddu18i	$ra, %call36(_Znam)
	jirl	$ra, $ra, 0
.Ltmp204:                               # EH_LABEL
# %bb.2:                                # %invoke.cont3.i
	move	$fp, $a0
	st.d	$a0, $sp, 8
	move	$a0, $s2
	move	$a1, $s3
	move	$a2, $fp
	pcaddu18i	$ra, %call36(_ZL9init_dataIdEvPT_S1_S1_)
	jirl	$ra, $ra, 0
.Ltmp206:                               # EH_LABEL
	move	$a0, $s4
	pcaddu18i	$ra, %call36(_Znam)
	jirl	$ra, $ra, 0
.Ltmp207:                               # EH_LABEL
# %bb.3:                                # %vector.body.preheader
	move	$s1, $a0
	move	$a0, $zero
	.p2align	4, , 16
.LBB10_4:                               # %vector.body
                                        # =>This Inner Loop Header: Depth=1
	vldx	$vr0, $fp, $a0
	add.d	$a1, $fp, $a0
	vld	$vr1, $a1, 16
	add.d	$a1, $s1, $a0
	vstx	$vr0, $s1, $a0
	addi.d	$a0, $a0, 32
	vst	$vr1, $a1, 16
	bne	$a0, $s4, .LBB10_4
# %bb.5:                                # %for.body.i14.preheader
	move	$s5, $zero
	.p2align	4, , 16
.LBB10_6:                               # %for.body.i14
                                        # =>This Inner Loop Header: Depth=1
	fldx.d	$fa0, $s2, $s5
	pcaddu18i	$ra, %call36(asin)
	jirl	$ra, $ra, 0
	fldx.d	$fa1, $s3, $s5
	fmov.d	$fs0, $fa0
	fmov.d	$fa0, $fa1
	pcaddu18i	$ra, %call36(asin)
	jirl	$ra, $ra, 0
	fadd.d	$fa0, $fs0, $fa0
	fstx.d	$fa0, $s1, $s5
	addi.d	$s5, $s5, 8
	bne	$s5, $s4, .LBB10_6
# %bb.7:                                # %for.body.i22.preheader
	move	$s5, $zero
	.p2align	4, , 16
.LBB10_8:                               # %for.body.i22
                                        # =>This Inner Loop Header: Depth=1
	fldx.d	$fa0, $s2, $s5
	pcaddu18i	$ra, %call36(asin)
	jirl	$ra, $ra, 0
	fldx.d	$fa1, $s3, $s5
	fmov.d	$fs0, $fa0
	fmov.d	$fa0, $fa1
	pcaddu18i	$ra, %call36(asin)
	jirl	$ra, $ra, 0
	fadd.d	$fa0, $fs0, $fa0
	fstx.d	$fa0, $fp, $s5
	addi.d	$s5, $s5, 8
	bne	$s5, $s4, .LBB10_8
# %bb.9:                                # %for.body41.i.preheader
	move	$s2, $zero
	movgr2fr.d	$fa0, $zero
	lu52i.d	$a0, $zero, 1
	movgr2fr.d	$fa1, $a0
	lu12i.w	$a0, 2
	ori	$s3, $a0, 1808
	move	$s4, $s1
	move	$s5, $fp
	b	.LBB10_13
.LBB10_10:                              #   in Loop: Header=BB10_13 Depth=1
	move	$a0, $zero
	.p2align	4, , 16
.LBB10_11:                              # %_ZSt10fpclassifyd.exit49
                                        #   in Loop: Header=BB10_13 Depth=1
	bne	$a1, $a0, .LBB10_38
.LBB10_12:                              # %for.inc81.i
                                        #   in Loop: Header=BB10_13 Depth=1
	addi.d	$s2, $s2, 1
	addi.d	$s5, $s5, 8
	addi.d	$s4, $s4, 8
	beq	$s2, $s3, .LBB10_23
.LBB10_13:                              # %for.body41.i
                                        # =>This Inner Loop Header: Depth=1
	fld.d	$fa3, $s5, 0
	fld.d	$fa2, $s4, 0
	fcmp.ceq.d	$fcc0, $fa3, $fa2
	bcnez	$fcc0, .LBB10_12
# %bb.14:                               # %land.lhs.true.i
                                        #   in Loop: Header=BB10_13 Depth=1
	ori	$a0, $zero, 2
	fcmp.ceq.d	$fcc0, $fa3, $fa0
	ori	$a1, $zero, 2
	bcnez	$fcc0, .LBB10_18
# %bb.15:                               # %fpclassify_not_zero.i
                                        #   in Loop: Header=BB10_13 Depth=1
	fcmp.cun.d	$fcc0, $fa3, $fa3
	bcnez	$fcc0, .LBB10_22
# %bb.16:                               # %fpclassify_not_nan.i
                                        #   in Loop: Header=BB10_13 Depth=1
	fclass.d	$fa4, $fa3
	movfr2gr.d	$a1, $fa4
	andi	$a1, $a1, 68
	sltu	$a1, $zero, $a1
	andi	$a2, $a1, 1
	ori	$a1, $zero, 1
	bnez	$a2, .LBB10_18
# %bb.17:                               # %fpclassify_not_inf.i
                                        #   in Loop: Header=BB10_13 Depth=1
	fabs.d	$fa3, $fa3
	fcmp.cule.d	$fcc0, $fa1, $fa3
	movcf2gr	$a1, $fcc0
	addi.d	$a1, $a1, 3
	.p2align	4, , 16
.LBB10_18:                              # %_ZSt10fpclassifyd.exit
                                        #   in Loop: Header=BB10_13 Depth=1
	fcmp.ceq.d	$fcc0, $fa2, $fa0
	bcnez	$fcc0, .LBB10_11
.LBB10_19:                              # %fpclassify_not_zero.i42
                                        #   in Loop: Header=BB10_13 Depth=1
	fcmp.cun.d	$fcc0, $fa2, $fa2
	bcnez	$fcc0, .LBB10_10
# %bb.20:                               # %fpclassify_not_nan.i44
                                        #   in Loop: Header=BB10_13 Depth=1
	fclass.d	$fa3, $fa2
	movfr2gr.d	$a0, $fa3
	andi	$a0, $a0, 68
	sltu	$a0, $zero, $a0
	andi	$a2, $a0, 1
	ori	$a0, $zero, 1
	bnez	$a2, .LBB10_11
# %bb.21:                               # %fpclassify_not_inf.i46
                                        #   in Loop: Header=BB10_13 Depth=1
	fabs.d	$fa2, $fa2
	fcmp.cule.d	$fcc0, $fa1, $fa2
	movcf2gr	$a0, $fcc0
	addi.d	$a0, $a0, 3
	b	.LBB10_11
.LBB10_22:                              #   in Loop: Header=BB10_13 Depth=1
	move	$a1, $zero
	fcmp.ceq.d	$fcc0, $fa2, $fa0
	bcnez	$fcc0, .LBB10_11
	b	.LBB10_19
.LBB10_23:                              # %_ZNSt10unique_ptrIA_dSt14default_deleteIS0_EED2Ev.exit
	move	$a0, $s1
	pcaddu18i	$ra, %call36(_ZdaPv)
	jirl	$ra, $ra, 0
	ld.w	$s1, $s0, 28
	ld.d	$fp, $s0, 16
.Ltmp224:                               # EH_LABEL
	move	$a0, $s0
	pcaddu18i	$ra, %call36(_ZN9benchmark5State16StartKeepRunningEv)
	jirl	$ra, $ra, 0
.Ltmp225:                               # EH_LABEL
# %bb.24:                               # %for.cond91.i.preheader
	bnez	$s1, .LBB10_30
# %bb.25:                               # %for.cond91.i.preheader
	beqz	$fp, .LBB10_30
# %bb.26:
	addi.d	$s1, $sp, 24
	addi.d	$s2, $sp, 16
	addi.d	$s4, $sp, 8
	.p2align	4, , 16
.LBB10_27:                              # %for.body95.i
                                        # =>This Loop Header: Depth=1
                                        #     Child Loop BB10_28 Depth 2
	ld.d	$s5, $sp, 24
	ld.d	$s6, $sp, 16
	ld.d	$s7, $sp, 8
	move	$s8, $s3
	.p2align	4, , 16
.LBB10_28:                              # %for.body.i80
                                        #   Parent Loop BB10_27 Depth=1
                                        # =>  This Inner Loop Header: Depth=2
	fld.d	$fa0, $s5, 0
	pcaddu18i	$ra, %call36(asin)
	jirl	$ra, $ra, 0
	fld.d	$fa1, $s6, 0
	fmov.d	$fs0, $fa0
	fmov.d	$fa0, $fa1
	pcaddu18i	$ra, %call36(asin)
	jirl	$ra, $ra, 0
	fadd.d	$fa0, $fs0, $fa0
	fst.d	$fa0, $s7, 0
	addi.d	$s8, $s8, -1
	addi.d	$s7, $s7, 8
	addi.d	$s6, $s6, 8
	addi.d	$s5, $s5, 8
	bnez	$s8, .LBB10_28
# %bb.29:                               # %invoke.cont104.i
                                        #   in Loop: Header=BB10_27 Depth=1
	#APP
	#NO_APP
	#APP
	#NO_APP
	#APP
	#NO_APP
	addi.d	$fp, $fp, -1
	#MEMBARRIER
	bnez	$fp, .LBB10_27
.LBB10_30:                              # %if.end.i
.Ltmp226:                               # EH_LABEL
	move	$a0, $s0
	pcaddu18i	$ra, %call36(_ZN9benchmark5State17FinishKeepRunningEv)
	jirl	$ra, $ra, 0
.Ltmp227:                               # EH_LABEL
# %bb.31:                               # %_ZL20benchmark_fn_autovecIdEvRN9benchmark5StateEPFT_S3_E.exit
	ld.d	$a0, $sp, 8
	beqz	$a0, .LBB10_33
# %bb.32:                               # %_ZNKSt14default_deleteIA_dEclIdEENSt9enable_ifIXsr14is_convertibleIPA_T_PS0_EE5valueEvE4typeEPS4_.exit.i105
	pcaddu18i	$ra, %call36(_ZdaPv)
	jirl	$ra, $ra, 0
.LBB10_33:                              # %_ZNSt10unique_ptrIA_dSt14default_deleteIS0_EED2Ev.exit107
	ld.d	$a0, $sp, 16
	beqz	$a0, .LBB10_35
# %bb.34:                               # %_ZNKSt14default_deleteIA_dEclIdEENSt9enable_ifIXsr14is_convertibleIPA_T_PS0_EE5valueEvE4typeEPS4_.exit.i109
	pcaddu18i	$ra, %call36(_ZdaPv)
	jirl	$ra, $ra, 0
.LBB10_35:                              # %_ZNSt10unique_ptrIA_dSt14default_deleteIS0_EED2Ev.exit111
	ld.d	$a0, $sp, 24
	beqz	$a0, .LBB10_37
# %bb.36:                               # %_ZNKSt14default_deleteIA_dEclIdEENSt9enable_ifIXsr14is_convertibleIPA_T_PS0_EE5valueEvE4typeEPS4_.exit.i113
	pcaddu18i	$ra, %call36(_ZdaPv)
	jirl	$ra, $ra, 0
.LBB10_37:                              # %_ZNSt10unique_ptrIA_dSt14default_deleteIS0_EED2Ev.exit115
	fld.d	$fs0, $sp, 32                   # 8-byte Folded Reload
	ld.d	$s8, $sp, 40                    # 8-byte Folded Reload
	ld.d	$s7, $sp, 48                    # 8-byte Folded Reload
	ld.d	$s6, $sp, 56                    # 8-byte Folded Reload
	ld.d	$s5, $sp, 64                    # 8-byte Folded Reload
	ld.d	$s4, $sp, 72                    # 8-byte Folded Reload
	ld.d	$s3, $sp, 80                    # 8-byte Folded Reload
	ld.d	$s2, $sp, 88                    # 8-byte Folded Reload
	ld.d	$s1, $sp, 96                    # 8-byte Folded Reload
	ld.d	$s0, $sp, 104                   # 8-byte Folded Reload
	ld.d	$fp, $sp, 112                   # 8-byte Folded Reload
	ld.d	$ra, $sp, 120                   # 8-byte Folded Reload
	addi.d	$sp, $sp, 128
	ret
.LBB10_38:                              # %if.then.i
.Ltmp209:                               # EH_LABEL
	pcalau12i	$a0, %got_pc_hi20(_ZSt4cerr)
	ld.d	$a0, $a0, %got_pc_lo12(_ZSt4cerr)
	pcalau12i	$a1, %pc_hi20(.L.str.73)
	addi.d	$a1, $a1, %pc_lo12(.L.str.73)
	ori	$a2, $zero, 49
	pcaddu18i	$ra, %call36(_ZSt16__ostream_insertIcSt11char_traitsIcEERSt13basic_ostreamIT_T0_ES6_PKS3_l)
	jirl	$ra, $ra, 0
.Ltmp210:                               # EH_LABEL
# %bb.39:                               # %invoke.cont61.i
	fld.d	$fa0, $s5, 0
.Ltmp211:                               # EH_LABEL
	pcalau12i	$a0, %got_pc_hi20(_ZSt4cerr)
	ld.d	$a0, $a0, %got_pc_lo12(_ZSt4cerr)
	pcaddu18i	$ra, %call36(_ZNSo9_M_insertIdEERSoT_)
	jirl	$ra, $ra, 0
.Ltmp212:                               # EH_LABEL
# %bb.40:                               # %invoke.cont66.i
.Ltmp213:                               # EH_LABEL
	move	$s0, $a0
	pcalau12i	$a0, %pc_hi20(.L.str.74)
	addi.d	$a1, $a0, %pc_lo12(.L.str.74)
	ori	$a2, $zero, 4
	move	$a0, $s0
	pcaddu18i	$ra, %call36(_ZSt16__ostream_insertIcSt11char_traitsIcEERSt13basic_ostreamIT_T0_ES6_PKS3_l)
	jirl	$ra, $ra, 0
.Ltmp214:                               # EH_LABEL
# %bb.41:                               # %invoke.cont68.i
	fld.d	$fa0, $s4, 0
.Ltmp215:                               # EH_LABEL
	move	$a0, $s0
	pcaddu18i	$ra, %call36(_ZNSo9_M_insertIdEERSoT_)
	jirl	$ra, $ra, 0
.Ltmp216:                               # EH_LABEL
# %bb.42:                               # %invoke.cont73.i
.Ltmp217:                               # EH_LABEL
	move	$s0, $a0
	pcalau12i	$a0, %pc_hi20(.L.str.75)
	addi.d	$a1, $a0, %pc_lo12(.L.str.75)
	ori	$a2, $zero, 10
	move	$a0, $s0
	pcaddu18i	$ra, %call36(_ZSt16__ostream_insertIcSt11char_traitsIcEERSt13basic_ostreamIT_T0_ES6_PKS3_l)
	jirl	$ra, $ra, 0
.Ltmp218:                               # EH_LABEL
# %bb.43:                               # %invoke.cont75.i
.Ltmp219:                               # EH_LABEL
	move	$a0, $s0
	move	$a1, $s2
	pcaddu18i	$ra, %call36(_ZNSo9_M_insertImEERSoT_)
	jirl	$ra, $ra, 0
.Ltmp220:                               # EH_LABEL
# %bb.44:                               # %invoke.cont77.i
.Ltmp221:                               # EH_LABEL
	pcalau12i	$a1, %pc_hi20(.L.str.76)
	addi.d	$a1, $a1, %pc_lo12(.L.str.76)
	pcaddu18i	$ra, %call36(_ZStlsISt11char_traitsIcEERSt13basic_ostreamIcT_ES5_PKc)
	jirl	$ra, $ra, 0
.Ltmp222:                               # EH_LABEL
# %bb.45:                               # %invoke.cont79.i
	ori	$a0, $zero, 1
	pcaddu18i	$ra, %call36(exit)
	jirl	$ra, $ra, 0
.LBB10_46:                              # %lpad13.i
.Ltmp208:                               # EH_LABEL
	move	$s0, $a0
	b	.LBB10_54
.LBB10_47:                              # %ehcleanup116.i.thread
.Ltmp205:                               # EH_LABEL
	move	$s0, $a0
	b	.LBB10_55
.LBB10_48:                              # %ehcleanup118.i.thread
.Ltmp202:                               # EH_LABEL
	move	$s0, $a0
	move	$a0, $s2
	pcaddu18i	$ra, %call36(_ZdaPv)
	jirl	$ra, $ra, 0
	move	$a0, $s0
	pcaddu18i	$ra, %call36(_Unwind_Resume)
	jirl	$ra, $ra, 0
.LBB10_49:                              # %ehcleanup115.i
.Ltmp228:                               # EH_LABEL
	ld.d	$fp, $sp, 8
	move	$s0, $a0
	bnez	$fp, .LBB10_54
# %bb.50:                               # %ehcleanup116.i
	ld.d	$s3, $sp, 16
	bnez	$s3, .LBB10_55
.LBB10_51:                              # %ehcleanup118.i
	ld.d	$s2, $sp, 24
	bnez	$s2, .LBB10_56
.LBB10_52:                              # %_ZNSt10unique_ptrIA_dSt14default_deleteIS0_EED2Ev.exit103
	move	$a0, $s0
	pcaddu18i	$ra, %call36(_Unwind_Resume)
	jirl	$ra, $ra, 0
.LBB10_53:                              # %lpad43.i
.Ltmp223:                               # EH_LABEL
	move	$s0, $a0
	move	$a0, $s1
	pcaddu18i	$ra, %call36(_ZdaPv)
	jirl	$ra, $ra, 0
.LBB10_54:                              # %_ZNKSt14default_deleteIA_dEclIdEENSt9enable_ifIXsr14is_convertibleIPA_T_PS0_EE5valueEvE4typeEPS4_.exit.i93
	move	$a0, $fp
	pcaddu18i	$ra, %call36(_ZdaPv)
	jirl	$ra, $ra, 0
	ld.d	$s3, $sp, 16
	beqz	$s3, .LBB10_51
.LBB10_55:                              # %_ZNKSt14default_deleteIA_dEclIdEENSt9enable_ifIXsr14is_convertibleIPA_T_PS0_EE5valueEvE4typeEPS4_.exit.i97
	move	$a0, $s3
	pcaddu18i	$ra, %call36(_ZdaPv)
	jirl	$ra, $ra, 0
	ld.d	$s2, $sp, 24
	beqz	$s2, .LBB10_52
.LBB10_56:                              # %_ZNKSt14default_deleteIA_dEclIdEENSt9enable_ifIXsr14is_convertibleIPA_T_PS0_EE5valueEvE4typeEPS4_.exit.i101
	move	$a0, $s2
	pcaddu18i	$ra, %call36(_ZdaPv)
	jirl	$ra, $ra, 0
	move	$a0, $s0
	pcaddu18i	$ra, %call36(_Unwind_Resume)
	jirl	$ra, $ra, 0
.Lfunc_end10:
	.size	_Z30BENCHMARK_asin_autovec_double_RN9benchmark5StateE, .Lfunc_end10-_Z30BENCHMARK_asin_autovec_double_RN9benchmark5StateE
	.cfi_endproc
	.section	.gcc_except_table,"a",@progbits
	.p2align	2, 0x0
GCC_except_table10:
.Lexception10:
	.byte	255                             # @LPStart Encoding = omit
	.byte	255                             # @TType Encoding = omit
	.byte	1                               # Call site Encoding = uleb128
	.uleb128 .Lcst_end10-.Lcst_begin10
.Lcst_begin10:
	.uleb128 .Lfunc_begin10-.Lfunc_begin10  # >> Call Site 1 <<
	.uleb128 .Ltmp200-.Lfunc_begin10        #   Call between .Lfunc_begin10 and .Ltmp200
	.byte	0                               #     has no landing pad
	.byte	0                               #   On action: cleanup
	.uleb128 .Ltmp200-.Lfunc_begin10        # >> Call Site 2 <<
	.uleb128 .Ltmp201-.Ltmp200              #   Call between .Ltmp200 and .Ltmp201
	.uleb128 .Ltmp202-.Lfunc_begin10        #     jumps to .Ltmp202
	.byte	0                               #   On action: cleanup
	.uleb128 .Ltmp203-.Lfunc_begin10        # >> Call Site 3 <<
	.uleb128 .Ltmp204-.Ltmp203              #   Call between .Ltmp203 and .Ltmp204
	.uleb128 .Ltmp205-.Lfunc_begin10        #     jumps to .Ltmp205
	.byte	0                               #   On action: cleanup
	.uleb128 .Ltmp204-.Lfunc_begin10        # >> Call Site 4 <<
	.uleb128 .Ltmp206-.Ltmp204              #   Call between .Ltmp204 and .Ltmp206
	.byte	0                               #     has no landing pad
	.byte	0                               #   On action: cleanup
	.uleb128 .Ltmp206-.Lfunc_begin10        # >> Call Site 5 <<
	.uleb128 .Ltmp207-.Ltmp206              #   Call between .Ltmp206 and .Ltmp207
	.uleb128 .Ltmp208-.Lfunc_begin10        #     jumps to .Ltmp208
	.byte	0                               #   On action: cleanup
	.uleb128 .Ltmp207-.Lfunc_begin10        # >> Call Site 6 <<
	.uleb128 .Ltmp224-.Ltmp207              #   Call between .Ltmp207 and .Ltmp224
	.byte	0                               #     has no landing pad
	.byte	0                               #   On action: cleanup
	.uleb128 .Ltmp224-.Lfunc_begin10        # >> Call Site 7 <<
	.uleb128 .Ltmp225-.Ltmp224              #   Call between .Ltmp224 and .Ltmp225
	.uleb128 .Ltmp228-.Lfunc_begin10        #     jumps to .Ltmp228
	.byte	0                               #   On action: cleanup
	.uleb128 .Ltmp225-.Lfunc_begin10        # >> Call Site 8 <<
	.uleb128 .Ltmp226-.Ltmp225              #   Call between .Ltmp225 and .Ltmp226
	.byte	0                               #     has no landing pad
	.byte	0                               #   On action: cleanup
	.uleb128 .Ltmp226-.Lfunc_begin10        # >> Call Site 9 <<
	.uleb128 .Ltmp227-.Ltmp226              #   Call between .Ltmp226 and .Ltmp227
	.uleb128 .Ltmp228-.Lfunc_begin10        #     jumps to .Ltmp228
	.byte	0                               #   On action: cleanup
	.uleb128 .Ltmp227-.Lfunc_begin10        # >> Call Site 10 <<
	.uleb128 .Ltmp209-.Ltmp227              #   Call between .Ltmp227 and .Ltmp209
	.byte	0                               #     has no landing pad
	.byte	0                               #   On action: cleanup
	.uleb128 .Ltmp209-.Lfunc_begin10        # >> Call Site 11 <<
	.uleb128 .Ltmp222-.Ltmp209              #   Call between .Ltmp209 and .Ltmp222
	.uleb128 .Ltmp223-.Lfunc_begin10        #     jumps to .Ltmp223
	.byte	0                               #   On action: cleanup
	.uleb128 .Ltmp222-.Lfunc_begin10        # >> Call Site 12 <<
	.uleb128 .Lfunc_end10-.Ltmp222          #   Call between .Ltmp222 and .Lfunc_end10
	.byte	0                               #     has no landing pad
	.byte	0                               #   On action: cleanup
.Lcst_end10:
	.p2align	2, 0x0
                                        # -- End function
	.text
	.globl	_Z28BENCHMARK_asin_novec_double_RN9benchmark5StateE # -- Begin function _Z28BENCHMARK_asin_novec_double_RN9benchmark5StateE
	.p2align	5
	.type	_Z28BENCHMARK_asin_novec_double_RN9benchmark5StateE,@function
_Z28BENCHMARK_asin_novec_double_RN9benchmark5StateE: # @_Z28BENCHMARK_asin_novec_double_RN9benchmark5StateE
.Lfunc_begin11:
	.cfi_startproc
	.cfi_personality 155, DW.ref.__gxx_personality_v0
	.cfi_lsda 27, .Lexception11
# %bb.0:                                # %entry
	addi.d	$sp, $sp, -128
	.cfi_def_cfa_offset 128
	st.d	$ra, $sp, 120                   # 8-byte Folded Spill
	st.d	$fp, $sp, 112                   # 8-byte Folded Spill
	st.d	$s0, $sp, 104                   # 8-byte Folded Spill
	st.d	$s1, $sp, 96                    # 8-byte Folded Spill
	st.d	$s2, $sp, 88                    # 8-byte Folded Spill
	st.d	$s3, $sp, 80                    # 8-byte Folded Spill
	st.d	$s4, $sp, 72                    # 8-byte Folded Spill
	st.d	$s5, $sp, 64                    # 8-byte Folded Spill
	st.d	$s6, $sp, 56                    # 8-byte Folded Spill
	st.d	$s7, $sp, 48                    # 8-byte Folded Spill
	st.d	$s8, $sp, 40                    # 8-byte Folded Spill
	fst.d	$fs0, $sp, 32                   # 8-byte Folded Spill
	.cfi_offset 1, -8
	.cfi_offset 22, -16
	.cfi_offset 23, -24
	.cfi_offset 24, -32
	.cfi_offset 25, -40
	.cfi_offset 26, -48
	.cfi_offset 27, -56
	.cfi_offset 28, -64
	.cfi_offset 29, -72
	.cfi_offset 30, -80
	.cfi_offset 31, -88
	.cfi_offset 56, -96
	move	$fp, $a0
	lu12i.w	$a0, 19
	ori	$s2, $a0, 2176
	move	$a0, $s2
	pcaddu18i	$ra, %call36(_Znam)
	jirl	$ra, $ra, 0
	move	$s0, $a0
	st.d	$a0, $sp, 24
.Ltmp229:                               # EH_LABEL
	move	$a0, $s2
	pcaddu18i	$ra, %call36(_Znam)
	jirl	$ra, $ra, 0
.Ltmp230:                               # EH_LABEL
# %bb.1:                                # %invoke.cont.i
	move	$s1, $a0
	st.d	$a0, $sp, 16
.Ltmp232:                               # EH_LABEL
	move	$a0, $s2
	pcaddu18i	$ra, %call36(_Znam)
	jirl	$ra, $ra, 0
.Ltmp233:                               # EH_LABEL
# %bb.2:                                # %invoke.cont3.i
	move	$a2, $a0
	st.d	$a0, $sp, 8
	move	$a0, $s0
	move	$a1, $s1
	pcaddu18i	$ra, %call36(_ZL9init_dataIdEvPT_S1_S1_)
	jirl	$ra, $ra, 0
	ld.w	$s1, $fp, 28
	ld.d	$s0, $fp, 16
.Ltmp235:                               # EH_LABEL
	move	$a0, $fp
	pcaddu18i	$ra, %call36(_ZN9benchmark5State16StartKeepRunningEv)
	jirl	$ra, $ra, 0
.Ltmp236:                               # EH_LABEL
# %bb.3:                                # %for.cond.i.preheader
	bnez	$s1, .LBB11_9
# %bb.4:                                # %for.cond.i.preheader
	beqz	$s0, .LBB11_9
# %bb.5:
	lu12i.w	$a0, 2
	ori	$s1, $a0, 1808
	addi.d	$s2, $sp, 24
	addi.d	$s3, $sp, 16
	addi.d	$s4, $sp, 8
	.p2align	4, , 16
.LBB11_6:                               # %for.body.i
                                        # =>This Loop Header: Depth=1
                                        #     Child Loop BB11_7 Depth 2
	ld.d	$s5, $sp, 24
	ld.d	$s6, $sp, 16
	ld.d	$s7, $sp, 8
	move	$s8, $s1
	.p2align	4, , 16
.LBB11_7:                               # %for.body.i13
                                        #   Parent Loop BB11_6 Depth=1
                                        # =>  This Inner Loop Header: Depth=2
	fld.d	$fa0, $s5, 0
	pcaddu18i	$ra, %call36(asin)
	jirl	$ra, $ra, 0
	fld.d	$fa1, $s6, 0
	fmov.d	$fs0, $fa0
	fmov.d	$fa0, $fa1
	pcaddu18i	$ra, %call36(asin)
	jirl	$ra, $ra, 0
	fadd.d	$fa0, $fs0, $fa0
	fst.d	$fa0, $s7, 0
	addi.d	$s8, $s8, -1
	addi.d	$s7, $s7, 8
	addi.d	$s6, $s6, 8
	addi.d	$s5, $s5, 8
	bnez	$s8, .LBB11_7
# %bb.8:                                # %invoke.cont23.i
                                        #   in Loop: Header=BB11_6 Depth=1
	#APP
	#NO_APP
	#APP
	#NO_APP
	#APP
	#NO_APP
	addi.d	$s0, $s0, -1
	bnez	$s0, .LBB11_6
.LBB11_9:                               # %if.end.i
.Ltmp237:                               # EH_LABEL
	move	$a0, $fp
	pcaddu18i	$ra, %call36(_ZN9benchmark5State17FinishKeepRunningEv)
	jirl	$ra, $ra, 0
.Ltmp238:                               # EH_LABEL
# %bb.10:                               # %_ZL18benchmark_fn_novecIdEvRN9benchmark5StateEPFT_S3_E.exit
	ld.d	$a0, $sp, 8
	beqz	$a0, .LBB11_12
# %bb.11:                               # %_ZNKSt14default_deleteIA_dEclIdEENSt9enable_ifIXsr14is_convertibleIPA_T_PS0_EE5valueEvE4typeEPS4_.exit.i26
	pcaddu18i	$ra, %call36(_ZdaPv)
	jirl	$ra, $ra, 0
.LBB11_12:                              # %_ZNSt10unique_ptrIA_dSt14default_deleteIS0_EED2Ev.exit28
	ld.d	$a0, $sp, 16
	beqz	$a0, .LBB11_14
# %bb.13:                               # %_ZNKSt14default_deleteIA_dEclIdEENSt9enable_ifIXsr14is_convertibleIPA_T_PS0_EE5valueEvE4typeEPS4_.exit.i30
	pcaddu18i	$ra, %call36(_ZdaPv)
	jirl	$ra, $ra, 0
.LBB11_14:                              # %_ZNSt10unique_ptrIA_dSt14default_deleteIS0_EED2Ev.exit32
	ld.d	$a0, $sp, 24
	beqz	$a0, .LBB11_16
# %bb.15:                               # %_ZNKSt14default_deleteIA_dEclIdEENSt9enable_ifIXsr14is_convertibleIPA_T_PS0_EE5valueEvE4typeEPS4_.exit.i34
	pcaddu18i	$ra, %call36(_ZdaPv)
	jirl	$ra, $ra, 0
.LBB11_16:                              # %_ZNSt10unique_ptrIA_dSt14default_deleteIS0_EED2Ev.exit36
	fld.d	$fs0, $sp, 32                   # 8-byte Folded Reload
	ld.d	$s8, $sp, 40                    # 8-byte Folded Reload
	ld.d	$s7, $sp, 48                    # 8-byte Folded Reload
	ld.d	$s6, $sp, 56                    # 8-byte Folded Reload
	ld.d	$s5, $sp, 64                    # 8-byte Folded Reload
	ld.d	$s4, $sp, 72                    # 8-byte Folded Reload
	ld.d	$s3, $sp, 80                    # 8-byte Folded Reload
	ld.d	$s2, $sp, 88                    # 8-byte Folded Reload
	ld.d	$s1, $sp, 96                    # 8-byte Folded Reload
	ld.d	$s0, $sp, 104                   # 8-byte Folded Reload
	ld.d	$fp, $sp, 112                   # 8-byte Folded Reload
	ld.d	$ra, $sp, 120                   # 8-byte Folded Reload
	addi.d	$sp, $sp, 128
	ret
.LBB11_17:                              # %ehcleanup28.i.thread
.Ltmp234:                               # EH_LABEL
	move	$fp, $a0
	b	.LBB11_24
.LBB11_18:                              # %ehcleanup30.i.thread
.Ltmp231:                               # EH_LABEL
	move	$fp, $a0
	move	$a0, $s0
	pcaddu18i	$ra, %call36(_ZdaPv)
	jirl	$ra, $ra, 0
	move	$a0, $fp
	pcaddu18i	$ra, %call36(_Unwind_Resume)
	jirl	$ra, $ra, 0
.LBB11_19:                              # %lpad13.i
.Ltmp239:                               # EH_LABEL
	ld.d	$a1, $sp, 8
	move	$fp, $a0
	bnez	$a1, .LBB11_23
# %bb.20:                               # %ehcleanup28.i
	ld.d	$s1, $sp, 16
	bnez	$s1, .LBB11_24
.LBB11_21:                              # %ehcleanup30.i
	ld.d	$s0, $sp, 24
	bnez	$s0, .LBB11_25
.LBB11_22:                              # %_ZNSt10unique_ptrIA_dSt14default_deleteIS0_EED2Ev.exit24
	move	$a0, $fp
	pcaddu18i	$ra, %call36(_Unwind_Resume)
	jirl	$ra, $ra, 0
.LBB11_23:                              # %_ZNKSt14default_deleteIA_dEclIdEENSt9enable_ifIXsr14is_convertibleIPA_T_PS0_EE5valueEvE4typeEPS4_.exit.i
	move	$a0, $a1
	pcaddu18i	$ra, %call36(_ZdaPv)
	jirl	$ra, $ra, 0
	ld.d	$s1, $sp, 16
	beqz	$s1, .LBB11_21
.LBB11_24:                              # %_ZNKSt14default_deleteIA_dEclIdEENSt9enable_ifIXsr14is_convertibleIPA_T_PS0_EE5valueEvE4typeEPS4_.exit.i18
	move	$a0, $s1
	pcaddu18i	$ra, %call36(_ZdaPv)
	jirl	$ra, $ra, 0
	ld.d	$s0, $sp, 24
	beqz	$s0, .LBB11_22
.LBB11_25:                              # %_ZNKSt14default_deleteIA_dEclIdEENSt9enable_ifIXsr14is_convertibleIPA_T_PS0_EE5valueEvE4typeEPS4_.exit.i22
	move	$a0, $s0
	pcaddu18i	$ra, %call36(_ZdaPv)
	jirl	$ra, $ra, 0
	move	$a0, $fp
	pcaddu18i	$ra, %call36(_Unwind_Resume)
	jirl	$ra, $ra, 0
.Lfunc_end11:
	.size	_Z28BENCHMARK_asin_novec_double_RN9benchmark5StateE, .Lfunc_end11-_Z28BENCHMARK_asin_novec_double_RN9benchmark5StateE
	.cfi_endproc
	.section	.gcc_except_table,"a",@progbits
	.p2align	2, 0x0
GCC_except_table11:
.Lexception11:
	.byte	255                             # @LPStart Encoding = omit
	.byte	255                             # @TType Encoding = omit
	.byte	1                               # Call site Encoding = uleb128
	.uleb128 .Lcst_end11-.Lcst_begin11
.Lcst_begin11:
	.uleb128 .Lfunc_begin11-.Lfunc_begin11  # >> Call Site 1 <<
	.uleb128 .Ltmp229-.Lfunc_begin11        #   Call between .Lfunc_begin11 and .Ltmp229
	.byte	0                               #     has no landing pad
	.byte	0                               #   On action: cleanup
	.uleb128 .Ltmp229-.Lfunc_begin11        # >> Call Site 2 <<
	.uleb128 .Ltmp230-.Ltmp229              #   Call between .Ltmp229 and .Ltmp230
	.uleb128 .Ltmp231-.Lfunc_begin11        #     jumps to .Ltmp231
	.byte	0                               #   On action: cleanup
	.uleb128 .Ltmp232-.Lfunc_begin11        # >> Call Site 3 <<
	.uleb128 .Ltmp233-.Ltmp232              #   Call between .Ltmp232 and .Ltmp233
	.uleb128 .Ltmp234-.Lfunc_begin11        #     jumps to .Ltmp234
	.byte	0                               #   On action: cleanup
	.uleb128 .Ltmp233-.Lfunc_begin11        # >> Call Site 4 <<
	.uleb128 .Ltmp235-.Ltmp233              #   Call between .Ltmp233 and .Ltmp235
	.byte	0                               #     has no landing pad
	.byte	0                               #   On action: cleanup
	.uleb128 .Ltmp235-.Lfunc_begin11        # >> Call Site 5 <<
	.uleb128 .Ltmp236-.Ltmp235              #   Call between .Ltmp235 and .Ltmp236
	.uleb128 .Ltmp239-.Lfunc_begin11        #     jumps to .Ltmp239
	.byte	0                               #   On action: cleanup
	.uleb128 .Ltmp236-.Lfunc_begin11        # >> Call Site 6 <<
	.uleb128 .Ltmp237-.Ltmp236              #   Call between .Ltmp236 and .Ltmp237
	.byte	0                               #     has no landing pad
	.byte	0                               #   On action: cleanup
	.uleb128 .Ltmp237-.Lfunc_begin11        # >> Call Site 7 <<
	.uleb128 .Ltmp238-.Ltmp237              #   Call between .Ltmp237 and .Ltmp238
	.uleb128 .Ltmp239-.Lfunc_begin11        #     jumps to .Ltmp239
	.byte	0                               #   On action: cleanup
	.uleb128 .Ltmp238-.Lfunc_begin11        # >> Call Site 8 <<
	.uleb128 .Lfunc_end11-.Ltmp238          #   Call between .Ltmp238 and .Lfunc_end11
	.byte	0                               #     has no landing pad
	.byte	0                               #   On action: cleanup
.Lcst_end11:
	.p2align	2, 0x0
                                        # -- End function
	.text
	.globl	_Z30BENCHMARK_atanf_autovec_float_RN9benchmark5StateE # -- Begin function _Z30BENCHMARK_atanf_autovec_float_RN9benchmark5StateE
	.p2align	5
	.type	_Z30BENCHMARK_atanf_autovec_float_RN9benchmark5StateE,@function
_Z30BENCHMARK_atanf_autovec_float_RN9benchmark5StateE: # @_Z30BENCHMARK_atanf_autovec_float_RN9benchmark5StateE
.Lfunc_begin12:
	.cfi_startproc
	.cfi_personality 155, DW.ref.__gxx_personality_v0
	.cfi_lsda 27, .Lexception12
# %bb.0:                                # %entry
	addi.d	$sp, $sp, -128
	.cfi_def_cfa_offset 128
	st.d	$ra, $sp, 120                   # 8-byte Folded Spill
	st.d	$fp, $sp, 112                   # 8-byte Folded Spill
	st.d	$s0, $sp, 104                   # 8-byte Folded Spill
	st.d	$s1, $sp, 96                    # 8-byte Folded Spill
	st.d	$s2, $sp, 88                    # 8-byte Folded Spill
	st.d	$s3, $sp, 80                    # 8-byte Folded Spill
	st.d	$s4, $sp, 72                    # 8-byte Folded Spill
	st.d	$s5, $sp, 64                    # 8-byte Folded Spill
	st.d	$s6, $sp, 56                    # 8-byte Folded Spill
	st.d	$s7, $sp, 48                    # 8-byte Folded Spill
	st.d	$s8, $sp, 40                    # 8-byte Folded Spill
	fst.d	$fs0, $sp, 32                   # 8-byte Folded Spill
	.cfi_offset 1, -8
	.cfi_offset 22, -16
	.cfi_offset 23, -24
	.cfi_offset 24, -32
	.cfi_offset 25, -40
	.cfi_offset 26, -48
	.cfi_offset 27, -56
	.cfi_offset 28, -64
	.cfi_offset 29, -72
	.cfi_offset 30, -80
	.cfi_offset 31, -88
	.cfi_offset 56, -96
	move	$s0, $a0
	lu12i.w	$a0, 9
	ori	$s4, $a0, 3136
	move	$a0, $s4
	pcaddu18i	$ra, %call36(_Znam)
	jirl	$ra, $ra, 0
	move	$s2, $a0
	st.d	$a0, $sp, 24
.Ltmp240:                               # EH_LABEL
	move	$a0, $s4
	pcaddu18i	$ra, %call36(_Znam)
	jirl	$ra, $ra, 0
.Ltmp241:                               # EH_LABEL
# %bb.1:                                # %invoke.cont.i
	move	$s3, $a0
	st.d	$a0, $sp, 16
.Ltmp243:                               # EH_LABEL
	move	$a0, $s4
	pcaddu18i	$ra, %call36(_Znam)
	jirl	$ra, $ra, 0
.Ltmp244:                               # EH_LABEL
# %bb.2:                                # %invoke.cont3.i
	move	$fp, $a0
	st.d	$a0, $sp, 8
	move	$a0, $s2
	move	$a1, $s3
	move	$a2, $fp
	pcaddu18i	$ra, %call36(_ZL9init_dataIfEvPT_S1_S1_)
	jirl	$ra, $ra, 0
.Ltmp246:                               # EH_LABEL
	move	$a0, $s4
	pcaddu18i	$ra, %call36(_Znam)
	jirl	$ra, $ra, 0
.Ltmp247:                               # EH_LABEL
# %bb.3:                                # %vector.body.preheader
	move	$s1, $a0
	move	$a0, $zero
	.p2align	4, , 16
.LBB12_4:                               # %vector.body
                                        # =>This Inner Loop Header: Depth=1
	vldx	$vr0, $fp, $a0
	add.d	$a1, $fp, $a0
	vld	$vr1, $a1, 16
	add.d	$a1, $s1, $a0
	vstx	$vr0, $s1, $a0
	addi.d	$a0, $a0, 32
	vst	$vr1, $a1, 16
	bne	$a0, $s4, .LBB12_4
# %bb.5:                                # %for.body.i14.preheader
	move	$s5, $zero
	.p2align	4, , 16
.LBB12_6:                               # %for.body.i14
                                        # =>This Inner Loop Header: Depth=1
	fldx.s	$fa0, $s2, $s5
	pcaddu18i	$ra, %call36(atanf)
	jirl	$ra, $ra, 0
	fldx.s	$fa1, $s3, $s5
	fmov.s	$fs0, $fa0
	fmov.s	$fa0, $fa1
	pcaddu18i	$ra, %call36(atanf)
	jirl	$ra, $ra, 0
	fadd.s	$fa0, $fs0, $fa0
	fstx.s	$fa0, $s1, $s5
	addi.d	$s5, $s5, 4
	bne	$s5, $s4, .LBB12_6
# %bb.7:                                # %for.body.i22.preheader
	move	$s5, $zero
	.p2align	4, , 16
.LBB12_8:                               # %for.body.i22
                                        # =>This Inner Loop Header: Depth=1
	fldx.s	$fa0, $s2, $s5
	pcaddu18i	$ra, %call36(atanf)
	jirl	$ra, $ra, 0
	fldx.s	$fa1, $s3, $s5
	fmov.s	$fs0, $fa0
	fmov.s	$fa0, $fa1
	pcaddu18i	$ra, %call36(atanf)
	jirl	$ra, $ra, 0
	fadd.s	$fa0, $fs0, $fa0
	fstx.s	$fa0, $fp, $s5
	addi.d	$s5, $s5, 4
	bne	$s5, $s4, .LBB12_8
# %bb.9:                                # %for.body41.i.preheader
	move	$s2, $zero
	movgr2fr.w	$fa0, $zero
	lu12i.w	$a0, 2048
	movgr2fr.w	$fa1, $a0
	lu12i.w	$a0, 2
	ori	$s3, $a0, 1808
	move	$s4, $s1
	move	$s5, $fp
	b	.LBB12_13
.LBB12_10:                              #   in Loop: Header=BB12_13 Depth=1
	move	$a0, $zero
	.p2align	4, , 16
.LBB12_11:                              # %_ZSt10fpclassifyf.exit49
                                        #   in Loop: Header=BB12_13 Depth=1
	bne	$a1, $a0, .LBB12_38
.LBB12_12:                              # %for.inc81.i
                                        #   in Loop: Header=BB12_13 Depth=1
	addi.d	$s2, $s2, 1
	addi.d	$s5, $s5, 4
	addi.d	$s4, $s4, 4
	beq	$s2, $s3, .LBB12_23
.LBB12_13:                              # %for.body41.i
                                        # =>This Inner Loop Header: Depth=1
	fld.s	$fa3, $s5, 0
	fld.s	$fa2, $s4, 0
	fcmp.ceq.s	$fcc0, $fa3, $fa2
	bcnez	$fcc0, .LBB12_12
# %bb.14:                               # %land.lhs.true.i
                                        #   in Loop: Header=BB12_13 Depth=1
	ori	$a0, $zero, 2
	fcmp.ceq.s	$fcc0, $fa3, $fa0
	ori	$a1, $zero, 2
	bcnez	$fcc0, .LBB12_18
# %bb.15:                               # %fpclassify_not_zero.i
                                        #   in Loop: Header=BB12_13 Depth=1
	fcmp.cun.s	$fcc0, $fa3, $fa3
	bcnez	$fcc0, .LBB12_22
# %bb.16:                               # %fpclassify_not_nan.i
                                        #   in Loop: Header=BB12_13 Depth=1
	fclass.s	$fa4, $fa3
	movfr2gr.s	$a1, $fa4
	andi	$a1, $a1, 68
	sltu	$a1, $zero, $a1
	andi	$a2, $a1, 1
	ori	$a1, $zero, 1
	bnez	$a2, .LBB12_18
# %bb.17:                               # %fpclassify_not_inf.i
                                        #   in Loop: Header=BB12_13 Depth=1
	fabs.s	$fa3, $fa3
	fcmp.cule.s	$fcc0, $fa1, $fa3
	movcf2gr	$a1, $fcc0
	addi.d	$a1, $a1, 3
	.p2align	4, , 16
.LBB12_18:                              # %_ZSt10fpclassifyf.exit
                                        #   in Loop: Header=BB12_13 Depth=1
	fcmp.ceq.s	$fcc0, $fa2, $fa0
	bcnez	$fcc0, .LBB12_11
.LBB12_19:                              # %fpclassify_not_zero.i42
                                        #   in Loop: Header=BB12_13 Depth=1
	fcmp.cun.s	$fcc0, $fa2, $fa2
	bcnez	$fcc0, .LBB12_10
# %bb.20:                               # %fpclassify_not_nan.i44
                                        #   in Loop: Header=BB12_13 Depth=1
	fclass.s	$fa3, $fa2
	movfr2gr.s	$a0, $fa3
	andi	$a0, $a0, 68
	sltu	$a0, $zero, $a0
	andi	$a2, $a0, 1
	ori	$a0, $zero, 1
	bnez	$a2, .LBB12_11
# %bb.21:                               # %fpclassify_not_inf.i46
                                        #   in Loop: Header=BB12_13 Depth=1
	fabs.s	$fa2, $fa2
	fcmp.cule.s	$fcc0, $fa1, $fa2
	movcf2gr	$a0, $fcc0
	addi.d	$a0, $a0, 3
	b	.LBB12_11
.LBB12_22:                              #   in Loop: Header=BB12_13 Depth=1
	move	$a1, $zero
	fcmp.ceq.s	$fcc0, $fa2, $fa0
	bcnez	$fcc0, .LBB12_11
	b	.LBB12_19
.LBB12_23:                              # %_ZNSt10unique_ptrIA_fSt14default_deleteIS0_EED2Ev.exit
	move	$a0, $s1
	pcaddu18i	$ra, %call36(_ZdaPv)
	jirl	$ra, $ra, 0
	ld.w	$s1, $s0, 28
	ld.d	$fp, $s0, 16
.Ltmp264:                               # EH_LABEL
	move	$a0, $s0
	pcaddu18i	$ra, %call36(_ZN9benchmark5State16StartKeepRunningEv)
	jirl	$ra, $ra, 0
.Ltmp265:                               # EH_LABEL
# %bb.24:                               # %for.cond91.i.preheader
	bnez	$s1, .LBB12_30
# %bb.25:                               # %for.cond91.i.preheader
	beqz	$fp, .LBB12_30
# %bb.26:
	addi.d	$s1, $sp, 24
	addi.d	$s2, $sp, 16
	addi.d	$s4, $sp, 8
	.p2align	4, , 16
.LBB12_27:                              # %for.body95.i
                                        # =>This Loop Header: Depth=1
                                        #     Child Loop BB12_28 Depth 2
	ld.d	$s5, $sp, 24
	ld.d	$s6, $sp, 16
	ld.d	$s7, $sp, 8
	move	$s8, $s3
	.p2align	4, , 16
.LBB12_28:                              # %for.body.i79
                                        #   Parent Loop BB12_27 Depth=1
                                        # =>  This Inner Loop Header: Depth=2
	fld.s	$fa0, $s5, 0
	pcaddu18i	$ra, %call36(atanf)
	jirl	$ra, $ra, 0
	fld.s	$fa1, $s6, 0
	fmov.s	$fs0, $fa0
	fmov.s	$fa0, $fa1
	pcaddu18i	$ra, %call36(atanf)
	jirl	$ra, $ra, 0
	fadd.s	$fa0, $fs0, $fa0
	fst.s	$fa0, $s7, 0
	addi.d	$s8, $s8, -1
	addi.d	$s7, $s7, 4
	addi.d	$s6, $s6, 4
	addi.d	$s5, $s5, 4
	bnez	$s8, .LBB12_28
# %bb.29:                               # %invoke.cont105.i
                                        #   in Loop: Header=BB12_27 Depth=1
	#APP
	#NO_APP
	#APP
	#NO_APP
	#APP
	#NO_APP
	addi.d	$fp, $fp, -1
	#MEMBARRIER
	bnez	$fp, .LBB12_27
.LBB12_30:                              # %if.end.i
.Ltmp266:                               # EH_LABEL
	move	$a0, $s0
	pcaddu18i	$ra, %call36(_ZN9benchmark5State17FinishKeepRunningEv)
	jirl	$ra, $ra, 0
.Ltmp267:                               # EH_LABEL
# %bb.31:                               # %_ZL20benchmark_fn_autovecIfEvRN9benchmark5StateEPFT_S3_E.exit
	ld.d	$a0, $sp, 8
	beqz	$a0, .LBB12_33
# %bb.32:                               # %_ZNKSt14default_deleteIA_fEclIfEENSt9enable_ifIXsr14is_convertibleIPA_T_PS0_EE5valueEvE4typeEPS4_.exit.i104
	pcaddu18i	$ra, %call36(_ZdaPv)
	jirl	$ra, $ra, 0
.LBB12_33:                              # %_ZNSt10unique_ptrIA_fSt14default_deleteIS0_EED2Ev.exit106
	ld.d	$a0, $sp, 16
	beqz	$a0, .LBB12_35
# %bb.34:                               # %_ZNKSt14default_deleteIA_fEclIfEENSt9enable_ifIXsr14is_convertibleIPA_T_PS0_EE5valueEvE4typeEPS4_.exit.i108
	pcaddu18i	$ra, %call36(_ZdaPv)
	jirl	$ra, $ra, 0
.LBB12_35:                              # %_ZNSt10unique_ptrIA_fSt14default_deleteIS0_EED2Ev.exit110
	ld.d	$a0, $sp, 24
	beqz	$a0, .LBB12_37
# %bb.36:                               # %_ZNKSt14default_deleteIA_fEclIfEENSt9enable_ifIXsr14is_convertibleIPA_T_PS0_EE5valueEvE4typeEPS4_.exit.i112
	pcaddu18i	$ra, %call36(_ZdaPv)
	jirl	$ra, $ra, 0
.LBB12_37:                              # %_ZNSt10unique_ptrIA_fSt14default_deleteIS0_EED2Ev.exit114
	fld.d	$fs0, $sp, 32                   # 8-byte Folded Reload
	ld.d	$s8, $sp, 40                    # 8-byte Folded Reload
	ld.d	$s7, $sp, 48                    # 8-byte Folded Reload
	ld.d	$s6, $sp, 56                    # 8-byte Folded Reload
	ld.d	$s5, $sp, 64                    # 8-byte Folded Reload
	ld.d	$s4, $sp, 72                    # 8-byte Folded Reload
	ld.d	$s3, $sp, 80                    # 8-byte Folded Reload
	ld.d	$s2, $sp, 88                    # 8-byte Folded Reload
	ld.d	$s1, $sp, 96                    # 8-byte Folded Reload
	ld.d	$s0, $sp, 104                   # 8-byte Folded Reload
	ld.d	$fp, $sp, 112                   # 8-byte Folded Reload
	ld.d	$ra, $sp, 120                   # 8-byte Folded Reload
	addi.d	$sp, $sp, 128
	ret
.LBB12_38:                              # %if.then.i
.Ltmp249:                               # EH_LABEL
	pcalau12i	$a0, %got_pc_hi20(_ZSt4cerr)
	ld.d	$a0, $a0, %got_pc_lo12(_ZSt4cerr)
	pcalau12i	$a1, %pc_hi20(.L.str.73)
	addi.d	$a1, $a1, %pc_lo12(.L.str.73)
	ori	$a2, $zero, 49
	pcaddu18i	$ra, %call36(_ZSt16__ostream_insertIcSt11char_traitsIcEERSt13basic_ostreamIT_T0_ES6_PKS3_l)
	jirl	$ra, $ra, 0
.Ltmp250:                               # EH_LABEL
# %bb.39:                               # %invoke.cont61.i
	fld.s	$fa0, $s5, 0
	fcvt.d.s	$fa0, $fa0
.Ltmp251:                               # EH_LABEL
	pcalau12i	$a0, %got_pc_hi20(_ZSt4cerr)
	ld.d	$a0, $a0, %got_pc_lo12(_ZSt4cerr)
	pcaddu18i	$ra, %call36(_ZNSo9_M_insertIdEERSoT_)
	jirl	$ra, $ra, 0
.Ltmp252:                               # EH_LABEL
# %bb.40:                               # %invoke.cont66.i
.Ltmp253:                               # EH_LABEL
	move	$s0, $a0
	pcalau12i	$a0, %pc_hi20(.L.str.74)
	addi.d	$a1, $a0, %pc_lo12(.L.str.74)
	ori	$a2, $zero, 4
	move	$a0, $s0
	pcaddu18i	$ra, %call36(_ZSt16__ostream_insertIcSt11char_traitsIcEERSt13basic_ostreamIT_T0_ES6_PKS3_l)
	jirl	$ra, $ra, 0
.Ltmp254:                               # EH_LABEL
# %bb.41:                               # %invoke.cont68.i
	fld.s	$fa0, $s4, 0
	fcvt.d.s	$fa0, $fa0
.Ltmp255:                               # EH_LABEL
	move	$a0, $s0
	pcaddu18i	$ra, %call36(_ZNSo9_M_insertIdEERSoT_)
	jirl	$ra, $ra, 0
.Ltmp256:                               # EH_LABEL
# %bb.42:                               # %invoke.cont73.i
.Ltmp257:                               # EH_LABEL
	move	$s0, $a0
	pcalau12i	$a0, %pc_hi20(.L.str.75)
	addi.d	$a1, $a0, %pc_lo12(.L.str.75)
	ori	$a2, $zero, 10
	move	$a0, $s0
	pcaddu18i	$ra, %call36(_ZSt16__ostream_insertIcSt11char_traitsIcEERSt13basic_ostreamIT_T0_ES6_PKS3_l)
	jirl	$ra, $ra, 0
.Ltmp258:                               # EH_LABEL
# %bb.43:                               # %invoke.cont75.i
.Ltmp259:                               # EH_LABEL
	move	$a0, $s0
	move	$a1, $s2
	pcaddu18i	$ra, %call36(_ZNSo9_M_insertImEERSoT_)
	jirl	$ra, $ra, 0
.Ltmp260:                               # EH_LABEL
# %bb.44:                               # %invoke.cont77.i
.Ltmp261:                               # EH_LABEL
	pcalau12i	$a1, %pc_hi20(.L.str.76)
	addi.d	$a1, $a1, %pc_lo12(.L.str.76)
	pcaddu18i	$ra, %call36(_ZStlsISt11char_traitsIcEERSt13basic_ostreamIcT_ES5_PKc)
	jirl	$ra, $ra, 0
.Ltmp262:                               # EH_LABEL
# %bb.45:                               # %invoke.cont79.i
	ori	$a0, $zero, 1
	pcaddu18i	$ra, %call36(exit)
	jirl	$ra, $ra, 0
.LBB12_46:                              # %lpad13.i
.Ltmp248:                               # EH_LABEL
	move	$s0, $a0
	b	.LBB12_54
.LBB12_47:                              # %ehcleanup119.i.thread
.Ltmp245:                               # EH_LABEL
	move	$s0, $a0
	b	.LBB12_55
.LBB12_48:                              # %ehcleanup121.i.thread
.Ltmp242:                               # EH_LABEL
	move	$s0, $a0
	move	$a0, $s2
	pcaddu18i	$ra, %call36(_ZdaPv)
	jirl	$ra, $ra, 0
	move	$a0, $s0
	pcaddu18i	$ra, %call36(_Unwind_Resume)
	jirl	$ra, $ra, 0
.LBB12_49:                              # %ehcleanup118.i
.Ltmp268:                               # EH_LABEL
	ld.d	$fp, $sp, 8
	move	$s0, $a0
	bnez	$fp, .LBB12_54
# %bb.50:                               # %ehcleanup119.i
	ld.d	$s3, $sp, 16
	bnez	$s3, .LBB12_55
.LBB12_51:                              # %ehcleanup121.i
	ld.d	$s2, $sp, 24
	bnez	$s2, .LBB12_56
.LBB12_52:                              # %_ZNSt10unique_ptrIA_fSt14default_deleteIS0_EED2Ev.exit102
	move	$a0, $s0
	pcaddu18i	$ra, %call36(_Unwind_Resume)
	jirl	$ra, $ra, 0
.LBB12_53:                              # %lpad43.i
.Ltmp263:                               # EH_LABEL
	move	$s0, $a0
	move	$a0, $s1
	pcaddu18i	$ra, %call36(_ZdaPv)
	jirl	$ra, $ra, 0
.LBB12_54:                              # %_ZNKSt14default_deleteIA_fEclIfEENSt9enable_ifIXsr14is_convertibleIPA_T_PS0_EE5valueEvE4typeEPS4_.exit.i92
	move	$a0, $fp
	pcaddu18i	$ra, %call36(_ZdaPv)
	jirl	$ra, $ra, 0
	ld.d	$s3, $sp, 16
	beqz	$s3, .LBB12_51
.LBB12_55:                              # %_ZNKSt14default_deleteIA_fEclIfEENSt9enable_ifIXsr14is_convertibleIPA_T_PS0_EE5valueEvE4typeEPS4_.exit.i96
	move	$a0, $s3
	pcaddu18i	$ra, %call36(_ZdaPv)
	jirl	$ra, $ra, 0
	ld.d	$s2, $sp, 24
	beqz	$s2, .LBB12_52
.LBB12_56:                              # %_ZNKSt14default_deleteIA_fEclIfEENSt9enable_ifIXsr14is_convertibleIPA_T_PS0_EE5valueEvE4typeEPS4_.exit.i100
	move	$a0, $s2
	pcaddu18i	$ra, %call36(_ZdaPv)
	jirl	$ra, $ra, 0
	move	$a0, $s0
	pcaddu18i	$ra, %call36(_Unwind_Resume)
	jirl	$ra, $ra, 0
.Lfunc_end12:
	.size	_Z30BENCHMARK_atanf_autovec_float_RN9benchmark5StateE, .Lfunc_end12-_Z30BENCHMARK_atanf_autovec_float_RN9benchmark5StateE
	.cfi_endproc
	.section	.gcc_except_table,"a",@progbits
	.p2align	2, 0x0
GCC_except_table12:
.Lexception12:
	.byte	255                             # @LPStart Encoding = omit
	.byte	255                             # @TType Encoding = omit
	.byte	1                               # Call site Encoding = uleb128
	.uleb128 .Lcst_end12-.Lcst_begin12
.Lcst_begin12:
	.uleb128 .Lfunc_begin12-.Lfunc_begin12  # >> Call Site 1 <<
	.uleb128 .Ltmp240-.Lfunc_begin12        #   Call between .Lfunc_begin12 and .Ltmp240
	.byte	0                               #     has no landing pad
	.byte	0                               #   On action: cleanup
	.uleb128 .Ltmp240-.Lfunc_begin12        # >> Call Site 2 <<
	.uleb128 .Ltmp241-.Ltmp240              #   Call between .Ltmp240 and .Ltmp241
	.uleb128 .Ltmp242-.Lfunc_begin12        #     jumps to .Ltmp242
	.byte	0                               #   On action: cleanup
	.uleb128 .Ltmp243-.Lfunc_begin12        # >> Call Site 3 <<
	.uleb128 .Ltmp244-.Ltmp243              #   Call between .Ltmp243 and .Ltmp244
	.uleb128 .Ltmp245-.Lfunc_begin12        #     jumps to .Ltmp245
	.byte	0                               #   On action: cleanup
	.uleb128 .Ltmp244-.Lfunc_begin12        # >> Call Site 4 <<
	.uleb128 .Ltmp246-.Ltmp244              #   Call between .Ltmp244 and .Ltmp246
	.byte	0                               #     has no landing pad
	.byte	0                               #   On action: cleanup
	.uleb128 .Ltmp246-.Lfunc_begin12        # >> Call Site 5 <<
	.uleb128 .Ltmp247-.Ltmp246              #   Call between .Ltmp246 and .Ltmp247
	.uleb128 .Ltmp248-.Lfunc_begin12        #     jumps to .Ltmp248
	.byte	0                               #   On action: cleanup
	.uleb128 .Ltmp247-.Lfunc_begin12        # >> Call Site 6 <<
	.uleb128 .Ltmp264-.Ltmp247              #   Call between .Ltmp247 and .Ltmp264
	.byte	0                               #     has no landing pad
	.byte	0                               #   On action: cleanup
	.uleb128 .Ltmp264-.Lfunc_begin12        # >> Call Site 7 <<
	.uleb128 .Ltmp265-.Ltmp264              #   Call between .Ltmp264 and .Ltmp265
	.uleb128 .Ltmp268-.Lfunc_begin12        #     jumps to .Ltmp268
	.byte	0                               #   On action: cleanup
	.uleb128 .Ltmp265-.Lfunc_begin12        # >> Call Site 8 <<
	.uleb128 .Ltmp266-.Ltmp265              #   Call between .Ltmp265 and .Ltmp266
	.byte	0                               #     has no landing pad
	.byte	0                               #   On action: cleanup
	.uleb128 .Ltmp266-.Lfunc_begin12        # >> Call Site 9 <<
	.uleb128 .Ltmp267-.Ltmp266              #   Call between .Ltmp266 and .Ltmp267
	.uleb128 .Ltmp268-.Lfunc_begin12        #     jumps to .Ltmp268
	.byte	0                               #   On action: cleanup
	.uleb128 .Ltmp267-.Lfunc_begin12        # >> Call Site 10 <<
	.uleb128 .Ltmp249-.Ltmp267              #   Call between .Ltmp267 and .Ltmp249
	.byte	0                               #     has no landing pad
	.byte	0                               #   On action: cleanup
	.uleb128 .Ltmp249-.Lfunc_begin12        # >> Call Site 11 <<
	.uleb128 .Ltmp262-.Ltmp249              #   Call between .Ltmp249 and .Ltmp262
	.uleb128 .Ltmp263-.Lfunc_begin12        #     jumps to .Ltmp263
	.byte	0                               #   On action: cleanup
	.uleb128 .Ltmp262-.Lfunc_begin12        # >> Call Site 12 <<
	.uleb128 .Lfunc_end12-.Ltmp262          #   Call between .Ltmp262 and .Lfunc_end12
	.byte	0                               #     has no landing pad
	.byte	0                               #   On action: cleanup
.Lcst_end12:
	.p2align	2, 0x0
                                        # -- End function
	.text
	.globl	_Z28BENCHMARK_atanf_novec_float_RN9benchmark5StateE # -- Begin function _Z28BENCHMARK_atanf_novec_float_RN9benchmark5StateE
	.p2align	5
	.type	_Z28BENCHMARK_atanf_novec_float_RN9benchmark5StateE,@function
_Z28BENCHMARK_atanf_novec_float_RN9benchmark5StateE: # @_Z28BENCHMARK_atanf_novec_float_RN9benchmark5StateE
.Lfunc_begin13:
	.cfi_startproc
	.cfi_personality 155, DW.ref.__gxx_personality_v0
	.cfi_lsda 27, .Lexception13
# %bb.0:                                # %entry
	addi.d	$sp, $sp, -128
	.cfi_def_cfa_offset 128
	st.d	$ra, $sp, 120                   # 8-byte Folded Spill
	st.d	$fp, $sp, 112                   # 8-byte Folded Spill
	st.d	$s0, $sp, 104                   # 8-byte Folded Spill
	st.d	$s1, $sp, 96                    # 8-byte Folded Spill
	st.d	$s2, $sp, 88                    # 8-byte Folded Spill
	st.d	$s3, $sp, 80                    # 8-byte Folded Spill
	st.d	$s4, $sp, 72                    # 8-byte Folded Spill
	st.d	$s5, $sp, 64                    # 8-byte Folded Spill
	st.d	$s6, $sp, 56                    # 8-byte Folded Spill
	st.d	$s7, $sp, 48                    # 8-byte Folded Spill
	st.d	$s8, $sp, 40                    # 8-byte Folded Spill
	fst.d	$fs0, $sp, 32                   # 8-byte Folded Spill
	.cfi_offset 1, -8
	.cfi_offset 22, -16
	.cfi_offset 23, -24
	.cfi_offset 24, -32
	.cfi_offset 25, -40
	.cfi_offset 26, -48
	.cfi_offset 27, -56
	.cfi_offset 28, -64
	.cfi_offset 29, -72
	.cfi_offset 30, -80
	.cfi_offset 31, -88
	.cfi_offset 56, -96
	move	$fp, $a0
	lu12i.w	$a0, 9
	ori	$s2, $a0, 3136
	move	$a0, $s2
	pcaddu18i	$ra, %call36(_Znam)
	jirl	$ra, $ra, 0
	move	$s0, $a0
	st.d	$a0, $sp, 24
.Ltmp269:                               # EH_LABEL
	move	$a0, $s2
	pcaddu18i	$ra, %call36(_Znam)
	jirl	$ra, $ra, 0
.Ltmp270:                               # EH_LABEL
# %bb.1:                                # %invoke.cont.i
	move	$s1, $a0
	st.d	$a0, $sp, 16
.Ltmp272:                               # EH_LABEL
	move	$a0, $s2
	pcaddu18i	$ra, %call36(_Znam)
	jirl	$ra, $ra, 0
.Ltmp273:                               # EH_LABEL
# %bb.2:                                # %invoke.cont3.i
	move	$a2, $a0
	st.d	$a0, $sp, 8
	move	$a0, $s0
	move	$a1, $s1
	pcaddu18i	$ra, %call36(_ZL9init_dataIfEvPT_S1_S1_)
	jirl	$ra, $ra, 0
	ld.w	$s1, $fp, 28
	ld.d	$s0, $fp, 16
.Ltmp275:                               # EH_LABEL
	move	$a0, $fp
	pcaddu18i	$ra, %call36(_ZN9benchmark5State16StartKeepRunningEv)
	jirl	$ra, $ra, 0
.Ltmp276:                               # EH_LABEL
# %bb.3:                                # %for.cond.i.preheader
	bnez	$s1, .LBB13_9
# %bb.4:                                # %for.cond.i.preheader
	beqz	$s0, .LBB13_9
# %bb.5:
	lu12i.w	$a0, 2
	ori	$s1, $a0, 1808
	addi.d	$s2, $sp, 24
	addi.d	$s3, $sp, 16
	addi.d	$s4, $sp, 8
	.p2align	4, , 16
.LBB13_6:                               # %for.body.i
                                        # =>This Loop Header: Depth=1
                                        #     Child Loop BB13_7 Depth 2
	ld.d	$s5, $sp, 24
	ld.d	$s6, $sp, 16
	ld.d	$s7, $sp, 8
	move	$s8, $s1
	.p2align	4, , 16
.LBB13_7:                               # %for.body.i13
                                        #   Parent Loop BB13_6 Depth=1
                                        # =>  This Inner Loop Header: Depth=2
	fld.s	$fa0, $s5, 0
	pcaddu18i	$ra, %call36(atanf)
	jirl	$ra, $ra, 0
	fld.s	$fa1, $s6, 0
	fmov.s	$fs0, $fa0
	fmov.s	$fa0, $fa1
	pcaddu18i	$ra, %call36(atanf)
	jirl	$ra, $ra, 0
	fadd.s	$fa0, $fs0, $fa0
	fst.s	$fa0, $s7, 0
	addi.d	$s8, $s8, -1
	addi.d	$s7, $s7, 4
	addi.d	$s6, $s6, 4
	addi.d	$s5, $s5, 4
	bnez	$s8, .LBB13_7
# %bb.8:                                # %invoke.cont23.i
                                        #   in Loop: Header=BB13_6 Depth=1
	#APP
	#NO_APP
	#APP
	#NO_APP
	#APP
	#NO_APP
	addi.d	$s0, $s0, -1
	bnez	$s0, .LBB13_6
.LBB13_9:                               # %if.end.i
.Ltmp277:                               # EH_LABEL
	move	$a0, $fp
	pcaddu18i	$ra, %call36(_ZN9benchmark5State17FinishKeepRunningEv)
	jirl	$ra, $ra, 0
.Ltmp278:                               # EH_LABEL
# %bb.10:                               # %_ZL18benchmark_fn_novecIfEvRN9benchmark5StateEPFT_S3_E.exit
	ld.d	$a0, $sp, 8
	beqz	$a0, .LBB13_12
# %bb.11:                               # %_ZNKSt14default_deleteIA_fEclIfEENSt9enable_ifIXsr14is_convertibleIPA_T_PS0_EE5valueEvE4typeEPS4_.exit.i26
	pcaddu18i	$ra, %call36(_ZdaPv)
	jirl	$ra, $ra, 0
.LBB13_12:                              # %_ZNSt10unique_ptrIA_fSt14default_deleteIS0_EED2Ev.exit28
	ld.d	$a0, $sp, 16
	beqz	$a0, .LBB13_14
# %bb.13:                               # %_ZNKSt14default_deleteIA_fEclIfEENSt9enable_ifIXsr14is_convertibleIPA_T_PS0_EE5valueEvE4typeEPS4_.exit.i30
	pcaddu18i	$ra, %call36(_ZdaPv)
	jirl	$ra, $ra, 0
.LBB13_14:                              # %_ZNSt10unique_ptrIA_fSt14default_deleteIS0_EED2Ev.exit32
	ld.d	$a0, $sp, 24
	beqz	$a0, .LBB13_16
# %bb.15:                               # %_ZNKSt14default_deleteIA_fEclIfEENSt9enable_ifIXsr14is_convertibleIPA_T_PS0_EE5valueEvE4typeEPS4_.exit.i34
	pcaddu18i	$ra, %call36(_ZdaPv)
	jirl	$ra, $ra, 0
.LBB13_16:                              # %_ZNSt10unique_ptrIA_fSt14default_deleteIS0_EED2Ev.exit36
	fld.d	$fs0, $sp, 32                   # 8-byte Folded Reload
	ld.d	$s8, $sp, 40                    # 8-byte Folded Reload
	ld.d	$s7, $sp, 48                    # 8-byte Folded Reload
	ld.d	$s6, $sp, 56                    # 8-byte Folded Reload
	ld.d	$s5, $sp, 64                    # 8-byte Folded Reload
	ld.d	$s4, $sp, 72                    # 8-byte Folded Reload
	ld.d	$s3, $sp, 80                    # 8-byte Folded Reload
	ld.d	$s2, $sp, 88                    # 8-byte Folded Reload
	ld.d	$s1, $sp, 96                    # 8-byte Folded Reload
	ld.d	$s0, $sp, 104                   # 8-byte Folded Reload
	ld.d	$fp, $sp, 112                   # 8-byte Folded Reload
	ld.d	$ra, $sp, 120                   # 8-byte Folded Reload
	addi.d	$sp, $sp, 128
	ret
.LBB13_17:                              # %ehcleanup28.i.thread
.Ltmp274:                               # EH_LABEL
	move	$fp, $a0
	b	.LBB13_24
.LBB13_18:                              # %ehcleanup30.i.thread
.Ltmp271:                               # EH_LABEL
	move	$fp, $a0
	move	$a0, $s0
	pcaddu18i	$ra, %call36(_ZdaPv)
	jirl	$ra, $ra, 0
	move	$a0, $fp
	pcaddu18i	$ra, %call36(_Unwind_Resume)
	jirl	$ra, $ra, 0
.LBB13_19:                              # %lpad13.i
.Ltmp279:                               # EH_LABEL
	ld.d	$a1, $sp, 8
	move	$fp, $a0
	bnez	$a1, .LBB13_23
# %bb.20:                               # %ehcleanup28.i
	ld.d	$s1, $sp, 16
	bnez	$s1, .LBB13_24
.LBB13_21:                              # %ehcleanup30.i
	ld.d	$s0, $sp, 24
	bnez	$s0, .LBB13_25
.LBB13_22:                              # %_ZNSt10unique_ptrIA_fSt14default_deleteIS0_EED2Ev.exit24
	move	$a0, $fp
	pcaddu18i	$ra, %call36(_Unwind_Resume)
	jirl	$ra, $ra, 0
.LBB13_23:                              # %_ZNKSt14default_deleteIA_fEclIfEENSt9enable_ifIXsr14is_convertibleIPA_T_PS0_EE5valueEvE4typeEPS4_.exit.i
	move	$a0, $a1
	pcaddu18i	$ra, %call36(_ZdaPv)
	jirl	$ra, $ra, 0
	ld.d	$s1, $sp, 16
	beqz	$s1, .LBB13_21
.LBB13_24:                              # %_ZNKSt14default_deleteIA_fEclIfEENSt9enable_ifIXsr14is_convertibleIPA_T_PS0_EE5valueEvE4typeEPS4_.exit.i18
	move	$a0, $s1
	pcaddu18i	$ra, %call36(_ZdaPv)
	jirl	$ra, $ra, 0
	ld.d	$s0, $sp, 24
	beqz	$s0, .LBB13_22
.LBB13_25:                              # %_ZNKSt14default_deleteIA_fEclIfEENSt9enable_ifIXsr14is_convertibleIPA_T_PS0_EE5valueEvE4typeEPS4_.exit.i22
	move	$a0, $s0
	pcaddu18i	$ra, %call36(_ZdaPv)
	jirl	$ra, $ra, 0
	move	$a0, $fp
	pcaddu18i	$ra, %call36(_Unwind_Resume)
	jirl	$ra, $ra, 0
.Lfunc_end13:
	.size	_Z28BENCHMARK_atanf_novec_float_RN9benchmark5StateE, .Lfunc_end13-_Z28BENCHMARK_atanf_novec_float_RN9benchmark5StateE
	.cfi_endproc
	.section	.gcc_except_table,"a",@progbits
	.p2align	2, 0x0
GCC_except_table13:
.Lexception13:
	.byte	255                             # @LPStart Encoding = omit
	.byte	255                             # @TType Encoding = omit
	.byte	1                               # Call site Encoding = uleb128
	.uleb128 .Lcst_end13-.Lcst_begin13
.Lcst_begin13:
	.uleb128 .Lfunc_begin13-.Lfunc_begin13  # >> Call Site 1 <<
	.uleb128 .Ltmp269-.Lfunc_begin13        #   Call between .Lfunc_begin13 and .Ltmp269
	.byte	0                               #     has no landing pad
	.byte	0                               #   On action: cleanup
	.uleb128 .Ltmp269-.Lfunc_begin13        # >> Call Site 2 <<
	.uleb128 .Ltmp270-.Ltmp269              #   Call between .Ltmp269 and .Ltmp270
	.uleb128 .Ltmp271-.Lfunc_begin13        #     jumps to .Ltmp271
	.byte	0                               #   On action: cleanup
	.uleb128 .Ltmp272-.Lfunc_begin13        # >> Call Site 3 <<
	.uleb128 .Ltmp273-.Ltmp272              #   Call between .Ltmp272 and .Ltmp273
	.uleb128 .Ltmp274-.Lfunc_begin13        #     jumps to .Ltmp274
	.byte	0                               #   On action: cleanup
	.uleb128 .Ltmp273-.Lfunc_begin13        # >> Call Site 4 <<
	.uleb128 .Ltmp275-.Ltmp273              #   Call between .Ltmp273 and .Ltmp275
	.byte	0                               #     has no landing pad
	.byte	0                               #   On action: cleanup
	.uleb128 .Ltmp275-.Lfunc_begin13        # >> Call Site 5 <<
	.uleb128 .Ltmp276-.Ltmp275              #   Call between .Ltmp275 and .Ltmp276
	.uleb128 .Ltmp279-.Lfunc_begin13        #     jumps to .Ltmp279
	.byte	0                               #   On action: cleanup
	.uleb128 .Ltmp276-.Lfunc_begin13        # >> Call Site 6 <<
	.uleb128 .Ltmp277-.Ltmp276              #   Call between .Ltmp276 and .Ltmp277
	.byte	0                               #     has no landing pad
	.byte	0                               #   On action: cleanup
	.uleb128 .Ltmp277-.Lfunc_begin13        # >> Call Site 7 <<
	.uleb128 .Ltmp278-.Ltmp277              #   Call between .Ltmp277 and .Ltmp278
	.uleb128 .Ltmp279-.Lfunc_begin13        #     jumps to .Ltmp279
	.byte	0                               #   On action: cleanup
	.uleb128 .Ltmp278-.Lfunc_begin13        # >> Call Site 8 <<
	.uleb128 .Lfunc_end13-.Ltmp278          #   Call between .Ltmp278 and .Lfunc_end13
	.byte	0                               #     has no landing pad
	.byte	0                               #   On action: cleanup
.Lcst_end13:
	.p2align	2, 0x0
                                        # -- End function
	.text
	.globl	_Z30BENCHMARK_atan_autovec_double_RN9benchmark5StateE # -- Begin function _Z30BENCHMARK_atan_autovec_double_RN9benchmark5StateE
	.p2align	5
	.type	_Z30BENCHMARK_atan_autovec_double_RN9benchmark5StateE,@function
_Z30BENCHMARK_atan_autovec_double_RN9benchmark5StateE: # @_Z30BENCHMARK_atan_autovec_double_RN9benchmark5StateE
.Lfunc_begin14:
	.cfi_startproc
	.cfi_personality 155, DW.ref.__gxx_personality_v0
	.cfi_lsda 27, .Lexception14
# %bb.0:                                # %entry
	addi.d	$sp, $sp, -128
	.cfi_def_cfa_offset 128
	st.d	$ra, $sp, 120                   # 8-byte Folded Spill
	st.d	$fp, $sp, 112                   # 8-byte Folded Spill
	st.d	$s0, $sp, 104                   # 8-byte Folded Spill
	st.d	$s1, $sp, 96                    # 8-byte Folded Spill
	st.d	$s2, $sp, 88                    # 8-byte Folded Spill
	st.d	$s3, $sp, 80                    # 8-byte Folded Spill
	st.d	$s4, $sp, 72                    # 8-byte Folded Spill
	st.d	$s5, $sp, 64                    # 8-byte Folded Spill
	st.d	$s6, $sp, 56                    # 8-byte Folded Spill
	st.d	$s7, $sp, 48                    # 8-byte Folded Spill
	st.d	$s8, $sp, 40                    # 8-byte Folded Spill
	fst.d	$fs0, $sp, 32                   # 8-byte Folded Spill
	.cfi_offset 1, -8
	.cfi_offset 22, -16
	.cfi_offset 23, -24
	.cfi_offset 24, -32
	.cfi_offset 25, -40
	.cfi_offset 26, -48
	.cfi_offset 27, -56
	.cfi_offset 28, -64
	.cfi_offset 29, -72
	.cfi_offset 30, -80
	.cfi_offset 31, -88
	.cfi_offset 56, -96
	move	$s0, $a0
	lu12i.w	$a0, 19
	ori	$s4, $a0, 2176
	move	$a0, $s4
	pcaddu18i	$ra, %call36(_Znam)
	jirl	$ra, $ra, 0
	move	$s2, $a0
	st.d	$a0, $sp, 24
.Ltmp280:                               # EH_LABEL
	move	$a0, $s4
	pcaddu18i	$ra, %call36(_Znam)
	jirl	$ra, $ra, 0
.Ltmp281:                               # EH_LABEL
# %bb.1:                                # %invoke.cont.i
	move	$s3, $a0
	st.d	$a0, $sp, 16
.Ltmp283:                               # EH_LABEL
	move	$a0, $s4
	pcaddu18i	$ra, %call36(_Znam)
	jirl	$ra, $ra, 0
.Ltmp284:                               # EH_LABEL
# %bb.2:                                # %invoke.cont3.i
	move	$fp, $a0
	st.d	$a0, $sp, 8
	move	$a0, $s2
	move	$a1, $s3
	move	$a2, $fp
	pcaddu18i	$ra, %call36(_ZL9init_dataIdEvPT_S1_S1_)
	jirl	$ra, $ra, 0
.Ltmp286:                               # EH_LABEL
	move	$a0, $s4
	pcaddu18i	$ra, %call36(_Znam)
	jirl	$ra, $ra, 0
.Ltmp287:                               # EH_LABEL
# %bb.3:                                # %vector.body.preheader
	move	$s1, $a0
	move	$a0, $zero
	.p2align	4, , 16
.LBB14_4:                               # %vector.body
                                        # =>This Inner Loop Header: Depth=1
	vldx	$vr0, $fp, $a0
	add.d	$a1, $fp, $a0
	vld	$vr1, $a1, 16
	add.d	$a1, $s1, $a0
	vstx	$vr0, $s1, $a0
	addi.d	$a0, $a0, 32
	vst	$vr1, $a1, 16
	bne	$a0, $s4, .LBB14_4
# %bb.5:                                # %for.body.i14.preheader
	move	$s5, $zero
	.p2align	4, , 16
.LBB14_6:                               # %for.body.i14
                                        # =>This Inner Loop Header: Depth=1
	fldx.d	$fa0, $s2, $s5
	pcaddu18i	$ra, %call36(atan)
	jirl	$ra, $ra, 0
	fldx.d	$fa1, $s3, $s5
	fmov.d	$fs0, $fa0
	fmov.d	$fa0, $fa1
	pcaddu18i	$ra, %call36(atan)
	jirl	$ra, $ra, 0
	fadd.d	$fa0, $fs0, $fa0
	fstx.d	$fa0, $s1, $s5
	addi.d	$s5, $s5, 8
	bne	$s5, $s4, .LBB14_6
# %bb.7:                                # %for.body.i22.preheader
	move	$s5, $zero
	.p2align	4, , 16
.LBB14_8:                               # %for.body.i22
                                        # =>This Inner Loop Header: Depth=1
	fldx.d	$fa0, $s2, $s5
	pcaddu18i	$ra, %call36(atan)
	jirl	$ra, $ra, 0
	fldx.d	$fa1, $s3, $s5
	fmov.d	$fs0, $fa0
	fmov.d	$fa0, $fa1
	pcaddu18i	$ra, %call36(atan)
	jirl	$ra, $ra, 0
	fadd.d	$fa0, $fs0, $fa0
	fstx.d	$fa0, $fp, $s5
	addi.d	$s5, $s5, 8
	bne	$s5, $s4, .LBB14_8
# %bb.9:                                # %for.body41.i.preheader
	move	$s2, $zero
	movgr2fr.d	$fa0, $zero
	lu52i.d	$a0, $zero, 1
	movgr2fr.d	$fa1, $a0
	lu12i.w	$a0, 2
	ori	$s3, $a0, 1808
	move	$s4, $s1
	move	$s5, $fp
	b	.LBB14_13
.LBB14_10:                              #   in Loop: Header=BB14_13 Depth=1
	move	$a0, $zero
	.p2align	4, , 16
.LBB14_11:                              # %_ZSt10fpclassifyd.exit49
                                        #   in Loop: Header=BB14_13 Depth=1
	bne	$a1, $a0, .LBB14_38
.LBB14_12:                              # %for.inc81.i
                                        #   in Loop: Header=BB14_13 Depth=1
	addi.d	$s2, $s2, 1
	addi.d	$s5, $s5, 8
	addi.d	$s4, $s4, 8
	beq	$s2, $s3, .LBB14_23
.LBB14_13:                              # %for.body41.i
                                        # =>This Inner Loop Header: Depth=1
	fld.d	$fa3, $s5, 0
	fld.d	$fa2, $s4, 0
	fcmp.ceq.d	$fcc0, $fa3, $fa2
	bcnez	$fcc0, .LBB14_12
# %bb.14:                               # %land.lhs.true.i
                                        #   in Loop: Header=BB14_13 Depth=1
	ori	$a0, $zero, 2
	fcmp.ceq.d	$fcc0, $fa3, $fa0
	ori	$a1, $zero, 2
	bcnez	$fcc0, .LBB14_18
# %bb.15:                               # %fpclassify_not_zero.i
                                        #   in Loop: Header=BB14_13 Depth=1
	fcmp.cun.d	$fcc0, $fa3, $fa3
	bcnez	$fcc0, .LBB14_22
# %bb.16:                               # %fpclassify_not_nan.i
                                        #   in Loop: Header=BB14_13 Depth=1
	fclass.d	$fa4, $fa3
	movfr2gr.d	$a1, $fa4
	andi	$a1, $a1, 68
	sltu	$a1, $zero, $a1
	andi	$a2, $a1, 1
	ori	$a1, $zero, 1
	bnez	$a2, .LBB14_18
# %bb.17:                               # %fpclassify_not_inf.i
                                        #   in Loop: Header=BB14_13 Depth=1
	fabs.d	$fa3, $fa3
	fcmp.cule.d	$fcc0, $fa1, $fa3
	movcf2gr	$a1, $fcc0
	addi.d	$a1, $a1, 3
	.p2align	4, , 16
.LBB14_18:                              # %_ZSt10fpclassifyd.exit
                                        #   in Loop: Header=BB14_13 Depth=1
	fcmp.ceq.d	$fcc0, $fa2, $fa0
	bcnez	$fcc0, .LBB14_11
.LBB14_19:                              # %fpclassify_not_zero.i42
                                        #   in Loop: Header=BB14_13 Depth=1
	fcmp.cun.d	$fcc0, $fa2, $fa2
	bcnez	$fcc0, .LBB14_10
# %bb.20:                               # %fpclassify_not_nan.i44
                                        #   in Loop: Header=BB14_13 Depth=1
	fclass.d	$fa3, $fa2
	movfr2gr.d	$a0, $fa3
	andi	$a0, $a0, 68
	sltu	$a0, $zero, $a0
	andi	$a2, $a0, 1
	ori	$a0, $zero, 1
	bnez	$a2, .LBB14_11
# %bb.21:                               # %fpclassify_not_inf.i46
                                        #   in Loop: Header=BB14_13 Depth=1
	fabs.d	$fa2, $fa2
	fcmp.cule.d	$fcc0, $fa1, $fa2
	movcf2gr	$a0, $fcc0
	addi.d	$a0, $a0, 3
	b	.LBB14_11
.LBB14_22:                              #   in Loop: Header=BB14_13 Depth=1
	move	$a1, $zero
	fcmp.ceq.d	$fcc0, $fa2, $fa0
	bcnez	$fcc0, .LBB14_11
	b	.LBB14_19
.LBB14_23:                              # %_ZNSt10unique_ptrIA_dSt14default_deleteIS0_EED2Ev.exit
	move	$a0, $s1
	pcaddu18i	$ra, %call36(_ZdaPv)
	jirl	$ra, $ra, 0
	ld.w	$s1, $s0, 28
	ld.d	$fp, $s0, 16
.Ltmp304:                               # EH_LABEL
	move	$a0, $s0
	pcaddu18i	$ra, %call36(_ZN9benchmark5State16StartKeepRunningEv)
	jirl	$ra, $ra, 0
.Ltmp305:                               # EH_LABEL
# %bb.24:                               # %for.cond91.i.preheader
	bnez	$s1, .LBB14_30
# %bb.25:                               # %for.cond91.i.preheader
	beqz	$fp, .LBB14_30
# %bb.26:
	addi.d	$s1, $sp, 24
	addi.d	$s2, $sp, 16
	addi.d	$s4, $sp, 8
	.p2align	4, , 16
.LBB14_27:                              # %for.body95.i
                                        # =>This Loop Header: Depth=1
                                        #     Child Loop BB14_28 Depth 2
	ld.d	$s5, $sp, 24
	ld.d	$s6, $sp, 16
	ld.d	$s7, $sp, 8
	move	$s8, $s3
	.p2align	4, , 16
.LBB14_28:                              # %for.body.i80
                                        #   Parent Loop BB14_27 Depth=1
                                        # =>  This Inner Loop Header: Depth=2
	fld.d	$fa0, $s5, 0
	pcaddu18i	$ra, %call36(atan)
	jirl	$ra, $ra, 0
	fld.d	$fa1, $s6, 0
	fmov.d	$fs0, $fa0
	fmov.d	$fa0, $fa1
	pcaddu18i	$ra, %call36(atan)
	jirl	$ra, $ra, 0
	fadd.d	$fa0, $fs0, $fa0
	fst.d	$fa0, $s7, 0
	addi.d	$s8, $s8, -1
	addi.d	$s7, $s7, 8
	addi.d	$s6, $s6, 8
	addi.d	$s5, $s5, 8
	bnez	$s8, .LBB14_28
# %bb.29:                               # %invoke.cont104.i
                                        #   in Loop: Header=BB14_27 Depth=1
	#APP
	#NO_APP
	#APP
	#NO_APP
	#APP
	#NO_APP
	addi.d	$fp, $fp, -1
	#MEMBARRIER
	bnez	$fp, .LBB14_27
.LBB14_30:                              # %if.end.i
.Ltmp306:                               # EH_LABEL
	move	$a0, $s0
	pcaddu18i	$ra, %call36(_ZN9benchmark5State17FinishKeepRunningEv)
	jirl	$ra, $ra, 0
.Ltmp307:                               # EH_LABEL
# %bb.31:                               # %_ZL20benchmark_fn_autovecIdEvRN9benchmark5StateEPFT_S3_E.exit
	ld.d	$a0, $sp, 8
	beqz	$a0, .LBB14_33
# %bb.32:                               # %_ZNKSt14default_deleteIA_dEclIdEENSt9enable_ifIXsr14is_convertibleIPA_T_PS0_EE5valueEvE4typeEPS4_.exit.i105
	pcaddu18i	$ra, %call36(_ZdaPv)
	jirl	$ra, $ra, 0
.LBB14_33:                              # %_ZNSt10unique_ptrIA_dSt14default_deleteIS0_EED2Ev.exit107
	ld.d	$a0, $sp, 16
	beqz	$a0, .LBB14_35
# %bb.34:                               # %_ZNKSt14default_deleteIA_dEclIdEENSt9enable_ifIXsr14is_convertibleIPA_T_PS0_EE5valueEvE4typeEPS4_.exit.i109
	pcaddu18i	$ra, %call36(_ZdaPv)
	jirl	$ra, $ra, 0
.LBB14_35:                              # %_ZNSt10unique_ptrIA_dSt14default_deleteIS0_EED2Ev.exit111
	ld.d	$a0, $sp, 24
	beqz	$a0, .LBB14_37
# %bb.36:                               # %_ZNKSt14default_deleteIA_dEclIdEENSt9enable_ifIXsr14is_convertibleIPA_T_PS0_EE5valueEvE4typeEPS4_.exit.i113
	pcaddu18i	$ra, %call36(_ZdaPv)
	jirl	$ra, $ra, 0
.LBB14_37:                              # %_ZNSt10unique_ptrIA_dSt14default_deleteIS0_EED2Ev.exit115
	fld.d	$fs0, $sp, 32                   # 8-byte Folded Reload
	ld.d	$s8, $sp, 40                    # 8-byte Folded Reload
	ld.d	$s7, $sp, 48                    # 8-byte Folded Reload
	ld.d	$s6, $sp, 56                    # 8-byte Folded Reload
	ld.d	$s5, $sp, 64                    # 8-byte Folded Reload
	ld.d	$s4, $sp, 72                    # 8-byte Folded Reload
	ld.d	$s3, $sp, 80                    # 8-byte Folded Reload
	ld.d	$s2, $sp, 88                    # 8-byte Folded Reload
	ld.d	$s1, $sp, 96                    # 8-byte Folded Reload
	ld.d	$s0, $sp, 104                   # 8-byte Folded Reload
	ld.d	$fp, $sp, 112                   # 8-byte Folded Reload
	ld.d	$ra, $sp, 120                   # 8-byte Folded Reload
	addi.d	$sp, $sp, 128
	ret
.LBB14_38:                              # %if.then.i
.Ltmp289:                               # EH_LABEL
	pcalau12i	$a0, %got_pc_hi20(_ZSt4cerr)
	ld.d	$a0, $a0, %got_pc_lo12(_ZSt4cerr)
	pcalau12i	$a1, %pc_hi20(.L.str.73)
	addi.d	$a1, $a1, %pc_lo12(.L.str.73)
	ori	$a2, $zero, 49
	pcaddu18i	$ra, %call36(_ZSt16__ostream_insertIcSt11char_traitsIcEERSt13basic_ostreamIT_T0_ES6_PKS3_l)
	jirl	$ra, $ra, 0
.Ltmp290:                               # EH_LABEL
# %bb.39:                               # %invoke.cont61.i
	fld.d	$fa0, $s5, 0
.Ltmp291:                               # EH_LABEL
	pcalau12i	$a0, %got_pc_hi20(_ZSt4cerr)
	ld.d	$a0, $a0, %got_pc_lo12(_ZSt4cerr)
	pcaddu18i	$ra, %call36(_ZNSo9_M_insertIdEERSoT_)
	jirl	$ra, $ra, 0
.Ltmp292:                               # EH_LABEL
# %bb.40:                               # %invoke.cont66.i
.Ltmp293:                               # EH_LABEL
	move	$s0, $a0
	pcalau12i	$a0, %pc_hi20(.L.str.74)
	addi.d	$a1, $a0, %pc_lo12(.L.str.74)
	ori	$a2, $zero, 4
	move	$a0, $s0
	pcaddu18i	$ra, %call36(_ZSt16__ostream_insertIcSt11char_traitsIcEERSt13basic_ostreamIT_T0_ES6_PKS3_l)
	jirl	$ra, $ra, 0
.Ltmp294:                               # EH_LABEL
# %bb.41:                               # %invoke.cont68.i
	fld.d	$fa0, $s4, 0
.Ltmp295:                               # EH_LABEL
	move	$a0, $s0
	pcaddu18i	$ra, %call36(_ZNSo9_M_insertIdEERSoT_)
	jirl	$ra, $ra, 0
.Ltmp296:                               # EH_LABEL
# %bb.42:                               # %invoke.cont73.i
.Ltmp297:                               # EH_LABEL
	move	$s0, $a0
	pcalau12i	$a0, %pc_hi20(.L.str.75)
	addi.d	$a1, $a0, %pc_lo12(.L.str.75)
	ori	$a2, $zero, 10
	move	$a0, $s0
	pcaddu18i	$ra, %call36(_ZSt16__ostream_insertIcSt11char_traitsIcEERSt13basic_ostreamIT_T0_ES6_PKS3_l)
	jirl	$ra, $ra, 0
.Ltmp298:                               # EH_LABEL
# %bb.43:                               # %invoke.cont75.i
.Ltmp299:                               # EH_LABEL
	move	$a0, $s0
	move	$a1, $s2
	pcaddu18i	$ra, %call36(_ZNSo9_M_insertImEERSoT_)
	jirl	$ra, $ra, 0
.Ltmp300:                               # EH_LABEL
# %bb.44:                               # %invoke.cont77.i
.Ltmp301:                               # EH_LABEL
	pcalau12i	$a1, %pc_hi20(.L.str.76)
	addi.d	$a1, $a1, %pc_lo12(.L.str.76)
	pcaddu18i	$ra, %call36(_ZStlsISt11char_traitsIcEERSt13basic_ostreamIcT_ES5_PKc)
	jirl	$ra, $ra, 0
.Ltmp302:                               # EH_LABEL
# %bb.45:                               # %invoke.cont79.i
	ori	$a0, $zero, 1
	pcaddu18i	$ra, %call36(exit)
	jirl	$ra, $ra, 0
.LBB14_46:                              # %lpad13.i
.Ltmp288:                               # EH_LABEL
	move	$s0, $a0
	b	.LBB14_54
.LBB14_47:                              # %ehcleanup116.i.thread
.Ltmp285:                               # EH_LABEL
	move	$s0, $a0
	b	.LBB14_55
.LBB14_48:                              # %ehcleanup118.i.thread
.Ltmp282:                               # EH_LABEL
	move	$s0, $a0
	move	$a0, $s2
	pcaddu18i	$ra, %call36(_ZdaPv)
	jirl	$ra, $ra, 0
	move	$a0, $s0
	pcaddu18i	$ra, %call36(_Unwind_Resume)
	jirl	$ra, $ra, 0
.LBB14_49:                              # %ehcleanup115.i
.Ltmp308:                               # EH_LABEL
	ld.d	$fp, $sp, 8
	move	$s0, $a0
	bnez	$fp, .LBB14_54
# %bb.50:                               # %ehcleanup116.i
	ld.d	$s3, $sp, 16
	bnez	$s3, .LBB14_55
.LBB14_51:                              # %ehcleanup118.i
	ld.d	$s2, $sp, 24
	bnez	$s2, .LBB14_56
.LBB14_52:                              # %_ZNSt10unique_ptrIA_dSt14default_deleteIS0_EED2Ev.exit103
	move	$a0, $s0
	pcaddu18i	$ra, %call36(_Unwind_Resume)
	jirl	$ra, $ra, 0
.LBB14_53:                              # %lpad43.i
.Ltmp303:                               # EH_LABEL
	move	$s0, $a0
	move	$a0, $s1
	pcaddu18i	$ra, %call36(_ZdaPv)
	jirl	$ra, $ra, 0
.LBB14_54:                              # %_ZNKSt14default_deleteIA_dEclIdEENSt9enable_ifIXsr14is_convertibleIPA_T_PS0_EE5valueEvE4typeEPS4_.exit.i93
	move	$a0, $fp
	pcaddu18i	$ra, %call36(_ZdaPv)
	jirl	$ra, $ra, 0
	ld.d	$s3, $sp, 16
	beqz	$s3, .LBB14_51
.LBB14_55:                              # %_ZNKSt14default_deleteIA_dEclIdEENSt9enable_ifIXsr14is_convertibleIPA_T_PS0_EE5valueEvE4typeEPS4_.exit.i97
	move	$a0, $s3
	pcaddu18i	$ra, %call36(_ZdaPv)
	jirl	$ra, $ra, 0
	ld.d	$s2, $sp, 24
	beqz	$s2, .LBB14_52
.LBB14_56:                              # %_ZNKSt14default_deleteIA_dEclIdEENSt9enable_ifIXsr14is_convertibleIPA_T_PS0_EE5valueEvE4typeEPS4_.exit.i101
	move	$a0, $s2
	pcaddu18i	$ra, %call36(_ZdaPv)
	jirl	$ra, $ra, 0
	move	$a0, $s0
	pcaddu18i	$ra, %call36(_Unwind_Resume)
	jirl	$ra, $ra, 0
.Lfunc_end14:
	.size	_Z30BENCHMARK_atan_autovec_double_RN9benchmark5StateE, .Lfunc_end14-_Z30BENCHMARK_atan_autovec_double_RN9benchmark5StateE
	.cfi_endproc
	.section	.gcc_except_table,"a",@progbits
	.p2align	2, 0x0
GCC_except_table14:
.Lexception14:
	.byte	255                             # @LPStart Encoding = omit
	.byte	255                             # @TType Encoding = omit
	.byte	1                               # Call site Encoding = uleb128
	.uleb128 .Lcst_end14-.Lcst_begin14
.Lcst_begin14:
	.uleb128 .Lfunc_begin14-.Lfunc_begin14  # >> Call Site 1 <<
	.uleb128 .Ltmp280-.Lfunc_begin14        #   Call between .Lfunc_begin14 and .Ltmp280
	.byte	0                               #     has no landing pad
	.byte	0                               #   On action: cleanup
	.uleb128 .Ltmp280-.Lfunc_begin14        # >> Call Site 2 <<
	.uleb128 .Ltmp281-.Ltmp280              #   Call between .Ltmp280 and .Ltmp281
	.uleb128 .Ltmp282-.Lfunc_begin14        #     jumps to .Ltmp282
	.byte	0                               #   On action: cleanup
	.uleb128 .Ltmp283-.Lfunc_begin14        # >> Call Site 3 <<
	.uleb128 .Ltmp284-.Ltmp283              #   Call between .Ltmp283 and .Ltmp284
	.uleb128 .Ltmp285-.Lfunc_begin14        #     jumps to .Ltmp285
	.byte	0                               #   On action: cleanup
	.uleb128 .Ltmp284-.Lfunc_begin14        # >> Call Site 4 <<
	.uleb128 .Ltmp286-.Ltmp284              #   Call between .Ltmp284 and .Ltmp286
	.byte	0                               #     has no landing pad
	.byte	0                               #   On action: cleanup
	.uleb128 .Ltmp286-.Lfunc_begin14        # >> Call Site 5 <<
	.uleb128 .Ltmp287-.Ltmp286              #   Call between .Ltmp286 and .Ltmp287
	.uleb128 .Ltmp288-.Lfunc_begin14        #     jumps to .Ltmp288
	.byte	0                               #   On action: cleanup
	.uleb128 .Ltmp287-.Lfunc_begin14        # >> Call Site 6 <<
	.uleb128 .Ltmp304-.Ltmp287              #   Call between .Ltmp287 and .Ltmp304
	.byte	0                               #     has no landing pad
	.byte	0                               #   On action: cleanup
	.uleb128 .Ltmp304-.Lfunc_begin14        # >> Call Site 7 <<
	.uleb128 .Ltmp305-.Ltmp304              #   Call between .Ltmp304 and .Ltmp305
	.uleb128 .Ltmp308-.Lfunc_begin14        #     jumps to .Ltmp308
	.byte	0                               #   On action: cleanup
	.uleb128 .Ltmp305-.Lfunc_begin14        # >> Call Site 8 <<
	.uleb128 .Ltmp306-.Ltmp305              #   Call between .Ltmp305 and .Ltmp306
	.byte	0                               #     has no landing pad
	.byte	0                               #   On action: cleanup
	.uleb128 .Ltmp306-.Lfunc_begin14        # >> Call Site 9 <<
	.uleb128 .Ltmp307-.Ltmp306              #   Call between .Ltmp306 and .Ltmp307
	.uleb128 .Ltmp308-.Lfunc_begin14        #     jumps to .Ltmp308
	.byte	0                               #   On action: cleanup
	.uleb128 .Ltmp307-.Lfunc_begin14        # >> Call Site 10 <<
	.uleb128 .Ltmp289-.Ltmp307              #   Call between .Ltmp307 and .Ltmp289
	.byte	0                               #     has no landing pad
	.byte	0                               #   On action: cleanup
	.uleb128 .Ltmp289-.Lfunc_begin14        # >> Call Site 11 <<
	.uleb128 .Ltmp302-.Ltmp289              #   Call between .Ltmp289 and .Ltmp302
	.uleb128 .Ltmp303-.Lfunc_begin14        #     jumps to .Ltmp303
	.byte	0                               #   On action: cleanup
	.uleb128 .Ltmp302-.Lfunc_begin14        # >> Call Site 12 <<
	.uleb128 .Lfunc_end14-.Ltmp302          #   Call between .Ltmp302 and .Lfunc_end14
	.byte	0                               #     has no landing pad
	.byte	0                               #   On action: cleanup
.Lcst_end14:
	.p2align	2, 0x0
                                        # -- End function
	.text
	.globl	_Z28BENCHMARK_atan_novec_double_RN9benchmark5StateE # -- Begin function _Z28BENCHMARK_atan_novec_double_RN9benchmark5StateE
	.p2align	5
	.type	_Z28BENCHMARK_atan_novec_double_RN9benchmark5StateE,@function
_Z28BENCHMARK_atan_novec_double_RN9benchmark5StateE: # @_Z28BENCHMARK_atan_novec_double_RN9benchmark5StateE
.Lfunc_begin15:
	.cfi_startproc
	.cfi_personality 155, DW.ref.__gxx_personality_v0
	.cfi_lsda 27, .Lexception15
# %bb.0:                                # %entry
	addi.d	$sp, $sp, -128
	.cfi_def_cfa_offset 128
	st.d	$ra, $sp, 120                   # 8-byte Folded Spill
	st.d	$fp, $sp, 112                   # 8-byte Folded Spill
	st.d	$s0, $sp, 104                   # 8-byte Folded Spill
	st.d	$s1, $sp, 96                    # 8-byte Folded Spill
	st.d	$s2, $sp, 88                    # 8-byte Folded Spill
	st.d	$s3, $sp, 80                    # 8-byte Folded Spill
	st.d	$s4, $sp, 72                    # 8-byte Folded Spill
	st.d	$s5, $sp, 64                    # 8-byte Folded Spill
	st.d	$s6, $sp, 56                    # 8-byte Folded Spill
	st.d	$s7, $sp, 48                    # 8-byte Folded Spill
	st.d	$s8, $sp, 40                    # 8-byte Folded Spill
	fst.d	$fs0, $sp, 32                   # 8-byte Folded Spill
	.cfi_offset 1, -8
	.cfi_offset 22, -16
	.cfi_offset 23, -24
	.cfi_offset 24, -32
	.cfi_offset 25, -40
	.cfi_offset 26, -48
	.cfi_offset 27, -56
	.cfi_offset 28, -64
	.cfi_offset 29, -72
	.cfi_offset 30, -80
	.cfi_offset 31, -88
	.cfi_offset 56, -96
	move	$fp, $a0
	lu12i.w	$a0, 19
	ori	$s2, $a0, 2176
	move	$a0, $s2
	pcaddu18i	$ra, %call36(_Znam)
	jirl	$ra, $ra, 0
	move	$s0, $a0
	st.d	$a0, $sp, 24
.Ltmp309:                               # EH_LABEL
	move	$a0, $s2
	pcaddu18i	$ra, %call36(_Znam)
	jirl	$ra, $ra, 0
.Ltmp310:                               # EH_LABEL
# %bb.1:                                # %invoke.cont.i
	move	$s1, $a0
	st.d	$a0, $sp, 16
.Ltmp312:                               # EH_LABEL
	move	$a0, $s2
	pcaddu18i	$ra, %call36(_Znam)
	jirl	$ra, $ra, 0
.Ltmp313:                               # EH_LABEL
# %bb.2:                                # %invoke.cont3.i
	move	$a2, $a0
	st.d	$a0, $sp, 8
	move	$a0, $s0
	move	$a1, $s1
	pcaddu18i	$ra, %call36(_ZL9init_dataIdEvPT_S1_S1_)
	jirl	$ra, $ra, 0
	ld.w	$s1, $fp, 28
	ld.d	$s0, $fp, 16
.Ltmp315:                               # EH_LABEL
	move	$a0, $fp
	pcaddu18i	$ra, %call36(_ZN9benchmark5State16StartKeepRunningEv)
	jirl	$ra, $ra, 0
.Ltmp316:                               # EH_LABEL
# %bb.3:                                # %for.cond.i.preheader
	bnez	$s1, .LBB15_9
# %bb.4:                                # %for.cond.i.preheader
	beqz	$s0, .LBB15_9
# %bb.5:
	lu12i.w	$a0, 2
	ori	$s1, $a0, 1808
	addi.d	$s2, $sp, 24
	addi.d	$s3, $sp, 16
	addi.d	$s4, $sp, 8
	.p2align	4, , 16
.LBB15_6:                               # %for.body.i
                                        # =>This Loop Header: Depth=1
                                        #     Child Loop BB15_7 Depth 2
	ld.d	$s5, $sp, 24
	ld.d	$s6, $sp, 16
	ld.d	$s7, $sp, 8
	move	$s8, $s1
	.p2align	4, , 16
.LBB15_7:                               # %for.body.i13
                                        #   Parent Loop BB15_6 Depth=1
                                        # =>  This Inner Loop Header: Depth=2
	fld.d	$fa0, $s5, 0
	pcaddu18i	$ra, %call36(atan)
	jirl	$ra, $ra, 0
	fld.d	$fa1, $s6, 0
	fmov.d	$fs0, $fa0
	fmov.d	$fa0, $fa1
	pcaddu18i	$ra, %call36(atan)
	jirl	$ra, $ra, 0
	fadd.d	$fa0, $fs0, $fa0
	fst.d	$fa0, $s7, 0
	addi.d	$s8, $s8, -1
	addi.d	$s7, $s7, 8
	addi.d	$s6, $s6, 8
	addi.d	$s5, $s5, 8
	bnez	$s8, .LBB15_7
# %bb.8:                                # %invoke.cont23.i
                                        #   in Loop: Header=BB15_6 Depth=1
	#APP
	#NO_APP
	#APP
	#NO_APP
	#APP
	#NO_APP
	addi.d	$s0, $s0, -1
	bnez	$s0, .LBB15_6
.LBB15_9:                               # %if.end.i
.Ltmp317:                               # EH_LABEL
	move	$a0, $fp
	pcaddu18i	$ra, %call36(_ZN9benchmark5State17FinishKeepRunningEv)
	jirl	$ra, $ra, 0
.Ltmp318:                               # EH_LABEL
# %bb.10:                               # %_ZL18benchmark_fn_novecIdEvRN9benchmark5StateEPFT_S3_E.exit
	ld.d	$a0, $sp, 8
	beqz	$a0, .LBB15_12
# %bb.11:                               # %_ZNKSt14default_deleteIA_dEclIdEENSt9enable_ifIXsr14is_convertibleIPA_T_PS0_EE5valueEvE4typeEPS4_.exit.i26
	pcaddu18i	$ra, %call36(_ZdaPv)
	jirl	$ra, $ra, 0
.LBB15_12:                              # %_ZNSt10unique_ptrIA_dSt14default_deleteIS0_EED2Ev.exit28
	ld.d	$a0, $sp, 16
	beqz	$a0, .LBB15_14
# %bb.13:                               # %_ZNKSt14default_deleteIA_dEclIdEENSt9enable_ifIXsr14is_convertibleIPA_T_PS0_EE5valueEvE4typeEPS4_.exit.i30
	pcaddu18i	$ra, %call36(_ZdaPv)
	jirl	$ra, $ra, 0
.LBB15_14:                              # %_ZNSt10unique_ptrIA_dSt14default_deleteIS0_EED2Ev.exit32
	ld.d	$a0, $sp, 24
	beqz	$a0, .LBB15_16
# %bb.15:                               # %_ZNKSt14default_deleteIA_dEclIdEENSt9enable_ifIXsr14is_convertibleIPA_T_PS0_EE5valueEvE4typeEPS4_.exit.i34
	pcaddu18i	$ra, %call36(_ZdaPv)
	jirl	$ra, $ra, 0
.LBB15_16:                              # %_ZNSt10unique_ptrIA_dSt14default_deleteIS0_EED2Ev.exit36
	fld.d	$fs0, $sp, 32                   # 8-byte Folded Reload
	ld.d	$s8, $sp, 40                    # 8-byte Folded Reload
	ld.d	$s7, $sp, 48                    # 8-byte Folded Reload
	ld.d	$s6, $sp, 56                    # 8-byte Folded Reload
	ld.d	$s5, $sp, 64                    # 8-byte Folded Reload
	ld.d	$s4, $sp, 72                    # 8-byte Folded Reload
	ld.d	$s3, $sp, 80                    # 8-byte Folded Reload
	ld.d	$s2, $sp, 88                    # 8-byte Folded Reload
	ld.d	$s1, $sp, 96                    # 8-byte Folded Reload
	ld.d	$s0, $sp, 104                   # 8-byte Folded Reload
	ld.d	$fp, $sp, 112                   # 8-byte Folded Reload
	ld.d	$ra, $sp, 120                   # 8-byte Folded Reload
	addi.d	$sp, $sp, 128
	ret
.LBB15_17:                              # %ehcleanup28.i.thread
.Ltmp314:                               # EH_LABEL
	move	$fp, $a0
	b	.LBB15_24
.LBB15_18:                              # %ehcleanup30.i.thread
.Ltmp311:                               # EH_LABEL
	move	$fp, $a0
	move	$a0, $s0
	pcaddu18i	$ra, %call36(_ZdaPv)
	jirl	$ra, $ra, 0
	move	$a0, $fp
	pcaddu18i	$ra, %call36(_Unwind_Resume)
	jirl	$ra, $ra, 0
.LBB15_19:                              # %lpad13.i
.Ltmp319:                               # EH_LABEL
	ld.d	$a1, $sp, 8
	move	$fp, $a0
	bnez	$a1, .LBB15_23
# %bb.20:                               # %ehcleanup28.i
	ld.d	$s1, $sp, 16
	bnez	$s1, .LBB15_24
.LBB15_21:                              # %ehcleanup30.i
	ld.d	$s0, $sp, 24
	bnez	$s0, .LBB15_25
.LBB15_22:                              # %_ZNSt10unique_ptrIA_dSt14default_deleteIS0_EED2Ev.exit24
	move	$a0, $fp
	pcaddu18i	$ra, %call36(_Unwind_Resume)
	jirl	$ra, $ra, 0
.LBB15_23:                              # %_ZNKSt14default_deleteIA_dEclIdEENSt9enable_ifIXsr14is_convertibleIPA_T_PS0_EE5valueEvE4typeEPS4_.exit.i
	move	$a0, $a1
	pcaddu18i	$ra, %call36(_ZdaPv)
	jirl	$ra, $ra, 0
	ld.d	$s1, $sp, 16
	beqz	$s1, .LBB15_21
.LBB15_24:                              # %_ZNKSt14default_deleteIA_dEclIdEENSt9enable_ifIXsr14is_convertibleIPA_T_PS0_EE5valueEvE4typeEPS4_.exit.i18
	move	$a0, $s1
	pcaddu18i	$ra, %call36(_ZdaPv)
	jirl	$ra, $ra, 0
	ld.d	$s0, $sp, 24
	beqz	$s0, .LBB15_22
.LBB15_25:                              # %_ZNKSt14default_deleteIA_dEclIdEENSt9enable_ifIXsr14is_convertibleIPA_T_PS0_EE5valueEvE4typeEPS4_.exit.i22
	move	$a0, $s0
	pcaddu18i	$ra, %call36(_ZdaPv)
	jirl	$ra, $ra, 0
	move	$a0, $fp
	pcaddu18i	$ra, %call36(_Unwind_Resume)
	jirl	$ra, $ra, 0
.Lfunc_end15:
	.size	_Z28BENCHMARK_atan_novec_double_RN9benchmark5StateE, .Lfunc_end15-_Z28BENCHMARK_atan_novec_double_RN9benchmark5StateE
	.cfi_endproc
	.section	.gcc_except_table,"a",@progbits
	.p2align	2, 0x0
GCC_except_table15:
.Lexception15:
	.byte	255                             # @LPStart Encoding = omit
	.byte	255                             # @TType Encoding = omit
	.byte	1                               # Call site Encoding = uleb128
	.uleb128 .Lcst_end15-.Lcst_begin15
.Lcst_begin15:
	.uleb128 .Lfunc_begin15-.Lfunc_begin15  # >> Call Site 1 <<
	.uleb128 .Ltmp309-.Lfunc_begin15        #   Call between .Lfunc_begin15 and .Ltmp309
	.byte	0                               #     has no landing pad
	.byte	0                               #   On action: cleanup
	.uleb128 .Ltmp309-.Lfunc_begin15        # >> Call Site 2 <<
	.uleb128 .Ltmp310-.Ltmp309              #   Call between .Ltmp309 and .Ltmp310
	.uleb128 .Ltmp311-.Lfunc_begin15        #     jumps to .Ltmp311
	.byte	0                               #   On action: cleanup
	.uleb128 .Ltmp312-.Lfunc_begin15        # >> Call Site 3 <<
	.uleb128 .Ltmp313-.Ltmp312              #   Call between .Ltmp312 and .Ltmp313
	.uleb128 .Ltmp314-.Lfunc_begin15        #     jumps to .Ltmp314
	.byte	0                               #   On action: cleanup
	.uleb128 .Ltmp313-.Lfunc_begin15        # >> Call Site 4 <<
	.uleb128 .Ltmp315-.Ltmp313              #   Call between .Ltmp313 and .Ltmp315
	.byte	0                               #     has no landing pad
	.byte	0                               #   On action: cleanup
	.uleb128 .Ltmp315-.Lfunc_begin15        # >> Call Site 5 <<
	.uleb128 .Ltmp316-.Ltmp315              #   Call between .Ltmp315 and .Ltmp316
	.uleb128 .Ltmp319-.Lfunc_begin15        #     jumps to .Ltmp319
	.byte	0                               #   On action: cleanup
	.uleb128 .Ltmp316-.Lfunc_begin15        # >> Call Site 6 <<
	.uleb128 .Ltmp317-.Ltmp316              #   Call between .Ltmp316 and .Ltmp317
	.byte	0                               #     has no landing pad
	.byte	0                               #   On action: cleanup
	.uleb128 .Ltmp317-.Lfunc_begin15        # >> Call Site 7 <<
	.uleb128 .Ltmp318-.Ltmp317              #   Call between .Ltmp317 and .Ltmp318
	.uleb128 .Ltmp319-.Lfunc_begin15        #     jumps to .Ltmp319
	.byte	0                               #   On action: cleanup
	.uleb128 .Ltmp318-.Lfunc_begin15        # >> Call Site 8 <<
	.uleb128 .Lfunc_end15-.Ltmp318          #   Call between .Ltmp318 and .Lfunc_end15
	.byte	0                               #     has no landing pad
	.byte	0                               #   On action: cleanup
.Lcst_end15:
	.p2align	2, 0x0
                                        # -- End function
	.text
	.globl	_Z30BENCHMARK_cbrtf_autovec_float_RN9benchmark5StateE # -- Begin function _Z30BENCHMARK_cbrtf_autovec_float_RN9benchmark5StateE
	.p2align	5
	.type	_Z30BENCHMARK_cbrtf_autovec_float_RN9benchmark5StateE,@function
_Z30BENCHMARK_cbrtf_autovec_float_RN9benchmark5StateE: # @_Z30BENCHMARK_cbrtf_autovec_float_RN9benchmark5StateE
.Lfunc_begin16:
	.cfi_startproc
	.cfi_personality 155, DW.ref.__gxx_personality_v0
	.cfi_lsda 27, .Lexception16
# %bb.0:                                # %entry
	addi.d	$sp, $sp, -128
	.cfi_def_cfa_offset 128
	st.d	$ra, $sp, 120                   # 8-byte Folded Spill
	st.d	$fp, $sp, 112                   # 8-byte Folded Spill
	st.d	$s0, $sp, 104                   # 8-byte Folded Spill
	st.d	$s1, $sp, 96                    # 8-byte Folded Spill
	st.d	$s2, $sp, 88                    # 8-byte Folded Spill
	st.d	$s3, $sp, 80                    # 8-byte Folded Spill
	st.d	$s4, $sp, 72                    # 8-byte Folded Spill
	st.d	$s5, $sp, 64                    # 8-byte Folded Spill
	st.d	$s6, $sp, 56                    # 8-byte Folded Spill
	st.d	$s7, $sp, 48                    # 8-byte Folded Spill
	st.d	$s8, $sp, 40                    # 8-byte Folded Spill
	fst.d	$fs0, $sp, 32                   # 8-byte Folded Spill
	.cfi_offset 1, -8
	.cfi_offset 22, -16
	.cfi_offset 23, -24
	.cfi_offset 24, -32
	.cfi_offset 25, -40
	.cfi_offset 26, -48
	.cfi_offset 27, -56
	.cfi_offset 28, -64
	.cfi_offset 29, -72
	.cfi_offset 30, -80
	.cfi_offset 31, -88
	.cfi_offset 56, -96
	move	$s0, $a0
	lu12i.w	$a0, 9
	ori	$s4, $a0, 3136
	move	$a0, $s4
	pcaddu18i	$ra, %call36(_Znam)
	jirl	$ra, $ra, 0
	move	$s2, $a0
	st.d	$a0, $sp, 24
.Ltmp320:                               # EH_LABEL
	move	$a0, $s4
	pcaddu18i	$ra, %call36(_Znam)
	jirl	$ra, $ra, 0
.Ltmp321:                               # EH_LABEL
# %bb.1:                                # %invoke.cont.i
	move	$s3, $a0
	st.d	$a0, $sp, 16
.Ltmp323:                               # EH_LABEL
	move	$a0, $s4
	pcaddu18i	$ra, %call36(_Znam)
	jirl	$ra, $ra, 0
.Ltmp324:                               # EH_LABEL
# %bb.2:                                # %invoke.cont3.i
	move	$fp, $a0
	st.d	$a0, $sp, 8
	move	$a0, $s2
	move	$a1, $s3
	move	$a2, $fp
	pcaddu18i	$ra, %call36(_ZL9init_dataIfEvPT_S1_S1_)
	jirl	$ra, $ra, 0
.Ltmp326:                               # EH_LABEL
	move	$a0, $s4
	pcaddu18i	$ra, %call36(_Znam)
	jirl	$ra, $ra, 0
.Ltmp327:                               # EH_LABEL
# %bb.3:                                # %vector.body.preheader
	move	$s1, $a0
	move	$a0, $zero
	.p2align	4, , 16
.LBB16_4:                               # %vector.body
                                        # =>This Inner Loop Header: Depth=1
	vldx	$vr0, $fp, $a0
	add.d	$a1, $fp, $a0
	vld	$vr1, $a1, 16
	add.d	$a1, $s1, $a0
	vstx	$vr0, $s1, $a0
	addi.d	$a0, $a0, 32
	vst	$vr1, $a1, 16
	bne	$a0, $s4, .LBB16_4
# %bb.5:                                # %for.body.i14.preheader
	move	$s5, $zero
	.p2align	4, , 16
.LBB16_6:                               # %for.body.i14
                                        # =>This Inner Loop Header: Depth=1
	fldx.s	$fa0, $s2, $s5
	pcaddu18i	$ra, %call36(cbrtf)
	jirl	$ra, $ra, 0
	fldx.s	$fa1, $s3, $s5
	fmov.s	$fs0, $fa0
	fmov.s	$fa0, $fa1
	pcaddu18i	$ra, %call36(cbrtf)
	jirl	$ra, $ra, 0
	fadd.s	$fa0, $fs0, $fa0
	fstx.s	$fa0, $s1, $s5
	addi.d	$s5, $s5, 4
	bne	$s5, $s4, .LBB16_6
# %bb.7:                                # %for.body.i22.preheader
	move	$s5, $zero
	.p2align	4, , 16
.LBB16_8:                               # %for.body.i22
                                        # =>This Inner Loop Header: Depth=1
	fldx.s	$fa0, $s2, $s5
	pcaddu18i	$ra, %call36(cbrtf)
	jirl	$ra, $ra, 0
	fldx.s	$fa1, $s3, $s5
	fmov.s	$fs0, $fa0
	fmov.s	$fa0, $fa1
	pcaddu18i	$ra, %call36(cbrtf)
	jirl	$ra, $ra, 0
	fadd.s	$fa0, $fs0, $fa0
	fstx.s	$fa0, $fp, $s5
	addi.d	$s5, $s5, 4
	bne	$s5, $s4, .LBB16_8
# %bb.9:                                # %for.body41.i.preheader
	move	$s2, $zero
	movgr2fr.w	$fa0, $zero
	lu12i.w	$a0, 2048
	movgr2fr.w	$fa1, $a0
	lu12i.w	$a0, 2
	ori	$s3, $a0, 1808
	move	$s4, $s1
	move	$s5, $fp
	b	.LBB16_13
.LBB16_10:                              #   in Loop: Header=BB16_13 Depth=1
	move	$a0, $zero
	.p2align	4, , 16
.LBB16_11:                              # %_ZSt10fpclassifyf.exit49
                                        #   in Loop: Header=BB16_13 Depth=1
	bne	$a1, $a0, .LBB16_38
.LBB16_12:                              # %for.inc81.i
                                        #   in Loop: Header=BB16_13 Depth=1
	addi.d	$s2, $s2, 1
	addi.d	$s5, $s5, 4
	addi.d	$s4, $s4, 4
	beq	$s2, $s3, .LBB16_23
.LBB16_13:                              # %for.body41.i
                                        # =>This Inner Loop Header: Depth=1
	fld.s	$fa3, $s5, 0
	fld.s	$fa2, $s4, 0
	fcmp.ceq.s	$fcc0, $fa3, $fa2
	bcnez	$fcc0, .LBB16_12
# %bb.14:                               # %land.lhs.true.i
                                        #   in Loop: Header=BB16_13 Depth=1
	ori	$a0, $zero, 2
	fcmp.ceq.s	$fcc0, $fa3, $fa0
	ori	$a1, $zero, 2
	bcnez	$fcc0, .LBB16_18
# %bb.15:                               # %fpclassify_not_zero.i
                                        #   in Loop: Header=BB16_13 Depth=1
	fcmp.cun.s	$fcc0, $fa3, $fa3
	bcnez	$fcc0, .LBB16_22
# %bb.16:                               # %fpclassify_not_nan.i
                                        #   in Loop: Header=BB16_13 Depth=1
	fclass.s	$fa4, $fa3
	movfr2gr.s	$a1, $fa4
	andi	$a1, $a1, 68
	sltu	$a1, $zero, $a1
	andi	$a2, $a1, 1
	ori	$a1, $zero, 1
	bnez	$a2, .LBB16_18
# %bb.17:                               # %fpclassify_not_inf.i
                                        #   in Loop: Header=BB16_13 Depth=1
	fabs.s	$fa3, $fa3
	fcmp.cule.s	$fcc0, $fa1, $fa3
	movcf2gr	$a1, $fcc0
	addi.d	$a1, $a1, 3
	.p2align	4, , 16
.LBB16_18:                              # %_ZSt10fpclassifyf.exit
                                        #   in Loop: Header=BB16_13 Depth=1
	fcmp.ceq.s	$fcc0, $fa2, $fa0
	bcnez	$fcc0, .LBB16_11
.LBB16_19:                              # %fpclassify_not_zero.i42
                                        #   in Loop: Header=BB16_13 Depth=1
	fcmp.cun.s	$fcc0, $fa2, $fa2
	bcnez	$fcc0, .LBB16_10
# %bb.20:                               # %fpclassify_not_nan.i44
                                        #   in Loop: Header=BB16_13 Depth=1
	fclass.s	$fa3, $fa2
	movfr2gr.s	$a0, $fa3
	andi	$a0, $a0, 68
	sltu	$a0, $zero, $a0
	andi	$a2, $a0, 1
	ori	$a0, $zero, 1
	bnez	$a2, .LBB16_11
# %bb.21:                               # %fpclassify_not_inf.i46
                                        #   in Loop: Header=BB16_13 Depth=1
	fabs.s	$fa2, $fa2
	fcmp.cule.s	$fcc0, $fa1, $fa2
	movcf2gr	$a0, $fcc0
	addi.d	$a0, $a0, 3
	b	.LBB16_11
.LBB16_22:                              #   in Loop: Header=BB16_13 Depth=1
	move	$a1, $zero
	fcmp.ceq.s	$fcc0, $fa2, $fa0
	bcnez	$fcc0, .LBB16_11
	b	.LBB16_19
.LBB16_23:                              # %_ZNSt10unique_ptrIA_fSt14default_deleteIS0_EED2Ev.exit
	move	$a0, $s1
	pcaddu18i	$ra, %call36(_ZdaPv)
	jirl	$ra, $ra, 0
	ld.w	$s1, $s0, 28
	ld.d	$fp, $s0, 16
.Ltmp344:                               # EH_LABEL
	move	$a0, $s0
	pcaddu18i	$ra, %call36(_ZN9benchmark5State16StartKeepRunningEv)
	jirl	$ra, $ra, 0
.Ltmp345:                               # EH_LABEL
# %bb.24:                               # %for.cond91.i.preheader
	bnez	$s1, .LBB16_30
# %bb.25:                               # %for.cond91.i.preheader
	beqz	$fp, .LBB16_30
# %bb.26:
	addi.d	$s1, $sp, 24
	addi.d	$s2, $sp, 16
	addi.d	$s4, $sp, 8
	.p2align	4, , 16
.LBB16_27:                              # %for.body95.i
                                        # =>This Loop Header: Depth=1
                                        #     Child Loop BB16_28 Depth 2
	ld.d	$s5, $sp, 24
	ld.d	$s6, $sp, 16
	ld.d	$s7, $sp, 8
	move	$s8, $s3
	.p2align	4, , 16
.LBB16_28:                              # %for.body.i79
                                        #   Parent Loop BB16_27 Depth=1
                                        # =>  This Inner Loop Header: Depth=2
	fld.s	$fa0, $s5, 0
	pcaddu18i	$ra, %call36(cbrtf)
	jirl	$ra, $ra, 0
	fld.s	$fa1, $s6, 0
	fmov.s	$fs0, $fa0
	fmov.s	$fa0, $fa1
	pcaddu18i	$ra, %call36(cbrtf)
	jirl	$ra, $ra, 0
	fadd.s	$fa0, $fs0, $fa0
	fst.s	$fa0, $s7, 0
	addi.d	$s8, $s8, -1
	addi.d	$s7, $s7, 4
	addi.d	$s6, $s6, 4
	addi.d	$s5, $s5, 4
	bnez	$s8, .LBB16_28
# %bb.29:                               # %invoke.cont105.i
                                        #   in Loop: Header=BB16_27 Depth=1
	#APP
	#NO_APP
	#APP
	#NO_APP
	#APP
	#NO_APP
	addi.d	$fp, $fp, -1
	#MEMBARRIER
	bnez	$fp, .LBB16_27
.LBB16_30:                              # %if.end.i
.Ltmp346:                               # EH_LABEL
	move	$a0, $s0
	pcaddu18i	$ra, %call36(_ZN9benchmark5State17FinishKeepRunningEv)
	jirl	$ra, $ra, 0
.Ltmp347:                               # EH_LABEL
# %bb.31:                               # %_ZL20benchmark_fn_autovecIfEvRN9benchmark5StateEPFT_S3_E.exit
	ld.d	$a0, $sp, 8
	beqz	$a0, .LBB16_33
# %bb.32:                               # %_ZNKSt14default_deleteIA_fEclIfEENSt9enable_ifIXsr14is_convertibleIPA_T_PS0_EE5valueEvE4typeEPS4_.exit.i104
	pcaddu18i	$ra, %call36(_ZdaPv)
	jirl	$ra, $ra, 0
.LBB16_33:                              # %_ZNSt10unique_ptrIA_fSt14default_deleteIS0_EED2Ev.exit106
	ld.d	$a0, $sp, 16
	beqz	$a0, .LBB16_35
# %bb.34:                               # %_ZNKSt14default_deleteIA_fEclIfEENSt9enable_ifIXsr14is_convertibleIPA_T_PS0_EE5valueEvE4typeEPS4_.exit.i108
	pcaddu18i	$ra, %call36(_ZdaPv)
	jirl	$ra, $ra, 0
.LBB16_35:                              # %_ZNSt10unique_ptrIA_fSt14default_deleteIS0_EED2Ev.exit110
	ld.d	$a0, $sp, 24
	beqz	$a0, .LBB16_37
# %bb.36:                               # %_ZNKSt14default_deleteIA_fEclIfEENSt9enable_ifIXsr14is_convertibleIPA_T_PS0_EE5valueEvE4typeEPS4_.exit.i112
	pcaddu18i	$ra, %call36(_ZdaPv)
	jirl	$ra, $ra, 0
.LBB16_37:                              # %_ZNSt10unique_ptrIA_fSt14default_deleteIS0_EED2Ev.exit114
	fld.d	$fs0, $sp, 32                   # 8-byte Folded Reload
	ld.d	$s8, $sp, 40                    # 8-byte Folded Reload
	ld.d	$s7, $sp, 48                    # 8-byte Folded Reload
	ld.d	$s6, $sp, 56                    # 8-byte Folded Reload
	ld.d	$s5, $sp, 64                    # 8-byte Folded Reload
	ld.d	$s4, $sp, 72                    # 8-byte Folded Reload
	ld.d	$s3, $sp, 80                    # 8-byte Folded Reload
	ld.d	$s2, $sp, 88                    # 8-byte Folded Reload
	ld.d	$s1, $sp, 96                    # 8-byte Folded Reload
	ld.d	$s0, $sp, 104                   # 8-byte Folded Reload
	ld.d	$fp, $sp, 112                   # 8-byte Folded Reload
	ld.d	$ra, $sp, 120                   # 8-byte Folded Reload
	addi.d	$sp, $sp, 128
	ret
.LBB16_38:                              # %if.then.i
.Ltmp329:                               # EH_LABEL
	pcalau12i	$a0, %got_pc_hi20(_ZSt4cerr)
	ld.d	$a0, $a0, %got_pc_lo12(_ZSt4cerr)
	pcalau12i	$a1, %pc_hi20(.L.str.73)
	addi.d	$a1, $a1, %pc_lo12(.L.str.73)
	ori	$a2, $zero, 49
	pcaddu18i	$ra, %call36(_ZSt16__ostream_insertIcSt11char_traitsIcEERSt13basic_ostreamIT_T0_ES6_PKS3_l)
	jirl	$ra, $ra, 0
.Ltmp330:                               # EH_LABEL
# %bb.39:                               # %invoke.cont61.i
	fld.s	$fa0, $s5, 0
	fcvt.d.s	$fa0, $fa0
.Ltmp331:                               # EH_LABEL
	pcalau12i	$a0, %got_pc_hi20(_ZSt4cerr)
	ld.d	$a0, $a0, %got_pc_lo12(_ZSt4cerr)
	pcaddu18i	$ra, %call36(_ZNSo9_M_insertIdEERSoT_)
	jirl	$ra, $ra, 0
.Ltmp332:                               # EH_LABEL
# %bb.40:                               # %invoke.cont66.i
.Ltmp333:                               # EH_LABEL
	move	$s0, $a0
	pcalau12i	$a0, %pc_hi20(.L.str.74)
	addi.d	$a1, $a0, %pc_lo12(.L.str.74)
	ori	$a2, $zero, 4
	move	$a0, $s0
	pcaddu18i	$ra, %call36(_ZSt16__ostream_insertIcSt11char_traitsIcEERSt13basic_ostreamIT_T0_ES6_PKS3_l)
	jirl	$ra, $ra, 0
.Ltmp334:                               # EH_LABEL
# %bb.41:                               # %invoke.cont68.i
	fld.s	$fa0, $s4, 0
	fcvt.d.s	$fa0, $fa0
.Ltmp335:                               # EH_LABEL
	move	$a0, $s0
	pcaddu18i	$ra, %call36(_ZNSo9_M_insertIdEERSoT_)
	jirl	$ra, $ra, 0
.Ltmp336:                               # EH_LABEL
# %bb.42:                               # %invoke.cont73.i
.Ltmp337:                               # EH_LABEL
	move	$s0, $a0
	pcalau12i	$a0, %pc_hi20(.L.str.75)
	addi.d	$a1, $a0, %pc_lo12(.L.str.75)
	ori	$a2, $zero, 10
	move	$a0, $s0
	pcaddu18i	$ra, %call36(_ZSt16__ostream_insertIcSt11char_traitsIcEERSt13basic_ostreamIT_T0_ES6_PKS3_l)
	jirl	$ra, $ra, 0
.Ltmp338:                               # EH_LABEL
# %bb.43:                               # %invoke.cont75.i
.Ltmp339:                               # EH_LABEL
	move	$a0, $s0
	move	$a1, $s2
	pcaddu18i	$ra, %call36(_ZNSo9_M_insertImEERSoT_)
	jirl	$ra, $ra, 0
.Ltmp340:                               # EH_LABEL
# %bb.44:                               # %invoke.cont77.i
.Ltmp341:                               # EH_LABEL
	pcalau12i	$a1, %pc_hi20(.L.str.76)
	addi.d	$a1, $a1, %pc_lo12(.L.str.76)
	pcaddu18i	$ra, %call36(_ZStlsISt11char_traitsIcEERSt13basic_ostreamIcT_ES5_PKc)
	jirl	$ra, $ra, 0
.Ltmp342:                               # EH_LABEL
# %bb.45:                               # %invoke.cont79.i
