	.file	"paq8p.cpp"
	.section	.text.unlikely.,"ax",@progbits
	.globl	_Z4quitPKc                      # -- Begin function _Z4quitPKc
	.p2align	5
	.type	_Z4quitPKc,@function
_Z4quitPKc:                             # @_Z4quitPKc
	.cfi_startproc
# %bb.0:                                # %entry
	addi.d	$sp, $sp, -16
	.cfi_def_cfa_offset 16
	st.d	$ra, $sp, 8                     # 8-byte Folded Spill
	st.d	$fp, $sp, 0                     # 8-byte Folded Spill
	.cfi_offset 1, -8
	.cfi_offset 22, -16
	move	$fp, $a0
	ori	$a0, $zero, 8
	pcaddu18i	$ra, %call36(__cxa_allocate_exception)
	jirl	$ra, $ra, 0
	st.d	$fp, $a0, 0
	pcalau12i	$a1, %got_pc_hi20(_ZTIPKc)
	ld.d	$a1, $a1, %got_pc_lo12(_ZTIPKc)
	move	$a2, $zero
	pcaddu18i	$ra, %call36(__cxa_throw)
	jirl	$ra, $ra, 0
.Lfunc_end0:
	.size	_Z4quitPKc, .Lfunc_end0-_Z4quitPKc
	.cfi_endproc
                                        # -- End function
	.text
	.globl	_Z6equalsPKcS0_                 # -- Begin function _Z6equalsPKcS0_
	.p2align	5
	.type	_Z6equalsPKcS0_,@function
_Z6equalsPKcS0_:                        # @_Z6equalsPKcS0_
# %bb.0:                                # %entry
	.p2align	4, , 16
.LBB1_1:                                # %while.cond
                                        # =>This Inner Loop Header: Depth=1
	ld.bu	$a3, $a0, 0
	ld.bu	$a2, $a1, 0
	beqz	$a3, .LBB1_5
# %bb.2:                                # %while.cond
                                        #   in Loop: Header=BB1_1 Depth=1
	beqz	$a2, .LBB1_5
# %bb.3:                                # %while.body
                                        #   in Loop: Header=BB1_1 Depth=1
	ext.w.b	$a4, $a3
	addi.d	$a3, $a3, -65
	andi	$a3, $a3, 255
	sltui	$a3, $a3, 26
	ori	$a5, $a4, 32
	masknez	$a4, $a4, $a3
	maskeqz	$a3, $a5, $a3
	or	$a3, $a3, $a4
	ext.w.b	$a4, $a2
	addi.d	$a2, $a2, -65
	andi	$a2, $a2, 255
	sltui	$a2, $a2, 26
	ori	$a5, $a4, 32
	masknez	$a4, $a4, $a2
	maskeqz	$a2, $a5, $a2
	or	$a2, $a2, $a4
	addi.d	$a0, $a0, 1
	addi.d	$a1, $a1, 1
	beq	$a3, $a2, .LBB1_1
# %bb.4:
	move	$a0, $zero
	ret
.LBB1_5:                                # %while.end
	xor	$a0, $a3, $a2
	sltui	$a0, $a0, 1
	ret
.Lfunc_end1:
	.size	_Z6equalsPKcS0_, .Lfunc_end1-_Z6equalsPKcS0_
                                        # -- End function
	.section	.text._ZN6RandomD2Ev,"axG",@progbits,_ZN6RandomD2Ev,comdat
	.weak	_ZN6RandomD2Ev                  # -- Begin function _ZN6RandomD2Ev
	.p2align	5
	.type	_ZN6RandomD2Ev,@function
_ZN6RandomD2Ev:                         # @_ZN6RandomD2Ev
# %bb.0:                                # %entry
	ld.w	$a2, $a0, 0
	pcalau12i	$a1, %pc_hi20(programChecker)
	addi.d	$a1, $a1, %pc_lo12(programChecker)
	ld.w	$a3, $a1, 0
	ld.w	$a4, $a1, 4
	slli.d	$a2, $a2, 2
	sub.w	$a2, $a3, $a2
	st.w	$a2, $a1, 0
	bge	$a4, $a2, .LBB2_2
# %bb.1:                                # %if.then.i.i
	st.w	$a2, $a1, 4
.LBB2_2:                                # %_ZN5ArrayIjLi0EED2Ev.exit
	ld.d	$a0, $a0, 8
	pcaddu18i	$t8, %call36(free)
	jr	$t8
.Lfunc_end2:
	.size	_ZN6RandomD2Ev, .Lfunc_end2-_ZN6RandomD2Ev
                                        # -- End function
	.section	.text._ZN3BufC2Ei,"axG",@progbits,_ZN3BufC2Ei,comdat
	.weak	_ZN3BufC2Ei                     # -- Begin function _ZN3BufC2Ei
	.p2align	5
	.type	_ZN3BufC2Ei,@function
_ZN3BufC2Ei:                            # @_ZN3BufC2Ei
	.cfi_startproc
# %bb.0:                                # %entry
	addi.d	$sp, $sp, -16
	.cfi_def_cfa_offset 16
	st.d	$ra, $sp, 8                     # 8-byte Folded Spill
	st.d	$fp, $sp, 0                     # 8-byte Folded Spill
	.cfi_offset 1, -8
	.cfi_offset 22, -16
	move	$fp, $a0
	st.w	$a1, $a0, 4
	st.w	$a1, $a0, 0
	blez	$a1, .LBB3_5
# %bb.1:                                # %if.end.i.i
	move	$a2, $a1
	pcalau12i	$a0, %pc_hi20(programChecker)
	addi.d	$a0, $a0, %pc_lo12(programChecker)
	ld.w	$a1, $a0, 0
	ld.w	$a3, $a0, 4
	add.w	$a1, $a1, $a2
	st.w	$a1, $a0, 0
	bge	$a3, $a1, .LBB3_3
# %bb.2:                                # %if.then.i.i.i
	st.w	$a1, $a0, 4
.LBB3_3:                                # %_ZN14ProgramChecker5allocEi.exit.i.i
	ori	$a1, $zero, 1
	move	$a0, $a2
	pcaddu18i	$ra, %call36(calloc)
	jirl	$ra, $ra, 0
	st.d	$a0, $fp, 8
	beqz	$a0, .LBB3_6
# %bb.4:                                # %if.end8.i.i
	st.d	$a0, $fp, 16
	ld.d	$fp, $sp, 0                     # 8-byte Folded Reload
	ld.d	$ra, $sp, 8                     # 8-byte Folded Reload
	addi.d	$sp, $sp, 16
	ret
.LBB3_5:                                # %if.then.i.i
	vrepli.b	$vr0, 0
	vst	$vr0, $fp, 8
	ld.d	$fp, $sp, 0                     # 8-byte Folded Reload
	ld.d	$ra, $sp, 8                     # 8-byte Folded Reload
	addi.d	$sp, $sp, 16
	ret
.LBB3_6:                                # %if.then7.i.i
	pcalau12i	$a0, %pc_hi20(.L.str.59)
	addi.d	$a0, $a0, %pc_lo12(.L.str.59)
	pcaddu18i	$ra, %call36(_Z4quitPKc)
	jirl	$ra, $ra, 0
.Lfunc_end3:
	.size	_ZN3BufC2Ei, .Lfunc_end3-_ZN3BufC2Ei
	.cfi_endproc
                                        # -- End function
	.section	.text._ZN3BufD2Ev,"axG",@progbits,_ZN3BufD2Ev,comdat
	.weak	_ZN3BufD2Ev                     # -- Begin function _ZN3BufD2Ev
	.p2align	5
	.type	_ZN3BufD2Ev,@function
_ZN3BufD2Ev:                            # @_ZN3BufD2Ev
# %bb.0:                                # %entry
	ld.w	$a2, $a0, 0
	pcalau12i	$a1, %pc_hi20(programChecker)
	addi.d	$a1, $a1, %pc_lo12(programChecker)
	ld.w	$a3, $a1, 0
	ld.w	$a4, $a1, 4
	sub.w	$a2, $a3, $a2
	st.w	$a2, $a1, 0
	bge	$a4, $a2, .LBB4_2
# %bb.1:                                # %if.then.i.i
	st.w	$a2, $a1, 4
.LBB4_2:                                # %_ZN5ArrayIhLi0EED2Ev.exit
	ld.d	$a0, $a0, 8
	pcaddu18i	$t8, %call36(free)
	jr	$t8
.Lfunc_end4:
	.size	_ZN3BufD2Ev, .Lfunc_end4-_ZN3BufD2Ev
                                        # -- End function
	.section	.text._ZN4IlogD2Ev,"axG",@progbits,_ZN4IlogD2Ev,comdat
	.weak	_ZN4IlogD2Ev                    # -- Begin function _ZN4IlogD2Ev
	.p2align	5
	.type	_ZN4IlogD2Ev,@function
_ZN4IlogD2Ev:                           # @_ZN4IlogD2Ev
# %bb.0:                                # %entry
	ld.w	$a2, $a0, 0
	pcalau12i	$a1, %pc_hi20(programChecker)
	addi.d	$a1, $a1, %pc_lo12(programChecker)
	ld.w	$a3, $a1, 0
	ld.w	$a4, $a1, 4
	sub.w	$a2, $a3, $a2
	st.w	$a2, $a1, 0
	bge	$a4, $a2, .LBB5_2
# %bb.1:                                # %if.then.i.i
	st.w	$a2, $a1, 4
.LBB5_2:                                # %_ZN5ArrayIhLi0EED2Ev.exit
	ld.d	$a0, $a0, 8
	pcaddu18i	$t8, %call36(free)
	jr	$t8
.Lfunc_end5:
	.size	_ZN4IlogD2Ev, .Lfunc_end5-_ZN4IlogD2Ev
                                        # -- End function
	.text
	.globl	_ZN4IlogC2Ev                    # -- Begin function _ZN4IlogC2Ev
	.p2align	5
	.type	_ZN4IlogC2Ev,@function
_ZN4IlogC2Ev:                           # @_ZN4IlogC2Ev
	.cfi_startproc
# %bb.0:                                # %entry
	addi.d	$sp, $sp, -16
	.cfi_def_cfa_offset 16
	st.d	$ra, $sp, 8                     # 8-byte Folded Spill
	st.d	$fp, $sp, 0                     # 8-byte Folded Spill
	.cfi_offset 1, -8
	.cfi_offset 22, -16
	move	$fp, $a0
	lu12i.w	$a0, 16
	lu32i.d	$a0, 65536
	st.d	$a0, $fp, 0
	pcalau12i	$a0, %pc_hi20(programChecker)
	addi.d	$a0, $a0, %pc_lo12(programChecker)
	ld.w	$a1, $a0, 0
	ld.w	$a2, $a0, 4
	addu16i.d	$a3, $a1, 1
	addi.w	$a1, $a3, 0
	st.w	$a3, $a0, 0
	bge	$a2, $a1, .LBB6_2
# %bb.1:                                # %if.then.i.i.i
	st.w	$a1, $a0, 4
.LBB6_2:                                # %_ZN14ProgramChecker5allocEi.exit.i.i
	lu12i.w	$a0, 16
	ori	$a1, $zero, 1
	pcaddu18i	$ra, %call36(calloc)
	jirl	$ra, $ra, 0
	st.d	$a0, $fp, 8
	beqz	$a0, .LBB6_6
# %bb.3:                                # %_ZN5ArrayIhLi0EEC2Ei.exit
	move	$a1, $zero
	st.d	$a0, $fp, 16
	lu12i.w	$a0, 3456
	ori	$a2, $zero, 3
	lu12i.w	$a3, 189096
	ori	$a3, $a3, 3786
	lu12i.w	$a4, 15
	ori	$a4, $a4, 4094
	.p2align	4, , 16
.LBB6_4:                                # %for.body
                                        # =>This Inner Loop Header: Depth=1
	ld.d	$a5, $fp, 16
	div.wu	$a6, $a3, $a2
	add.d	$a0, $a6, $a0
	srli.d	$a6, $a0, 24
	add.d	$a5, $a5, $a1
	st.b	$a6, $a5, 2
	addi.d	$a1, $a1, 1
	addi.w	$a2, $a2, 2
	bne	$a1, $a4, .LBB6_4
# %bb.5:                                # %for.cond.cleanup
	ld.d	$fp, $sp, 0                     # 8-byte Folded Reload
	ld.d	$ra, $sp, 8                     # 8-byte Folded Reload
	addi.d	$sp, $sp, 16
	ret
.LBB6_6:                                # %if.then7.i.i
	pcalau12i	$a0, %pc_hi20(.L.str.59)
	addi.d	$a0, $a0, %pc_lo12(.L.str.59)
	pcaddu18i	$ra, %call36(_Z4quitPKc)
	jirl	$ra, $ra, 0
.Lfunc_end6:
	.size	_ZN4IlogC2Ev, .Lfunc_end6-_ZN4IlogC2Ev
	.cfi_endproc
                                        # -- End function
	.section	.text._ZN5ArrayIhLi0EEC2Ei,"axG",@progbits,_ZN5ArrayIhLi0EEC2Ei,comdat
	.weak	_ZN5ArrayIhLi0EEC2Ei            # -- Begin function _ZN5ArrayIhLi0EEC2Ei
	.p2align	5
	.type	_ZN5ArrayIhLi0EEC2Ei,@function
_ZN5ArrayIhLi0EEC2Ei:                   # @_ZN5ArrayIhLi0EEC2Ei
	.cfi_startproc
# %bb.0:                                # %entry
	addi.d	$sp, $sp, -16
	.cfi_def_cfa_offset 16
	st.d	$ra, $sp, 8                     # 8-byte Folded Spill
	st.d	$fp, $sp, 0                     # 8-byte Folded Spill
	.cfi_offset 1, -8
	.cfi_offset 22, -16
	move	$fp, $a0
	st.w	$a1, $a0, 4
	st.w	$a1, $a0, 0
	blez	$a1, .LBB7_5
# %bb.1:                                # %if.end.i
	move	$a2, $a1
	pcalau12i	$a0, %pc_hi20(programChecker)
	addi.d	$a0, $a0, %pc_lo12(programChecker)
	ld.w	$a1, $a0, 0
	ld.w	$a3, $a0, 4
	add.w	$a1, $a1, $a2
	st.w	$a1, $a0, 0
	bge	$a3, $a1, .LBB7_3
# %bb.2:                                # %if.then.i.i
	st.w	$a1, $a0, 4
.LBB7_3:                                # %_ZN14ProgramChecker5allocEi.exit.i
	ori	$a1, $zero, 1
	move	$a0, $a2
	pcaddu18i	$ra, %call36(calloc)
	jirl	$ra, $ra, 0
	st.d	$a0, $fp, 8
	beqz	$a0, .LBB7_6
# %bb.4:                                # %if.end8.i
	st.d	$a0, $fp, 16
	ld.d	$fp, $sp, 0                     # 8-byte Folded Reload
	ld.d	$ra, $sp, 8                     # 8-byte Folded Reload
	addi.d	$sp, $sp, 16
	ret
.LBB7_5:                                # %if.then.i
	vrepli.b	$vr0, 0
	vst	$vr0, $fp, 8
	ld.d	$fp, $sp, 0                     # 8-byte Folded Reload
	ld.d	$ra, $sp, 8                     # 8-byte Folded Reload
	addi.d	$sp, $sp, 16
	ret
.LBB7_6:                                # %if.then7.i
	pcalau12i	$a0, %pc_hi20(.L.str.59)
	addi.d	$a0, $a0, %pc_lo12(.L.str.59)
	pcaddu18i	$ra, %call36(_Z4quitPKc)
	jirl	$ra, $ra, 0
.Lfunc_end7:
	.size	_ZN5ArrayIhLi0EEC2Ei, .Lfunc_end7-_ZN5ArrayIhLi0EEC2Ei
	.cfi_endproc
                                        # -- End function
	.section	.text._ZN5ArrayIhLi0EED2Ev,"axG",@progbits,_ZN5ArrayIhLi0EED2Ev,comdat
	.weak	_ZN5ArrayIhLi0EED2Ev            # -- Begin function _ZN5ArrayIhLi0EED2Ev
	.p2align	5
	.type	_ZN5ArrayIhLi0EED2Ev,@function
_ZN5ArrayIhLi0EED2Ev:                   # @_ZN5ArrayIhLi0EED2Ev
# %bb.0:                                # %entry
	ld.w	$a2, $a0, 0
	pcalau12i	$a1, %pc_hi20(programChecker)
	addi.d	$a1, $a1, %pc_lo12(programChecker)
	ld.w	$a3, $a1, 0
	ld.w	$a4, $a1, 4
	sub.w	$a2, $a3, $a2
	st.w	$a2, $a1, 0
	bge	$a4, $a2, .LBB8_2
# %bb.1:                                # %if.then.i
	st.w	$a2, $a1, 4
.LBB8_2:                                # %_ZN14ProgramChecker5allocEi.exit
	ld.d	$a0, $a0, 8
	pcaddu18i	$t8, %call36(free)
	jr	$t8
.Lfunc_end8:
	.size	_ZN5ArrayIhLi0EED2Ev, .Lfunc_end8-_ZN5ArrayIhLi0EED2Ev
                                        # -- End function
	.text
	.globl	_Z6squashi                      # -- Begin function _Z6squashi
	.p2align	5
	.type	_Z6squashi,@function
_Z6squashi:                             # @_Z6squashi
# %bb.0:                                # %entry
	ori	$a2, $zero, 2047
	ori	$a1, $zero, 4095
	blt	$a2, $a0, .LBB9_4
# %bb.1:                                # %if.end
	addi.w	$a1, $zero, -2047
	bge	$a0, $a1, .LBB9_3
# %bb.2:
	move	$a0, $zero
	ret
.LBB9_3:                                # %if.end3
	andi	$a1, $a0, 127
	srai.d	$a0, $a0, 7
	pcalau12i	$a2, %pc_hi20(_ZZ6squashiE1t)
	addi.d	$a2, $a2, %pc_lo12(_ZZ6squashiE1t)
	alsl.d	$a0, $a0, $a2, 2
	ld.w	$a2, $a0, 64
	ld.w	$a0, $a0, 68
	ori	$a3, $zero, 128
	sub.d	$a3, $a3, $a1
	mul.d	$a2, $a2, $a3
	mul.d	$a0, $a0, $a1
	add.d	$a0, $a2, $a0
	addi.w	$a0, $a0, 64
	srai.d	$a1, $a0, 7
.LBB9_4:                                # %return
	move	$a0, $a1
	ret
.Lfunc_end9:
	.size	_Z6squashi, .Lfunc_end9-_Z6squashi
                                        # -- End function
	.section	.text._ZN7StretchD2Ev,"axG",@progbits,_ZN7StretchD2Ev,comdat
	.weak	_ZN7StretchD2Ev                 # -- Begin function _ZN7StretchD2Ev
	.p2align	5
	.type	_ZN7StretchD2Ev,@function
_ZN7StretchD2Ev:                        # @_ZN7StretchD2Ev
# %bb.0:                                # %entry
	ld.w	$a2, $a0, 0
	pcalau12i	$a1, %pc_hi20(programChecker)
	addi.d	$a1, $a1, %pc_lo12(programChecker)
	ld.w	$a3, $a1, 0
	ld.w	$a4, $a1, 4
	slli.d	$a2, $a2, 1
	sub.w	$a2, $a3, $a2
	st.w	$a2, $a1, 0
	bge	$a4, $a2, .LBB10_2
# %bb.1:                                # %if.then.i.i
	st.w	$a2, $a1, 4
.LBB10_2:                               # %_ZN5ArrayIsLi0EED2Ev.exit
	ld.d	$a0, $a0, 8
	pcaddu18i	$t8, %call36(free)
	jr	$t8
.Lfunc_end10:
	.size	_ZN7StretchD2Ev, .Lfunc_end10-_ZN7StretchD2Ev
                                        # -- End function
	.text
	.globl	_ZN7StretchC2Ev                 # -- Begin function _ZN7StretchC2Ev
	.p2align	5
	.type	_ZN7StretchC2Ev,@function
_ZN7StretchC2Ev:                        # @_ZN7StretchC2Ev
	.cfi_startproc
# %bb.0:                                # %entry
	addi.d	$sp, $sp, -32
	.cfi_def_cfa_offset 32
	st.d	$ra, $sp, 24                    # 8-byte Folded Spill
	st.d	$fp, $sp, 16                    # 8-byte Folded Spill
	st.d	$s0, $sp, 8                     # 8-byte Folded Spill
	.cfi_offset 1, -8
	.cfi_offset 22, -16
	.cfi_offset 23, -24
	lu12i.w	$s0, 1
	move	$fp, $a0
	move	$a0, $s0
	lu32i.d	$a0, 4096
	st.d	$a0, $fp, 0
	pcalau12i	$a0, %pc_hi20(programChecker)
	addi.d	$a0, $a0, %pc_lo12(programChecker)
	ld.w	$a1, $a0, 0
	ld.w	$a2, $a0, 4
	lu12i.w	$a3, 2
	add.w	$a1, $a1, $a3
	st.w	$a1, $a0, 0
	bge	$a2, $a1, .LBB11_2
# %bb.1:                                # %if.then.i.i.i
	st.w	$a1, $a0, 4
.LBB11_2:                               # %_ZN14ProgramChecker5allocEi.exit.i.i
	lu12i.w	$a0, 2
	ori	$a1, $zero, 1
	pcaddu18i	$ra, %call36(calloc)
	jirl	$ra, $ra, 0
	st.d	$a0, $fp, 8
	beqz	$a0, .LBB11_22
# %bb.3:                                # %_ZN5ArrayIsLi0EEC2Ei.exit
	st.d	$a0, $fp, 16
	addi.d	$a1, $a0, 16
	addi.w	$a2, $zero, -2047
	pcalau12i	$a3, %pc_hi20(_ZZ6squashiE1t)
	addi.d	$a3, $a3, %pc_lo12(_ZZ6squashiE1t)
	move	$t2, $zero
	ori	$a4, $zero, 128
	ori	$a5, $zero, 2048
	ori	$a6, $zero, 8
	ori	$a7, $zero, 16
	b	.LBB11_6
	.p2align	4, , 16
.LBB11_4:                               # %_Z6squashi.exit.for.cond.cleanup4_crit_edge
                                        #   in Loop: Header=BB11_6 Depth=1
	addi.w	$t0, $t1, 1
.LBB11_5:                               # %for.cond.cleanup4
                                        #   in Loop: Header=BB11_6 Depth=1
	addi.w	$a2, $a2, 1
	move	$t2, $t0
	beq	$a2, $a5, .LBB11_21
.LBB11_6:                               # %_Z6squashi.exit
                                        # =>This Loop Header: Depth=1
                                        #     Child Loop BB11_15 Depth 2
                                        #     Child Loop BB11_12 Depth 2
                                        #     Child Loop BB11_20 Depth 2
	srai.d	$t0, $a2, 7
	alsl.d	$t0, $t0, $a3, 2
	ld.w	$t1, $t0, 64
	ld.w	$t0, $t0, 68
	andi	$t3, $a2, 127
	sub.d	$t4, $a4, $t3
	mul.d	$t1, $t1, $t4
	mul.d	$t0, $t0, $t3
	add.d	$t0, $t1, $t0
	addi.w	$t0, $t0, 64
	srai.d	$t1, $t0, 7
	blt	$t1, $t2, .LBB11_4
# %bb.7:                                # %iter.check
                                        #   in Loop: Header=BB11_6 Depth=1
	addi.w	$t0, $t1, 1
	sub.w	$t3, $t0, $t2
	bgeu	$t3, $a6, .LBB11_9
# %bb.8:                                #   in Loop: Header=BB11_6 Depth=1
	move	$t5, $t2
	b	.LBB11_19
	.p2align	4, , 16
.LBB11_9:                               # %vector.main.loop.iter.check
                                        #   in Loop: Header=BB11_6 Depth=1
	vreplgr2vr.h	$vr0, $a2
	bgeu	$t3, $a7, .LBB11_14
# %bb.10:                               #   in Loop: Header=BB11_6 Depth=1
	move	$t4, $zero
.LBB11_11:                              # %vec.epilog.ph
                                        #   in Loop: Header=BB11_6 Depth=1
	bstrpick.d	$t5, $t3, 30, 3
	slli.d	$t6, $t5, 3
	alsl.d	$t5, $t5, $t2, 3
	slli.d	$t7, $t4, 1
	alsl.d	$t2, $t2, $t7, 1
	add.d	$t2, $a0, $t2
	sub.d	$t4, $t4, $t6
	.p2align	4, , 16
.LBB11_12:                              # %vec.epilog.vector.body
                                        #   Parent Loop BB11_6 Depth=1
                                        # =>  This Inner Loop Header: Depth=2
	vst	$vr0, $t2, 0
	addi.d	$t4, $t4, 8
	addi.d	$t2, $t2, 16
	bnez	$t4, .LBB11_12
# %bb.13:                               # %vec.epilog.middle.block
                                        #   in Loop: Header=BB11_6 Depth=1
	beq	$t6, $t3, .LBB11_5
	b	.LBB11_19
.LBB11_14:                              # %vector.ph
                                        #   in Loop: Header=BB11_6 Depth=1
	andi	$t5, $t3, 8
	bstrpick.d	$t4, $t3, 30, 4
	slli.d	$t4, $t4, 4
	alsl.d	$t6, $t2, $a1, 1
	move	$t7, $t4
	.p2align	4, , 16
.LBB11_15:                              # %vector.body
                                        #   Parent Loop BB11_6 Depth=1
                                        # =>  This Inner Loop Header: Depth=2
	vst	$vr0, $t6, -16
	vst	$vr0, $t6, 0
	addi.d	$t7, $t7, -16
	addi.d	$t6, $t6, 32
	bnez	$t7, .LBB11_15
# %bb.16:                               # %middle.block
                                        #   in Loop: Header=BB11_6 Depth=1
	beq	$t4, $t3, .LBB11_5
# %bb.17:                               # %vec.epilog.iter.check
                                        #   in Loop: Header=BB11_6 Depth=1
	bnez	$t5, .LBB11_11
# %bb.18:                               #   in Loop: Header=BB11_6 Depth=1
	add.d	$t5, $t4, $t2
	.p2align	4, , 16
.LBB11_19:                              # %for.body5.preheader
                                        #   in Loop: Header=BB11_6 Depth=1
	alsl.d	$t2, $t5, $a0, 1
	sub.d	$t1, $t1, $t5
	addi.d	$t1, $t1, 1
	.p2align	4, , 16
.LBB11_20:                              # %for.body5
                                        #   Parent Loop BB11_6 Depth=1
                                        # =>  This Inner Loop Header: Depth=2
	st.h	$a2, $t2, 0
	addi.d	$t1, $t1, -1
	addi.d	$t2, $t2, 2
	bnez	$t1, .LBB11_20
	b	.LBB11_5
.LBB11_21:                              # %for.cond.cleanup
	ori	$a1, $s0, 4094
	ori	$a2, $zero, 2047
	stx.h	$a2, $a0, $a1
	ld.d	$s0, $sp, 8                     # 8-byte Folded Reload
	ld.d	$fp, $sp, 16                    # 8-byte Folded Reload
	ld.d	$ra, $sp, 24                    # 8-byte Folded Reload
	addi.d	$sp, $sp, 32
	ret
.LBB11_22:                              # %if.then7.i.i
	pcalau12i	$a0, %pc_hi20(.L.str.59)
	addi.d	$a0, $a0, %pc_lo12(.L.str.59)
	pcaddu18i	$ra, %call36(_Z4quitPKc)
	jirl	$ra, $ra, 0
.Lfunc_end11:
	.size	_ZN7StretchC2Ev, .Lfunc_end11-_ZN7StretchC2Ev
	.cfi_endproc
                                        # -- End function
	.globl	_Z11dot_productPsS_i            # -- Begin function _Z11dot_productPsS_i
	.p2align	5
	.type	_Z11dot_productPsS_i,@function
_Z11dot_productPsS_i:                   # @_Z11dot_productPsS_i
# %bb.0:                                # %entry
	blez	$a2, .LBB12_3
# %bb.1:                                # %for.body.preheader
	addi.d	$sp, $sp, -16
	st.d	$fp, $sp, 8                     # 8-byte Folded Spill
	st.d	$s0, $sp, 0                     # 8-byte Folded Spill
	addi.d	$a2, $a2, 7
	bstrpick.d	$a2, $a2, 30, 3
	slli.d	$a3, $a2, 3
	ori	$a2, $zero, 2
	sltu	$a4, $a2, $a3
	masknez	$a2, $a2, $a4
	maskeqz	$a4, $a3, $a4
	or	$a2, $a4, $a2
	addi.d	$a4, $a2, -1
	ori	$a2, $zero, 1
	bne	$a4, $a2, .LBB12_4
# %bb.2:
	move	$a4, $zero
	move	$a2, $zero
	b	.LBB12_7
.LBB12_3:
	move	$a0, $zero
	ret
.LBB12_4:                               # %vector.ph
	move	$a2, $zero
	move	$a7, $zero
	srli.d	$a4, $a4, 1
	addi.d	$a5, $a4, 1
	bstrpick.d	$a4, $a5, 62, 1
	slli.d	$a6, $a4, 1
	slli.d	$a4, $a4, 2
	addi.d	$t0, $a1, 4
	addi.d	$t1, $a0, 4
	move	$t2, $a6
	.p2align	4, , 16
.LBB12_5:                               # %vector.body
                                        # =>This Inner Loop Header: Depth=1
	ld.h	$t3, $t1, -4
	ld.h	$t4, $t1, 0
	ld.h	$t5, $t0, -4
	ld.h	$t6, $t0, 0
	ld.h	$t7, $t1, -2
	ld.h	$t8, $t1, 2
	ld.h	$fp, $t0, -2
	ld.h	$s0, $t0, 2
	mul.d	$t3, $t5, $t3
	mul.d	$t4, $t6, $t4
	mul.d	$t5, $fp, $t7
	mul.d	$t6, $s0, $t8
	add.w	$t3, $t5, $t3
	add.w	$t4, $t6, $t4
	srli.d	$t3, $t3, 8
	srli.d	$t4, $t4, 8
	add.d	$a2, $t3, $a2
	add.d	$a7, $t4, $a7
	addi.d	$t2, $t2, -2
	addi.d	$t0, $t0, 8
	addi.d	$t1, $t1, 8
	bnez	$t2, .LBB12_5
# %bb.6:                                # %middle.block
	add.w	$a2, $a7, $a2
	beq	$a5, $a6, .LBB12_9
.LBB12_7:                               # %for.body.preheader15
	slli.d	$a5, $a4, 1
	addi.d	$a5, $a5, 2
	add.d	$a1, $a1, $a5
	add.d	$a0, $a0, $a5
	.p2align	4, , 16
.LBB12_8:                               # %for.body
                                        # =>This Inner Loop Header: Depth=1
	ld.h	$a5, $a0, -2
	ld.h	$a6, $a1, -2
	ld.h	$a7, $a0, 0
	ld.h	$t0, $a1, 0
	mul.d	$a5, $a6, $a5
	mul.d	$a6, $t0, $a7
	add.w	$a5, $a6, $a5
	srli.d	$a5, $a5, 8
	add.w	$a2, $a5, $a2
	addi.d	$a4, $a4, 2
	addi.d	$a1, $a1, 4
	addi.d	$a0, $a0, 4
	bltu	$a4, $a3, .LBB12_8
.LBB12_9:
	ld.d	$s0, $sp, 0                     # 8-byte Folded Reload
	ld.d	$fp, $sp, 8                     # 8-byte Folded Reload
	addi.d	$sp, $sp, 16
	move	$a0, $a2
	ret
.Lfunc_end12:
	.size	_Z11dot_productPsS_i, .Lfunc_end12-_Z11dot_productPsS_i
                                        # -- End function
	.globl	_Z5trainPsS_ii                  # -- Begin function _Z5trainPsS_ii
	.p2align	5
	.type	_Z5trainPsS_ii,@function
_Z5trainPsS_ii:                         # @_Z5trainPsS_ii
# %bb.0:                                # %entry
	blez	$a2, .LBB13_7
# %bb.1:                                # %for.body.preheader
	addi.w	$a5, $a2, 7
	move	$a2, $a5
	bstrins.d	$a2, $zero, 2, 0
	ori	$a4, $zero, 1
	slt	$a6, $a4, $a2
	masknez	$a4, $a4, $a6
	maskeqz	$a2, $a2, $a6
	or	$a4, $a2, $a4
	ori	$a6, $zero, 8
	lu12i.w	$a2, -8
	blt	$a5, $a6, .LBB13_4
# %bb.2:                                # %vector.memcheck
	alsl.d	$a5, $a4, $a0, 1
	bgeu	$a1, $a5, .LBB13_8
# %bb.3:                                # %vector.memcheck
	alsl.d	$a5, $a4, $a1, 1
	bgeu	$a0, $a5, .LBB13_8
.LBB13_4:
	move	$a5, $zero
.LBB13_5:                               # %for.body.preheader14
	alsl.d	$a0, $a5, $a0, 1
	alsl.d	$a1, $a5, $a1, 1
	sub.d	$a4, $a5, $a4
	lu12i.w	$a5, 7
	ori	$a5, $a5, 4095
	.p2align	4, , 16
.LBB13_6:                               # %for.body
                                        # =>This Inner Loop Header: Depth=1
	ld.h	$a6, $a0, 0
	ld.h	$a7, $a1, 0
	mul.w	$a6, $a3, $a6
	srli.d	$a6, $a6, 15
	addi.w	$a6, $a6, 1
	srai.d	$a6, $a6, 1
	add.d	$a6, $a6, $a7
	slt	$a7, $a2, $a6
	maskeqz	$a6, $a6, $a7
	masknez	$a7, $a2, $a7
	or	$a6, $a6, $a7
	slt	$a7, $a6, $a5
	maskeqz	$a6, $a6, $a7
	masknez	$a7, $a5, $a7
	or	$a6, $a6, $a7
	st.h	$a6, $a1, 0
	addi.d	$a0, $a0, 2
	addi.d	$a4, $a4, 1
	addi.d	$a1, $a1, 2
	bnez	$a4, .LBB13_6
.LBB13_7:                               # %for.cond.cleanup
	ret
.LBB13_8:                               # %vector.ph
	bstrpick.d	$a5, $a4, 30, 3
	slli.d	$a5, $a5, 3
	vreplgr2vr.w	$vr0, $a3
	vreplgr2vr.w	$vr1, $a2
	vldi	$vr2, -2433
	move	$a6, $a1
	move	$a7, $a0
	move	$t0, $a5
	.p2align	4, , 16
.LBB13_9:                               # %vector.body
                                        # =>This Inner Loop Header: Depth=1
	vld	$vr3, $a6, 0
	vilvh.h	$vr4, $vr3, $vr3
	vslli.w	$vr4, $vr4, 16
	vsrai.w	$vr4, $vr4, 16
	vld	$vr5, $a7, 0
	vilvl.h	$vr3, $vr3, $vr3
	vslli.w	$vr3, $vr3, 16
	vsrai.w	$vr3, $vr3, 16
	vilvl.h	$vr6, $vr5, $vr5
	vslli.w	$vr6, $vr6, 16
	vsrai.w	$vr6, $vr6, 16
	vilvh.h	$vr5, $vr5, $vr5
	vslli.w	$vr5, $vr5, 16
	vsrai.w	$vr5, $vr5, 16
	vmul.w	$vr5, $vr0, $vr5
	vmul.w	$vr6, $vr0, $vr6
	vsrai.w	$vr6, $vr6, 15
	vsrai.w	$vr5, $vr5, 15
	vaddi.wu	$vr5, $vr5, 1
	vsrai.w	$vr5, $vr5, 1
	vaddi.wu	$vr6, $vr6, 1
	vsrai.w	$vr6, $vr6, 1
	vadd.w	$vr3, $vr6, $vr3
	vadd.w	$vr4, $vr5, $vr4
	vmax.w	$vr4, $vr4, $vr1
	vmax.w	$vr3, $vr3, $vr1
	vmin.w	$vr3, $vr3, $vr2
	vmin.w	$vr4, $vr4, $vr2
	vpickev.h	$vr3, $vr4, $vr3
	vst	$vr3, $a6, 0
	addi.d	$t0, $t0, -8
	addi.d	$a7, $a7, 16
	addi.d	$a6, $a6, 16
	bnez	$t0, .LBB13_9
# %bb.10:                               # %middle.block
	beq	$a5, $a4, .LBB13_7
	b	.LBB13_5
.Lfunc_end13:
	.size	_Z5trainPsS_ii, .Lfunc_end13-_Z5trainPsS_ii
                                        # -- End function
	.globl	_ZN5MixerD2Ev                   # -- Begin function _ZN5MixerD2Ev
	.p2align	5
	.type	_ZN5MixerD2Ev,@function
_ZN5MixerD2Ev:                          # @_ZN5MixerD2Ev
# %bb.0:                                # %entry
	addi.d	$sp, $sp, -32
	st.d	$ra, $sp, 24                    # 8-byte Folded Spill
	st.d	$fp, $sp, 16                    # 8-byte Folded Spill
	st.d	$s0, $sp, 8                     # 8-byte Folded Spill
	move	$fp, $a0
	ld.d	$s0, $a0, 128
	beqz	$s0, .LBB14_2
# %bb.1:                                # %delete.notnull
	move	$a0, $s0
	pcaddu18i	$ra, %call36(_ZN5MixerD2Ev)
	jirl	$ra, $ra, 0
	ori	$a1, $zero, 136
	move	$a0, $s0
	pcaddu18i	$ra, %call36(_ZdlPvm)
	jirl	$ra, $ra, 0
.LBB14_2:                               # %delete.end
	ld.w	$a0, $fp, 104
	pcalau12i	$a1, %pc_hi20(programChecker)
	addi.d	$s0, $a1, %pc_lo12(programChecker)
	ld.w	$a1, $s0, 0
	ld.w	$a2, $s0, 4
	slli.d	$a0, $a0, 2
	sub.w	$a0, $a1, $a0
	st.w	$a0, $s0, 0
	bge	$a2, $a0, .LBB14_4
# %bb.3:                                # %if.then.i.i
	st.w	$a0, $s0, 4
.LBB14_4:                               # %_ZN5ArrayIiLi0EED2Ev.exit
	ld.d	$a0, $fp, 112
	pcaddu18i	$ra, %call36(free)
	jirl	$ra, $ra, 0
	ld.w	$a0, $fp, 64
	ld.w	$a1, $s0, 0
	ld.w	$a2, $s0, 4
	slli.d	$a0, $a0, 2
	sub.w	$a0, $a1, $a0
	st.w	$a0, $s0, 0
	bge	$a2, $a0, .LBB14_6
# %bb.5:                                # %if.then.i.i4
	st.w	$a0, $s0, 4
.LBB14_6:                               # %_ZN5ArrayIiLi0EED2Ev.exit5
	ld.d	$a0, $fp, 72
	pcaddu18i	$ra, %call36(free)
	jirl	$ra, $ra, 0
	ld.w	$a0, $fp, 40
	ld.w	$a1, $s0, 0
	ld.w	$a2, $s0, 4
	slli.d	$a0, $a0, 1
	sub.d	$a0, $a1, $a0
	addi.w	$a0, $a0, -16
	st.w	$a0, $s0, 0
	bge	$a2, $a0, .LBB14_8
# %bb.7:                                # %if.then.i.i9
	st.w	$a0, $s0, 4
.LBB14_8:                               # %_ZN5ArrayIsLi16EED2Ev.exit
	ld.d	$a0, $fp, 48
	pcaddu18i	$ra, %call36(free)
	jirl	$ra, $ra, 0
	ld.w	$a0, $fp, 16
	ld.w	$a1, $s0, 0
	ld.w	$a2, $s0, 4
	slli.d	$a0, $a0, 1
	sub.d	$a0, $a1, $a0
	addi.w	$a0, $a0, -16
	st.w	$a0, $s0, 0
	bge	$a2, $a0, .LBB14_10
# %bb.9:                                # %if.then.i.i15
	st.w	$a0, $s0, 4
.LBB14_10:                              # %_ZN5ArrayIsLi16EED2Ev.exit16
	ld.d	$a0, $fp, 24
	ld.d	$s0, $sp, 8                     # 8-byte Folded Reload
	ld.d	$fp, $sp, 16                    # 8-byte Folded Reload
	ld.d	$ra, $sp, 24                    # 8-byte Folded Reload
	addi.d	$sp, $sp, 32
	pcaddu18i	$t8, %call36(free)
	jr	$t8
.Lfunc_end14:
	.size	_ZN5MixerD2Ev, .Lfunc_end14-_ZN5MixerD2Ev
                                        # -- End function
	.section	.text._ZN5ArrayIiLi0EED2Ev,"axG",@progbits,_ZN5ArrayIiLi0EED2Ev,comdat
	.weak	_ZN5ArrayIiLi0EED2Ev            # -- Begin function _ZN5ArrayIiLi0EED2Ev
	.p2align	5
	.type	_ZN5ArrayIiLi0EED2Ev,@function
_ZN5ArrayIiLi0EED2Ev:                   # @_ZN5ArrayIiLi0EED2Ev
# %bb.0:                                # %entry
	ld.w	$a2, $a0, 0
	pcalau12i	$a1, %pc_hi20(programChecker)
	addi.d	$a1, $a1, %pc_lo12(programChecker)
	ld.w	$a3, $a1, 0
	ld.w	$a4, $a1, 4
	slli.d	$a2, $a2, 2
	sub.w	$a2, $a3, $a2
	st.w	$a2, $a1, 0
	bge	$a4, $a2, .LBB15_2
# %bb.1:                                # %if.then.i
	st.w	$a2, $a1, 4
.LBB15_2:                               # %_ZN14ProgramChecker5allocEi.exit
	ld.d	$a0, $a0, 8
	pcaddu18i	$t8, %call36(free)
	jr	$t8
.Lfunc_end15:
	.size	_ZN5ArrayIiLi0EED2Ev, .Lfunc_end15-_ZN5ArrayIiLi0EED2Ev
                                        # -- End function
	.section	.text._ZN5ArrayIsLi16EED2Ev,"axG",@progbits,_ZN5ArrayIsLi16EED2Ev,comdat
	.weak	_ZN5ArrayIsLi16EED2Ev           # -- Begin function _ZN5ArrayIsLi16EED2Ev
	.p2align	5
	.type	_ZN5ArrayIsLi16EED2Ev,@function
_ZN5ArrayIsLi16EED2Ev:                  # @_ZN5ArrayIsLi16EED2Ev
# %bb.0:                                # %entry
	ld.w	$a1, $a0, 0
	slli.d	$a2, $a1, 1
	pcalau12i	$a1, %pc_hi20(programChecker)
	addi.d	$a1, $a1, %pc_lo12(programChecker)
	ld.w	$a3, $a1, 0
	ld.w	$a4, $a1, 4
	sub.d	$a2, $a3, $a2
	addi.w	$a2, $a2, -16
	st.w	$a2, $a1, 0
	bge	$a4, $a2, .LBB16_2
# %bb.1:                                # %if.then.i
	st.w	$a2, $a1, 4
.LBB16_2:                               # %_ZN14ProgramChecker5allocEi.exit
	ld.d	$a0, $a0, 8
	pcaddu18i	$t8, %call36(free)
	jr	$t8
.Lfunc_end16:
	.size	_ZN5ArrayIsLi16EED2Ev, .Lfunc_end16-_ZN5ArrayIsLi16EED2Ev
                                        # -- End function
	.text
	.globl	_ZN5MixerC2Eiiii                # -- Begin function _ZN5MixerC2Eiiii
	.p2align	5
	.type	_ZN5MixerC2Eiiii,@function
_ZN5MixerC2Eiiii:                       # @_ZN5MixerC2Eiiii
.Lfunc_begin0:
	.cfi_startproc
	.cfi_personality 155, DW.ref.__gxx_personality_v0
	.cfi_lsda 27, .Lexception0
# %bb.0:                                # %entry
	addi.d	$sp, $sp, -96
	.cfi_def_cfa_offset 96
	st.d	$ra, $sp, 88                    # 8-byte Folded Spill
	st.d	$fp, $sp, 80                    # 8-byte Folded Spill
	st.d	$s0, $sp, 72                    # 8-byte Folded Spill
	st.d	$s1, $sp, 64                    # 8-byte Folded Spill
	st.d	$s2, $sp, 56                    # 8-byte Folded Spill
	st.d	$s3, $sp, 48                    # 8-byte Folded Spill
	st.d	$s4, $sp, 40                    # 8-byte Folded Spill
	st.d	$s5, $sp, 32                    # 8-byte Folded Spill
	st.d	$s6, $sp, 24                    # 8-byte Folded Spill
	st.d	$s7, $sp, 16                    # 8-byte Folded Spill
	.cfi_offset 1, -8
	.cfi_offset 22, -16
	.cfi_offset 23, -24
	.cfi_offset 24, -32
	.cfi_offset 25, -40
	.cfi_offset 26, -48
	.cfi_offset 27, -56
	.cfi_offset 28, -64
	.cfi_offset 29, -72
	.cfi_offset 30, -80
	move	$s1, $a4
	move	$s0, $a3
	move	$s2, $a2
	move	$fp, $a0
	addi.w	$s3, $a1, 7
	bstrins.d	$s3, $zero, 2, 0
	st.w	$s3, $a0, 0
	st.w	$a2, $a0, 4
	st.w	$a3, $a0, 8
	st.w	$s3, $a0, 20
	st.w	$s3, $a0, 16
	pcalau12i	$a0, %pc_hi20(programChecker)
	addi.d	$s5, $a0, %pc_lo12(programChecker)
	blez	$a1, .LBB17_22
# %bb.1:                                # %if.end.i.i
	slli.d	$a1, $s3, 1
	ori	$a0, $zero, 16
	ld.w	$a2, $s5, 0
	ld.w	$a3, $s5, 4
	alsl.w	$a0, $s3, $a0, 1
	addi.d	$a1, $a1, 16
	add.w	$a1, $a2, $a1
	st.w	$a1, $s5, 0
	bge	$a3, $a1, .LBB17_3
# %bb.2:                                # %if.then.i.i.i
	st.w	$a1, $s5, 4
.LBB17_3:                               # %_ZN14ProgramChecker5allocEi.exit.i.i
	ori	$a1, $zero, 1
	pcaddu18i	$ra, %call36(calloc)
	jirl	$ra, $ra, 0
	st.d	$a0, $fp, 24
	beqz	$a0, .LBB17_40
# %bb.4:                                # %if.end8.i.i
	bstrins.d	$a0, $zero, 3, 0
	addi.d	$a0, $a0, 16
	st.d	$a0, $fp, 32
	mul.w	$s3, $s3, $s2
	st.w	$s3, $fp, 44
	st.w	$s3, $fp, 40
	blez	$s3, .LBB17_23
.LBB17_5:                               # %if.end.i.i12
	slli.d	$a1, $s3, 1
	ori	$a0, $zero, 16
	ld.w	$a2, $s5, 0
	ld.w	$a3, $s5, 4
	alsl.w	$a0, $s3, $a0, 1
	addi.d	$a1, $a1, 16
	add.w	$a1, $a2, $a1
	st.w	$a1, $s5, 0
	bge	$a3, $a1, .LBB17_7
# %bb.6:                                # %if.then.i.i.i28
	st.w	$a1, $s5, 4
.LBB17_7:                               # %_ZN14ProgramChecker5allocEi.exit.i.i16
	ori	$a1, $zero, 1
	pcaddu18i	$ra, %call36(calloc)
	jirl	$ra, $ra, 0
	st.d	$a0, $fp, 48
	beqz	$a0, .LBB17_41
# %bb.8:                                # %if.end8.i.i21
	bstrins.d	$a0, $zero, 3, 0
	addi.d	$s4, $a0, 16
	st.d	$s4, $fp, 56
	st.w	$s0, $fp, 68
	st.w	$s0, $fp, 64
	blez	$s0, .LBB17_24
.LBB17_9:                               # %if.end.i.i34
	ld.w	$a0, $s5, 0
	ld.w	$s6, $s5, 4
	slli.w	$s2, $s0, 2
	alsl.w	$s7, $s0, $a0, 2
	alsl.d	$a0, $s0, $a0, 2
	st.w	$a0, $s5, 0
	bge	$s6, $s7, .LBB17_11
# %bb.10:                               # %if.then.i.i.i44
	st.w	$s7, $s5, 4
	move	$s6, $s7
.LBB17_11:                              # %_ZN14ProgramChecker5allocEi.exit.i.i37
	ori	$a1, $zero, 1
	move	$a0, $s2
	pcaddu18i	$ra, %call36(calloc)
	jirl	$ra, $ra, 0
	st.d	$a0, $fp, 72
	beqz	$a0, .LBB17_43
# %bb.12:                               # %if.end.i.i50
	st.d	$a0, $fp, 80
	st.d	$zero, $fp, 88
	st.w	$zero, $fp, 96
	st.w	$s0, $fp, 108
	st.w	$s0, $fp, 104
	add.w	$a0, $s7, $s2
	st.w	$a0, $s5, 0
	bge	$s6, $a0, .LBB17_14
# %bb.13:                               # %if.then.i.i.i62
	st.w	$a0, $s5, 4
.LBB17_14:                              # %_ZN14ProgramChecker5allocEi.exit.i.i54
	ori	$a1, $zero, 1
	move	$a0, $s2
	pcaddu18i	$ra, %call36(calloc)
	jirl	$ra, $ra, 0
	st.d	$a0, $fp, 112
	beqz	$a0, .LBB17_45
# %bb.15:                               # %for.body.lr.ph
	move	$a1, $zero
	addi.d	$s2, $fp, 104
	st.d	$a0, $fp, 120
	addi.d	$s5, $fp, 128
	ori	$a2, $zero, 8
	st.d	$zero, $fp, 128
	bltu	$s0, $a2, .LBB17_19
# %bb.16:                               # %vector.ph
	bstrpick.d	$a1, $s0, 30, 3
	slli.d	$a1, $a1, 3
	addi.d	$a2, $a0, 16
	vldi	$vr0, -3832
	move	$a3, $a1
	.p2align	4, , 16
.LBB17_17:                              # %vector.body
                                        # =>This Inner Loop Header: Depth=1
	vst	$vr0, $a2, -16
	vst	$vr0, $a2, 0
	addi.d	$a3, $a3, -8
	addi.d	$a2, $a2, 32
	bnez	$a3, .LBB17_17
# %bb.18:                               # %middle.block
	beq	$a1, $s0, .LBB17_21
.LBB17_19:                              # %for.body.preheader
	alsl.d	$a0, $a1, $a0, 2
	ori	$a2, $zero, 2048
	.p2align	4, , 16
.LBB17_20:                              # %for.body
                                        # =>This Inner Loop Header: Depth=1
	st.w	$a2, $a0, 0
	addi.d	$a1, $a1, 1
	addi.d	$a0, $a0, 4
	bltu	$a1, $s0, .LBB17_20
.LBB17_21:                              # %for.cond15.preheader
	bgtz	$s3, .LBB17_25
	b	.LBB17_35
.LBB17_22:                              # %if.then.i.i
	vrepli.b	$vr0, 0
	vst	$vr0, $fp, 24
	mul.w	$s3, $s3, $s2
	st.w	$s3, $fp, 44
	st.w	$s3, $fp, 40
	bgtz	$s3, .LBB17_5
.LBB17_23:                              # %if.then.i.i29
	move	$s4, $zero
	vrepli.b	$vr0, 0
	vst	$vr0, $fp, 48
	st.w	$s0, $fp, 68
	st.w	$s0, $fp, 64
	bgtz	$s0, .LBB17_9
.LBB17_24:                              # %invoke.cont10
	addi.d	$s2, $fp, 104
	st.w	$zero, $fp, 96
	st.d	$zero, $fp, 88
	vrepli.b	$vr0, 0
	vst	$vr0, $fp, 72
	st.w	$s0, $fp, 108
	st.w	$s0, $fp, 104
	addi.d	$s5, $fp, 128
	st.d	$zero, $fp, 112
	vst	$vr0, $fp, 120
	blez	$s3, .LBB17_35
.LBB17_25:                              # %iter.check
	ori	$a0, $zero, 16
	vreplgr2vr.h	$vr0, $s1
	bgeu	$s3, $a0, .LBB17_29
# %bb.26:
	move	$a0, $zero
.LBB17_27:                              # %vec.epilog.ph
	sub.d	$a1, $s3, $a0
	alsl.d	$a0, $a0, $s4, 1
	.p2align	4, , 16
.LBB17_28:                              # %vec.epilog.vector.body
                                        # =>This Inner Loop Header: Depth=1
	vst	$vr0, $a0, 0
	addi.d	$a1, $a1, -8
	addi.d	$a0, $a0, 16
	bnez	$a1, .LBB17_28
	b	.LBB17_35
.LBB17_29:                              # %vector.ph95
	andi	$a1, $s3, 8
	bstrpick.d	$a0, $s3, 30, 4
	slli.d	$a0, $a0, 4
	addi.d	$a2, $s4, 16
	move	$a3, $a0
	.p2align	4, , 16
.LBB17_30:                              # %vector.body98
                                        # =>This Inner Loop Header: Depth=1
	vst	$vr0, $a2, -16
	vst	$vr0, $a2, 0
	addi.d	$a3, $a3, -16
	addi.d	$a2, $a2, 32
	bnez	$a3, .LBB17_30
# %bb.31:                               # %middle.block101
	beq	$s3, $a0, .LBB17_35
# %bb.32:                               # %vec.epilog.iter.check
	bnez	$a1, .LBB17_27
# %bb.33:                               # %for.body20.preheader
	slli.d	$a1, $s3, 1
	bstrpick.d	$a1, $a1, 31, 5
	slli.d	$a1, $a1, 5
	add.d	$a1, $s4, $a1
	sub.d	$a0, $s3, $a0
	.p2align	4, , 16
.LBB17_34:                              # %for.body20
                                        # =>This Inner Loop Header: Depth=1
	st.h	$s1, $a1, 0
	addi.d	$a0, $a0, -1
	addi.d	$a1, $a1, 2
	bnez	$a0, .LBB17_34
.LBB17_35:                              # %for.end26
	ori	$a0, $zero, 2
	blt	$s0, $a0, .LBB17_39
# %bb.36:                               # %if.then
.Ltmp9:                                 # EH_LABEL
	ori	$a0, $zero, 136
	pcaddu18i	$ra, %call36(_Znwm)
	jirl	$ra, $ra, 0
.Ltmp10:                                # EH_LABEL
# %bb.37:                               # %invoke.cont29
.Ltmp12:                                # EH_LABEL
	move	$s1, $a0
	lu12i.w	$a0, 7
	ori	$a4, $a0, 4095
	ori	$a2, $zero, 1
	ori	$a3, $zero, 1
	move	$a0, $s1
	move	$a1, $s0
	pcaddu18i	$ra, %call36(_ZN5MixerC2Eiiii)
	jirl	$ra, $ra, 0
.Ltmp13:                                # EH_LABEL
# %bb.38:                               # %invoke.cont33
	st.d	$s1, $s5, 0
.LBB17_39:                              # %if.end
	ld.d	$s7, $sp, 16                    # 8-byte Folded Reload
	ld.d	$s6, $sp, 24                    # 8-byte Folded Reload
	ld.d	$s5, $sp, 32                    # 8-byte Folded Reload
	ld.d	$s4, $sp, 40                    # 8-byte Folded Reload
	ld.d	$s3, $sp, 48                    # 8-byte Folded Reload
	ld.d	$s2, $sp, 56                    # 8-byte Folded Reload
	ld.d	$s1, $sp, 64                    # 8-byte Folded Reload
	ld.d	$s0, $sp, 72                    # 8-byte Folded Reload
	ld.d	$fp, $sp, 80                    # 8-byte Folded Reload
	ld.d	$ra, $sp, 88                    # 8-byte Folded Reload
	addi.d	$sp, $sp, 96
	ret
.LBB17_40:                              # %if.then7.i.i
	pcalau12i	$a0, %pc_hi20(.L.str.59)
	addi.d	$a0, $a0, %pc_lo12(.L.str.59)
	pcaddu18i	$ra, %call36(_Z4quitPKc)
	jirl	$ra, $ra, 0
.LBB17_41:                              # %if.then7.i.i27
.Ltmp0:                                 # EH_LABEL
	pcalau12i	$a0, %pc_hi20(.L.str.59)
	addi.d	$a0, $a0, %pc_lo12(.L.str.59)
	pcaddu18i	$ra, %call36(_Z4quitPKc)
	jirl	$ra, $ra, 0
.Ltmp1:                                 # EH_LABEL
# %bb.42:                               # %.noexc
.LBB17_43:                              # %if.then7.i.i43
.Ltmp6:                                 # EH_LABEL
	pcalau12i	$a0, %pc_hi20(.L.str.59)
	addi.d	$a0, $a0, %pc_lo12(.L.str.59)
	pcaddu18i	$ra, %call36(_Z4quitPKc)
	jirl	$ra, $ra, 0
.Ltmp7:                                 # EH_LABEL
# %bb.44:                               # %.noexc47
.LBB17_45:                              # %if.then7.i.i61
.Ltmp3:                                 # EH_LABEL
	pcalau12i	$a0, %pc_hi20(.L.str.59)
	addi.d	$a0, $a0, %pc_lo12(.L.str.59)
	pcaddu18i	$ra, %call36(_Z4quitPKc)
	jirl	$ra, $ra, 0
.Ltmp4:                                 # EH_LABEL
# %bb.46:                               # %.noexc65
.LBB17_47:                              # %lpad32
.Ltmp14:                                # EH_LABEL
	move	$s0, $a0
	ori	$a1, $zero, 136
	move	$a0, $s1
	pcaddu18i	$ra, %call36(_ZdlPvm)
	jirl	$ra, $ra, 0
	b	.LBB17_49
.LBB17_48:                              # %lpad13
.Ltmp11:                                # EH_LABEL
	move	$s0, $a0
.LBB17_49:                              # %ehcleanup
	move	$a0, $s2
	pcaddu18i	$ra, %call36(_ZN5ArrayIiLi0EED2Ev)
	jirl	$ra, $ra, 0
	b	.LBB17_51
.LBB17_50:                              # %lpad9
.Ltmp5:                                 # EH_LABEL
	move	$s0, $a0
.LBB17_51:                              # %ehcleanup36
	addi.d	$a0, $fp, 64
	pcaddu18i	$ra, %call36(_ZN5ArrayIiLi0EED2Ev)
	jirl	$ra, $ra, 0
	b	.LBB17_53
.LBB17_52:                              # %lpad6
.Ltmp8:                                 # EH_LABEL
	move	$s0, $a0
.LBB17_53:                              # %ehcleanup37
	addi.d	$a0, $fp, 40
	pcaddu18i	$ra, %call36(_ZN5ArrayIsLi16EED2Ev)
	jirl	$ra, $ra, 0
	addi.d	$a0, $fp, 16
	pcaddu18i	$ra, %call36(_ZN5ArrayIsLi16EED2Ev)
	jirl	$ra, $ra, 0
	move	$a0, $s0
	pcaddu18i	$ra, %call36(_Unwind_Resume)
	jirl	$ra, $ra, 0
.LBB17_54:                              # %lpad
.Ltmp2:                                 # EH_LABEL
	move	$s0, $a0
	addi.d	$a0, $fp, 16
	pcaddu18i	$ra, %call36(_ZN5ArrayIsLi16EED2Ev)
	jirl	$ra, $ra, 0
	move	$a0, $s0
	pcaddu18i	$ra, %call36(_Unwind_Resume)
	jirl	$ra, $ra, 0
.Lfunc_end17:
	.size	_ZN5MixerC2Eiiii, .Lfunc_end17-_ZN5MixerC2Eiiii
	.cfi_endproc
	.section	.gcc_except_table,"a",@progbits
	.p2align	2, 0x0
GCC_except_table17:
.Lexception0:
	.byte	255                             # @LPStart Encoding = omit
	.byte	255                             # @TType Encoding = omit
	.byte	1                               # Call site Encoding = uleb128
	.uleb128 .Lcst_end0-.Lcst_begin0
.Lcst_begin0:
	.uleb128 .Lfunc_begin0-.Lfunc_begin0    # >> Call Site 1 <<
	.uleb128 .Ltmp9-.Lfunc_begin0           #   Call between .Lfunc_begin0 and .Ltmp9
	.byte	0                               #     has no landing pad
	.byte	0                               #   On action: cleanup
	.uleb128 .Ltmp9-.Lfunc_begin0           # >> Call Site 2 <<
	.uleb128 .Ltmp10-.Ltmp9                 #   Call between .Ltmp9 and .Ltmp10
	.uleb128 .Ltmp11-.Lfunc_begin0          #     jumps to .Ltmp11
	.byte	0                               #   On action: cleanup
	.uleb128 .Ltmp12-.Lfunc_begin0          # >> Call Site 3 <<
	.uleb128 .Ltmp13-.Ltmp12                #   Call between .Ltmp12 and .Ltmp13
	.uleb128 .Ltmp14-.Lfunc_begin0          #     jumps to .Ltmp14
	.byte	0                               #   On action: cleanup
	.uleb128 .Ltmp13-.Lfunc_begin0          # >> Call Site 4 <<
	.uleb128 .Ltmp0-.Ltmp13                 #   Call between .Ltmp13 and .Ltmp0
	.byte	0                               #     has no landing pad
	.byte	0                               #   On action: cleanup
	.uleb128 .Ltmp0-.Lfunc_begin0           # >> Call Site 5 <<
	.uleb128 .Ltmp1-.Ltmp0                  #   Call between .Ltmp0 and .Ltmp1
	.uleb128 .Ltmp2-.Lfunc_begin0           #     jumps to .Ltmp2
	.byte	0                               #   On action: cleanup
	.uleb128 .Ltmp6-.Lfunc_begin0           # >> Call Site 6 <<
	.uleb128 .Ltmp7-.Ltmp6                  #   Call between .Ltmp6 and .Ltmp7
	.uleb128 .Ltmp8-.Lfunc_begin0           #     jumps to .Ltmp8
	.byte	0                               #   On action: cleanup
	.uleb128 .Ltmp3-.Lfunc_begin0           # >> Call Site 7 <<
	.uleb128 .Ltmp4-.Ltmp3                  #   Call between .Ltmp3 and .Ltmp4
	.uleb128 .Ltmp5-.Lfunc_begin0           #     jumps to .Ltmp5
	.byte	0                               #   On action: cleanup
	.uleb128 .Ltmp4-.Lfunc_begin0           # >> Call Site 8 <<
	.uleb128 .Lfunc_end17-.Ltmp4            #   Call between .Ltmp4 and .Lfunc_end17
	.byte	0                               #     has no landing pad
	.byte	0                               #   On action: cleanup
.Lcst_end0:
	.p2align	2, 0x0
                                        # -- End function
	.section	.text._ZN5ArrayIiLi0EEC2Ei,"axG",@progbits,_ZN5ArrayIiLi0EEC2Ei,comdat
	.weak	_ZN5ArrayIiLi0EEC2Ei            # -- Begin function _ZN5ArrayIiLi0EEC2Ei
	.p2align	5
	.type	_ZN5ArrayIiLi0EEC2Ei,@function
_ZN5ArrayIiLi0EEC2Ei:                   # @_ZN5ArrayIiLi0EEC2Ei
	.cfi_startproc
# %bb.0:                                # %entry
	addi.d	$sp, $sp, -16
	.cfi_def_cfa_offset 16
	st.d	$ra, $sp, 8                     # 8-byte Folded Spill
	st.d	$fp, $sp, 0                     # 8-byte Folded Spill
	.cfi_offset 1, -8
	.cfi_offset 22, -16
	move	$fp, $a0
	st.w	$a1, $a0, 4
	st.w	$a1, $a0, 0
	blez	$a1, .LBB18_5
# %bb.1:                                # %if.end.i
	slli.w	$a0, $a1, 2
	pcalau12i	$a2, %pc_hi20(programChecker)
	addi.d	$a2, $a2, %pc_lo12(programChecker)
	ld.w	$a4, $a2, 0
	ld.w	$a5, $a2, 4
	alsl.w	$a3, $a1, $a4, 2
	alsl.d	$a1, $a1, $a4, 2
	st.w	$a1, $a2, 0
	bge	$a5, $a3, .LBB18_3
# %bb.2:                                # %if.then.i.i
	st.w	$a3, $a2, 4
.LBB18_3:                               # %_ZN14ProgramChecker5allocEi.exit.i
	ori	$a1, $zero, 1
	pcaddu18i	$ra, %call36(calloc)
	jirl	$ra, $ra, 0
	st.d	$a0, $fp, 8
	beqz	$a0, .LBB18_6
# %bb.4:                                # %if.end8.i
	st.d	$a0, $fp, 16
	ld.d	$fp, $sp, 0                     # 8-byte Folded Reload
	ld.d	$ra, $sp, 8                     # 8-byte Folded Reload
	addi.d	$sp, $sp, 16
	ret
.LBB18_5:                               # %if.then.i
	vrepli.b	$vr0, 0
	vst	$vr0, $fp, 8
	ld.d	$fp, $sp, 0                     # 8-byte Folded Reload
	ld.d	$ra, $sp, 8                     # 8-byte Folded Reload
	addi.d	$sp, $sp, 16
	ret
.LBB18_6:                               # %if.then7.i
	pcalau12i	$a0, %pc_hi20(.L.str.59)
	addi.d	$a0, $a0, %pc_lo12(.L.str.59)
	pcaddu18i	$ra, %call36(_Z4quitPKc)
	jirl	$ra, $ra, 0
.Lfunc_end18:
	.size	_ZN5ArrayIiLi0EEC2Ei, .Lfunc_end18-_ZN5ArrayIiLi0EEC2Ei
	.cfi_endproc
                                        # -- End function
	.section	.rodata.cst16,"aM",@progbits,16
	.p2align	4, 0x0                          # -- Begin function _ZN4APM1C2Ei
.LCPI19_0:
	.dword	27021803924750336               # 0x60003000200000
	.dword	202663838674321568              # 0x2d001b0010000a0
.LCPI19_1:
	.dword	1396129216189170832             # 0x13600c2007800490
	.dword	6962640684841967232             # 0x60a044d02eb01e80
.LCPI19_2:
	.dword	-3368486772486930448            # 0xd140bb209f507ff0
	.dword	-544667476264165008             # 0xf870f3d0ec90e170
.LCPI19_3:
	.dword	-76281638587139232              # 0xfef0fe40fd20fb60
	.dword	-13229594495615152              # 0xffd0ffc0ff90ff50
	.text
	.globl	_ZN4APM1C2Ei
	.p2align	5
	.type	_ZN4APM1C2Ei,@function
_ZN4APM1C2Ei:                           # @_ZN4APM1C2Ei
	.cfi_startproc
# %bb.0:                                # %entry
	addi.d	$sp, $sp, -32
	.cfi_def_cfa_offset 32
	st.d	$ra, $sp, 24                    # 8-byte Folded Spill
	st.d	$fp, $sp, 16                    # 8-byte Folded Spill
	st.d	$s0, $sp, 8                     # 8-byte Folded Spill
	st.d	$s1, $sp, 0                     # 8-byte Folded Spill
	.cfi_offset 1, -8
	.cfi_offset 22, -16
	.cfi_offset 23, -24
	.cfi_offset 24, -32
	move	$s0, $a0
	st.w	$zero, $a0, 0
	st.w	$a1, $a0, 4
	slli.d	$a0, $a1, 5
	add.d	$a0, $a0, $a1
	st.w	$a0, $s0, 12
	st.w	$a0, $s0, 8
	blez	$a1, .LBB19_7
# %bb.1:                                # %if.end.i.i
	move	$fp, $a1
	slli.d	$a1, $a1, 6
	alsl.w	$a0, $fp, $a1, 1
	alsl.d	$a2, $fp, $a1, 1
	pcalau12i	$a1, %pc_hi20(programChecker)
	addi.d	$a1, $a1, %pc_lo12(programChecker)
	ld.w	$a3, $a1, 0
	ld.w	$a4, $a1, 4
	add.w	$a2, $a3, $a2
	st.w	$a2, $a1, 0
	bge	$a4, $a2, .LBB19_3
# %bb.2:                                # %if.then.i.i.i
	st.w	$a2, $a1, 4
.LBB19_3:                               # %_ZN14ProgramChecker5allocEi.exit.i.i
	ori	$a1, $zero, 1
	ori	$s1, $zero, 1
	pcaddu18i	$ra, %call36(calloc)
	jirl	$ra, $ra, 0
	st.d	$a0, $s0, 16
	beqz	$a0, .LBB19_9
# %bb.4:                                # %for.cond3.preheader.lr.ph
	pcalau12i	$a1, %pc_hi20(.LCPI19_0)
	vld	$vr0, $a1, %pc_lo12(.LCPI19_0)
	vst	$vr0, $a0, 0
	pcalau12i	$a1, %pc_hi20(.LCPI19_1)
	vld	$vr0, $a1, %pc_lo12(.LCPI19_1)
	pcalau12i	$a1, %pc_hi20(.LCPI19_2)
	vld	$vr1, $a1, %pc_lo12(.LCPI19_2)
	pcalau12i	$a1, %pc_hi20(.LCPI19_3)
	vld	$vr2, $a1, %pc_lo12(.LCPI19_3)
	vst	$vr0, $a0, 16
	vst	$vr1, $a0, 32
	st.d	$a0, $s0, 24
	vst	$vr2, $a0, 48
	lu12i.w	$a1, 15
	ori	$a1, $a1, 4080
	st.h	$a1, $a0, 64
	beq	$fp, $s1, .LBB19_8
# %bb.5:                                # %for.cond3.preheader.preheader
	bstrpick.d	$a2, $fp, 31, 0
	addi.d	$a1, $a0, 130
	addi.d	$a2, $a2, -1
	.p2align	4, , 16
.LBB19_6:                               # %for.cond3.preheader
                                        # =>This Inner Loop Header: Depth=1
	vld	$vr0, $a0, 0
	vst	$vr0, $a1, -64
	vld	$vr0, $a0, 16
	vst	$vr0, $a1, -48
	vld	$vr0, $a0, 32
	vst	$vr0, $a1, -32
	vld	$vr0, $a0, 48
	vst	$vr0, $a1, -16
	ld.h	$a3, $a0, 64
	st.h	$a3, $a1, 0
	addi.d	$a2, $a2, -1
	addi.d	$a1, $a1, 66
	bnez	$a2, .LBB19_6
	b	.LBB19_8
.LBB19_7:                               # %_ZN5ArrayItLi0EEC2Ei.exit
	vrepli.b	$vr0, 0
	vst	$vr0, $s0, 16
.LBB19_8:                               # %for.cond.cleanup
	ld.d	$s1, $sp, 0                     # 8-byte Folded Reload
	ld.d	$s0, $sp, 8                     # 8-byte Folded Reload
	ld.d	$fp, $sp, 16                    # 8-byte Folded Reload
	ld.d	$ra, $sp, 24                    # 8-byte Folded Reload
	addi.d	$sp, $sp, 32
	ret
.LBB19_9:                               # %if.then7.i.i
	pcalau12i	$a0, %pc_hi20(.L.str.59)
	addi.d	$a0, $a0, %pc_lo12(.L.str.59)
	pcaddu18i	$ra, %call36(_Z4quitPKc)
	jirl	$ra, $ra, 0
.Lfunc_end19:
	.size	_ZN4APM1C2Ei, .Lfunc_end19-_ZN4APM1C2Ei
	.cfi_endproc
                                        # -- End function
	.globl	_ZN8StateMapC2Ei                # -- Begin function _ZN8StateMapC2Ei
	.p2align	5
	.type	_ZN8StateMapC2Ei,@function
_ZN8StateMapC2Ei:                       # @_ZN8StateMapC2Ei
	.cfi_startproc
# %bb.0:                                # %entry
	addi.d	$sp, $sp, -32
	.cfi_def_cfa_offset 32
	st.d	$ra, $sp, 24                    # 8-byte Folded Spill
	st.d	$fp, $sp, 16                    # 8-byte Folded Spill
	st.d	$s0, $sp, 8                     # 8-byte Folded Spill
	.cfi_offset 1, -8
	.cfi_offset 22, -16
	.cfi_offset 23, -24
	move	$s0, $a0
	st.w	$a1, $a0, 0
	st.w	$zero, $a0, 4
	st.w	$a1, $a0, 12
	st.w	$a1, $a0, 8
	blez	$a1, .LBB20_6
# %bb.1:                                # %if.end.i.i
	move	$fp, $a1
	slli.w	$a0, $a1, 2
	pcalau12i	$a1, %pc_hi20(programChecker)
	addi.d	$a1, $a1, %pc_lo12(programChecker)
	ld.w	$a3, $a1, 0
	ld.w	$a4, $a1, 4
	alsl.w	$a2, $fp, $a3, 2
	alsl.d	$a3, $fp, $a3, 2
	st.w	$a3, $a1, 0
	bge	$a4, $a2, .LBB20_3
# %bb.2:                                # %if.then.i.i.i
	st.w	$a2, $a1, 4
.LBB20_3:                               # %_ZN14ProgramChecker5allocEi.exit.i.i
	ori	$a1, $zero, 1
	pcaddu18i	$ra, %call36(calloc)
	jirl	$ra, $ra, 0
	st.d	$a0, $s0, 16
	beqz	$a0, .LBB20_13
# %bb.4:                                # %for.body.lr.ph
	ori	$a1, $zero, 8
	st.d	$a0, $s0, 24
	bgeu	$fp, $a1, .LBB20_7
# %bb.5:
	move	$a1, $zero
	b	.LBB20_10
.LBB20_6:                               # %_ZN5ArrayIjLi0EEC2Ei.exit
	vrepli.b	$vr0, 0
	vst	$vr0, $s0, 16
	b	.LBB20_12
.LBB20_7:                               # %vector.ph
	bstrpick.d	$a1, $fp, 30, 3
	slli.d	$a1, $a1, 3
	addi.d	$a2, $a0, 16
	vldi	$vr0, -3200
	move	$a3, $a1
	.p2align	4, , 16
.LBB20_8:                               # %vector.body
                                        # =>This Inner Loop Header: Depth=1
	vst	$vr0, $a2, -16
	vst	$vr0, $a2, 0
	addi.d	$a3, $a3, -8
	addi.d	$a2, $a2, 32
	bnez	$a3, .LBB20_8
# %bb.9:                                # %middle.block
	beq	$a1, $fp, .LBB20_12
.LBB20_10:                              # %for.body.preheader
	alsl.d	$a0, $a1, $a0, 2
	lu12i.w	$a2, -524288
	lu32i.d	$a2, 0
	.p2align	4, , 16
.LBB20_11:                              # %for.body
                                        # =>This Inner Loop Header: Depth=1
	st.w	$a2, $a0, 0
	addi.d	$a1, $a1, 1
	addi.d	$a0, $a0, 4
	bltu	$a1, $fp, .LBB20_11
.LBB20_12:                              # %for.cond.cleanup
	ld.d	$s0, $sp, 8                     # 8-byte Folded Reload
	ld.d	$fp, $sp, 16                    # 8-byte Folded Reload
	ld.d	$ra, $sp, 24                    # 8-byte Folded Reload
	addi.d	$sp, $sp, 32
	ret
.LBB20_13:                              # %if.then7.i.i
	pcalau12i	$a0, %pc_hi20(.L.str.59)
	addi.d	$a0, $a0, %pc_lo12(.L.str.59)
	pcaddu18i	$ra, %call36(_Z4quitPKc)
	jirl	$ra, $ra, 0
.Lfunc_end20:
	.size	_ZN8StateMapC2Ei, .Lfunc_end20-_ZN8StateMapC2Ei
	.cfi_endproc
                                        # -- End function
	.section	.text._ZN5ArrayIjLi0EEC2Ei,"axG",@progbits,_ZN5ArrayIjLi0EEC2Ei,comdat
	.weak	_ZN5ArrayIjLi0EEC2Ei            # -- Begin function _ZN5ArrayIjLi0EEC2Ei
	.p2align	5
	.type	_ZN5ArrayIjLi0EEC2Ei,@function
_ZN5ArrayIjLi0EEC2Ei:                   # @_ZN5ArrayIjLi0EEC2Ei
	.cfi_startproc
# %bb.0:                                # %entry
	addi.d	$sp, $sp, -16
	.cfi_def_cfa_offset 16
	st.d	$ra, $sp, 8                     # 8-byte Folded Spill
	st.d	$fp, $sp, 0                     # 8-byte Folded Spill
	.cfi_offset 1, -8
	.cfi_offset 22, -16
	move	$fp, $a0
	st.w	$a1, $a0, 4
	st.w	$a1, $a0, 0
	blez	$a1, .LBB21_5
# %bb.1:                                # %if.end.i
	slli.w	$a0, $a1, 2
	pcalau12i	$a2, %pc_hi20(programChecker)
	addi.d	$a2, $a2, %pc_lo12(programChecker)
	ld.w	$a4, $a2, 0
	ld.w	$a5, $a2, 4
	alsl.w	$a3, $a1, $a4, 2
	alsl.d	$a1, $a1, $a4, 2
	st.w	$a1, $a2, 0
	bge	$a5, $a3, .LBB21_3
# %bb.2:                                # %if.then.i.i
	st.w	$a3, $a2, 4
.LBB21_3:                               # %_ZN14ProgramChecker5allocEi.exit.i
	ori	$a1, $zero, 1
	pcaddu18i	$ra, %call36(calloc)
	jirl	$ra, $ra, 0
	st.d	$a0, $fp, 8
	beqz	$a0, .LBB21_6
# %bb.4:                                # %if.end8.i
	st.d	$a0, $fp, 16
	ld.d	$fp, $sp, 0                     # 8-byte Folded Reload
	ld.d	$ra, $sp, 8                     # 8-byte Folded Reload
	addi.d	$sp, $sp, 16
	ret
.LBB21_5:                               # %if.then.i
	vrepli.b	$vr0, 0
	vst	$vr0, $fp, 8
	ld.d	$fp, $sp, 0                     # 8-byte Folded Reload
	ld.d	$ra, $sp, 8                     # 8-byte Folded Reload
	addi.d	$sp, $sp, 16
	ret
.LBB21_6:                               # %if.then7.i
	pcalau12i	$a0, %pc_hi20(.L.str.59)
	addi.d	$a0, $a0, %pc_lo12(.L.str.59)
	pcaddu18i	$ra, %call36(_Z4quitPKc)
	jirl	$ra, $ra, 0
.Lfunc_end21:
	.size	_ZN5ArrayIjLi0EEC2Ei, .Lfunc_end21-_ZN5ArrayIjLi0EEC2Ei
	.cfi_endproc
                                        # -- End function
	.section	.text._ZN5ArrayIjLi0EED2Ev,"axG",@progbits,_ZN5ArrayIjLi0EED2Ev,comdat
	.weak	_ZN5ArrayIjLi0EED2Ev            # -- Begin function _ZN5ArrayIjLi0EED2Ev
	.p2align	5
	.type	_ZN5ArrayIjLi0EED2Ev,@function
_ZN5ArrayIjLi0EED2Ev:                   # @_ZN5ArrayIjLi0EED2Ev
# %bb.0:                                # %entry
	ld.w	$a2, $a0, 0
	pcalau12i	$a1, %pc_hi20(programChecker)
	addi.d	$a1, $a1, %pc_lo12(programChecker)
	ld.w	$a3, $a1, 0
	ld.w	$a4, $a1, 4
	slli.d	$a2, $a2, 2
	sub.w	$a2, $a3, $a2
	st.w	$a2, $a1, 0
	bge	$a4, $a2, .LBB22_2
# %bb.1:                                # %if.then.i
	st.w	$a2, $a1, 4
.LBB22_2:                               # %_ZN14ProgramChecker5allocEi.exit
	ld.d	$a0, $a0, 8
	pcaddu18i	$t8, %call36(free)
	jr	$t8
.Lfunc_end22:
	.size	_ZN5ArrayIjLi0EED2Ev, .Lfunc_end22-_ZN5ArrayIjLi0EED2Ev
                                        # -- End function
	.section	.rodata.cst16,"aM",@progbits,16
	.p2align	4, 0x0                          # -- Begin function _ZN3APMC2Ei
.LCPI23_0:
	.word	0                               # 0x0
	.word	1                               # 0x1
	.word	2                               # 0x2
	.word	3                               # 0x3
	.text
	.globl	_ZN3APMC2Ei
	.p2align	5
	.type	_ZN3APMC2Ei,@function
_ZN3APMC2Ei:                            # @_ZN3APMC2Ei
	.cfi_startproc
# %bb.0:                                # %entry
	addi.d	$sp, $sp, -32
	.cfi_def_cfa_offset 32
	st.d	$ra, $sp, 24                    # 8-byte Folded Spill
	st.d	$fp, $sp, 16                    # 8-byte Folded Spill
	st.d	$s0, $sp, 8                     # 8-byte Folded Spill
	st.d	$s1, $sp, 0                     # 8-byte Folded Spill
	.cfi_offset 1, -8
	.cfi_offset 22, -16
	.cfi_offset 23, -24
	.cfi_offset 24, -32
	move	$fp, $a0
	slli.d	$s1, $a1, 4
	alsl.d	$a0, $a1, $s1, 3
	st.w	$a0, $fp, 0
	st.w	$zero, $fp, 4
	st.w	$a0, $fp, 12
	st.w	$a0, $fp, 8
	blez	$a1, .LBB23_8
# %bb.1:                                # %if.end.i.i.i
	move	$s0, $a1
	alsl.d	$a0, $a1, $a1, 1
	slli.w	$a0, $a0, 5
	pcalau12i	$a1, %pc_hi20(programChecker)
	addi.d	$a1, $a1, %pc_lo12(programChecker)
	ld.w	$a2, $a1, 0
	ld.w	$a3, $a1, 4
	add.w	$a2, $a2, $a0
	st.w	$a2, $a1, 0
	bge	$a3, $a2, .LBB23_3
# %bb.2:                                # %if.then.i.i.i.i
	st.w	$a2, $a1, 4
.LBB23_3:                               # %_ZN14ProgramChecker5allocEi.exit.i.i.i
	ori	$a1, $zero, 1
	pcaddu18i	$ra, %call36(calloc)
	jirl	$ra, $ra, 0
	st.d	$a0, $fp, 16
	beqz	$a0, .LBB23_10
# %bb.4:                                # %for.body.lr.ph.i
	alsl.w	$a1, $s0, $s1, 3
	st.d	$a0, $fp, 24
	addi.d	$a2, $a0, 16
	vldi	$vr0, -3200
	move	$a3, $a1
	.p2align	4, , 16
.LBB23_5:                               # %vector.body
                                        # =>This Inner Loop Header: Depth=1
	vst	$vr0, $a2, -16
	vst	$vr0, $a2, 0
	addi.d	$a3, $a3, -8
	addi.d	$a2, $a2, 32
	bnez	$a3, .LBB23_5
# %bb.6:                                # %vector.body14.preheader
	pcalau12i	$a2, %pc_hi20(.LCPI23_0)
	vld	$vr0, $a2, %pc_lo12(.LCPI23_0)
	lu12i.w	$a2, -349526
	ori	$a2, $a2, 2731
	vreplgr2vr.w	$vr1, $a2
	vrepli.w	$vr2, 24
	vldi	$vr3, -3576
	lu12i.w	$a2, 21845
	ori	$a2, $a2, 1366
	vreplgr2vr.w	$vr4, $a2
	addi.d	$a2, $zero, -2048
	vreplgr2vr.w	$vr5, $a2
	vrepli.w	$vr6, 127
	pcalau12i	$a2, %pc_hi20(_ZZ6squashiE1t)
	addi.d	$a2, $a2, %pc_lo12(_ZZ6squashiE1t)
	vrepli.w	$vr7, 128
	lu12i.w	$a3, -256
	vreplgr2vr.w	$vr8, $a3
	vrepli.w	$vr9, 6
	.p2align	4, , 16
.LBB23_7:                               # %vector.body14
                                        # =>This Inner Loop Header: Depth=1
	vmuh.wu	$vr10, $vr0, $vr1
	vsrli.w	$vr10, $vr10, 4
	vori.b	$vr11, $vr0, 0
	vmsub.w	$vr11, $vr10, $vr2
	vslli.w	$vr10, $vr11, 13
	vbitseti.w	$vr10, $vr10, 12
	vmuh.wu	$vr10, $vr10, $vr4
	vadd.w	$vr11, $vr10, $vr5
	vand.v	$vr10, $vr10, $vr6
	vsrai.w	$vr11, $vr11, 7
	vshuf4i.w	$vr12, $vr11, 50
	vslli.d	$vr12, $vr12, 32
	vsrai.d	$vr12, $vr12, 32
	vshuf4i.w	$vr11, $vr11, 16
	vslli.d	$vr11, $vr11, 32
	vsrai.d	$vr11, $vr11, 32
	vpickve2gr.d	$a3, $vr11, 0
	vpickve2gr.d	$a4, $vr11, 1
	vpickve2gr.d	$a5, $vr12, 0
	vpickve2gr.d	$a6, $vr12, 1
	alsl.d	$a3, $a3, $a2, 2
	alsl.d	$a4, $a4, $a2, 2
	alsl.d	$a5, $a5, $a2, 2
	alsl.d	$a6, $a6, $a2, 2
	ld.w	$a7, $a3, 64
	ld.w	$t0, $a4, 64
	ld.w	$t1, $a5, 64
	ld.w	$t2, $a6, 64
	vinsgr2vr.w	$vr11, $a7, 0
	vinsgr2vr.w	$vr11, $t0, 1
	vinsgr2vr.w	$vr11, $t1, 2
	vinsgr2vr.w	$vr11, $t2, 3
	vsub.w	$vr12, $vr7, $vr10
	vmul.w	$vr11, $vr11, $vr12
	ld.w	$a3, $a3, 68
	ld.w	$a4, $a4, 68
	ld.w	$a5, $a5, 68
	ld.w	$a6, $a6, 68
	vinsgr2vr.w	$vr12, $a3, 0
	vinsgr2vr.w	$vr12, $a4, 1
	vinsgr2vr.w	$vr12, $a5, 2
	vinsgr2vr.w	$vr12, $a6, 3
	vmadd.w	$vr11, $vr12, $vr10
	vslli.w	$vr10, $vr11, 13
	vadd.w	$vr10, $vr10, $vr3
	vand.v	$vr10, $vr10, $vr8
	vor.v	$vr10, $vr10, $vr9
	vst	$vr10, $a0, 0
	vaddi.wu	$vr0, $vr0, 4
	addi.d	$a1, $a1, -4
	addi.d	$a0, $a0, 16
	bnez	$a1, .LBB23_7
	b	.LBB23_9
.LBB23_8:                               # %_ZN8StateMapC2Ei.exit
	vrepli.b	$vr0, 0
	vst	$vr0, $fp, 16
.LBB23_9:                               # %for.cond.cleanup
	ld.d	$s1, $sp, 0                     # 8-byte Folded Reload
	ld.d	$s0, $sp, 8                     # 8-byte Folded Reload
	ld.d	$fp, $sp, 16                    # 8-byte Folded Reload
	ld.d	$ra, $sp, 24                    # 8-byte Folded Reload
	addi.d	$sp, $sp, 32
	ret
.LBB23_10:                              # %if.then7.i.i.i
	pcalau12i	$a0, %pc_hi20(.L.str.59)
	addi.d	$a0, $a0, %pc_lo12(.L.str.59)
	pcaddu18i	$ra, %call36(_Z4quitPKc)
	jirl	$ra, $ra, 0
.Lfunc_end23:
	.size	_ZN3APMC2Ei, .Lfunc_end23-_ZN3APMC2Ei
	.cfi_endproc
                                        # -- End function
	.section	.rodata.cst16,"aM",@progbits,16
	.p2align	4, 0x0                          # -- Begin function _ZN10ContextMapC2Eii
.LCPI24_0:
	.word	256                             # 0x100
	.word	0                               # 0x0
	.word	256                             # 0x100
	.word	256                             # 0x100
	.text
	.globl	_ZN10ContextMapC2Eii
	.p2align	5
	.type	_ZN10ContextMapC2Eii,@function
_ZN10ContextMapC2Eii:                   # @_ZN10ContextMapC2Eii
.Lfunc_begin1:
	.cfi_startproc
	.cfi_personality 155, DW.ref.__gxx_personality_v0
	.cfi_lsda 27, .Lexception1
# %bb.0:                                # %entry
	addi.d	$sp, $sp, -192
	.cfi_def_cfa_offset 192
	st.d	$ra, $sp, 184                   # 8-byte Folded Spill
	st.d	$fp, $sp, 176                   # 8-byte Folded Spill
	st.d	$s0, $sp, 168                   # 8-byte Folded Spill
	st.d	$s1, $sp, 160                   # 8-byte Folded Spill
	st.d	$s2, $sp, 152                   # 8-byte Folded Spill
	st.d	$s3, $sp, 144                   # 8-byte Folded Spill
	st.d	$s4, $sp, 136                   # 8-byte Folded Spill
	st.d	$s5, $sp, 128                   # 8-byte Folded Spill
	st.d	$s6, $sp, 120                   # 8-byte Folded Spill
	st.d	$s7, $sp, 112                   # 8-byte Folded Spill
	st.d	$s8, $sp, 104                   # 8-byte Folded Spill
	.cfi_offset 1, -8
	.cfi_offset 22, -16
	.cfi_offset 23, -24
	.cfi_offset 24, -32
	.cfi_offset 25, -40
	.cfi_offset 26, -48
	.cfi_offset 27, -56
	.cfi_offset 28, -64
	.cfi_offset 29, -72
	.cfi_offset 30, -80
	.cfi_offset 31, -88
	move	$s0, $a2
	move	$fp, $a0
	st.w	$a2, $a0, 0
	srai.d	$a0, $a1, 6
	st.w	$a0, $fp, 12
	st.w	$a0, $fp, 8
	pcalau12i	$a2, %pc_hi20(programChecker)
	addi.d	$s2, $a2, %pc_lo12(programChecker)
	blez	$a0, .LBB24_18
# %bb.1:                                # %if.end.i.i
	bstrpick.d	$a0, $a1, 31, 6
	ld.w	$a1, $s2, 0
	ld.w	$a2, $s2, 4
	slli.d	$a0, $a0, 6
	addi.w	$a0, $a0, 64
	add.w	$a1, $a1, $a0
	st.w	$a1, $s2, 0
	bge	$a2, $a1, .LBB24_3
# %bb.2:                                # %if.then.i.i.i
	st.w	$a1, $s2, 4
.LBB24_3:                               # %_ZN14ProgramChecker5allocEi.exit.i.i
	ori	$a1, $zero, 1
	pcaddu18i	$ra, %call36(calloc)
	jirl	$ra, $ra, 0
	st.d	$a0, $fp, 16
	beqz	$a0, .LBB24_39
# %bb.4:                                # %if.end8.i.i
	bstrins.d	$a0, $zero, 5, 0
	addi.d	$s7, $a0, 64
	st.d	$s7, $fp, 24
	st.w	$s0, $fp, 36
	st.w	$s0, $fp, 32
	blez	$s0, .LBB24_19
.LBB24_5:                               # %if.end.i.i17
	ld.w	$a0, $s2, 0
	ld.w	$s1, $s2, 4
	slli.w	$s5, $s0, 3
	alsl.w	$s3, $s0, $a0, 3
	alsl.d	$a0, $s0, $a0, 3
	st.w	$a0, $s2, 0
	bge	$s1, $s3, .LBB24_7
# %bb.6:                                # %if.then.i.i.i28
	st.w	$s3, $s2, 4
	move	$s1, $s3
.LBB24_7:                               # %_ZN14ProgramChecker5allocEi.exit.i.i21
	ori	$a1, $zero, 1
	move	$a0, $s5
	pcaddu18i	$ra, %call36(calloc)
	jirl	$ra, $ra, 0
	st.d	$a0, $fp, 40
	beqz	$a0, .LBB24_40
# %bb.8:                                # %if.end.i.i33
	move	$s6, $a0
	st.d	$a0, $fp, 48
	st.w	$s0, $fp, 60
	st.w	$s0, $fp, 56
	add.w	$s4, $s3, $s5
	st.w	$s4, $s2, 0
	bge	$s1, $s4, .LBB24_10
# %bb.9:                                # %if.then.i.i.i45
	st.w	$s4, $s2, 4
	move	$s1, $s4
.LBB24_10:                              # %_ZN14ProgramChecker5allocEi.exit.i.i37
	ori	$a1, $zero, 1
	move	$a0, $s5
	pcaddu18i	$ra, %call36(calloc)
	jirl	$ra, $ra, 0
	st.d	$a0, $fp, 64
	beqz	$a0, .LBB24_42
# %bb.11:                               # %if.end.i.i52
	move	$s8, $a0
	st.d	$a0, $fp, 72
	st.w	$s0, $fp, 84
	st.w	$s0, $fp, 80
	slli.w	$a0, $s0, 2
	alsl.w	$s3, $s0, $s4, 2
	alsl.d	$a1, $s0, $s4, 2
	st.w	$a1, $s2, 0
	bge	$s1, $s3, .LBB24_13
# %bb.12:                               # %if.then.i.i.i64
	st.w	$s3, $s2, 4
	move	$s1, $s3
.LBB24_13:                              # %_ZN14ProgramChecker5allocEi.exit.i.i56
	addi.d	$s4, $fp, 56
	ori	$a1, $zero, 1
	pcaddu18i	$ra, %call36(calloc)
	jirl	$ra, $ra, 0
	st.d	$a0, $fp, 88
	beqz	$a0, .LBB24_44
# %bb.14:                               # %if.end.i.i70
	st.d	$a0, $fp, 96
	st.w	$s0, $fp, 108
	st.w	$s0, $fp, 104
	add.w	$a0, $s3, $s5
	st.w	$a0, $s2, 0
	bge	$s1, $a0, .LBB24_16
# %bb.15:                               # %if.then.i.i.i82
	st.w	$a0, $s2, 4
.LBB24_16:                              # %_ZN14ProgramChecker5allocEi.exit.i.i74
	addi.d	$s3, $fp, 80
	ori	$a1, $zero, 1
	move	$a0, $s5
	pcaddu18i	$ra, %call36(calloc)
	jirl	$ra, $ra, 0
	st.d	$a0, $fp, 112
	beqz	$a0, .LBB24_46
# %bb.17:                               # %if.end8.i.i79
	move	$s5, $a0
	st.d	$s8, $sp, 64                    # 8-byte Folded Spill
	st.d	$s6, $sp, 72                    # 8-byte Folded Spill
	addi.d	$a0, $fp, 104
	st.d	$a0, $sp, 40                    # 8-byte Folded Spill
	st.d	$s5, $fp, 120
	b	.LBB24_20
.LBB24_18:                              # %if.then.i.i
	move	$s7, $zero
	vrepli.b	$vr0, 0
	vst	$vr0, $fp, 16
	st.w	$s0, $fp, 36
	st.w	$s0, $fp, 32
	bgtz	$s0, .LBB24_5
.LBB24_19:                              # %if.then.i.i83
	move	$s5, $zero
	st.d	$zero, $sp, 64                  # 8-byte Folded Spill
	st.d	$zero, $sp, 72                  # 8-byte Folded Spill
	vrepli.b	$vr0, 0
	vst	$vr0, $fp, 40
	addi.d	$s4, $fp, 56
	st.w	$s0, $fp, 60
	st.w	$s0, $fp, 56
	vst	$vr0, $fp, 64
	addi.d	$s3, $fp, 80
	st.w	$s0, $fp, 84
	st.w	$s0, $fp, 80
	vst	$vr0, $fp, 88
	addi.d	$a0, $fp, 104
	st.d	$a0, $sp, 40                    # 8-byte Folded Spill
	st.w	$s0, $fp, 108
	st.w	$s0, $fp, 104
	vst	$vr0, $fp, 112
.LBB24_20:                              # %invoke.cont7
	st.w	$zero, $fp, 136
	slti	$a0, $s0, 0
	slli.d	$s6, $s0, 5
	addi.d	$a1, $s6, 8
	addi.w	$a2, $zero, -1
	maskeqz	$a2, $a2, $a0
	masknez	$a0, $a1, $a0
	or	$a0, $a2, $a0
.Ltmp27:                                # EH_LABEL
	st.d	$a0, $sp, 32                    # 8-byte Folded Spill
	pcaddu18i	$ra, %call36(_Znam)
	jirl	$ra, $ra, 0
.Ltmp28:                                # EH_LABEL
# %bb.21:                               # %invoke.cont10
	move	$s8, $a0
	st.d	$s0, $a0, 0
	addi.d	$s1, $a0, 8
	beqz	$s0, .LBB24_30
# %bb.22:                               # %arrayctor.loop.preheader
	st.d	$s5, $sp, 56                    # 8-byte Folded Spill
	st.d	$s3, $sp, 16                    # 8-byte Folded Spill
	st.d	$s4, $sp, 24                    # 8-byte Folded Spill
	st.d	$s7, $sp, 48                    # 8-byte Folded Spill
	ld.w	$s7, $s2, 0
	ld.w	$s3, $s2, 4
	pcalau12i	$a0, %pc_hi20(.LCPI24_0)
	vld	$vr0, $a0, %pc_lo12(.LCPI24_0)
	vst	$vr0, $sp, 80                   # 16-byte Folded Spill
	move	$s4, $zero
	.p2align	4, , 16
.LBB24_23:                              # %arrayctor.loop
                                        # =>This Inner Loop Header: Depth=1
	add.d	$s5, $s8, $s4
	addi.w	$s7, $s7, 1024
	vld	$vr0, $sp, 80                   # 16-byte Folded Reload
	vst	$vr0, $s5, 8
	bge	$s3, $s7, .LBB24_25
# %bb.24:                               # %if.then.i.i.i.i
                                        #   in Loop: Header=BB24_23 Depth=1
	st.w	$s7, $s2, 4
	move	$s3, $s7
.LBB24_25:                              # %_ZN14ProgramChecker5allocEi.exit.i.i.i
                                        #   in Loop: Header=BB24_23 Depth=1
	ori	$a0, $zero, 1024
	ori	$a1, $zero, 1
	pcaddu18i	$ra, %call36(calloc)
	jirl	$ra, $ra, 0
	st.d	$a0, $s5, 24
	beqz	$a0, .LBB24_37
# %bb.26:                               # %for.body.lr.ph.i
                                        #   in Loop: Header=BB24_23 Depth=1
	st.d	$a0, $s5, 32
	vldi	$vr0, -3200
	vst	$vr0, $a0, 0
	vst	$vr0, $a0, 16
	vst	$vr0, $a0, 32
	vst	$vr0, $a0, 48
	vst	$vr0, $a0, 64
	vst	$vr0, $a0, 80
	vst	$vr0, $a0, 96
	vst	$vr0, $a0, 112
	vst	$vr0, $a0, 128
	vst	$vr0, $a0, 144
	vst	$vr0, $a0, 160
	vst	$vr0, $a0, 176
	vst	$vr0, $a0, 192
	vst	$vr0, $a0, 208
	vst	$vr0, $a0, 224
	vst	$vr0, $a0, 240
	vst	$vr0, $a0, 256
	vst	$vr0, $a0, 272
	vst	$vr0, $a0, 288
	vst	$vr0, $a0, 304
	vst	$vr0, $a0, 320
	vst	$vr0, $a0, 336
	vst	$vr0, $a0, 352
	vst	$vr0, $a0, 368
	vst	$vr0, $a0, 384
	vst	$vr0, $a0, 400
	vst	$vr0, $a0, 416
	vst	$vr0, $a0, 432
	vst	$vr0, $a0, 448
	vst	$vr0, $a0, 464
	vst	$vr0, $a0, 480
	vst	$vr0, $a0, 496
	vst	$vr0, $a0, 512
	vst	$vr0, $a0, 528
	vst	$vr0, $a0, 544
	vst	$vr0, $a0, 560
	vst	$vr0, $a0, 576
	vst	$vr0, $a0, 592
	vst	$vr0, $a0, 608
	vst	$vr0, $a0, 624
	vst	$vr0, $a0, 640
	vst	$vr0, $a0, 656
	vst	$vr0, $a0, 672
	vst	$vr0, $a0, 688
	vst	$vr0, $a0, 704
	vst	$vr0, $a0, 720
	vst	$vr0, $a0, 736
	vst	$vr0, $a0, 752
	vst	$vr0, $a0, 768
	vst	$vr0, $a0, 784
	vst	$vr0, $a0, 800
	vst	$vr0, $a0, 816
	vst	$vr0, $a0, 832
	vst	$vr0, $a0, 848
	vst	$vr0, $a0, 864
	vst	$vr0, $a0, 880
	vst	$vr0, $a0, 896
	vst	$vr0, $a0, 912
	vst	$vr0, $a0, 928
	vst	$vr0, $a0, 944
	vst	$vr0, $a0, 960
	vst	$vr0, $a0, 976
	vst	$vr0, $a0, 992
	addi.d	$s4, $s4, 32
	vst	$vr0, $a0, 1008
	bne	$s6, $s4, .LBB24_23
# %bb.27:                               # %arrayctor.cont
	st.w	$s7, $s2, 0
	st.d	$s1, $fp, 128
	ld.d	$a6, $sp, 72                    # 8-byte Folded Reload
	ld.d	$a7, $sp, 64                    # 8-byte Folded Reload
	ld.d	$t0, $sp, 56                    # 8-byte Folded Reload
	blez	$s0, .LBB24_36
# %bb.28:                               # %for.body.lr.ph
	ori	$a1, $zero, 4
	ld.d	$a0, $sp, 48                    # 8-byte Folded Reload
	addi.d	$a0, $a0, 15
	bgeu	$s0, $a1, .LBB24_31
# %bb.29:
	move	$a1, $zero
	b	.LBB24_34
.LBB24_30:                              # %arrayctor.cont.thread
	st.d	$s1, $fp, 128
	b	.LBB24_36
.LBB24_31:                              # %vector.ph140
	bstrpick.d	$a1, $s0, 30, 2
	slli.d	$a1, $a1, 2
	vreplgr2vr.d	$vr0, $a0
	addi.d	$a2, $t0, 16
	addi.d	$a3, $a7, 16
	addi.d	$a4, $a6, 16
	move	$a5, $a1
	.p2align	4, , 16
.LBB24_32:                              # %vector.body141
                                        # =>This Inner Loop Header: Depth=1
	vst	$vr0, $a4, -16
	vst	$vr0, $a4, 0
	vst	$vr0, $a3, -16
	vst	$vr0, $a3, 0
	vld	$vr1, $a4, -16
	vld	$vr2, $a4, 0
	vaddi.du	$vr1, $vr1, 3
	vaddi.du	$vr2, $vr2, 3
	vst	$vr1, $a2, -16
	vst	$vr2, $a2, 0
	addi.d	$a5, $a5, -4
	addi.d	$a2, $a2, 32
	addi.d	$a3, $a3, 32
	addi.d	$a4, $a4, 32
	bnez	$a5, .LBB24_32
# %bb.33:                               # %middle.block145
	beq	$a1, $s0, .LBB24_36
.LBB24_34:                              # %for.body.preheader
	alsl.d	$a2, $a1, $t0, 3
	alsl.d	$a3, $a1, $a7, 3
	alsl.d	$a4, $a1, $a6, 3
	sub.d	$a1, $s0, $a1
	.p2align	4, , 16
.LBB24_35:                              # %for.body
                                        # =>This Inner Loop Header: Depth=1
	st.d	$a0, $a4, 0
	st.d	$a0, $a3, 0
	ld.d	$a5, $a4, 0
	addi.d	$a5, $a5, 3
	st.d	$a5, $a2, 0
	addi.d	$a2, $a2, 8
	addi.d	$a3, $a3, 8
	addi.d	$a1, $a1, -1
	addi.d	$a4, $a4, 8
	bnez	$a1, .LBB24_35
.LBB24_36:                              # %for.cond.cleanup
	ld.d	$s8, $sp, 104                   # 8-byte Folded Reload
	ld.d	$s7, $sp, 112                   # 8-byte Folded Reload
	ld.d	$s6, $sp, 120                   # 8-byte Folded Reload
	ld.d	$s5, $sp, 128                   # 8-byte Folded Reload
	ld.d	$s4, $sp, 136                   # 8-byte Folded Reload
	ld.d	$s3, $sp, 144                   # 8-byte Folded Reload
	ld.d	$s2, $sp, 152                   # 8-byte Folded Reload
	ld.d	$s1, $sp, 160                   # 8-byte Folded Reload
	ld.d	$s0, $sp, 168                   # 8-byte Folded Reload
	ld.d	$fp, $sp, 176                   # 8-byte Folded Reload
	ld.d	$ra, $sp, 184                   # 8-byte Folded Reload
	addi.d	$sp, $sp, 192
	ret
.LBB24_37:                              # %if.then7.i.i.i
	st.w	$s7, $s2, 0
.Ltmp30:                                # EH_LABEL
	pcalau12i	$a0, %pc_hi20(.L.str.59)
	addi.d	$a0, $a0, %pc_lo12(.L.str.59)
	pcaddu18i	$ra, %call36(_Z4quitPKc)
	jirl	$ra, $ra, 0
.Ltmp31:                                # EH_LABEL
# %bb.38:                               # %.noexc87
.LBB24_39:                              # %if.then7.i.i
	pcalau12i	$a0, %pc_hi20(.L.str.59)
	addi.d	$a0, $a0, %pc_lo12(.L.str.59)
	pcaddu18i	$ra, %call36(_Z4quitPKc)
	jirl	$ra, $ra, 0
.LBB24_40:                              # %if.then7.i.i27
.Ltmp24:                                # EH_LABEL
	pcalau12i	$a0, %pc_hi20(.L.str.59)
	addi.d	$a0, $a0, %pc_lo12(.L.str.59)
	pcaddu18i	$ra, %call36(_Z4quitPKc)
	jirl	$ra, $ra, 0
.Ltmp25:                                # EH_LABEL
# %bb.41:                               # %.noexc
.LBB24_42:                              # %if.then7.i.i44
.Ltmp21:                                # EH_LABEL
	pcalau12i	$a0, %pc_hi20(.L.str.59)
	addi.d	$a0, $a0, %pc_lo12(.L.str.59)
	pcaddu18i	$ra, %call36(_Z4quitPKc)
	jirl	$ra, $ra, 0
.Ltmp22:                                # EH_LABEL
# %bb.43:                               # %.noexc48
.LBB24_44:                              # %if.then7.i.i63
.Ltmp18:                                # EH_LABEL
	st.d	$s4, $sp, 24                    # 8-byte Folded Spill
	pcalau12i	$a0, %pc_hi20(.L.str.59)
	addi.d	$a0, $a0, %pc_lo12(.L.str.59)
	pcaddu18i	$ra, %call36(_Z4quitPKc)
	jirl	$ra, $ra, 0
.Ltmp19:                                # EH_LABEL
# %bb.45:                               # %.noexc67
.LBB24_46:                              # %if.then7.i.i81
.Ltmp15:                                # EH_LABEL
	st.d	$s3, $sp, 16                    # 8-byte Folded Spill
	st.d	$s4, $sp, 24                    # 8-byte Folded Spill
	pcalau12i	$a0, %pc_hi20(.L.str.59)
	addi.d	$a0, $a0, %pc_lo12(.L.str.59)
	pcaddu18i	$ra, %call36(_Z4quitPKc)
	jirl	$ra, $ra, 0
.Ltmp16:                                # EH_LABEL
# %bb.47:                               # %.noexc85
.LBB24_48:                              # %lpad6
.Ltmp17:                                # EH_LABEL
	move	$s0, $a0
	b	.LBB24_58
.LBB24_49:                              # %lpad4
.Ltmp20:                                # EH_LABEL
	move	$s0, $a0
	b	.LBB24_59
.LBB24_50:                              # %lpad2
.Ltmp23:                                # EH_LABEL
	move	$s0, $a0
	b	.LBB24_60
.LBB24_51:                              # %lpad
.Ltmp26:                                # EH_LABEL
	move	$s0, $a0
	addi.d	$a0, $fp, 8
	pcaddu18i	$ra, %call36(_ZN5ArrayIN10ContextMap1EELi64EED2Ev)
	jirl	$ra, $ra, 0
	move	$a0, $s0
	pcaddu18i	$ra, %call36(_Unwind_Resume)
	jirl	$ra, $ra, 0
.LBB24_52:                              # %lpad9
.Ltmp29:                                # EH_LABEL
	st.d	$s3, $sp, 16                    # 8-byte Folded Spill
	st.d	$s4, $sp, 24                    # 8-byte Folded Spill
	move	$s0, $a0
	b	.LBB24_57
.LBB24_53:                              # %lpad11
.Ltmp32:                                # EH_LABEL
	move	$s0, $a0
	beqz	$s4, .LBB24_56
# %bb.54:                               # %arraydestroy.body.preheader
	addi.d	$s1, $s8, -24
	.p2align	4, , 16
.LBB24_55:                              # %arraydestroy.body
                                        # =>This Inner Loop Header: Depth=1
	add.d	$a0, $s1, $s4
	pcaddu18i	$ra, %call36(_ZN8StateMapD2Ev)
	jirl	$ra, $ra, 0
	addi.d	$s4, $s4, -32
	bnez	$s4, .LBB24_55
.LBB24_56:                              # %arraydestroy.done13
	move	$a0, $s8
	ld.d	$a1, $sp, 32                    # 8-byte Folded Reload
	pcaddu18i	$ra, %call36(_ZdaPvm)
	jirl	$ra, $ra, 0
.LBB24_57:                              # %ehcleanup
	ld.d	$a0, $sp, 40                    # 8-byte Folded Reload
	pcaddu18i	$ra, %call36(_ZN5ArrayIPhLi0EED2Ev)
	jirl	$ra, $ra, 0
.LBB24_58:                              # %ehcleanup32
	ld.d	$a0, $sp, 16                    # 8-byte Folded Reload
	pcaddu18i	$ra, %call36(_ZN5ArrayIjLi0EED2Ev)
	jirl	$ra, $ra, 0
.LBB24_59:                              # %ehcleanup33
	ld.d	$a0, $sp, 24                    # 8-byte Folded Reload
	pcaddu18i	$ra, %call36(_ZN5ArrayIPhLi0EED2Ev)
	jirl	$ra, $ra, 0
.LBB24_60:                              # %ehcleanup34
	addi.d	$a0, $fp, 32
	pcaddu18i	$ra, %call36(_ZN5ArrayIPhLi0EED2Ev)
	jirl	$ra, $ra, 0
	addi.d	$a0, $fp, 8
	pcaddu18i	$ra, %call36(_ZN5ArrayIN10ContextMap1EELi64EED2Ev)
	jirl	$ra, $ra, 0
	move	$a0, $s0
	pcaddu18i	$ra, %call36(_Unwind_Resume)
	jirl	$ra, $ra, 0
.Lfunc_end24:
	.size	_ZN10ContextMapC2Eii, .Lfunc_end24-_ZN10ContextMapC2Eii
	.cfi_endproc
	.section	.gcc_except_table,"a",@progbits
	.p2align	2, 0x0
GCC_except_table24:
.Lexception1:
	.byte	255                             # @LPStart Encoding = omit
	.byte	255                             # @TType Encoding = omit
	.byte	1                               # Call site Encoding = uleb128
	.uleb128 .Lcst_end1-.Lcst_begin1
.Lcst_begin1:
	.uleb128 .Lfunc_begin1-.Lfunc_begin1    # >> Call Site 1 <<
	.uleb128 .Ltmp27-.Lfunc_begin1          #   Call between .Lfunc_begin1 and .Ltmp27
	.byte	0                               #     has no landing pad
	.byte	0                               #   On action: cleanup
	.uleb128 .Ltmp27-.Lfunc_begin1          # >> Call Site 2 <<
	.uleb128 .Ltmp28-.Ltmp27                #   Call between .Ltmp27 and .Ltmp28
	.uleb128 .Ltmp29-.Lfunc_begin1          #     jumps to .Ltmp29
	.byte	0                               #   On action: cleanup
	.uleb128 .Ltmp28-.Lfunc_begin1          # >> Call Site 3 <<
	.uleb128 .Ltmp30-.Ltmp28                #   Call between .Ltmp28 and .Ltmp30
	.byte	0                               #     has no landing pad
	.byte	0                               #   On action: cleanup
	.uleb128 .Ltmp30-.Lfunc_begin1          # >> Call Site 4 <<
	.uleb128 .Ltmp31-.Ltmp30                #   Call between .Ltmp30 and .Ltmp31
	.uleb128 .Ltmp32-.Lfunc_begin1          #     jumps to .Ltmp32
	.byte	0                               #   On action: cleanup
	.uleb128 .Ltmp31-.Lfunc_begin1          # >> Call Site 5 <<
	.uleb128 .Ltmp24-.Ltmp31                #   Call between .Ltmp31 and .Ltmp24
	.byte	0                               #     has no landing pad
	.byte	0                               #   On action: cleanup
	.uleb128 .Ltmp24-.Lfunc_begin1          # >> Call Site 6 <<
	.uleb128 .Ltmp25-.Ltmp24                #   Call between .Ltmp24 and .Ltmp25
	.uleb128 .Ltmp26-.Lfunc_begin1          #     jumps to .Ltmp26
	.byte	0                               #   On action: cleanup
	.uleb128 .Ltmp21-.Lfunc_begin1          # >> Call Site 7 <<
	.uleb128 .Ltmp22-.Ltmp21                #   Call between .Ltmp21 and .Ltmp22
	.uleb128 .Ltmp23-.Lfunc_begin1          #     jumps to .Ltmp23
	.byte	0                               #   On action: cleanup
	.uleb128 .Ltmp18-.Lfunc_begin1          # >> Call Site 8 <<
	.uleb128 .Ltmp19-.Ltmp18                #   Call between .Ltmp18 and .Ltmp19
	.uleb128 .Ltmp20-.Lfunc_begin1          #     jumps to .Ltmp20
	.byte	0                               #   On action: cleanup
	.uleb128 .Ltmp15-.Lfunc_begin1          # >> Call Site 9 <<
	.uleb128 .Ltmp16-.Ltmp15                #   Call between .Ltmp15 and .Ltmp16
	.uleb128 .Ltmp17-.Lfunc_begin1          #     jumps to .Ltmp17
	.byte	0                               #   On action: cleanup
	.uleb128 .Ltmp16-.Lfunc_begin1          # >> Call Site 10 <<
	.uleb128 .Lfunc_end24-.Ltmp16           #   Call between .Ltmp16 and .Lfunc_end24
	.byte	0                               #     has no landing pad
	.byte	0                               #   On action: cleanup
.Lcst_end1:
	.p2align	2, 0x0
                                        # -- End function
	.section	.text._ZN5ArrayIPhLi0EEC2Ei,"axG",@progbits,_ZN5ArrayIPhLi0EEC2Ei,comdat
	.weak	_ZN5ArrayIPhLi0EEC2Ei           # -- Begin function _ZN5ArrayIPhLi0EEC2Ei
	.p2align	5
	.type	_ZN5ArrayIPhLi0EEC2Ei,@function
_ZN5ArrayIPhLi0EEC2Ei:                  # @_ZN5ArrayIPhLi0EEC2Ei
	.cfi_startproc
# %bb.0:                                # %entry
	addi.d	$sp, $sp, -16
	.cfi_def_cfa_offset 16
	st.d	$ra, $sp, 8                     # 8-byte Folded Spill
	st.d	$fp, $sp, 0                     # 8-byte Folded Spill
	.cfi_offset 1, -8
	.cfi_offset 22, -16
	move	$fp, $a0
	st.w	$a1, $a0, 4
	st.w	$a1, $a0, 0
	blez	$a1, .LBB25_5
# %bb.1:                                # %if.end.i
	slli.w	$a0, $a1, 3
	pcalau12i	$a2, %pc_hi20(programChecker)
	addi.d	$a2, $a2, %pc_lo12(programChecker)
	ld.w	$a4, $a2, 0
	ld.w	$a5, $a2, 4
	alsl.w	$a3, $a1, $a4, 3
	alsl.d	$a1, $a1, $a4, 3
	st.w	$a1, $a2, 0
	bge	$a5, $a3, .LBB25_3
# %bb.2:                                # %if.then.i.i
	st.w	$a3, $a2, 4
.LBB25_3:                               # %_ZN14ProgramChecker5allocEi.exit.i
	ori	$a1, $zero, 1
	pcaddu18i	$ra, %call36(calloc)
	jirl	$ra, $ra, 0
	st.d	$a0, $fp, 8
	beqz	$a0, .LBB25_6
# %bb.4:                                # %if.end8.i
	st.d	$a0, $fp, 16
	ld.d	$fp, $sp, 0                     # 8-byte Folded Reload
	ld.d	$ra, $sp, 8                     # 8-byte Folded Reload
	addi.d	$sp, $sp, 16
	ret
.LBB25_5:                               # %if.then.i
	vrepli.b	$vr0, 0
	vst	$vr0, $fp, 8
	ld.d	$fp, $sp, 0                     # 8-byte Folded Reload
	ld.d	$ra, $sp, 8                     # 8-byte Folded Reload
	addi.d	$sp, $sp, 16
	ret
.LBB25_6:                               # %if.then7.i
	pcalau12i	$a0, %pc_hi20(.L.str.59)
	addi.d	$a0, $a0, %pc_lo12(.L.str.59)
	pcaddu18i	$ra, %call36(_Z4quitPKc)
	jirl	$ra, $ra, 0
.Lfunc_end25:
	.size	_ZN5ArrayIPhLi0EEC2Ei, .Lfunc_end25-_ZN5ArrayIPhLi0EEC2Ei
	.cfi_endproc
                                        # -- End function
	.section	.text._ZN5ArrayIPhLi0EED2Ev,"axG",@progbits,_ZN5ArrayIPhLi0EED2Ev,comdat
	.weak	_ZN5ArrayIPhLi0EED2Ev           # -- Begin function _ZN5ArrayIPhLi0EED2Ev
	.p2align	5
	.type	_ZN5ArrayIPhLi0EED2Ev,@function
_ZN5ArrayIPhLi0EED2Ev:                  # @_ZN5ArrayIPhLi0EED2Ev
# %bb.0:                                # %entry
	ld.w	$a2, $a0, 0
	pcalau12i	$a1, %pc_hi20(programChecker)
	addi.d	$a1, $a1, %pc_lo12(programChecker)
	ld.w	$a3, $a1, 0
	ld.w	$a4, $a1, 4
	slli.d	$a2, $a2, 3
	sub.w	$a2, $a3, $a2
	st.w	$a2, $a1, 0
	bge	$a4, $a2, .LBB26_2
# %bb.1:                                # %if.then.i
	st.w	$a2, $a1, 4
.LBB26_2:                               # %_ZN14ProgramChecker5allocEi.exit
	ld.d	$a0, $a0, 8
	pcaddu18i	$t8, %call36(free)
	jr	$t8
.Lfunc_end26:
	.size	_ZN5ArrayIPhLi0EED2Ev, .Lfunc_end26-_ZN5ArrayIPhLi0EED2Ev
                                        # -- End function
	.section	.text._ZN5ArrayIN10ContextMap1EELi64EED2Ev,"axG",@progbits,_ZN5ArrayIN10ContextMap1EELi64EED2Ev,comdat
	.weak	_ZN5ArrayIN10ContextMap1EELi64EED2Ev # -- Begin function _ZN5ArrayIN10ContextMap1EELi64EED2Ev
	.p2align	5
	.type	_ZN5ArrayIN10ContextMap1EELi64EED2Ev,@function
_ZN5ArrayIN10ContextMap1EELi64EED2Ev:   # @_ZN5ArrayIN10ContextMap1EELi64EED2Ev
# %bb.0:                                # %entry
	ld.w	$a1, $a0, 0
	slli.d	$a2, $a1, 6
	pcalau12i	$a1, %pc_hi20(programChecker)
	addi.d	$a1, $a1, %pc_lo12(programChecker)
	ld.w	$a3, $a1, 0
	ld.w	$a4, $a1, 4
	sub.d	$a2, $a3, $a2
	addi.w	$a2, $a2, -64
	st.w	$a2, $a1, 0
	bge	$a4, $a2, .LBB27_2
# %bb.1:                                # %if.then.i
	st.w	$a2, $a1, 4
.LBB27_2:                               # %_ZN14ProgramChecker5allocEi.exit
	ld.d	$a0, $a0, 8
	pcaddu18i	$t8, %call36(free)
	jr	$t8
.Lfunc_end27:
	.size	_ZN5ArrayIN10ContextMap1EELi64EED2Ev, .Lfunc_end27-_ZN5ArrayIN10ContextMap1EELi64EED2Ev
                                        # -- End function
	.text
	.globl	_ZN10ContextMapD2Ev             # -- Begin function _ZN10ContextMapD2Ev
	.p2align	5
	.type	_ZN10ContextMapD2Ev,@function
_ZN10ContextMapD2Ev:                    # @_ZN10ContextMapD2Ev
# %bb.0:                                # %entry
	addi.d	$sp, $sp, -64
	st.d	$ra, $sp, 56                    # 8-byte Folded Spill
	st.d	$fp, $sp, 48                    # 8-byte Folded Spill
	st.d	$s0, $sp, 40                    # 8-byte Folded Spill
	st.d	$s1, $sp, 32                    # 8-byte Folded Spill
	st.d	$s2, $sp, 24                    # 8-byte Folded Spill
	st.d	$s3, $sp, 16                    # 8-byte Folded Spill
	st.d	$s4, $sp, 8                     # 8-byte Folded Spill
	move	$fp, $a0
	ld.d	$s2, $a0, 128
	pcalau12i	$a0, %pc_hi20(programChecker)
	addi.d	$s1, $a0, %pc_lo12(programChecker)
	beqz	$s2, .LBB28_7
# %bb.1:                                # %delete.notnull
	ld.d	$a0, $s2, -8
	addi.d	$s0, $s2, -8
	slli.d	$s3, $a0, 5
	beqz	$a0, .LBB28_6
# %bb.2:                                # %arraydestroy.body.preheader
	move	$s4, $s3
	b	.LBB28_4
	.p2align	4, , 16
.LBB28_3:                               # %_ZN8StateMapD2Ev.exit
                                        #   in Loop: Header=BB28_4 Depth=1
	ld.d	$a0, $a0, -16
	pcaddu18i	$ra, %call36(free)
	jirl	$ra, $ra, 0
	addi.d	$s4, $s4, -32
	beqz	$s4, .LBB28_6
.LBB28_4:                               # %arraydestroy.body
                                        # =>This Inner Loop Header: Depth=1
	add.d	$a0, $s2, $s4
	ld.w	$a1, $a0, -24
	ld.w	$a2, $s1, 0
	ld.w	$a3, $s1, 4
	slli.d	$a1, $a1, 2
	sub.w	$a1, $a2, $a1
	st.w	$a1, $s1, 0
	bge	$a3, $a1, .LBB28_3
# %bb.5:                                # %if.then.i.i.i
                                        #   in Loop: Header=BB28_4 Depth=1
	st.w	$a1, $s1, 4
	b	.LBB28_3
.LBB28_6:                               # %arraydestroy.done2
	addi.d	$a1, $s3, 8
	move	$a0, $s0
	pcaddu18i	$ra, %call36(_ZdaPvm)
	jirl	$ra, $ra, 0
.LBB28_7:                               # %delete.end3
	ld.w	$a0, $fp, 104
	ld.w	$a1, $s1, 0
	ld.w	$a2, $s1, 4
	slli.d	$a0, $a0, 3
	sub.w	$a0, $a1, $a0
	st.w	$a0, $s1, 0
	bge	$a2, $a0, .LBB28_9
# %bb.8:                                # %if.then.i.i
	st.w	$a0, $s1, 4
.LBB28_9:                               # %_ZN5ArrayIPhLi0EED2Ev.exit
	ld.d	$a0, $fp, 112
	pcaddu18i	$ra, %call36(free)
	jirl	$ra, $ra, 0
	ld.w	$a0, $fp, 80
	ld.w	$a1, $s1, 0
	ld.w	$a2, $s1, 4
	slli.d	$a0, $a0, 2
	sub.w	$a0, $a1, $a0
	st.w	$a0, $s1, 0
	bge	$a2, $a0, .LBB28_11
# %bb.10:                               # %if.then.i.i4
	st.w	$a0, $s1, 4
.LBB28_11:                              # %_ZN5ArrayIjLi0EED2Ev.exit
	ld.d	$a0, $fp, 88
	pcaddu18i	$ra, %call36(free)
	jirl	$ra, $ra, 0
	ld.w	$a0, $fp, 56
	ld.w	$a1, $s1, 0
	ld.w	$a2, $s1, 4
	slli.d	$a0, $a0, 3
	sub.w	$a0, $a1, $a0
	st.w	$a0, $s1, 0
	bge	$a2, $a0, .LBB28_13
# %bb.12:                               # %if.then.i.i8
	st.w	$a0, $s1, 4
.LBB28_13:                              # %_ZN5ArrayIPhLi0EED2Ev.exit9
	ld.d	$a0, $fp, 64
	pcaddu18i	$ra, %call36(free)
	jirl	$ra, $ra, 0
	ld.w	$a0, $fp, 32
	ld.w	$a1, $s1, 0
	ld.w	$a2, $s1, 4
	slli.d	$a0, $a0, 3
	sub.w	$a0, $a1, $a0
	st.w	$a0, $s1, 0
	bge	$a2, $a0, .LBB28_15
# %bb.14:                               # %if.then.i.i13
	st.w	$a0, $s1, 4
.LBB28_15:                              # %_ZN5ArrayIPhLi0EED2Ev.exit14
	ld.d	$a0, $fp, 40
	pcaddu18i	$ra, %call36(free)
	jirl	$ra, $ra, 0
	ld.w	$a0, $fp, 8
	ld.w	$a1, $s1, 0
	ld.w	$a2, $s1, 4
	slli.d	$a0, $a0, 6
	sub.d	$a0, $a1, $a0
	addi.w	$a0, $a0, -64
	st.w	$a0, $s1, 0
	bge	$a2, $a0, .LBB28_17
# %bb.16:                               # %if.then.i.i18
	st.w	$a0, $s1, 4
.LBB28_17:                              # %_ZN5ArrayIN10ContextMap1EELi64EED2Ev.exit
	ld.d	$a0, $fp, 16
	ld.d	$s4, $sp, 8                     # 8-byte Folded Reload
	ld.d	$s3, $sp, 16                    # 8-byte Folded Reload
	ld.d	$s2, $sp, 24                    # 8-byte Folded Reload
	ld.d	$s1, $sp, 32                    # 8-byte Folded Reload
	ld.d	$s0, $sp, 40                    # 8-byte Folded Reload
	ld.d	$fp, $sp, 48                    # 8-byte Folded Reload
	ld.d	$ra, $sp, 56                    # 8-byte Folded Reload
	addi.d	$sp, $sp, 64
	pcaddu18i	$t8, %call36(free)
	jr	$t8
.Lfunc_end28:
	.size	_ZN10ContextMapD2Ev, .Lfunc_end28-_ZN10ContextMapD2Ev
                                        # -- End function
	.globl	_ZN10ContextMap4mix1ER5Mixeriiii # -- Begin function _ZN10ContextMap4mix1ER5Mixeriiii
	.p2align	5
	.type	_ZN10ContextMap4mix1ER5Mixeriiii,@function
_ZN10ContextMap4mix1ER5Mixeriiii:       # @_ZN10ContextMap4mix1ER5Mixeriiii
# %bb.0:                                # %entry
	addi.d	$sp, $sp, -176
	st.d	$ra, $sp, 168                   # 8-byte Folded Spill
	st.d	$fp, $sp, 160                   # 8-byte Folded Spill
	st.d	$s0, $sp, 152                   # 8-byte Folded Spill
	st.d	$s1, $sp, 144                   # 8-byte Folded Spill
	st.d	$s2, $sp, 136                   # 8-byte Folded Spill
	st.d	$s3, $sp, 128                   # 8-byte Folded Spill
	st.d	$s4, $sp, 120                   # 8-byte Folded Spill
	st.d	$s5, $sp, 112                   # 8-byte Folded Spill
	st.d	$s6, $sp, 104                   # 8-byte Folded Spill
	st.d	$s7, $sp, 96                    # 8-byte Folded Spill
	st.d	$s8, $sp, 88                    # 8-byte Folded Spill
	move	$fp, $a0
	ld.w	$a0, $a0, 136
	st.d	$a3, $sp, 16                    # 8-byte Folded Spill
	blez	$a0, .LBB29_36
# %bb.1:                                # %for.body.lr.ph
	move	$s6, $a4
	move	$s2, $a2
	move	$s3, $a1
	addi.d	$t6, $fp, 48
	pcalau12i	$a0, %pc_hi20(_ZL11State_table)
	addi.d	$t7, $a0, %pc_lo12(_ZL11State_table)
	move	$s7, $zero
	move	$s8, $zero
	move	$s0, $zero
	move	$s1, $zero
	move	$s4, $zero
	add.d	$t8, $t7, $a5
	addi.d	$ra, $fp, 120
	andi	$a0, $a2, 3
	st.d	$a0, $sp, 24                    # 8-byte Folded Spill
	andi	$a0, $a2, 1
	st.d	$a0, $sp, 32                    # 8-byte Folded Spill
	ori	$a0, $zero, 8
	sub.d	$a0, $a0, $a3
	st.d	$a0, $sp, 80                    # 8-byte Folded Spill
	ori	$a0, $zero, 7
	sub.d	$a0, $a0, $a3
	st.d	$a0, $sp, 64                    # 8-byte Folded Spill
	ld.d	$a0, $fp, 48
	pcalau12i	$a1, %pc_hi20(bpos)
	st.d	$a1, $sp, 72                    # 8-byte Folded Spill
	pcalau12i	$a1, %pc_hi20(ilog+16)
	st.d	$a1, $sp, 56                    # 8-byte Folded Spill
	lu12i.w	$a1, 1
	ori	$s5, $a1, 4094
	st.d	$t7, $sp, 48                    # 8-byte Folded Spill
	st.d	$t8, $sp, 40                    # 8-byte Folded Spill
	st.d	$a4, $sp, 8                     # 8-byte Folded Spill
	b	.LBB29_4
	.p2align	4, , 16
.LBB29_2:                               # %if.else263
                                        #   in Loop: Header=BB29_4 Depth=1
	ld.d	$a3, $fp, 128
	add.d	$a3, $a3, $s8
	ld.w	$a6, $a3, 4
	ld.d	$a7, $a3, 24
	slli.d	$a6, $a6, 2
	ldx.wu	$t0, $a7, $a6
	andi	$t1, $t0, 1023
	addi.d	$t2, $t1, -1023
	sltui	$t2, $t2, 1
	addi.d	$t3, $t0, 1
	ori	$t4, $t0, 1023
	masknez	$t3, $t3, $t2
	maskeqz	$t2, $t4, $t2
	or	$t2, $t2, $t3
	ld.w	$a5, $a5, %pc_lo12(y)
	srli.d	$t0, $t0, 10
	slli.d	$t1, $t1, 2
	ldx.w	$a4, $a4, $t1
	slli.d	$a5, $a5, 22
	sub.w	$a5, $a5, $t0
	srli.d	$a5, $a5, 3
	mul.d	$a4, $a5, $a4
	bstrpick.d	$a4, $a4, 31, 10
	slli.d	$a4, $a4, 10
	add.d	$a4, $a4, $t2
	stx.w	$a4, $a7, $a6
	st.w	$zero, $a3, 4
	ld.wu	$a3, $a7, 0
	ld.d	$a2, $a2, %pc_lo12(stretch+16)
	srli.d	$a4, $a3, 19
	and	$a4, $a4, $s5
	ldx.h	$a2, $a2, $a4
	ld.w	$a4, $s3, 96
	srli.d	$a2, $a2, 2
	alsl.d	$a5, $a4, $a1, 1
	slli.d	$a6, $a4, 1
	stx.h	$a2, $a1, $a6
	srli.d	$a1, $a3, 24
	xori	$a2, $a1, 255
	sub.d	$a1, $a1, $a2
	st.h	$a1, $a5, 2
	st.h	$zero, $a5, 4
	st.h	$a1, $a5, 6
	addi.d	$a2, $a4, 5
	st.w	$a2, $s3, 96
	st.h	$a1, $a5, 8
.LBB29_3:                               # %for.inc
                                        #   in Loop: Header=BB29_4 Depth=1
	ld.w	$a1, $fp, 136
	addi.d	$s1, $s1, 1
	addi.d	$s0, $s0, 8
	addi.d	$s8, $s8, 32
	addi.d	$s7, $s7, 4
	bge	$s1, $a1, .LBB29_37
.LBB29_4:                               # %for.body
                                        # =>This Inner Loop Header: Depth=1
	ldx.d	$a0, $a0, $s0
	beqz	$a0, .LBB29_8
# %bb.5:                                # %if.then
                                        #   in Loop: Header=BB29_4 Depth=1
	ld.bu	$a1, $a0, 0
	slli.d	$a1, $a1, 2
	ldx.bu	$a1, $t8, $a1
	ori	$a2, $zero, 204
	bltu	$a1, $a2, .LBB29_7
# %bb.6:                                # %land.lhs.true
                                        #   in Loop: Header=BB29_4 Depth=1
	pcalau12i	$a2, %pc_hi20(rnd)
	addi.d	$a2, $a2, %pc_lo12(rnd)
	ld.w	$a3, $a2, 24
	addi.d	$a4, $a3, 1
	st.w	$a4, $a2, 24
	ld.d	$a2, $a2, 16
	addi.d	$a5, $a3, 41
	andi	$a5, $a5, 63
	slli.d	$a5, $a5, 2
	ldx.w	$a5, $a2, $a5
	addi.d	$a3, $a3, 10
	andi	$a3, $a3, 63
	slli.d	$a3, $a3, 2
	ldx.w	$a3, $a2, $a3
	xor	$a3, $a3, $a5
	andi	$a4, $a4, 63
	slli.d	$a4, $a4, 2
	stx.w	$a3, $a2, $a4
	ori	$a2, $zero, 452
	sub.d	$a2, $a2, $a1
	srli.d	$a2, $a2, 3
	sll.w	$a2, $a3, $a2
	sltui	$a2, $a2, 1
	addi.d	$a3, $a1, -4
	masknez	$a3, $a3, $a2
	maskeqz	$a1, $a1, $a2
	or	$a1, $a1, $a3
.LBB29_7:                               # %if.end
                                        #   in Loop: Header=BB29_4 Depth=1
	st.b	$a1, $a0, 0
.LBB29_8:                               # %if.end14
                                        #   in Loop: Header=BB29_4 Depth=1
	ld.d	$a0, $sp, 72                    # 8-byte Folded Reload
	ld.w	$a0, $a0, %pc_lo12(bpos)
	ori	$a1, $zero, 2
	blt	$a0, $a1, .LBB29_10
# %bb.9:                                # %land.lhs.true16
                                        #   in Loop: Header=BB29_4 Depth=1
	ld.d	$a1, $ra, 0
	ldx.d	$a1, $a1, $s0
	ld.bu	$a1, $a1, 0
	beqz	$a1, .LBB29_17
.LBB29_10:                              # %if.else
                                        #   in Loop: Header=BB29_4 Depth=1
	ori	$a1, $zero, 7
	bltu	$a1, $a0, .LBB29_18
# %bb.11:                               # %if.else
                                        #   in Loop: Header=BB29_4 Depth=1
	ori	$a1, $zero, 1
	sll.d	$a0, $a1, $a0
	andi	$a1, $a0, 74
	bnez	$a1, .LBB29_15
# %bb.12:                               # %if.else
                                        #   in Loop: Header=BB29_4 Depth=1
	andi	$a1, $a0, 36
	bnez	$a1, .LBB29_16
# %bb.13:                               # %if.else
                                        #   in Loop: Header=BB29_4 Depth=1
	andi	$a0, $a0, 144
	beqz	$a0, .LBB29_18
# %bb.14:                               # %sw.bb28
                                        #   in Loop: Header=BB29_4 Depth=1
	addi.d	$a0, $fp, 72
	ld.d	$a0, $a0, 0
	ldx.d	$a0, $a0, $s0
	ld.d	$a1, $sp, 24                    # 8-byte Folded Reload
	add.d	$a0, $a0, $a1
	addi.d	$a0, $a0, 3
	move	$a1, $t6
	b	.LBB29_31
	.p2align	4, , 16
.LBB29_15:                              # %sw.bb
                                        #   in Loop: Header=BB29_4 Depth=1
	addi.d	$a0, $fp, 72
	ld.d	$a0, $a0, 0
	ldx.d	$a0, $a0, $s0
	ld.d	$a1, $sp, 32                    # 8-byte Folded Reload
	add.d	$a0, $a0, $a1
	addi.d	$a0, $a0, 1
	move	$a1, $t6
	b	.LBB29_31
	.p2align	4, , 16
.LBB29_16:                              # %sw.bb37
                                        #   in Loop: Header=BB29_4 Depth=1
	ld.d	$a0, $fp, 96
	ldx.wu	$a1, $a0, $s7
	ld.w	$a0, $fp, 8
	add.w	$a2, $a1, $s2
	ld.d	$a3, $fp, 24
	addi.w	$a0, $a0, -1
	and	$a0, $a0, $a2
	slli.d	$a0, $a0, 6
	add.d	$a0, $a3, $a0
	srli.d	$a1, $a1, 16
	pcaddu18i	$ra, %call36(_ZN10ContextMap1E3getEt)
	jirl	$ra, $ra, 0
	addi.d	$ra, $fp, 120
	ld.d	$t8, $sp, 40                    # 8-byte Folded Reload
	ld.d	$t7, $sp, 48                    # 8-byte Folded Reload
	addi.d	$t6, $fp, 48
	ld.d	$a1, $fp, 48
	stx.d	$a0, $a1, $s0
	addi.d	$a1, $fp, 72
	b	.LBB29_31
.LBB29_17:                              #   in Loop: Header=BB29_4 Depth=1
	move	$a0, $zero
	move	$a1, $t6
	b	.LBB29_31
.LBB29_18:                              # %sw.default
                                        #   in Loop: Header=BB29_4 Depth=1
	ld.d	$a0, $fp, 96
	ldx.wu	$a1, $a0, $s7
	ld.w	$a0, $fp, 8
	add.w	$a2, $a1, $s2
	ld.d	$a3, $fp, 24
	addi.w	$a0, $a0, -1
	and	$a0, $a0, $a2
	slli.d	$a0, $a0, 6
	add.d	$a0, $a3, $a0
	srli.d	$a1, $a1, 16
	pcaddu18i	$ra, %call36(_ZN10ContextMap1E3getEt)
	jirl	$ra, $ra, 0
	ld.d	$a1, $fp, 48
	ld.d	$a2, $fp, 72
	stx.d	$a0, $a1, $s0
	stx.d	$a0, $a2, $s0
	ld.bu	$a1, $a0, 3
	ori	$a2, $zero, 2
	bne	$a1, $a2, .LBB29_20
# %bb.19:                               # %if.then76
                                        #   in Loop: Header=BB29_4 Depth=1
	ld.d	$a1, $fp, 96
	ld.bu	$s6, $a0, 4
	ldx.wu	$a1, $a1, $s7
	addi.d	$a2, $s6, 256
	ld.w	$a0, $fp, 8
	srli.d	$a2, $a2, 6
	add.w	$a2, $a2, $a1
	ld.d	$a3, $fp, 24
	addi.w	$a0, $a0, -1
	and	$a0, $a2, $a0
	slli.d	$a0, $a0, 6
	add.d	$a0, $a3, $a0
	srli.d	$a1, $a1, 16
	pcaddu18i	$ra, %call36(_ZN10ContextMap1E3getEt)
	jirl	$ra, $ra, 0
	bstrpick.d	$a1, $s6, 5, 5
	addi.d	$a1, $a1, 1
	st.b	$a1, $a0, 0
	addi.d	$a3, $s6, 256
	bstrpick.d	$a2, $a3, 4, 4
	addi.d	$a2, $a2, 1
	stx.b	$a2, $a0, $a1
	bstrpick.d	$a1, $a3, 3, 3
	addi.d	$a1, $a1, 1
	bstrpick.d	$a2, $s6, 5, 4
	add.d	$a0, $a0, $a2
	st.b	$a1, $a0, 3
	ld.d	$a0, $fp, 96
	ldx.wu	$a1, $a0, $s7
	ld.w	$a0, $fp, 8
	srli.d	$a2, $a3, 3
	add.w	$a2, $a1, $a2
	ld.d	$a3, $fp, 24
	addi.w	$a0, $a0, -1
	and	$a0, $a0, $a2
	slli.d	$a0, $a0, 6
	add.d	$a0, $a3, $a0
	srli.d	$a1, $a1, 16
	pcaddu18i	$ra, %call36(_ZN10ContextMap1E3getEt)
	jirl	$ra, $ra, 0
	bstrpick.d	$a1, $s6, 2, 2
	addi.d	$a1, $a1, 1
	st.b	$a1, $a0, 0
	addi.d	$a2, $s6, 256
	bstrpick.d	$a2, $a2, 1, 1
	addi.d	$a2, $a2, 1
	stx.b	$a2, $a0, $a1
	andi	$a1, $s6, 1
	addi.d	$a1, $a1, 1
	bstrpick.d	$a2, $s6, 2, 1
	ld.d	$s6, $sp, 8                     # 8-byte Folded Reload
	add.d	$a0, $a0, $a2
	st.b	$a1, $a0, 3
	ld.d	$a0, $fp, 72
	ldx.d	$a0, $a0, $s0
	st.b	$zero, $a0, 6
.LBB29_20:                              # %if.end160
                                        #   in Loop: Header=BB29_4 Depth=1
	addi.d	$ra, $fp, 120
	ld.d	$a0, $ra, 0
	ldx.d	$a0, $a0, $s0
	ld.bu	$a1, $a0, 0
	addi.d	$t6, $fp, 48
	ld.d	$t7, $sp, 48                    # 8-byte Folded Reload
	ld.d	$t8, $sp, 40                    # 8-byte Folded Reload
	beqz	$a1, .LBB29_24
# %bb.21:                               # %if.else174
                                        #   in Loop: Header=BB29_4 Depth=1
	ld.bu	$a2, $a0, 1
	bne	$s6, $a2, .LBB29_25
# %bb.22:                               # %if.else188
                                        #   in Loop: Header=BB29_4 Depth=1
	ori	$a2, $zero, 253
	bltu	$a2, $a1, .LBB29_27
# %bb.23:                               # %if.then194
                                        #   in Loop: Header=BB29_4 Depth=1
	addi.d	$a1, $a1, 2
	b	.LBB29_29
.LBB29_24:                              # %if.then166
                                        #   in Loop: Header=BB29_4 Depth=1
	ori	$a1, $zero, 2
	b	.LBB29_26
.LBB29_25:                              # %if.then180
                                        #   in Loop: Header=BB29_4 Depth=1
	ori	$a1, $zero, 1
.LBB29_26:                              # %if.end214
                                        #   in Loop: Header=BB29_4 Depth=1
	st.b	$a1, $a0, 0
	ld.d	$a0, $ra, 0
	ldx.d	$a0, $a0, $s0
	st.b	$s6, $a0, 1
	b	.LBB29_30
.LBB29_27:                              # %if.else201
                                        #   in Loop: Header=BB29_4 Depth=1
	ori	$a2, $zero, 255
	bne	$a1, $a2, .LBB29_30
# %bb.28:                               # %if.then207
                                        #   in Loop: Header=BB29_4 Depth=1
	ori	$a1, $zero, 128
.LBB29_29:                              # %if.end214
                                        #   in Loop: Header=BB29_4 Depth=1
	st.b	$a1, $a0, 0
.LBB29_30:                              # %if.end214
                                        #   in Loop: Header=BB29_4 Depth=1
	addi.d	$a0, $fp, 72
	ld.d	$a0, $a0, 0
	ldx.d	$a0, $a0, $s0
	addi.d	$a0, $a0, 3
	move	$a1, $ra
	.p2align	4, , 16
.LBB29_31:                              # %if.end220
                                        #   in Loop: Header=BB29_4 Depth=1
	ld.d	$a1, $a1, 0
	ld.d	$a2, $ra, 0
	stx.d	$a0, $a1, $s0
	ldx.d	$a0, $a2, $s0
	ld.bu	$a1, $a0, 1
	addi.d	$a2, $a1, 256
	ld.d	$a3, $sp, 80                    # 8-byte Folded Reload
	srl.w	$a2, $a2, $a3
	bne	$a2, $s2, .LBB29_33
# %bb.32:                               # %if.then229
                                        #   in Loop: Header=BB29_4 Depth=1
	ld.bu	$a0, $a0, 0
	ld.d	$a2, $sp, 64                    # 8-byte Folded Reload
	srl.w	$a1, $a1, $a2
	ld.d	$a2, $sp, 56                    # 8-byte Folded Reload
	ld.d	$a2, $a2, %pc_lo12(ilog+16)
	slli.d	$a1, $a1, 1
	andi	$a1, $a1, 2
	addu16i.d	$a1, $a1, 1
	add.d	$a2, $a2, $a0
	ld.bu	$a2, $a2, 1
	addi.d	$a1, $a1, -1
	andi	$a0, $a0, 1
	xori	$a0, $a0, 3
	sll.w	$a0, $a2, $a0
	mul.d	$a2, $a0, $a1
	b	.LBB29_34
	.p2align	4, , 16
.LBB29_33:                              #   in Loop: Header=BB29_4 Depth=1
	move	$a2, $zero
.LBB29_34:                              # %if.end251
                                        #   in Loop: Header=BB29_4 Depth=1
	ld.w	$a4, $s3, 96
	ld.d	$a0, $t6, 0
	addi.d	$a3, $a4, 1
	ld.d	$a1, $s3, 32
	st.w	$a3, $s3, 96
	ldx.d	$a3, $a0, $s0
	slli.d	$a4, $a4, 1
	stx.h	$a2, $a1, $a4
	pcalau12i	$a5, %pc_hi20(y)
	pcalau12i	$a2, %pc_hi20(_ZL2dt)
	addi.d	$a4, $a2, %pc_lo12(_ZL2dt)
	pcalau12i	$a2, %pc_hi20(stretch+16)
	beqz	$a3, .LBB29_2
# %bb.35:                               # %if.then255
                                        #   in Loop: Header=BB29_4 Depth=1
	ld.d	$a6, $fp, 128
	add.d	$a6, $a6, $s8
	ld.w	$a7, $a6, 4
	ld.d	$t0, $a6, 24
	slli.d	$a7, $a7, 2
	ldx.wu	$t1, $t0, $a7
	ld.bu	$a3, $a3, 0
	andi	$t2, $t1, 1023
	addi.d	$t3, $t2, -1023
	sltui	$t3, $t3, 1
	addi.d	$t4, $t1, 1
	ori	$t5, $t1, 1023
	masknez	$t4, $t4, $t3
	maskeqz	$t3, $t5, $t3
	or	$t3, $t3, $t4
	ld.w	$a5, $a5, %pc_lo12(y)
	srli.d	$t1, $t1, 10
	slli.d	$t2, $t2, 2
	ldx.w	$a4, $a4, $t2
	slli.d	$a5, $a5, 22
	sub.w	$a5, $a5, $t1
	srli.d	$a5, $a5, 3
	mul.d	$a4, $a5, $a4
	bstrpick.d	$a4, $a4, 31, 10
	slli.d	$a4, $a4, 10
	add.d	$a4, $a4, $t3
	stx.w	$a4, $t0, $a7
	st.w	$a3, $a6, 4
	slli.d	$a4, $a3, 2
	ldx.wu	$a4, $t0, $a4
	alsl.d	$a5, $a3, $t7, 2
	ld.bu	$a6, $a5, 2
	ld.d	$a2, $a2, %pc_lo12(stretch+16)
	ld.bu	$a5, $a5, 3
	srli.d	$a7, $a4, 19
	and	$a7, $a7, $s5
	ldx.h	$a2, $a2, $a7
	ld.w	$a7, $s3, 96
	sltui	$a6, $a6, 1
	sltui	$a5, $a5, 1
	srai.d	$a2, $a2, 2
	alsl.d	$t0, $a7, $a1, 1
	slli.d	$t1, $a7, 1
	stx.h	$a2, $a1, $t1
	srli.d	$a1, $a4, 24
	xori	$a4, $a1, 255
	sub.d	$t1, $a1, $a4
	st.h	$t1, $t0, 2
	sub.d	$t1, $a6, $a5
	mul.d	$a2, $t1, $a2
	st.h	$a2, $t0, 4
	maskeqz	$a2, $a1, $a6
	maskeqz	$t1, $a4, $a5
	sub.d	$a2, $a2, $t1
	st.h	$a2, $t0, 6
	maskeqz	$a1, $a1, $a5
	maskeqz	$a2, $a4, $a6
	sub.d	$a1, $a1, $a2
	addi.d	$a2, $a7, 5
	st.w	$a2, $s3, 96
	st.h	$a1, $t0, 8
	sltu	$a1, $zero, $a3
	add.w	$s4, $s4, $a1
	b	.LBB29_3
.LBB29_36:
	move	$s4, $zero
.LBB29_37:                              # %for.cond.cleanup
	ori	$a0, $zero, 7
	ld.d	$a1, $sp, 16                    # 8-byte Folded Reload
	bne	$a1, $a0, .LBB29_39
# %bb.38:                               # %if.then270
	st.w	$zero, $fp, 136
.LBB29_39:                              # %if.end272
	move	$a0, $s4
	ld.d	$s8, $sp, 88                    # 8-byte Folded Reload
	ld.d	$s7, $sp, 96                    # 8-byte Folded Reload
	ld.d	$s6, $sp, 104                   # 8-byte Folded Reload
	ld.d	$s5, $sp, 112                   # 8-byte Folded Reload
	ld.d	$s4, $sp, 120                   # 8-byte Folded Reload
	ld.d	$s3, $sp, 128                   # 8-byte Folded Reload
	ld.d	$s2, $sp, 136                   # 8-byte Folded Reload
	ld.d	$s1, $sp, 144                   # 8-byte Folded Reload
	ld.d	$s0, $sp, 152                   # 8-byte Folded Reload
	ld.d	$fp, $sp, 160                   # 8-byte Folded Reload
	ld.d	$ra, $sp, 168                   # 8-byte Folded Reload
	addi.d	$sp, $sp, 176
	ret
.Lfunc_end29:
	.size	_ZN10ContextMap4mix1ER5Mixeriiii, .Lfunc_end29-_ZN10ContextMap4mix1ER5Mixeriiii
                                        # -- End function
	.section	.text._ZN10ContextMap1E3getEt,"axG",@progbits,_ZN10ContextMap1E3getEt,comdat
	.weak	_ZN10ContextMap1E3getEt         # -- Begin function _ZN10ContextMap1E3getEt
	.p2align	5
	.type	_ZN10ContextMap1E3getEt,@function
_ZN10ContextMap1E3getEt:                # @_ZN10ContextMap1E3getEt
# %bb.0:                                # %entry
	ld.bu	$a3, $a0, 14
	andi	$a4, $a3, 15
	slli.d	$a2, $a4, 1
	ldx.hu	$a5, $a0, $a2
	addi.d	$a2, $a0, 15
	bne	$a5, $a1, .LBB30_2
# %bb.1:                                # %if.then
	slli.d	$a0, $a4, 3
	sub.d	$a0, $a0, $a4
	add.d	$a0, $a2, $a0
	ret
.LBB30_2:                               # %for.cond.preheader
	ld.hu	$a5, $a0, 0
	bne	$a5, $a1, .LBB30_4
# %bb.3:
	move	$t0, $zero
	b	.LBB30_20
.LBB30_4:                               # %if.end42
	ld.hu	$a5, $a0, 2
	ori	$t0, $zero, 1
	beq	$a5, $a1, .LBB30_20
# %bb.5:                                # %if.end26.1
	ld.bu	$a6, $a0, 15
	sltui	$a5, $a4, 1
	sltui	$a7, $a3, 16
	masknez	$t0, $a6, $a7
	lu12i.w	$t1, 15
	ori	$t1, $t1, 4095
	maskeqz	$a7, $t1, $a7
	or	$a7, $a7, $t0
	ld.bu	$t0, $a0, 22
	masknez	$a7, $a7, $a5
	maskeqz	$a5, $t1, $a5
	or	$t1, $a5, $a7
	srli.d	$a5, $a3, 4
	bgeu	$t0, $t1, .LBB30_7
# %bb.6:                                # %land.lhs.true.1
	addi.d	$a6, $a4, -1
	sltu	$a6, $zero, $a6
	addi.d	$a7, $a5, -1
	sltu	$a7, $zero, $a7
	and	$a7, $a6, $a7
	masknez	$a6, $t1, $a7
	maskeqz	$t0, $t0, $a7
	or	$a6, $t0, $a6
	ld.hu	$t1, $a0, 4
	ori	$t0, $zero, 2
	bne	$t1, $a1, .LBB30_8
	b	.LBB30_20
.LBB30_7:
	move	$a7, $zero
	ld.hu	$t1, $a0, 4
	ori	$t0, $zero, 2
	beq	$t1, $a1, .LBB30_20
.LBB30_8:                               # %if.end26.2
	ld.bu	$t0, $a0, 29
	bgeu	$t0, $a6, .LBB30_10
# %bb.9:                                # %land.lhs.true.2
	addi.d	$t1, $a4, -2
	sltui	$t1, $t1, 1
	addi.d	$t2, $a5, -2
	sltui	$t2, $t2, 1
	or	$t1, $t1, $t2
	masknez	$t0, $t0, $t1
	maskeqz	$a6, $a6, $t1
	or	$a6, $a6, $t0
	ori	$t0, $zero, 2
	masknez	$t0, $t0, $t1
	maskeqz	$a7, $a7, $t1
	or	$a7, $a7, $t0
.LBB30_10:                              # %if.end42.2
	ld.hu	$t1, $a0, 6
	ori	$t0, $zero, 3
	beq	$t1, $a1, .LBB30_20
# %bb.11:                               # %if.end26.3
	ld.bu	$t0, $a0, 36
	bgeu	$t0, $a6, .LBB30_13
# %bb.12:                               # %land.lhs.true.3
	addi.d	$t1, $a4, -3
	sltui	$t1, $t1, 1
	addi.d	$t2, $a5, -3
	sltui	$t2, $t2, 1
	or	$t1, $t1, $t2
	masknez	$t0, $t0, $t1
	maskeqz	$a6, $a6, $t1
	or	$a6, $a6, $t0
	ori	$t0, $zero, 3
	masknez	$t0, $t0, $t1
	maskeqz	$a7, $a7, $t1
	or	$a7, $a7, $t0
.LBB30_13:                              # %if.end42.3
	ld.hu	$t1, $a0, 8
	ori	$t0, $zero, 4
	beq	$t1, $a1, .LBB30_20
# %bb.14:                               # %if.end26.4
	ld.bu	$t0, $a0, 43
	bgeu	$t0, $a6, .LBB30_16
# %bb.15:                               # %land.lhs.true.4
	addi.d	$t1, $a4, -4
	sltui	$t1, $t1, 1
	addi.d	$t2, $a5, -4
	sltui	$t2, $t2, 1
	or	$t1, $t1, $t2
	masknez	$t0, $t0, $t1
	maskeqz	$a6, $a6, $t1
	or	$a6, $a6, $t0
	ori	$t0, $zero, 4
	masknez	$t0, $t0, $t1
	maskeqz	$a7, $a7, $t1
	or	$a7, $a7, $t0
.LBB30_16:                              # %if.end42.4
	ld.hu	$t1, $a0, 10
	ori	$t0, $zero, 5
	beq	$t1, $a1, .LBB30_20
# %bb.17:                               # %if.end26.5
	ld.bu	$t0, $a0, 50
	bgeu	$t0, $a6, .LBB30_19
# %bb.18:                               # %land.lhs.true.5
	addi.d	$t1, $a4, -5
	sltui	$t1, $t1, 1
	addi.d	$t2, $a5, -5
	sltui	$t2, $t2, 1
	or	$t1, $t1, $t2
	masknez	$t0, $t0, $t1
	maskeqz	$a6, $a6, $t1
	or	$a6, $a6, $t0
	ori	$t0, $zero, 5
	masknez	$t0, $t0, $t1
	maskeqz	$a7, $a7, $t1
	or	$a7, $a7, $t0
.LBB30_19:                              # %if.end42.5
	ld.hu	$t1, $a0, 12
	ori	$t0, $zero, 6
	bne	$t1, $a1, .LBB30_21
.LBB30_20:                              # %cleanup
	slli.d	$a1, $a3, 4
	or	$a1, $a1, $t0
	st.b	$a1, $a0, 14
	slli.d	$a0, $t0, 3
	sub.d	$a0, $a0, $t0
	add.d	$a0, $a2, $a0
	ret
.LBB30_21:                              # %if.end26.6
	ld.bu	$a3, $a0, 57
	sltu	$a3, $a3, $a6
	addi.d	$a4, $a4, -6
	sltui	$a4, $a4, 1
	addi.d	$a5, $a5, -6
	sltui	$a5, $a5, 1
	ori	$a6, $zero, 6
	masknez	$a6, $a6, $a5
	maskeqz	$a5, $a7, $a5
	or	$a5, $a5, $a6
	masknez	$a5, $a5, $a4
	maskeqz	$a4, $a7, $a4
	or	$a4, $a4, $a5
	maskeqz	$a4, $a4, $a3
	masknez	$a3, $a7, $a3
	or	$a3, $a4, $a3
	addi.d	$a4, $a3, 240
	st.b	$a4, $a0, 14
	slli.d	$a4, $a3, 1
	stx.h	$a1, $a0, $a4
	slli.d	$a0, $a3, 3
	sub.d	$a1, $a0, $a3
	add.d	$a0, $a2, $a1
	stx.w	$zero, $a2, $a1
	st.w	$zero, $a0, 3
	ret
.Lfunc_end30:
	.size	_ZN10ContextMap1E3getEt, .Lfunc_end30-_ZN10ContextMap1E3getEt
                                        # -- End function
	.text
	.globl	_Z10matchModelR5Mixer           # -- Begin function _Z10matchModelR5Mixer
	.p2align	5
	.type	_Z10matchModelR5Mixer,@function
_Z10matchModelR5Mixer:                  # @_Z10matchModelR5Mixer
.Lfunc_begin2:
	.cfi_startproc
	.cfi_personality 155, DW.ref.__gxx_personality_v0
	.cfi_lsda 27, .Lexception2
# %bb.0:                                # %entry
	addi.d	$sp, $sp, -32
	.cfi_def_cfa_offset 32
	st.d	$ra, $sp, 24                    # 8-byte Folded Spill
	st.d	$fp, $sp, 16                    # 8-byte Folded Spill
	st.d	$s0, $sp, 8                     # 8-byte Folded Spill
	.cfi_offset 1, -8
	.cfi_offset 22, -16
	.cfi_offset 23, -24
	pcalau12i	$a1, %pc_hi20(_ZGVZ10matchModelR5MixerE1t)
	ld.b	$a1, $a1, %pc_lo12(_ZGVZ10matchModelR5MixerE1t)
	move	$fp, $a0
	dbar	20
	beqz	$a1, .LBB31_27
.LBB31_1:                               # %init.end
	pcalau12i	$a0, %pc_hi20(_ZGVZ10matchModelR5MixerE4scm1)
	ld.b	$a0, $a0, %pc_lo12(_ZGVZ10matchModelR5MixerE4scm1)
	dbar	20
	beqz	$a0, .LBB31_30
.LBB31_2:                               # %init.end7
	pcalau12i	$a5, %pc_hi20(bpos)
	ld.w	$t0, $a5, %pc_lo12(bpos)
	pcalau12i	$a3, %pc_hi20(_ZZ10matchModelR5MixerE3len)
	ld.w	$a4, $a3, %pc_lo12(_ZZ10matchModelR5MixerE3len)
	lu12i.w	$a1, 1
	pcalau12i	$a7, %pc_hi20(pos)
	pcalau12i	$a0, %pc_hi20(buf)
	addi.d	$a6, $a0, %pc_lo12(buf)
	pcalau12i	$a0, %pc_hi20(_ZZ10matchModelR5MixerE6result)
	pcalau12i	$a2, %pc_hi20(_ZZ10matchModelR5MixerE4scm1)
	addi.d	$a2, $a2, %pc_lo12(_ZZ10matchModelR5MixerE4scm1)
	beqz	$t0, .LBB31_11
# %bb.3:                                # %if.end30
	pcalau12i	$t0, %pc_hi20(c0)
	beqz	$a4, .LBB31_14
.LBB31_4:                               # %if.then32
	ld.w	$a7, $a7, %pc_lo12(pos)
	addi.w	$t2, $a7, -1
	ld.w	$t1, $a6, 0
	ld.d	$a6, $a6, 16
	pcalau12i	$a7, %pc_hi20(_ZZ10matchModelR5MixerE3ptr)
	ld.w	$a7, $a7, %pc_lo12(_ZZ10matchModelR5MixerE3ptr)
	addi.w	$t1, $t1, -1
	and	$t2, $t1, $t2
	ldx.bu	$t2, $a6, $t2
	addi.w	$t3, $a7, -1
	and	$t3, $t3, $t1
	ldx.bu	$t3, $a6, $t3
	bne	$t2, $t3, .LBB31_10
# %bb.5:                                # %land.lhs.true38
	and	$a7, $a7, $t1
	ldx.bu	$a6, $a6, $a7
	ld.w	$a5, $a5, %pc_lo12(bpos)
	ld.w	$a7, $t0, %pc_lo12(c0)
	addi.d	$t1, $a6, 256
	ori	$t2, $zero, 8
	sub.d	$t2, $t2, $a5
	srl.w	$t1, $t1, $t2
	bne	$a7, $t1, .LBB31_10
# %bb.6:                                # %if.then44
	lu12i.w	$a7, 15
	ori	$t1, $a7, 4095
	blt	$a4, $t1, .LBB31_8
# %bb.7:                                # %if.then46
	ori	$a4, $a7, 4094
	st.w	$a4, $a3, %pc_lo12(_ZZ10matchModelR5MixerE3len)
.LBB31_8:                               # %if.end47
	ori	$a3, $zero, 7
	sub.d	$a3, $a3, $a5
	srl.w	$a3, $a6, $a3
	pcalau12i	$a5, %pc_hi20(ilog+16)
	ld.d	$a6, $a5, %pc_lo12(ilog+16)
	ld.d	$a5, $fp, 32
	ld.w	$t1, $fp, 96
	andi	$t2, $a3, 1
	bstrpick.d	$a3, $a4, 15, 0
	ldx.bu	$a7, $a6, $a3
	alsl.d	$a6, $t1, $a5, 1
	slti	$a3, $a4, 32
	ori	$t3, $zero, 32
	masknez	$t3, $t3, $a3
	maskeqz	$a3, $a4, $a3
	or	$a4, $a3, $t3
	addi.w	$a3, $t1, 2
	slli.d	$a7, $a7, 2
	beqz	$t2, .LBB31_24
# %bb.9:                                # %if.then54
	st.h	$a7, $a6, 0
	slli.d	$a4, $a4, 6
	b	.LBB31_25
.LBB31_10:                              # %if.else69
	ld.w	$a4, $fp, 96
	ld.d	$a5, $fp, 32
	st.w	$zero, $a3, %pc_lo12(_ZZ10matchModelR5MixerE3len)
	slli.d	$a3, $a4, 1
	stx.w	$zero, $a5, $a3
	addi.w	$a3, $a4, 2
	b	.LBB31_15
.LBB31_11:                              # %if.then
	pcalau12i	$t1, %pc_hi20(_ZZ10matchModelR5MixerE1h)
	ld.w	$t0, $a7, %pc_lo12(pos)
	ld.w	$t5, $a6, 0
	ld.w	$t2, $t1, %pc_lo12(_ZZ10matchModelR5MixerE1h)
	ld.d	$t3, $a6, 16
	addi.w	$t6, $t0, -1
	addi.w	$t4, $t5, -1
	and	$t7, $t4, $t6
	ldx.bu	$t7, $t3, $t7
	ori	$t8, $a1, 3880
	mul.d	$t2, $t2, $t8
	add.d	$t2, $t7, $t2
	addi.w	$t7, $t2, 1
	pcalau12i	$t2, %pc_hi20(_ZZ10matchModelR5MixerE1t)
	addi.d	$t2, $t2, %pc_lo12(_ZZ10matchModelR5MixerE1t)
	ld.w	$t8, $t2, 0
	addi.w	$t8, $t8, -1
	and	$t7, $t7, $t8
	st.w	$t7, $t1, %pc_lo12(_ZZ10matchModelR5MixerE1h)
	slli.d	$t1, $t7, 2
	beqz	$a4, .LBB31_17
# %bb.12:                               # %if.then13
	pcalau12i	$t3, %pc_hi20(_ZZ10matchModelR5MixerE3ptr)
	ld.w	$t4, $t3, %pc_lo12(_ZZ10matchModelR5MixerE3ptr)
	addi.w	$a4, $a4, 1
	ld.d	$t2, $t2, 16
	st.w	$a4, $a3, %pc_lo12(_ZZ10matchModelR5MixerE3len)
	addi.d	$t4, $t4, 1
	st.w	$t4, $t3, %pc_lo12(_ZZ10matchModelR5MixerE3ptr)
.LBB31_13:                              # %if.end28
	stx.w	$t0, $t2, $t1
	ld.w	$t0, $a7, %pc_lo12(pos)
	ld.w	$t1, $a2, 0
	st.w	$a4, $a0, %pc_lo12(_ZZ10matchModelR5MixerE6result)
	slli.d	$t0, $t0, 8
	addi.d	$t1, $t1, -256
	and	$t0, $t1, $t0
	st.w	$t0, $a2, 24
	pcalau12i	$t0, %pc_hi20(c0)
	bnez	$a4, .LBB31_4
.LBB31_14:                              # %if.else71
	ld.w	$a3, $fp, 96
	ld.d	$a5, $fp, 32
	slli.d	$a4, $a3, 1
	stx.w	$zero, $a5, $a4
	addi.w	$a3, $a3, 2
.LBB31_15:                              # %if.end72
	st.w	$a3, $fp, 96
.LBB31_16:                              # %if.end72
	ld.d	$a4, $a2, 32
	pcalau12i	$a6, %pc_hi20(y)
	ld.w	$a6, $a6, %pc_lo12(y)
	ld.hu	$a7, $a4, 0
	slli.d	$a6, $a6, 16
	addi.d	$a6, $a6, 64
	sub.d	$a6, $a6, $a7
	srli.d	$a6, $a6, 7
	ld.w	$t1, $a2, 24
	ld.w	$t0, $t0, %pc_lo12(c0)
	add.d	$a6, $a7, $a6
	ld.d	$a7, $a2, 16
	st.h	$a6, $a4, 0
	add.w	$a4, $t0, $t1
	slli.d	$a6, $a4, 1
	alsl.d	$a4, $a4, $a7, 1
	ldx.hu	$a6, $a7, $a6
	st.d	$a4, $a2, 32
	pcalau12i	$a2, %pc_hi20(stretch+16)
	ld.d	$a2, $a2, %pc_lo12(stretch+16)
	srli.d	$a4, $a6, 3
	ori	$a1, $a1, 4094
	and	$a1, $a4, $a1
	ldx.h	$a1, $a2, $a1
	ld.w	$a0, $a0, %pc_lo12(_ZZ10matchModelR5MixerE6result)
	addi.d	$a2, $a3, 1
	st.w	$a2, $fp, 96
	slli.d	$a2, $a3, 1
	stx.h	$a1, $a5, $a2
	ld.d	$s0, $sp, 8                     # 8-byte Folded Reload
	ld.d	$fp, $sp, 16                    # 8-byte Folded Reload
	ld.d	$ra, $sp, 24                    # 8-byte Folded Reload
	addi.d	$sp, $sp, 32
	ret
.LBB31_17:                              # %if.else
	ld.d	$t2, $t2, 16
	ldx.w	$t7, $t2, $t1
	move	$a4, $zero
	pcalau12i	$t8, %pc_hi20(_ZZ10matchModelR5MixerE3ptr)
	st.w	$t7, $t8, %pc_lo12(_ZZ10matchModelR5MixerE3ptr)
	beqz	$t7, .LBB31_13
# %bb.18:                               # %if.else
	sub.w	$t8, $t0, $t7
	bge	$t8, $t5, .LBB31_13
# %bb.19:                               # %while.cond.preheader
	and	$a4, $t6, $t4
	ldx.bu	$a4, $t3, $a4
	addi.w	$t5, $t7, -1
	and	$t5, $t5, $t4
	ldx.bu	$t5, $t3, $t5
	bne	$a4, $t5, .LBB31_26
# %bb.20:                               # %while.body.preheader
	move	$a4, $zero
	addi.w	$t5, $t7, -2
	addi.w	$t6, $t0, -2
	lu12i.w	$t7, 15
	ori	$t7, $t7, 4093
	.p2align	4, , 16
.LBB31_21:                              # %while.body
                                        # =>This Inner Loop Header: Depth=1
	addi.w	$a4, $a4, 1
	bltu	$t7, $a4, .LBB31_23
# %bb.22:                               # %while.body
                                        #   in Loop: Header=BB31_21 Depth=1
	and	$t8, $t6, $t4
	ldx.bu	$t8, $t3, $t8
	and	$s0, $t5, $t4
	ldx.bu	$s0, $t3, $s0
	addi.w	$t5, $t5, -1
	addi.w	$t6, $t6, -1
	beq	$t8, $s0, .LBB31_21
.LBB31_23:                              # %while.cond.if.end28.loopexit_crit_edge
	st.w	$a4, $a3, %pc_lo12(_ZZ10matchModelR5MixerE3len)
	b	.LBB31_13
.LBB31_24:                              # %if.else60
	sub.d	$a7, $zero, $a7
	st.h	$a7, $a6, 0
	slli.d	$a4, $a4, 6
	sub.d	$a4, $zero, $a4
.LBB31_25:                              # %if.end72
	st.w	$a3, $fp, 96
	st.h	$a4, $a6, 2
	b	.LBB31_16
.LBB31_26:
	move	$a4, $zero
	b	.LBB31_13
.LBB31_27:                              # %init.check
	pcalau12i	$a0, %pc_hi20(_ZGVZ10matchModelR5MixerE1t)
	addi.d	$s0, $a0, %pc_lo12(_ZGVZ10matchModelR5MixerE1t)
	move	$a0, $s0
	pcaddu18i	$ra, %call36(__cxa_guard_acquire)
	jirl	$ra, $ra, 0
	addi.w	$a0, $a0, 0
	beqz	$a0, .LBB31_1
# %bb.28:                               # %init
	pcalau12i	$a0, %pc_hi20(level)
	ld.wu	$a0, $a0, %pc_lo12(level)
	lu12i.w	$a1, 16
	sll.w	$a1, $a1, $a0
.Ltmp33:                                # EH_LABEL
	pcalau12i	$a0, %pc_hi20(_ZZ10matchModelR5MixerE1t)
	addi.d	$a0, $a0, %pc_lo12(_ZZ10matchModelR5MixerE1t)
	pcaddu18i	$ra, %call36(_ZN5ArrayIiLi0EEC2Ei)
	jirl	$ra, $ra, 0
.Ltmp34:                                # EH_LABEL
# %bb.29:                               # %invoke.cont
	pcalau12i	$a0, %pc_hi20(_ZN5ArrayIiLi0EED2Ev)
	addi.d	$a0, $a0, %pc_lo12(_ZN5ArrayIiLi0EED2Ev)
	pcalau12i	$a1, %pc_hi20(_ZZ10matchModelR5MixerE1t)
	addi.d	$a1, $a1, %pc_lo12(_ZZ10matchModelR5MixerE1t)
	pcalau12i	$a2, %pc_hi20(__dso_handle)
	addi.d	$a2, $a2, %pc_lo12(__dso_handle)
	pcaddu18i	$ra, %call36(__cxa_atexit)
	jirl	$ra, $ra, 0
	pcalau12i	$a0, %pc_hi20(_ZGVZ10matchModelR5MixerE1t)
	addi.d	$a0, $a0, %pc_lo12(_ZGVZ10matchModelR5MixerE1t)
	pcaddu18i	$ra, %call36(__cxa_guard_release)
	jirl	$ra, $ra, 0
	b	.LBB31_1
.LBB31_30:                              # %init.check2
	pcalau12i	$a0, %pc_hi20(_ZGVZ10matchModelR5MixerE4scm1)
	addi.d	$s0, $a0, %pc_lo12(_ZGVZ10matchModelR5MixerE4scm1)
	move	$a0, $s0
	pcaddu18i	$ra, %call36(__cxa_guard_acquire)
	jirl	$ra, $ra, 0
	addi.w	$a0, $a0, 0
	beqz	$a0, .LBB31_2
# %bb.31:                               # %init4
.Ltmp36:                                # EH_LABEL
	pcalau12i	$a0, %pc_hi20(_ZZ10matchModelR5MixerE4scm1)
	addi.d	$a0, $a0, %pc_lo12(_ZZ10matchModelR5MixerE4scm1)
	lu12i.w	$a1, 32
	pcaddu18i	$ra, %call36(_ZN25SmallStationaryContextMapC2Ei)
	jirl	$ra, $ra, 0
.Ltmp37:                                # EH_LABEL
# %bb.32:                               # %invoke.cont6
	pcalau12i	$a0, %pc_hi20(_ZN25SmallStationaryContextMapD2Ev)
	addi.d	$a0, $a0, %pc_lo12(_ZN25SmallStationaryContextMapD2Ev)
	pcalau12i	$a1, %pc_hi20(_ZZ10matchModelR5MixerE4scm1)
	addi.d	$a1, $a1, %pc_lo12(_ZZ10matchModelR5MixerE4scm1)
	pcalau12i	$a2, %pc_hi20(__dso_handle)
	addi.d	$a2, $a2, %pc_lo12(__dso_handle)
	pcaddu18i	$ra, %call36(__cxa_atexit)
	jirl	$ra, $ra, 0
	pcalau12i	$a0, %pc_hi20(_ZGVZ10matchModelR5MixerE4scm1)
	addi.d	$a0, $a0, %pc_lo12(_ZGVZ10matchModelR5MixerE4scm1)
	pcaddu18i	$ra, %call36(__cxa_guard_release)
	jirl	$ra, $ra, 0
	b	.LBB31_2
.LBB31_33:                              # %lpad5
.Ltmp38:                                # EH_LABEL
	b	.LBB31_35
.LBB31_34:                              # %lpad
.Ltmp35:                                # EH_LABEL
.LBB31_35:                              # %ehcleanup
	move	$fp, $a0
	move	$a0, $s0
	pcaddu18i	$ra, %call36(__cxa_guard_abort)
	jirl	$ra, $ra, 0
	move	$a0, $fp
	pcaddu18i	$ra, %call36(_Unwind_Resume)
	jirl	$ra, $ra, 0
.Lfunc_end31:
	.size	_Z10matchModelR5Mixer, .Lfunc_end31-_Z10matchModelR5Mixer
	.cfi_endproc
	.section	.gcc_except_table,"a",@progbits
	.p2align	2, 0x0
GCC_except_table31:
.Lexception2:
	.byte	255                             # @LPStart Encoding = omit
	.byte	255                             # @TType Encoding = omit
	.byte	1                               # Call site Encoding = uleb128
	.uleb128 .Lcst_end2-.Lcst_begin2
.Lcst_begin2:
	.uleb128 .Lfunc_begin2-.Lfunc_begin2    # >> Call Site 1 <<
	.uleb128 .Ltmp33-.Lfunc_begin2          #   Call between .Lfunc_begin2 and .Ltmp33
	.byte	0                               #     has no landing pad
	.byte	0                               #   On action: cleanup
	.uleb128 .Ltmp33-.Lfunc_begin2          # >> Call Site 2 <<
	.uleb128 .Ltmp34-.Ltmp33                #   Call between .Ltmp33 and .Ltmp34
	.uleb128 .Ltmp35-.Lfunc_begin2          #     jumps to .Ltmp35
	.byte	0                               #   On action: cleanup
	.uleb128 .Ltmp34-.Lfunc_begin2          # >> Call Site 3 <<
	.uleb128 .Ltmp36-.Ltmp34                #   Call between .Ltmp34 and .Ltmp36
	.byte	0                               #     has no landing pad
	.byte	0                               #   On action: cleanup
	.uleb128 .Ltmp36-.Lfunc_begin2          # >> Call Site 4 <<
	.uleb128 .Ltmp37-.Ltmp36                #   Call between .Ltmp36 and .Ltmp37
	.uleb128 .Ltmp38-.Lfunc_begin2          #     jumps to .Ltmp38
	.byte	0                               #   On action: cleanup
	.uleb128 .Ltmp37-.Lfunc_begin2          # >> Call Site 5 <<
	.uleb128 .Lfunc_end31-.Ltmp37           #   Call between .Ltmp37 and .Lfunc_end31
	.byte	0                               #     has no landing pad
	.byte	0                               #   On action: cleanup
.Lcst_end2:
	.p2align	2, 0x0
                                        # -- End function
	.section	.text._ZN25SmallStationaryContextMapC2Ei,"axG",@progbits,_ZN25SmallStationaryContextMapC2Ei,comdat
	.weak	_ZN25SmallStationaryContextMapC2Ei # -- Begin function _ZN25SmallStationaryContextMapC2Ei
	.p2align	5
	.type	_ZN25SmallStationaryContextMapC2Ei,@function
_ZN25SmallStationaryContextMapC2Ei:     # @_ZN25SmallStationaryContextMapC2Ei
	.cfi_startproc
# %bb.0:                                # %entry
	addi.d	$sp, $sp, -32
	.cfi_def_cfa_offset 32
	st.d	$ra, $sp, 24                    # 8-byte Folded Spill
	st.d	$fp, $sp, 16                    # 8-byte Folded Spill
	st.d	$s0, $sp, 8                     # 8-byte Folded Spill
	.cfi_offset 1, -8
	.cfi_offset 22, -16
	.cfi_offset 23, -24
	move	$fp, $a0
	bstrpick.d	$a0, $a1, 31, 31
	add.w	$a0, $a1, $a0
	srai.d	$s0, $a0, 1
	st.w	$s0, $fp, 4
	ori	$a0, $zero, 2
	st.w	$s0, $fp, 0
	bge	$a1, $a0, .LBB32_2
# %bb.1:                                # %_ZN5ArrayItLi0EEC2Ei.exit
	move	$a0, $zero
	st.w	$zero, $fp, 24
	vrepli.b	$vr0, 0
	vst	$vr0, $fp, 8
	b	.LBB32_17
.LBB32_2:                               # %if.end.i.i
	slli.d	$a0, $s0, 1
	pcalau12i	$a1, %pc_hi20(programChecker)
	addi.d	$a1, $a1, %pc_lo12(programChecker)
	ld.w	$a3, $a1, 0
	ld.w	$a4, $a1, 4
	alsl.w	$a2, $s0, $a3, 1
	alsl.d	$a3, $s0, $a3, 1
	st.w	$a3, $a1, 0
	bge	$a4, $a2, .LBB32_4
# %bb.3:                                # %if.then.i.i.i
	st.w	$a2, $a1, 4
.LBB32_4:                               # %_ZN14ProgramChecker5allocEi.exit.i.i
	ori	$a1, $zero, 1
	pcaddu18i	$ra, %call36(calloc)
	jirl	$ra, $ra, 0
	st.d	$a0, $fp, 8
	beqz	$a0, .LBB32_18
# %bb.5:                                # %iter.check
	move	$a2, $zero
	st.d	$a0, $fp, 16
	st.w	$zero, $fp, 24
	ori	$a3, $zero, 8
	bstrpick.d	$a1, $s0, 31, 0
	bltu	$s0, $a3, .LBB32_15
# %bb.6:                                # %vector.main.loop.iter.check
	ori	$a2, $zero, 16
	bgeu	$s0, $a2, .LBB32_11
# %bb.7:
	move	$a2, $zero
.LBB32_8:                               # %vec.epilog.ph
	move	$a4, $a2
	bstrpick.d	$a2, $a1, 29, 3
	slli.d	$a2, $a2, 3
	sub.d	$a3, $a4, $a2
	slli.d	$a4, $a4, 1
	vldi	$vr0, -2688
	.p2align	4, , 16
.LBB32_9:                               # %vec.epilog.vector.body
                                        # =>This Inner Loop Header: Depth=1
	vstx	$vr0, $a0, $a4
	addi.d	$a3, $a3, 8
	addi.d	$a4, $a4, 16
	bnez	$a3, .LBB32_9
# %bb.10:                               # %vec.epilog.middle.block
	bne	$a2, $a1, .LBB32_15
	b	.LBB32_17
.LBB32_11:                              # %vector.ph
	andi	$a3, $a1, 8
	bstrpick.d	$a2, $a1, 29, 4
	slli.d	$a2, $a2, 4
	addi.d	$a4, $a0, 16
	vldi	$vr0, -2688
	move	$a5, $a2
	.p2align	4, , 16
.LBB32_12:                              # %vector.body
                                        # =>This Inner Loop Header: Depth=1
	vst	$vr0, $a4, -16
	vst	$vr0, $a4, 0
	addi.d	$a5, $a5, -16
	addi.d	$a4, $a4, 32
	bnez	$a5, .LBB32_12
# %bb.13:                               # %middle.block
	beq	$a2, $a1, .LBB32_17
# %bb.14:                               # %vec.epilog.iter.check
	bnez	$a3, .LBB32_8
.LBB32_15:                              # %for.body.preheader
	slli.d	$a3, $a2, 1
	sub.d	$a1, $a1, $a2
	lu12i.w	$a2, 8
	.p2align	4, , 16
.LBB32_16:                              # %for.body
                                        # =>This Inner Loop Header: Depth=1
	stx.h	$a2, $a0, $a3
	addi.d	$a1, $a1, -1
	addi.d	$a3, $a3, 2
	bnez	$a1, .LBB32_16
.LBB32_17:                              # %for.cond.cleanup
	st.d	$a0, $fp, 32
	ld.d	$s0, $sp, 8                     # 8-byte Folded Reload
	ld.d	$fp, $sp, 16                    # 8-byte Folded Reload
	ld.d	$ra, $sp, 24                    # 8-byte Folded Reload
	addi.d	$sp, $sp, 32
	ret
.LBB32_18:                              # %if.then7.i.i
	pcalau12i	$a0, %pc_hi20(.L.str.59)
	addi.d	$a0, $a0, %pc_lo12(.L.str.59)
	pcaddu18i	$ra, %call36(_Z4quitPKc)
	jirl	$ra, $ra, 0
.Lfunc_end32:
	.size	_ZN25SmallStationaryContextMapC2Ei, .Lfunc_end32-_ZN25SmallStationaryContextMapC2Ei
	.cfi_endproc
                                        # -- End function
	.section	.text._ZN25SmallStationaryContextMapD2Ev,"axG",@progbits,_ZN25SmallStationaryContextMapD2Ev,comdat
	.weak	_ZN25SmallStationaryContextMapD2Ev # -- Begin function _ZN25SmallStationaryContextMapD2Ev
	.p2align	5
	.type	_ZN25SmallStationaryContextMapD2Ev,@function
_ZN25SmallStationaryContextMapD2Ev:     # @_ZN25SmallStationaryContextMapD2Ev
# %bb.0:                                # %entry
	ld.w	$a2, $a0, 0
	pcalau12i	$a1, %pc_hi20(programChecker)
	addi.d	$a1, $a1, %pc_lo12(programChecker)
	ld.w	$a3, $a1, 0
	ld.w	$a4, $a1, 4
	slli.d	$a2, $a2, 1
	sub.w	$a2, $a3, $a2
	st.w	$a2, $a1, 0
	bge	$a4, $a2, .LBB33_2
# %bb.1:                                # %if.then.i.i
	st.w	$a2, $a1, 4
.LBB33_2:                               # %_ZN5ArrayItLi0EED2Ev.exit
	ld.d	$a0, $a0, 8
	pcaddu18i	$t8, %call36(free)
	jr	$t8
.Lfunc_end33:
	.size	_ZN25SmallStationaryContextMapD2Ev, .Lfunc_end33-_ZN25SmallStationaryContextMapD2Ev
                                        # -- End function
	.text
	.globl	_Z8picModelR5Mixer              # -- Begin function _Z8picModelR5Mixer
	.p2align	5
	.type	_Z8picModelR5Mixer,@function
_Z8picModelR5Mixer:                     # @_Z8picModelR5Mixer
.Lfunc_begin3:
	.cfi_startproc
	.cfi_personality 155, DW.ref.__gxx_personality_v0
	.cfi_lsda 27, .Lexception3
# %bb.0:                                # %entry
	addi.d	$sp, $sp, -48
	.cfi_def_cfa_offset 48
	st.d	$ra, $sp, 40                    # 8-byte Folded Spill
	st.d	$fp, $sp, 32                    # 8-byte Folded Spill
	st.d	$s0, $sp, 24                    # 8-byte Folded Spill
	st.d	$s1, $sp, 16                    # 8-byte Folded Spill
	st.d	$s2, $sp, 8                     # 8-byte Folded Spill
	.cfi_offset 1, -8
	.cfi_offset 22, -16
	.cfi_offset 23, -24
	.cfi_offset 24, -32
	.cfi_offset 25, -40
	pcalau12i	$a1, %pc_hi20(_ZGVZ8picModelR5MixerE1t)
	ld.b	$a1, $a1, %pc_lo12(_ZGVZ8picModelR5MixerE1t)
	move	$fp, $a0
	dbar	20
	beqz	$a1, .LBB34_3
.LBB34_1:                               # %init.end
	pcalau12i	$a0, %pc_hi20(_ZGVZ8picModelR5MixerE2sm)
	ld.b	$a0, $a0, %pc_lo12(_ZGVZ8picModelR5MixerE2sm)
	dbar	20
	beqz	$a0, .LBB34_6
.LBB34_2:                               # %init.end8
	pcalau12i	$a0, %pc_hi20(_ZZ8picModelR5MixerE2sm)
	addi.d	$a0, $a0, %pc_lo12(_ZZ8picModelR5MixerE2sm)
	pcalau12i	$a5, %pc_hi20(_ZZ8picModelR5MixerE3cxt.0)
	ld.w	$a3, $a5, %pc_lo12(_ZZ8picModelR5MixerE3cxt.0)
	pcalau12i	$a2, %pc_hi20(_ZZ8picModelR5MixerE1t+16)
	ld.d	$a4, $a2, %pc_lo12(_ZZ8picModelR5MixerE1t+16)
	ldx.bu	$a6, $a4, $a3
	pcalau12i	$a1, %pc_hi20(_ZL11State_table)
	addi.d	$a7, $a1, %pc_lo12(_ZL11State_table)
	pcalau12i	$a1, %pc_hi20(y)
	ld.w	$t0, $a1, %pc_lo12(y)
	alsl.d	$a6, $a6, $a7, 2
	ldx.b	$a6, $a6, $t0
	stx.b	$a6, $a4, $a3
	pcalau12i	$a6, %pc_hi20(_ZZ8picModelR5MixerE3cxt.1)
	ld.w	$a3, $a6, %pc_lo12(_ZZ8picModelR5MixerE3cxt.1)
	ld.d	$a4, $a2, %pc_lo12(_ZZ8picModelR5MixerE1t+16)
	ldx.bu	$t0, $a4, $a3
	ld.w	$t1, $a1, %pc_lo12(y)
	alsl.d	$t0, $t0, $a7, 2
	ldx.b	$t0, $t0, $t1
	stx.b	$t0, $a4, $a3
	pcalau12i	$a3, %pc_hi20(_ZZ8picModelR5MixerE3cxt.2)
	ld.w	$a4, $a3, %pc_lo12(_ZZ8picModelR5MixerE3cxt.2)
	ld.d	$t0, $a2, %pc_lo12(_ZZ8picModelR5MixerE1t+16)
	ldx.bu	$t1, $t0, $a4
	ld.w	$t2, $a1, %pc_lo12(y)
	alsl.d	$a7, $t1, $a7, 2
	ldx.b	$a7, $a7, $t2
	stx.b	$a7, $t0, $a4
	pcalau12i	$t0, %pc_hi20(_ZZ8picModelR5MixerE2r0)
	ld.w	$t1, $t0, %pc_lo12(_ZZ8picModelR5MixerE2r0)
	ld.wu	$a4, $a1, %pc_lo12(y)
	alsl.w	$a7, $t1, $a4, 1
	pcalau12i	$t2, %pc_hi20(_ZZ8picModelR5MixerE2r1)
	pcalau12i	$t3, %pc_hi20(pos)
	ld.w	$t3, $t3, %pc_lo12(pos)
	ld.w	$t4, $t2, %pc_lo12(_ZZ8picModelR5MixerE2r1)
	alsl.d	$t1, $t1, $a4, 1
	st.w	$t1, $t0, %pc_lo12(_ZZ8picModelR5MixerE2r0)
	addi.w	$t0, $t3, -215
	pcalau12i	$t1, %pc_hi20(buf)
	addi.d	$t1, $t1, %pc_lo12(buf)
	ld.w	$t5, $t1, 0
	addi.w	$t5, $t5, -1
	ld.d	$t1, $t1, 16
	and	$t0, $t5, $t0
	pcalau12i	$t6, %pc_hi20(bpos)
	ld.w	$t6, $t6, %pc_lo12(bpos)
	ldx.bu	$t0, $t1, $t0
	ori	$t7, $zero, 7
	sub.d	$t6, $t7, $t6
	srl.w	$t0, $t0, $t6
	bstrins.d	$t0, $t4, 63, 1
	st.w	$t0, $t2, %pc_lo12(_ZZ8picModelR5MixerE2r1)
	pcalau12i	$t0, %pc_hi20(_ZZ8picModelR5MixerE2r2)
	addi.w	$t2, $t3, -431
	and	$t2, $t5, $t2
	ldx.bu	$t2, $t1, $t2
	ld.w	$t7, $t0, %pc_lo12(_ZZ8picModelR5MixerE2r2)
	srl.w	$t2, $t2, $t6
	bstrins.d	$t2, $t7, 63, 1
	st.w	$t2, $t0, %pc_lo12(_ZZ8picModelR5MixerE2r2)
	pcalau12i	$t0, %pc_hi20(_ZZ8picModelR5MixerE2r3)
	addi.w	$t2, $t3, -647
	and	$t2, $t5, $t2
	ldx.bu	$t1, $t1, $t2
	ld.wu	$t2, $t0, %pc_lo12(_ZZ8picModelR5MixerE2r3)
	slli.d	$t3, $t4, 1
	srl.w	$t1, $t1, $t6
	bstrins.d	$t1, $t2, 63, 1
	st.w	$t1, $t0, %pc_lo12(_ZZ8picModelR5MixerE2r3)
	srli.d	$t0, $t4, 3
	bstrpick.d	$t1, $t0, 5, 3
	move	$t4, $a7
	bstrins.d	$t4, $t1, 63, 3
	srli.d	$t1, $t7, 8
	bstrins.d	$t4, $t1, 7, 6
	st.w	$t4, $a5, %pc_lo12(_ZZ8picModelR5MixerE3cxt.0)
	bstrpick.d	$a5, $t0, 5, 1
	move	$t0, $a4
	bstrins.d	$t0, $a5, 63, 1
	srli.d	$a5, $t7, 7
	bstrins.d	$t0, $a5, 6, 6
	srli.d	$a5, $t2, 7
	bstrins.d	$t0, $a5, 7, 7
	ori	$t1, $t0, 256
	st.w	$t1, $a6, %pc_lo12(_ZZ8picModelR5MixerE3cxt.1)
	andi	$a5, $a7, 63
	bstrpick.d	$a6, $t3, 13, 1
	slli.d	$a6, $a6, 1
	xor	$a5, $a6, $a5
	slli.d	$a6, $t7, 3
	bstrpick.d	$a6, $a6, 14, 8
	slli.d	$a6, $a6, 8
	xor	$a5, $a5, $a6
	slli.d	$a6, $t2, 6
	bstrpick.d	$a6, $a6, 15, 11
	slli.d	$a6, $a6, 11
	xor	$a5, $a5, $a6
	addi.d	$a5, $a5, 512
	st.w	$a5, $a3, %pc_lo12(_ZZ8picModelR5MixerE3cxt.2)
	ld.w	$a3, $a0, 4
	ld.d	$a7, $a0, 24
	ld.d	$a6, $a2, %pc_lo12(_ZZ8picModelR5MixerE1t+16)
	pcalau12i	$a2, %pc_hi20(stretch+16)
	slli.d	$t2, $a3, 2
	ldx.wu	$t0, $a7, $t2
	ld.d	$a3, $a2, %pc_lo12(stretch+16)
	ld.d	$a2, $fp, 32
	ldx.bu	$t3, $a6, $t4
	andi	$t4, $t0, 1023
	addi.d	$t5, $t4, -1023
	sltui	$t5, $t5, 1
	addi.d	$t6, $t0, 1
	ori	$t7, $t0, 1023
	masknez	$t6, $t6, $t5
	maskeqz	$t5, $t7, $t5
	or	$t5, $t5, $t6
	srli.d	$t0, $t0, 10
	slli.d	$a4, $a4, 22
	sub.w	$a4, $a4, $t0
	srli.d	$a4, $a4, 3
	slli.d	$t4, $t4, 2
	pcalau12i	$t0, %pc_hi20(_ZL2dt)
	addi.d	$t0, $t0, %pc_lo12(_ZL2dt)
	ldx.w	$t4, $t0, $t4
	mul.d	$t4, $a4, $t4
	addi.w	$a4, $zero, -1024
	lu32i.d	$a4, 0
	and	$t4, $t4, $a4
	add.d	$t4, $t4, $t5
	stx.w	$t4, $a7, $t2
	st.w	$t3, $a0, 4
	slli.d	$t2, $t3, 2
	ldx.wu	$a7, $a7, $t2
	srli.d	$t2, $a7, 19
	lu12i.w	$a7, 1
	ori	$a7, $a7, 4094
	and	$t2, $t2, $a7
	ld.w	$t3, $fp, 96
	ldx.h	$t2, $a3, $t2
	ld.w	$t4, $a0, 36
	ld.d	$t5, $a0, 56
	addi.d	$t6, $t3, 1
	st.w	$t6, $fp, 96
	slli.d	$t4, $t4, 2
	ldx.wu	$t6, $t5, $t4
	slli.d	$t3, $t3, 1
	stx.h	$t2, $a2, $t3
	ldx.bu	$t1, $a6, $t1
	andi	$t2, $t6, 1023
	addi.d	$t3, $t2, -1023
	sltui	$t3, $t3, 1
	addi.d	$t7, $t6, 1
	ori	$t8, $t6, 1023
	masknez	$t7, $t7, $t3
	maskeqz	$t3, $t8, $t3
	or	$t3, $t3, $t7
	ld.w	$t7, $a1, %pc_lo12(y)
	srli.d	$t6, $t6, 10
	slli.d	$t2, $t2, 2
	ldx.w	$t2, $t0, $t2
	slli.d	$t7, $t7, 22
	sub.w	$t6, $t7, $t6
	srli.d	$t6, $t6, 3
	mul.d	$t2, $t6, $t2
	and	$t2, $t2, $a4
	add.d	$t2, $t2, $t3
	stx.w	$t2, $t5, $t4
	st.w	$t1, $a0, 36
	slli.d	$t1, $t1, 2
	ldx.wu	$t1, $t5, $t1
	srli.d	$t1, $t1, 19
	and	$t1, $t1, $a7
	ld.w	$t2, $fp, 96
	ldx.h	$t1, $a3, $t1
	ld.w	$t3, $a0, 68
	ld.d	$t4, $a0, 88
	addi.d	$t5, $t2, 1
	st.w	$t5, $fp, 96
	slli.d	$t3, $t3, 2
	ldx.wu	$t5, $t4, $t3
	slli.d	$t2, $t2, 1
	stx.h	$t1, $a2, $t2
	ldx.bu	$a5, $a6, $a5
	andi	$a6, $t5, 1023
	addi.d	$t1, $a6, -1023
	sltui	$t1, $t1, 1
	addi.d	$t2, $t5, 1
	ori	$t6, $t5, 1023
	masknez	$t2, $t2, $t1
	maskeqz	$t1, $t6, $t1
	or	$t1, $t1, $t2
	ld.w	$a1, $a1, %pc_lo12(y)
	srli.d	$t2, $t5, 10
	slli.d	$a6, $a6, 2
	ldx.w	$a6, $t0, $a6
	slli.d	$a1, $a1, 22
	sub.w	$a1, $a1, $t2
	srli.d	$a1, $a1, 3
	mul.d	$a1, $a1, $a6
	and	$a1, $a1, $a4
	add.d	$a1, $a1, $t1
	stx.w	$a1, $t4, $t3
	st.w	$a5, $a0, 68
	slli.d	$a0, $a5, 2
	ldx.wu	$a0, $t4, $a0
	ld.w	$a1, $fp, 96
	srli.d	$a0, $a0, 19
	and	$a0, $a0, $a7
	ldx.h	$a0, $a3, $a0
	addi.d	$a3, $a1, 1
	st.w	$a3, $fp, 96
	slli.d	$a1, $a1, 1
	stx.h	$a0, $a2, $a1
	ld.d	$s2, $sp, 8                     # 8-byte Folded Reload
	ld.d	$s1, $sp, 16                    # 8-byte Folded Reload
	ld.d	$s0, $sp, 24                    # 8-byte Folded Reload
	ld.d	$fp, $sp, 32                    # 8-byte Folded Reload
	ld.d	$ra, $sp, 40                    # 8-byte Folded Reload
	addi.d	$sp, $sp, 48
	ret
.LBB34_3:                               # %init.check
	pcalau12i	$a0, %pc_hi20(_ZGVZ8picModelR5MixerE1t)
	addi.d	$s0, $a0, %pc_lo12(_ZGVZ8picModelR5MixerE1t)
	move	$a0, $s0
	pcaddu18i	$ra, %call36(__cxa_guard_acquire)
	jirl	$ra, $ra, 0
	addi.w	$a0, $a0, 0
	beqz	$a0, .LBB34_1
# %bb.4:                                # %init
.Ltmp39:                                # EH_LABEL
	pcalau12i	$a0, %pc_hi20(_ZZ8picModelR5MixerE1t)
	addi.d	$a0, $a0, %pc_lo12(_ZZ8picModelR5MixerE1t)
	lu12i.w	$a1, 16
	ori	$a1, $a1, 512
	pcaddu18i	$ra, %call36(_ZN5ArrayIhLi0EEC2Ei)
	jirl	$ra, $ra, 0
.Ltmp40:                                # EH_LABEL
# %bb.5:                                # %invoke.cont
	pcalau12i	$a0, %pc_hi20(_ZN5ArrayIhLi0EED2Ev)
	addi.d	$a0, $a0, %pc_lo12(_ZN5ArrayIhLi0EED2Ev)
	pcalau12i	$a1, %pc_hi20(_ZZ8picModelR5MixerE1t)
	addi.d	$a1, $a1, %pc_lo12(_ZZ8picModelR5MixerE1t)
	pcalau12i	$a2, %pc_hi20(__dso_handle)
	addi.d	$a2, $a2, %pc_lo12(__dso_handle)
	pcaddu18i	$ra, %call36(__cxa_atexit)
	jirl	$ra, $ra, 0
	pcalau12i	$a0, %pc_hi20(_ZGVZ8picModelR5MixerE1t)
	addi.d	$a0, $a0, %pc_lo12(_ZGVZ8picModelR5MixerE1t)
	pcaddu18i	$ra, %call36(__cxa_guard_release)
	jirl	$ra, $ra, 0
	b	.LBB34_1
.LBB34_6:                               # %init.check2
	pcalau12i	$a0, %pc_hi20(_ZGVZ8picModelR5MixerE2sm)
	addi.d	$s0, $a0, %pc_lo12(_ZGVZ8picModelR5MixerE2sm)
	move	$a0, $s0
	pcaddu18i	$ra, %call36(__cxa_guard_acquire)
	jirl	$ra, $ra, 0
	addi.w	$a0, $a0, 0
	beqz	$a0, .LBB34_2
# %bb.7:                                # %arrayctor.loop.preheader
.Ltmp42:                                # EH_LABEL
	pcalau12i	$a0, %pc_hi20(_ZZ8picModelR5MixerE2sm)
	addi.d	$s1, $a0, %pc_lo12(_ZZ8picModelR5MixerE2sm)
	ori	$a1, $zero, 256
	move	$a0, $s1
	pcaddu18i	$ra, %call36(_ZN8StateMapC2Ei)
	jirl	$ra, $ra, 0
.Ltmp43:                                # EH_LABEL
# %bb.8:                                # %invoke.cont6
	addi.d	$s2, $s1, 32
.Ltmp45:                                # EH_LABEL
	ori	$a1, $zero, 256
	move	$a0, $s2
	pcaddu18i	$ra, %call36(_ZN8StateMapC2Ei)
	jirl	$ra, $ra, 0
.Ltmp46:                                # EH_LABEL
# %bb.9:                                # %invoke.cont6.1
	addi.d	$s2, $s1, 64
.Ltmp47:                                # EH_LABEL
	ori	$a1, $zero, 256
	move	$a0, $s2
	pcaddu18i	$ra, %call36(_ZN8StateMapC2Ei)
	jirl	$ra, $ra, 0
.Ltmp48:                                # EH_LABEL
# %bb.10:                               # %invoke.cont6.2
	pcalau12i	$a0, %pc_hi20(__cxx_global_array_dtor)
	addi.d	$a0, $a0, %pc_lo12(__cxx_global_array_dtor)
	pcalau12i	$a1, %pc_hi20(__dso_handle)
	addi.d	$a2, $a1, %pc_lo12(__dso_handle)
	move	$a1, $zero
	pcaddu18i	$ra, %call36(__cxa_atexit)
	jirl	$ra, $ra, 0
	pcalau12i	$a0, %pc_hi20(_ZGVZ8picModelR5MixerE2sm)
	addi.d	$a0, $a0, %pc_lo12(_ZGVZ8picModelR5MixerE2sm)
	pcaddu18i	$ra, %call36(__cxa_guard_release)
	jirl	$ra, $ra, 0
	b	.LBB34_2
.LBB34_11:                              # %lpad5
.Ltmp44:                                # EH_LABEL
	b	.LBB34_13
.LBB34_12:                              # %lpad
.Ltmp41:                                # EH_LABEL
.LBB34_13:                              # %lpad
	move	$fp, $a0
	move	$a0, $s0
	pcaddu18i	$ra, %call36(__cxa_guard_abort)
	jirl	$ra, $ra, 0
	move	$a0, $fp
	pcaddu18i	$ra, %call36(_Unwind_Resume)
	jirl	$ra, $ra, 0
.LBB34_14:                              # %arraydestroy.body.preheader
.Ltmp49:                                # EH_LABEL
	move	$fp, $a0
.LBB34_15:                              # %arraydestroy.body
                                        # =>This Inner Loop Header: Depth=1
	addi.d	$s2, $s2, -32
	move	$a0, $s2
	pcaddu18i	$ra, %call36(_ZN8StateMapD2Ev)
	jirl	$ra, $ra, 0
	bne	$s2, $s1, .LBB34_15
# %bb.16:                               # %eh.resume
	move	$a0, $s0
	pcaddu18i	$ra, %call36(__cxa_guard_abort)
	jirl	$ra, $ra, 0
	move	$a0, $fp
	pcaddu18i	$ra, %call36(_Unwind_Resume)
	jirl	$ra, $ra, 0
.Lfunc_end34:
	.size	_Z8picModelR5Mixer, .Lfunc_end34-_Z8picModelR5Mixer
	.cfi_endproc
	.section	.gcc_except_table,"a",@progbits
	.p2align	2, 0x0
GCC_except_table34:
.Lexception3:
	.byte	255                             # @LPStart Encoding = omit
	.byte	255                             # @TType Encoding = omit
	.byte	1                               # Call site Encoding = uleb128
	.uleb128 .Lcst_end3-.Lcst_begin3
.Lcst_begin3:
	.uleb128 .Lfunc_begin3-.Lfunc_begin3    # >> Call Site 1 <<
	.uleb128 .Ltmp39-.Lfunc_begin3          #   Call between .Lfunc_begin3 and .Ltmp39
	.byte	0                               #     has no landing pad
	.byte	0                               #   On action: cleanup
	.uleb128 .Ltmp39-.Lfunc_begin3          # >> Call Site 2 <<
	.uleb128 .Ltmp40-.Ltmp39                #   Call between .Ltmp39 and .Ltmp40
	.uleb128 .Ltmp41-.Lfunc_begin3          #     jumps to .Ltmp41
	.byte	0                               #   On action: cleanup
	.uleb128 .Ltmp40-.Lfunc_begin3          # >> Call Site 3 <<
	.uleb128 .Ltmp42-.Ltmp40                #   Call between .Ltmp40 and .Ltmp42
	.byte	0                               #     has no landing pad
	.byte	0                               #   On action: cleanup
	.uleb128 .Ltmp42-.Lfunc_begin3          # >> Call Site 4 <<
	.uleb128 .Ltmp43-.Ltmp42                #   Call between .Ltmp42 and .Ltmp43
	.uleb128 .Ltmp44-.Lfunc_begin3          #     jumps to .Ltmp44
	.byte	0                               #   On action: cleanup
	.uleb128 .Ltmp45-.Lfunc_begin3          # >> Call Site 5 <<
	.uleb128 .Ltmp48-.Ltmp45                #   Call between .Ltmp45 and .Ltmp48
	.uleb128 .Ltmp49-.Lfunc_begin3          #     jumps to .Ltmp49
	.byte	0                               #   On action: cleanup
	.uleb128 .Ltmp48-.Lfunc_begin3          # >> Call Site 6 <<
	.uleb128 .Lfunc_end34-.Ltmp48           #   Call between .Ltmp48 and .Lfunc_end34
	.byte	0                               #     has no landing pad
	.byte	0                               #   On action: cleanup
.Lcst_end3:
	.p2align	2, 0x0
                                        # -- End function
	.section	.text.startup,"ax",@progbits
	.p2align	5                               # -- Begin function __cxx_global_array_dtor
	.type	__cxx_global_array_dtor,@function
__cxx_global_array_dtor:                # @__cxx_global_array_dtor
# %bb.0:                                # %entry
	addi.d	$sp, $sp, -32
	st.d	$ra, $sp, 24                    # 8-byte Folded Spill
	st.d	$fp, $sp, 16                    # 8-byte Folded Spill
	st.d	$s0, $sp, 8                     # 8-byte Folded Spill
	pcalau12i	$a0, %pc_hi20(_ZZ8picModelR5MixerE2sm)
	addi.d	$fp, $a0, %pc_lo12(_ZZ8picModelR5MixerE2sm)
	ld.w	$a0, $fp, 72
	pcalau12i	$a1, %pc_hi20(programChecker)
	addi.d	$s0, $a1, %pc_lo12(programChecker)
	ld.w	$a1, $s0, 0
	ld.w	$a2, $s0, 4
	slli.d	$a0, $a0, 2
	sub.w	$a0, $a1, $a0
	st.w	$a0, $s0, 0
	bge	$a2, $a0, .LBB35_2
# %bb.1:                                # %if.then.i.i.i
	st.w	$a0, $s0, 4
.LBB35_2:                               # %_ZN8StateMapD2Ev.exit
	ld.d	$a0, $fp, 80
	pcaddu18i	$ra, %call36(free)
	jirl	$ra, $ra, 0
	ld.w	$a0, $fp, 40
	ld.w	$a1, $s0, 0
	ld.w	$a2, $s0, 4
	slli.d	$a0, $a0, 2
	sub.w	$a0, $a1, $a0
	st.w	$a0, $s0, 0
	bge	$a2, $a0, .LBB35_4
# %bb.3:                                # %if.then.i.i.i.1
	st.w	$a0, $s0, 4
.LBB35_4:                               # %_ZN8StateMapD2Ev.exit.1
	ld.d	$a0, $fp, 48
	pcaddu18i	$ra, %call36(free)
	jirl	$ra, $ra, 0
	ld.w	$a0, $fp, 8
	ld.w	$a1, $s0, 0
	ld.w	$a2, $s0, 4
	slli.d	$a0, $a0, 2
	sub.w	$a0, $a1, $a0
	st.w	$a0, $s0, 0
	bge	$a2, $a0, .LBB35_6
# %bb.5:                                # %if.then.i.i.i.2
	st.w	$a0, $s0, 4
.LBB35_6:                               # %_ZN8StateMapD2Ev.exit.2
	ld.d	$a0, $fp, 16
	ld.d	$s0, $sp, 8                     # 8-byte Folded Reload
	ld.d	$fp, $sp, 16                    # 8-byte Folded Reload
	ld.d	$ra, $sp, 24                    # 8-byte Folded Reload
	addi.d	$sp, $sp, 32
	pcaddu18i	$t8, %call36(free)
	jr	$t8
.Lfunc_end35:
	.size	__cxx_global_array_dtor, .Lfunc_end35-__cxx_global_array_dtor
                                        # -- End function
	.text
	.globl	_Z9wordModelR5Mixer             # -- Begin function _Z9wordModelR5Mixer
	.p2align	5
	.type	_Z9wordModelR5Mixer,@function
_Z9wordModelR5Mixer:                    # @_Z9wordModelR5Mixer
.Lfunc_begin4:
	.cfi_startproc
	.cfi_personality 155, DW.ref.__gxx_personality_v0
	.cfi_lsda 27, .Lexception4
# %bb.0:                                # %entry
	addi.d	$sp, $sp, -48
	.cfi_def_cfa_offset 48
	st.d	$ra, $sp, 40                    # 8-byte Folded Spill
	st.d	$fp, $sp, 32                    # 8-byte Folded Spill
	st.d	$s0, $sp, 24                    # 8-byte Folded Spill
	st.d	$s1, $sp, 16                    # 8-byte Folded Spill
	st.d	$s2, $sp, 8                     # 8-byte Folded Spill
	st.d	$s3, $sp, 0                     # 8-byte Folded Spill
	.cfi_offset 1, -8
	.cfi_offset 22, -16
	.cfi_offset 23, -24
	.cfi_offset 24, -32
	.cfi_offset 25, -40
	.cfi_offset 26, -48
	pcalau12i	$a1, %pc_hi20(_ZGVZ9wordModelR5MixerE2cm)
	ld.b	$a1, $a1, %pc_lo12(_ZGVZ9wordModelR5MixerE2cm)
	move	$fp, $a0
	dbar	20
	beqz	$a1, .LBB36_11
.LBB36_1:                               # %init.end
	pcalau12i	$a2, %pc_hi20(bpos)
	ld.w	$a3, $a2, %pc_lo12(bpos)
	pcalau12i	$a1, %pc_hi20(pos)
	pcalau12i	$a0, %pc_hi20(buf)
	addi.d	$a0, $a0, %pc_lo12(buf)
	bnez	$a3, .LBB36_10
# %bb.2:                                # %if.then
	pcalau12i	$a3, %pc_hi20(_ZZ9wordModelR5MixerE2cm)
	addi.d	$a3, $a3, %pc_lo12(_ZZ9wordModelR5MixerE2cm)
	pcalau12i	$a4, %pc_hi20(c4)
	ld.bu	$a4, $a4, %pc_lo12(c4)
	addi.d	$a5, $a4, -65
	sltui	$a5, $a5, 26
	ori	$a6, $a4, 32
	masknez	$a4, $a4, $a5
	maskeqz	$a5, $a6, $a5
	or	$a5, $a5, $a4
	pcalau12i	$a6, %pc_hi20(_ZZ9wordModelR5MixerE5word0)
	ld.w	$a7, $a6, %pc_lo12(_ZZ9wordModelR5MixerE5word0)
	ori	$t0, $zero, 127
	pcalau12i	$a4, %pc_hi20(_ZZ9wordModelR5MixerE3nl1)
	pcalau12i	$t6, %pc_hi20(_ZZ9wordModelR5MixerE5word1)
	pcalau12i	$t7, %pc_hi20(_ZZ9wordModelR5MixerE5word2)
	pcalau12i	$t4, %pc_hi20(_ZZ9wordModelR5MixerE5word3)
	pcalau12i	$t3, %pc_hi20(_ZZ9wordModelR5MixerE5word4)
	pcalau12i	$t2, %pc_hi20(_ZZ9wordModelR5MixerE5word5)
	pcalau12i	$t5, %pc_hi20(_ZZ9wordModelR5MixerE5text0)
	bltu	$t0, $a5, .LBB36_8
# %bb.3:                                # %if.then
	addi.d	$t0, $a5, -97
	ori	$t1, $zero, 26
	bltu	$t0, $t1, .LBB36_8
# %bb.4:                                # %if.else
	beqz	$a7, .LBB36_6
# %bb.5:                                # %if.then16
	ld.w	$t0, $t3, %pc_lo12(_ZZ9wordModelR5MixerE5word4)
	ld.w	$t1, $t4, %pc_lo12(_ZZ9wordModelR5MixerE5word3)
	ori	$t8, $zero, 23
	mul.d	$t0, $t0, $t8
	st.w	$t0, $t2, %pc_lo12(_ZZ9wordModelR5MixerE5word5)
	alsl.d	$t0, $t1, $t1, 3
	ld.w	$t8, $t7, %pc_lo12(_ZZ9wordModelR5MixerE5word2)
	alsl.d	$t0, $t0, $t1, 1
	ld.w	$t1, $t6, %pc_lo12(_ZZ9wordModelR5MixerE5word1)
	st.w	$t0, $t3, %pc_lo12(_ZZ9wordModelR5MixerE5word4)
	alsl.d	$t0, $t8, $t8, 4
	st.w	$t0, $t4, %pc_lo12(_ZZ9wordModelR5MixerE5word3)
	alsl.d	$t0, $t1, $t1, 1
	alsl.d	$t0, $t0, $t1, 2
	st.w	$t0, $t7, %pc_lo12(_ZZ9wordModelR5MixerE5word2)
	alsl.d	$t0, $a7, $a7, 2
	alsl.d	$a7, $t0, $a7, 1
	st.w	$a7, $t6, %pc_lo12(_ZZ9wordModelR5MixerE5word1)
	st.w	$zero, $a6, %pc_lo12(_ZZ9wordModelR5MixerE5word0)
.LBB36_6:                               # %if.end23
	ld.w	$a6, $a1, %pc_lo12(pos)
	pcalau12i	$t0, %pc_hi20(_ZZ9wordModelR5MixerE2nl)
	ld.w	$a7, $t0, %pc_lo12(_ZZ9wordModelR5MixerE2nl)
	move	$s0, $zero
	ori	$t1, $zero, 10
	bne	$a5, $t1, .LBB36_9
# %bb.7:                                # %if.then25
	st.w	$a7, $a4, %pc_lo12(_ZZ9wordModelR5MixerE3nl1)
	addi.d	$a7, $a6, -1
	st.w	$a7, $t0, %pc_lo12(_ZZ9wordModelR5MixerE2nl)
	b	.LBB36_9
.LBB36_8:                               # %if.end23.thread
	lu12i.w	$t0, 2
	ori	$t0, $t0, 224
	mul.d	$a7, $a7, $t0
	add.d	$s0, $a7, $a5
	st.w	$s0, $a6, %pc_lo12(_ZZ9wordModelR5MixerE5word0)
	ld.w	$t0, $t5, %pc_lo12(_ZZ9wordModelR5MixerE5text0)
	lu12i.w	$a6, 3
	ori	$t1, $a6, 3664
	ld.w	$a6, $a1, %pc_lo12(pos)
	pcalau12i	$a7, %pc_hi20(_ZZ9wordModelR5MixerE2nl)
	ld.w	$a7, $a7, %pc_lo12(_ZZ9wordModelR5MixerE2nl)
	mul.d	$t0, $t0, $t1
	add.d	$a5, $t0, $a5
	st.w	$a5, $t5, %pc_lo12(_ZZ9wordModelR5MixerE5text0)
.LBB36_9:                               # %if.end26
	sub.w	$a5, $a6, $a7
	slti	$a7, $a5, 255
	maskeqz	$a5, $a5, $a7
	ori	$t0, $zero, 255
	masknez	$a7, $t0, $a7
	ld.w	$t0, $a4, %pc_lo12(_ZZ9wordModelR5MixerE3nl1)
	ld.w	$t1, $a0, 0
	or	$a4, $a5, $a7
	ld.d	$a5, $a0, 16
	add.w	$a7, $a4, $t0
	addi.w	$t0, $t1, -1
	and	$a7, $t0, $a7
	ldx.bu	$t1, $a5, $a7
	addi.w	$a6, $a6, -1
	and	$a6, $t0, $a6
	ldx.bu	$a6, $a5, $a6
	ld.w	$s1, $a3, 136
	ori	$a7, $zero, 271
	mul.d	$a7, $s0, $a7
	add.d	$t8, $a7, $a6
	addi.d	$a6, $s1, 1
	st.w	$a6, $a3, 136
	lu12i.w	$a6, 241126
	ori	$a6, $a6, 2227
	mul.d	$a7, $t8, $a6
	add.d	$a7, $a7, $s1
	rotri.w	$s2, $a7, 16
	lu12i.w	$a7, 30140
	ori	$a7, $a7, 3351
	ld.d	$t0, $a3, 96
	mul.d	$s2, $s2, $a7
	add.d	$s2, $s2, $s1
	slli.d	$s1, $s1, 2
	stx.w	$s2, $t0, $s1
	ld.w	$s1, $a3, 136
	addi.d	$s2, $s1, 1
	st.w	$s2, $a3, 136
	mul.d	$s2, $s0, $a6
	add.d	$s2, $s1, $s2
	rotri.w	$s2, $s2, 16
	mul.d	$s2, $s2, $a7
	add.d	$s2, $s2, $s1
	slli.d	$s1, $s1, 2
	stx.w	$s2, $t0, $s1
	ld.w	$s1, $t6, %pc_lo12(_ZZ9wordModelR5MixerE5word1)
	ld.w	$s2, $a3, 136
	add.d	$t6, $s1, $t8
	addi.d	$s3, $s2, 1
	st.w	$s3, $a3, 136
	mul.d	$s3, $t6, $a6
	add.d	$s3, $s3, $s2
	rotri.w	$s3, $s3, 16
	mul.d	$s3, $s3, $a7
	add.d	$s3, $s3, $s2
	slli.d	$s2, $s2, 2
	stx.w	$s3, $t0, $s2
	ld.w	$s2, $a3, 136
	slli.d	$s3, $s1, 5
	sub.d	$s1, $s3, $s1
	add.d	$s0, $s1, $s0
	addi.d	$s1, $s2, 1
	st.w	$s1, $a3, 136
	mul.d	$s0, $s0, $a6
	add.d	$s0, $s2, $s0
	rotri.w	$s0, $s0, 16
	mul.d	$s0, $s0, $a7
	add.d	$s0, $s0, $s2
	slli.d	$s1, $s2, 2
	stx.w	$s0, $t0, $s1
	ld.w	$t7, $t7, %pc_lo12(_ZZ9wordModelR5MixerE5word2)
	ld.w	$s0, $a3, 136
	ori	$s1, $zero, 29
	mul.d	$s1, $t7, $s1
	add.d	$s1, $s1, $t6
	addi.d	$s2, $s0, 1
	st.w	$s2, $a3, 136
	mul.d	$s1, $s1, $a6
	add.d	$s1, $s1, $s0
	rotri.w	$s1, $s1, 16
	mul.d	$s1, $s1, $a7
	add.d	$s1, $s1, $s0
	slli.d	$s0, $s0, 2
	stx.w	$s1, $t0, $s0
	ld.wu	$t5, $t5, %pc_lo12(_ZZ9wordModelR5MixerE5text0)
	ld.w	$s0, $a3, 136
	bstrpick.d	$s1, $t5, 23, 0
	addi.d	$s2, $s0, 1
	st.w	$s2, $a3, 136
	mul.d	$s1, $s1, $a6
	add.d	$s1, $s1, $s0
	rotri.w	$s1, $s1, 16
	mul.d	$s1, $s1, $a7
	add.d	$s1, $s1, $s0
	slli.d	$s0, $s0, 2
	stx.w	$s1, $t0, $s0
	ld.w	$s0, $a3, 136
	bstrpick.d	$t5, $t5, 19, 0
	addi.d	$s1, $s0, 1
	st.w	$s1, $a3, 136
	mul.d	$t5, $t5, $a6
	add.d	$t5, $s0, $t5
	rotri.w	$t5, $t5, 16
	mul.d	$t5, $t5, $a7
	add.d	$t5, $t5, $s0
	slli.d	$s0, $s0, 2
	stx.w	$t5, $t0, $s0
	ld.w	$s0, $a3, 136
	add.d	$t5, $t7, $t8
	addi.d	$t7, $s0, 1
	st.w	$t7, $a3, 136
	mul.d	$t7, $t5, $a6
	add.d	$t7, $s0, $t7
	rotri.w	$t7, $t7, 16
	mul.d	$t7, $t7, $a7
	add.d	$t7, $t7, $s0
	slli.d	$s0, $s0, 2
	stx.w	$t7, $t0, $s0
	ld.w	$t4, $t4, %pc_lo12(_ZZ9wordModelR5MixerE5word3)
	ld.w	$t7, $a3, 136
	add.d	$s0, $t4, $t8
	addi.d	$s1, $t7, 1
	st.w	$s1, $a3, 136
	mul.d	$s0, $s0, $a6
	add.d	$s0, $s0, $t7
	rotri.w	$s0, $s0, 16
	mul.d	$s0, $s0, $a7
	add.d	$s0, $s0, $t7
	slli.d	$t7, $t7, 2
	stx.w	$s0, $t0, $t7
	ld.w	$t3, $t3, %pc_lo12(_ZZ9wordModelR5MixerE5word4)
	ld.w	$t7, $a3, 136
	add.d	$t3, $t3, $t8
	addi.d	$s0, $t7, 1
	st.w	$s0, $a3, 136
	mul.d	$t3, $t3, $a6
	add.d	$t3, $t3, $t7
	rotri.w	$t3, $t3, 16
	mul.d	$t3, $t3, $a7
	add.d	$t3, $t3, $t7
	slli.d	$t7, $t7, 2
	stx.w	$t3, $t0, $t7
	ld.w	$t2, $t2, %pc_lo12(_ZZ9wordModelR5MixerE5word5)
	ld.w	$t3, $a3, 136
	add.d	$t2, $t2, $t8
	addi.d	$t7, $t3, 1
	st.w	$t7, $a3, 136
	mul.d	$t2, $t2, $a6
	add.d	$t2, $t2, $t3
	rotri.w	$t2, $t2, 16
	mul.d	$t2, $t2, $a7
	add.d	$t2, $t2, $t3
	slli.d	$t3, $t3, 2
	stx.w	$t2, $t0, $t3
	ld.w	$t2, $a1, %pc_lo12(pos)
	ld.w	$t3, $a0, 0
	addi.w	$t7, $t2, -1
	addi.w	$t3, $t3, -1
	and	$t7, $t3, $t7
	ldx.bu	$t7, $a5, $t7
	addi.w	$t8, $t2, -3
	and	$t8, $t3, $t8
	ldx.bu	$t8, $a5, $t8
	addi.w	$t2, $t2, -5
	and	$t2, $t3, $t2
	ldx.bu	$t2, $a5, $t2
	slli.d	$t3, $t8, 8
	ld.w	$t8, $a3, 136
	or	$t3, $t3, $t7
	slli.d	$t2, $t2, 16
	or	$t2, $t3, $t2
	addi.d	$t3, $t8, 1
	st.w	$t3, $a3, 136
	mul.d	$t2, $t2, $a6
	add.d	$t2, $t2, $t8
	rotri.w	$t2, $t2, 16
	mul.d	$t2, $t2, $a7
	add.d	$t2, $t2, $t8
	slli.d	$t3, $t8, 2
	stx.w	$t2, $t0, $t3
	ld.w	$t2, $a1, %pc_lo12(pos)
	ld.w	$t3, $a0, 0
	addi.w	$t7, $t2, -2
	addi.w	$t3, $t3, -1
	and	$t7, $t3, $t7
	ldx.bu	$t7, $a5, $t7
	addi.w	$t8, $t2, -4
	and	$t8, $t3, $t8
	ldx.bu	$t8, $a5, $t8
	addi.w	$t2, $t2, -6
	and	$t2, $t3, $t2
	ldx.bu	$t2, $a5, $t2
	slli.d	$t3, $t8, 8
	ld.w	$t8, $a3, 136
	or	$t3, $t3, $t7
	slli.d	$t2, $t2, 16
	or	$t2, $t3, $t2
	addi.d	$t3, $t8, 1
	st.w	$t3, $a3, 136
	mul.d	$t2, $t2, $a6
	add.d	$t2, $t2, $t8
	rotri.w	$t2, $t2, 16
	mul.d	$t2, $t2, $a7
	add.d	$t2, $t2, $t8
	slli.d	$t3, $t8, 2
	stx.w	$t2, $t0, $t3
	ld.w	$t2, $a3, 136
	add.d	$t3, $t4, $t6
	addi.d	$t6, $t2, 1
	st.w	$t6, $a3, 136
	mul.d	$t3, $t3, $a6
	add.d	$t3, $t2, $t3
	rotri.w	$t3, $t3, 16
	mul.d	$t3, $t3, $a7
	add.d	$t3, $t3, $t2
	slli.d	$t2, $t2, 2
	stx.w	$t3, $t0, $t2
	ld.w	$t2, $a3, 136
	add.d	$t3, $t4, $t5
	addi.d	$t4, $t2, 1
	st.w	$t4, $a3, 136
	mul.d	$t3, $t3, $a6
	add.d	$t3, $t2, $t3
	rotri.w	$t3, $t3, 16
	mul.d	$t3, $t3, $a7
	add.d	$t3, $t3, $t2
	slli.d	$t2, $t2, 2
	stx.w	$t3, $t0, $t2
	ld.w	$t2, $a1, %pc_lo12(pos)
	ld.w	$t3, $a0, 0
	addi.w	$t2, $t2, -1
	addi.w	$t3, $t3, -1
	and	$t2, $t3, $t2
	ldx.bu	$t2, $a5, $t2
	slli.d	$t3, $a4, 16
	ld.w	$t4, $a3, 136
	slli.d	$t2, $t2, 8
	or	$t2, $t2, $t3
	or	$t2, $t2, $t1
	addi.d	$t3, $t4, 1
	st.w	$t3, $a3, 136
	mul.d	$t2, $t2, $a6
	add.d	$t2, $t2, $t4
	rotri.w	$t2, $t2, 16
	mul.d	$t2, $t2, $a7
	add.d	$t2, $t2, $t4
	slli.d	$t3, $t4, 2
	stx.w	$t2, $t0, $t3
	ld.w	$t2, $a1, %pc_lo12(pos)
	ld.w	$t3, $a0, 0
	addi.w	$t2, $t2, -1
	addi.w	$t3, $t3, -1
	and	$t2, $t3, $t2
	ldx.bu	$t2, $a5, $t2
	ld.w	$t3, $a3, 136
	slli.d	$t2, $t2, 8
	or	$t1, $t2, $t1
	addi.d	$t2, $t3, 1
	st.w	$t2, $a3, 136
	mul.d	$t1, $t1, $a6
	add.d	$t1, $t1, $t3
	rotri.w	$t1, $t1, 16
	mul.d	$t1, $t1, $a7
	add.d	$t1, $t1, $t3
	slli.d	$t2, $t3, 2
	stx.w	$t1, $t0, $t2
	ld.w	$t1, $a1, %pc_lo12(pos)
	ld.w	$t2, $a0, 0
	addi.w	$t1, $t1, -1
	addi.w	$t2, $t2, -1
	and	$t1, $t2, $t1
	ldx.bu	$a5, $a5, $t1
	ld.w	$t1, $a3, 136
	slli.d	$t2, $a4, 8
	or	$a5, $t2, $a5
	addi.d	$t2, $t1, 1
	st.w	$t2, $a3, 136
	mul.d	$a5, $a5, $a6
	add.d	$a5, $a5, $t1
	rotri.w	$a5, $a5, 16
	mul.d	$a5, $a5, $a7
	add.d	$a5, $a5, $t1
	slli.d	$t1, $t1, 2
	stx.w	$a5, $t0, $t1
	ld.w	$a5, $a3, 136
	addi.d	$t1, $a5, 1
	st.w	$t1, $a3, 136
	mul.d	$a3, $a4, $a6
	add.d	$a3, $a5, $a3
	rotri.w	$a3, $a3, 16
	mul.d	$a3, $a3, $a7
	add.d	$a3, $a3, $a5
	slli.d	$a4, $a5, 2
	stx.w	$a3, $t0, $a4
	ld.w	$a3, $a2, %pc_lo12(bpos)
.LBB36_10:                              # %if.end73
	pcalau12i	$a2, %pc_hi20(c0)
	ld.w	$a1, $a1, %pc_lo12(pos)
	ld.w	$a4, $a0, 0
	ld.w	$a2, $a2, %pc_lo12(c0)
	ld.d	$a0, $a0, 16
	addi.w	$a1, $a1, -1
	addi.w	$a4, $a4, -1
	and	$a1, $a4, $a1
	ldx.bu	$a4, $a0, $a1
	pcalau12i	$a0, %pc_hi20(y)
	ld.w	$a5, $a0, %pc_lo12(y)
	pcalau12i	$a0, %pc_hi20(_ZZ9wordModelR5MixerE2cm)
	addi.d	$a0, $a0, %pc_lo12(_ZZ9wordModelR5MixerE2cm)
	move	$a1, $fp
	ld.d	$s3, $sp, 0                     # 8-byte Folded Reload
	ld.d	$s2, $sp, 8                     # 8-byte Folded Reload
	ld.d	$s1, $sp, 16                    # 8-byte Folded Reload
	ld.d	$s0, $sp, 24                    # 8-byte Folded Reload
	ld.d	$fp, $sp, 32                    # 8-byte Folded Reload
	ld.d	$ra, $sp, 40                    # 8-byte Folded Reload
	addi.d	$sp, $sp, 48
	pcaddu18i	$t8, %call36(_ZN10ContextMap4mix1ER5Mixeriiii)
	jr	$t8
.LBB36_11:                              # %init.check
	pcalau12i	$a0, %pc_hi20(_ZGVZ9wordModelR5MixerE2cm)
	addi.d	$a0, $a0, %pc_lo12(_ZGVZ9wordModelR5MixerE2cm)
	pcaddu18i	$ra, %call36(__cxa_guard_acquire)
	jirl	$ra, $ra, 0
	addi.w	$a0, $a0, 0
	beqz	$a0, .LBB36_1
# %bb.12:                               # %init
	pcalau12i	$a0, %pc_hi20(level)
	ld.wu	$a0, $a0, %pc_lo12(level)
	lu12i.w	$a1, 256
	sll.w	$a1, $a1, $a0
.Ltmp50:                                # EH_LABEL
	pcalau12i	$a0, %pc_hi20(_ZZ9wordModelR5MixerE2cm)
	addi.d	$a0, $a0, %pc_lo12(_ZZ9wordModelR5MixerE2cm)
	ori	$a2, $zero, 20
	pcaddu18i	$ra, %call36(_ZN10ContextMapC2Eii)
	jirl	$ra, $ra, 0
.Ltmp51:                                # EH_LABEL
# %bb.13:                               # %invoke.cont
	pcalau12i	$a0, %pc_hi20(_ZN10ContextMapD2Ev)
	addi.d	$a0, $a0, %pc_lo12(_ZN10ContextMapD2Ev)
	pcalau12i	$a1, %pc_hi20(_ZZ9wordModelR5MixerE2cm)
	addi.d	$a1, $a1, %pc_lo12(_ZZ9wordModelR5MixerE2cm)
	pcalau12i	$a2, %pc_hi20(__dso_handle)
	addi.d	$a2, $a2, %pc_lo12(__dso_handle)
	pcaddu18i	$ra, %call36(__cxa_atexit)
	jirl	$ra, $ra, 0
	pcalau12i	$a0, %pc_hi20(_ZGVZ9wordModelR5MixerE2cm)
	addi.d	$a0, $a0, %pc_lo12(_ZGVZ9wordModelR5MixerE2cm)
	pcaddu18i	$ra, %call36(__cxa_guard_release)
	jirl	$ra, $ra, 0
	b	.LBB36_1
.LBB36_14:                              # %lpad
.Ltmp52:                                # EH_LABEL
	move	$fp, $a0
	pcalau12i	$a0, %pc_hi20(_ZGVZ9wordModelR5MixerE2cm)
	addi.d	$a0, $a0, %pc_lo12(_ZGVZ9wordModelR5MixerE2cm)
	pcaddu18i	$ra, %call36(__cxa_guard_abort)
	jirl	$ra, $ra, 0
	move	$a0, $fp
	pcaddu18i	$ra, %call36(_Unwind_Resume)
	jirl	$ra, $ra, 0
.Lfunc_end36:
	.size	_Z9wordModelR5Mixer, .Lfunc_end36-_Z9wordModelR5Mixer
	.cfi_endproc
	.section	.gcc_except_table,"a",@progbits
	.p2align	2, 0x0
GCC_except_table36:
.Lexception4:
	.byte	255                             # @LPStart Encoding = omit
	.byte	255                             # @TType Encoding = omit
	.byte	1                               # Call site Encoding = uleb128
	.uleb128 .Lcst_end4-.Lcst_begin4
.Lcst_begin4:
	.uleb128 .Lfunc_begin4-.Lfunc_begin4    # >> Call Site 1 <<
	.uleb128 .Ltmp50-.Lfunc_begin4          #   Call between .Lfunc_begin4 and .Ltmp50
	.byte	0                               #     has no landing pad
	.byte	0                               #   On action: cleanup
	.uleb128 .Ltmp50-.Lfunc_begin4          # >> Call Site 2 <<
	.uleb128 .Ltmp51-.Ltmp50                #   Call between .Ltmp50 and .Ltmp51
	.uleb128 .Ltmp52-.Lfunc_begin4          #     jumps to .Ltmp52
	.byte	0                               #   On action: cleanup
	.uleb128 .Ltmp51-.Lfunc_begin4          # >> Call Site 3 <<
	.uleb128 .Lfunc_end36-.Ltmp51           #   Call between .Ltmp51 and .Lfunc_end36
	.byte	0                               #     has no landing pad
	.byte	0                               #   On action: cleanup
.Lcst_end4:
	.p2align	2, 0x0
                                        # -- End function
	.text
	.globl	_Z11recordModelR5Mixer          # -- Begin function _Z11recordModelR5Mixer
	.p2align	5
	.type	_Z11recordModelR5Mixer,@function
_Z11recordModelR5Mixer:                 # @_Z11recordModelR5Mixer
.Lfunc_begin5:
	.cfi_startproc
	.cfi_personality 155, DW.ref.__gxx_personality_v0
	.cfi_lsda 27, .Lexception5
# %bb.0:                                # %entry
	addi.d	$sp, $sp, -96
	.cfi_def_cfa_offset 96
	st.d	$ra, $sp, 88                    # 8-byte Folded Spill
	st.d	$fp, $sp, 80                    # 8-byte Folded Spill
	st.d	$s0, $sp, 72                    # 8-byte Folded Spill
	st.d	$s1, $sp, 64                    # 8-byte Folded Spill
	st.d	$s2, $sp, 56                    # 8-byte Folded Spill
	st.d	$s3, $sp, 48                    # 8-byte Folded Spill
	st.d	$s4, $sp, 40                    # 8-byte Folded Spill
	st.d	$s5, $sp, 32                    # 8-byte Folded Spill
	st.d	$s6, $sp, 24                    # 8-byte Folded Spill
	st.d	$s7, $sp, 16                    # 8-byte Folded Spill
	st.d	$s8, $sp, 8                     # 8-byte Folded Spill
	.cfi_offset 1, -8
	.cfi_offset 22, -16
	.cfi_offset 23, -24
	.cfi_offset 24, -32
	.cfi_offset 25, -40
	.cfi_offset 26, -48
	.cfi_offset 27, -56
	.cfi_offset 28, -64
	.cfi_offset 29, -72
	.cfi_offset 30, -80
	.cfi_offset 31, -88
	pcalau12i	$a1, %pc_hi20(_ZGVZ11recordModelR5MixerE2cm)
	ld.b	$a1, $a1, %pc_lo12(_ZGVZ11recordModelR5MixerE2cm)
	move	$fp, $a0
	dbar	20
	beqz	$a1, .LBB37_38
.LBB37_1:                               # %init.end
	pcalau12i	$a0, %pc_hi20(_ZGVZ11recordModelR5MixerE2cn)
	ld.b	$a0, $a0, %pc_lo12(_ZGVZ11recordModelR5MixerE2cn)
	dbar	20
	beqz	$a0, .LBB37_41
.LBB37_2:                               # %init.end7
	pcalau12i	$a0, %pc_hi20(_ZGVZ11recordModelR5MixerE2co)
	ld.b	$a0, $a0, %pc_lo12(_ZGVZ11recordModelR5MixerE2co)
	dbar	20
	beqz	$a0, .LBB37_44
.LBB37_3:                               # %init.end14
	pcalau12i	$a0, %pc_hi20(_ZGVZ11recordModelR5MixerE2cp)
	ld.b	$a0, $a0, %pc_lo12(_ZGVZ11recordModelR5MixerE2cp)
	dbar	20
	beqz	$a0, .LBB37_47
.LBB37_4:                               # %init.end21
	pcalau12i	$s0, %pc_hi20(bpos)
	ld.w	$a3, $s0, %pc_lo12(bpos)
	pcalau12i	$s2, %pc_hi20(pos)
	ld.w	$t6, $s2, %pc_lo12(pos)
	pcalau12i	$a0, %pc_hi20(buf)
	addi.d	$s1, $a0, %pc_lo12(buf)
	bnez	$a3, .LBB37_36
# %bb.5:                                # %if.then
	pcalau12i	$a0, %pc_hi20(_ZZ11recordModelR5MixerE2cm)
	addi.d	$t4, $a0, %pc_lo12(_ZZ11recordModelR5MixerE2cm)
	pcalau12i	$a0, %pc_hi20(c4)
	ld.wu	$t3, $a0, %pc_lo12(c4)
	bstrpick.d	$a5, $t3, 15, 0
	andi	$a6, $t3, 255
	pcalau12i	$a0, %pc_hi20(_ZZ11recordModelR5MixerE5cpos1)
	addi.d	$a7, $a0, %pc_lo12(_ZZ11recordModelR5MixerE5cpos1)
	slli.d	$a0, $a6, 2
	ldx.w	$a1, $a7, $a0
	sub.w	$t0, $t6, $a1
	ori	$t7, $zero, 2
	pcalau12i	$t1, %pc_hi20(_ZZ11recordModelR5MixerE7rcount1)
	pcalau12i	$t5, %pc_hi20(_ZZ11recordModelR5MixerE4rlen)
	pcalau12i	$t2, %pc_hi20(_ZZ11recordModelR5MixerE7rcount2)
	pcalau12i	$a2, %pc_hi20(_ZZ11recordModelR5MixerE5cpos2)
	addi.d	$a2, $a2, %pc_lo12(_ZZ11recordModelR5MixerE5cpos2)
	pcalau12i	$a3, %pc_hi20(_ZZ11recordModelR5MixerE5cpos3)
	addi.d	$a3, $a3, %pc_lo12(_ZZ11recordModelR5MixerE5cpos3)
	pcalau12i	$a4, %pc_hi20(_ZZ11recordModelR5MixerE5cpos4)
	addi.d	$a4, $a4, %pc_lo12(_ZZ11recordModelR5MixerE5cpos4)
	blt	$t0, $t7, .LBB37_19
# %bb.6:                                # %land.lhs.true
	ldx.w	$t7, $a2, $a0
	sub.w	$t8, $a1, $t7
	bne	$t0, $t8, .LBB37_19
# %bb.7:                                # %land.lhs.true30
	ldx.w	$t8, $a3, $a0
	sub.w	$t7, $t7, $t8
	bne	$t0, $t7, .LBB37_19
# %bb.8:                                # %land.lhs.true37
	ldx.w	$t7, $a4, $a0
	sub.w	$t7, $t8, $t7
	bne	$t0, $t7, .LBB37_19
# %bb.9:                                # %land.lhs.true44
	ori	$t7, $zero, 15
	bgeu	$t7, $t0, .LBB37_12
.LBB37_10:                              # %if.then52
	pcalau12i	$t6, %pc_hi20(_ZZ11recordModelR5MixerE5rlen1)
	ld.w	$t7, $t6, %pc_lo12(_ZZ11recordModelR5MixerE5rlen1)
	bne	$t0, $t7, .LBB37_14
# %bb.11:                               # %if.then54
	ld.w	$t6, $t1, %pc_lo12(_ZZ11recordModelR5MixerE7rcount1)
	addi.w	$t6, $t6, 1
	st.w	$t6, $t1, %pc_lo12(_ZZ11recordModelR5MixerE7rcount1)
	b	.LBB37_20
.LBB37_12:                              # %lor.lhs.false
	ld.w	$t8, $s1, 0
	alsl.d	$s3, $t0, $t0, 2
	ld.d	$t7, $s1, 16
	addi.w	$t8, $t8, -1
	sub.w	$s3, $s3, $t6
	andn	$s3, $t8, $s3
	ldx.bu	$s3, $t7, $s3
	andi	$s4, $a5, 255
	bne	$s3, $s4, .LBB37_19
# %bb.13:                               # %land.lhs.true47
	slli.d	$s4, $t0, 2
	alsl.d	$s4, $t0, $s4, 1
	sub.w	$t6, $s4, $t6
	andn	$t6, $t8, $t6
	ldx.bu	$t6, $t7, $t6
	beq	$t6, $s3, .LBB37_10
	b	.LBB37_19
.LBB37_14:                              # %if.else
	pcalau12i	$t8, %pc_hi20(_ZZ11recordModelR5MixerE5rlen2)
	ld.w	$t7, $t8, %pc_lo12(_ZZ11recordModelR5MixerE5rlen2)
	bne	$t0, $t7, .LBB37_16
# %bb.15:                               # %if.then56
	ld.w	$t6, $t2, %pc_lo12(_ZZ11recordModelR5MixerE7rcount2)
	addi.d	$t6, $t6, 1
	b	.LBB37_18
.LBB37_16:                              # %if.else58
	ld.w	$s3, $t1, %pc_lo12(_ZZ11recordModelR5MixerE7rcount1)
	ld.w	$t7, $t2, %pc_lo12(_ZZ11recordModelR5MixerE7rcount2)
	bge	$t7, $s3, .LBB37_37
# %bb.17:                               # %if.then60
	st.w	$t0, $t8, %pc_lo12(_ZZ11recordModelR5MixerE5rlen2)
	ori	$t6, $zero, 1
.LBB37_18:                              # %if.end64thread-pre-split.sink.split
	st.w	$t6, $t2, %pc_lo12(_ZZ11recordModelR5MixerE7rcount2)
.LBB37_19:                              # %if.end64thread-pre-split
	ld.w	$t6, $t1, %pc_lo12(_ZZ11recordModelR5MixerE7rcount1)
.LBB37_20:                              # %if.end64
	ori	$t7, $zero, 16
	blt	$t6, $t7, .LBB37_22
# %bb.21:                               # %land.lhs.true66
	ld.w	$t7, $t5, %pc_lo12(_ZZ11recordModelR5MixerE4rlen)
	pcalau12i	$t6, %pc_hi20(_ZZ11recordModelR5MixerE5rlen1)
	ld.w	$t6, $t6, %pc_lo12(_ZZ11recordModelR5MixerE5rlen1)
	bne	$t7, $t6, .LBB37_24
.LBB37_22:                              # %if.end69thread-pre-split259
	ld.w	$t7, $t2, %pc_lo12(_ZZ11recordModelR5MixerE7rcount2)
	ori	$t6, $zero, 16
	blt	$t7, $t6, .LBB37_25
.LBB37_23:                              # %land.lhs.true71
	ld.w	$t7, $t5, %pc_lo12(_ZZ11recordModelR5MixerE4rlen)
	pcalau12i	$t6, %pc_hi20(_ZZ11recordModelR5MixerE5rlen2)
	ld.w	$t6, $t6, %pc_lo12(_ZZ11recordModelR5MixerE5rlen2)
	beq	$t7, $t6, .LBB37_25
.LBB37_24:                              # %if.end74.sink.split
	st.w	$t6, $t5, %pc_lo12(_ZZ11recordModelR5MixerE4rlen)
	st.w	$zero, $t2, %pc_lo12(_ZZ11recordModelR5MixerE7rcount2)
	st.w	$zero, $t1, %pc_lo12(_ZZ11recordModelR5MixerE7rcount1)
.LBB37_25:                              # %if.end74
	pcalau12i	$t1, %pc_hi20(_ZZ11recordModelR5MixerE2cn)
	addi.d	$s3, $t1, %pc_lo12(_ZZ11recordModelR5MixerE2cn)
	pcalau12i	$t1, %pc_hi20(_ZZ11recordModelR5MixerE2co)
	addi.d	$t2, $t1, %pc_lo12(_ZZ11recordModelR5MixerE2co)
	slli.d	$t1, $a6, 8
	slti	$t6, $t0, 255
	ori	$t7, $zero, 255
	masknez	$t7, $t7, $t6
	maskeqz	$t0, $t0, $t6
	or	$t0, $t0, $t7
	bstrpick.d	$t6, $t0, 62, 61
	ld.w	$t7, $t4, 136
	add.w	$t0, $t0, $t6
	srli.d	$t0, $t0, 2
	or	$t1, $t0, $t1
	addi.d	$t0, $t7, 1
	st.w	$t0, $t4, 136
	lu12i.w	$t0, 241126
	ori	$t0, $t0, 2227
	mul.d	$t1, $t1, $t0
	add.d	$t1, $t7, $t1
	rotri.w	$t6, $t1, 16
	lu12i.w	$t1, 30140
	ori	$t1, $t1, 3351
	ld.d	$s5, $t4, 96
	mul.d	$t6, $t6, $t1
	add.d	$t6, $t6, $t7
	slli.d	$t7, $t7, 2
	stx.w	$t6, $s5, $t7
	ld.w	$s6, $s2, %pc_lo12(pos)
	bstrpick.d	$s4, $t3, 15, 8
	slli.d	$t6, $a5, 9
	pcalau12i	$t3, %pc_hi20(_ZZ11recordModelR5MixerE5wpos1)
	addi.d	$t8, $t3, %pc_lo12(_ZZ11recordModelR5MixerE5wpos1)
	slli.d	$t3, $a5, 2
	ldx.w	$t7, $t8, $t3
	sub.w	$t3, $s6, $t7
	bstrpick.d	$s6, $t3, 31, 24
	beqz	$s6, .LBB37_27
# %bb.26:                               # %if.then.i
	pcalau12i	$s6, %pc_hi20(ilog+16)
	ld.d	$s6, $s6, %pc_lo12(ilog+16)
	bstrpick.d	$t3, $t3, 31, 16
	ldx.bu	$t3, $s6, $t3
	addi.d	$s6, $t3, 256
	b	.LBB37_30
.LBB37_27:                              # %if.else.i
	bstrpick.d	$s6, $t3, 31, 16
	beqz	$s6, .LBB37_29
# %bb.28:                               # %if.then2.i
	pcalau12i	$s6, %pc_hi20(ilog+16)
	ld.d	$s6, $s6, %pc_lo12(ilog+16)
	bstrpick.d	$t3, $t3, 31, 8
	ldx.bu	$t3, $s6, $t3
	addi.d	$s6, $t3, 128
	b	.LBB37_30
.LBB37_29:                              # %if.else7.i
	pcalau12i	$s6, %pc_hi20(ilog+16)
	ld.d	$s6, $s6, %pc_lo12(ilog+16)
	ldx.bu	$s6, $s6, $t3
.LBB37_30:                              # %_Z4llogj.exit
	pcalau12i	$t3, %pc_hi20(_ZZ11recordModelR5MixerE2cp)
	addi.d	$t3, $t3, %pc_lo12(_ZZ11recordModelR5MixerE2cp)
	ld.w	$s7, $t4, 136
	srli.d	$s6, $s6, 2
	or	$t6, $s6, $t6
	addi.d	$s6, $s7, 1
	st.w	$s6, $t4, 136
	mul.d	$t6, $t6, $t0
	add.d	$t6, $t6, $s7
	rotri.w	$t6, $t6, 16
	mul.d	$t6, $t6, $t1
	add.d	$t6, $t6, $s7
	slli.d	$s6, $s7, 2
	stx.w	$t6, $s5, $s6
	ld.w	$t5, $t5, %pc_lo12(_ZZ11recordModelR5MixerE4rlen)
	ld.w	$s6, $s2, %pc_lo12(pos)
	ld.w	$s7, $s1, 0
	ld.d	$t6, $s1, 16
	sub.w	$s8, $s6, $t5
	addi.w	$s7, $s7, -1
	and	$s8, $s7, $s8
	ldx.bu	$s8, $t6, $s8
	slli.d	$ra, $t5, 1
	sub.w	$s6, $s6, $ra
	and	$s6, $s7, $s6
	ldx.bu	$s6, $t6, $s6
	slli.d	$s7, $s8, 10
	ld.w	$s8, $t4, 136
	slli.d	$s6, $s6, 18
	or	$s6, $s7, $s6
	or	$s6, $s6, $t5
	addi.d	$s7, $s8, 1
	st.w	$s7, $t4, 136
	mul.d	$t4, $s6, $t0
	add.d	$t4, $t4, $s8
	rotri.w	$t4, $t4, 16
	mul.d	$t4, $t4, $t1
	add.d	$t4, $t4, $s8
	slli.d	$s6, $s8, 2
	stx.w	$t4, $s5, $s6
	ld.w	$t4, $s3, 136
	slli.d	$s5, $t5, 8
	or	$s6, $s5, $a5
	addi.d	$s7, $t4, 1
	st.w	$s7, $s3, 136
	mul.d	$s6, $s6, $t0
	add.d	$s6, $t4, $s6
	rotri.w	$s6, $s6, 16
	ld.d	$s7, $s3, 96
	mul.d	$s6, $s6, $t1
	add.d	$s6, $s6, $t4
	slli.d	$t4, $t4, 2
	stx.w	$s6, $s7, $t4
	ld.w	$t4, $s3, 136
	slli.d	$s6, $t5, 16
	or	$s4, $s6, $s4
	addi.d	$s6, $t4, 1
	st.w	$s6, $s3, 136
	mul.d	$s4, $s4, $t0
	add.d	$s4, $t4, $s4
	rotri.w	$s4, $s4, 16
	mul.d	$s4, $s4, $t1
	add.d	$s4, $s4, $t4
	slli.d	$t4, $t4, 2
	stx.w	$s4, $s7, $t4
	ld.w	$t4, $s3, 136
	or	$s4, $s5, $a6
	addi.d	$s5, $t4, 1
	st.w	$s5, $s3, 136
	mul.d	$s3, $s4, $t0
	add.d	$s3, $t4, $s3
	rotri.w	$s3, $s3, 16
	mul.d	$s3, $s3, $t1
	add.d	$s3, $s3, $t4
	slli.d	$t4, $t4, 2
	stx.w	$s3, $s7, $t4
	ld.w	$t4, $s2, %pc_lo12(pos)
	ld.w	$s3, $s1, 0
	addi.w	$s4, $t4, -1
	addi.w	$s3, $s3, -1
	and	$s3, $s3, $s4
	ldx.bu	$s3, $t6, $s3
	slli.d	$s4, $s3, 2
	ldx.w	$s4, $a7, $s4
	slli.d	$s3, $s3, 8
	sub.w	$t4, $t4, $s4
	slti	$s4, $t4, 255
	maskeqz	$t4, $t4, $s4
	ori	$s5, $zero, 255
	ld.w	$s6, $t2, 136
	masknez	$s4, $s5, $s4
	or	$t4, $t4, $s4
	or	$t4, $t4, $s3
	addi.d	$s3, $s6, 1
	st.w	$s3, $t2, 136
	mul.d	$t4, $t4, $t0
	add.d	$t4, $t4, $s6
	rotri.w	$s3, $t4, 16
	ld.d	$t4, $t2, 96
	mul.d	$s3, $s3, $t1
	add.d	$s3, $s3, $s6
	slli.d	$s4, $s6, 2
	stx.w	$s3, $t4, $s4
	ld.w	$s3, $s2, %pc_lo12(pos)
	ld.w	$s4, $s1, 0
	addi.w	$s5, $s3, -1
	addi.w	$s4, $s4, -1
	and	$s5, $s4, $s5
	ldx.bu	$s5, $t6, $s5
	addi.w	$s6, $s3, -2
	and	$s4, $s4, $s6
	ldx.bu	$s4, $t6, $s4
	alsl.d	$a6, $a6, $a7, 2
	alsl.d	$a5, $a5, $t8, 2
	slli.d	$a7, $s5, 17
	slli.d	$t8, $s4, 9
	sub.w	$t7, $s3, $t7
	bstrpick.d	$s3, $t7, 31, 24
	or	$a7, $t8, $a7
	beqz	$s3, .LBB37_32
# %bb.31:                               # %if.then.i158
	pcalau12i	$t8, %pc_hi20(ilog+16)
	ld.d	$t8, $t8, %pc_lo12(ilog+16)
	bstrpick.d	$t7, $t7, 31, 16
	ldx.bu	$t7, $t8, $t7
	addi.d	$t7, $t7, 256
	b	.LBB37_35
.LBB37_32:                              # %if.else.i145
	bstrpick.d	$t8, $t7, 31, 16
	beqz	$t8, .LBB37_34
# %bb.33:                               # %if.then2.i152
	pcalau12i	$t8, %pc_hi20(ilog+16)
	ld.d	$t8, $t8, %pc_lo12(ilog+16)
	bstrpick.d	$t7, $t7, 31, 8
	ldx.bu	$t7, $t8, $t7
	addi.d	$t7, $t7, 128
	b	.LBB37_35
.LBB37_34:                              # %if.else7.i147
	pcalau12i	$t8, %pc_hi20(ilog+16)
	ld.d	$t8, $t8, %pc_lo12(ilog+16)
	ldx.bu	$t7, $t8, $t7
.LBB37_35:                              # %_Z4llogj.exit164
	ld.w	$t8, $t2, 136
	srli.d	$t7, $t7, 2
	or	$a7, $a7, $t7
	addi.d	$t7, $t8, 1
	st.w	$t7, $t2, 136
	mul.d	$a7, $a7, $t0
	add.d	$a7, $a7, $t8
	rotri.w	$a7, $a7, 16
	mul.d	$a7, $a7, $t1
	add.d	$a7, $a7, $t8
	slli.d	$t7, $t8, 2
	stx.w	$a7, $t4, $t7
	ld.w	$a7, $s2, %pc_lo12(pos)
	ld.w	$t7, $s1, 0
	addi.w	$t8, $a7, -1
	addi.w	$t7, $t7, -1
	and	$t8, $t7, $t8
	ldx.bu	$t8, $t6, $t8
	sub.w	$s3, $a7, $t5
	and	$t7, $t7, $s3
	ldx.bu	$t7, $t6, $t7
	ld.w	$s3, $t2, 136
	slli.d	$t8, $t8, 8
	or	$t7, $t8, $t7
	addi.d	$t8, $s3, 1
	st.w	$t8, $t2, 136
	mul.d	$t2, $t7, $t0
	add.d	$t2, $t2, $s3
	rotri.w	$t2, $t2, 16
	mul.d	$t2, $t2, $t1
	add.d	$t2, $t2, $s3
	slli.d	$t7, $s3, 2
	stx.w	$t2, $t4, $t7
	ld.w	$t2, $s2, %pc_lo12(pos)
	ld.w	$t4, $s1, 0
	sub.w	$t2, $t2, $t5
	addi.w	$t4, $t4, -1
	and	$t2, $t4, $t2
	ldx.bu	$t2, $t6, $t2
	mod.w	$a7, $a7, $t5
	slli.d	$t2, $t2, 10
	ld.w	$t4, $t3, 136
	slli.d	$t7, $a7, 18
	or	$t2, $t5, $t2
	or	$t2, $t2, $t7
	addi.d	$t8, $t4, 1
	st.w	$t8, $t3, 136
	mul.d	$t2, $t2, $t0
	add.d	$t2, $t2, $t4
	rotri.w	$t2, $t2, 16
	ld.d	$t8, $t3, 96
	mul.d	$t2, $t2, $t1
	add.d	$t2, $t2, $t4
	slli.d	$t4, $t4, 2
	stx.w	$t2, $t8, $t4
	ld.w	$t2, $s2, %pc_lo12(pos)
	ld.w	$t4, $s1, 0
	addi.w	$t2, $t2, -1
	addi.w	$t4, $t4, -1
	and	$t2, $t4, $t2
	ldx.bu	$t2, $t6, $t2
	ld.w	$t4, $t3, 136
	slli.d	$t2, $t2, 10
	or	$t2, $t5, $t2
	or	$t2, $t2, $t7
	addi.d	$t6, $t4, 1
	st.w	$t6, $t3, 136
	mul.d	$t2, $t2, $t0
	add.d	$t2, $t2, $t4
	rotri.w	$t2, $t2, 16
	mul.d	$t2, $t2, $t1
	add.d	$t2, $t2, $t4
	slli.d	$t4, $t4, 2
	stx.w	$t2, $t8, $t4
	ld.w	$t2, $t3, 136
	slli.d	$t4, $t5, 12
	or	$a7, $a7, $t4
	addi.d	$t4, $t2, 1
	st.w	$t4, $t3, 136
	mul.d	$a7, $a7, $t0
	add.d	$a7, $t2, $a7
	rotri.w	$a7, $a7, 16
	mul.d	$a7, $a7, $t1
	add.d	$a7, $a7, $t2
	slli.d	$t0, $t2, 2
	stx.w	$a7, $t8, $t0
	ldx.w	$a7, $a3, $a0
	ldx.w	$t0, $a2, $a0
	stx.w	$a7, $a4, $a0
	ld.w	$t6, $s2, %pc_lo12(pos)
	stx.w	$t0, $a3, $a0
	ld.w	$a3, $s0, %pc_lo12(bpos)
	stx.w	$a1, $a2, $a0
	st.w	$t6, $a6, 0
	st.w	$t6, $a5, 0
.LBB37_36:                              # %if.end151
	pcalau12i	$s4, %pc_hi20(c0)
	ld.w	$a0, $s1, 0
	ld.w	$a2, $s4, %pc_lo12(c0)
	ld.d	$a1, $s1, 16
	addi.w	$a4, $t6, -1
	addi.w	$a0, $a0, -1
	and	$a0, $a0, $a4
	ldx.bu	$a4, $a1, $a0
	pcalau12i	$s3, %pc_hi20(y)
	ld.w	$a5, $s3, %pc_lo12(y)
	pcalau12i	$a0, %pc_hi20(_ZZ11recordModelR5MixerE2cm)
	addi.d	$a0, $a0, %pc_lo12(_ZZ11recordModelR5MixerE2cm)
	move	$a1, $fp
	pcaddu18i	$ra, %call36(_ZN10ContextMap4mix1ER5Mixeriiii)
	jirl	$ra, $ra, 0
	ld.w	$a2, $s4, %pc_lo12(c0)
	ld.w	$a0, $s2, %pc_lo12(pos)
	ld.w	$a1, $s1, 0
	ld.w	$a3, $s0, %pc_lo12(bpos)
	ld.d	$a4, $s1, 16
	addi.w	$a0, $a0, -1
	addi.w	$a1, $a1, -1
	and	$a0, $a1, $a0
	ldx.bu	$a4, $a4, $a0
	ld.w	$a5, $s3, %pc_lo12(y)
	pcalau12i	$a0, %pc_hi20(_ZZ11recordModelR5MixerE2cn)
	addi.d	$a0, $a0, %pc_lo12(_ZZ11recordModelR5MixerE2cn)
	move	$a1, $fp
	pcaddu18i	$ra, %call36(_ZN10ContextMap4mix1ER5Mixeriiii)
	jirl	$ra, $ra, 0
	ld.w	$a2, $s4, %pc_lo12(c0)
	ld.w	$a0, $s2, %pc_lo12(pos)
	ld.w	$a1, $s1, 0
	ld.w	$a3, $s0, %pc_lo12(bpos)
	ld.d	$a4, $s1, 16
	addi.w	$a0, $a0, -1
	addi.w	$a1, $a1, -1
	and	$a0, $a1, $a0
	ldx.bu	$a4, $a4, $a0
	ld.w	$a5, $s3, %pc_lo12(y)
	pcalau12i	$a0, %pc_hi20(_ZZ11recordModelR5MixerE2co)
	addi.d	$a0, $a0, %pc_lo12(_ZZ11recordModelR5MixerE2co)
	move	$a1, $fp
	pcaddu18i	$ra, %call36(_ZN10ContextMap4mix1ER5Mixeriiii)
	jirl	$ra, $ra, 0
	ld.w	$a2, $s4, %pc_lo12(c0)
	ld.w	$a0, $s2, %pc_lo12(pos)
	ld.w	$a1, $s1, 0
	ld.w	$a3, $s0, %pc_lo12(bpos)
	ld.d	$a4, $s1, 16
	addi.w	$a0, $a0, -1
	addi.w	$a1, $a1, -1
	and	$a0, $a1, $a0
	ldx.bu	$a4, $a4, $a0
	ld.w	$a5, $s3, %pc_lo12(y)
	pcalau12i	$a0, %pc_hi20(_ZZ11recordModelR5MixerE2cp)
	addi.d	$a0, $a0, %pc_lo12(_ZZ11recordModelR5MixerE2cp)
	move	$a1, $fp
	ld.d	$s8, $sp, 8                     # 8-byte Folded Reload
	ld.d	$s7, $sp, 16                    # 8-byte Folded Reload
	ld.d	$s6, $sp, 24                    # 8-byte Folded Reload
	ld.d	$s5, $sp, 32                    # 8-byte Folded Reload
	ld.d	$s4, $sp, 40                    # 8-byte Folded Reload
	ld.d	$s3, $sp, 48                    # 8-byte Folded Reload
	ld.d	$s2, $sp, 56                    # 8-byte Folded Reload
	ld.d	$s1, $sp, 64                    # 8-byte Folded Reload
	ld.d	$s0, $sp, 72                    # 8-byte Folded Reload
	ld.d	$fp, $sp, 80                    # 8-byte Folded Reload
	ld.d	$ra, $sp, 88                    # 8-byte Folded Reload
	addi.d	$sp, $sp, 96
	pcaddu18i	$t8, %call36(_ZN10ContextMap4mix1ER5Mixeriiii)
	jr	$t8
.LBB37_37:                              # %if.end64.thread
	st.w	$t0, $t6, %pc_lo12(_ZZ11recordModelR5MixerE5rlen1)
	ori	$t6, $zero, 1
	st.w	$t6, $t1, %pc_lo12(_ZZ11recordModelR5MixerE7rcount1)
	ori	$t6, $zero, 16
	bge	$t7, $t6, .LBB37_23
	b	.LBB37_25
.LBB37_38:                              # %init.check
	pcalau12i	$a0, %pc_hi20(_ZGVZ11recordModelR5MixerE2cm)
	addi.d	$s0, $a0, %pc_lo12(_ZGVZ11recordModelR5MixerE2cm)
	move	$a0, $s0
	pcaddu18i	$ra, %call36(__cxa_guard_acquire)
	jirl	$ra, $ra, 0
	addi.w	$a0, $a0, 0
	beqz	$a0, .LBB37_1
# %bb.39:                               # %init
.Ltmp53:                                # EH_LABEL
	pcalau12i	$a0, %pc_hi20(_ZZ11recordModelR5MixerE2cm)
	addi.d	$a0, $a0, %pc_lo12(_ZZ11recordModelR5MixerE2cm)
	lu12i.w	$a1, 8
	ori	$a2, $zero, 3
	pcaddu18i	$ra, %call36(_ZN10ContextMapC2Eii)
	jirl	$ra, $ra, 0
.Ltmp54:                                # EH_LABEL
# %bb.40:                               # %invoke.cont
	pcalau12i	$a0, %pc_hi20(_ZN10ContextMapD2Ev)
	addi.d	$a0, $a0, %pc_lo12(_ZN10ContextMapD2Ev)
	pcalau12i	$a1, %pc_hi20(_ZZ11recordModelR5MixerE2cm)
	addi.d	$a1, $a1, %pc_lo12(_ZZ11recordModelR5MixerE2cm)
	pcalau12i	$a2, %pc_hi20(__dso_handle)
	addi.d	$a2, $a2, %pc_lo12(__dso_handle)
	pcaddu18i	$ra, %call36(__cxa_atexit)
	jirl	$ra, $ra, 0
	pcalau12i	$a0, %pc_hi20(_ZGVZ11recordModelR5MixerE2cm)
	addi.d	$a0, $a0, %pc_lo12(_ZGVZ11recordModelR5MixerE2cm)
	pcaddu18i	$ra, %call36(__cxa_guard_release)
	jirl	$ra, $ra, 0
	b	.LBB37_1
.LBB37_41:                              # %init.check2
	pcalau12i	$a0, %pc_hi20(_ZGVZ11recordModelR5MixerE2cn)
	addi.d	$s0, $a0, %pc_lo12(_ZGVZ11recordModelR5MixerE2cn)
	move	$a0, $s0
	pcaddu18i	$ra, %call36(__cxa_guard_acquire)
	jirl	$ra, $ra, 0
	addi.w	$a0, $a0, 0
	beqz	$a0, .LBB37_2
# %bb.42:                               # %init4
.Ltmp56:                                # EH_LABEL
	pcalau12i	$a0, %pc_hi20(_ZZ11recordModelR5MixerE2cn)
	addi.d	$a0, $a0, %pc_lo12(_ZZ11recordModelR5MixerE2cn)
	lu12i.w	$a1, 4
	ori	$a2, $zero, 3
	pcaddu18i	$ra, %call36(_ZN10ContextMapC2Eii)
	jirl	$ra, $ra, 0
.Ltmp57:                                # EH_LABEL
# %bb.43:                               # %invoke.cont6
	pcalau12i	$a0, %pc_hi20(_ZN10ContextMapD2Ev)
	addi.d	$a0, $a0, %pc_lo12(_ZN10ContextMapD2Ev)
	pcalau12i	$a1, %pc_hi20(_ZZ11recordModelR5MixerE2cn)
	addi.d	$a1, $a1, %pc_lo12(_ZZ11recordModelR5MixerE2cn)
	pcalau12i	$a2, %pc_hi20(__dso_handle)
	addi.d	$a2, $a2, %pc_lo12(__dso_handle)
	pcaddu18i	$ra, %call36(__cxa_atexit)
	jirl	$ra, $ra, 0
	pcalau12i	$a0, %pc_hi20(_ZGVZ11recordModelR5MixerE2cn)
	addi.d	$a0, $a0, %pc_lo12(_ZGVZ11recordModelR5MixerE2cn)
	pcaddu18i	$ra, %call36(__cxa_guard_release)
	jirl	$ra, $ra, 0
	b	.LBB37_2
.LBB37_44:                              # %init.check9
	pcalau12i	$a0, %pc_hi20(_ZGVZ11recordModelR5MixerE2co)
	addi.d	$s0, $a0, %pc_lo12(_ZGVZ11recordModelR5MixerE2co)
	move	$a0, $s0
	pcaddu18i	$ra, %call36(__cxa_guard_acquire)
	jirl	$ra, $ra, 0
	addi.w	$a0, $a0, 0
	beqz	$a0, .LBB37_3
# %bb.45:                               # %init11
.Ltmp59:                                # EH_LABEL
	pcalau12i	$a0, %pc_hi20(_ZZ11recordModelR5MixerE2co)
	addi.d	$a0, $a0, %pc_lo12(_ZZ11recordModelR5MixerE2co)
	lu12i.w	$a1, 16
	ori	$a2, $zero, 3
	pcaddu18i	$ra, %call36(_ZN10ContextMapC2Eii)
	jirl	$ra, $ra, 0
.Ltmp60:                                # EH_LABEL
# %bb.46:                               # %invoke.cont13
	pcalau12i	$a0, %pc_hi20(_ZN10ContextMapD2Ev)
	addi.d	$a0, $a0, %pc_lo12(_ZN10ContextMapD2Ev)
	pcalau12i	$a1, %pc_hi20(_ZZ11recordModelR5MixerE2co)
	addi.d	$a1, $a1, %pc_lo12(_ZZ11recordModelR5MixerE2co)
	pcalau12i	$a2, %pc_hi20(__dso_handle)
	addi.d	$a2, $a2, %pc_lo12(__dso_handle)
	pcaddu18i	$ra, %call36(__cxa_atexit)
	jirl	$ra, $ra, 0
	pcalau12i	$a0, %pc_hi20(_ZGVZ11recordModelR5MixerE2co)
	addi.d	$a0, $a0, %pc_lo12(_ZGVZ11recordModelR5MixerE2co)
	pcaddu18i	$ra, %call36(__cxa_guard_release)
	jirl	$ra, $ra, 0
	b	.LBB37_3
.LBB37_47:                              # %init.check16
	pcalau12i	$a0, %pc_hi20(_ZGVZ11recordModelR5MixerE2cp)
	addi.d	$s0, $a0, %pc_lo12(_ZGVZ11recordModelR5MixerE2cp)
	move	$a0, $s0
	pcaddu18i	$ra, %call36(__cxa_guard_acquire)
	jirl	$ra, $ra, 0
	addi.w	$a0, $a0, 0
	beqz	$a0, .LBB37_4
# %bb.48:                               # %init18
	pcalau12i	$a0, %pc_hi20(level)
	ld.wu	$a0, $a0, %pc_lo12(level)
	lu12i.w	$a1, 16
	sll.w	$a1, $a1, $a0
.Ltmp62:                                # EH_LABEL
	pcalau12i	$a0, %pc_hi20(_ZZ11recordModelR5MixerE2cp)
	addi.d	$a0, $a0, %pc_lo12(_ZZ11recordModelR5MixerE2cp)
	ori	$a2, $zero, 3
	pcaddu18i	$ra, %call36(_ZN10ContextMapC2Eii)
	jirl	$ra, $ra, 0
.Ltmp63:                                # EH_LABEL
# %bb.49:                               # %invoke.cont20
	pcalau12i	$a0, %pc_hi20(_ZN10ContextMapD2Ev)
	addi.d	$a0, $a0, %pc_lo12(_ZN10ContextMapD2Ev)
	pcalau12i	$a1, %pc_hi20(_ZZ11recordModelR5MixerE2cp)
	addi.d	$a1, $a1, %pc_lo12(_ZZ11recordModelR5MixerE2cp)
	pcalau12i	$a2, %pc_hi20(__dso_handle)
	addi.d	$a2, $a2, %pc_lo12(__dso_handle)
	pcaddu18i	$ra, %call36(__cxa_atexit)
	jirl	$ra, $ra, 0
	pcalau12i	$a0, %pc_hi20(_ZGVZ11recordModelR5MixerE2cp)
	addi.d	$a0, $a0, %pc_lo12(_ZGVZ11recordModelR5MixerE2cp)
	pcaddu18i	$ra, %call36(__cxa_guard_release)
	jirl	$ra, $ra, 0
	b	.LBB37_4
.LBB37_50:                              # %lpad19
.Ltmp64:                                # EH_LABEL
	b	.LBB37_54
.LBB37_51:                              # %lpad12
.Ltmp61:                                # EH_LABEL
	b	.LBB37_54
.LBB37_52:                              # %lpad5
.Ltmp58:                                # EH_LABEL
	b	.LBB37_54
.LBB37_53:                              # %lpad
.Ltmp55:                                # EH_LABEL
.LBB37_54:                              # %eh.resume
	move	$fp, $a0
	move	$a0, $s0
	pcaddu18i	$ra, %call36(__cxa_guard_abort)
	jirl	$ra, $ra, 0
	move	$a0, $fp
	pcaddu18i	$ra, %call36(_Unwind_Resume)
	jirl	$ra, $ra, 0
.Lfunc_end37:
	.size	_Z11recordModelR5Mixer, .Lfunc_end37-_Z11recordModelR5Mixer
	.cfi_endproc
	.section	.gcc_except_table,"a",@progbits
	.p2align	2, 0x0
GCC_except_table37:
.Lexception5:
	.byte	255                             # @LPStart Encoding = omit
	.byte	255                             # @TType Encoding = omit
	.byte	1                               # Call site Encoding = uleb128
	.uleb128 .Lcst_end5-.Lcst_begin5
.Lcst_begin5:
	.uleb128 .Lfunc_begin5-.Lfunc_begin5    # >> Call Site 1 <<
	.uleb128 .Ltmp53-.Lfunc_begin5          #   Call between .Lfunc_begin5 and .Ltmp53
	.byte	0                               #     has no landing pad
	.byte	0                               #   On action: cleanup
	.uleb128 .Ltmp53-.Lfunc_begin5          # >> Call Site 2 <<
	.uleb128 .Ltmp54-.Ltmp53                #   Call between .Ltmp53 and .Ltmp54
	.uleb128 .Ltmp55-.Lfunc_begin5          #     jumps to .Ltmp55
	.byte	0                               #   On action: cleanup
	.uleb128 .Ltmp54-.Lfunc_begin5          # >> Call Site 3 <<
	.uleb128 .Ltmp56-.Ltmp54                #   Call between .Ltmp54 and .Ltmp56
	.byte	0                               #     has no landing pad
	.byte	0                               #   On action: cleanup
	.uleb128 .Ltmp56-.Lfunc_begin5          # >> Call Site 4 <<
	.uleb128 .Ltmp57-.Ltmp56                #   Call between .Ltmp56 and .Ltmp57
	.uleb128 .Ltmp58-.Lfunc_begin5          #     jumps to .Ltmp58
	.byte	0                               #   On action: cleanup
	.uleb128 .Ltmp57-.Lfunc_begin5          # >> Call Site 5 <<
	.uleb128 .Ltmp59-.Ltmp57                #   Call between .Ltmp57 and .Ltmp59
	.byte	0                               #     has no landing pad
	.byte	0                               #   On action: cleanup
	.uleb128 .Ltmp59-.Lfunc_begin5          # >> Call Site 6 <<
	.uleb128 .Ltmp60-.Ltmp59                #   Call between .Ltmp59 and .Ltmp60
	.uleb128 .Ltmp61-.Lfunc_begin5          #     jumps to .Ltmp61
	.byte	0                               #   On action: cleanup
	.uleb128 .Ltmp60-.Lfunc_begin5          # >> Call Site 7 <<
	.uleb128 .Ltmp62-.Ltmp60                #   Call between .Ltmp60 and .Ltmp62
	.byte	0                               #     has no landing pad
	.byte	0                               #   On action: cleanup
	.uleb128 .Ltmp62-.Lfunc_begin5          # >> Call Site 8 <<
	.uleb128 .Ltmp63-.Ltmp62                #   Call between .Ltmp62 and .Ltmp63
	.uleb128 .Ltmp64-.Lfunc_begin5          #     jumps to .Ltmp64
	.byte	0                               #   On action: cleanup
	.uleb128 .Ltmp63-.Lfunc_begin5          # >> Call Site 9 <<
	.uleb128 .Lfunc_end37-.Ltmp63           #   Call between .Ltmp63 and .Lfunc_end37
	.byte	0                               #     has no landing pad
	.byte	0                               #   On action: cleanup
.Lcst_end5:
	.p2align	2, 0x0
                                        # -- End function
	.text
	.globl	_Z11sparseModelR5Mixerii        # -- Begin function _Z11sparseModelR5Mixerii
	.p2align	5
	.type	_Z11sparseModelR5Mixerii,@function
_Z11sparseModelR5Mixerii:               # @_Z11sparseModelR5Mixerii
.Lfunc_begin6:
	.cfi_startproc
	.cfi_personality 155, DW.ref.__gxx_personality_v0
	.cfi_lsda 27, .Lexception6
# %bb.0:                                # %entry
	addi.d	$sp, $sp, -112
	.cfi_def_cfa_offset 112
	st.d	$ra, $sp, 104                   # 8-byte Folded Spill
	st.d	$fp, $sp, 96                    # 8-byte Folded Spill
	st.d	$s0, $sp, 88                    # 8-byte Folded Spill
	st.d	$s1, $sp, 80                    # 8-byte Folded Spill
	st.d	$s2, $sp, 72                    # 8-byte Folded Spill
	st.d	$s3, $sp, 64                    # 8-byte Folded Spill
	st.d	$s4, $sp, 56                    # 8-byte Folded Spill
	st.d	$s5, $sp, 48                    # 8-byte Folded Spill
	st.d	$s6, $sp, 40                    # 8-byte Folded Spill
	st.d	$s7, $sp, 32                    # 8-byte Folded Spill
	st.d	$s8, $sp, 24                    # 8-byte Folded Spill
	.cfi_offset 1, -8
	.cfi_offset 22, -16
	.cfi_offset 23, -24
	.cfi_offset 24, -32
	.cfi_offset 25, -40
	.cfi_offset 26, -48
	.cfi_offset 27, -56
	.cfi_offset 28, -64
	.cfi_offset 29, -72
	.cfi_offset 30, -80
	.cfi_offset 31, -88
	pcalau12i	$a3, %pc_hi20(_ZGVZ11sparseModelR5MixeriiE2cm)
	ld.b	$a3, $a3, %pc_lo12(_ZGVZ11sparseModelR5MixeriiE2cm)
	move	$s4, $a0
	dbar	20
	beqz	$a3, .LBB38_11
.LBB38_1:                               # %init.end
	pcalau12i	$s3, %pc_hi20(bpos)
	ld.w	$a3, $s3, %pc_lo12(bpos)
	pcalau12i	$s2, %pc_hi20(pos)
	pcalau12i	$a0, %pc_hi20(buf)
	addi.d	$s1, $a0, %pc_lo12(buf)
	bnez	$a3, .LBB38_10
# %bb.2:                                # %if.then
	st.d	$s4, $sp, 16                    # 8-byte Folded Spill
	pcalau12i	$a0, %pc_hi20(_ZZ11sparseModelR5MixeriiE2cm)
	addi.d	$s4, $a0, %pc_lo12(_ZZ11sparseModelR5MixeriiE2cm)
	pcalau12i	$s6, %pc_hi20(c4)
	ld.wu	$a3, $s6, %pc_lo12(c4)
	ld.w	$a4, $s4, 136
	lu12i.w	$a0, 3855
	ori	$a5, $a0, 240
	and	$a3, $a3, $a5
	addi.d	$a5, $a4, 1
	st.w	$a5, $s4, 136
	lu12i.w	$a5, 241126
	ori	$s5, $a5, 2227
	mul.d	$a3, $a3, $s5
	add.d	$a3, $a3, $a4
	rotri.w	$a3, $a3, 16
	lu12i.w	$a5, 30140
	ori	$s8, $a5, 3351
	ld.d	$s7, $s4, 96
	mul.d	$a3, $a3, $s8
	add.d	$a3, $a3, $a4
	slli.d	$a4, $a4, 2
	stx.w	$a3, $s7, $a4
	ld.wu	$a3, $s6, %pc_lo12(c4)
	lu12i.w	$a4, -61681
	ld.w	$a5, $s4, 136
	ori	$a4, $a4, 240
	lu32i.d	$a4, 0
	and	$a3, $a3, $a4
	addi.d	$a4, $a5, 1
	st.w	$a4, $s4, 136
	mul.d	$a3, $a3, $s5
	add.d	$a3, $a5, $a3
	add.d	$a3, $a3, $s5
	rotri.w	$a3, $a3, 16
	mul.d	$a3, $a3, $s8
	add.d	$a3, $a3, $a5
	slli.d	$a4, $a5, 2
	stx.w	$a3, $s7, $a4
	ld.wu	$a3, $s6, %pc_lo12(c4)
	ld.w	$a4, $s4, 136
	lu12i.w	$a5, 3983
	ori	$a5, $a5, 2296
	and	$a3, $a3, $a5
	addi.d	$a5, $a4, 1
	st.w	$a5, $s4, 136
	mul.d	$a3, $a3, $s5
	add.d	$a3, $a4, $a3
	lu12i.w	$a5, 482253
	ori	$a5, $a5, 358
	add.d	$a3, $a3, $a5
	rotri.w	$a3, $a3, 16
	mul.d	$a3, $a3, $s8
	add.d	$a3, $a3, $a4
	slli.d	$a4, $a4, 2
	stx.w	$a3, $s7, $a4
	ld.wu	$a3, $s6, %pc_lo12(c4)
	lu12i.w	$a4, -28785
	ld.w	$a5, $s4, 136
	ori	$a4, $a4, 2296
	lu32i.d	$a4, 0
	and	$a3, $a3, $a4
	addi.d	$a4, $a5, 1
	st.w	$a4, $s4, 136
	mul.d	$a3, $a3, $s5
	add.d	$a3, $a5, $a3
	lu12i.w	$a4, -325197
	ori	$a4, $a4, 2585
	add.d	$a3, $a3, $a4
	rotri.w	$a3, $a3, 16
	mul.d	$a3, $a3, $s8
	add.d	$a3, $a3, $a5
	slli.d	$a4, $a5, 2
	stx.w	$a3, $s7, $a4
	ld.wu	$a3, $s6, %pc_lo12(c4)
	ld.w	$a4, $s4, 136
	lu12i.w	$a5, 3598
	ori	$a5, $a5, 224
	and	$a3, $a3, $a5
	addi.d	$a5, $a4, 1
	st.w	$a5, $s4, 136
	mul.d	$a3, $a3, $s5
	add.d	$a3, $a4, $a3
	lu12i.w	$a5, -84070
	ori	$a5, $a5, 716
	add.d	$a3, $a3, $a5
	rotri.w	$a3, $a3, 16
	mul.d	$a3, $a3, $s8
	add.d	$a3, $a3, $a4
	slli.d	$a4, $a4, 2
	stx.w	$a3, $s7, $a4
	ld.wu	$a3, $s6, %pc_lo12(c4)
	lu12i.w	$a4, -127474
	ld.w	$a5, $s4, 136
	ori	$a4, $a4, 224
	lu32i.d	$a4, 0
	and	$a3, $a3, $a4
	addi.d	$a4, $a5, 1
	st.w	$a4, $s4, 136
	mul.d	$a3, $a3, $s5
	add.d	$a3, $a5, $a3
	lu12i.w	$a4, 157056
	ori	$a4, $a4, 2943
	add.d	$a3, $a3, $a4
	rotri.w	$a3, $a3, 16
	mul.d	$a3, $a3, $s8
	add.d	$a3, $a3, $a5
	slli.d	$a4, $a5, 2
	stx.w	$a3, $s7, $a4
	ld.wu	$a3, $s6, %pc_lo12(c4)
	ld.w	$a4, $s4, 136
	ori	$a0, $a0, 255
	and	$a0, $a3, $a0
	addi.d	$a3, $a4, 1
	st.w	$a3, $s4, 136
	mul.d	$a0, $a0, $s5
	add.d	$a0, $a4, $a0
	lu12i.w	$a3, 398183
	ori	$a3, $a3, 1074
	add.d	$a0, $a0, $a3
	rotri.w	$a0, $a0, 16
	mul.d	$a0, $a0, $s8
	add.d	$a0, $a0, $a4
	slli.d	$a3, $a4, 2
	stx.w	$a0, $s7, $a3
	ld.w	$a0, $s4, 136
	addi.d	$a3, $a0, 1
	st.w	$a3, $s4, 136
	mul.d	$a3, $a1, $s5
	add.d	$a3, $a0, $a3
	rotri.w	$a3, $a3, 16
	mul.d	$a3, $a3, $s8
	add.d	$a3, $a3, $a0
	slli.d	$a0, $a0, 2
	stx.w	$a3, $s7, $a0
	ld.w	$a0, $s4, 136
	addi.d	$a3, $a0, 1
	st.w	$a3, $s4, 136
	mul.d	$a2, $a2, $s5
	add.d	$a2, $a0, $a2
	rotri.w	$a2, $a2, 16
	mul.d	$a2, $a2, $s8
	add.d	$a2, $a2, $a0
	slli.d	$a0, $a0, 2
	stx.w	$a2, $s7, $a0
	ld.wu	$a0, $s6, %pc_lo12(c4)
	ld.w	$a2, $s4, 136
	lu12i.w	$a3, 4080
	ori	$a3, $a3, 255
	and	$a0, $a0, $a3
	addi.d	$a3, $a2, 1
	st.w	$a3, $s4, 136
	mul.d	$a0, $a0, $s5
	add.d	$a0, $a0, $a2
	rotri.w	$a0, $a0, 16
	mul.d	$a0, $a0, $s8
	add.d	$a0, $a0, $a2
	slli.d	$a2, $a2, 2
	stx.w	$a0, $s7, $a2
	ld.wu	$a0, $s6, %pc_lo12(c4)
	ld.w	$a2, $s4, 136
	ori	$a3, $zero, 255
	bstrins.d	$a3, $a3, 32, 24
	and	$a0, $a0, $a3
	addi.d	$a3, $a2, 1
	st.w	$a3, $s4, 136
	mul.d	$a0, $a0, $s5
	add.d	$a0, $a0, $a2
	rotri.w	$a0, $a0, 16
	mul.d	$a0, $a0, $s8
	add.d	$a0, $a0, $a2
	slli.d	$a2, $a2, 2
	stx.w	$a0, $s7, $a2
	ld.w	$a0, $s2, %pc_lo12(pos)
	ld.w	$a2, $s1, 0
	addi.w	$a3, $a0, -1
	addi.w	$a2, $a2, -1
	ld.d	$fp, $s1, 16
	and	$a3, $a2, $a3
	addi.w	$a0, $a0, -5
	and	$a0, $a2, $a0
	ldx.bu	$a0, $fp, $a0
	ldx.bu	$a2, $fp, $a3
	ld.w	$a3, $s4, 136
	slli.d	$a0, $a0, 8
	or	$a0, $a0, $a2
	addi.d	$a2, $a3, 1
	st.w	$a2, $s4, 136
	mul.d	$a0, $a0, $s5
	add.d	$a0, $a0, $a3
	rotri.w	$a0, $a0, 16
	mul.d	$a0, $a0, $s8
	add.d	$a0, $a0, $a3
	slli.d	$a2, $a3, 2
	stx.w	$a0, $s7, $a2
	ld.w	$a0, $s2, %pc_lo12(pos)
	ld.w	$a2, $s1, 0
	addi.w	$a3, $a0, -1
	addi.w	$a2, $a2, -1
	and	$a3, $a2, $a3
	addi.w	$a0, $a0, -6
	and	$a0, $a2, $a0
	ldx.bu	$a0, $fp, $a0
	ldx.bu	$a2, $fp, $a3
	ld.w	$a3, $s4, 136
	slli.d	$a0, $a0, 8
	or	$a0, $a0, $a2
	addi.d	$a2, $a3, 1
	st.w	$a2, $s4, 136
	mul.d	$a0, $a0, $s5
	add.d	$a0, $a0, $a3
	rotri.w	$a0, $a0, 16
	mul.d	$a0, $a0, $s8
	add.d	$a0, $a0, $a3
	slli.d	$a2, $a3, 2
	stx.w	$a0, $s7, $a2
	ld.w	$a0, $s2, %pc_lo12(pos)
	ld.w	$a2, $s1, 0
	addi.w	$a3, $a0, -3
	addi.w	$a2, $a2, -1
	and	$a3, $a2, $a3
	addi.w	$a0, $a0, -6
	and	$a0, $a2, $a0
	ldx.bu	$a0, $fp, $a0
	ldx.bu	$a2, $fp, $a3
	ld.w	$a3, $s4, 136
	slli.d	$a0, $a0, 8
	or	$a0, $a0, $a2
	addi.d	$a2, $a3, 1
	st.w	$a2, $s4, 136
	mul.d	$a0, $a0, $s5
	add.d	$a0, $a0, $a3
	rotri.w	$a0, $a0, 16
	mul.d	$a0, $a0, $s8
	add.d	$a0, $a0, $a3
	slli.d	$a2, $a3, 2
	stx.w	$a0, $s7, $a2
	ld.w	$a0, $s2, %pc_lo12(pos)
	ld.w	$a2, $s1, 0
	addi.w	$a3, $a0, -4
	addi.w	$a2, $a2, -1
	and	$a3, $a2, $a3
	addi.w	$a0, $a0, -8
	and	$a0, $a2, $a0
	ldx.bu	$a0, $fp, $a0
	ldx.bu	$a2, $fp, $a3
	ld.w	$a3, $s4, 136
	slli.d	$a0, $a0, 8
	or	$a0, $a0, $a2
	addi.d	$a2, $a3, 1
	st.w	$a2, $s4, 136
	mul.d	$a0, $a0, $s5
	add.d	$a0, $a0, $a3
	rotri.w	$a0, $a0, 16
	mul.d	$a0, $a0, $s8
	add.d	$a0, $a0, $a3
	slli.d	$a2, $a3, 2
	stx.w	$a0, $s7, $a2
	addi.d	$a0, $zero, -4
	.p2align	4, , 16
.LBB38_3:                               # %for.body
                                        # =>This Inner Loop Header: Depth=1
	ld.w	$a2, $s2, %pc_lo12(pos)
	ld.w	$a3, $s1, 0
	add.d	$a2, $a0, $a2
	addi.w	$a4, $a2, 2
	addi.w	$a3, $a3, -1
	and	$a4, $a3, $a4
	ldx.bu	$a4, $fp, $a4
	addi.w	$a2, $a2, 1
	and	$a2, $a3, $a2
	ldx.bu	$a2, $fp, $a2
	ld.w	$a3, $s4, 136
	slli.d	$a4, $a4, 8
	or	$a2, $a4, $a2
	addi.d	$a4, $a3, 1
	st.w	$a4, $s4, 136
	mul.d	$a2, $a2, $s5
	add.d	$a2, $a2, $a3
	rotri.w	$a2, $a2, 16
	mul.d	$a2, $a2, $s8
	add.d	$a2, $a2, $a3
	slli.d	$a3, $a3, 2
	stx.w	$a2, $s7, $a3
	ld.w	$a2, $s2, %pc_lo12(pos)
	ld.w	$a3, $s1, 0
	add.w	$a2, $a0, $a2
	addi.w	$a4, $a2, 2
	addi.w	$a3, $a3, -1
	and	$a4, $a3, $a4
	ldx.bu	$a4, $fp, $a4
	and	$a2, $a3, $a2
	ldx.bu	$a2, $fp, $a2
	ld.w	$a3, $s4, 136
	slli.d	$a4, $a4, 8
	or	$a2, $a4, $a2
	addi.d	$a4, $a3, 1
	st.w	$a4, $s4, 136
	mul.d	$a2, $a2, $s5
	add.d	$a2, $a2, $a3
	rotri.w	$a2, $a2, 16
	mul.d	$a2, $a2, $s8
	add.d	$a2, $a2, $a3
	slli.d	$a3, $a3, 2
	stx.w	$a2, $s7, $a3
	ld.w	$a2, $s2, %pc_lo12(pos)
	ld.w	$a3, $s1, 0
	add.d	$a2, $a0, $a2
	addi.w	$a2, $a2, 3
	addi.w	$a3, $a3, -1
	and	$a2, $a3, $a2
	ldx.bu	$a2, $fp, $a2
	ld.w	$a3, $s4, 136
	slli.d	$a2, $a2, 8
	or	$a2, $a2, $a1
	addi.d	$a4, $a3, 1
	st.w	$a4, $s4, 136
	mul.d	$a2, $a2, $s5
	add.d	$a2, $a2, $a3
	rotri.w	$a2, $a2, 16
	mul.d	$a2, $a2, $s8
	add.d	$a2, $a2, $a3
	slli.d	$a3, $a3, 2
	addi.w	$a0, $a0, -1
	addi.w	$a4, $zero, -11
	stx.w	$a2, $s7, $a3
	bne	$a0, $a4, .LBB38_3
# %bb.4:                                # %for.cond.cleanup
	ld.wu	$a0, $s6, %pc_lo12(c4)
	andi	$a1, $a0, 1
	bnez	$a1, .LBB38_6
# %bb.5:
	move	$a1, $zero
	b	.LBB38_9
.LBB38_6:                               # %if.then46
	andi	$s0, $a0, 255
	move	$a0, $s0
	pcaddu18i	$ra, %call36(isalpha)
	jirl	$ra, $ra, 0
	ori	$a1, $zero, 1
	bnez	$a0, .LBB38_9
# %bb.7:                                # %if.else
	move	$a0, $s0
	pcaddu18i	$ra, %call36(ispunct)
	jirl	$ra, $ra, 0
	ori	$a1, $zero, 2
	bnez	$a0, .LBB38_9
# %bb.8:                                # %if.else55
	move	$a0, $s0
	pcaddu18i	$ra, %call36(isspace)
	jirl	$ra, $ra, 0
	sltui	$a0, $a0, 1
	addi.d	$a1, $a0, 3
.LBB38_9:                               # %if.end78
	pcalau12i	$a2, %pc_hi20(_ZZ11sparseModelR5MixeriiE4mask)
	ld.w	$a0, $a2, %pc_lo12(_ZZ11sparseModelR5MixeriiE4mask)
	ld.w	$a3, $s4, 136
	slli.d	$a0, $a0, 3
	or	$a0, $a0, $a1
	st.w	$a0, $a2, %pc_lo12(_ZZ11sparseModelR5MixeriiE4mask)
	addi.d	$a1, $a3, 1
	st.w	$a1, $s4, 136
	mul.d	$a1, $a0, $s5
	add.d	$a1, $a1, $a3
	rotri.w	$a1, $a1, 16
	mul.d	$a1, $a1, $s8
	add.d	$a1, $a1, $a3
	slli.d	$a2, $a3, 2
	stx.w	$a1, $s7, $a2
	ld.w	$a1, $s2, %pc_lo12(pos)
	ld.w	$a2, $s1, 0
	addi.w	$a1, $a1, -1
	addi.w	$a2, $a2, -1
	and	$a1, $a2, $a1
	ldx.bu	$a1, $fp, $a1
	ld.w	$a2, $s4, 136
	slli.d	$a3, $a0, 8
	or	$a1, $a3, $a1
	addi.d	$a3, $a2, 1
	st.w	$a3, $s4, 136
	mul.d	$a1, $a1, $s5
	add.d	$a1, $a1, $a2
	rotri.w	$a1, $a1, 16
	mul.d	$a1, $a1, $s8
	add.d	$a1, $a1, $a2
	slli.d	$a2, $a2, 2
	stx.w	$a1, $s7, $a2
	ld.w	$a1, $s2, %pc_lo12(pos)
	ld.w	$a2, $s1, 0
	slli.d	$a3, $a0, 17
	addi.w	$a4, $a1, -2
	addi.w	$a2, $a2, -1
	and	$a4, $a2, $a4
	ldx.bu	$a4, $fp, $a4
	addi.w	$a1, $a1, -3
	and	$a1, $a2, $a1
	ldx.bu	$a1, $fp, $a1
	ld.w	$a2, $s4, 136
	slli.d	$a4, $a4, 8
	or	$a3, $a4, $a3
	or	$a1, $a3, $a1
	addi.d	$a3, $a2, 1
	st.w	$a3, $s4, 136
	mul.d	$a1, $a1, $s5
	add.d	$a1, $a1, $a2
	rotri.w	$a1, $a1, 16
	mul.d	$a1, $a1, $s8
	add.d	$a1, $a1, $a2
	slli.d	$a2, $a2, 2
	stx.w	$a1, $s7, $a2
	ld.wu	$a1, $s6, %pc_lo12(c4)
	lu12i.w	$a2, 1807
	ld.w	$a3, $s4, 136
	ori	$a2, $a2, 240
	and	$a1, $a1, $a2
	bstrins.d	$a0, $a1, 63, 9
	addi.d	$a1, $a3, 1
	st.w	$a1, $s4, 136
	mul.d	$a0, $a0, $s5
	add.d	$a0, $a0, $a3
	rotri.w	$a0, $a0, 16
	mul.d	$a0, $a0, $s8
	add.d	$a0, $a0, $a3
	slli.d	$a1, $a3, 2
	stx.w	$a0, $s7, $a1
	ld.w	$a3, $s3, %pc_lo12(bpos)
	ld.d	$s4, $sp, 16                    # 8-byte Folded Reload
.LBB38_10:                              # %if.end94
	pcalau12i	$a0, %pc_hi20(c0)
	ld.w	$a1, $s2, %pc_lo12(pos)
	ld.w	$a4, $s1, 0
	ld.w	$a2, $a0, %pc_lo12(c0)
	ld.d	$a0, $s1, 16
	addi.w	$a1, $a1, -1
	addi.w	$a4, $a4, -1
	and	$a1, $a4, $a1
	ldx.bu	$a4, $a0, $a1
	pcalau12i	$a0, %pc_hi20(y)
	ld.w	$a5, $a0, %pc_lo12(y)
	pcalau12i	$a0, %pc_hi20(_ZZ11sparseModelR5MixeriiE2cm)
	addi.d	$a0, $a0, %pc_lo12(_ZZ11sparseModelR5MixeriiE2cm)
	move	$a1, $s4
	ld.d	$s8, $sp, 24                    # 8-byte Folded Reload
	ld.d	$s7, $sp, 32                    # 8-byte Folded Reload
	ld.d	$s6, $sp, 40                    # 8-byte Folded Reload
	ld.d	$s5, $sp, 48                    # 8-byte Folded Reload
	ld.d	$s4, $sp, 56                    # 8-byte Folded Reload
	ld.d	$s3, $sp, 64                    # 8-byte Folded Reload
	ld.d	$s2, $sp, 72                    # 8-byte Folded Reload
	ld.d	$s1, $sp, 80                    # 8-byte Folded Reload
	ld.d	$s0, $sp, 88                    # 8-byte Folded Reload
	ld.d	$fp, $sp, 96                    # 8-byte Folded Reload
	ld.d	$ra, $sp, 104                   # 8-byte Folded Reload
	addi.d	$sp, $sp, 112
	pcaddu18i	$t8, %call36(_ZN10ContextMap4mix1ER5Mixeriiii)
	jr	$t8
.LBB38_11:                              # %init.check
	pcalau12i	$a0, %pc_hi20(_ZGVZ11sparseModelR5MixeriiE2cm)
	addi.d	$a0, $a0, %pc_lo12(_ZGVZ11sparseModelR5MixeriiE2cm)
	move	$fp, $a1
	move	$s0, $a2
	pcaddu18i	$ra, %call36(__cxa_guard_acquire)
	jirl	$ra, $ra, 0
	move	$a2, $s0
	move	$a1, $fp
	addi.w	$a0, $a0, 0
	beqz	$a0, .LBB38_1
# %bb.12:                               # %init
	pcalau12i	$a0, %pc_hi20(level)
	ld.wu	$a0, $a0, %pc_lo12(level)
	lu12i.w	$a1, 32
	sll.w	$a1, $a1, $a0
.Ltmp65:                                # EH_LABEL
	pcalau12i	$a0, %pc_hi20(_ZZ11sparseModelR5MixeriiE2cm)
	addi.d	$a0, $a0, %pc_lo12(_ZZ11sparseModelR5MixeriiE2cm)
	ori	$a2, $zero, 48
	pcaddu18i	$ra, %call36(_ZN10ContextMapC2Eii)
	jirl	$ra, $ra, 0
.Ltmp66:                                # EH_LABEL
# %bb.13:                               # %invoke.cont
	pcalau12i	$a0, %pc_hi20(_ZN10ContextMapD2Ev)
	addi.d	$a0, $a0, %pc_lo12(_ZN10ContextMapD2Ev)
	pcalau12i	$a1, %pc_hi20(_ZZ11sparseModelR5MixeriiE2cm)
	addi.d	$a1, $a1, %pc_lo12(_ZZ11sparseModelR5MixeriiE2cm)
	pcalau12i	$a2, %pc_hi20(__dso_handle)
	addi.d	$a2, $a2, %pc_lo12(__dso_handle)
	pcaddu18i	$ra, %call36(__cxa_atexit)
	jirl	$ra, $ra, 0
	pcalau12i	$a0, %pc_hi20(_ZGVZ11sparseModelR5MixeriiE2cm)
	addi.d	$a0, $a0, %pc_lo12(_ZGVZ11sparseModelR5MixeriiE2cm)
	pcaddu18i	$ra, %call36(__cxa_guard_release)
	jirl	$ra, $ra, 0
	move	$a1, $fp
	move	$a2, $s0
	b	.LBB38_1
.LBB38_14:                              # %lpad
.Ltmp67:                                # EH_LABEL
	move	$fp, $a0
	pcalau12i	$a0, %pc_hi20(_ZGVZ11sparseModelR5MixeriiE2cm)
	addi.d	$a0, $a0, %pc_lo12(_ZGVZ11sparseModelR5MixeriiE2cm)
	pcaddu18i	$ra, %call36(__cxa_guard_abort)
	jirl	$ra, $ra, 0
	move	$a0, $fp
	pcaddu18i	$ra, %call36(_Unwind_Resume)
	jirl	$ra, $ra, 0
.Lfunc_end38:
	.size	_Z11sparseModelR5Mixerii, .Lfunc_end38-_Z11sparseModelR5Mixerii
	.cfi_endproc
	.section	.gcc_except_table,"a",@progbits
	.p2align	2, 0x0
GCC_except_table38:
.Lexception6:
	.byte	255                             # @LPStart Encoding = omit
	.byte	255                             # @TType Encoding = omit
	.byte	1                               # Call site Encoding = uleb128
	.uleb128 .Lcst_end6-.Lcst_begin6
.Lcst_begin6:
	.uleb128 .Lfunc_begin6-.Lfunc_begin6    # >> Call Site 1 <<
	.uleb128 .Ltmp65-.Lfunc_begin6          #   Call between .Lfunc_begin6 and .Ltmp65
	.byte	0                               #     has no landing pad
	.byte	0                               #   On action: cleanup
	.uleb128 .Ltmp65-.Lfunc_begin6          # >> Call Site 2 <<
	.uleb128 .Ltmp66-.Ltmp65                #   Call between .Ltmp65 and .Ltmp66
	.uleb128 .Ltmp67-.Lfunc_begin6          #     jumps to .Ltmp67
	.byte	0                               #   On action: cleanup
	.uleb128 .Ltmp66-.Lfunc_begin6          # >> Call Site 3 <<
	.uleb128 .Lfunc_end38-.Ltmp66           #   Call between .Ltmp66 and .Lfunc_end38
	.byte	0                               #     has no landing pad
	.byte	0                               #   On action: cleanup
.Lcst_end6:
	.p2align	2, 0x0
                                        # -- End function
	.text
	.globl	_Z13distanceModelR5Mixer        # -- Begin function _Z13distanceModelR5Mixer
	.p2align	5
	.type	_Z13distanceModelR5Mixer,@function
_Z13distanceModelR5Mixer:               # @_Z13distanceModelR5Mixer
.Lfunc_begin7:
	.cfi_startproc
	.cfi_personality 155, DW.ref.__gxx_personality_v0
	.cfi_lsda 27, .Lexception7
# %bb.0:                                # %entry
	addi.d	$sp, $sp, -16
	.cfi_def_cfa_offset 16
	st.d	$ra, $sp, 8                     # 8-byte Folded Spill
	st.d	$fp, $sp, 0                     # 8-byte Folded Spill
	.cfi_offset 1, -8
	.cfi_offset 22, -16
	pcalau12i	$a1, %pc_hi20(_ZGVZ13distanceModelR5MixerE2cr)
	ld.b	$a1, $a1, %pc_lo12(_ZGVZ13distanceModelR5MixerE2cr)
	move	$fp, $a0
	dbar	20
	beqz	$a1, .LBB39_11
.LBB39_1:                               # %init.end
	pcalau12i	$a1, %pc_hi20(bpos)
	ld.w	$a3, $a1, %pc_lo12(bpos)
	pcalau12i	$a0, %pc_hi20(pos)
	bnez	$a3, .LBB39_10
# %bb.2:                                # %if.then
	pcalau12i	$a2, %pc_hi20(_ZZ13distanceModelR5MixerE2cr)
	addi.d	$a2, $a2, %pc_lo12(_ZZ13distanceModelR5MixerE2cr)
	pcalau12i	$a3, %pc_hi20(c4)
	ld.wu	$a5, $a3, %pc_lo12(c4)
	andi	$a7, $a5, 255
	ori	$t0, $zero, 32
	pcalau12i	$a6, %pc_hi20(_ZZ13distanceModelR5MixerE5pos00)
	pcalau12i	$a4, %pc_hi20(_ZZ13distanceModelR5MixerE5pos20)
	pcalau12i	$a3, %pc_hi20(_ZZ13distanceModelR5MixerE5posnl)
	bltu	$t0, $a7, .LBB39_5
# %bb.3:                                # %if.then
	slli.d	$a7, $a7, 2
	pcalau12i	$t0, %pc_hi20(.LJTI39_0)
	addi.d	$t0, $t0, %pc_lo12(.LJTI39_0)
	ldx.w	$a7, $t0, $a7
	add.d	$a7, $t0, $a7
	jr	$a7
.LBB39_4:                               # %if.then2
	ld.w	$a7, $a0, %pc_lo12(pos)
	st.w	$a7, $a6, %pc_lo12(_ZZ13distanceModelR5MixerE5pos00)
	b	.LBB39_9
.LBB39_5:                               # %if.then
	ori	$t0, $zero, 255
	bne	$a7, $t0, .LBB39_7
.LBB39_6:                               # %if.then10
	ld.w	$a7, $a0, %pc_lo12(pos)
	st.w	$a7, $a3, %pc_lo12(_ZZ13distanceModelR5MixerE5posnl)
	b	.LBB39_9
.LBB39_7:                               # %if.then.if.end11_crit_edge
	ld.w	$a7, $a0, %pc_lo12(pos)
	b	.LBB39_9
.LBB39_8:                               # %if.then4
	ld.w	$a7, $a0, %pc_lo12(pos)
	st.w	$a7, $a4, %pc_lo12(_ZZ13distanceModelR5MixerE5pos20)
.LBB39_9:                               # %if.end11
	ld.w	$a6, $a6, %pc_lo12(_ZZ13distanceModelR5MixerE5pos00)
	sub.w	$a6, $a7, $a6
	slti	$a7, $a6, 255
	maskeqz	$a6, $a6, $a7
	ori	$t0, $zero, 255
	masknez	$a7, $t0, $a7
	or	$a6, $a6, $a7
	slli.d	$a5, $a5, 8
	ld.w	$a7, $a2, 136
	bstrpick.d	$a5, $a5, 15, 8
	slli.d	$a5, $a5, 8
	or	$a6, $a6, $a5
	addi.d	$t1, $a7, 1
	st.w	$t1, $a2, 136
	lu12i.w	$t1, 241126
	ori	$t1, $t1, 2227
	mul.d	$a6, $a6, $t1
	add.d	$a6, $a6, $a7
	rotri.w	$a6, $a6, 16
	lu12i.w	$t2, 30140
	ori	$t2, $t2, 3351
	ld.d	$t3, $a2, 96
	mul.d	$a6, $a6, $t2
	add.d	$a6, $a6, $a7
	slli.d	$a7, $a7, 2
	stx.w	$a6, $t3, $a7
	ld.w	$a6, $a0, %pc_lo12(pos)
	ld.w	$a4, $a4, %pc_lo12(_ZZ13distanceModelR5MixerE5pos20)
	sub.w	$a4, $a6, $a4
	slti	$a6, $a4, 255
	maskeqz	$a4, $a4, $a6
	ld.w	$a7, $a2, 136
	masknez	$a6, $t0, $a6
	or	$a4, $a4, $a6
	or	$a4, $a4, $a5
	addi.d	$a6, $a7, 1
	st.w	$a6, $a2, 136
	mul.d	$a4, $a4, $t1
	add.d	$a4, $a4, $a7
	rotri.w	$a4, $a4, 16
	mul.d	$a4, $a4, $t2
	add.d	$a4, $a4, $a7
	slli.d	$a6, $a7, 2
	stx.w	$a4, $t3, $a6
	ld.w	$a4, $a0, %pc_lo12(pos)
	ld.w	$a3, $a3, %pc_lo12(_ZZ13distanceModelR5MixerE5posnl)
	sub.w	$a3, $a4, $a3
	slti	$a4, $a3, 255
	maskeqz	$a3, $a3, $a4
	masknez	$a4, $t0, $a4
	or	$a3, $a3, $a4
	lu12i.w	$a4, 57
	ld.w	$a6, $a2, 136
	ori	$a4, $a4, 1095
	add.d	$a4, $a5, $a4
	or	$a3, $a3, $a4
	addi.d	$a4, $a6, 1
	st.w	$a4, $a2, 136
	mul.d	$a2, $a3, $t1
	add.d	$a2, $a2, $a6
	rotri.w	$a2, $a2, 16
	mul.d	$a2, $a2, $t2
	add.d	$a2, $a2, $a6
	slli.d	$a3, $a6, 2
	stx.w	$a2, $t3, $a3
	ld.w	$a3, $a1, %pc_lo12(bpos)
.LBB39_10:                              # %if.end21
	pcalau12i	$a1, %pc_hi20(c0)
	ld.w	$a0, $a0, %pc_lo12(pos)
	ld.w	$a2, $a1, %pc_lo12(c0)
	addi.w	$a0, $a0, -1
	pcalau12i	$a1, %pc_hi20(buf)
	addi.d	$a1, $a1, %pc_lo12(buf)
	ld.w	$a4, $a1, 0
	ld.d	$a1, $a1, 16
	addi.w	$a4, $a4, -1
	and	$a0, $a4, $a0
	ldx.bu	$a4, $a1, $a0
	pcalau12i	$a0, %pc_hi20(y)
	ld.w	$a5, $a0, %pc_lo12(y)
	pcalau12i	$a0, %pc_hi20(_ZZ13distanceModelR5MixerE2cr)
	addi.d	$a0, $a0, %pc_lo12(_ZZ13distanceModelR5MixerE2cr)
	move	$a1, $fp
	ld.d	$fp, $sp, 0                     # 8-byte Folded Reload
	ld.d	$ra, $sp, 8                     # 8-byte Folded Reload
	addi.d	$sp, $sp, 16
	pcaddu18i	$t8, %call36(_ZN10ContextMap4mix1ER5Mixeriiii)
	jr	$t8
.LBB39_11:                              # %init.check
	pcalau12i	$a0, %pc_hi20(_ZGVZ13distanceModelR5MixerE2cr)
	addi.d	$a0, $a0, %pc_lo12(_ZGVZ13distanceModelR5MixerE2cr)
	pcaddu18i	$ra, %call36(__cxa_guard_acquire)
	jirl	$ra, $ra, 0
	addi.w	$a0, $a0, 0
	beqz	$a0, .LBB39_1
# %bb.12:                               # %init
	pcalau12i	$a0, %pc_hi20(level)
	ld.wu	$a0, $a0, %pc_lo12(level)
	lu12i.w	$a1, 16
	sll.w	$a1, $a1, $a0
.Ltmp68:                                # EH_LABEL
	pcalau12i	$a0, %pc_hi20(_ZZ13distanceModelR5MixerE2cr)
	addi.d	$a0, $a0, %pc_lo12(_ZZ13distanceModelR5MixerE2cr)
	ori	$a2, $zero, 3
	pcaddu18i	$ra, %call36(_ZN10ContextMapC2Eii)
	jirl	$ra, $ra, 0
.Ltmp69:                                # EH_LABEL
# %bb.13:                               # %invoke.cont
	pcalau12i	$a0, %pc_hi20(_ZN10ContextMapD2Ev)
	addi.d	$a0, $a0, %pc_lo12(_ZN10ContextMapD2Ev)
	pcalau12i	$a1, %pc_hi20(_ZZ13distanceModelR5MixerE2cr)
	addi.d	$a1, $a1, %pc_lo12(_ZZ13distanceModelR5MixerE2cr)
	pcalau12i	$a2, %pc_hi20(__dso_handle)
	addi.d	$a2, $a2, %pc_lo12(__dso_handle)
	pcaddu18i	$ra, %call36(__cxa_atexit)
	jirl	$ra, $ra, 0
	pcalau12i	$a0, %pc_hi20(_ZGVZ13distanceModelR5MixerE2cr)
	addi.d	$a0, $a0, %pc_lo12(_ZGVZ13distanceModelR5MixerE2cr)
	pcaddu18i	$ra, %call36(__cxa_guard_release)
	jirl	$ra, $ra, 0
	b	.LBB39_1
.LBB39_14:                              # %lpad
.Ltmp70:                                # EH_LABEL
	move	$fp, $a0
	pcalau12i	$a0, %pc_hi20(_ZGVZ13distanceModelR5MixerE2cr)
	addi.d	$a0, $a0, %pc_lo12(_ZGVZ13distanceModelR5MixerE2cr)
	pcaddu18i	$ra, %call36(__cxa_guard_abort)
	jirl	$ra, $ra, 0
	move	$a0, $fp
	pcaddu18i	$ra, %call36(_Unwind_Resume)
	jirl	$ra, $ra, 0
.Lfunc_end39:
	.size	_Z13distanceModelR5Mixer, .Lfunc_end39-_Z13distanceModelR5Mixer
	.cfi_endproc
	.section	.rodata,"a",@progbits
	.p2align	2, 0x0
.LJTI39_0:
	.word	.LBB39_4-.LJTI39_0
	.word	.LBB39_7-.LJTI39_0
	.word	.LBB39_7-.LJTI39_0
	.word	.LBB39_7-.LJTI39_0
	.word	.LBB39_7-.LJTI39_0
	.word	.LBB39_7-.LJTI39_0
	.word	.LBB39_7-.LJTI39_0
	.word	.LBB39_7-.LJTI39_0
	.word	.LBB39_7-.LJTI39_0
	.word	.LBB39_7-.LJTI39_0
	.word	.LBB39_6-.LJTI39_0
	.word	.LBB39_7-.LJTI39_0
	.word	.LBB39_7-.LJTI39_0
	.word	.LBB39_6-.LJTI39_0
	.word	.LBB39_7-.LJTI39_0
	.word	.LBB39_7-.LJTI39_0
	.word	.LBB39_7-.LJTI39_0
	.word	.LBB39_7-.LJTI39_0
	.word	.LBB39_7-.LJTI39_0
	.word	.LBB39_7-.LJTI39_0
	.word	.LBB39_7-.LJTI39_0
	.word	.LBB39_7-.LJTI39_0
	.word	.LBB39_7-.LJTI39_0
	.word	.LBB39_7-.LJTI39_0
	.word	.LBB39_7-.LJTI39_0
	.word	.LBB39_7-.LJTI39_0
	.word	.LBB39_7-.LJTI39_0
	.word	.LBB39_7-.LJTI39_0
	.word	.LBB39_7-.LJTI39_0
	.word	.LBB39_7-.LJTI39_0
	.word	.LBB39_7-.LJTI39_0
	.word	.LBB39_7-.LJTI39_0
	.word	.LBB39_8-.LJTI39_0
	.section	.gcc_except_table,"a",@progbits
	.p2align	2, 0x0
GCC_except_table39:
.Lexception7:
	.byte	255                             # @LPStart Encoding = omit
	.byte	255                             # @TType Encoding = omit
	.byte	1                               # Call site Encoding = uleb128
	.uleb128 .Lcst_end7-.Lcst_begin7
.Lcst_begin7:
	.uleb128 .Lfunc_begin7-.Lfunc_begin7    # >> Call Site 1 <<
	.uleb128 .Ltmp68-.Lfunc_begin7          #   Call between .Lfunc_begin7 and .Ltmp68
	.byte	0                               #     has no landing pad
	.byte	0                               #   On action: cleanup
	.uleb128 .Ltmp68-.Lfunc_begin7          # >> Call Site 2 <<
	.uleb128 .Ltmp69-.Ltmp68                #   Call between .Ltmp68 and .Ltmp69
	.uleb128 .Ltmp70-.Lfunc_begin7          #     jumps to .Ltmp70
	.byte	0                               #   On action: cleanup
	.uleb128 .Ltmp69-.Lfunc_begin7          # >> Call Site 3 <<
	.uleb128 .Lfunc_end39-.Ltmp69           #   Call between .Ltmp69 and .Lfunc_end39
	.byte	0                               #     has no landing pad
	.byte	0                               #   On action: cleanup
.Lcst_end7:
	.p2align	2, 0x0
                                        # -- End function
	.text
	.globl	_Z8bmpModelR5Mixer              # -- Begin function _Z8bmpModelR5Mixer
	.p2align	5
	.type	_Z8bmpModelR5Mixer,@function
_Z8bmpModelR5Mixer:                     # @_Z8bmpModelR5Mixer
.Lfunc_begin8:
	.cfi_startproc
	.cfi_personality 155, DW.ref.__gxx_personality_v0
	.cfi_lsda 27, .Lexception8
# %bb.0:                                # %entry
	addi.d	$sp, $sp, -224
	.cfi_def_cfa_offset 224
	st.d	$ra, $sp, 216                   # 8-byte Folded Spill
	st.d	$fp, $sp, 208                   # 8-byte Folded Spill
	st.d	$s0, $sp, 200                   # 8-byte Folded Spill
	st.d	$s1, $sp, 192                   # 8-byte Folded Spill
	st.d	$s2, $sp, 184                   # 8-byte Folded Spill
	st.d	$s3, $sp, 176                   # 8-byte Folded Spill
	st.d	$s4, $sp, 168                   # 8-byte Folded Spill
	st.d	$s5, $sp, 160                   # 8-byte Folded Spill
	st.d	$s6, $sp, 152                   # 8-byte Folded Spill
	st.d	$s7, $sp, 144                   # 8-byte Folded Spill
	st.d	$s8, $sp, 136                   # 8-byte Folded Spill
	.cfi_offset 1, -8
	.cfi_offset 22, -16
	.cfi_offset 23, -24
	.cfi_offset 24, -32
	.cfi_offset 25, -40
	.cfi_offset 26, -48
	.cfi_offset 27, -56
	.cfi_offset 28, -64
	.cfi_offset 29, -72
	.cfi_offset 30, -80
	.cfi_offset 31, -88
	pcalau12i	$a1, %pc_hi20(_ZGVZ8bmpModelR5MixerE4scm1)
	ld.b	$a1, $a1, %pc_lo12(_ZGVZ8bmpModelR5MixerE4scm1)
	move	$s5, $a0
	dbar	20
	beqz	$a1, .LBB40_51
.LBB40_1:                               # %init.end
	pcalau12i	$a0, %pc_hi20(_ZGVZ8bmpModelR5MixerE4scm2)
	ld.b	$a0, $a0, %pc_lo12(_ZGVZ8bmpModelR5MixerE4scm2)
	dbar	20
	beqz	$a0, .LBB40_54
.LBB40_2:                               # %init.end7
	pcalau12i	$a0, %pc_hi20(_ZGVZ8bmpModelR5MixerE4scm3)
	ld.b	$a0, $a0, %pc_lo12(_ZGVZ8bmpModelR5MixerE4scm3)
	dbar	20
	beqz	$a0, .LBB40_57
.LBB40_3:                               # %init.end14
	pcalau12i	$a0, %pc_hi20(_ZGVZ8bmpModelR5MixerE4scm4)
	ld.b	$a0, $a0, %pc_lo12(_ZGVZ8bmpModelR5MixerE4scm4)
	dbar	20
	beqz	$a0, .LBB40_60
.LBB40_4:                               # %init.end21
	pcalau12i	$a0, %pc_hi20(_ZGVZ8bmpModelR5MixerE4scm5)
	ld.b	$a0, $a0, %pc_lo12(_ZGVZ8bmpModelR5MixerE4scm5)
	dbar	20
	beqz	$a0, .LBB40_63
.LBB40_5:                               # %init.end28
	pcalau12i	$a0, %pc_hi20(_ZGVZ8bmpModelR5MixerE4scm6)
	ld.b	$a0, $a0, %pc_lo12(_ZGVZ8bmpModelR5MixerE4scm6)
	dbar	20
	beqz	$a0, .LBB40_66
.LBB40_6:                               # %init.end35
	pcalau12i	$a0, %pc_hi20(_ZGVZ8bmpModelR5MixerE4scm7)
	ld.b	$a0, $a0, %pc_lo12(_ZGVZ8bmpModelR5MixerE4scm7)
	dbar	20
	beqz	$a0, .LBB40_69
.LBB40_7:                               # %init.end42
	pcalau12i	$a0, %pc_hi20(_ZGVZ8bmpModelR5MixerE4scm8)
	ld.b	$a0, $a0, %pc_lo12(_ZGVZ8bmpModelR5MixerE4scm8)
	dbar	20
	beqz	$a0, .LBB40_72
.LBB40_8:                               # %init.end49
	pcalau12i	$a0, %pc_hi20(_ZGVZ8bmpModelR5MixerE4scm9)
	ld.b	$a0, $a0, %pc_lo12(_ZGVZ8bmpModelR5MixerE4scm9)
	dbar	20
	beqz	$a0, .LBB40_75
.LBB40_9:                               # %init.end56
	pcalau12i	$a0, %pc_hi20(_ZGVZ8bmpModelR5MixerE5scm10)
	ld.b	$a0, $a0, %pc_lo12(_ZGVZ8bmpModelR5MixerE5scm10)
	dbar	20
	beqz	$a0, .LBB40_78
.LBB40_10:                              # %init.end63
	pcalau12i	$a0, %pc_hi20(_ZGVZ8bmpModelR5MixerE2cm)
	ld.b	$a0, $a0, %pc_lo12(_ZGVZ8bmpModelR5MixerE2cm)
	dbar	20
	beqz	$a0, .LBB40_81
.LBB40_11:                              # %init.end70
	pcalau12i	$s3, %pc_hi20(bpos)
	ld.w	$a0, $s3, %pc_lo12(bpos)
	pcalau12i	$s1, %pc_hi20(pos)
	ld.w	$a5, $s1, %pc_lo12(pos)
	pcalau12i	$s2, %pc_hi20(_ZZ8bmpModelR5MixerE3eoi)
	bnez	$a0, .LBB40_26
# %bb.12:                               # %land.lhs.true
	addi.w	$a2, $a5, -54
	pcalau12i	$a0, %pc_hi20(buf)
	addi.d	$fp, $a0, %pc_lo12(buf)
	ld.w	$a1, $fp, 0
	ld.d	$a0, $fp, 16
	addi.w	$a1, $a1, -1
	and	$a2, $a1, $a2
	ldx.bu	$a2, $a0, $a2
	ori	$a3, $zero, 66
	bne	$a2, $a3, .LBB40_20
# %bb.13:                               # %land.lhs.true72
	addi.w	$a2, $a5, -53
	and	$a2, $a1, $a2
	ldx.bu	$a2, $a0, $a2
	ori	$a3, $zero, 77
	bne	$a2, $a3, .LBB40_20
# %bb.14:                               # %land.lhs.true75
	addi.w	$a2, $a5, -43
	and	$a2, $a1, $a2
	ldx.bu	$a2, $a0, $a2
	addi.w	$a3, $a5, -44
	and	$a3, $a1, $a3
	ldx.bu	$a3, $a0, $a3
	slli.w	$a2, $a2, 8
	addi.w	$a4, $a5, -42
	and	$a4, $a1, $a4
	ldx.bu	$a4, $a0, $a4
	addi.w	$a6, $a5, -41
	and	$a6, $a1, $a6
	ldx.b	$a6, $a0, $a6
	or	$a2, $a2, $a3
	slli.w	$a3, $a4, 16
	or	$a2, $a2, $a3
	slli.w	$a3, $a6, 24
	or	$a2, $a2, $a3
	ori	$a3, $zero, 54
	bne	$a2, $a3, .LBB40_20
# %bb.15:                               # %land.lhs.true78
	addi.w	$a2, $a5, -39
	and	$a2, $a1, $a2
	ldx.bu	$a2, $a0, $a2
	addi.w	$a3, $a5, -40
	and	$a3, $a1, $a3
	ldx.bu	$a3, $a0, $a3
	slli.w	$a2, $a2, 8
	addi.w	$a4, $a5, -38
	and	$a4, $a1, $a4
	ldx.bu	$a4, $a0, $a4
	addi.w	$a6, $a5, -37
	and	$a6, $a1, $a6
	ldx.b	$a6, $a0, $a6
	or	$a2, $a2, $a3
	slli.w	$a3, $a4, 16
	or	$a2, $a2, $a3
	slli.w	$a3, $a6, 24
	or	$a2, $a2, $a3
	ori	$a3, $zero, 40
	bne	$a2, $a3, .LBB40_20
# %bb.16:                               # %land.lhs.true81
	addi.w	$a2, $a5, -24
	and	$a2, $a1, $a2
	ldx.bu	$a2, $a0, $a2
	addi.w	$a3, $a5, -23
	and	$a3, $a1, $a3
	ldx.bu	$a3, $a0, $a3
	addi.w	$a4, $a5, -22
	and	$a4, $a1, $a4
	ldx.bu	$a4, $a0, $a4
	addi.w	$a6, $a5, -21
	and	$a1, $a1, $a6
	ldx.bu	$a0, $a0, $a1
	or	$a1, $a3, $a2
	or	$a1, $a1, $a4
	or	$a0, $a1, $a0
	bnez	$a0, .LBB40_20
# %bb.17:                               # %if.then
	ori	$a0, $zero, 36
	pcaddu18i	$ra, %call36(_Z2i4i)
	jirl	$ra, $ra, 0
	addi.w	$a0, $a0, 3
	bstrins.d	$a0, $zero, 1, 0
	alsl.d	$a0, $a0, $a0, 1
	pcalau12i	$s0, %pc_hi20(_ZZ8bmpModelR5MixerE1w)
	st.w	$a0, $s0, %pc_lo12(_ZZ8bmpModelR5MixerE1w)
	ori	$a0, $zero, 32
	pcaddu18i	$ra, %call36(_Z2i4i)
	jirl	$ra, $ra, 0
	ld.w	$a5, $s1, %pc_lo12(pos)
	move	$a2, $a0
	lu12i.w	$a0, 15
	ori	$a0, $a0, 4095
	st.w	$a5, $s2, %pc_lo12(_ZZ8bmpModelR5MixerE3eoi)
	blt	$a0, $a2, .LBB40_20
# %bb.18:                               # %if.then
	ld.w	$a0, $s0, %pc_lo12(_ZZ8bmpModelR5MixerE1w)
	lu12i.w	$a1, 47
	ori	$a1, $a1, 4095
	blt	$a1, $a0, .LBB40_20
# %bb.19:                               # %if.then90
	mul.d	$a1, $a0, $a2
	add.d	$a1, $a1, $a5
	st.w	$a1, $s2, %pc_lo12(_ZZ8bmpModelR5MixerE3eoi)
	lu12i.w	$a1, 349525
	ori	$a1, $a1, 1366
	mul.d	$a0, $a0, $a1
	srli.d	$a1, $a0, 63
	srli.d	$a0, $a0, 32
	add.w	$a1, $a0, $a1
	pcalau12i	$a0, %pc_hi20(.L.str)
	addi.d	$a0, $a0, %pc_lo12(.L.str)
	pcaddu18i	$ra, %call36(printf)
	jirl	$ra, $ra, 0
	ld.w	$a5, $s1, %pc_lo12(pos)
.LBB40_20:                              # %if.end94
	ld.w	$a0, $s3, %pc_lo12(bpos)
	bnez	$a0, .LBB40_26
# %bb.21:                               # %if.then96
	pcalau12i	$a0, %pc_hi20(c4)
	ld.w	$a1, $a0, %pc_lo12(c4)
	lu12i.w	$a0, 300178
	ori	$a0, $a0, 2560
	bne	$a1, $a0, .LBB40_23
# %bb.22:                               # %if.then98
	pcalau12i	$a0, %pc_hi20(_ZZ8bmpModelR5MixerE4tiff)
	st.w	$a5, $a0, %pc_lo12(_ZZ8bmpModelR5MixerE4tiff)
	move	$a0, $a5
	lu12i.w	$a3, 32768
	sub.w	$a2, $a5, $a0
	bne	$a1, $a3, .LBB40_24
	b	.LBB40_33
.LBB40_23:                              # %if.then96.if.end99_crit_edge
	pcalau12i	$a0, %pc_hi20(_ZZ8bmpModelR5MixerE4tiff)
	ld.w	$a0, $a0, %pc_lo12(_ZZ8bmpModelR5MixerE4tiff)
	lu12i.w	$a3, 32768
	sub.w	$a2, $a5, $a0
	beq	$a1, $a3, .LBB40_33
.LBB40_24:                              # %if.end99
	ori	$a1, $zero, 4
	bne	$a2, $a1, .LBB40_33
.LBB40_25:                              # %if.end172
	pcalau12i	$a0, %pc_hi20(_ZZ8bmpModelR5MixerE4tiff)
	st.w	$zero, $a0, %pc_lo12(_ZZ8bmpModelR5MixerE4tiff)
.LBB40_26:                              # %if.end172
	ld.w	$a0, $s2, %pc_lo12(_ZZ8bmpModelR5MixerE3eoi)
	bge	$a0, $a5, .LBB40_28
# %bb.27:                               # %if.then174
	move	$a0, $zero
	pcalau12i	$a1, %pc_hi20(_ZZ8bmpModelR5MixerE1w)
	st.w	$zero, $a1, %pc_lo12(_ZZ8bmpModelR5MixerE1w)
	b	.LBB40_32
.LBB40_28:                              # %if.end175
	st.d	$s3, $sp, 120                   # 8-byte Folded Spill
	ld.w	$a1, $s3, %pc_lo12(bpos)
	pcalau12i	$a0, %pc_hi20(_ZZ8bmpModelR5MixerE4scm3)
	addi.d	$s6, $a0, %pc_lo12(_ZZ8bmpModelR5MixerE4scm3)
	pcalau12i	$a0, %pc_hi20(_ZZ8bmpModelR5MixerE4scm4)
	addi.d	$s7, $a0, %pc_lo12(_ZZ8bmpModelR5MixerE4scm4)
	pcalau12i	$a0, %pc_hi20(buf)
	addi.d	$a0, $a0, %pc_lo12(buf)
	pcalau12i	$a4, %pc_hi20(_ZZ8bmpModelR5MixerE1w)
	pcalau12i	$a2, %pc_hi20(_ZZ8bmpModelR5MixerE4scm1)
	addi.d	$t2, $a2, %pc_lo12(_ZZ8bmpModelR5MixerE4scm1)
	pcalau12i	$a2, %pc_hi20(_ZZ8bmpModelR5MixerE4scm2)
	addi.d	$ra, $a2, %pc_lo12(_ZZ8bmpModelR5MixerE4scm2)
	pcalau12i	$a2, %pc_hi20(_ZZ8bmpModelR5MixerE4scm5)
	addi.d	$s8, $a2, %pc_lo12(_ZZ8bmpModelR5MixerE4scm5)
	pcalau12i	$a2, %pc_hi20(_ZZ8bmpModelR5MixerE4scm6)
	addi.d	$t4, $a2, %pc_lo12(_ZZ8bmpModelR5MixerE4scm6)
	pcalau12i	$a2, %pc_hi20(_ZZ8bmpModelR5MixerE4scm7)
	addi.d	$a3, $a2, %pc_lo12(_ZZ8bmpModelR5MixerE4scm7)
	pcalau12i	$a2, %pc_hi20(_ZZ8bmpModelR5MixerE4scm8)
	addi.d	$t0, $a2, %pc_lo12(_ZZ8bmpModelR5MixerE4scm8)
	pcalau12i	$a2, %pc_hi20(_ZZ8bmpModelR5MixerE4scm9)
	addi.d	$t3, $a2, %pc_lo12(_ZZ8bmpModelR5MixerE4scm9)
	st.d	$s5, $sp, 128                   # 8-byte Folded Spill
	st.d	$a4, $sp, 112                   # 8-byte Folded Spill
	st.d	$a0, $sp, 96                    # 8-byte Folded Spill
	st.d	$s1, $sp, 88                    # 8-byte Folded Spill
	st.d	$t3, $sp, 80                    # 8-byte Folded Spill
	st.d	$t0, $sp, 72                    # 8-byte Folded Spill
	beqz	$a1, .LBB40_30
# %bb.29:                               # %if.end175.if.end327_crit_edge
	ld.w	$s2, $s6, 24
	ld.w	$fp, $s7, 24
	move	$a4, $a3
	move	$t1, $t4
	b	.LBB40_31
.LBB40_30:                              # %if.then177
	pcalau12i	$a1, %pc_hi20(_ZZ8bmpModelR5MixerE2cm)
	st.d	$a3, $sp, 48                    # 8-byte Folded Spill
	addi.d	$t7, $a1, %pc_lo12(_ZZ8bmpModelR5MixerE2cm)
	lu12i.w	$a1, 349525
	ori	$a1, $a1, 1366
	mul.d	$a1, $a5, $a1
	srli.d	$a2, $a1, 63
	srli.d	$a1, $a1, 32
	add.d	$a1, $a1, $a2
	addi.w	$a2, $a1, 0
	alsl.d	$a1, $a2, $a1, 1
	sub.d	$t6, $a5, $a1
	st.d	$t6, $sp, 16                    # 8-byte Folded Spill
	ld.w	$a1, $a0, 0
	addi.w	$a3, $a5, -3
	ld.d	$a2, $a0, 16
	ld.w	$t5, $a4, %pc_lo12(_ZZ8bmpModelR5MixerE1w)
	addi.w	$a1, $a1, -1
	and	$a3, $a1, $a3
	ldx.bu	$a3, $a2, $a3
	addi.d	$a6, $t5, -3
	sub.w	$a6, $a5, $a6
	and	$a6, $a6, $a1
	ldx.bu	$a6, $a2, $a6
	sub.w	$a7, $a5, $t5
	and	$a7, $a7, $a1
	ldx.bu	$a7, $a2, $a7
	addi.d	$t1, $t5, 3
	sub.w	$a5, $a5, $t1
	and	$a1, $a5, $a1
	ldx.bu	$a1, $a2, $a1
	st.d	$t4, $sp, 56                    # 8-byte Folded Spill
	addi.w	$s3, $t6, 0
	add.d	$a5, $a6, $a3
	add.d	$a5, $a5, $a7
	add.d	$t6, $a5, $a1
	mul.d	$a5, $a3, $a3
	mul.d	$a6, $a6, $a6
	add.d	$a5, $a6, $a5
	mul.d	$a6, $a7, $a7
	add.d	$a5, $a5, $a6
	mul.d	$a1, $a1, $a1
	add.d	$a1, $a5, $a1
	mul.d	$a5, $t6, $t6
	pcalau12i	$a6, %pc_hi20(ilog+16)
	ld.d	$a6, $a6, %pc_lo12(ilog+16)
	srli.d	$a5, $a5, 2
	sub.d	$a1, $a1, $a5
	bstrpick.d	$a1, $a1, 17, 2
	ldx.bu	$a1, $a6, $a1
	st.d	$a1, $sp, 32                    # 8-byte Folded Spill
	lu12i.w	$a1, 7325
	ori	$s4, $a1, 2291
	mul.d	$a1, $a3, $s4
	lu12i.w	$a5, 12208
	ori	$s5, $a5, 271
	st.d	$ra, $sp, 24                    # 8-byte Folded Spill
	mul.d	$ra, $s3, $s5
	add.w	$a1, $ra, $a1
	lu12i.w	$a5, 4881
	ori	$a5, $a5, 3097
	add.d	$a1, $a1, $a5
	bstrpick.d	$a5, $a1, 31, 9
	srli.d	$a3, $a3, 3
	bstrpick.d	$s2, $s3, 31, 4
	xor	$a3, $a3, $a5
	xor	$a3, $a3, $s2
	ld.w	$a5, $t7, 136
	xor	$a1, $a3, $a1
	lu12i.w	$t1, 16384
	xor	$a1, $a1, $t1
	addi.d	$a3, $a5, 1
	st.w	$a3, $t7, 136
	lu12i.w	$a3, 241126
	st.d	$s6, $sp, 104                   # 8-byte Folded Spill
	ori	$s6, $a3, 2227
	mul.d	$a1, $a1, $s6
	add.d	$a1, $a1, $a5
	rotri.w	$a1, $a1, 16
	lu12i.w	$a3, 30140
	st.d	$s7, $sp, 40                    # 8-byte Folded Spill
	ori	$s7, $a3, 3351
	st.d	$s8, $sp, 64                    # 8-byte Folded Spill
	ld.d	$s8, $t7, 96
	mul.d	$a1, $a1, $s7
	add.d	$a1, $a1, $a5
	slli.d	$a3, $a5, 2
	stx.w	$a1, $s8, $a3
	ld.w	$a1, $s1, %pc_lo12(pos)
	ld.w	$a3, $a0, 0
	addi.w	$a5, $a1, -3
	addi.w	$a3, $a3, -1
	and	$a5, $a3, $a5
	ldx.bu	$a6, $a2, $a5
	addi.w	$a1, $a1, -1
	and	$a1, $a3, $a1
	ldx.bu	$a1, $a2, $a1
	mul.d	$a3, $a6, $s4
	mul.d	$a7, $a1, $s5
	lu12i.w	$a5, 17091
	ori	$fp, $a5, 71
	mul.d	$a5, $s3, $fp
	add.d	$a3, $a5, $a3
	add.w	$a3, $a3, $a7
	lu12i.w	$a7, 70801
	ori	$a7, $a7, 2563
	add.d	$a3, $a3, $a7
	bstrpick.d	$a7, $a3, 31, 9
	srli.d	$a6, $a6, 3
	srli.d	$a1, $a1, 4
	bstrpick.d	$t4, $s3, 31, 5
	xor	$a1, $a6, $a1
	xor	$a1, $a1, $a7
	xor	$a1, $a1, $t4
	xor	$a1, $a1, $a3
	ld.w	$a3, $t7, 136
	lu12i.w	$a4, 16383
	ori	$a6, $a4, 4095
	xor	$a1, $a1, $a6
	addi.d	$a6, $a3, 1
	st.w	$a6, $t7, 136
	mul.d	$a1, $a1, $s6
	add.d	$a1, $a1, $a3
	rotri.w	$a1, $a1, 16
	mul.d	$a1, $a1, $s7
	add.d	$a1, $a1, $a3
	slli.d	$a3, $a3, 2
	stx.w	$a1, $s8, $a3
	ld.w	$a1, $s1, %pc_lo12(pos)
	ld.w	$a3, $a0, 0
	bstrpick.d	$a6, $s3, 31, 6
	addi.w	$a7, $a1, -3
	addi.w	$a3, $a3, -1
	addi.w	$s0, $a1, -1
	and	$s0, $a3, $s0
	ldx.bu	$s0, $a2, $s0
	addi.w	$a1, $a1, -2
	and	$a1, $a3, $a1
	ldx.bu	$a1, $a2, $a1
	and	$a3, $a3, $a7
	ldx.bu	$a3, $a2, $a3
	srli.d	$a7, $s0, 2
	srli.d	$a1, $a1, 6
	lu12i.w	$t8, 26856
	ori	$t8, $t8, 323
	mul.d	$s3, $s3, $t8
	mul.d	$t8, $a3, $s4
	mul.d	$a7, $a7, $s5
	mul.d	$a1, $a1, $fp
	add.d	$t8, $s3, $t8
	add.d	$a7, $t8, $a7
	add.w	$a1, $a7, $a1
	lu12i.w	$a7, 146486
	ori	$a7, $a7, 2281
	add.d	$a1, $a1, $a7
	bstrpick.d	$a7, $a1, 31, 9
	srli.d	$a3, $a3, 3
	srli.d	$t8, $s0, 6
	bstrpick.d	$s0, $a6, 57, 0
	xor	$a3, $a3, $t8
	ld.w	$a6, $t7, 136
	xor	$a3, $a3, $a7
	xor	$a3, $a3, $s0
	xor	$a1, $a3, $a1
	addi.d	$a3, $a6, 1
	st.w	$a3, $t7, 136
	mul.d	$a1, $a1, $s6
	add.d	$a1, $a1, $a6
	rotri.w	$a1, $a1, 16
	mul.d	$a1, $a1, $s7
	add.d	$a1, $a1, $a6
	slli.d	$a3, $a6, 2
	stx.w	$a1, $s8, $a3
	ld.w	$a1, $s1, %pc_lo12(pos)
	ld.w	$a3, $a0, 0
	sub.w	$a1, $a1, $t5
	addi.w	$a3, $a3, -1
	and	$a1, $a3, $a1
	ldx.bu	$a1, $a2, $a1
	mul.d	$a3, $a1, $s4
	add.w	$a3, $ra, $a3
	lu12i.w	$a6, 151368
	ori	$a6, $a6, 1282
	add.d	$a3, $a3, $a6
	bstrpick.d	$a6, $a3, 31, 9
	srli.d	$a1, $a1, 3
	xor	$a1, $a1, $a6
	xor	$a1, $a1, $s2
	ld.w	$a6, $t7, 136
	xor	$a1, $a1, $a3
	ori	$a3, $t1, 1
	xor	$a1, $a1, $a3
	addi.d	$a3, $a6, 1
	st.w	$a3, $t7, 136
	mul.d	$a1, $a1, $s6
	add.d	$a1, $a1, $a6
	rotri.w	$a1, $a1, 16
	mul.d	$a1, $a1, $s7
	add.d	$a1, $a1, $a6
	slli.d	$a3, $a6, 2
	stx.w	$a1, $s8, $a3
	ld.w	$a1, $s1, %pc_lo12(pos)
	ld.w	$a3, $a0, 0
	sub.w	$a6, $a1, $t5
	addi.w	$a3, $a3, -1
	and	$a6, $a3, $a6
	ldx.bu	$a6, $a2, $a6
	addi.w	$a1, $a1, -1
	and	$a1, $a3, $a1
	ldx.bu	$a1, $a2, $a1
	mul.d	$a3, $a6, $s4
	mul.d	$a7, $a1, $s5
	add.d	$a3, $a5, $a3
	add.w	$a3, $a3, $a7
	lu12i.w	$a7, 217288
	ori	$a7, $a7, 748
	add.d	$a3, $a3, $a7
	bstrpick.d	$a7, $a3, 31, 9
	srli.d	$a6, $a6, 3
	srli.d	$a1, $a1, 4
	xor	$a1, $a6, $a1
	xor	$a1, $a1, $a7
	xor	$a1, $a1, $t4
	ld.w	$a6, $t7, 136
	xor	$a1, $a1, $a3
	ori	$a3, $a4, 4094
	xor	$a1, $a1, $a3
	addi.d	$a3, $a6, 1
	st.w	$a3, $t7, 136
	mul.d	$a1, $a1, $s6
	add.d	$a1, $a1, $a6
	rotri.w	$a1, $a1, 16
	mul.d	$a1, $a1, $s7
	add.d	$a1, $a1, $a6
	slli.d	$a3, $a6, 2
	stx.w	$a1, $s8, $a3
	ld.w	$a1, $a0, 0
	ld.w	$a3, $s1, %pc_lo12(pos)
	addi.w	$a1, $a1, -1
	addi.w	$a6, $a3, -1
	and	$a6, $a1, $a6
	ldx.bu	$a6, $a2, $a6
	sub.w	$a7, $a3, $t5
	and	$a7, $a1, $a7
	ldx.bu	$a7, $a2, $a7
	srli.d	$t8, $a6, 2
	addi.w	$a3, $a3, -2
	and	$a1, $a1, $a3
	ldx.bu	$a1, $a2, $a1
	mul.d	$a3, $a7, $s4
	mul.d	$t8, $t8, $s5
	add.d	$a3, $s3, $a3
	add.d	$a3, $a3, $t8
	srli.d	$a1, $a1, 6
	mul.d	$a1, $a1, $fp
	add.w	$a1, $a3, $a1
	lu12i.w	$a3, 292973
	ori	$a3, $a3, 466
	add.d	$a1, $a1, $a3
	bstrpick.d	$a3, $a1, 31, 9
	srli.d	$a7, $a7, 3
	srli.d	$a6, $a6, 6
	xor	$a6, $a7, $a6
	xor	$a3, $a6, $a3
	ld.w	$a6, $t7, 136
	xor	$a3, $a3, $s0
	xor	$a1, $a3, $a1
	xori	$a1, $a1, 1
	addi.d	$a3, $a6, 1
	st.w	$a3, $t7, 136
	mul.d	$a1, $a1, $s6
	add.d	$a1, $a1, $a6
	rotri.w	$a1, $a1, 16
	mul.d	$a1, $a1, $s7
	add.d	$a1, $a1, $a6
	slli.d	$a3, $a6, 2
	stx.w	$a1, $s8, $a3
	ld.w	$a1, $s1, %pc_lo12(pos)
	ld.w	$a3, $a0, 0
	addi.w	$a6, $a1, -3
	addi.w	$a3, $a3, -1
	and	$a6, $a3, $a6
	ldx.bu	$a6, $a2, $a6
	sub.w	$a7, $a1, $t5
	and	$a7, $a3, $a7
	ldx.bu	$a7, $a2, $a7
	addi.w	$t8, $a1, -1
	and	$t8, $a3, $t8
	addi.w	$a1, $a1, -2
	and	$a1, $a3, $a1
	ldx.bu	$a3, $a2, $t8
	ldx.bu	$a1, $a2, $a1
	add.d	$a6, $a7, $a6
	srli.d	$a7, $a6, 3
	srli.d	$a3, $a3, 5
	srli.d	$a1, $a1, 5
	mul.d	$a7, $a7, $s4
	mul.d	$a3, $a3, $s5
	mul.d	$a1, $a1, $fp
	add.d	$a7, $s3, $a7
	add.d	$a3, $a7, $a3
	add.w	$a1, $a3, $a1
	lu12i.w	$a3, 341801
	ori	$a3, $a3, 3957
	add.d	$a1, $a1, $a3
	bstrpick.d	$a3, $a1, 31, 9
	ld.d	$t1, $sp, 16                    # 8-byte Folded Reload
	xor	$a6, $a6, $t1
	bstrpick.d	$a6, $a6, 31, 6
	ld.w	$a7, $t7, 136
	xor	$a3, $a6, $a3
	xor	$a1, $a3, $a1
	xori	$a1, $a1, 1
	addi.d	$a3, $a7, 1
	st.w	$a3, $t7, 136
	mul.d	$a1, $a1, $s6
	add.d	$a1, $a1, $a7
	rotri.w	$a1, $a1, 16
	mul.d	$a1, $a1, $s7
	add.d	$a1, $a1, $a7
	slli.d	$a3, $a7, 2
	stx.w	$a1, $s8, $a3
	ld.w	$a1, $s1, %pc_lo12(pos)
	ld.w	$a3, $a0, 0
	addi.w	$a6, $a1, -1
	addi.w	$a3, $a3, -1
	and	$a6, $a3, $a6
	ldx.bu	$a6, $a2, $a6
	addi.w	$a1, $a1, -2
	and	$a1, $a3, $a1
	ldx.bu	$a1, $a2, $a1
	mul.d	$a3, $a6, $s4
	mul.d	$a7, $a1, $s5
	add.d	$a3, $a5, $a3
	add.w	$a3, $a3, $a7
	lu12i.w	$a7, 363774
	ori	$a7, $a7, 3029
	add.d	$a3, $a3, $a7
	bstrpick.d	$a7, $a3, 31, 9
	srli.d	$a6, $a6, 3
	srli.d	$a1, $a1, 4
	xor	$a1, $a6, $a1
	xor	$a1, $a1, $a7
	xor	$a1, $a1, $t4
	ld.w	$a6, $t7, 136
	xor	$a1, $a1, $a3
	ori	$fp, $a4, 4093
	xor	$a1, $a1, $fp
	addi.d	$a3, $a6, 1
	st.w	$a3, $t7, 136
	mul.d	$a1, $a1, $s6
	add.d	$a1, $a1, $a6
	rotri.w	$a1, $a1, 16
	mul.d	$a1, $a1, $s7
	add.d	$a1, $a1, $a6
	slli.d	$a3, $a6, 2
	stx.w	$a1, $s8, $a3
	ld.w	$a1, $s1, %pc_lo12(pos)
	ld.w	$a3, $a0, 0
	addi.w	$a6, $a1, -3
	addi.w	$a3, $a3, -1
	and	$a6, $a3, $a6
	addi.w	$a7, $a1, -1
	and	$a7, $a3, $a7
	ldx.bu	$a7, $a2, $a7
	addi.w	$a1, $a1, -4
	and	$a1, $a3, $a1
	ldx.bu	$a1, $a2, $a1
	ldx.bu	$a3, $a2, $a6
	sub.d	$a1, $a7, $a1
	mul.d	$a6, $a3, $s4
	mul.d	$a7, $a1, $s5
	add.d	$a6, $a5, $a6
	add.w	$a6, $a6, $a7
	lu12i.w	$a7, 412603
	ori	$a7, $a7, 2424
	add.d	$a6, $a6, $a7
	bstrpick.d	$a7, $a6, 31, 9
	srli.d	$a3, $a3, 3
	bstrpick.d	$a1, $a1, 31, 4
	xor	$a1, $a3, $a1
	xor	$a1, $a1, $a7
	ld.w	$a3, $t7, 136
	xor	$a1, $a1, $t4
	xor	$a1, $a1, $a6
	xor	$a1, $a1, $fp
	addi.d	$a6, $a3, 1
	st.w	$a6, $t7, 136
	mul.d	$a1, $a1, $s6
	add.d	$a1, $a1, $a3
	rotri.w	$a1, $a1, 16
	mul.d	$a1, $a1, $s7
	add.d	$a1, $a1, $a3
	slli.d	$a3, $a3, 2
	stx.w	$a1, $s8, $a3
	ld.w	$a1, $s1, %pc_lo12(pos)
	ld.w	$a3, $a0, 0
	addi.w	$a6, $a1, -3
	addi.w	$a3, $a3, -1
	and	$a6, $a3, $a6
	ldx.bu	$a6, $a2, $a6
	addi.w	$a7, $a1, -1
	and	$a7, $a3, $a7
	ldx.bu	$a7, $a2, $a7
	addi.w	$a1, $a1, -4
	and	$a1, $a3, $a1
	ldx.bu	$a1, $a2, $a1
	add.d	$a3, $a7, $a6
	sub.d	$a1, $a3, $a1
	mul.d	$a3, $a1, $s4
	add.w	$a3, $ra, $a3
	lu12i.w	$a6, 444341
	ori	$a6, $a6, 1748
	add.d	$a3, $a3, $a6
	bstrpick.d	$a6, $a3, 31, 9
	bstrpick.d	$a1, $a1, 31, 3
	xor	$a1, $a1, $a6
	xor	$a1, $a1, $s2
	ld.w	$a6, $t7, 136
	xor	$a1, $a1, $a3
	lu12i.w	$s0, 16384
	ori	$a3, $s0, 2
	xor	$a1, $a1, $a3
	addi.d	$a3, $a6, 1
	st.w	$a3, $t7, 136
	mul.d	$a1, $a1, $s6
	add.d	$a1, $a1, $a6
	rotri.w	$a1, $a1, 16
	mul.d	$a1, $a1, $s7
	add.d	$a1, $a1, $a6
	slli.d	$a3, $a6, 2
	stx.w	$a1, $s8, $a3
	ld.w	$a1, $s1, %pc_lo12(pos)
	ld.w	$a3, $a0, 0
	sub.w	$a6, $a1, $t5
	addi.w	$a3, $a3, -1
	and	$a6, $a3, $a6
	addi.w	$a7, $a1, -1
	and	$a7, $a3, $a7
	ldx.bu	$a7, $a2, $a7
	addi.d	$t8, $t5, 1
	sub.w	$a1, $a1, $t8
	and	$a1, $a3, $a1
	ldx.bu	$a1, $a2, $a1
	ldx.bu	$a3, $a2, $a6
	sub.d	$a1, $a7, $a1
	mul.d	$a6, $a3, $s4
	mul.d	$a7, $a1, $s5
	add.d	$a6, $a5, $a6
	add.w	$a6, $a6, $a7
	lu12i.w	$a7, 510261
	ori	$a7, $a7, 1214
	add.d	$a6, $a6, $a7
	srli.d	$a3, $a3, 3
	bstrpick.d	$a1, $a1, 31, 4
	xor	$a1, $a3, $a1
	bstrpick.d	$a3, $a6, 31, 9
	xor	$a1, $a1, $a3
	ld.w	$a3, $t7, 136
	xor	$a1, $a1, $t4
	xor	$a1, $a1, $a6
	xor	$a1, $a1, $fp
	addi.d	$a6, $a3, 1
	st.w	$a6, $t7, 136
	mul.d	$a1, $a1, $s6
	add.d	$a1, $a1, $a3
	rotri.w	$a1, $a1, 16
	mul.d	$a1, $a1, $s7
	add.d	$a1, $a1, $a3
	slli.d	$a3, $a3, 2
	stx.w	$a1, $s8, $a3
	ld.w	$a1, $s1, %pc_lo12(pos)
	ld.w	$a3, $a0, 0
	sub.w	$a6, $a1, $t5
	addi.w	$a3, $a3, -1
	and	$a6, $a3, $a6
	sub.w	$a7, $a1, $t8
	addi.w	$a1, $a1, -1
	and	$a1, $a3, $a1
	and	$a3, $a3, $a7
	ldx.bu	$a6, $a2, $a6
	ldx.bu	$a1, $a2, $a1
	ldx.bu	$a3, $a2, $a3
	add.d	$a1, $a1, $a6
	sub.d	$a1, $a1, $a3
	mul.d	$a3, $a1, $s4
	add.w	$a3, $ra, $a3
	ld.d	$ra, $sp, 24                    # 8-byte Folded Reload
	lu12i.w	$a6, -506577
	ori	$a6, $a6, 538
	add.d	$a3, $a3, $a6
	bstrpick.d	$a6, $a3, 31, 9
	bstrpick.d	$a1, $a1, 31, 3
	xor	$a1, $a1, $a6
	xor	$a1, $a1, $s2
	ld.w	$a6, $t7, 136
	xor	$a1, $a1, $a3
	ori	$a3, $s0, 3
	xor	$a1, $a1, $a3
	addi.d	$a3, $a6, 1
	st.w	$a3, $t7, 136
	mul.d	$a1, $a1, $s6
	add.d	$a1, $a1, $a6
	rotri.w	$a1, $a1, 16
	mul.d	$a1, $a1, $s7
	add.d	$a1, $a1, $a6
	slli.d	$a3, $a6, 2
	stx.w	$a1, $s8, $a3
	srli.d	$a1, $t6, 2
	mul.d	$a1, $a1, $s4
	ld.d	$s3, $sp, 32                    # 8-byte Folded Reload
	srli.d	$a3, $s3, 5
	mul.d	$a3, $a3, $s5
	ld.d	$s5, $sp, 128                   # 8-byte Folded Reload
	add.d	$a1, $a5, $a1
	add.w	$a1, $a1, $a3
	lu12i.w	$a3, -440657
	ori	$a3, $a3, 4
	add.d	$a1, $a1, $a3
	bstrpick.d	$a3, $a1, 31, 9
	xor	$a5, $t6, $t1
	bstrpick.d	$a5, $a5, 31, 5
	xor	$a3, $a5, $a3
	ld.w	$a5, $t7, 136
	xor	$a1, $a3, $a1
	ori	$a3, $a4, 4092
	xor	$a1, $a1, $a3
	addi.d	$a3, $a5, 1
	st.w	$a3, $t7, 136
	mul.d	$a1, $a1, $s6
	ld.d	$s6, $sp, 104                   # 8-byte Folded Reload
	add.d	$a1, $a5, $a1
	rotri.w	$a1, $a1, 16
	mul.d	$a1, $a1, $s7
	ld.d	$s7, $sp, 40                    # 8-byte Folded Reload
	ld.d	$a4, $sp, 48                    # 8-byte Folded Reload
	add.d	$a1, $a1, $a5
	slli.d	$a3, $a5, 2
	stx.w	$a1, $s8, $a3
	ld.d	$s8, $sp, 64                    # 8-byte Folded Reload
	ld.w	$t7, $s1, %pc_lo12(pos)
	ld.w	$a1, $a0, 0
	addi.w	$a3, $t7, -3
	addi.w	$a5, $a1, -1
	and	$a1, $a5, $a3
	ldx.bu	$a3, $a2, $a1
	sub.w	$t8, $t7, $t5
	and	$t4, $a5, $t8
	ldx.bu	$a6, $a2, $t4
	addi.d	$a7, $t5, 3
	sub.w	$a7, $t7, $a7
	and	$a7, $a5, $a7
	ldx.bu	$fp, $a2, $a7
	ld.w	$s0, $t2, 0
	add.d	$a3, $a6, $a3
	sub.d	$a3, $a3, $fp
	slli.d	$a3, $a3, 8
	addi.d	$a6, $s0, -256
	and	$a3, $a3, $a6
	st.w	$a3, $t2, 24
	ldx.bu	$a3, $a2, $a1
	addi.d	$a6, $t5, -3
	sub.w	$a6, $t7, $a6
	and	$s0, $a5, $a6
	ldx.bu	$a6, $a2, $s0
	ldx.bu	$fp, $a2, $t4
	ld.w	$s2, $ra, 0
	add.d	$a3, $a6, $a3
	sub.d	$a3, $a3, $fp
	slli.d	$a3, $a3, 8
	addi.d	$a6, $s2, -256
	and	$a3, $a3, $a6
	st.w	$a3, $ra, 24
	ldx.bu	$a1, $a2, $a1
	addi.w	$a3, $t7, -6
	and	$a3, $a5, $a3
	ldx.bu	$a3, $a2, $a3
	ld.w	$a6, $s6, 0
	slli.d	$a1, $a1, 9
	slli.d	$a3, $a3, 8
	sub.d	$a1, $a1, $a3
	addi.d	$a3, $a6, -256
	and	$s2, $a1, $a3
	st.w	$s2, $s6, 24
	ldx.bu	$a1, $a2, $t4
	slli.d	$a3, $t5, 1
	sub.w	$a6, $t7, $a3
	and	$a3, $a5, $a6
	ldx.bu	$a3, $a2, $a3
	ld.w	$t5, $s7, 0
	slli.d	$a1, $a1, 9
	slli.d	$a3, $a3, 8
	sub.d	$a1, $a1, $a3
	addi.d	$a3, $t5, -256
	and	$fp, $a1, $a3
	st.w	$fp, $s7, 24
	ldx.bu	$a1, $a2, $a7
	addi.w	$a3, $a6, -6
	and	$a3, $a5, $a3
	ldx.bu	$a3, $a2, $a3
	ld.w	$a7, $s8, 0
	slli.d	$a1, $a1, 9
	slli.d	$a3, $a3, 8
	sub.d	$a1, $a1, $a3
	addi.d	$a3, $a7, -256
	and	$a1, $a1, $a3
	st.w	$a1, $s8, 24
	ldx.bu	$a1, $a2, $s0
	addi.w	$a3, $a6, 6
	and	$a3, $a5, $a3
	ldx.bu	$a3, $a2, $a3
	ld.d	$t1, $sp, 56                    # 8-byte Folded Reload
	ld.w	$a7, $t1, 0
	slli.d	$a1, $a1, 9
	slli.d	$a3, $a3, 8
	sub.d	$a1, $a1, $a3
	addi.d	$a3, $a7, -256
	and	$a1, $a1, $a3
	st.w	$a1, $t1, 24
	ldx.bu	$a1, $a2, $s0
	addi.w	$a3, $t7, -1
	and	$a3, $a5, $a3
	ldx.bu	$a3, $a2, $a3
	addi.w	$a7, $t8, 2
	and	$a7, $a5, $a7
	ldx.bu	$a7, $a2, $a7
	ld.w	$t5, $a4, 0
	add.d	$a1, $a3, $a1
	sub.d	$a1, $a1, $a7
	slli.d	$a1, $a1, 8
	addi.d	$a3, $t5, -256
	and	$a1, $a1, $a3
	st.w	$a1, $a4, 24
	addi.w	$a1, $a6, 3
	and	$a1, $a5, $a1
	ldx.bu	$a3, $a2, $t4
	ldx.bu	$a5, $a2, $s0
	ldx.bu	$a1, $a2, $a1
	ld.w	$a2, $t0, 0
	add.d	$a3, $a5, $a3
	sub.d	$a1, $a3, $a1
	slli.d	$a1, $a1, 8
	addi.d	$a2, $a2, -256
	and	$a1, $a1, $a2
	st.w	$a1, $t0, 24
	srli.d	$a1, $t6, 3
	slli.d	$a2, $s3, 1
	andi	$a2, $a2, 384
	ld.w	$a3, $t3, 0
	or	$a1, $a2, $a1
	lu12i.w	$a2, 524287
	ori	$a2, $a2, 3840
	add.d	$a2, $a3, $a2
	slli.d	$a1, $a1, 8
	and	$a1, $a2, $a1
	st.w	$a1, $t3, 24
.LBB40_31:                              # %if.end327
	ld.d	$a1, $t2, 32
	pcalau12i	$a2, %pc_hi20(y)
	ld.w	$a0, $a2, %pc_lo12(y)
	st.d	$a0, $sp, 104                   # 8-byte Folded Spill
	ld.hu	$a3, $a1, 0
	slli.d	$a2, $a0, 16
	addi.d	$t4, $a2, 64
	sub.d	$a2, $t4, $a3
	srli.d	$a6, $a2, 7
	ld.w	$a7, $t2, 24
	pcalau12i	$a2, %pc_hi20(c0)
	ld.w	$a2, $a2, %pc_lo12(c0)
	add.d	$a3, $a3, $a6
	ld.d	$s3, $t2, 16
	st.h	$a3, $a1, 0
	st.d	$t2, $sp, 56                    # 8-byte Folded Spill
	add.w	$t3, $a2, $a7
	slli.d	$a1, $t3, 1
	ldx.hu	$a1, $s3, $a1
	pcalau12i	$a3, %pc_hi20(stretch+16)
	ld.d	$t5, $a3, %pc_lo12(stretch+16)
	srli.d	$a1, $a1, 3
	lu12i.w	$a3, 1
	ori	$t6, $a3, 4094
	and	$a1, $a1, $t6
	ldx.h	$a1, $t5, $a1
	ld.w	$a0, $s5, 96
	ld.d	$a3, $s5, 32
	ld.d	$a6, $ra, 32
	slli.d	$a7, $a0, 1
	st.d	$a0, $sp, 64                    # 8-byte Folded Spill
	stx.h	$a1, $a3, $a7
	ld.hu	$a1, $a6, 0
	sub.d	$a7, $t4, $a1
	srli.d	$a7, $a7, 7
	ld.w	$t8, $ra, 24
	add.d	$a1, $a1, $a7
	ld.d	$t2, $ra, 16
	st.h	$a1, $a6, 0
	add.w	$s5, $t8, $a2
	slli.d	$a1, $s5, 1
	ldx.hu	$a1, $t2, $a1
	srli.d	$a1, $a1, 3
	and	$a1, $a1, $t6
	ldx.h	$a1, $t5, $a1
	ld.d	$a6, $s6, 32
	alsl.d	$t8, $a0, $a3, 1
	st.h	$a1, $t8, 2
	ld.hu	$a1, $a6, 0
	sub.d	$a3, $t4, $a1
	srli.d	$a3, $a3, 7
	add.d	$a1, $a1, $a3
	move	$a5, $s6
	ld.d	$s6, $s6, 16
	st.h	$a1, $a6, 0
	add.w	$s2, $s2, $a2
	slli.d	$a1, $s2, 1
	ldx.hu	$a1, $s6, $a1
	srli.d	$a1, $a1, 3
	and	$a1, $a1, $t6
	ldx.h	$a1, $t5, $a1
	ld.d	$a3, $s7, 32
	st.h	$a1, $t8, 4
	ld.hu	$a1, $a3, 0
	sub.d	$a6, $t4, $a1
	srli.d	$a6, $a6, 7
	add.d	$a1, $a1, $a6
	move	$s0, $s7
	ld.d	$s7, $s7, 16
	st.h	$a1, $a3, 0
	add.w	$fp, $fp, $a2
	slli.d	$a1, $fp, 1
	ldx.hu	$a1, $s7, $a1
	srli.d	$a1, $a1, 3
	and	$a1, $a1, $t6
	ldx.h	$a1, $t5, $a1
	ld.d	$a3, $s8, 32
	st.h	$a1, $t8, 6
	ld.hu	$a1, $a3, 0
	sub.d	$a6, $t4, $a1
	srli.d	$a6, $a6, 7
	ld.w	$a7, $s8, 24
	add.d	$a1, $a1, $a6
	move	$s1, $s8
	ld.d	$s8, $s8, 16
	st.h	$a1, $a3, 0
	move	$s4, $ra
	add.w	$ra, $a7, $a2
	slli.d	$a1, $ra, 1
	ldx.hu	$a1, $s8, $a1
	srli.d	$a1, $a1, 3
	and	$a1, $a1, $t6
	ldx.h	$a1, $t5, $a1
	ld.d	$a3, $t1, 32
	st.h	$a1, $t8, 8
	ld.hu	$a1, $a3, 0
	sub.d	$a6, $t4, $a1
	srli.d	$a6, $a6, 7
	ld.w	$a7, $t1, 24
	add.d	$a1, $a1, $a6
	ld.d	$a6, $t1, 16
	st.h	$a1, $a3, 0
	add.w	$a7, $a7, $a2
	slli.d	$a1, $a7, 1
	ldx.hu	$a1, $a6, $a1
	srli.d	$a1, $a1, 3
	and	$a1, $a1, $t6
	ldx.h	$a1, $t5, $a1
	ld.d	$a3, $a4, 32
	st.h	$a1, $t8, 10
	ld.hu	$a1, $a3, 0
	move	$t7, $a4
	sub.d	$a4, $t4, $a1
	srli.d	$a4, $a4, 7
	ld.w	$t0, $t7, 24
	add.d	$a4, $a1, $a4
	ld.d	$a1, $t7, 16
	st.h	$a4, $a3, 0
	add.w	$a3, $t0, $a2
	slli.d	$a4, $a3, 1
	ldx.hu	$a4, $a1, $a4
	srli.d	$a4, $a4, 3
	and	$a4, $a4, $t6
	ldx.h	$a4, $t5, $a4
	ld.d	$a0, $sp, 72                    # 8-byte Folded Reload
	ld.d	$t0, $a0, 32
	alsl.d	$s3, $t3, $s3, 1
	st.h	$a4, $t8, 12
	ld.hu	$a4, $t0, 0
	ld.d	$t3, $sp, 56                    # 8-byte Folded Reload
	st.d	$s3, $t3, 32
	alsl.d	$t2, $s5, $t2, 1
	st.d	$t2, $s4, 32
	sub.d	$t2, $t4, $a4
	srli.d	$t2, $t2, 7
	ld.w	$t3, $a0, 24
	add.d	$a4, $a4, $t2
	ld.d	$t2, $a0, 16
	st.h	$a4, $t0, 0
	add.w	$a4, $t3, $a2
	slli.d	$t0, $a4, 1
	ldx.hu	$t0, $t2, $t0
	alsl.d	$t3, $s2, $s6, 1
	st.d	$t3, $a5, 32
	alsl.d	$t3, $fp, $s7, 1
	srli.d	$t0, $t0, 3
	and	$t0, $t0, $t6
	ldx.h	$t0, $t5, $t0
	ld.d	$a5, $sp, 80                    # 8-byte Folded Reload
	ld.d	$fp, $a5, 32
	st.d	$t3, $s0, 32
	alsl.d	$t3, $ra, $s8, 1
	st.h	$t0, $t8, 14
	ld.hu	$t0, $fp, 0
	st.d	$t3, $s1, 32
	alsl.d	$a6, $a7, $a6, 1
	st.d	$a6, $t1, 32
	sub.d	$a6, $t4, $t0
	srli.d	$a6, $a6, 7
	ld.w	$a7, $a5, 24
	add.d	$a6, $t0, $a6
	ld.d	$t0, $a5, 16
	st.h	$a6, $fp, 0
	add.w	$a6, $a7, $a2
	slli.d	$a7, $a6, 1
	ldx.hu	$a7, $t0, $a7
	alsl.d	$a1, $a3, $a1, 1
	st.d	$a1, $t7, 32
	alsl.d	$a1, $a4, $t2, 1
	srli.d	$a3, $a7, 3
	and	$a3, $a3, $t6
	ldx.h	$a3, $t5, $a3
	st.d	$a1, $a0, 32
	alsl.d	$a1, $a6, $t0, 1
	st.d	$a1, $a5, 32
	st.h	$a3, $t8, 16
	pcalau12i	$a1, %pc_hi20(_ZZ8bmpModelR5MixerE5scm10)
	addi.d	$a1, $a1, %pc_lo12(_ZZ8bmpModelR5MixerE5scm10)
	ld.d	$a3, $a1, 32
	ld.hu	$a4, $a3, 0
	sub.d	$a6, $t4, $a4
	srli.d	$a6, $a6, 7
	ld.w	$a7, $a1, 24
	add.d	$a4, $a4, $a6
	ld.d	$a6, $a1, 16
	st.h	$a4, $a3, 0
	add.w	$a3, $a7, $a2
	slli.d	$a4, $a3, 1
	ldx.hu	$a4, $a6, $a4
	alsl.d	$a3, $a3, $a6, 1
	srli.d	$a4, $a4, 3
	and	$a4, $a4, $t6
	ldx.h	$a4, $t5, $a4
	st.d	$a3, $a1, 32
	ld.d	$a0, $sp, 64                    # 8-byte Folded Reload
	addi.d	$a0, $a0, 10
	ld.d	$a1, $sp, 128                   # 8-byte Folded Reload
	st.w	$a0, $a1, 96
	st.h	$a4, $t8, 18
	ld.d	$a0, $sp, 88                    # 8-byte Folded Reload
	ld.w	$a5, $a0, %pc_lo12(pos)
	ld.d	$a0, $sp, 96                    # 8-byte Folded Reload
	ld.w	$a4, $a0, 0
	ld.d	$a3, $sp, 120                   # 8-byte Folded Reload
	ld.w	$a3, $a3, %pc_lo12(bpos)
	ld.d	$a0, $a0, 16
	addi.w	$a5, $a5, -1
	addi.w	$a4, $a4, -1
	and	$a4, $a4, $a5
	ldx.bu	$a4, $a0, $a4
	pcalau12i	$a0, %pc_hi20(_ZZ8bmpModelR5MixerE2cm)
	addi.d	$a0, $a0, %pc_lo12(_ZZ8bmpModelR5MixerE2cm)
	ld.d	$a5, $sp, 104                   # 8-byte Folded Reload
	pcaddu18i	$ra, %call36(_ZN10ContextMap4mix1ER5Mixeriiii)
	jirl	$ra, $ra, 0
	ld.d	$a0, $sp, 112                   # 8-byte Folded Reload
	ld.w	$a0, $a0, %pc_lo12(_ZZ8bmpModelR5MixerE1w)
.LBB40_32:                              # %cleanup
	ld.d	$s8, $sp, 136                   # 8-byte Folded Reload
	ld.d	$s7, $sp, 144                   # 8-byte Folded Reload
	ld.d	$s6, $sp, 152                   # 8-byte Folded Reload
	ld.d	$s5, $sp, 160                   # 8-byte Folded Reload
	ld.d	$s4, $sp, 168                   # 8-byte Folded Reload
	ld.d	$s3, $sp, 176                   # 8-byte Folded Reload
	ld.d	$s2, $sp, 184                   # 8-byte Folded Reload
	ld.d	$s1, $sp, 192                   # 8-byte Folded Reload
	ld.d	$s0, $sp, 200                   # 8-byte Folded Reload
	ld.d	$fp, $sp, 208                   # 8-byte Folded Reload
	ld.d	$ra, $sp, 216                   # 8-byte Folded Reload
	addi.d	$sp, $sp, 224
	ret
.LBB40_33:                              # %if.end104
	beqz	$a0, .LBB40_26
# %bb.34:                               # %if.end104
	ori	$a1, $zero, 200
	bne	$a2, $a1, .LBB40_26
# %bb.35:                               # %if.then109
	ld.w	$a1, $fp, 0
	move	$a3, $zero
	move	$a2, $zero
	move	$a4, $zero
	ld.d	$a6, $fp, 16
	addi.w	$t0, $a5, -196
	addi.w	$a7, $a1, -1
	and	$a1, $a7, $t0
	ldx.bu	$t2, $a6, $a1
	addi.w	$a1, $a5, -195
	and	$a1, $a7, $a1
	ldx.bu	$t3, $a6, $a1
	pcalau12i	$a1, %pc_hi20(_ZZ8bmpModelR5MixerE1w)
	addi.w	$t0, $a0, 6
	addi.w	$t1, $a5, -12
	st.w	$zero, $a1, %pc_lo12(_ZZ8bmpModelR5MixerE1w)
	bge	$t0, $t1, .LBB40_48
# %bb.36:                               # %land.rhs.lr.ph
	move	$a3, $zero
	move	$t0, $zero
	move	$a2, $zero
	move	$a4, $zero
	slli.d	$t3, $t3, 8
	or	$t2, $t3, $t2
	addi.d	$t2, $t2, 1
	addi.w	$t3, $a0, 17
	ori	$t4, $zero, 1
	b	.LBB40_38
	.p2align	4, , 16
.LBB40_37:                              # %if.end146
                                        #   in Loop: Header=BB40_38 Depth=1
	addi.w	$t3, $t3, 12
	addi.w	$t5, $t3, -11
	bge	$t5, $t1, .LBB40_42
.LBB40_38:                              # %land.rhs
                                        # =>This Inner Loop Header: Depth=1
	addi.w	$t2, $t2, -1
	bge	$t4, $t2, .LBB40_42
# %bb.39:                               # %for.body
                                        #   in Loop: Header=BB40_38 Depth=1
	addi.w	$t5, $t3, -9
	and	$t5, $t5, $a7
	addi.w	$t6, $t3, -8
	and	$t6, $t6, $a7
	ldx.bu	$t6, $a6, $t6
	ldx.bu	$t5, $a6, $t5
	slli.d	$t6, $t6, 8
	or	$t5, $t6, $t5
	addi.d	$t5, $t5, -3
	bltu	$t4, $t5, .LBB40_37
# %bb.40:                               # %for.body
                                        #   in Loop: Header=BB40_38 Depth=1
	addi.w	$t5, $t3, -6
	and	$t5, $t5, $a7
	ldx.bu	$t5, $a6, $t5
	addi.w	$t6, $t3, -7
	and	$t6, $t6, $a7
	ldx.bu	$t6, $a6, $t6
	slli.w	$t5, $t5, 8
	addi.w	$t7, $t3, -5
	and	$t7, $t7, $a7
	ldx.bu	$t7, $a6, $t7
	addi.w	$t8, $t3, -4
	and	$t8, $t8, $a7
	ldx.b	$t8, $a6, $t8
	or	$t5, $t5, $t6
	slli.w	$t6, $t7, 16
	or	$t5, $t5, $t6
	slli.w	$t6, $t8, 24
	or	$t5, $t5, $t6
	bne	$t5, $t4, .LBB40_37
# %bb.41:                               # %if.then133
                                        #   in Loop: Header=BB40_38 Depth=1
	addi.w	$t5, $t3, -3
	addi.w	$t6, $t3, -2
	and	$t6, $t6, $a7
	ldx.bu	$t6, $a6, $t6
	and	$t5, $t5, $a7
	ldx.bu	$t5, $a6, $t5
	addi.w	$t7, $t3, -1
	and	$t7, $t7, $a7
	ldx.bu	$t7, $a6, $t7
	addi.w	$t8, $t3, -11
	slli.d	$t6, $t6, 8
	or	$t5, $t6, $t5
	slli.d	$t6, $t7, 16
	or	$t5, $t5, $t6
	and	$t6, $t3, $a7
	ldx.b	$t6, $a6, $t6
	addi.w	$t7, $t3, -10
	and	$t7, $t7, $a7
	ldx.bu	$t7, $a6, $t7
	and	$t8, $t8, $a7
	ldx.bu	$t8, $a6, $t8
	slli.d	$t6, $t6, 24
	or	$t5, $t5, $t6
	slli.d	$t6, $t7, 8
	or	$t6, $t6, $t8
	addi.d	$t7, $t6, -256
	sltui	$t7, $t7, 1
	maskeqz	$t8, $t5, $t7
	masknez	$a2, $a2, $t7
	or	$a2, $t8, $a2
	addi.d	$t7, $t6, -257
	sltui	$t7, $t7, 1
	maskeqz	$t8, $t5, $t7
	masknez	$a4, $a4, $t7
	or	$a4, $t8, $a4
	addi.d	$t7, $t6, -259
	sltui	$t7, $t7, 1
	maskeqz	$t8, $t5, $t7
	masknez	$t0, $t0, $t7
	or	$t0, $t8, $t0
	addi.d	$t6, $t6, -277
	sltui	$t6, $t6, 1
	maskeqz	$t5, $t5, $t6
	masknez	$a3, $a3, $t6
	or	$a3, $t5, $a3
	b	.LBB40_37
.LBB40_42:                              # %for.cond.cleanup
	addi.w	$a6, $a2, 0
	blez	$a6, .LBB40_48
# %bb.43:                               # %for.cond.cleanup
	addi.w	$a6, $a4, 0
	blez	$a6, .LBB40_48
# %bb.44:                               # %land.lhs.true151
	mul.w	$a6, $a2, $a4
	ori	$a7, $zero, 51
	bltu	$a6, $a7, .LBB40_48
# %bb.45:                               # %land.lhs.true151
	addi.w	$t0, $t0, 0
	ori	$a7, $zero, 1
	bne	$t0, $a7, .LBB40_48
# %bb.46:                               # %land.lhs.true151
	move	$t0, $a3
	bstrins.d	$t0, $zero, 1, 1
	addi.w	$t0, $t0, 0
	bne	$t0, $a7, .LBB40_48
# %bb.47:                               # %if.then160
	mul.d	$a6, $a3, $a6
	add.d	$a0, $a6, $a0
	st.w	$a0, $s2, %pc_lo12(_ZZ8bmpModelR5MixerE3eoi)
	mul.d	$a0, $a3, $a2
	st.w	$a0, $a1, %pc_lo12(_ZZ8bmpModelR5MixerE1w)
.LBB40_48:                              # %if.end165
	ld.w	$a0, $s2, %pc_lo12(_ZZ8bmpModelR5MixerE3eoi)
	bge	$a5, $a0, .LBB40_50
# %bb.49:                               # %if.then167
	addi.w	$a1, $a2, 0
	addi.w	$a2, $a4, 0
	addi.w	$a3, $a3, 0
	pcalau12i	$a0, %pc_hi20(.L.str.5)
	addi.d	$a0, $a0, %pc_lo12(.L.str.5)
	pcaddu18i	$ra, %call36(printf)
	jirl	$ra, $ra, 0
	ld.w	$a5, $s1, %pc_lo12(pos)
	b	.LBB40_26
.LBB40_50:                              # %if.else169
	st.w	$zero, $a1, %pc_lo12(_ZZ8bmpModelR5MixerE1w)
	b	.LBB40_25
.LBB40_51:                              # %init.check
	pcalau12i	$a0, %pc_hi20(_ZGVZ8bmpModelR5MixerE4scm1)
	addi.d	$s0, $a0, %pc_lo12(_ZGVZ8bmpModelR5MixerE4scm1)
	move	$a0, $s0
	pcaddu18i	$ra, %call36(__cxa_guard_acquire)
	jirl	$ra, $ra, 0
	addi.w	$a0, $a0, 0
	beqz	$a0, .LBB40_1
# %bb.52:                               # %init
.Ltmp71:                                # EH_LABEL
	pcalau12i	$a0, %pc_hi20(_ZZ8bmpModelR5MixerE4scm1)
	addi.d	$a0, $a0, %pc_lo12(_ZZ8bmpModelR5MixerE4scm1)
	lu12i.w	$a1, 32
	pcaddu18i	$ra, %call36(_ZN25SmallStationaryContextMapC2Ei)
	jirl	$ra, $ra, 0
.Ltmp72:                                # EH_LABEL
# %bb.53:                               # %invoke.cont
	pcalau12i	$a0, %pc_hi20(_ZN25SmallStationaryContextMapD2Ev)
	addi.d	$a0, $a0, %pc_lo12(_ZN25SmallStationaryContextMapD2Ev)
	pcalau12i	$a1, %pc_hi20(_ZZ8bmpModelR5MixerE4scm1)
	addi.d	$a1, $a1, %pc_lo12(_ZZ8bmpModelR5MixerE4scm1)
	pcalau12i	$a2, %pc_hi20(__dso_handle)
	addi.d	$a2, $a2, %pc_lo12(__dso_handle)
	pcaddu18i	$ra, %call36(__cxa_atexit)
	jirl	$ra, $ra, 0
	pcalau12i	$a0, %pc_hi20(_ZGVZ8bmpModelR5MixerE4scm1)
	addi.d	$a0, $a0, %pc_lo12(_ZGVZ8bmpModelR5MixerE4scm1)
	pcaddu18i	$ra, %call36(__cxa_guard_release)
	jirl	$ra, $ra, 0
	b	.LBB40_1
.LBB40_54:                              # %init.check2
	pcalau12i	$a0, %pc_hi20(_ZGVZ8bmpModelR5MixerE4scm2)
	addi.d	$s0, $a0, %pc_lo12(_ZGVZ8bmpModelR5MixerE4scm2)
	move	$a0, $s0
	pcaddu18i	$ra, %call36(__cxa_guard_acquire)
	jirl	$ra, $ra, 0
	addi.w	$a0, $a0, 0
	beqz	$a0, .LBB40_2
# %bb.55:                               # %init4
.Ltmp74:                                # EH_LABEL
	pcalau12i	$a0, %pc_hi20(_ZZ8bmpModelR5MixerE4scm2)
	addi.d	$a0, $a0, %pc_lo12(_ZZ8bmpModelR5MixerE4scm2)
	lu12i.w	$a1, 32
	pcaddu18i	$ra, %call36(_ZN25SmallStationaryContextMapC2Ei)
	jirl	$ra, $ra, 0
.Ltmp75:                                # EH_LABEL
# %bb.56:                               # %invoke.cont6
	pcalau12i	$a0, %pc_hi20(_ZN25SmallStationaryContextMapD2Ev)
	addi.d	$a0, $a0, %pc_lo12(_ZN25SmallStationaryContextMapD2Ev)
	pcalau12i	$a1, %pc_hi20(_ZZ8bmpModelR5MixerE4scm2)
	addi.d	$a1, $a1, %pc_lo12(_ZZ8bmpModelR5MixerE4scm2)
	pcalau12i	$a2, %pc_hi20(__dso_handle)
	addi.d	$a2, $a2, %pc_lo12(__dso_handle)
	pcaddu18i	$ra, %call36(__cxa_atexit)
	jirl	$ra, $ra, 0
	pcalau12i	$a0, %pc_hi20(_ZGVZ8bmpModelR5MixerE4scm2)
	addi.d	$a0, $a0, %pc_lo12(_ZGVZ8bmpModelR5MixerE4scm2)
	pcaddu18i	$ra, %call36(__cxa_guard_release)
	jirl	$ra, $ra, 0
	b	.LBB40_2
.LBB40_57:                              # %init.check9
	pcalau12i	$a0, %pc_hi20(_ZGVZ8bmpModelR5MixerE4scm3)
	addi.d	$s0, $a0, %pc_lo12(_ZGVZ8bmpModelR5MixerE4scm3)
	move	$a0, $s0
	pcaddu18i	$ra, %call36(__cxa_guard_acquire)
	jirl	$ra, $ra, 0
	addi.w	$a0, $a0, 0
	beqz	$a0, .LBB40_3
# %bb.58:                               # %init11
.Ltmp77:                                # EH_LABEL
	pcalau12i	$a0, %pc_hi20(_ZZ8bmpModelR5MixerE4scm3)
	addi.d	$a0, $a0, %pc_lo12(_ZZ8bmpModelR5MixerE4scm3)
	lu12i.w	$a1, 32
	pcaddu18i	$ra, %call36(_ZN25SmallStationaryContextMapC2Ei)
	jirl	$ra, $ra, 0
.Ltmp78:                                # EH_LABEL
# %bb.59:                               # %invoke.cont13
	pcalau12i	$a0, %pc_hi20(_ZN25SmallStationaryContextMapD2Ev)
	addi.d	$a0, $a0, %pc_lo12(_ZN25SmallStationaryContextMapD2Ev)
	pcalau12i	$a1, %pc_hi20(_ZZ8bmpModelR5MixerE4scm3)
	addi.d	$a1, $a1, %pc_lo12(_ZZ8bmpModelR5MixerE4scm3)
	pcalau12i	$a2, %pc_hi20(__dso_handle)
	addi.d	$a2, $a2, %pc_lo12(__dso_handle)
	pcaddu18i	$ra, %call36(__cxa_atexit)
	jirl	$ra, $ra, 0
	pcalau12i	$a0, %pc_hi20(_ZGVZ8bmpModelR5MixerE4scm3)
	addi.d	$a0, $a0, %pc_lo12(_ZGVZ8bmpModelR5MixerE4scm3)
	pcaddu18i	$ra, %call36(__cxa_guard_release)
	jirl	$ra, $ra, 0
	b	.LBB40_3
.LBB40_60:                              # %init.check16
	pcalau12i	$a0, %pc_hi20(_ZGVZ8bmpModelR5MixerE4scm4)
	addi.d	$s0, $a0, %pc_lo12(_ZGVZ8bmpModelR5MixerE4scm4)
	move	$a0, $s0
	pcaddu18i	$ra, %call36(__cxa_guard_acquire)
	jirl	$ra, $ra, 0
	addi.w	$a0, $a0, 0
	beqz	$a0, .LBB40_4
# %bb.61:                               # %init18
.Ltmp80:                                # EH_LABEL
	pcalau12i	$a0, %pc_hi20(_ZZ8bmpModelR5MixerE4scm4)
	addi.d	$a0, $a0, %pc_lo12(_ZZ8bmpModelR5MixerE4scm4)
	lu12i.w	$a1, 32
	pcaddu18i	$ra, %call36(_ZN25SmallStationaryContextMapC2Ei)
	jirl	$ra, $ra, 0
.Ltmp81:                                # EH_LABEL
# %bb.62:                               # %invoke.cont20
	pcalau12i	$a0, %pc_hi20(_ZN25SmallStationaryContextMapD2Ev)
	addi.d	$a0, $a0, %pc_lo12(_ZN25SmallStationaryContextMapD2Ev)
	pcalau12i	$a1, %pc_hi20(_ZZ8bmpModelR5MixerE4scm4)
	addi.d	$a1, $a1, %pc_lo12(_ZZ8bmpModelR5MixerE4scm4)
	pcalau12i	$a2, %pc_hi20(__dso_handle)
	addi.d	$a2, $a2, %pc_lo12(__dso_handle)
	pcaddu18i	$ra, %call36(__cxa_atexit)
	jirl	$ra, $ra, 0
	pcalau12i	$a0, %pc_hi20(_ZGVZ8bmpModelR5MixerE4scm4)
	addi.d	$a0, $a0, %pc_lo12(_ZGVZ8bmpModelR5MixerE4scm4)
	pcaddu18i	$ra, %call36(__cxa_guard_release)
	jirl	$ra, $ra, 0
	b	.LBB40_4
.LBB40_63:                              # %init.check23
	pcalau12i	$a0, %pc_hi20(_ZGVZ8bmpModelR5MixerE4scm5)
	addi.d	$s0, $a0, %pc_lo12(_ZGVZ8bmpModelR5MixerE4scm5)
	move	$a0, $s0
	pcaddu18i	$ra, %call36(__cxa_guard_acquire)
	jirl	$ra, $ra, 0
	addi.w	$a0, $a0, 0
	beqz	$a0, .LBB40_5
# %bb.64:                               # %init25
.Ltmp83:                                # EH_LABEL
	pcalau12i	$a0, %pc_hi20(_ZZ8bmpModelR5MixerE4scm5)
	addi.d	$a0, $a0, %pc_lo12(_ZZ8bmpModelR5MixerE4scm5)
	lu12i.w	$a1, 32
	pcaddu18i	$ra, %call36(_ZN25SmallStationaryContextMapC2Ei)
	jirl	$ra, $ra, 0
.Ltmp84:                                # EH_LABEL
# %bb.65:                               # %invoke.cont27
	pcalau12i	$a0, %pc_hi20(_ZN25SmallStationaryContextMapD2Ev)
	addi.d	$a0, $a0, %pc_lo12(_ZN25SmallStationaryContextMapD2Ev)
	pcalau12i	$a1, %pc_hi20(_ZZ8bmpModelR5MixerE4scm5)
	addi.d	$a1, $a1, %pc_lo12(_ZZ8bmpModelR5MixerE4scm5)
	pcalau12i	$a2, %pc_hi20(__dso_handle)
	addi.d	$a2, $a2, %pc_lo12(__dso_handle)
	pcaddu18i	$ra, %call36(__cxa_atexit)
	jirl	$ra, $ra, 0
	pcalau12i	$a0, %pc_hi20(_ZGVZ8bmpModelR5MixerE4scm5)
	addi.d	$a0, $a0, %pc_lo12(_ZGVZ8bmpModelR5MixerE4scm5)
	pcaddu18i	$ra, %call36(__cxa_guard_release)
	jirl	$ra, $ra, 0
	b	.LBB40_5
.LBB40_66:                              # %init.check30
	pcalau12i	$a0, %pc_hi20(_ZGVZ8bmpModelR5MixerE4scm6)
	addi.d	$s0, $a0, %pc_lo12(_ZGVZ8bmpModelR5MixerE4scm6)
	move	$a0, $s0
	pcaddu18i	$ra, %call36(__cxa_guard_acquire)
	jirl	$ra, $ra, 0
	addi.w	$a0, $a0, 0
	beqz	$a0, .LBB40_6
# %bb.67:                               # %init32
.Ltmp86:                                # EH_LABEL
	pcalau12i	$a0, %pc_hi20(_ZZ8bmpModelR5MixerE4scm6)
	addi.d	$a0, $a0, %pc_lo12(_ZZ8bmpModelR5MixerE4scm6)
	lu12i.w	$a1, 32
	pcaddu18i	$ra, %call36(_ZN25SmallStationaryContextMapC2Ei)
	jirl	$ra, $ra, 0
.Ltmp87:                                # EH_LABEL
# %bb.68:                               # %invoke.cont34
	pcalau12i	$a0, %pc_hi20(_ZN25SmallStationaryContextMapD2Ev)
	addi.d	$a0, $a0, %pc_lo12(_ZN25SmallStationaryContextMapD2Ev)
	pcalau12i	$a1, %pc_hi20(_ZZ8bmpModelR5MixerE4scm6)
	addi.d	$a1, $a1, %pc_lo12(_ZZ8bmpModelR5MixerE4scm6)
	pcalau12i	$a2, %pc_hi20(__dso_handle)
	addi.d	$a2, $a2, %pc_lo12(__dso_handle)
	pcaddu18i	$ra, %call36(__cxa_atexit)
	jirl	$ra, $ra, 0
	pcalau12i	$a0, %pc_hi20(_ZGVZ8bmpModelR5MixerE4scm6)
	addi.d	$a0, $a0, %pc_lo12(_ZGVZ8bmpModelR5MixerE4scm6)
	pcaddu18i	$ra, %call36(__cxa_guard_release)
	jirl	$ra, $ra, 0
	b	.LBB40_6
.LBB40_69:                              # %init.check37
	pcalau12i	$a0, %pc_hi20(_ZGVZ8bmpModelR5MixerE4scm7)
	addi.d	$s0, $a0, %pc_lo12(_ZGVZ8bmpModelR5MixerE4scm7)
	move	$a0, $s0
	pcaddu18i	$ra, %call36(__cxa_guard_acquire)
	jirl	$ra, $ra, 0
	addi.w	$a0, $a0, 0
	beqz	$a0, .LBB40_7
# %bb.70:                               # %init39
.Ltmp89:                                # EH_LABEL
	pcalau12i	$a0, %pc_hi20(_ZZ8bmpModelR5MixerE4scm7)
	addi.d	$a0, $a0, %pc_lo12(_ZZ8bmpModelR5MixerE4scm7)
	lu12i.w	$a1, 32
	pcaddu18i	$ra, %call36(_ZN25SmallStationaryContextMapC2Ei)
	jirl	$ra, $ra, 0
.Ltmp90:                                # EH_LABEL
# %bb.71:                               # %invoke.cont41
	pcalau12i	$a0, %pc_hi20(_ZN25SmallStationaryContextMapD2Ev)
	addi.d	$a0, $a0, %pc_lo12(_ZN25SmallStationaryContextMapD2Ev)
	pcalau12i	$a1, %pc_hi20(_ZZ8bmpModelR5MixerE4scm7)
	addi.d	$a1, $a1, %pc_lo12(_ZZ8bmpModelR5MixerE4scm7)
	pcalau12i	$a2, %pc_hi20(__dso_handle)
	addi.d	$a2, $a2, %pc_lo12(__dso_handle)
	pcaddu18i	$ra, %call36(__cxa_atexit)
	jirl	$ra, $ra, 0
	pcalau12i	$a0, %pc_hi20(_ZGVZ8bmpModelR5MixerE4scm7)
	addi.d	$a0, $a0, %pc_lo12(_ZGVZ8bmpModelR5MixerE4scm7)
	pcaddu18i	$ra, %call36(__cxa_guard_release)
	jirl	$ra, $ra, 0
	b	.LBB40_7
.LBB40_72:                              # %init.check44
	pcalau12i	$a0, %pc_hi20(_ZGVZ8bmpModelR5MixerE4scm8)
	addi.d	$s0, $a0, %pc_lo12(_ZGVZ8bmpModelR5MixerE4scm8)
	move	$a0, $s0
	pcaddu18i	$ra, %call36(__cxa_guard_acquire)
	jirl	$ra, $ra, 0
	addi.w	$a0, $a0, 0
	beqz	$a0, .LBB40_8
# %bb.73:                               # %init46
.Ltmp92:                                # EH_LABEL
	pcalau12i	$a0, %pc_hi20(_ZZ8bmpModelR5MixerE4scm8)
	addi.d	$a0, $a0, %pc_lo12(_ZZ8bmpModelR5MixerE4scm8)
	lu12i.w	$a1, 32
	pcaddu18i	$ra, %call36(_ZN25SmallStationaryContextMapC2Ei)
	jirl	$ra, $ra, 0
.Ltmp93:                                # EH_LABEL
# %bb.74:                               # %invoke.cont48
	pcalau12i	$a0, %pc_hi20(_ZN25SmallStationaryContextMapD2Ev)
	addi.d	$a0, $a0, %pc_lo12(_ZN25SmallStationaryContextMapD2Ev)
	pcalau12i	$a1, %pc_hi20(_ZZ8bmpModelR5MixerE4scm8)
	addi.d	$a1, $a1, %pc_lo12(_ZZ8bmpModelR5MixerE4scm8)
	pcalau12i	$a2, %pc_hi20(__dso_handle)
	addi.d	$a2, $a2, %pc_lo12(__dso_handle)
	pcaddu18i	$ra, %call36(__cxa_atexit)
	jirl	$ra, $ra, 0
	pcalau12i	$a0, %pc_hi20(_ZGVZ8bmpModelR5MixerE4scm8)
	addi.d	$a0, $a0, %pc_lo12(_ZGVZ8bmpModelR5MixerE4scm8)
	pcaddu18i	$ra, %call36(__cxa_guard_release)
	jirl	$ra, $ra, 0
	b	.LBB40_8
.LBB40_75:                              # %init.check51
	pcalau12i	$a0, %pc_hi20(_ZGVZ8bmpModelR5MixerE4scm9)
	addi.d	$s0, $a0, %pc_lo12(_ZGVZ8bmpModelR5MixerE4scm9)
	move	$a0, $s0
	pcaddu18i	$ra, %call36(__cxa_guard_acquire)
	jirl	$ra, $ra, 0
	addi.w	$a0, $a0, 0
	beqz	$a0, .LBB40_9
# %bb.76:                               # %init53
.Ltmp95:                                # EH_LABEL
	pcalau12i	$a0, %pc_hi20(_ZZ8bmpModelR5MixerE4scm9)
	addi.d	$a0, $a0, %pc_lo12(_ZZ8bmpModelR5MixerE4scm9)
	lu12i.w	$a1, 64
	pcaddu18i	$ra, %call36(_ZN25SmallStationaryContextMapC2Ei)
	jirl	$ra, $ra, 0
.Ltmp96:                                # EH_LABEL
# %bb.77:                               # %invoke.cont55
	pcalau12i	$a0, %pc_hi20(_ZN25SmallStationaryContextMapD2Ev)
	addi.d	$a0, $a0, %pc_lo12(_ZN25SmallStationaryContextMapD2Ev)
	pcalau12i	$a1, %pc_hi20(_ZZ8bmpModelR5MixerE4scm9)
	addi.d	$a1, $a1, %pc_lo12(_ZZ8bmpModelR5MixerE4scm9)
	pcalau12i	$a2, %pc_hi20(__dso_handle)
	addi.d	$a2, $a2, %pc_lo12(__dso_handle)
	pcaddu18i	$ra, %call36(__cxa_atexit)
	jirl	$ra, $ra, 0
	pcalau12i	$a0, %pc_hi20(_ZGVZ8bmpModelR5MixerE4scm9)
	addi.d	$a0, $a0, %pc_lo12(_ZGVZ8bmpModelR5MixerE4scm9)
	pcaddu18i	$ra, %call36(__cxa_guard_release)
	jirl	$ra, $ra, 0
	b	.LBB40_9
.LBB40_78:                              # %init.check58
	pcalau12i	$a0, %pc_hi20(_ZGVZ8bmpModelR5MixerE5scm10)
	addi.d	$s0, $a0, %pc_lo12(_ZGVZ8bmpModelR5MixerE5scm10)
	move	$a0, $s0
	pcaddu18i	$ra, %call36(__cxa_guard_acquire)
	jirl	$ra, $ra, 0
	addi.w	$a0, $a0, 0
	beqz	$a0, .LBB40_10
# %bb.79:                               # %init60
.Ltmp98:                                # EH_LABEL
	pcalau12i	$a0, %pc_hi20(_ZZ8bmpModelR5MixerE5scm10)
	addi.d	$a0, $a0, %pc_lo12(_ZZ8bmpModelR5MixerE5scm10)
	lu12i.w	$a1, 32
	pcaddu18i	$ra, %call36(_ZN25SmallStationaryContextMapC2Ei)
	jirl	$ra, $ra, 0
.Ltmp99:                                # EH_LABEL
# %bb.80:                               # %invoke.cont62
	pcalau12i	$a0, %pc_hi20(_ZN25SmallStationaryContextMapD2Ev)
	addi.d	$a0, $a0, %pc_lo12(_ZN25SmallStationaryContextMapD2Ev)
	pcalau12i	$a1, %pc_hi20(_ZZ8bmpModelR5MixerE5scm10)
	addi.d	$a1, $a1, %pc_lo12(_ZZ8bmpModelR5MixerE5scm10)
	pcalau12i	$a2, %pc_hi20(__dso_handle)
	addi.d	$a2, $a2, %pc_lo12(__dso_handle)
	pcaddu18i	$ra, %call36(__cxa_atexit)
	jirl	$ra, $ra, 0
	pcalau12i	$a0, %pc_hi20(_ZGVZ8bmpModelR5MixerE5scm10)
	addi.d	$a0, $a0, %pc_lo12(_ZGVZ8bmpModelR5MixerE5scm10)
	pcaddu18i	$ra, %call36(__cxa_guard_release)
	jirl	$ra, $ra, 0
	b	.LBB40_10
.LBB40_81:                              # %init.check65
	pcalau12i	$a0, %pc_hi20(_ZGVZ8bmpModelR5MixerE2cm)
	addi.d	$s0, $a0, %pc_lo12(_ZGVZ8bmpModelR5MixerE2cm)
	move	$a0, $s0
	pcaddu18i	$ra, %call36(__cxa_guard_acquire)
	jirl	$ra, $ra, 0
	addi.w	$a0, $a0, 0
	beqz	$a0, .LBB40_11
# %bb.82:                               # %init67
	pcalau12i	$a0, %pc_hi20(level)
	ld.wu	$a0, $a0, %pc_lo12(level)
	lu12i.w	$a1, 64
	sll.w	$a1, $a1, $a0
.Ltmp101:                               # EH_LABEL
	pcalau12i	$a0, %pc_hi20(_ZZ8bmpModelR5MixerE2cm)
	addi.d	$a0, $a0, %pc_lo12(_ZZ8bmpModelR5MixerE2cm)
