	.file	"frame_layout.cpp"
                                        # Start of file scope inline assembly
	.globl	_ZSt21ios_base_library_initv

                                        # End of file scope inline assembly
	.text
	.globl	_Z11check_tracePKcS0_PK13trace_elementdjbjjbbi # -- Begin function _Z11check_tracePKcS0_PK13trace_elementdjbjjbbi
	.p2align	5
	.type	_Z11check_tracePKcS0_PK13trace_elementdjbjjbbi,@function
_Z11check_tracePKcS0_PK13trace_elementdjbjjbbi: # @_Z11check_tracePKcS0_PK13trace_elementdjbjjbbi
	.cfi_startproc
# %bb.0:                                # %entry
	addi.d	$sp, $sp, -448
	.cfi_def_cfa_offset 448
	st.d	$ra, $sp, 440                   # 8-byte Folded Spill
	st.d	$fp, $sp, 432                   # 8-byte Folded Spill
	st.d	$s0, $sp, 424                   # 8-byte Folded Spill
	st.d	$s1, $sp, 416                   # 8-byte Folded Spill
	st.d	$s2, $sp, 408                   # 8-byte Folded Spill
	st.d	$s3, $sp, 400                   # 8-byte Folded Spill
	st.d	$s4, $sp, 392                   # 8-byte Folded Spill
	st.d	$s5, $sp, 384                   # 8-byte Folded Spill
	st.d	$s6, $sp, 376                   # 8-byte Folded Spill
	st.d	$s7, $sp, 368                   # 8-byte Folded Spill
	st.d	$s8, $sp, 360                   # 8-byte Folded Spill
	fst.d	$fs0, $sp, 352                  # 8-byte Folded Spill
	fst.d	$fs1, $sp, 344                  # 8-byte Folded Spill
	fst.d	$fs2, $sp, 336                  # 8-byte Folded Spill
	fst.d	$fs3, $sp, 328                  # 8-byte Folded Spill
	fst.d	$fs4, $sp, 320                  # 8-byte Folded Spill
	fst.d	$fs5, $sp, 312                  # 8-byte Folded Spill
	fst.d	$fs6, $sp, 304                  # 8-byte Folded Spill
	fst.d	$fs7, $sp, 296                  # 8-byte Folded Spill
	.cfi_offset 1, -8
	.cfi_offset 22, -16
	.cfi_offset 23, -24
	.cfi_offset 24, -32
	.cfi_offset 25, -40
	.cfi_offset 26, -48
	.cfi_offset 27, -56
	.cfi_offset 28, -64
	.cfi_offset 29, -72
	.cfi_offset 30, -80
	.cfi_offset 31, -88
	.cfi_offset 56, -96
	.cfi_offset 57, -104
	.cfi_offset 58, -112
	.cfi_offset 59, -120
	.cfi_offset 60, -128
	.cfi_offset 61, -136
	.cfi_offset 62, -144
	.cfi_offset 63, -152
	move	$s0, $a2
	fld.d	$fa1, $a2, 0
	move	$s1, $a7
	move	$s2, $a6
	move	$s4, $a4
	move	$s5, $a3
	fmov.d	$fa2, $fa0
	move	$s3, $a1
	move	$s8, $a0
	pcalau12i	$a0, %pc_hi20(.L.str)
	addi.d	$a1, $a0, %pc_lo12(.L.str)
	move	$a0, $s8
	move	$a2, $zero
	move	$a3, $zero
	fmov.d	$fa0, $fa1
	fmov.d	$fa1, $fa2
	pcaddu18i	$ra, %call36(_ZL35check_and_print_value_and_alignmentIdEbPKcS1_jPKvT_S4_)
	jirl	$ra, $ra, 0
	ld.w	$a4, $s0, 8
	ld.d	$a3, $s0, 16
	fld.d	$fs0, $s0, 24
	ld.d	$s6, $s0, 32
	ld.b	$a5, $s3, 0
	move	$s7, $a0
	pcalau12i	$a0, %pc_hi20(.L.str.1)
	addi.d	$a1, $a0, %pc_lo12(.L.str.1)
	move	$a0, $s8
	move	$a2, $s5
	pcaddu18i	$ra, %call36(_ZL35check_and_print_value_and_alignmentIiEbPKcS1_jPKvT_S4_)
	jirl	$ra, $ra, 0
	ld.b	$a1, $s3, 1
	or	$fp, $s7, $a0
	movgr2fr.w	$fa0, $a1
	ffint.d.w	$fa1, $fa0
	pcalau12i	$a0, %pc_hi20(.L.str.2)
	addi.d	$a1, $a0, %pc_lo12(.L.str.2)
	move	$a0, $s8
	move	$a2, $s5
	move	$a3, $s6
	fmov.d	$fa0, $fs0
	pcaddu18i	$ra, %call36(_ZL35check_and_print_value_and_alignmentIdEbPKcS1_jPKvT_S4_)
	jirl	$ra, $ra, 0
	or	$fp, $fp, $a0
	beqz	$s4, .LBB0_2
# %bb.1:                                # %if.then
	ld.b	$a5, $s3, 2
	ld.b	$s4, $s3, 3
	ld.b	$a4, $s0, 40
	ld.d	$a3, $s0, 48
	ld.b	$s5, $s0, 56
	ld.d	$s6, $s0, 64
	addi.d	$s3, $s3, 4
	addi.d	$s7, $s0, 72
	pcalau12i	$a0, %pc_hi20(.L.str.3)
	addi.d	$a1, $a0, %pc_lo12(.L.str.3)
	move	$a0, $s8
	move	$a2, $s2
	pcaddu18i	$ra, %call36(_ZL35check_and_print_value_and_alignmentIcEbPKcS1_jPKvT_S4_)
	jirl	$ra, $ra, 0
	move	$s0, $a0
	pcalau12i	$a0, %pc_hi20(.L.str.4)
	addi.d	$a1, $a0, %pc_lo12(.L.str.4)
	ori	$a2, $zero, 1
	move	$a0, $s8
	move	$a3, $s6
	move	$a4, $s5
	move	$a5, $s4
	pcaddu18i	$ra, %call36(_ZL35check_and_print_value_and_alignmentIcEbPKcS1_jPKvT_S4_)
	jirl	$ra, $ra, 0
	or	$a0, $s0, $a0
	or	$fp, $fp, $a0
	ld.d	$a4, $sp, 456
	ld.d	$a0, $sp, 448
	bnez	$s1, .LBB0_3
	b	.LBB0_4
.LBB0_2:
	addi.d	$s7, $s0, 40
	addi.d	$s3, $s3, 2
	ld.d	$a4, $sp, 456
	ld.d	$a0, $sp, 448
	beqz	$s1, .LBB0_4
.LBB0_3:                                # %if.then46
	st.d	$a0, $sp, 248                   # 8-byte Folded Spill
	ld.b	$a0, $s3, 1
	movgr2fr.w	$fa0, $a0
	ffint.d.w	$fa0, $fa0
	fadd.d	$ft2, $fa0, $fa0
	fadd.d	$ft3, $ft2, $fa0
	fadd.d	$ft4, $ft3, $fa0
	fadd.d	$ft5, $ft4, $fa0
	fadd.d	$ft6, $ft5, $fa0
	fadd.d	$fa6, $ft6, $fa0
	fadd.d	$fa7, $fa6, $fa0
	fadd.d	$fs6, $fa7, $fa0
	fadd.d	$fs7, $fs6, $fa0
	fadd.d	$fa1, $fs7, $fa0
	fst.d	$fa1, $sp, 240                  # 8-byte Folded Spill
	fadd.d	$fa1, $fa1, $fa0
	fst.d	$fa1, $sp, 232                  # 8-byte Folded Spill
	fadd.d	$fa1, $fa1, $fa0
	fst.d	$fa1, $sp, 224                  # 8-byte Folded Spill
	fadd.d	$fa1, $fa1, $fa0
	fst.d	$fa1, $sp, 288                  # 8-byte Folded Spill
	fadd.d	$fa1, $fa1, $fa0
	fst.d	$fa1, $sp, 216                  # 8-byte Folded Spill
	fadd.d	$fa1, $fa1, $fa0
	fst.d	$fa1, $sp, 280                  # 8-byte Folded Spill
	fadd.d	$fa1, $fa1, $fa0
	fst.d	$fa1, $sp, 272                  # 8-byte Folded Spill
	fadd.d	$fs5, $fa1, $fa0
	fadd.d	$fa1, $fs5, $fa0
	fst.d	$fa1, $sp, 208                  # 8-byte Folded Spill
	fadd.d	$fs4, $fa1, $fa0
	fadd.d	$ft10, $fs4, $fa0
	fadd.d	$ft9, $ft10, $fa0
	fadd.d	$ft8, $ft9, $fa0
	fadd.d	$ft11, $ft8, $fa0
	fadd.d	$ft12, $ft11, $fa0
	fadd.d	$ft13, $ft12, $fa0
	fadd.d	$ft14, $ft13, $fa0
	fadd.d	$fs3, $ft14, $fa0
	fadd.d	$fs0, $fs3, $fa0
	fadd.d	$fs1, $fs0, $fa0
	fst.d	$fs0, $sp, 96                   # 8-byte Folded Spill
	fadd.d	$fs2, $fs1, $fa0
	fst.d	$fs1, $sp, 104                  # 8-byte Folded Spill
	fadd.d	$ft1, $fs2, $fa0
	fst.d	$fs2, $sp, 112                  # 8-byte Folded Spill
	fadd.d	$ft7, $ft1, $fa0
	fst.d	$ft1, $sp, 128                  # 8-byte Folded Spill
	fadd.d	$fa5, $ft7, $fa0
	fadd.d	$fa4, $fa5, $fa0
	fst.d	$fa5, $sp, 136                  # 8-byte Folded Spill
	fadd.d	$fa3, $fa4, $fa0
	fst.d	$fa4, $sp, 152                  # 8-byte Folded Spill
	fadd.d	$fa1, $fa3, $fa0
	fst.d	$fa3, $sp, 160                  # 8-byte Folded Spill
	fadd.d	$ft0, $fa1, $fa0
	fst.d	$fa1, $sp, 168                  # 8-byte Folded Spill
	fadd.d	$fa2, $ft0, $fa0
	fst.d	$fa2, $sp, 192                  # 8-byte Folded Spill
	fst.d	$ft0, $sp, 184                  # 8-byte Folded Spill
	fdiv.d	$ft0, $fa2, $ft0
	fdiv.d	$ft0, $ft0, $fa1
	fdiv.d	$ft0, $ft0, $fa3
	fdiv.d	$ft0, $ft0, $fa4
	fdiv.d	$ft0, $ft0, $fa5
	fdiv.d	$ft0, $ft0, $ft7
	fdiv.d	$ft0, $ft0, $ft1
	fdiv.d	$ft0, $ft0, $fs2
	fdiv.d	$ft0, $ft0, $fs1
	fdiv.d	$ft0, $ft0, $fs0
	fdiv.d	$ft0, $ft0, $fs3
	fdiv.d	$ft0, $ft0, $ft14
	fdiv.d	$ft0, $ft0, $ft13
	fdiv.d	$ft0, $ft0, $ft12
	fdiv.d	$ft0, $ft0, $ft11
	fdiv.d	$ft0, $ft0, $ft8
	fdiv.d	$ft0, $ft0, $ft9
	fdiv.d	$ft0, $ft0, $ft10
	fdiv.d	$ft0, $ft0, $fs4
	fld.d	$fa5, $sp, 208                  # 8-byte Folded Reload
	fdiv.d	$ft0, $ft0, $fa5
	fdiv.d	$ft0, $ft0, $fs5
	fld.d	$fa1, $sp, 272                  # 8-byte Folded Reload
	fdiv.d	$ft0, $ft0, $fa1
	fld.d	$fa1, $sp, 280                  # 8-byte Folded Reload
	fdiv.d	$ft0, $ft0, $fa1
	fld.d	$fa4, $sp, 216                  # 8-byte Folded Reload
	fdiv.d	$ft0, $ft0, $fa4
	fld.d	$fa1, $sp, 288                  # 8-byte Folded Reload
	fdiv.d	$ft0, $ft0, $fa1
	fld.d	$fa3, $sp, 224                  # 8-byte Folded Reload
	fdiv.d	$ft0, $ft0, $fa3
	fld.d	$fa2, $sp, 232                  # 8-byte Folded Reload
	fdiv.d	$ft0, $ft0, $fa2
	fld.d	$ft1, $sp, 240                  # 8-byte Folded Reload
	fdiv.d	$ft0, $ft0, $ft1
	fdiv.d	$ft0, $ft0, $fs7
	fdiv.d	$ft0, $ft0, $fs6
	fdiv.d	$ft0, $ft0, $fa7
	fdiv.d	$ft0, $ft0, $fa6
	fdiv.d	$ft0, $ft0, $ft6
	fdiv.d	$ft0, $ft0, $ft5
	fdiv.d	$ft0, $ft0, $ft4
	fdiv.d	$ft0, $ft0, $ft3
	fdiv.d	$ft0, $ft0, $ft2
	fdiv.d	$fa1, $fa0, $ft2
	fdiv.d	$fa1, $fa1, $ft3
	fdiv.d	$fa1, $fa1, $ft4
	fdiv.d	$fa1, $fa1, $ft5
	fdiv.d	$fa1, $fa1, $ft6
	fdiv.d	$fa1, $fa1, $fa6
	fdiv.d	$fa1, $fa1, $fa7
	ld.b	$a0, $s3, 0
	fdiv.d	$fa1, $fa1, $fs6
	fdiv.d	$fa1, $fa1, $fs7
	ori	$a1, $zero, 39
	mul.d	$a2, $a0, $a1
	st.d	$a2, $sp, 200                   # 8-byte Folded Spill
	ori	$a1, $zero, 38
	mul.d	$a1, $a0, $a1
	st.d	$a1, $sp, 176                   # 8-byte Folded Spill
	div.d	$a1, $a2, $a1
	ext.w.h	$a1, $a1
	alsl.d	$s5, $a0, $a0, 3
	alsl.d	$a2, $s5, $a0, 2
	st.d	$a2, $sp, 144                   # 8-byte Folded Spill
	div.d	$a1, $a1, $a2
	ext.w.h	$a1, $a1
	slli.d	$t5, $a0, 5
	alsl.d	$a2, $a0, $t5, 2
	st.d	$a2, $sp, 120                   # 8-byte Folded Spill
	div.d	$a1, $a1, $a2
	ext.w.h	$a1, $a1
	alsl.d	$t7, $a0, $a0, 4
	alsl.d	$a2, $t7, $a0, 1
	st.d	$a2, $sp, 88                    # 8-byte Folded Spill
	div.d	$a1, $a1, $a2
	ext.w.h	$a1, $a1
	alsl.d	$a2, $a0, $t5, 1
	st.d	$a2, $sp, 80                    # 8-byte Folded Spill
	div.d	$a1, $a1, $a2
	ext.w.h	$a1, $a1
	add.d	$a2, $t5, $a0
	st.d	$a2, $sp, 72                    # 8-byte Folded Spill
	div.d	$a1, $a1, $a2
	ext.w.h	$a1, $a1
	div.d	$a1, $a1, $t5
	ext.w.h	$a1, $a1
	sub.d	$a2, $t5, $a0
	st.d	$a2, $sp, 64                    # 8-byte Folded Spill
	div.d	$a1, $a1, $a2
	ext.w.h	$a1, $a1
	ori	$a2, $zero, 30
	mul.d	$a2, $a0, $a2
	st.d	$a2, $sp, 56                    # 8-byte Folded Spill
	div.d	$a1, $a1, $a2
	ext.w.h	$a1, $a1
	ori	$a2, $zero, 29
	mul.d	$a2, $a0, $a2
	st.d	$a2, $sp, 48                    # 8-byte Folded Spill
	div.d	$a1, $a1, $a2
	ext.w.h	$a1, $a1
	ori	$a2, $zero, 28
	mul.d	$a2, $a0, $a2
	st.d	$a2, $sp, 40                    # 8-byte Folded Spill
	div.d	$a1, $a1, $a2
	ext.w.h	$a2, $a1
	alsl.d	$a7, $a0, $a0, 1
	alsl.d	$a1, $a7, $a7, 3
	st.d	$a1, $sp, 32                    # 8-byte Folded Spill
	div.d	$a2, $a2, $a1
	ext.w.h	$a2, $a2
	ori	$a3, $zero, 26
	mul.d	$a1, $a0, $a3
	st.d	$a1, $sp, 24                    # 8-byte Folded Spill
	div.d	$a2, $a2, $a1
	ext.w.h	$a2, $a2
	alsl.d	$t8, $a7, $a0, 3
	div.d	$a2, $a2, $t8
	ext.w.h	$a2, $a2
	slli.d	$s6, $a0, 4
	alsl.d	$s1, $a0, $s6, 3
	div.d	$a2, $a2, $s1
	ext.w.h	$a2, $a2
	ori	$a3, $zero, 23
	mul.d	$s3, $a0, $a3
	div.d	$a2, $a2, $s3
	ext.w.h	$a2, $a2
	ori	$a3, $zero, 22
	mul.d	$s4, $a0, $a3
	div.d	$a2, $a2, $s4
	ext.w.h	$a2, $a2
	move	$t6, $fp
	alsl.d	$fp, $a0, $a0, 2
	alsl.d	$ra, $fp, $a0, 2
	div.d	$a2, $a2, $ra
	ext.w.h	$a2, $a2
	st.d	$s8, $sp, 264                   # 8-byte Folded Spill
	alsl.d	$s8, $a0, $s6, 2
	div.d	$a2, $a2, $s8
	ext.w.h	$a2, $a2
	alsl.d	$s0, $s5, $a0, 1
	div.d	$a2, $a2, $s0
	ext.w.h	$a2, $a2
	alsl.d	$s2, $a0, $s6, 1
	div.d	$a2, $a2, $s2
	ext.w.h	$a2, $a2
	div.d	$a2, $a2, $t7
	ext.w.h	$a2, $a2
	div.d	$a2, $a2, $s6
	ext.w.h	$a2, $a2
	st.d	$s7, $sp, 16                    # 8-byte Folded Spill
	sub.d	$s7, $s6, $a0
	div.d	$a2, $a2, $s7
	ext.w.h	$a3, $a2
	ori	$a2, $zero, 14
	mul.d	$t4, $a0, $a2
	div.d	$a3, $a3, $t4
	ext.w.h	$a3, $a3
	alsl.d	$t3, $a7, $a0, 2
	div.d	$a3, $a3, $t3
	ext.w.h	$a3, $a3
	st.d	$a4, $sp, 256                   # 8-byte Folded Spill
	slli.d	$a4, $a0, 3
	alsl.d	$t2, $a0, $a4, 2
	div.d	$a3, $a3, $t2
	ext.w.h	$a3, $a3
	alsl.d	$t1, $fp, $a0, 1
	div.d	$a3, $a3, $t1
	ext.w.h	$a3, $a3
	alsl.d	$t0, $a0, $a4, 1
	div.d	$a3, $a3, $t0
	ext.w.h	$a3, $a3
	div.d	$a3, $a3, $s5
	ext.w.h	$a3, $a3
	div.d	$a3, $a3, $a4
	ext.w.h	$a3, $a3
	sub.d	$a6, $a4, $a0
	div.d	$a3, $a3, $a6
	ext.w.h	$a3, $a3
	slli.d	$a2, $a0, 2
	alsl.d	$a5, $a0, $a2, 1
	div.d	$a3, $a3, $a5
	ext.w.h	$a3, $a3
	div.d	$a3, $a3, $fp
	ext.w.h	$a3, $a3
	div.d	$a3, $a3, $a2
	ext.w.h	$a3, $a3
	div.d	$a3, $a3, $a7
	ext.w.h	$a3, $a3
	slli.d	$a1, $a0, 1
	div.d	$a3, $a3, $a1
	div.d	$a1, $a0, $a1
	ext.w.h	$a1, $a1
	div.d	$a1, $a1, $a7
	ext.w.h	$a1, $a1
	div.d	$a1, $a1, $a2
	ext.w.h	$a1, $a1
	div.d	$a1, $a1, $fp
	move	$fp, $t6
	ext.w.h	$a1, $a1
	div.d	$a1, $a1, $a5
	ext.w.h	$a1, $a1
	div.d	$a1, $a1, $a6
	ext.w.h	$a1, $a1
	div.d	$a1, $a1, $a4
	ext.w.h	$a1, $a1
	div.d	$a1, $a1, $s5
	ext.w.h	$a1, $a1
	div.d	$a1, $a1, $t0
	ext.w.h	$a1, $a1
	div.d	$a1, $a1, $t1
	ext.w.h	$a1, $a1
	div.d	$a1, $a1, $t2
	ext.w.h	$a1, $a1
	div.d	$a1, $a1, $t3
	ext.w.h	$a1, $a1
	div.d	$a1, $a1, $t4
	fdiv.d	$fa1, $fa1, $ft1
	fdiv.d	$fa1, $fa1, $fa2
	fdiv.d	$fa1, $fa1, $fa3
	fld.d	$fa2, $sp, 288                  # 8-byte Folded Reload
	fdiv.d	$fa1, $fa1, $fa2
	fdiv.d	$fa1, $fa1, $fa4
	fld.d	$fa2, $sp, 280                  # 8-byte Folded Reload
	fdiv.d	$fa1, $fa1, $fa2
	fld.d	$fa2, $sp, 272                  # 8-byte Folded Reload
	fdiv.d	$fa1, $fa1, $fa2
	fdiv.d	$fa1, $fa1, $fs5
	fdiv.d	$fa1, $fa1, $fa5
	fdiv.d	$fa1, $fa1, $fs4
	fdiv.d	$fa1, $fa1, $ft10
	fdiv.d	$fa1, $fa1, $ft9
	fdiv.d	$fa1, $fa1, $ft8
	fdiv.d	$fa1, $fa1, $ft11
	fdiv.d	$fa1, $fa1, $ft12
	fdiv.d	$fa1, $fa1, $ft13
	fdiv.d	$fa1, $fa1, $ft14
	fdiv.d	$fa1, $fa1, $fs3
	fld.d	$fa2, $sp, 96                   # 8-byte Folded Reload
	fdiv.d	$fa1, $fa1, $fa2
	fld.d	$fa2, $sp, 104                  # 8-byte Folded Reload
	fdiv.d	$fa1, $fa1, $fa2
	fld.d	$fa2, $sp, 112                  # 8-byte Folded Reload
	fdiv.d	$fa1, $fa1, $fa2
	fld.d	$fa2, $sp, 128                  # 8-byte Folded Reload
	fdiv.d	$fa1, $fa1, $fa2
	fdiv.d	$fa1, $fa1, $ft7
	fld.d	$fa2, $sp, 136                  # 8-byte Folded Reload
	fdiv.d	$fa1, $fa1, $fa2
	fld.d	$fa2, $sp, 152                  # 8-byte Folded Reload
	fdiv.d	$fa1, $fa1, $fa2
	fld.d	$fa2, $sp, 160                  # 8-byte Folded Reload
	fdiv.d	$fa1, $fa1, $fa2
	fld.d	$fa2, $sp, 168                  # 8-byte Folded Reload
	fdiv.d	$fa1, $fa1, $fa2
	fld.d	$fa2, $sp, 184                  # 8-byte Folded Reload
	fdiv.d	$fa1, $fa1, $fa2
	fld.d	$fa2, $sp, 192                  # 8-byte Folded Reload
	fdiv.d	$fa1, $fa1, $fa2
	fdiv.d	$fa2, $ft0, $fa0
	fdiv.d	$fa0, $fa1, $fa0
	fmul.d	$fs0, $fa0, $fa2
	ext.w.h	$a1, $a1
	div.d	$a1, $a1, $s7
	ext.w.h	$a1, $a1
	div.d	$a1, $a1, $s6
	ext.w.h	$a1, $a1
	div.d	$a1, $a1, $t7
	ext.w.h	$a1, $a1
	div.d	$a1, $a1, $s2
	ext.w.h	$a1, $a1
	div.d	$a1, $a1, $s0
	ext.w.h	$a1, $a1
	div.d	$a1, $a1, $s8
	ld.d	$s8, $sp, 264                   # 8-byte Folded Reload
	ext.w.h	$a1, $a1
	div.d	$a1, $a1, $ra
	ext.w.h	$a1, $a1
	div.d	$a1, $a1, $s4
	ext.w.h	$a1, $a1
	div.d	$a1, $a1, $s3
	ext.w.h	$a1, $a1
	div.d	$a1, $a1, $s1
	ext.w.h	$a1, $a1
	div.d	$a1, $a1, $t8
	ext.w.h	$a1, $a1
	ld.d	$a2, $sp, 24                    # 8-byte Folded Reload
	div.d	$a1, $a1, $a2
	ext.w.h	$a1, $a1
	ld.d	$a2, $sp, 32                    # 8-byte Folded Reload
	div.d	$a1, $a1, $a2
	ext.w.h	$a1, $a1
	ld.d	$a2, $sp, 40                    # 8-byte Folded Reload
	div.d	$a1, $a1, $a2
	ext.w.h	$a1, $a1
	ld.d	$a2, $sp, 48                    # 8-byte Folded Reload
	div.d	$a1, $a1, $a2
	ext.w.h	$a1, $a1
	ld.d	$a2, $sp, 56                    # 8-byte Folded Reload
	div.d	$a1, $a1, $a2
	ext.w.h	$a1, $a1
	ld.d	$a2, $sp, 64                    # 8-byte Folded Reload
	div.d	$a1, $a1, $a2
	ext.w.h	$a1, $a1
	div.d	$a1, $a1, $t5
	ext.w.h	$a1, $a1
	ld.d	$a2, $sp, 72                    # 8-byte Folded Reload
	div.d	$a1, $a1, $a2
	ext.w.h	$a1, $a1
	ld.d	$a2, $sp, 80                    # 8-byte Folded Reload
	div.d	$a1, $a1, $a2
	ext.w.h	$a1, $a1
	ld.d	$a2, $sp, 88                    # 8-byte Folded Reload
	div.d	$a1, $a1, $a2
	ext.w.h	$a1, $a1
	ld.d	$a2, $sp, 120                   # 8-byte Folded Reload
	div.d	$a1, $a1, $a2
	ext.w.h	$a1, $a1
	ld.d	$a2, $sp, 144                   # 8-byte Folded Reload
	div.d	$a1, $a1, $a2
	ext.w.h	$a1, $a1
	ld.d	$a2, $sp, 176                   # 8-byte Folded Reload
	div.d	$a1, $a1, $a2
	ext.w.h	$a2, $a3
	div.d	$a2, $a2, $a0
	ext.w.h	$a1, $a1
	ld.d	$a3, $sp, 200                   # 8-byte Folded Reload
	div.d	$a1, $a1, $a3
	ext.w.h	$a1, $a1
	ld.d	$s0, $sp, 16                    # 8-byte Folded Reload
	ld.b	$a4, $s0, 0
	div.d	$a0, $a1, $a0
	mul.d	$a0, $a0, $a2
	ext.w.b	$a5, $a0
	pcalau12i	$a0, %pc_hi20(.L.str.5)
	addi.d	$a1, $a0, %pc_lo12(.L.str.5)
	ori	$a2, $zero, 1
	move	$a0, $s8
	move	$a3, $zero
	pcaddu18i	$ra, %call36(_ZL35check_and_print_value_and_alignmentIcEbPKcS1_jPKvT_S4_)
	jirl	$ra, $ra, 0
	fld.d	$fa0, $s0, 8
	move	$s1, $a0
	ftintrz.l.d	$fa0, $fa0
	movfr2gr.d	$a4, $fa0
	ftintrz.l.d	$fa0, $fs0
	movfr2gr.d	$a5, $fa0
	pcalau12i	$a0, %pc_hi20(.L.str.6)
	addi.d	$a1, $a0, %pc_lo12(.L.str.6)
	ori	$a2, $zero, 1
	move	$a0, $s8
	move	$a3, $zero
	pcaddu18i	$ra, %call36(_ZL35check_and_print_value_and_alignmentIcEbPKcS1_jPKvT_S4_)
	jirl	$ra, $ra, 0
	ld.d	$a4, $sp, 256                   # 8-byte Folded Reload
	or	$a0, $s1, $a0
	or	$fp, $fp, $a0
	ld.d	$a0, $sp, 248                   # 8-byte Folded Reload
.LBB0_4:                                # %if.end73
	addi.d	$a0, $a0, -1
	ori	$a5, $a0, 42
	pcalau12i	$a0, %pc_hi20(.L.str.7)
	addi.d	$a1, $a0, %pc_lo12(.L.str.7)
	ori	$a2, $zero, 1
	move	$a0, $s8
	move	$a3, $zero
	pcaddu18i	$ra, %call36(_ZL35check_and_print_value_and_alignmentIiEbPKcS1_jPKvT_S4_)
	jirl	$ra, $ra, 0
	or	$a0, $fp, $a0
	fld.d	$fs7, $sp, 296                  # 8-byte Folded Reload
	fld.d	$fs6, $sp, 304                  # 8-byte Folded Reload
	fld.d	$fs5, $sp, 312                  # 8-byte Folded Reload
	fld.d	$fs4, $sp, 320                  # 8-byte Folded Reload
	fld.d	$fs3, $sp, 328                  # 8-byte Folded Reload
	fld.d	$fs2, $sp, 336                  # 8-byte Folded Reload
	fld.d	$fs1, $sp, 344                  # 8-byte Folded Reload
	fld.d	$fs0, $sp, 352                  # 8-byte Folded Reload
	ld.d	$s8, $sp, 360                   # 8-byte Folded Reload
	ld.d	$s7, $sp, 368                   # 8-byte Folded Reload
	ld.d	$s6, $sp, 376                   # 8-byte Folded Reload
	ld.d	$s5, $sp, 384                   # 8-byte Folded Reload
	ld.d	$s4, $sp, 392                   # 8-byte Folded Reload
	ld.d	$s3, $sp, 400                   # 8-byte Folded Reload
	ld.d	$s2, $sp, 408                   # 8-byte Folded Reload
	ld.d	$s1, $sp, 416                   # 8-byte Folded Reload
	ld.d	$s0, $sp, 424                   # 8-byte Folded Reload
	ld.d	$fp, $sp, 432                   # 8-byte Folded Reload
	ld.d	$ra, $sp, 440                   # 8-byte Folded Reload
	addi.d	$sp, $sp, 448
	ret
.Lfunc_end0:
	.size	_Z11check_tracePKcS0_PK13trace_elementdjbjjbbi, .Lfunc_end0-_Z11check_tracePKcS0_PK13trace_elementdjbjjbbi
	.cfi_endproc
                                        # -- End function
	.p2align	5                               # -- Begin function _ZL35check_and_print_value_and_alignmentIdEbPKcS1_jPKvT_S4_
	.type	_ZL35check_and_print_value_and_alignmentIdEbPKcS1_jPKvT_S4_,@function
_ZL35check_and_print_value_and_alignmentIdEbPKcS1_jPKvT_S4_: # @_ZL35check_and_print_value_and_alignmentIdEbPKcS1_jPKvT_S4_
	.cfi_startproc
# %bb.0:                                # %entry
	addi.d	$sp, $sp, -96
	.cfi_def_cfa_offset 96
	st.d	$ra, $sp, 88                    # 8-byte Folded Spill
	st.d	$fp, $sp, 80                    # 8-byte Folded Spill
	st.d	$s0, $sp, 72                    # 8-byte Folded Spill
	st.d	$s1, $sp, 64                    # 8-byte Folded Spill
	st.d	$s2, $sp, 56                    # 8-byte Folded Spill
	st.d	$s3, $sp, 48                    # 8-byte Folded Spill
	fst.d	$fs0, $sp, 40                   # 8-byte Folded Spill
	fst.d	$fs1, $sp, 32                   # 8-byte Folded Spill
	.cfi_offset 1, -8
	.cfi_offset 22, -16
	.cfi_offset 23, -24
	.cfi_offset 24, -32
	.cfi_offset 25, -40
	.cfi_offset 26, -48
	.cfi_offset 56, -56
	.cfi_offset 57, -64
	fmov.d	$fs0, $fa1
	fmov.d	$fs1, $fa0
	move	$s0, $a3
	move	$s1, $a1
	bstrpick.d	$fp, $a2, 31, 0
	addi.d	$s3, $fp, -1
	beqz	$a0, .LBB1_2
# %bb.1:                                # %if.else.i
	move	$s2, $a0
	pcaddu18i	$ra, %call36(strlen)
	jirl	$ra, $ra, 0
	move	$a2, $a0
	pcalau12i	$a0, %got_pc_hi20(_ZSt4cout)
	ld.d	$a0, $a0, %got_pc_lo12(_ZSt4cout)
	move	$a1, $s2
	pcaddu18i	$ra, %call36(_ZSt16__ostream_insertIcSt11char_traitsIcEERSt13basic_ostreamIT_T0_ES6_PKS3_l)
	jirl	$ra, $ra, 0
	b	.LBB1_3
.LBB1_2:                                # %if.then.i
	pcalau12i	$a0, %got_pc_hi20(_ZSt4cout)
	ld.d	$a0, $a0, %got_pc_lo12(_ZSt4cout)
	ld.d	$a1, $a0, 0
	ld.d	$a1, $a1, -24
	add.d	$a0, $a0, $a1
	ld.w	$a1, $a0, 32
	ori	$a1, $a1, 1
	pcaddu18i	$ra, %call36(_ZNSt9basic_iosIcSt11char_traitsIcEE5clearESt12_Ios_Iostate)
	jirl	$ra, $ra, 0
.LBB1_3:                                # %_ZStlsISt11char_traitsIcEERSt13basic_ostreamIcT_ES5_PKc.exit
	and	$s3, $s3, $s0
	pcalau12i	$a0, %got_pc_hi20(_ZSt4cout)
	ld.d	$s2, $a0, %got_pc_lo12(_ZSt4cout)
	pcalau12i	$a0, %pc_hi20(.L.str.27)
	addi.d	$a1, $a0, %pc_lo12(.L.str.27)
	ori	$a2, $zero, 2
	move	$a0, $s2
	pcaddu18i	$ra, %call36(_ZSt16__ostream_insertIcSt11char_traitsIcEERSt13basic_ostreamIT_T0_ES6_PKS3_l)
	jirl	$ra, $ra, 0
	beqz	$s1, .LBB1_5
# %bb.4:                                # %if.else.i13
	move	$a0, $s1
	pcaddu18i	$ra, %call36(strlen)
	jirl	$ra, $ra, 0
	move	$a2, $a0
	pcalau12i	$a0, %got_pc_hi20(_ZSt4cout)
	ld.d	$a0, $a0, %got_pc_lo12(_ZSt4cout)
	move	$a1, $s1
	pcaddu18i	$ra, %call36(_ZSt16__ostream_insertIcSt11char_traitsIcEERSt13basic_ostreamIT_T0_ES6_PKS3_l)
	jirl	$ra, $ra, 0
	b	.LBB1_6
.LBB1_5:                                # %if.then.i16
	ld.d	$a0, $s2, 0
	ld.d	$a0, $a0, -24
	add.d	$a0, $s2, $a0
	ld.w	$a1, $a0, 32
	ori	$a1, $a1, 1
	pcaddu18i	$ra, %call36(_ZNSt9basic_iosIcSt11char_traitsIcEE5clearESt12_Ios_Iostate)
	jirl	$ra, $ra, 0
.LBB1_6:                                # %_ZStlsISt11char_traitsIcEERSt13basic_ostreamIcT_ES5_PKc.exit23
	fcmp.cune.d	$fcc0, $fs1, $fs0
	movcf2gr	$a0, $fcc0
	st.d	$a0, $sp, 24
	sltu	$s2, $zero, $s3
	pcalau12i	$a0, %got_pc_hi20(_ZSt4cout)
	ld.d	$s1, $a0, %got_pc_lo12(_ZSt4cout)
	pcalau12i	$a0, %pc_hi20(.L.str.28)
	addi.d	$a1, $a0, %pc_lo12(.L.str.28)
	ori	$a2, $zero, 13
	move	$a0, $s1
	pcaddu18i	$ra, %call36(_ZSt16__ostream_insertIcSt11char_traitsIcEERSt13basic_ostreamIT_T0_ES6_PKS3_l)
	jirl	$ra, $ra, 0
	move	$a0, $s1
	move	$a1, $fp
	pcaddu18i	$ra, %call36(_ZNSo9_M_insertImEERSoT_)
	jirl	$ra, $ra, 0
	ld.d	$a0, $sp, 24
	movgr2cf	$fcc0, $a0
	movcf2gr	$a0, $fcc0
	or	$fp, $s2, $a0
	beqz	$fp, .LBB1_11
# %bb.7:                                # %if.else
	beqz	$s3, .LBB1_9
# %bb.8:                                # %if.then10
	pcalau12i	$a0, %got_pc_hi20(_ZSt4cout)
	ld.d	$s2, $a0, %got_pc_lo12(_ZSt4cout)
	pcalau12i	$a0, %pc_hi20(.L.str.30)
	addi.d	$a1, $a0, %pc_lo12(.L.str.30)
	ori	$a2, $zero, 28
	move	$a0, $s2
	pcaddu18i	$ra, %call36(_ZSt16__ostream_insertIcSt11char_traitsIcEERSt13basic_ostreamIT_T0_ES6_PKS3_l)
	jirl	$ra, $ra, 0
	move	$a0, $s2
	move	$a1, $s0
	pcaddu18i	$ra, %call36(_ZNSo9_M_insertIPKvEERSoT_)
	jirl	$ra, $ra, 0
.LBB1_9:                                # %if.end
	fcmp.ceq.d	$fcc0, $fs1, $fs0
	bcnez	$fcc0, .LBB1_12
# %bb.10:                               # %if.then14
	pcalau12i	$a0, %got_pc_hi20(_ZSt4cout)
	ld.d	$s0, $a0, %got_pc_lo12(_ZSt4cout)
	pcalau12i	$a0, %pc_hi20(.L.str.31)
	addi.d	$a1, $a0, %pc_lo12(.L.str.31)
	ori	$a2, $zero, 26
	move	$a0, $s0
	pcaddu18i	$ra, %call36(_ZSt16__ostream_insertIcSt11char_traitsIcEERSt13basic_ostreamIT_T0_ES6_PKS3_l)
	jirl	$ra, $ra, 0
	move	$a0, $s0
	fmov.d	$fa0, $fs1
	pcaddu18i	$ra, %call36(_ZNSo9_M_insertIdEERSoT_)
	jirl	$ra, $ra, 0
	move	$s0, $a0
	pcalau12i	$a0, %pc_hi20(.L.str.32)
	addi.d	$a1, $a0, %pc_lo12(.L.str.32)
	ori	$a2, $zero, 12
	move	$a0, $s0
	pcaddu18i	$ra, %call36(_ZSt16__ostream_insertIcSt11char_traitsIcEERSt13basic_ostreamIT_T0_ES6_PKS3_l)
	jirl	$ra, $ra, 0
	move	$a0, $s0
	fmov.d	$fa0, $fs0
	pcaddu18i	$ra, %call36(_ZNSo9_M_insertIdEERSoT_)
	jirl	$ra, $ra, 0
	b	.LBB1_12
.LBB1_11:                               # %if.then
	pcalau12i	$a0, %got_pc_hi20(_ZSt4cout)
	ld.d	$a0, $a0, %got_pc_lo12(_ZSt4cout)
	pcalau12i	$a1, %pc_hi20(.L.str.29)
	addi.d	$a1, $a1, %pc_lo12(.L.str.29)
	ori	$a2, $zero, 3
	pcaddu18i	$ra, %call36(_ZSt16__ostream_insertIcSt11char_traitsIcEERSt13basic_ostreamIT_T0_ES6_PKS3_l)
	jirl	$ra, $ra, 0
.LBB1_12:                               # %if.end20
	ld.d	$a0, $s1, 0
	ld.d	$a0, $a0, -24
	add.d	$a0, $s1, $a0
	ld.d	$s0, $a0, 240
	beqz	$s0, .LBB1_17
# %bb.13:                               # %_ZSt13__check_facetISt5ctypeIcEERKT_PS3_.exit.i.i
	ld.bu	$a0, $s0, 56
	beqz	$a0, .LBB1_15
# %bb.14:                               # %if.then.i2.i.i
	ld.bu	$a0, $s0, 67
	b	.LBB1_16
.LBB1_15:                               # %if.end.i.i.i
	move	$a0, $s0
	pcaddu18i	$ra, %call36(_ZNKSt5ctypeIcE13_M_widen_initEv)
	jirl	$ra, $ra, 0
	ld.d	$a0, $s0, 0
	ld.d	$a2, $a0, 48
	ori	$a1, $zero, 10
	move	$a0, $s0
	jirl	$ra, $a2, 0
.LBB1_16:                               # %_ZSt4endlIcSt11char_traitsIcEERSt13basic_ostreamIT_T0_ES6_.exit
	ext.w.b	$a1, $a0
	pcalau12i	$a0, %got_pc_hi20(_ZSt4cout)
	ld.d	$a0, $a0, %got_pc_lo12(_ZSt4cout)
	pcaddu18i	$ra, %call36(_ZNSo3putEc)
	jirl	$ra, $ra, 0
	pcaddu18i	$ra, %call36(_ZNSo5flushEv)
	jirl	$ra, $ra, 0
	move	$a0, $fp
	fld.d	$fs1, $sp, 32                   # 8-byte Folded Reload
	fld.d	$fs0, $sp, 40                   # 8-byte Folded Reload
	ld.d	$s3, $sp, 48                    # 8-byte Folded Reload
	ld.d	$s2, $sp, 56                    # 8-byte Folded Reload
	ld.d	$s1, $sp, 64                    # 8-byte Folded Reload
	ld.d	$s0, $sp, 72                    # 8-byte Folded Reload
	ld.d	$fp, $sp, 80                    # 8-byte Folded Reload
	ld.d	$ra, $sp, 88                    # 8-byte Folded Reload
	addi.d	$sp, $sp, 96
	ret
.LBB1_17:                               # %if.then.i.i.i
	pcaddu18i	$ra, %call36(_ZSt16__throw_bad_castv)
	jirl	$ra, $ra, 0
.Lfunc_end1:
	.size	_ZL35check_and_print_value_and_alignmentIdEbPKcS1_jPKvT_S4_, .Lfunc_end1-_ZL35check_and_print_value_and_alignmentIdEbPKcS1_jPKvT_S4_
	.cfi_endproc
                                        # -- End function
	.p2align	5                               # -- Begin function _ZL35check_and_print_value_and_alignmentIiEbPKcS1_jPKvT_S4_
	.type	_ZL35check_and_print_value_and_alignmentIiEbPKcS1_jPKvT_S4_,@function
_ZL35check_and_print_value_and_alignmentIiEbPKcS1_jPKvT_S4_: # @_ZL35check_and_print_value_and_alignmentIiEbPKcS1_jPKvT_S4_
	.cfi_startproc
# %bb.0:                                # %entry
	addi.d	$sp, $sp, -80
	.cfi_def_cfa_offset 80
	st.d	$ra, $sp, 72                    # 8-byte Folded Spill
	st.d	$fp, $sp, 64                    # 8-byte Folded Spill
	st.d	$s0, $sp, 56                    # 8-byte Folded Spill
	st.d	$s1, $sp, 48                    # 8-byte Folded Spill
	st.d	$s2, $sp, 40                    # 8-byte Folded Spill
	st.d	$s3, $sp, 32                    # 8-byte Folded Spill
	st.d	$s4, $sp, 24                    # 8-byte Folded Spill
	st.d	$s5, $sp, 16                    # 8-byte Folded Spill
	st.d	$s6, $sp, 8                     # 8-byte Folded Spill
	.cfi_offset 1, -8
	.cfi_offset 22, -16
	.cfi_offset 23, -24
	.cfi_offset 24, -32
	.cfi_offset 25, -40
	.cfi_offset 26, -48
	.cfi_offset 27, -56
	.cfi_offset 28, -64
	.cfi_offset 29, -72
	move	$fp, $a5
	move	$s0, $a4
	move	$s2, $a3
	move	$s3, $a1
	bstrpick.d	$s1, $a2, 31, 0
	addi.d	$s5, $s1, -1
	beqz	$a0, .LBB2_2
# %bb.1:                                # %if.else.i
	move	$s4, $a0
	pcaddu18i	$ra, %call36(strlen)
	jirl	$ra, $ra, 0
	move	$a2, $a0
	pcalau12i	$a0, %got_pc_hi20(_ZSt4cout)
	ld.d	$a0, $a0, %got_pc_lo12(_ZSt4cout)
	move	$a1, $s4
	pcaddu18i	$ra, %call36(_ZSt16__ostream_insertIcSt11char_traitsIcEERSt13basic_ostreamIT_T0_ES6_PKS3_l)
	jirl	$ra, $ra, 0
	b	.LBB2_3
.LBB2_2:                                # %if.then.i
	pcalau12i	$a0, %got_pc_hi20(_ZSt4cout)
	ld.d	$a0, $a0, %got_pc_lo12(_ZSt4cout)
	ld.d	$a1, $a0, 0
	ld.d	$a1, $a1, -24
	add.d	$a0, $a0, $a1
	ld.w	$a1, $a0, 32
	ori	$a1, $a1, 1
	pcaddu18i	$ra, %call36(_ZNSt9basic_iosIcSt11char_traitsIcEE5clearESt12_Ios_Iostate)
	jirl	$ra, $ra, 0
.LBB2_3:                                # %_ZStlsISt11char_traitsIcEERSt13basic_ostreamIcT_ES5_PKc.exit
	and	$s5, $s5, $s2
	pcalau12i	$a0, %got_pc_hi20(_ZSt4cout)
	ld.d	$s4, $a0, %got_pc_lo12(_ZSt4cout)
	pcalau12i	$a0, %pc_hi20(.L.str.27)
	addi.d	$a1, $a0, %pc_lo12(.L.str.27)
	ori	$a2, $zero, 2
	move	$a0, $s4
	pcaddu18i	$ra, %call36(_ZSt16__ostream_insertIcSt11char_traitsIcEERSt13basic_ostreamIT_T0_ES6_PKS3_l)
	jirl	$ra, $ra, 0
	beqz	$s3, .LBB2_5
# %bb.4:                                # %if.else.i13
	move	$a0, $s3
	pcaddu18i	$ra, %call36(strlen)
	jirl	$ra, $ra, 0
	move	$a2, $a0
	pcalau12i	$a0, %got_pc_hi20(_ZSt4cout)
	ld.d	$a0, $a0, %got_pc_lo12(_ZSt4cout)
	move	$a1, $s3
	pcaddu18i	$ra, %call36(_ZSt16__ostream_insertIcSt11char_traitsIcEERSt13basic_ostreamIT_T0_ES6_PKS3_l)
	jirl	$ra, $ra, 0
	b	.LBB2_6
.LBB2_5:                                # %if.then.i16
	ld.d	$a0, $s4, 0
	ld.d	$a0, $a0, -24
	add.d	$a0, $s4, $a0
	ld.w	$a1, $a0, 32
	ori	$a1, $a1, 1
	pcaddu18i	$ra, %call36(_ZNSt9basic_iosIcSt11char_traitsIcEE5clearESt12_Ios_Iostate)
	jirl	$ra, $ra, 0
.LBB2_6:                                # %_ZStlsISt11char_traitsIcEERSt13basic_ostreamIcT_ES5_PKc.exit23
	xor	$a0, $s0, $fp
	sltu	$s4, $zero, $a0
	sltu	$s6, $zero, $s5
	pcalau12i	$a0, %got_pc_hi20(_ZSt4cout)
	ld.d	$s3, $a0, %got_pc_lo12(_ZSt4cout)
	pcalau12i	$a0, %pc_hi20(.L.str.28)
	addi.d	$a1, $a0, %pc_lo12(.L.str.28)
	ori	$a2, $zero, 13
	move	$a0, $s3
	pcaddu18i	$ra, %call36(_ZSt16__ostream_insertIcSt11char_traitsIcEERSt13basic_ostreamIT_T0_ES6_PKS3_l)
	jirl	$ra, $ra, 0
	move	$a0, $s3
	move	$a1, $s1
	pcaddu18i	$ra, %call36(_ZNSo9_M_insertImEERSoT_)
	jirl	$ra, $ra, 0
	or	$s1, $s6, $s4
	beqz	$s1, .LBB2_11
# %bb.7:                                # %if.else
	beqz	$s5, .LBB2_9
# %bb.8:                                # %if.then10
	pcalau12i	$a0, %got_pc_hi20(_ZSt4cout)
	ld.d	$s4, $a0, %got_pc_lo12(_ZSt4cout)
	pcalau12i	$a0, %pc_hi20(.L.str.30)
	addi.d	$a1, $a0, %pc_lo12(.L.str.30)
	ori	$a2, $zero, 28
	move	$a0, $s4
	pcaddu18i	$ra, %call36(_ZSt16__ostream_insertIcSt11char_traitsIcEERSt13basic_ostreamIT_T0_ES6_PKS3_l)
	jirl	$ra, $ra, 0
	move	$a0, $s4
	move	$a1, $s2
	pcaddu18i	$ra, %call36(_ZNSo9_M_insertIPKvEERSoT_)
	jirl	$ra, $ra, 0
.LBB2_9:                                # %if.end
	beq	$s0, $fp, .LBB2_12
# %bb.10:                               # %if.then14
	pcalau12i	$a0, %got_pc_hi20(_ZSt4cout)
	ld.d	$s2, $a0, %got_pc_lo12(_ZSt4cout)
	pcalau12i	$a0, %pc_hi20(.L.str.31)
	addi.d	$a1, $a0, %pc_lo12(.L.str.31)
	ori	$a2, $zero, 26
	move	$a0, $s2
	pcaddu18i	$ra, %call36(_ZSt16__ostream_insertIcSt11char_traitsIcEERSt13basic_ostreamIT_T0_ES6_PKS3_l)
	jirl	$ra, $ra, 0
	move	$a0, $s2
	move	$a1, $s0
	pcaddu18i	$ra, %call36(_ZNSolsEi)
	jirl	$ra, $ra, 0
	move	$s0, $a0
	pcalau12i	$a0, %pc_hi20(.L.str.32)
	addi.d	$a1, $a0, %pc_lo12(.L.str.32)
	ori	$a2, $zero, 12
	move	$a0, $s0
	pcaddu18i	$ra, %call36(_ZSt16__ostream_insertIcSt11char_traitsIcEERSt13basic_ostreamIT_T0_ES6_PKS3_l)
	jirl	$ra, $ra, 0
	move	$a0, $s0
	move	$a1, $fp
	pcaddu18i	$ra, %call36(_ZNSolsEi)
	jirl	$ra, $ra, 0
	b	.LBB2_12
.LBB2_11:                               # %if.then
	pcalau12i	$a0, %got_pc_hi20(_ZSt4cout)
	ld.d	$a0, $a0, %got_pc_lo12(_ZSt4cout)
	pcalau12i	$a1, %pc_hi20(.L.str.29)
	addi.d	$a1, $a1, %pc_lo12(.L.str.29)
	ori	$a2, $zero, 3
	pcaddu18i	$ra, %call36(_ZSt16__ostream_insertIcSt11char_traitsIcEERSt13basic_ostreamIT_T0_ES6_PKS3_l)
	jirl	$ra, $ra, 0
.LBB2_12:                               # %if.end20
	ld.d	$a0, $s3, 0
	ld.d	$a0, $a0, -24
	add.d	$a0, $s3, $a0
	ld.d	$fp, $a0, 240
	beqz	$fp, .LBB2_17
# %bb.13:                               # %_ZSt13__check_facetISt5ctypeIcEERKT_PS3_.exit.i.i
	ld.bu	$a0, $fp, 56
	beqz	$a0, .LBB2_15
# %bb.14:                               # %if.then.i2.i.i
	ld.bu	$a0, $fp, 67
	b	.LBB2_16
.LBB2_15:                               # %if.end.i.i.i
	move	$a0, $fp
	pcaddu18i	$ra, %call36(_ZNKSt5ctypeIcE13_M_widen_initEv)
	jirl	$ra, $ra, 0
	ld.d	$a0, $fp, 0
	ld.d	$a2, $a0, 48
	ori	$a1, $zero, 10
	move	$a0, $fp
	jirl	$ra, $a2, 0
.LBB2_16:                               # %_ZSt4endlIcSt11char_traitsIcEERSt13basic_ostreamIT_T0_ES6_.exit
	ext.w.b	$a1, $a0
	pcalau12i	$a0, %got_pc_hi20(_ZSt4cout)
	ld.d	$a0, $a0, %got_pc_lo12(_ZSt4cout)
	pcaddu18i	$ra, %call36(_ZNSo3putEc)
	jirl	$ra, $ra, 0
	pcaddu18i	$ra, %call36(_ZNSo5flushEv)
	jirl	$ra, $ra, 0
	move	$a0, $s1
	ld.d	$s6, $sp, 8                     # 8-byte Folded Reload
	ld.d	$s5, $sp, 16                    # 8-byte Folded Reload
	ld.d	$s4, $sp, 24                    # 8-byte Folded Reload
	ld.d	$s3, $sp, 32                    # 8-byte Folded Reload
	ld.d	$s2, $sp, 40                    # 8-byte Folded Reload
	ld.d	$s1, $sp, 48                    # 8-byte Folded Reload
	ld.d	$s0, $sp, 56                    # 8-byte Folded Reload
	ld.d	$fp, $sp, 64                    # 8-byte Folded Reload
	ld.d	$ra, $sp, 72                    # 8-byte Folded Reload
	addi.d	$sp, $sp, 80
	ret
.LBB2_17:                               # %if.then.i.i.i
	pcaddu18i	$ra, %call36(_ZSt16__throw_bad_castv)
	jirl	$ra, $ra, 0
.Lfunc_end2:
	.size	_ZL35check_and_print_value_and_alignmentIiEbPKcS1_jPKvT_S4_, .Lfunc_end2-_ZL35check_and_print_value_and_alignmentIiEbPKcS1_jPKvT_S4_
	.cfi_endproc
                                        # -- End function
	.p2align	5                               # -- Begin function _ZL35check_and_print_value_and_alignmentIcEbPKcS1_jPKvT_S4_
	.type	_ZL35check_and_print_value_and_alignmentIcEbPKcS1_jPKvT_S4_,@function
_ZL35check_and_print_value_and_alignmentIcEbPKcS1_jPKvT_S4_: # @_ZL35check_and_print_value_and_alignmentIcEbPKcS1_jPKvT_S4_
	.cfi_startproc
# %bb.0:                                # %entry
	addi.d	$sp, $sp, -96
	.cfi_def_cfa_offset 96
	st.d	$ra, $sp, 88                    # 8-byte Folded Spill
	st.d	$fp, $sp, 80                    # 8-byte Folded Spill
	st.d	$s0, $sp, 72                    # 8-byte Folded Spill
	st.d	$s1, $sp, 64                    # 8-byte Folded Spill
	st.d	$s2, $sp, 56                    # 8-byte Folded Spill
	st.d	$s3, $sp, 48                    # 8-byte Folded Spill
	st.d	$s4, $sp, 40                    # 8-byte Folded Spill
	st.d	$s5, $sp, 32                    # 8-byte Folded Spill
	st.d	$s6, $sp, 24                    # 8-byte Folded Spill
	.cfi_offset 1, -8
	.cfi_offset 22, -16
	.cfi_offset 23, -24
	.cfi_offset 24, -32
	.cfi_offset 25, -40
	.cfi_offset 26, -48
	.cfi_offset 27, -56
	.cfi_offset 28, -64
	.cfi_offset 29, -72
	move	$fp, $a5
	move	$s1, $a4
	move	$s3, $a3
	move	$s2, $a1
	bstrpick.d	$s0, $a2, 31, 0
	addi.d	$s5, $s0, -1
	beqz	$a0, .LBB3_2
# %bb.1:                                # %if.else.i
	move	$s4, $a0
	pcaddu18i	$ra, %call36(strlen)
	jirl	$ra, $ra, 0
	move	$a2, $a0
	pcalau12i	$a0, %got_pc_hi20(_ZSt4cout)
	ld.d	$a0, $a0, %got_pc_lo12(_ZSt4cout)
	move	$a1, $s4
	pcaddu18i	$ra, %call36(_ZSt16__ostream_insertIcSt11char_traitsIcEERSt13basic_ostreamIT_T0_ES6_PKS3_l)
	jirl	$ra, $ra, 0
	b	.LBB3_3
.LBB3_2:                                # %if.then.i
	pcalau12i	$a0, %got_pc_hi20(_ZSt4cout)
	ld.d	$a0, $a0, %got_pc_lo12(_ZSt4cout)
	ld.d	$a1, $a0, 0
	ld.d	$a1, $a1, -24
	add.d	$a0, $a0, $a1
	ld.w	$a1, $a0, 32
	ori	$a1, $a1, 1
	pcaddu18i	$ra, %call36(_ZNSt9basic_iosIcSt11char_traitsIcEE5clearESt12_Ios_Iostate)
	jirl	$ra, $ra, 0
.LBB3_3:                                # %_ZStlsISt11char_traitsIcEERSt13basic_ostreamIcT_ES5_PKc.exit
	and	$s5, $s5, $s3
	pcalau12i	$a0, %got_pc_hi20(_ZSt4cout)
	ld.d	$s4, $a0, %got_pc_lo12(_ZSt4cout)
	pcalau12i	$a0, %pc_hi20(.L.str.27)
	addi.d	$a1, $a0, %pc_lo12(.L.str.27)
	ori	$a2, $zero, 2
	move	$a0, $s4
	pcaddu18i	$ra, %call36(_ZSt16__ostream_insertIcSt11char_traitsIcEERSt13basic_ostreamIT_T0_ES6_PKS3_l)
	jirl	$ra, $ra, 0
	beqz	$s2, .LBB3_5
# %bb.4:                                # %if.else.i13
	move	$a0, $s2
	pcaddu18i	$ra, %call36(strlen)
	jirl	$ra, $ra, 0
	move	$a2, $a0
	pcalau12i	$a0, %got_pc_hi20(_ZSt4cout)
	ld.d	$a0, $a0, %got_pc_lo12(_ZSt4cout)
	move	$a1, $s2
	pcaddu18i	$ra, %call36(_ZSt16__ostream_insertIcSt11char_traitsIcEERSt13basic_ostreamIT_T0_ES6_PKS3_l)
	jirl	$ra, $ra, 0
	b	.LBB3_6
.LBB3_5:                                # %if.then.i16
	ld.d	$a0, $s4, 0
	ld.d	$a0, $a0, -24
	add.d	$a0, $s4, $a0
	ld.w	$a1, $a0, 32
	ori	$a1, $a1, 1
	pcaddu18i	$ra, %call36(_ZNSt9basic_iosIcSt11char_traitsIcEE5clearESt12_Ios_Iostate)
	jirl	$ra, $ra, 0
.LBB3_6:                                # %_ZStlsISt11char_traitsIcEERSt13basic_ostreamIcT_ES5_PKc.exit23
	xor	$a0, $s1, $fp
	sltu	$s4, $zero, $a0
	sltu	$s6, $zero, $s5
	pcalau12i	$a0, %got_pc_hi20(_ZSt4cout)
	ld.d	$s2, $a0, %got_pc_lo12(_ZSt4cout)
	pcalau12i	$a0, %pc_hi20(.L.str.28)
	addi.d	$a1, $a0, %pc_lo12(.L.str.28)
	ori	$a2, $zero, 13
	move	$a0, $s2
	pcaddu18i	$ra, %call36(_ZSt16__ostream_insertIcSt11char_traitsIcEERSt13basic_ostreamIT_T0_ES6_PKS3_l)
	jirl	$ra, $ra, 0
	move	$a0, $s2
	move	$a1, $s0
	pcaddu18i	$ra, %call36(_ZNSo9_M_insertImEERSoT_)
	jirl	$ra, $ra, 0
	or	$s0, $s6, $s4
	beqz	$s0, .LBB3_12
# %bb.7:                                # %if.else
	beqz	$s5, .LBB3_9
# %bb.8:                                # %if.then11
	pcalau12i	$a0, %got_pc_hi20(_ZSt4cout)
	ld.d	$s4, $a0, %got_pc_lo12(_ZSt4cout)
	pcalau12i	$a0, %pc_hi20(.L.str.30)
	addi.d	$a1, $a0, %pc_lo12(.L.str.30)
	ori	$a2, $zero, 28
	move	$a0, $s4
	pcaddu18i	$ra, %call36(_ZSt16__ostream_insertIcSt11char_traitsIcEERSt13basic_ostreamIT_T0_ES6_PKS3_l)
	jirl	$ra, $ra, 0
	move	$a0, $s4
	move	$a1, $s3
	pcaddu18i	$ra, %call36(_ZNSo9_M_insertIPKvEERSoT_)
	jirl	$ra, $ra, 0
.LBB3_9:                                # %if.end
	beq	$s1, $fp, .LBB3_17
# %bb.10:                               # %if.then15
	pcalau12i	$a0, %pc_hi20(.L.str.31)
	addi.d	$a1, $a0, %pc_lo12(.L.str.31)
	ori	$a2, $zero, 26
	move	$a0, $s2
	pcaddu18i	$ra, %call36(_ZSt16__ostream_insertIcSt11char_traitsIcEERSt13basic_ostreamIT_T0_ES6_PKS3_l)
	jirl	$ra, $ra, 0
	ld.d	$a0, $s2, 0
	ld.d	$a0, $a0, -24
	add.d	$a0, $s2, $a0
	ld.d	$a0, $a0, 16
	st.b	$s1, $sp, 22
	beqz	$a0, .LBB3_13
# %bb.11:                               # %if.then.i42
	pcalau12i	$a0, %got_pc_hi20(_ZSt4cout)
	ld.d	$a0, $a0, %got_pc_lo12(_ZSt4cout)
	addi.d	$a1, $sp, 22
	ori	$a2, $zero, 1
	pcaddu18i	$ra, %call36(_ZSt16__ostream_insertIcSt11char_traitsIcEERSt13basic_ostreamIT_T0_ES6_PKS3_l)
	jirl	$ra, $ra, 0
	move	$s1, $a0
	b	.LBB3_14
.LBB3_12:                               # %if.then
	pcalau12i	$a0, %got_pc_hi20(_ZSt4cout)
	ld.d	$a0, $a0, %got_pc_lo12(_ZSt4cout)
	pcalau12i	$a1, %pc_hi20(.L.str.29)
	addi.d	$a1, $a1, %pc_lo12(.L.str.29)
	ori	$a2, $zero, 3
	pcaddu18i	$ra, %call36(_ZSt16__ostream_insertIcSt11char_traitsIcEERSt13basic_ostreamIT_T0_ES6_PKS3_l)
	jirl	$ra, $ra, 0
	b	.LBB3_17
.LBB3_13:                               # %if.end.i
	move	$a0, $s2
	move	$a1, $s1
	pcaddu18i	$ra, %call36(_ZNSo3putEc)
	jirl	$ra, $ra, 0
	move	$s1, $s2
.LBB3_14:                               # %_ZStlsISt11char_traitsIcEERSt13basic_ostreamIcT_ES5_c.exit
	pcalau12i	$a0, %pc_hi20(.L.str.32)
	addi.d	$a1, $a0, %pc_lo12(.L.str.32)
	ori	$a2, $zero, 12
	move	$a0, $s1
	pcaddu18i	$ra, %call36(_ZSt16__ostream_insertIcSt11char_traitsIcEERSt13basic_ostreamIT_T0_ES6_PKS3_l)
	jirl	$ra, $ra, 0
	ld.d	$a0, $s1, 0
	ld.d	$a0, $a0, -24
	add.d	$a0, $s1, $a0
	ld.d	$a0, $a0, 16
	st.b	$fp, $sp, 23
	beqz	$a0, .LBB3_16
# %bb.15:                               # %if.then.i55
	addi.d	$a1, $sp, 23
	ori	$a2, $zero, 1
	move	$a0, $s1
	pcaddu18i	$ra, %call36(_ZSt16__ostream_insertIcSt11char_traitsIcEERSt13basic_ostreamIT_T0_ES6_PKS3_l)
	jirl	$ra, $ra, 0
	b	.LBB3_17
.LBB3_16:                               # %if.end.i58
	move	$a0, $s1
	move	$a1, $fp
	pcaddu18i	$ra, %call36(_ZNSo3putEc)
	jirl	$ra, $ra, 0
.LBB3_17:                               # %if.end21
	ld.d	$a0, $s2, 0
	ld.d	$a0, $a0, -24
	add.d	$a0, $s2, $a0
	ld.d	$fp, $a0, 240
	beqz	$fp, .LBB3_22
# %bb.18:                               # %_ZSt13__check_facetISt5ctypeIcEERKT_PS3_.exit.i.i
	ld.bu	$a0, $fp, 56
	beqz	$a0, .LBB3_20
# %bb.19:                               # %if.then.i2.i.i
	ld.bu	$a0, $fp, 67
	b	.LBB3_21
.LBB3_20:                               # %if.end.i.i.i
	move	$a0, $fp
	pcaddu18i	$ra, %call36(_ZNKSt5ctypeIcE13_M_widen_initEv)
	jirl	$ra, $ra, 0
	ld.d	$a0, $fp, 0
	ld.d	$a2, $a0, 48
	ori	$a1, $zero, 10
	move	$a0, $fp
	jirl	$ra, $a2, 0
.LBB3_21:                               # %_ZSt4endlIcSt11char_traitsIcEERSt13basic_ostreamIT_T0_ES6_.exit
	ext.w.b	$a1, $a0
	pcalau12i	$a0, %got_pc_hi20(_ZSt4cout)
	ld.d	$a0, $a0, %got_pc_lo12(_ZSt4cout)
	pcaddu18i	$ra, %call36(_ZNSo3putEc)
	jirl	$ra, $ra, 0
	pcaddu18i	$ra, %call36(_ZNSo5flushEv)
	jirl	$ra, $ra, 0
	move	$a0, $s0
	ld.d	$s6, $sp, 24                    # 8-byte Folded Reload
	ld.d	$s5, $sp, 32                    # 8-byte Folded Reload
	ld.d	$s4, $sp, 40                    # 8-byte Folded Reload
	ld.d	$s3, $sp, 48                    # 8-byte Folded Reload
	ld.d	$s2, $sp, 56                    # 8-byte Folded Reload
	ld.d	$s1, $sp, 64                    # 8-byte Folded Reload
	ld.d	$s0, $sp, 72                    # 8-byte Folded Reload
	ld.d	$fp, $sp, 80                    # 8-byte Folded Reload
	ld.d	$ra, $sp, 88                    # 8-byte Folded Reload
	addi.d	$sp, $sp, 96
	ret
.LBB3_22:                               # %if.then.i.i.i
	pcaddu18i	$ra, %call36(_ZSt16__throw_bad_castv)
	jirl	$ra, $ra, 0
.Lfunc_end3:
	.size	_ZL35check_and_print_value_and_alignmentIcEbPKcS1_jPKvT_S4_, .Lfunc_end3-_ZL35check_and_print_value_and_alignmentIcEbPKcS1_jPKvT_S4_
	.cfi_endproc
                                        # -- End function
	.section	.text._ZNSt6vectorIPKcSaIS1_EED2Ev,"axG",@progbits,_ZNSt6vectorIPKcSaIS1_EED2Ev,comdat
	.weak	_ZNSt6vectorIPKcSaIS1_EED2Ev    # -- Begin function _ZNSt6vectorIPKcSaIS1_EED2Ev
	.p2align	5
	.type	_ZNSt6vectorIPKcSaIS1_EED2Ev,@function
_ZNSt6vectorIPKcSaIS1_EED2Ev:           # @_ZNSt6vectorIPKcSaIS1_EED2Ev
	.cfi_startproc
# %bb.0:                                # %invoke.cont
	ld.d	$a0, $a0, 0
	beqz	$a0, .LBB4_2
# %bb.1:                                # %if.then.i.i
	pcaddu18i	$t8, %call36(_ZdlPv)
	jr	$t8
.LBB4_2:                                # %_ZNSt12_Vector_baseIPKcSaIS1_EED2Ev.exit
	ret
.Lfunc_end4:
	.size	_ZNSt6vectorIPKcSaIS1_EED2Ev, .Lfunc_end4-_ZNSt6vectorIPKcSaIS1_EED2Ev
	.cfi_endproc
                                        # -- End function
	.text
	.globl	_Z24getTestDescriptionStringB5cxx11bbbbb # -- Begin function _Z24getTestDescriptionStringB5cxx11bbbbb
	.p2align	5
	.type	_Z24getTestDescriptionStringB5cxx11bbbbb,@function
_Z24getTestDescriptionStringB5cxx11bbbbb: # @_Z24getTestDescriptionStringB5cxx11bbbbb
.Lfunc_begin0:
	.cfi_startproc
	.cfi_personality 155, DW.ref.__gxx_personality_v0
	.cfi_lsda 27, .Lexception0
# %bb.0:                                # %_ZNSt7__cxx1112basic_stringIcSt11char_traitsIcESaIcEE6appendEPKc.exit.i
	addi.d	$sp, $sp, -256
	.cfi_def_cfa_offset 256
	st.d	$ra, $sp, 248                   # 8-byte Folded Spill
	st.d	$fp, $sp, 240                   # 8-byte Folded Spill
	st.d	$s0, $sp, 232                   # 8-byte Folded Spill
	st.d	$s1, $sp, 224                   # 8-byte Folded Spill
	st.d	$s2, $sp, 216                   # 8-byte Folded Spill
	st.d	$s3, $sp, 208                   # 8-byte Folded Spill
	st.d	$s4, $sp, 200                   # 8-byte Folded Spill
	st.d	$s5, $sp, 192                   # 8-byte Folded Spill
	st.d	$s6, $sp, 184                   # 8-byte Folded Spill
	st.d	$s7, $sp, 176                   # 8-byte Folded Spill
	st.d	$s8, $sp, 168                   # 8-byte Folded Spill
	.cfi_offset 1, -8
	.cfi_offset 22, -16
	.cfi_offset 23, -24
	.cfi_offset 24, -32
	.cfi_offset 25, -40
	.cfi_offset 26, -48
	.cfi_offset 27, -56
	.cfi_offset 28, -64
	.cfi_offset 29, -72
	.cfi_offset 30, -80
	.cfi_offset 31, -88
	move	$s2, $a5
	move	$s4, $a4
	move	$s3, $a3
	move	$s0, $a2
	move	$s1, $a0
	addi.d	$a0, $sp, 24
	st.d	$a0, $sp, 8
	st.d	$zero, $sp, 16
	st.b	$zero, $sp, 24
	pcalau12i	$a0, %pc_hi20(.L.str.26)
	addi.d	$s7, $a0, %pc_lo12(.L.str.26)
	masknez	$a0, $s7, $a1
	pcalau12i	$a2, %pc_hi20(.L.str.25)
	addi.d	$s8, $a2, %pc_lo12(.L.str.25)
	maskeqz	$a1, $s8, $a1
	or	$a1, $a1, $a0
.Ltmp0:                                 # EH_LABEL
	addi.d	$a0, $sp, 8
	ori	$a2, $zero, 1
	pcaddu18i	$ra, %call36(_ZNSt7__cxx1112basic_stringIcSt11char_traitsIcESaIcEE9_M_appendEPKcm)
	jirl	$ra, $ra, 0
.Ltmp1:                                 # EH_LABEL
# %bb.1:                                # %call2.i.i.noexc
	addi.d	$a3, $sp, 56
	st.d	$a3, $sp, 40
	ld.d	$a1, $a0, 0
	addi.d	$s5, $a0, 16
	beq	$a1, $s5, .LBB5_3
# %bb.2:                                # %if.else.i.i
	ld.d	$a2, $a0, 16
	st.d	$a2, $sp, 56
	ld.d	$s6, $a0, 8
	st.d	$a1, $sp, 40
	b	.LBB5_4
.LBB5_3:                                # %_ZNSt11char_traitsIcE4copyEPcPKcm.exit.i.i
	ld.d	$s6, $a0, 8
	addi.d	$a2, $s6, 1
	move	$fp, $a0
	move	$a0, $a3
	move	$a1, $s5
	pcaddu18i	$ra, %call36(memcpy)
	jirl	$ra, $ra, 0
	move	$a0, $fp
.LBB5_4:                                # %invoke.cont11
	st.d	$s6, $sp, 48
	st.d	$zero, $a0, 8
	ld.d	$a1, $sp, 48
	st.d	$s5, $a0, 0
	addi.w	$a2, $zero, -2
	lu52i.d	$s6, $a2, 2047
	st.b	$zero, $a0, 16
	beq	$a1, $s6, .LBB5_35
# %bb.5:                                # %_ZNSt7__cxx1112basic_stringIcSt11char_traitsIcESaIcEE6appendEPKc.exit.i18
	masknez	$a0, $s7, $s0
	maskeqz	$a1, $s8, $s0
	or	$a1, $a1, $a0
.Ltmp3:                                 # EH_LABEL
	addi.d	$a0, $sp, 40
	ori	$a2, $zero, 1
	pcaddu18i	$ra, %call36(_ZNSt7__cxx1112basic_stringIcSt11char_traitsIcESaIcEE9_M_appendEPKcm)
	jirl	$ra, $ra, 0
.Ltmp4:                                 # EH_LABEL
# %bb.6:                                # %call2.i.i.noexc32
	addi.d	$a3, $sp, 88
	st.d	$a3, $sp, 72
	ld.d	$a1, $a0, 0
	addi.d	$s5, $a0, 16
	beq	$a1, $s5, .LBB5_8
# %bb.7:                                # %if.else.i.i20
	ld.d	$a2, $a0, 16
	st.d	$a2, $sp, 88
	ld.d	$fp, $a0, 8
	st.d	$a1, $sp, 72
	b	.LBB5_9
.LBB5_8:                                # %_ZNSt11char_traitsIcE4copyEPcPKcm.exit.i.i26
	ld.d	$fp, $a0, 8
	addi.d	$a2, $fp, 1
	move	$s0, $a0
	move	$a0, $a3
	move	$a1, $s5
	pcaddu18i	$ra, %call36(memcpy)
	jirl	$ra, $ra, 0
	move	$a0, $s0
.LBB5_9:                                # %invoke.cont19
	st.d	$fp, $sp, 80
	st.d	$zero, $a0, 8
	ld.d	$a1, $sp, 80
	st.d	$s5, $a0, 0
	st.b	$zero, $a0, 16
	beq	$a1, $s6, .LBB5_37
# %bb.10:                               # %_ZNSt7__cxx1112basic_stringIcSt11char_traitsIcESaIcEE6appendEPKc.exit.i40
	masknez	$a0, $s7, $s3
	maskeqz	$a1, $s8, $s3
	or	$a1, $a1, $a0
.Ltmp5:                                 # EH_LABEL
	addi.d	$a0, $sp, 72
	ori	$a2, $zero, 1
	pcaddu18i	$ra, %call36(_ZNSt7__cxx1112basic_stringIcSt11char_traitsIcESaIcEE9_M_appendEPKcm)
	jirl	$ra, $ra, 0
.Ltmp6:                                 # EH_LABEL
# %bb.11:                               # %call2.i.i.noexc54
	addi.d	$s3, $sp, 120
	st.d	$s3, $sp, 104
	ld.d	$a1, $a0, 0
	addi.d	$s5, $a0, 16
	beq	$a1, $s5, .LBB5_13
# %bb.12:                               # %if.else.i.i42
	ld.d	$a2, $a0, 16
	st.d	$a2, $sp, 120
	ld.d	$fp, $a0, 8
	st.d	$a1, $sp, 104
	b	.LBB5_14
.LBB5_13:                               # %_ZNSt11char_traitsIcE4copyEPcPKcm.exit.i.i48
	ld.d	$fp, $a0, 8
	addi.d	$a2, $fp, 1
	move	$s0, $a0
	move	$a0, $s3
	move	$a1, $s5
	pcaddu18i	$ra, %call36(memcpy)
	jirl	$ra, $ra, 0
	move	$a0, $s0
.LBB5_14:                               # %invoke.cont27
	st.d	$fp, $sp, 112
	st.d	$zero, $a0, 8
	ld.d	$a1, $sp, 112
	st.d	$s5, $a0, 0
	st.b	$zero, $a0, 16
	beq	$a1, $s6, .LBB5_39
# %bb.15:                               # %_ZNSt7__cxx1112basic_stringIcSt11char_traitsIcESaIcEE6appendEPKc.exit.i62
	masknez	$a0, $s7, $s4
	maskeqz	$a1, $s8, $s4
	or	$a1, $a1, $a0
.Ltmp7:                                 # EH_LABEL
	addi.d	$a0, $sp, 104
	ori	$a2, $zero, 1
	pcaddu18i	$ra, %call36(_ZNSt7__cxx1112basic_stringIcSt11char_traitsIcESaIcEE9_M_appendEPKcm)
	jirl	$ra, $ra, 0
.Ltmp8:                                 # EH_LABEL
# %bb.16:                               # %call2.i.i.noexc76
	addi.d	$s4, $sp, 152
	st.d	$s4, $sp, 136
	ld.d	$a1, $a0, 0
	addi.d	$s5, $a0, 16
	beq	$a1, $s5, .LBB5_18
# %bb.17:                               # %if.else.i.i64
	ld.d	$a2, $a0, 16
	st.d	$a2, $sp, 152
	ld.d	$fp, $a0, 8
	st.d	$a1, $sp, 136
	b	.LBB5_19
.LBB5_18:                               # %_ZNSt11char_traitsIcE4copyEPcPKcm.exit.i.i70
	ld.d	$fp, $a0, 8
	addi.d	$a2, $fp, 1
	move	$s0, $a0
	move	$a0, $s4
	move	$a1, $s5
	pcaddu18i	$ra, %call36(memcpy)
	jirl	$ra, $ra, 0
	move	$a0, $s0
.LBB5_19:                               # %invoke.cont35
	st.d	$fp, $sp, 144
	st.d	$zero, $a0, 8
	ld.d	$a1, $sp, 144
	st.d	$s5, $a0, 0
	st.b	$zero, $a0, 16
	beq	$a1, $s6, .LBB5_41
# %bb.20:                               # %_ZNSt7__cxx1112basic_stringIcSt11char_traitsIcESaIcEE6appendEPKc.exit.i84
	masknez	$a0, $s7, $s2
	maskeqz	$a1, $s8, $s2
	or	$a1, $a1, $a0
.Ltmp9:                                 # EH_LABEL
	addi.d	$a0, $sp, 136
	ori	$a2, $zero, 1
	pcaddu18i	$ra, %call36(_ZNSt7__cxx1112basic_stringIcSt11char_traitsIcESaIcEE9_M_appendEPKcm)
	jirl	$ra, $ra, 0
.Ltmp10:                                # EH_LABEL
# %bb.21:                               # %call2.i.i.noexc98
	addi.d	$a1, $s1, 16
	st.d	$a1, $s1, 0
	ld.d	$a2, $a0, 0
	addi.d	$s2, $a0, 16
	beq	$a2, $s2, .LBB5_23
# %bb.22:                               # %if.else.i.i86
	st.d	$a2, $s1, 0
	ld.d	$a1, $a0, 16
	st.d	$a1, $s1, 16
	ld.d	$s5, $a0, 8
	b	.LBB5_24
.LBB5_23:                               # %_ZNSt11char_traitsIcE4copyEPcPKcm.exit.i.i92
	ld.d	$s5, $a0, 8
	addi.d	$a2, $s5, 1
	move	$fp, $a0
	move	$a0, $a1
	move	$a1, $s2
	pcaddu18i	$ra, %call36(memcpy)
	jirl	$ra, $ra, 0
	move	$a0, $fp
.LBB5_24:                               # %invoke.cont43
	st.d	$s2, $a0, 0
	ld.d	$a1, $sp, 136
	st.d	$s5, $s1, 8
	st.d	$zero, $a0, 8
	st.b	$zero, $a0, 16
	beq	$a1, $s4, .LBB5_26
# %bb.25:                               # %if.then.i.i102
	move	$a0, $a1
	pcaddu18i	$ra, %call36(_ZdlPv)
	jirl	$ra, $ra, 0
.LBB5_26:                               # %_ZNSt7__cxx1112basic_stringIcSt11char_traitsIcESaIcEED2Ev.exit
	ld.d	$a0, $sp, 104
	addi.d	$fp, $sp, 56
	addi.d	$s0, $sp, 88
	beq	$a0, $s3, .LBB5_28
# %bb.27:                               # %if.then.i.i106
	pcaddu18i	$ra, %call36(_ZdlPv)
	jirl	$ra, $ra, 0
.LBB5_28:                               # %_ZNSt7__cxx1112basic_stringIcSt11char_traitsIcESaIcEED2Ev.exit110
	ld.d	$a0, $sp, 72
	beq	$a0, $s0, .LBB5_30
# %bb.29:                               # %if.then.i.i112
	pcaddu18i	$ra, %call36(_ZdlPv)
	jirl	$ra, $ra, 0
.LBB5_30:                               # %_ZNSt7__cxx1112basic_stringIcSt11char_traitsIcESaIcEED2Ev.exit116
	ld.d	$a0, $sp, 40
	beq	$a0, $fp, .LBB5_32
# %bb.31:                               # %if.then.i.i118
	pcaddu18i	$ra, %call36(_ZdlPv)
	jirl	$ra, $ra, 0
.LBB5_32:                               # %_ZNSt7__cxx1112basic_stringIcSt11char_traitsIcESaIcEED2Ev.exit122
	ld.d	$a0, $sp, 8
	addi.d	$a1, $sp, 24
	beq	$a0, $a1, .LBB5_34
# %bb.33:                               # %if.then.i.i124
	pcaddu18i	$ra, %call36(_ZdlPv)
	jirl	$ra, $ra, 0
.LBB5_34:                               # %_ZNSt7__cxx1112basic_stringIcSt11char_traitsIcESaIcEED2Ev.exit128
	ld.d	$s8, $sp, 168                   # 8-byte Folded Reload
	ld.d	$s7, $sp, 176                   # 8-byte Folded Reload
	ld.d	$s6, $sp, 184                   # 8-byte Folded Reload
	ld.d	$s5, $sp, 192                   # 8-byte Folded Reload
	ld.d	$s4, $sp, 200                   # 8-byte Folded Reload
	ld.d	$s3, $sp, 208                   # 8-byte Folded Reload
	ld.d	$s2, $sp, 216                   # 8-byte Folded Reload
	ld.d	$s1, $sp, 224                   # 8-byte Folded Reload
	ld.d	$s0, $sp, 232                   # 8-byte Folded Reload
	ld.d	$fp, $sp, 240                   # 8-byte Folded Reload
	ld.d	$ra, $sp, 248                   # 8-byte Folded Reload
	addi.d	$sp, $sp, 256
	ret
.LBB5_35:                               # %if.then.i.i.i30
.Ltmp20:                                # EH_LABEL
	pcalau12i	$a0, %pc_hi20(.L.str.35)
	addi.d	$a0, $a0, %pc_lo12(.L.str.35)
	pcaddu18i	$ra, %call36(_ZSt20__throw_length_errorPKc)
	jirl	$ra, $ra, 0
.Ltmp21:                                # EH_LABEL
# %bb.36:                               # %.noexc31
.LBB5_37:                               # %if.then.i.i.i52
.Ltmp17:                                # EH_LABEL
	pcalau12i	$a0, %pc_hi20(.L.str.35)
	addi.d	$a0, $a0, %pc_lo12(.L.str.35)
	pcaddu18i	$ra, %call36(_ZSt20__throw_length_errorPKc)
	jirl	$ra, $ra, 0
.Ltmp18:                                # EH_LABEL
# %bb.38:                               # %.noexc53
.LBB5_39:                               # %if.then.i.i.i74
.Ltmp14:                                # EH_LABEL
	pcalau12i	$a0, %pc_hi20(.L.str.35)
	addi.d	$a0, $a0, %pc_lo12(.L.str.35)
	pcaddu18i	$ra, %call36(_ZSt20__throw_length_errorPKc)
	jirl	$ra, $ra, 0
.Ltmp15:                                # EH_LABEL
# %bb.40:                               # %.noexc75
.LBB5_41:                               # %if.then.i.i.i96
.Ltmp11:                                # EH_LABEL
	pcalau12i	$a0, %pc_hi20(.L.str.35)
	addi.d	$a0, $a0, %pc_lo12(.L.str.35)
	pcaddu18i	$ra, %call36(_ZSt20__throw_length_errorPKc)
	jirl	$ra, $ra, 0
.Ltmp12:                                # EH_LABEL
# %bb.42:                               # %.noexc97
.LBB5_43:                               # %lpad10
.Ltmp2:                                 # EH_LABEL
	move	$s1, $a0
	ld.d	$a0, $sp, 8
	addi.d	$a1, $sp, 24
	beq	$a0, $a1, .LBB5_49
	b	.LBB5_57
.LBB5_44:                               # %lpad42
.Ltmp13:                                # EH_LABEL
	ld.d	$a1, $sp, 136
	move	$s1, $a0
	bne	$a1, $s4, .LBB5_50
# %bb.45:                               # %ehcleanup
	ld.d	$a0, $sp, 104
	bne	$a0, $s3, .LBB5_52
.LBB5_46:                               # %ehcleanup44
	ld.d	$a0, $sp, 72
	addi.d	$a1, $sp, 88
	bne	$a0, $a1, .LBB5_54
.LBB5_47:                               # %ehcleanup45
	ld.d	$a0, $sp, 40
	addi.d	$a1, $sp, 56
	bne	$a0, $a1, .LBB5_56
.LBB5_48:                               # %ehcleanup46
	ld.d	$a0, $sp, 8
	addi.d	$a1, $sp, 24
	bne	$a0, $a1, .LBB5_57
.LBB5_49:                               # %ehcleanup47
	move	$a0, $s1
	pcaddu18i	$ra, %call36(_Unwind_Resume)
	jirl	$ra, $ra, 0
.LBB5_50:                               # %if.then.i.i130
	move	$a0, $a1
	pcaddu18i	$ra, %call36(_ZdlPv)
	jirl	$ra, $ra, 0
	ld.d	$a0, $sp, 104
	beq	$a0, $s3, .LBB5_46
	b	.LBB5_52
.LBB5_51:                               # %lpad34
.Ltmp16:                                # EH_LABEL
	move	$s1, $a0
	ld.d	$a0, $sp, 104
	beq	$a0, $s3, .LBB5_46
.LBB5_52:                               # %if.then.i.i136
	pcaddu18i	$ra, %call36(_ZdlPv)
	jirl	$ra, $ra, 0
	ld.d	$a0, $sp, 72
	addi.d	$a1, $sp, 88
	beq	$a0, $a1, .LBB5_47
	b	.LBB5_54
.LBB5_53:                               # %lpad26
.Ltmp19:                                # EH_LABEL
	move	$s1, $a0
	ld.d	$a0, $sp, 72
	addi.d	$a1, $sp, 88
	beq	$a0, $a1, .LBB5_47
.LBB5_54:                               # %if.then.i.i142
	pcaddu18i	$ra, %call36(_ZdlPv)
	jirl	$ra, $ra, 0
	ld.d	$a0, $sp, 40
	addi.d	$a1, $sp, 56
	beq	$a0, $a1, .LBB5_48
	b	.LBB5_56
.LBB5_55:                               # %lpad18
.Ltmp22:                                # EH_LABEL
	move	$s1, $a0
	ld.d	$a0, $sp, 40
	addi.d	$a1, $sp, 56
	beq	$a0, $a1, .LBB5_48
.LBB5_56:                               # %if.then.i.i148
	pcaddu18i	$ra, %call36(_ZdlPv)
	jirl	$ra, $ra, 0
	ld.d	$a0, $sp, 8
	addi.d	$a1, $sp, 24
	beq	$a0, $a1, .LBB5_49
.LBB5_57:                               # %if.then.i.i154
	pcaddu18i	$ra, %call36(_ZdlPv)
	jirl	$ra, $ra, 0
	move	$a0, $s1
	pcaddu18i	$ra, %call36(_Unwind_Resume)
	jirl	$ra, $ra, 0
.Lfunc_end5:
	.size	_Z24getTestDescriptionStringB5cxx11bbbbb, .Lfunc_end5-_Z24getTestDescriptionStringB5cxx11bbbbb
	.cfi_endproc
	.section	.gcc_except_table,"a",@progbits
	.p2align	2, 0x0
GCC_except_table5:
.Lexception0:
	.byte	255                             # @LPStart Encoding = omit
	.byte	255                             # @TType Encoding = omit
	.byte	1                               # Call site Encoding = uleb128
	.uleb128 .Lcst_end0-.Lcst_begin0
.Lcst_begin0:
	.uleb128 .Ltmp0-.Lfunc_begin0           # >> Call Site 1 <<
	.uleb128 .Ltmp1-.Ltmp0                  #   Call between .Ltmp0 and .Ltmp1
	.uleb128 .Ltmp2-.Lfunc_begin0           #     jumps to .Ltmp2
	.byte	0                               #   On action: cleanup
	.uleb128 .Ltmp1-.Lfunc_begin0           # >> Call Site 2 <<
	.uleb128 .Ltmp3-.Ltmp1                  #   Call between .Ltmp1 and .Ltmp3
	.byte	0                               #     has no landing pad
	.byte	0                               #   On action: cleanup
	.uleb128 .Ltmp3-.Lfunc_begin0           # >> Call Site 3 <<
	.uleb128 .Ltmp4-.Ltmp3                  #   Call between .Ltmp3 and .Ltmp4
	.uleb128 .Ltmp22-.Lfunc_begin0          #     jumps to .Ltmp22
	.byte	0                               #   On action: cleanup
	.uleb128 .Ltmp4-.Lfunc_begin0           # >> Call Site 4 <<
	.uleb128 .Ltmp5-.Ltmp4                  #   Call between .Ltmp4 and .Ltmp5
	.byte	0                               #     has no landing pad
	.byte	0                               #   On action: cleanup
	.uleb128 .Ltmp5-.Lfunc_begin0           # >> Call Site 5 <<
	.uleb128 .Ltmp6-.Ltmp5                  #   Call between .Ltmp5 and .Ltmp6
	.uleb128 .Ltmp19-.Lfunc_begin0          #     jumps to .Ltmp19
	.byte	0                               #   On action: cleanup
	.uleb128 .Ltmp6-.Lfunc_begin0           # >> Call Site 6 <<
	.uleb128 .Ltmp7-.Ltmp6                  #   Call between .Ltmp6 and .Ltmp7
	.byte	0                               #     has no landing pad
	.byte	0                               #   On action: cleanup
	.uleb128 .Ltmp7-.Lfunc_begin0           # >> Call Site 7 <<
	.uleb128 .Ltmp8-.Ltmp7                  #   Call between .Ltmp7 and .Ltmp8
	.uleb128 .Ltmp16-.Lfunc_begin0          #     jumps to .Ltmp16
	.byte	0                               #   On action: cleanup
	.uleb128 .Ltmp8-.Lfunc_begin0           # >> Call Site 8 <<
	.uleb128 .Ltmp9-.Ltmp8                  #   Call between .Ltmp8 and .Ltmp9
	.byte	0                               #     has no landing pad
	.byte	0                               #   On action: cleanup
	.uleb128 .Ltmp9-.Lfunc_begin0           # >> Call Site 9 <<
	.uleb128 .Ltmp10-.Ltmp9                 #   Call between .Ltmp9 and .Ltmp10
	.uleb128 .Ltmp13-.Lfunc_begin0          #     jumps to .Ltmp13
	.byte	0                               #   On action: cleanup
	.uleb128 .Ltmp10-.Lfunc_begin0          # >> Call Site 10 <<
	.uleb128 .Ltmp20-.Ltmp10                #   Call between .Ltmp10 and .Ltmp20
	.byte	0                               #     has no landing pad
	.byte	0                               #   On action: cleanup
	.uleb128 .Ltmp20-.Lfunc_begin0          # >> Call Site 11 <<
	.uleb128 .Ltmp21-.Ltmp20                #   Call between .Ltmp20 and .Ltmp21
	.uleb128 .Ltmp22-.Lfunc_begin0          #     jumps to .Ltmp22
	.byte	0                               #   On action: cleanup
	.uleb128 .Ltmp17-.Lfunc_begin0          # >> Call Site 12 <<
	.uleb128 .Ltmp18-.Ltmp17                #   Call between .Ltmp17 and .Ltmp18
	.uleb128 .Ltmp19-.Lfunc_begin0          #     jumps to .Ltmp19
	.byte	0                               #   On action: cleanup
	.uleb128 .Ltmp14-.Lfunc_begin0          # >> Call Site 13 <<
	.uleb128 .Ltmp15-.Ltmp14                #   Call between .Ltmp14 and .Ltmp15
	.uleb128 .Ltmp16-.Lfunc_begin0          #     jumps to .Ltmp16
	.byte	0                               #   On action: cleanup
	.uleb128 .Ltmp11-.Lfunc_begin0          # >> Call Site 14 <<
	.uleb128 .Ltmp12-.Ltmp11                #   Call between .Ltmp11 and .Ltmp12
	.uleb128 .Ltmp13-.Lfunc_begin0          #     jumps to .Ltmp13
	.byte	0                               #   On action: cleanup
	.uleb128 .Ltmp12-.Lfunc_begin0          # >> Call Site 15 <<
	.uleb128 .Lfunc_end5-.Ltmp12            #   Call between .Ltmp12 and .Lfunc_end5
	.byte	0                               #     has no landing pad
	.byte	0                               #   On action: cleanup
.Lcst_end0:
	.p2align	2, 0x0
                                        # -- End function
	.text
	.globl	main                            # -- Begin function main
	.p2align	5
	.type	main,@function
main:                                   # @main
	.cfi_startproc
# %bb.0:                                # %entry
	addi.d	$sp, $sp, -48
	.cfi_def_cfa_offset 48
	st.d	$ra, $sp, 40                    # 8-byte Folded Spill
	st.d	$fp, $sp, 32                    # 8-byte Folded Spill
	st.d	$s0, $sp, 24                    # 8-byte Folded Spill
	st.d	$s1, $sp, 16                    # 8-byte Folded Spill
	st.d	$s2, $sp, 8                     # 8-byte Folded Spill
	.cfi_offset 1, -8
	.cfi_offset 22, -16
	.cfi_offset 23, -24
	.cfi_offset 24, -32
	.cfi_offset 25, -40
	pcalau12i	$a0, %pc_hi20(_ZL21testDescriptionHeader)
	addi.d	$a0, $a0, %pc_lo12(_ZL21testDescriptionHeader)
	ld.d	$s1, $a0, 0
	ld.d	$s2, $a0, 8
	beq	$s1, $s2, .LBB6_10
# %bb.1:
	pcalau12i	$a0, %got_pc_hi20(_ZSt4cout)
	ld.d	$fp, $a0, %got_pc_lo12(_ZSt4cout)
	b	.LBB6_4
	.p2align	4, , 16
.LBB6_2:                                # %if.end.i.i.i
                                        #   in Loop: Header=BB6_4 Depth=1
	move	$a0, $s0
	pcaddu18i	$ra, %call36(_ZNKSt5ctypeIcE13_M_widen_initEv)
	jirl	$ra, $ra, 0
	ld.d	$a0, $s0, 0
	ld.d	$a2, $a0, 48
	ori	$a1, $zero, 10
	move	$a0, $s0
	jirl	$ra, $a2, 0
.LBB6_3:                                # %_ZSt4endlIcSt11char_traitsIcEERSt13basic_ostreamIT_T0_ES6_.exit
                                        #   in Loop: Header=BB6_4 Depth=1
	ext.w.b	$a1, $a0
	move	$a0, $fp
	pcaddu18i	$ra, %call36(_ZNSo3putEc)
	jirl	$ra, $ra, 0
	pcaddu18i	$ra, %call36(_ZNSo5flushEv)
	jirl	$ra, $ra, 0
	addi.d	$s1, $s1, 8
	beq	$s1, $s2, .LBB6_10
.LBB6_4:                                # %for.body
                                        # =>This Inner Loop Header: Depth=1
	ld.d	$s0, $s1, 0
	beqz	$s0, .LBB6_6
# %bb.5:                                # %if.else.i
                                        #   in Loop: Header=BB6_4 Depth=1
	move	$a0, $s0
	pcaddu18i	$ra, %call36(strlen)
	jirl	$ra, $ra, 0
	move	$a2, $a0
	move	$a0, $fp
	move	$a1, $s0
	pcaddu18i	$ra, %call36(_ZSt16__ostream_insertIcSt11char_traitsIcEERSt13basic_ostreamIT_T0_ES6_PKS3_l)
	jirl	$ra, $ra, 0
	b	.LBB6_7
	.p2align	4, , 16
.LBB6_6:                                # %if.then.i
                                        #   in Loop: Header=BB6_4 Depth=1
	ld.d	$a0, $fp, 0
	ld.d	$a0, $a0, -24
	add.d	$a0, $fp, $a0
	ld.w	$a1, $a0, 32
	ori	$a1, $a1, 1
	pcaddu18i	$ra, %call36(_ZNSt9basic_iosIcSt11char_traitsIcEE5clearESt12_Ios_Iostate)
	jirl	$ra, $ra, 0
.LBB6_7:                                # %_ZStlsISt11char_traitsIcEERSt13basic_ostreamIcT_ES5_PKc.exit
                                        #   in Loop: Header=BB6_4 Depth=1
	ld.d	$a0, $fp, 0
	ld.d	$a0, $a0, -24
	add.d	$a0, $fp, $a0
	ld.d	$s0, $a0, 240
	beqz	$s0, .LBB6_11
# %bb.8:                                # %_ZSt13__check_facetISt5ctypeIcEERKT_PS3_.exit.i.i
                                        #   in Loop: Header=BB6_4 Depth=1
	ld.bu	$a0, $s0, 56
	beqz	$a0, .LBB6_2
# %bb.9:                                # %if.then.i2.i.i
                                        #   in Loop: Header=BB6_4 Depth=1
	ld.bu	$a0, $s0, 67
	b	.LBB6_3
.LBB6_10:                               # %for.cond.cleanup
	ori	$a0, $zero, 42
	addi.d	$a1, $sp, 4
	pcaddu18i	$ra, %call36(_Z19check_frame_variantILb1ELb0ELb0ELb0ELb0EEbiRVi)
	jirl	$ra, $ra, 0
	move	$fp, $a0
	ori	$a0, $zero, 42
	addi.d	$a1, $sp, 4
	pcaddu18i	$ra, %call36(_Z19check_frame_variantILb0ELb0ELb0ELb0ELb0EEbiRVi)
	jirl	$ra, $ra, 0
	or	$fp, $fp, $a0
	ori	$a0, $zero, 42
	addi.d	$a1, $sp, 4
	pcaddu18i	$ra, %call36(_Z19check_frame_variantILb1ELb1ELb0ELb0ELb0EEbiRVi)
	jirl	$ra, $ra, 0
	or	$fp, $fp, $a0
	ori	$a0, $zero, 42
	addi.d	$a1, $sp, 4
	pcaddu18i	$ra, %call36(_Z19check_frame_variantILb0ELb1ELb0ELb0ELb0EEbiRVi)
	jirl	$ra, $ra, 0
	or	$fp, $fp, $a0
	ori	$a0, $zero, 42
	addi.d	$a1, $sp, 4
	pcaddu18i	$ra, %call36(_Z19check_frame_variantILb1ELb0ELb1ELb0ELb0EEbiRVi)
	jirl	$ra, $ra, 0
	or	$fp, $fp, $a0
	ori	$a0, $zero, 42
	addi.d	$a1, $sp, 4
	pcaddu18i	$ra, %call36(_Z19check_frame_variantILb0ELb0ELb1ELb0ELb0EEbiRVi)
	jirl	$ra, $ra, 0
	or	$fp, $fp, $a0
	ori	$a0, $zero, 42
	addi.d	$a1, $sp, 4
	pcaddu18i	$ra, %call36(_Z19check_frame_variantILb1ELb1ELb1ELb0ELb0EEbiRVi)
	jirl	$ra, $ra, 0
	or	$fp, $fp, $a0
	ori	$a0, $zero, 42
	addi.d	$a1, $sp, 4
	pcaddu18i	$ra, %call36(_Z19check_frame_variantILb0ELb1ELb1ELb0ELb0EEbiRVi)
	jirl	$ra, $ra, 0
	or	$fp, $fp, $a0
	ori	$a0, $zero, 42
	addi.d	$a1, $sp, 4
	pcaddu18i	$ra, %call36(_Z19check_frame_variantILb1ELb0ELb0ELb1ELb0EEbiRVi)
	jirl	$ra, $ra, 0
	or	$fp, $fp, $a0
	ori	$a0, $zero, 42
	addi.d	$a1, $sp, 4
	pcaddu18i	$ra, %call36(_Z19check_frame_variantILb0ELb0ELb0ELb1ELb0EEbiRVi)
	jirl	$ra, $ra, 0
	or	$fp, $fp, $a0
	ori	$a0, $zero, 42
	addi.d	$a1, $sp, 4
	pcaddu18i	$ra, %call36(_Z19check_frame_variantILb1ELb1ELb0ELb1ELb0EEbiRVi)
	jirl	$ra, $ra, 0
	or	$fp, $fp, $a0
	ori	$a0, $zero, 42
	addi.d	$a1, $sp, 4
	pcaddu18i	$ra, %call36(_Z19check_frame_variantILb0ELb1ELb0ELb1ELb0EEbiRVi)
	jirl	$ra, $ra, 0
	or	$fp, $fp, $a0
	ori	$a0, $zero, 42
	addi.d	$a1, $sp, 4
	pcaddu18i	$ra, %call36(_Z19check_frame_variantILb1ELb0ELb1ELb1ELb0EEbiRVi)
	jirl	$ra, $ra, 0
	or	$fp, $fp, $a0
	ori	$a0, $zero, 42
	addi.d	$a1, $sp, 4
	pcaddu18i	$ra, %call36(_Z19check_frame_variantILb0ELb0ELb1ELb1ELb0EEbiRVi)
	jirl	$ra, $ra, 0
	or	$fp, $fp, $a0
	ori	$a0, $zero, 42
	addi.d	$a1, $sp, 4
	pcaddu18i	$ra, %call36(_Z19check_frame_variantILb1ELb1ELb1ELb1ELb0EEbiRVi)
	jirl	$ra, $ra, 0
	or	$fp, $fp, $a0
	ori	$a0, $zero, 42
	addi.d	$a1, $sp, 4
	pcaddu18i	$ra, %call36(_Z19check_frame_variantILb0ELb1ELb1ELb1ELb0EEbiRVi)
	jirl	$ra, $ra, 0
	or	$fp, $fp, $a0
	ori	$a0, $zero, 42
	addi.d	$a1, $sp, 4
	pcaddu18i	$ra, %call36(_Z19check_frame_variantILb1ELb0ELb0ELb0ELb1EEbiRVi)
	jirl	$ra, $ra, 0
	or	$fp, $fp, $a0
	ori	$a0, $zero, 42
	addi.d	$a1, $sp, 4
	pcaddu18i	$ra, %call36(_Z19check_frame_variantILb0ELb0ELb0ELb0ELb1EEbiRVi)
	jirl	$ra, $ra, 0
	or	$fp, $fp, $a0
	ori	$a0, $zero, 42
	addi.d	$a1, $sp, 4
	pcaddu18i	$ra, %call36(_Z19check_frame_variantILb1ELb1ELb0ELb0ELb1EEbiRVi)
	jirl	$ra, $ra, 0
	or	$fp, $fp, $a0
	ori	$a0, $zero, 42
	addi.d	$a1, $sp, 4
	pcaddu18i	$ra, %call36(_Z19check_frame_variantILb0ELb1ELb0ELb0ELb1EEbiRVi)
	jirl	$ra, $ra, 0
	or	$fp, $fp, $a0
	ori	$a0, $zero, 42
	addi.d	$a1, $sp, 4
	pcaddu18i	$ra, %call36(_Z19check_frame_variantILb1ELb0ELb1ELb0ELb1EEbiRVi)
	jirl	$ra, $ra, 0
	or	$fp, $fp, $a0
	ori	$a0, $zero, 42
	addi.d	$a1, $sp, 4
	pcaddu18i	$ra, %call36(_Z19check_frame_variantILb0ELb0ELb1ELb0ELb1EEbiRVi)
	jirl	$ra, $ra, 0
	or	$fp, $fp, $a0
	ori	$a0, $zero, 42
	addi.d	$a1, $sp, 4
	pcaddu18i	$ra, %call36(_Z19check_frame_variantILb1ELb1ELb1ELb0ELb1EEbiRVi)
	jirl	$ra, $ra, 0
	or	$fp, $fp, $a0
	ori	$a0, $zero, 42
	addi.d	$a1, $sp, 4
	pcaddu18i	$ra, %call36(_Z19check_frame_variantILb0ELb1ELb1ELb0ELb1EEbiRVi)
	jirl	$ra, $ra, 0
	or	$fp, $fp, $a0
	ori	$a0, $zero, 42
	addi.d	$a1, $sp, 4
	pcaddu18i	$ra, %call36(_Z19check_frame_variantILb1ELb0ELb0ELb1ELb1EEbiRVi)
	jirl	$ra, $ra, 0
	or	$fp, $fp, $a0
	ori	$a0, $zero, 42
	addi.d	$a1, $sp, 4
	pcaddu18i	$ra, %call36(_Z19check_frame_variantILb0ELb0ELb0ELb1ELb1EEbiRVi)
	jirl	$ra, $ra, 0
	or	$fp, $fp, $a0
	ori	$a0, $zero, 42
	addi.d	$a1, $sp, 4
	pcaddu18i	$ra, %call36(_Z19check_frame_variantILb1ELb1ELb0ELb1ELb1EEbiRVi)
	jirl	$ra, $ra, 0
	or	$fp, $fp, $a0
	ori	$a0, $zero, 42
	addi.d	$a1, $sp, 4
	pcaddu18i	$ra, %call36(_Z19check_frame_variantILb0ELb1ELb0ELb1ELb1EEbiRVi)
	jirl	$ra, $ra, 0
	or	$fp, $fp, $a0
	ori	$a0, $zero, 42
	addi.d	$a1, $sp, 4
	pcaddu18i	$ra, %call36(_Z19check_frame_variantILb1ELb0ELb1ELb1ELb1EEbiRVi)
	jirl	$ra, $ra, 0
	or	$fp, $fp, $a0
	ori	$a0, $zero, 42
	addi.d	$a1, $sp, 4
	pcaddu18i	$ra, %call36(_Z19check_frame_variantILb0ELb0ELb1ELb1ELb1EEbiRVi)
	jirl	$ra, $ra, 0
	or	$fp, $fp, $a0
	ori	$a0, $zero, 42
	addi.d	$a1, $sp, 4
	pcaddu18i	$ra, %call36(_Z19check_frame_variantILb1ELb1ELb1ELb1ELb1EEbiRVi)
	jirl	$ra, $ra, 0
	or	$fp, $fp, $a0
	ori	$a0, $zero, 42
	addi.d	$a1, $sp, 4
	pcaddu18i	$ra, %call36(_Z19check_frame_variantILb0ELb1ELb1ELb1ELb1EEbiRVi)
	jirl	$ra, $ra, 0
	or	$a0, $fp, $a0
	andi	$a0, $a0, 1
	sub.d	$a0, $zero, $a0
	ld.d	$s2, $sp, 8                     # 8-byte Folded Reload
	ld.d	$s1, $sp, 16                    # 8-byte Folded Reload
	ld.d	$s0, $sp, 24                    # 8-byte Folded Reload
	ld.d	$fp, $sp, 32                    # 8-byte Folded Reload
	ld.d	$ra, $sp, 40                    # 8-byte Folded Reload
	addi.d	$sp, $sp, 48
	ret
.LBB6_11:                               # %if.then.i.i.i
	pcaddu18i	$ra, %call36(_ZSt16__throw_bad_castv)
	jirl	$ra, $ra, 0
.Lfunc_end6:
	.size	main, .Lfunc_end6-main
	.cfi_endproc
                                        # -- End function
	.section	.text._Z19check_frame_variantILb1ELb0ELb0ELb0ELb0EEbiRVi,"axG",@progbits,_Z19check_frame_variantILb1ELb0ELb0ELb0ELb0EEbiRVi,comdat
	.weak	_Z19check_frame_variantILb1ELb0ELb0ELb0ELb0EEbiRVi # -- Begin function _Z19check_frame_variantILb1ELb0ELb0ELb0ELb0EEbiRVi
	.p2align	5
	.type	_Z19check_frame_variantILb1ELb0ELb0ELb0ELb0EEbiRVi,@function
_Z19check_frame_variantILb1ELb0ELb0ELb0ELb0EEbiRVi: # @_Z19check_frame_variantILb1ELb0ELb0ELb0ELb0EEbiRVi
.Lfunc_begin1:
	.cfi_startproc
	.cfi_personality 155, DW.ref.__gxx_personality_v0
	.cfi_lsda 27, .Lexception1
# %bb.0:                                # %entry
	addi.d	$sp, $sp, -1568
	.cfi_def_cfa_offset 1568
	st.d	$ra, $sp, 1560                  # 8-byte Folded Spill
	st.d	$fp, $sp, 1552                  # 8-byte Folded Spill
	st.d	$s0, $sp, 1544                  # 8-byte Folded Spill
	st.d	$s1, $sp, 1536                  # 8-byte Folded Spill
	st.d	$s2, $sp, 1528                  # 8-byte Folded Spill
	st.d	$s3, $sp, 1520                  # 8-byte Folded Spill
	st.d	$s4, $sp, 1512                  # 8-byte Folded Spill
	st.d	$s5, $sp, 1504                  # 8-byte Folded Spill
	st.d	$s6, $sp, 1496                  # 8-byte Folded Spill
	st.d	$s7, $sp, 1488                  # 8-byte Folded Spill
	st.d	$s8, $sp, 1480                  # 8-byte Folded Spill
	fst.d	$fs0, $sp, 1472                 # 8-byte Folded Spill
	fst.d	$fs1, $sp, 1464                 # 8-byte Folded Spill
	fst.d	$fs2, $sp, 1456                 # 8-byte Folded Spill
	fst.d	$fs3, $sp, 1448                 # 8-byte Folded Spill
	fst.d	$fs4, $sp, 1440                 # 8-byte Folded Spill
	fst.d	$fs5, $sp, 1432                 # 8-byte Folded Spill
	fst.d	$fs6, $sp, 1424                 # 8-byte Folded Spill
	fst.d	$fs7, $sp, 1416                 # 8-byte Folded Spill
	.cfi_offset 1, -8
	.cfi_offset 22, -16
	.cfi_offset 23, -24
	.cfi_offset 24, -32
	.cfi_offset 25, -40
	.cfi_offset 26, -48
	.cfi_offset 27, -56
	.cfi_offset 28, -64
	.cfi_offset 29, -72
	.cfi_offset 30, -80
	.cfi_offset 31, -88
	.cfi_offset 56, -96
	.cfi_offset 57, -104
	.cfi_offset 58, -112
	.cfi_offset 59, -120
	.cfi_offset 60, -128
	.cfi_offset 61, -136
	.cfi_offset 62, -144
	.cfi_offset 63, -152
	st.d	$a1, $sp, 576                   # 8-byte Folded Spill
	move	$s0, $a0
	addi.d	$a0, $sp, 584
	ori	$a1, $zero, 1
	move	$a2, $zero
	move	$a3, $zero
	move	$a4, $zero
	move	$a5, $zero
	pcaddu18i	$ra, %call36(_Z24getTestDescriptionStringB5cxx11bbbbb)
	jirl	$ra, $ra, 0
	movgr2fr.w	$fa0, $s0
	ffint.d.w	$fs7, $fa0
	fadd.d	$fa0, $fs7, $fs7
	fst.d	$fa0, $sp, 120                  # 8-byte Folded Spill
	fadd.d	$fa0, $fa0, $fs7
	fst.d	$fa0, $sp, 112                  # 8-byte Folded Spill
	fadd.d	$fa0, $fa0, $fs7
	fst.d	$fa0, $sp, 104                  # 8-byte Folded Spill
	fadd.d	$fa0, $fa0, $fs7
	fst.d	$fa0, $sp, 96                   # 8-byte Folded Spill
	fadd.d	$fa0, $fa0, $fs7
	fst.d	$fa0, $sp, 88                   # 8-byte Folded Spill
	fadd.d	$fa0, $fa0, $fs7
	fst.d	$fa0, $sp, 80                   # 8-byte Folded Spill
	fadd.d	$fa0, $fa0, $fs7
	fst.d	$fa0, $sp, 72                   # 8-byte Folded Spill
	fadd.d	$fs6, $fa0, $fs7
	fadd.d	$fs5, $fs6, $fs7
	fst.d	$fs6, $sp, 184                  # 8-byte Folded Spill
	fadd.d	$fs4, $fs5, $fs7
	fst.d	$fs5, $sp, 192                  # 8-byte Folded Spill
	fadd.d	$fs3, $fs4, $fs7
	fst.d	$fs4, $sp, 216                  # 8-byte Folded Spill
	fadd.d	$fs2, $fs3, $fs7
	fst.d	$fs3, $sp, 224                  # 8-byte Folded Spill
	fadd.d	$fs1, $fs2, $fs7
	fst.d	$fs2, $sp, 240                  # 8-byte Folded Spill
	fadd.d	$fs0, $fs1, $fs7
	fst.d	$fs1, $sp, 256                  # 8-byte Folded Spill
	fadd.d	$ft1, $fs0, $fs7
	fst.d	$fs0, $sp, 272                  # 8-byte Folded Spill
	fadd.d	$ft2, $ft1, $fs7
	fst.d	$ft1, $sp, 304                  # 8-byte Folded Spill
	fadd.d	$ft3, $ft2, $fs7
	fst.d	$ft2, $sp, 320                  # 8-byte Folded Spill
	fadd.d	$ft4, $ft3, $fs7
	fst.d	$ft3, $sp, 336                  # 8-byte Folded Spill
	fadd.d	$ft5, $ft4, $fs7
	fst.d	$ft4, $sp, 344                  # 8-byte Folded Spill
	fadd.d	$ft6, $ft5, $fs7
	fst.d	$ft5, $sp, 360                  # 8-byte Folded Spill
	fadd.d	$ft7, $ft6, $fs7
	fst.d	$ft6, $sp, 376                  # 8-byte Folded Spill
	fadd.d	$ft8, $ft7, $fs7
	fst.d	$ft7, $sp, 392                  # 8-byte Folded Spill
	fadd.d	$ft9, $ft8, $fs7
	fst.d	$ft8, $sp, 408                  # 8-byte Folded Spill
	fadd.d	$ft10, $ft9, $fs7
	fst.d	$ft9, $sp, 416                  # 8-byte Folded Spill
	fadd.d	$ft11, $ft10, $fs7
	fst.d	$ft10, $sp, 432                 # 8-byte Folded Spill
	fadd.d	$ft12, $ft11, $fs7
	fst.d	$ft11, $sp, 448                 # 8-byte Folded Spill
	fadd.d	$ft13, $ft12, $fs7
	fst.d	$ft12, $sp, 464                 # 8-byte Folded Spill
	fadd.d	$ft14, $ft13, $fs7
	fst.d	$ft13, $sp, 472                 # 8-byte Folded Spill
	fadd.d	$ft15, $ft14, $fs7
	fst.d	$ft14, $sp, 488                 # 8-byte Folded Spill
	fadd.d	$ft0, $ft15, $fs7
	fst.d	$ft15, $sp, 496                 # 8-byte Folded Spill
	fadd.d	$fa7, $ft0, $fs7
	fst.d	$fa7, $sp, 512                  # 8-byte Folded Spill
	fst.d	$ft0, $sp, 504                  # 8-byte Folded Spill
	alsl.w	$s6, $s0, $s0, 1
	alsl.w	$s4, $s0, $s0, 2
	alsl.w	$a2, $s0, $s0, 3
	ori	$a0, $zero, 14
	mul.w	$s1, $s0, $a0
	st.d	$s1, $sp, 64                    # 8-byte Folded Spill
	slli.w	$s3, $s0, 4
	sub.w	$t3, $s3, $s0
	st.d	$t3, $sp, 144                   # 8-byte Folded Spill
	alsl.w	$a5, $s0, $s0, 4
	alsl.w	$a6, $s0, $s3, 1
	st.d	$a6, $sp, 168                   # 8-byte Folded Spill
	alsl.w	$a3, $s0, $s3, 2
	st.d	$a3, $sp, 200                   # 8-byte Folded Spill
	ori	$a0, $zero, 22
	mul.w	$a4, $s0, $a0
	st.d	$a4, $sp, 232                   # 8-byte Folded Spill
	ori	$a0, $zero, 23
	mul.w	$a7, $s0, $a0
	st.d	$a7, $sp, 248                   # 8-byte Folded Spill
	alsl.w	$t0, $s0, $s3, 3
	st.d	$t0, $sp, 264                   # 8-byte Folded Spill
	st.d	$s3, $sp, 152                   # 8-byte Folded Spill
	ori	$a0, $zero, 26
	mul.w	$t1, $s0, $a0
	st.d	$t1, $sp, 312                   # 8-byte Folded Spill
	ori	$a0, $zero, 28
	mul.w	$t2, $s0, $a0
	st.d	$t2, $sp, 352                   # 8-byte Folded Spill
	ori	$a0, $zero, 29
	mul.w	$t4, $s0, $a0
	st.d	$t4, $sp, 368                   # 8-byte Folded Spill
	ori	$a0, $zero, 30
	mul.w	$t6, $s0, $a0
	st.d	$t6, $sp, 384                   # 8-byte Folded Spill
	slli.w	$s5, $s0, 5
	sub.w	$fp, $s5, $s0
	st.d	$fp, $sp, 400                   # 8-byte Folded Spill
	add.w	$t7, $s5, $s0
	st.d	$t7, $sp, 424                   # 8-byte Folded Spill
	alsl.w	$t8, $s0, $s5, 1
	st.d	$t8, $sp, 440                   # 8-byte Folded Spill
	alsl.w	$t5, $s0, $s5, 2
	st.d	$t5, $sp, 480                   # 8-byte Folded Spill
	alsl.d	$a0, $s0, $s0, 3
	alsl.d	$a0, $a0, $s0, 2
	fadd.d	$fa6, $fa7, $fs7
	fadd.d	$fa5, $fa6, $fs7
	fst.d	$fa6, $sp, 520                  # 8-byte Folded Spill
	fadd.d	$fa4, $fa5, $fs7
	fst.d	$fa5, $sp, 528                  # 8-byte Folded Spill
	fadd.d	$fa2, $fa4, $fs7
	fst.d	$fa2, $sp, 544                  # 8-byte Folded Spill
	fst.d	$fa4, $sp, 536                  # 8-byte Folded Spill
	fadd.d	$fa3, $fa2, $fs7
	fadd.d	$fa1, $fa3, $fs7
	fst.d	$fa1, $sp, 560                  # 8-byte Folded Spill
	fst.d	$fa3, $sp, 552                  # 8-byte Folded Spill
	fadd.d	$fa0, $fa1, $fs7
	fst.d	$fa0, $sp, 568                  # 8-byte Folded Spill
	fdiv.d	$fa0, $fa0, $fa1
	fdiv.d	$fa0, $fa0, $fa3
	fdiv.d	$fa0, $fa0, $fa2
	fdiv.d	$fa0, $fa0, $fa4
	fdiv.d	$fa0, $fa0, $fa5
	fdiv.d	$fa0, $fa0, $fa6
	fdiv.d	$fa0, $fa0, $fa7
	fdiv.d	$fa0, $fa0, $ft0
	fdiv.d	$fa0, $fa0, $ft15
	fdiv.d	$fa0, $fa0, $ft14
	fdiv.d	$fa0, $fa0, $ft13
	fdiv.d	$fa0, $fa0, $ft12
	fdiv.d	$fa0, $fa0, $ft11
	fdiv.d	$fa0, $fa0, $ft10
	fdiv.d	$fa0, $fa0, $ft9
	fdiv.d	$fa0, $fa0, $ft8
	fdiv.d	$fa0, $fa0, $ft7
	fdiv.d	$fa0, $fa0, $ft6
	fdiv.d	$fa0, $fa0, $ft5
	fdiv.d	$fa0, $fa0, $ft4
	fdiv.d	$fa0, $fa0, $ft3
	fdiv.d	$fa0, $fa0, $ft2
	fdiv.d	$fa0, $fa0, $ft1
	fdiv.d	$fa0, $fa0, $fs0
	fdiv.d	$fa0, $fa0, $fs1
	fdiv.d	$fa0, $fa0, $fs2
	fdiv.d	$fa0, $fa0, $fs3
	fdiv.d	$fa0, $fa0, $fs4
	fdiv.d	$fa0, $fa0, $fs5
	fdiv.d	$fa0, $fa0, $fs6
	fld.d	$fs6, $sp, 72                   # 8-byte Folded Reload
	fdiv.d	$fa0, $fa0, $fs6
	fld.d	$fs5, $sp, 80                   # 8-byte Folded Reload
	fdiv.d	$fa0, $fa0, $fs5
	fld.d	$fs4, $sp, 88                   # 8-byte Folded Reload
	fdiv.d	$fa0, $fa0, $fs4
	fld.d	$fs3, $sp, 96                   # 8-byte Folded Reload
	fdiv.d	$fa0, $fa0, $fs3
	fld.d	$fs2, $sp, 104                  # 8-byte Folded Reload
	fdiv.d	$fa0, $fa0, $fs2
	fld.d	$fs1, $sp, 112                  # 8-byte Folded Reload
	fdiv.d	$fa0, $fa0, $fs1
	fld.d	$fs0, $sp, 120                  # 8-byte Folded Reload
	fdiv.d	$fa0, $fa0, $fs0
	fdiv.d	$fa0, $fa0, $fs7
	addi.w	$a1, $a0, 1
	sltui	$a1, $a1, 3
	maskeqz	$a0, $a0, $a1
	addi.w	$a0, $a0, 0
	div.w	$a0, $a0, $t5
	st.d	$a5, $sp, 160                   # 8-byte Folded Spill
	alsl.w	$a1, $a5, $s0, 1
	st.d	$a1, $sp, 456                   # 8-byte Folded Spill
	div.w	$a0, $a0, $a1
	div.w	$a0, $a0, $t8
	div.w	$a0, $a0, $t7
	div.w	$a0, $a0, $s5
	div.w	$a0, $a0, $fp
	div.w	$a0, $a0, $t6
	div.w	$a0, $a0, $t4
	div.w	$a0, $a0, $t2
	alsl.w	$a1, $s6, $s6, 3
	st.d	$a1, $sp, 328                   # 8-byte Folded Spill
	div.w	$a0, $a0, $a1
	div.w	$a0, $a0, $t1
	alsl.w	$a1, $s6, $s0, 3
	st.d	$a1, $sp, 280                   # 8-byte Folded Spill
	div.w	$a0, $a0, $a1
	div.w	$a0, $a0, $t0
	div.w	$a0, $a0, $a7
	div.w	$a0, $a0, $a4
	alsl.w	$a1, $s4, $s0, 2
	st.d	$a1, $sp, 208                   # 8-byte Folded Spill
	div.w	$a0, $a0, $a1
	div.w	$a0, $a0, $a3
	st.d	$a2, $sp, 32                    # 8-byte Folded Spill
	alsl.w	$a1, $a2, $s0, 1
	st.d	$a1, $sp, 176                   # 8-byte Folded Spill
	div.w	$a0, $a0, $a1
	div.w	$a0, $a0, $a6
	div.w	$a0, $a0, $a5
	div.w	$a0, $a0, $s3
	div.w	$a0, $a0, $t3
	div.w	$a0, $a0, $s1
	alsl.w	$a1, $s6, $s0, 2
	st.d	$a1, $sp, 56                    # 8-byte Folded Spill
	div.w	$a0, $a0, $a1
	slli.w	$s2, $s0, 3
	alsl.w	$a1, $s0, $s2, 2
	st.d	$a1, $sp, 48                    # 8-byte Folded Spill
	div.w	$a0, $a0, $a1
	alsl.w	$a1, $s4, $s0, 1
	st.d	$a1, $sp, 40                    # 8-byte Folded Spill
	move	$s3, $s4
	div.w	$a0, $a0, $a1
	alsl.w	$fp, $s0, $s2, 1
	div.w	$a0, $a0, $fp
	div.w	$a0, $a0, $a2
	div.w	$a0, $a0, $s2
	sub.w	$s8, $s2, $s0
	div.w	$a0, $a0, $s8
	slli.w	$s7, $s0, 2
	alsl.w	$s1, $s0, $s7, 1
	div.w	$a0, $a0, $s1
	div.w	$a0, $a0, $s4
	div.w	$a0, $a0, $s7
	div.w	$a0, $a0, $s6
	slli.w	$s4, $s0, 1
	div.w	$a0, $a0, $s4
	div.w	$a0, $a0, $s0
	movgr2fr.w	$fa1, $a0
	ffint.d.w	$fa1, $fa1
	fadd.d	$fa0, $fa0, $fa1
	fst.d	$fa0, $sp, 296                  # 8-byte Folded Spill
	ori	$a0, $zero, 38
	mul.w	$a0, $s0, $a0
	st.d	$a0, $sp, 136                   # 8-byte Folded Spill
	ori	$a0, $zero, 39
	mul.w	$a0, $s0, $a0
	st.d	$a0, $sp, 128                   # 8-byte Folded Spill
	pcalau12i	$a0, %pc_hi20(.L.str.36)
	addi.d	$a1, $a0, %pc_lo12(.L.str.36)
	st.d	$a1, $sp, 288                   # 8-byte Folded Spill
	ori	$a0, $zero, 100
	addi.d	$a2, $sp, 616
	pcaddu18i	$ra, %call36(_Z10test_frameILj4096ELb0ELj2048ELb0ELb0EJEEvDpT4_jPKcP13trace_elementd)
	jirl	$ra, $ra, 0
	fdiv.d	$fa0, $fs7, $fs0
	fdiv.d	$fa0, $fa0, $fs1
	fdiv.d	$fa0, $fa0, $fs2
	fdiv.d	$fa0, $fa0, $fs3
	fdiv.d	$fa0, $fa0, $fs4
	fdiv.d	$fa0, $fa0, $fs5
	fdiv.d	$fa0, $fa0, $fs6
	div.w	$a0, $s0, $s4
	div.w	$a0, $a0, $s6
	div.w	$a0, $a0, $s7
	div.w	$a0, $a0, $s3
	div.w	$a0, $a0, $s1
	div.w	$a0, $a0, $s8
	div.w	$a0, $a0, $s2
	ld.d	$a2, $sp, 32                    # 8-byte Folded Reload
	div.w	$a0, $a0, $a2
	div.w	$a0, $a0, $fp
	ld.d	$a1, $sp, 40                    # 8-byte Folded Reload
	div.w	$a0, $a0, $a1
	ld.d	$a1, $sp, 48                    # 8-byte Folded Reload
	div.w	$a0, $a0, $a1
	ld.d	$a1, $sp, 56                    # 8-byte Folded Reload
	div.w	$a0, $a0, $a1
	ld.d	$a1, $sp, 64                    # 8-byte Folded Reload
	div.w	$a0, $a0, $a1
	fld.d	$fa1, $sp, 184                  # 8-byte Folded Reload
	fdiv.d	$fa0, $fa0, $fa1
	fld.d	$fa1, $sp, 192                  # 8-byte Folded Reload
	fdiv.d	$fa0, $fa0, $fa1
	fld.d	$fa1, $sp, 216                  # 8-byte Folded Reload
	fdiv.d	$fa0, $fa0, $fa1
	fld.d	$fa1, $sp, 224                  # 8-byte Folded Reload
	fdiv.d	$fa0, $fa0, $fa1
	fld.d	$fa1, $sp, 240                  # 8-byte Folded Reload
	fdiv.d	$fa0, $fa0, $fa1
	fld.d	$fa1, $sp, 256                  # 8-byte Folded Reload
	fdiv.d	$fa0, $fa0, $fa1
	fld.d	$fa1, $sp, 272                  # 8-byte Folded Reload
	fdiv.d	$fa0, $fa0, $fa1
	fld.d	$fa1, $sp, 304                  # 8-byte Folded Reload
	fdiv.d	$fa0, $fa0, $fa1
	fld.d	$fa1, $sp, 320                  # 8-byte Folded Reload
	fdiv.d	$fa0, $fa0, $fa1
	fld.d	$fa1, $sp, 336                  # 8-byte Folded Reload
	fdiv.d	$fa0, $fa0, $fa1
	fld.d	$fa1, $sp, 344                  # 8-byte Folded Reload
	fdiv.d	$fa0, $fa0, $fa1
	fld.d	$fa1, $sp, 360                  # 8-byte Folded Reload
	fdiv.d	$fa0, $fa0, $fa1
	fld.d	$fa1, $sp, 376                  # 8-byte Folded Reload
	fdiv.d	$fa0, $fa0, $fa1
	fld.d	$fa1, $sp, 392                  # 8-byte Folded Reload
	fdiv.d	$fa0, $fa0, $fa1
	fld.d	$fa1, $sp, 408                  # 8-byte Folded Reload
	fdiv.d	$fa0, $fa0, $fa1
	fld.d	$fa1, $sp, 416                  # 8-byte Folded Reload
	fdiv.d	$fa0, $fa0, $fa1
	fld.d	$fa1, $sp, 432                  # 8-byte Folded Reload
	fdiv.d	$fa0, $fa0, $fa1
	fld.d	$fa1, $sp, 448                  # 8-byte Folded Reload
	fdiv.d	$fa0, $fa0, $fa1
	fld.d	$fa1, $sp, 464                  # 8-byte Folded Reload
	fdiv.d	$fa0, $fa0, $fa1
	fld.d	$fa1, $sp, 472                  # 8-byte Folded Reload
	fdiv.d	$fa0, $fa0, $fa1
	fld.d	$fa1, $sp, 488                  # 8-byte Folded Reload
	fdiv.d	$fa0, $fa0, $fa1
	fld.d	$fa1, $sp, 496                  # 8-byte Folded Reload
	fdiv.d	$fa0, $fa0, $fa1
	fld.d	$fa1, $sp, 504                  # 8-byte Folded Reload
	fdiv.d	$fa0, $fa0, $fa1
	fld.d	$fa1, $sp, 512                  # 8-byte Folded Reload
	fdiv.d	$fa0, $fa0, $fa1
	fld.d	$fa1, $sp, 520                  # 8-byte Folded Reload
	fdiv.d	$fa0, $fa0, $fa1
	fld.d	$fa1, $sp, 528                  # 8-byte Folded Reload
	fdiv.d	$fa0, $fa0, $fa1
	fld.d	$fa1, $sp, 536                  # 8-byte Folded Reload
	fdiv.d	$fa0, $fa0, $fa1
	fld.d	$fa1, $sp, 544                  # 8-byte Folded Reload
	fdiv.d	$fa0, $fa0, $fa1
	fld.d	$fa1, $sp, 552                  # 8-byte Folded Reload
	fdiv.d	$fa0, $fa0, $fa1
	fld.d	$fa1, $sp, 560                  # 8-byte Folded Reload
	fdiv.d	$fa0, $fa0, $fa1
	ld.d	$a1, $sp, 144                   # 8-byte Folded Reload
	div.w	$a0, $a0, $a1
	ld.d	$a1, $sp, 152                   # 8-byte Folded Reload
	div.w	$a0, $a0, $a1
	ld.d	$a1, $sp, 160                   # 8-byte Folded Reload
	div.w	$a0, $a0, $a1
	ld.d	$a1, $sp, 168                   # 8-byte Folded Reload
	div.w	$a0, $a0, $a1
	ld.d	$a1, $sp, 176                   # 8-byte Folded Reload
	div.w	$a0, $a0, $a1
	ld.d	$a1, $sp, 200                   # 8-byte Folded Reload
	div.w	$a0, $a0, $a1
	ld.d	$a1, $sp, 208                   # 8-byte Folded Reload
	div.w	$a0, $a0, $a1
	ld.d	$a1, $sp, 232                   # 8-byte Folded Reload
	div.w	$a0, $a0, $a1
	ld.d	$a1, $sp, 248                   # 8-byte Folded Reload
	div.w	$a0, $a0, $a1
	ld.d	$a1, $sp, 264                   # 8-byte Folded Reload
	div.w	$a0, $a0, $a1
	ld.d	$a1, $sp, 280                   # 8-byte Folded Reload
	div.w	$a0, $a0, $a1
	ld.d	$a1, $sp, 312                   # 8-byte Folded Reload
	div.w	$a0, $a0, $a1
	ld.d	$a1, $sp, 328                   # 8-byte Folded Reload
	div.w	$a0, $a0, $a1
	ld.d	$a1, $sp, 352                   # 8-byte Folded Reload
	div.w	$a0, $a0, $a1
	ld.d	$a1, $sp, 368                   # 8-byte Folded Reload
	div.w	$a0, $a0, $a1
	ld.d	$a1, $sp, 384                   # 8-byte Folded Reload
	div.w	$a0, $a0, $a1
	ld.d	$a1, $sp, 400                   # 8-byte Folded Reload
	div.w	$a0, $a0, $a1
	div.w	$a0, $a0, $s5
	ld.d	$a1, $sp, 424                   # 8-byte Folded Reload
	div.w	$a0, $a0, $a1
	ld.d	$a1, $sp, 440                   # 8-byte Folded Reload
	div.w	$a0, $a0, $a1
	ld.d	$a1, $sp, 456                   # 8-byte Folded Reload
	div.w	$a0, $a0, $a1
	ld.d	$a1, $sp, 480                   # 8-byte Folded Reload
	div.w	$a0, $a0, $a1
	fld.d	$fa1, $sp, 568                  # 8-byte Folded Reload
	fdiv.d	$fa0, $fa0, $fa1
	fld.d	$fa1, $sp, 616
	alsl.w	$a1, $a2, $s0, 2
	div.w	$a0, $a0, $a1
	ld.d	$a1, $sp, 136                   # 8-byte Folded Reload
	div.w	$a0, $a0, $a1
	fdiv.d	$fa0, $fa0, $fa1
	ld.d	$a1, $sp, 128                   # 8-byte Folded Reload
	div.w	$a0, $a0, $a1
	movfr2gr.d	$a1, $fa1
	addi.w	$a1, $a1, 0
	div.w	$a0, $a0, $a1
	movgr2fr.w	$fa1, $a0
	ffint.d.w	$fa1, $fa1
	ld.d	$a2, $sp, 576                   # 8-byte Folded Reload
	ld.w	$a0, $a2, 0
	fadd.d	$fa0, $fa0, $fa1
	ftintrz.w.d	$fa0, $fa0
	movfr2gr.s	$a1, $fa0
	add.d	$a0, $a0, $a1
	st.w	$a0, $a2, 0
	ld.d	$a0, $sp, 584
.Ltmp23:                                # EH_LABEL
	addi.w	$a1, $zero, -1
	st.d	$a1, $sp, 8
	lu12i.w	$a3, 1
	addi.d	$a2, $sp, 616
	ori	$a6, $zero, 2048
	st.d	$zero, $sp, 0
	ld.d	$a1, $sp, 288                   # 8-byte Folded Reload
	fld.d	$fa0, $sp, 296                  # 8-byte Folded Reload
	move	$a4, $zero
	move	$a7, $zero
	pcaddu18i	$ra, %call36(_Z11check_tracePKcS0_PK13trace_elementdjbjjbbi)
	jirl	$ra, $ra, 0
.Ltmp24:                                # EH_LABEL
# %bb.1:                                # %invoke.cont17
	ld.d	$a1, $sp, 584
	addi.d	$a2, $sp, 600
	beq	$a1, $a2, .LBB7_3
# %bb.2:                                # %if.then.i.i
	move	$fp, $a0
	move	$a0, $a1
	pcaddu18i	$ra, %call36(_ZdlPv)
	jirl	$ra, $ra, 0
	move	$a0, $fp
.LBB7_3:                                # %_ZNSt7__cxx1112basic_stringIcSt11char_traitsIcESaIcEED2Ev.exit
	fld.d	$fs7, $sp, 1416                 # 8-byte Folded Reload
	fld.d	$fs6, $sp, 1424                 # 8-byte Folded Reload
	fld.d	$fs5, $sp, 1432                 # 8-byte Folded Reload
	fld.d	$fs4, $sp, 1440                 # 8-byte Folded Reload
	fld.d	$fs3, $sp, 1448                 # 8-byte Folded Reload
	fld.d	$fs2, $sp, 1456                 # 8-byte Folded Reload
	fld.d	$fs1, $sp, 1464                 # 8-byte Folded Reload
	fld.d	$fs0, $sp, 1472                 # 8-byte Folded Reload
	ld.d	$s8, $sp, 1480                  # 8-byte Folded Reload
	ld.d	$s7, $sp, 1488                  # 8-byte Folded Reload
	ld.d	$s6, $sp, 1496                  # 8-byte Folded Reload
	ld.d	$s5, $sp, 1504                  # 8-byte Folded Reload
	ld.d	$s4, $sp, 1512                  # 8-byte Folded Reload
	ld.d	$s3, $sp, 1520                  # 8-byte Folded Reload
	ld.d	$s2, $sp, 1528                  # 8-byte Folded Reload
	ld.d	$s1, $sp, 1536                  # 8-byte Folded Reload
	ld.d	$s0, $sp, 1544                  # 8-byte Folded Reload
	ld.d	$fp, $sp, 1552                  # 8-byte Folded Reload
	ld.d	$ra, $sp, 1560                  # 8-byte Folded Reload
	addi.d	$sp, $sp, 1568
	ret
.LBB7_4:                                # %lpad16
.Ltmp25:                                # EH_LABEL
	ld.d	$a1, $sp, 584
	addi.d	$a2, $sp, 600
	move	$fp, $a0
	beq	$a1, $a2, .LBB7_6
# %bb.5:                                # %if.then.i.i342
	move	$a0, $a1
	pcaddu18i	$ra, %call36(_ZdlPv)
	jirl	$ra, $ra, 0
.LBB7_6:                                # %_ZNSt7__cxx1112basic_stringIcSt11char_traitsIcESaIcEED2Ev.exit346
	move	$a0, $fp
	pcaddu18i	$ra, %call36(_Unwind_Resume)
	jirl	$ra, $ra, 0
.Lfunc_end7:
	.size	_Z19check_frame_variantILb1ELb0ELb0ELb0ELb0EEbiRVi, .Lfunc_end7-_Z19check_frame_variantILb1ELb0ELb0ELb0ELb0EEbiRVi
	.cfi_endproc
	.section	.gcc_except_table._Z19check_frame_variantILb1ELb0ELb0ELb0ELb0EEbiRVi,"aG",@progbits,_Z19check_frame_variantILb1ELb0ELb0ELb0ELb0EEbiRVi,comdat
	.p2align	2, 0x0
GCC_except_table7:
.Lexception1:
	.byte	255                             # @LPStart Encoding = omit
	.byte	255                             # @TType Encoding = omit
	.byte	1                               # Call site Encoding = uleb128
	.uleb128 .Lcst_end1-.Lcst_begin1
.Lcst_begin1:
	.uleb128 .Lfunc_begin1-.Lfunc_begin1    # >> Call Site 1 <<
	.uleb128 .Ltmp23-.Lfunc_begin1          #   Call between .Lfunc_begin1 and .Ltmp23
	.byte	0                               #     has no landing pad
	.byte	0                               #   On action: cleanup
	.uleb128 .Ltmp23-.Lfunc_begin1          # >> Call Site 2 <<
	.uleb128 .Ltmp24-.Ltmp23                #   Call between .Ltmp23 and .Ltmp24
	.uleb128 .Ltmp25-.Lfunc_begin1          #     jumps to .Ltmp25
	.byte	0                               #   On action: cleanup
	.uleb128 .Ltmp24-.Lfunc_begin1          # >> Call Site 3 <<
	.uleb128 .Lfunc_end7-.Ltmp24            #   Call between .Ltmp24 and .Lfunc_end7
	.byte	0                               #     has no landing pad
	.byte	0                               #   On action: cleanup
.Lcst_end1:
	.p2align	2, 0x0
                                        # -- End function
	.section	.text._Z19check_frame_variantILb0ELb0ELb0ELb0ELb0EEbiRVi,"axG",@progbits,_Z19check_frame_variantILb0ELb0ELb0ELb0ELb0EEbiRVi,comdat
	.weak	_Z19check_frame_variantILb0ELb0ELb0ELb0ELb0EEbiRVi # -- Begin function _Z19check_frame_variantILb0ELb0ELb0ELb0ELb0EEbiRVi
	.p2align	5
	.type	_Z19check_frame_variantILb0ELb0ELb0ELb0ELb0EEbiRVi,@function
_Z19check_frame_variantILb0ELb0ELb0ELb0ELb0EEbiRVi: # @_Z19check_frame_variantILb0ELb0ELb0ELb0ELb0EEbiRVi
.Lfunc_begin2:
	.cfi_startproc
	.cfi_personality 155, DW.ref.__gxx_personality_v0
	.cfi_lsda 27, .Lexception2
# %bb.0:                                # %entry
	addi.d	$sp, $sp, -1568
	.cfi_def_cfa_offset 1568
	st.d	$ra, $sp, 1560                  # 8-byte Folded Spill
	st.d	$fp, $sp, 1552                  # 8-byte Folded Spill
	st.d	$s0, $sp, 1544                  # 8-byte Folded Spill
	st.d	$s1, $sp, 1536                  # 8-byte Folded Spill
	st.d	$s2, $sp, 1528                  # 8-byte Folded Spill
	st.d	$s3, $sp, 1520                  # 8-byte Folded Spill
	st.d	$s4, $sp, 1512                  # 8-byte Folded Spill
	st.d	$s5, $sp, 1504                  # 8-byte Folded Spill
	st.d	$s6, $sp, 1496                  # 8-byte Folded Spill
	st.d	$s7, $sp, 1488                  # 8-byte Folded Spill
	st.d	$s8, $sp, 1480                  # 8-byte Folded Spill
	fst.d	$fs0, $sp, 1472                 # 8-byte Folded Spill
	fst.d	$fs1, $sp, 1464                 # 8-byte Folded Spill
	fst.d	$fs2, $sp, 1456                 # 8-byte Folded Spill
	fst.d	$fs3, $sp, 1448                 # 8-byte Folded Spill
	fst.d	$fs4, $sp, 1440                 # 8-byte Folded Spill
	fst.d	$fs5, $sp, 1432                 # 8-byte Folded Spill
	fst.d	$fs6, $sp, 1424                 # 8-byte Folded Spill
	fst.d	$fs7, $sp, 1416                 # 8-byte Folded Spill
	.cfi_offset 1, -8
	.cfi_offset 22, -16
	.cfi_offset 23, -24
	.cfi_offset 24, -32
	.cfi_offset 25, -40
	.cfi_offset 26, -48
	.cfi_offset 27, -56
	.cfi_offset 28, -64
	.cfi_offset 29, -72
	.cfi_offset 30, -80
	.cfi_offset 31, -88
	.cfi_offset 56, -96
	.cfi_offset 57, -104
	.cfi_offset 58, -112
	.cfi_offset 59, -120
	.cfi_offset 60, -128
	.cfi_offset 61, -136
	.cfi_offset 62, -144
	.cfi_offset 63, -152
	st.d	$a1, $sp, 576                   # 8-byte Folded Spill
	move	$s0, $a0
	addi.d	$a0, $sp, 584
	move	$a1, $zero
	move	$a2, $zero
	move	$a3, $zero
	move	$a4, $zero
	move	$a5, $zero
	pcaddu18i	$ra, %call36(_Z24getTestDescriptionStringB5cxx11bbbbb)
	jirl	$ra, $ra, 0
	movgr2fr.w	$fa0, $s0
	ffint.d.w	$fs7, $fa0
	fadd.d	$fa0, $fs7, $fs7
	fst.d	$fa0, $sp, 120                  # 8-byte Folded Spill
	fadd.d	$fa0, $fa0, $fs7
	fst.d	$fa0, $sp, 112                  # 8-byte Folded Spill
	fadd.d	$fa0, $fa0, $fs7
	fst.d	$fa0, $sp, 104                  # 8-byte Folded Spill
	fadd.d	$fa0, $fa0, $fs7
	fst.d	$fa0, $sp, 96                   # 8-byte Folded Spill
	fadd.d	$fa0, $fa0, $fs7
	fst.d	$fa0, $sp, 88                   # 8-byte Folded Spill
	fadd.d	$fa0, $fa0, $fs7
	fst.d	$fa0, $sp, 80                   # 8-byte Folded Spill
	fadd.d	$fa0, $fa0, $fs7
	fst.d	$fa0, $sp, 72                   # 8-byte Folded Spill
	fadd.d	$fs6, $fa0, $fs7
	fadd.d	$fs5, $fs6, $fs7
	fst.d	$fs6, $sp, 184                  # 8-byte Folded Spill
	fadd.d	$fs4, $fs5, $fs7
	fst.d	$fs5, $sp, 192                  # 8-byte Folded Spill
	fadd.d	$fs3, $fs4, $fs7
	fst.d	$fs4, $sp, 216                  # 8-byte Folded Spill
	fadd.d	$fs2, $fs3, $fs7
	fst.d	$fs3, $sp, 224                  # 8-byte Folded Spill
	fadd.d	$fs1, $fs2, $fs7
	fst.d	$fs2, $sp, 240                  # 8-byte Folded Spill
	fadd.d	$fs0, $fs1, $fs7
	fst.d	$fs1, $sp, 256                  # 8-byte Folded Spill
	fadd.d	$ft1, $fs0, $fs7
	fst.d	$fs0, $sp, 272                  # 8-byte Folded Spill
	fadd.d	$ft2, $ft1, $fs7
	fst.d	$ft1, $sp, 304                  # 8-byte Folded Spill
	fadd.d	$ft3, $ft2, $fs7
	fst.d	$ft2, $sp, 320                  # 8-byte Folded Spill
	fadd.d	$ft4, $ft3, $fs7
	fst.d	$ft3, $sp, 336                  # 8-byte Folded Spill
	fadd.d	$ft5, $ft4, $fs7
	fst.d	$ft4, $sp, 344                  # 8-byte Folded Spill
	fadd.d	$ft6, $ft5, $fs7
	fst.d	$ft5, $sp, 360                  # 8-byte Folded Spill
	fadd.d	$ft7, $ft6, $fs7
	fst.d	$ft6, $sp, 376                  # 8-byte Folded Spill
	fadd.d	$ft8, $ft7, $fs7
	fst.d	$ft7, $sp, 392                  # 8-byte Folded Spill
	fadd.d	$ft9, $ft8, $fs7
	fst.d	$ft8, $sp, 408                  # 8-byte Folded Spill
	fadd.d	$ft10, $ft9, $fs7
	fst.d	$ft9, $sp, 416                  # 8-byte Folded Spill
	fadd.d	$ft11, $ft10, $fs7
	fst.d	$ft10, $sp, 432                 # 8-byte Folded Spill
	fadd.d	$ft12, $ft11, $fs7
	fst.d	$ft11, $sp, 448                 # 8-byte Folded Spill
	fadd.d	$ft13, $ft12, $fs7
	fst.d	$ft12, $sp, 464                 # 8-byte Folded Spill
	fadd.d	$ft14, $ft13, $fs7
	fst.d	$ft13, $sp, 472                 # 8-byte Folded Spill
	fadd.d	$ft15, $ft14, $fs7
	fst.d	$ft14, $sp, 488                 # 8-byte Folded Spill
	fadd.d	$ft0, $ft15, $fs7
	fst.d	$ft15, $sp, 496                 # 8-byte Folded Spill
	fadd.d	$fa7, $ft0, $fs7
	fst.d	$fa7, $sp, 512                  # 8-byte Folded Spill
	fst.d	$ft0, $sp, 504                  # 8-byte Folded Spill
	alsl.w	$s6, $s0, $s0, 1
	alsl.w	$s4, $s0, $s0, 2
	alsl.w	$a2, $s0, $s0, 3
	ori	$a0, $zero, 14
	mul.w	$s1, $s0, $a0
	st.d	$s1, $sp, 64                    # 8-byte Folded Spill
	slli.w	$s3, $s0, 4
	sub.w	$t3, $s3, $s0
	st.d	$t3, $sp, 144                   # 8-byte Folded Spill
	alsl.w	$a5, $s0, $s0, 4
	alsl.w	$a6, $s0, $s3, 1
	st.d	$a6, $sp, 168                   # 8-byte Folded Spill
	alsl.w	$a3, $s0, $s3, 2
	st.d	$a3, $sp, 200                   # 8-byte Folded Spill
	ori	$a0, $zero, 22
	mul.w	$a4, $s0, $a0
	st.d	$a4, $sp, 232                   # 8-byte Folded Spill
	ori	$a0, $zero, 23
	mul.w	$a7, $s0, $a0
	st.d	$a7, $sp, 248                   # 8-byte Folded Spill
	alsl.w	$t0, $s0, $s3, 3
	st.d	$t0, $sp, 264                   # 8-byte Folded Spill
	st.d	$s3, $sp, 152                   # 8-byte Folded Spill
	ori	$a0, $zero, 26
	mul.w	$t1, $s0, $a0
	st.d	$t1, $sp, 312                   # 8-byte Folded Spill
	ori	$a0, $zero, 28
	mul.w	$t2, $s0, $a0
	st.d	$t2, $sp, 352                   # 8-byte Folded Spill
	ori	$a0, $zero, 29
	mul.w	$t4, $s0, $a0
	st.d	$t4, $sp, 368                   # 8-byte Folded Spill
	ori	$a0, $zero, 30
	mul.w	$t6, $s0, $a0
	st.d	$t6, $sp, 384                   # 8-byte Folded Spill
	slli.w	$s5, $s0, 5
	sub.w	$fp, $s5, $s0
	st.d	$fp, $sp, 400                   # 8-byte Folded Spill
	add.w	$t7, $s5, $s0
	st.d	$t7, $sp, 424                   # 8-byte Folded Spill
	alsl.w	$t8, $s0, $s5, 1
	st.d	$t8, $sp, 440                   # 8-byte Folded Spill
	alsl.w	$t5, $s0, $s5, 2
	st.d	$t5, $sp, 480                   # 8-byte Folded Spill
	alsl.d	$a0, $s0, $s0, 3
	alsl.d	$a0, $a0, $s0, 2
	fadd.d	$fa6, $fa7, $fs7
	fadd.d	$fa5, $fa6, $fs7
	fst.d	$fa6, $sp, 520                  # 8-byte Folded Spill
	fadd.d	$fa4, $fa5, $fs7
	fst.d	$fa5, $sp, 528                  # 8-byte Folded Spill
	fadd.d	$fa2, $fa4, $fs7
	fst.d	$fa2, $sp, 544                  # 8-byte Folded Spill
	fst.d	$fa4, $sp, 536                  # 8-byte Folded Spill
	fadd.d	$fa3, $fa2, $fs7
	fadd.d	$fa1, $fa3, $fs7
	fst.d	$fa1, $sp, 560                  # 8-byte Folded Spill
	fst.d	$fa3, $sp, 552                  # 8-byte Folded Spill
	fadd.d	$fa0, $fa1, $fs7
	fst.d	$fa0, $sp, 568                  # 8-byte Folded Spill
	fdiv.d	$fa0, $fa0, $fa1
	fdiv.d	$fa0, $fa0, $fa3
	fdiv.d	$fa0, $fa0, $fa2
	fdiv.d	$fa0, $fa0, $fa4
	fdiv.d	$fa0, $fa0, $fa5
	fdiv.d	$fa0, $fa0, $fa6
	fdiv.d	$fa0, $fa0, $fa7
	fdiv.d	$fa0, $fa0, $ft0
	fdiv.d	$fa0, $fa0, $ft15
	fdiv.d	$fa0, $fa0, $ft14
	fdiv.d	$fa0, $fa0, $ft13
	fdiv.d	$fa0, $fa0, $ft12
	fdiv.d	$fa0, $fa0, $ft11
	fdiv.d	$fa0, $fa0, $ft10
	fdiv.d	$fa0, $fa0, $ft9
	fdiv.d	$fa0, $fa0, $ft8
	fdiv.d	$fa0, $fa0, $ft7
	fdiv.d	$fa0, $fa0, $ft6
	fdiv.d	$fa0, $fa0, $ft5
	fdiv.d	$fa0, $fa0, $ft4
	fdiv.d	$fa0, $fa0, $ft3
	fdiv.d	$fa0, $fa0, $ft2
	fdiv.d	$fa0, $fa0, $ft1
	fdiv.d	$fa0, $fa0, $fs0
	fdiv.d	$fa0, $fa0, $fs1
	fdiv.d	$fa0, $fa0, $fs2
	fdiv.d	$fa0, $fa0, $fs3
	fdiv.d	$fa0, $fa0, $fs4
	fdiv.d	$fa0, $fa0, $fs5
	fdiv.d	$fa0, $fa0, $fs6
	fld.d	$fs6, $sp, 72                   # 8-byte Folded Reload
	fdiv.d	$fa0, $fa0, $fs6
	fld.d	$fs5, $sp, 80                   # 8-byte Folded Reload
	fdiv.d	$fa0, $fa0, $fs5
	fld.d	$fs4, $sp, 88                   # 8-byte Folded Reload
	fdiv.d	$fa0, $fa0, $fs4
	fld.d	$fs3, $sp, 96                   # 8-byte Folded Reload
	fdiv.d	$fa0, $fa0, $fs3
	fld.d	$fs2, $sp, 104                  # 8-byte Folded Reload
	fdiv.d	$fa0, $fa0, $fs2
	fld.d	$fs1, $sp, 112                  # 8-byte Folded Reload
	fdiv.d	$fa0, $fa0, $fs1
	fld.d	$fs0, $sp, 120                  # 8-byte Folded Reload
	fdiv.d	$fa0, $fa0, $fs0
	fdiv.d	$fa0, $fa0, $fs7
	addi.w	$a1, $a0, 1
	sltui	$a1, $a1, 3
	maskeqz	$a0, $a0, $a1
	addi.w	$a0, $a0, 0
	div.w	$a0, $a0, $t5
	st.d	$a5, $sp, 160                   # 8-byte Folded Spill
	alsl.w	$a1, $a5, $s0, 1
	st.d	$a1, $sp, 456                   # 8-byte Folded Spill
	div.w	$a0, $a0, $a1
	div.w	$a0, $a0, $t8
	div.w	$a0, $a0, $t7
	div.w	$a0, $a0, $s5
	div.w	$a0, $a0, $fp
	div.w	$a0, $a0, $t6
	div.w	$a0, $a0, $t4
	div.w	$a0, $a0, $t2
	alsl.w	$a1, $s6, $s6, 3
	st.d	$a1, $sp, 328                   # 8-byte Folded Spill
	div.w	$a0, $a0, $a1
	div.w	$a0, $a0, $t1
	alsl.w	$a1, $s6, $s0, 3
	st.d	$a1, $sp, 280                   # 8-byte Folded Spill
	div.w	$a0, $a0, $a1
	div.w	$a0, $a0, $t0
	div.w	$a0, $a0, $a7
	div.w	$a0, $a0, $a4
	alsl.w	$a1, $s4, $s0, 2
	st.d	$a1, $sp, 208                   # 8-byte Folded Spill
	div.w	$a0, $a0, $a1
	div.w	$a0, $a0, $a3
	st.d	$a2, $sp, 32                    # 8-byte Folded Spill
	alsl.w	$a1, $a2, $s0, 1
	st.d	$a1, $sp, 176                   # 8-byte Folded Spill
	div.w	$a0, $a0, $a1
	div.w	$a0, $a0, $a6
	div.w	$a0, $a0, $a5
	div.w	$a0, $a0, $s3
	div.w	$a0, $a0, $t3
	div.w	$a0, $a0, $s1
	alsl.w	$a1, $s6, $s0, 2
	st.d	$a1, $sp, 56                    # 8-byte Folded Spill
	div.w	$a0, $a0, $a1
	slli.w	$s2, $s0, 3
	alsl.w	$a1, $s0, $s2, 2
	st.d	$a1, $sp, 48                    # 8-byte Folded Spill
	div.w	$a0, $a0, $a1
	alsl.w	$a1, $s4, $s0, 1
	st.d	$a1, $sp, 40                    # 8-byte Folded Spill
	move	$s3, $s4
	div.w	$a0, $a0, $a1
	alsl.w	$fp, $s0, $s2, 1
	div.w	$a0, $a0, $fp
	div.w	$a0, $a0, $a2
	div.w	$a0, $a0, $s2
	sub.w	$s8, $s2, $s0
	div.w	$a0, $a0, $s8
	slli.w	$s7, $s0, 2
	alsl.w	$s1, $s0, $s7, 1
	div.w	$a0, $a0, $s1
	div.w	$a0, $a0, $s4
	div.w	$a0, $a0, $s7
	div.w	$a0, $a0, $s6
	slli.w	$s4, $s0, 1
	div.w	$a0, $a0, $s4
	div.w	$a0, $a0, $s0
	movgr2fr.w	$fa1, $a0
	ffint.d.w	$fa1, $fa1
	fadd.d	$fa0, $fa0, $fa1
	fst.d	$fa0, $sp, 296                  # 8-byte Folded Spill
	ori	$a0, $zero, 38
	mul.w	$a0, $s0, $a0
	st.d	$a0, $sp, 136                   # 8-byte Folded Spill
	ori	$a0, $zero, 39
	mul.w	$a0, $s0, $a0
	st.d	$a0, $sp, 128                   # 8-byte Folded Spill
	pcalau12i	$a0, %pc_hi20(.L.str.36)
	addi.d	$a1, $a0, %pc_lo12(.L.str.36)
	st.d	$a1, $sp, 288                   # 8-byte Folded Spill
	ori	$a0, $zero, 100
	addi.d	$a2, $sp, 616
	pcaddu18i	$ra, %call36(_Z10test_frameILj2ELb0ELj2048ELb0ELb0EJEEvDpT4_jPKcP13trace_elementd)
	jirl	$ra, $ra, 0
	fdiv.d	$fa0, $fs7, $fs0
	fdiv.d	$fa0, $fa0, $fs1
	fdiv.d	$fa0, $fa0, $fs2
	fdiv.d	$fa0, $fa0, $fs3
	fdiv.d	$fa0, $fa0, $fs4
	fdiv.d	$fa0, $fa0, $fs5
	fdiv.d	$fa0, $fa0, $fs6
	div.w	$a0, $s0, $s4
	div.w	$a0, $a0, $s6
	div.w	$a0, $a0, $s7
	div.w	$a0, $a0, $s3
	div.w	$a0, $a0, $s1
	div.w	$a0, $a0, $s8
	div.w	$a0, $a0, $s2
	ld.d	$a2, $sp, 32                    # 8-byte Folded Reload
	div.w	$a0, $a0, $a2
	div.w	$a0, $a0, $fp
	ld.d	$a1, $sp, 40                    # 8-byte Folded Reload
	div.w	$a0, $a0, $a1
	ld.d	$a1, $sp, 48                    # 8-byte Folded Reload
	div.w	$a0, $a0, $a1
	ld.d	$a1, $sp, 56                    # 8-byte Folded Reload
	div.w	$a0, $a0, $a1
	ld.d	$a1, $sp, 64                    # 8-byte Folded Reload
	div.w	$a0, $a0, $a1
	fld.d	$fa1, $sp, 184                  # 8-byte Folded Reload
	fdiv.d	$fa0, $fa0, $fa1
	fld.d	$fa1, $sp, 192                  # 8-byte Folded Reload
	fdiv.d	$fa0, $fa0, $fa1
	fld.d	$fa1, $sp, 216                  # 8-byte Folded Reload
	fdiv.d	$fa0, $fa0, $fa1
	fld.d	$fa1, $sp, 224                  # 8-byte Folded Reload
	fdiv.d	$fa0, $fa0, $fa1
	fld.d	$fa1, $sp, 240                  # 8-byte Folded Reload
	fdiv.d	$fa0, $fa0, $fa1
	fld.d	$fa1, $sp, 256                  # 8-byte Folded Reload
	fdiv.d	$fa0, $fa0, $fa1
	fld.d	$fa1, $sp, 272                  # 8-byte Folded Reload
	fdiv.d	$fa0, $fa0, $fa1
	fld.d	$fa1, $sp, 304                  # 8-byte Folded Reload
	fdiv.d	$fa0, $fa0, $fa1
	fld.d	$fa1, $sp, 320                  # 8-byte Folded Reload
	fdiv.d	$fa0, $fa0, $fa1
	fld.d	$fa1, $sp, 336                  # 8-byte Folded Reload
	fdiv.d	$fa0, $fa0, $fa1
	fld.d	$fa1, $sp, 344                  # 8-byte Folded Reload
	fdiv.d	$fa0, $fa0, $fa1
	fld.d	$fa1, $sp, 360                  # 8-byte Folded Reload
	fdiv.d	$fa0, $fa0, $fa1
	fld.d	$fa1, $sp, 376                  # 8-byte Folded Reload
	fdiv.d	$fa0, $fa0, $fa1
	fld.d	$fa1, $sp, 392                  # 8-byte Folded Reload
	fdiv.d	$fa0, $fa0, $fa1
	fld.d	$fa1, $sp, 408                  # 8-byte Folded Reload
	fdiv.d	$fa0, $fa0, $fa1
	fld.d	$fa1, $sp, 416                  # 8-byte Folded Reload
	fdiv.d	$fa0, $fa0, $fa1
	fld.d	$fa1, $sp, 432                  # 8-byte Folded Reload
	fdiv.d	$fa0, $fa0, $fa1
	fld.d	$fa1, $sp, 448                  # 8-byte Folded Reload
	fdiv.d	$fa0, $fa0, $fa1
	fld.d	$fa1, $sp, 464                  # 8-byte Folded Reload
	fdiv.d	$fa0, $fa0, $fa1
	fld.d	$fa1, $sp, 472                  # 8-byte Folded Reload
	fdiv.d	$fa0, $fa0, $fa1
	fld.d	$fa1, $sp, 488                  # 8-byte Folded Reload
	fdiv.d	$fa0, $fa0, $fa1
	fld.d	$fa1, $sp, 496                  # 8-byte Folded Reload
	fdiv.d	$fa0, $fa0, $fa1
	fld.d	$fa1, $sp, 504                  # 8-byte Folded Reload
	fdiv.d	$fa0, $fa0, $fa1
	fld.d	$fa1, $sp, 512                  # 8-byte Folded Reload
	fdiv.d	$fa0, $fa0, $fa1
	fld.d	$fa1, $sp, 520                  # 8-byte Folded Reload
	fdiv.d	$fa0, $fa0, $fa1
	fld.d	$fa1, $sp, 528                  # 8-byte Folded Reload
	fdiv.d	$fa0, $fa0, $fa1
	fld.d	$fa1, $sp, 536                  # 8-byte Folded Reload
	fdiv.d	$fa0, $fa0, $fa1
	fld.d	$fa1, $sp, 544                  # 8-byte Folded Reload
	fdiv.d	$fa0, $fa0, $fa1
	fld.d	$fa1, $sp, 552                  # 8-byte Folded Reload
	fdiv.d	$fa0, $fa0, $fa1
	fld.d	$fa1, $sp, 560                  # 8-byte Folded Reload
	fdiv.d	$fa0, $fa0, $fa1
	ld.d	$a1, $sp, 144                   # 8-byte Folded Reload
	div.w	$a0, $a0, $a1
	ld.d	$a1, $sp, 152                   # 8-byte Folded Reload
	div.w	$a0, $a0, $a1
	ld.d	$a1, $sp, 160                   # 8-byte Folded Reload
	div.w	$a0, $a0, $a1
	ld.d	$a1, $sp, 168                   # 8-byte Folded Reload
	div.w	$a0, $a0, $a1
	ld.d	$a1, $sp, 176                   # 8-byte Folded Reload
	div.w	$a0, $a0, $a1
	ld.d	$a1, $sp, 200                   # 8-byte Folded Reload
	div.w	$a0, $a0, $a1
	ld.d	$a1, $sp, 208                   # 8-byte Folded Reload
	div.w	$a0, $a0, $a1
	ld.d	$a1, $sp, 232                   # 8-byte Folded Reload
	div.w	$a0, $a0, $a1
	ld.d	$a1, $sp, 248                   # 8-byte Folded Reload
	div.w	$a0, $a0, $a1
	ld.d	$a1, $sp, 264                   # 8-byte Folded Reload
	div.w	$a0, $a0, $a1
	ld.d	$a1, $sp, 280                   # 8-byte Folded Reload
	div.w	$a0, $a0, $a1
	ld.d	$a1, $sp, 312                   # 8-byte Folded Reload
	div.w	$a0, $a0, $a1
	ld.d	$a1, $sp, 328                   # 8-byte Folded Reload
	div.w	$a0, $a0, $a1
	ld.d	$a1, $sp, 352                   # 8-byte Folded Reload
	div.w	$a0, $a0, $a1
	ld.d	$a1, $sp, 368                   # 8-byte Folded Reload
	div.w	$a0, $a0, $a1
	ld.d	$a1, $sp, 384                   # 8-byte Folded Reload
	div.w	$a0, $a0, $a1
	ld.d	$a1, $sp, 400                   # 8-byte Folded Reload
	div.w	$a0, $a0, $a1
	div.w	$a0, $a0, $s5
	ld.d	$a1, $sp, 424                   # 8-byte Folded Reload
	div.w	$a0, $a0, $a1
	ld.d	$a1, $sp, 440                   # 8-byte Folded Reload
	div.w	$a0, $a0, $a1
	ld.d	$a1, $sp, 456                   # 8-byte Folded Reload
	div.w	$a0, $a0, $a1
	ld.d	$a1, $sp, 480                   # 8-byte Folded Reload
	div.w	$a0, $a0, $a1
	fld.d	$fa1, $sp, 568                  # 8-byte Folded Reload
	fdiv.d	$fa0, $fa0, $fa1
	fld.d	$fa1, $sp, 616
	alsl.w	$a1, $a2, $s0, 2
	div.w	$a0, $a0, $a1
	ld.d	$a1, $sp, 136                   # 8-byte Folded Reload
	div.w	$a0, $a0, $a1
	fdiv.d	$fa0, $fa0, $fa1
	ld.d	$a1, $sp, 128                   # 8-byte Folded Reload
	div.w	$a0, $a0, $a1
	movfr2gr.d	$a1, $fa1
	addi.w	$a1, $a1, 0
	div.w	$a0, $a0, $a1
	movgr2fr.w	$fa1, $a0
	ffint.d.w	$fa1, $fa1
	ld.d	$a2, $sp, 576                   # 8-byte Folded Reload
	ld.w	$a0, $a2, 0
	fadd.d	$fa0, $fa0, $fa1
	ftintrz.w.d	$fa0, $fa0
	movfr2gr.s	$a1, $fa0
	add.d	$a0, $a0, $a1
	st.w	$a0, $a2, 0
	ld.d	$a0, $sp, 584
.Ltmp26:                                # EH_LABEL
	addi.w	$a1, $zero, -1
	st.d	$a1, $sp, 8
	addi.d	$a2, $sp, 616
	ori	$a3, $zero, 2
	ori	$a6, $zero, 2048
	st.d	$zero, $sp, 0
	ld.d	$a1, $sp, 288                   # 8-byte Folded Reload
	fld.d	$fa0, $sp, 296                  # 8-byte Folded Reload
	move	$a4, $zero
	move	$a7, $zero
	pcaddu18i	$ra, %call36(_Z11check_tracePKcS0_PK13trace_elementdjbjjbbi)
	jirl	$ra, $ra, 0
.Ltmp27:                                # EH_LABEL
# %bb.1:                                # %invoke.cont17
	ld.d	$a1, $sp, 584
	addi.d	$a2, $sp, 600
	beq	$a1, $a2, .LBB8_3
# %bb.2:                                # %if.then.i.i
	move	$fp, $a0
	move	$a0, $a1
	pcaddu18i	$ra, %call36(_ZdlPv)
	jirl	$ra, $ra, 0
	move	$a0, $fp
.LBB8_3:                                # %_ZNSt7__cxx1112basic_stringIcSt11char_traitsIcESaIcEED2Ev.exit
	fld.d	$fs7, $sp, 1416                 # 8-byte Folded Reload
	fld.d	$fs6, $sp, 1424                 # 8-byte Folded Reload
	fld.d	$fs5, $sp, 1432                 # 8-byte Folded Reload
	fld.d	$fs4, $sp, 1440                 # 8-byte Folded Reload
	fld.d	$fs3, $sp, 1448                 # 8-byte Folded Reload
	fld.d	$fs2, $sp, 1456                 # 8-byte Folded Reload
	fld.d	$fs1, $sp, 1464                 # 8-byte Folded Reload
	fld.d	$fs0, $sp, 1472                 # 8-byte Folded Reload
	ld.d	$s8, $sp, 1480                  # 8-byte Folded Reload
	ld.d	$s7, $sp, 1488                  # 8-byte Folded Reload
	ld.d	$s6, $sp, 1496                  # 8-byte Folded Reload
	ld.d	$s5, $sp, 1504                  # 8-byte Folded Reload
	ld.d	$s4, $sp, 1512                  # 8-byte Folded Reload
	ld.d	$s3, $sp, 1520                  # 8-byte Folded Reload
	ld.d	$s2, $sp, 1528                  # 8-byte Folded Reload
	ld.d	$s1, $sp, 1536                  # 8-byte Folded Reload
	ld.d	$s0, $sp, 1544                  # 8-byte Folded Reload
	ld.d	$fp, $sp, 1552                  # 8-byte Folded Reload
	ld.d	$ra, $sp, 1560                  # 8-byte Folded Reload
	addi.d	$sp, $sp, 1568
	ret
.LBB8_4:                                # %lpad16
.Ltmp28:                                # EH_LABEL
	ld.d	$a1, $sp, 584
	addi.d	$a2, $sp, 600
	move	$fp, $a0
	beq	$a1, $a2, .LBB8_6
# %bb.5:                                # %if.then.i.i342
	move	$a0, $a1
	pcaddu18i	$ra, %call36(_ZdlPv)
	jirl	$ra, $ra, 0
.LBB8_6:                                # %_ZNSt7__cxx1112basic_stringIcSt11char_traitsIcESaIcEED2Ev.exit346
	move	$a0, $fp
	pcaddu18i	$ra, %call36(_Unwind_Resume)
	jirl	$ra, $ra, 0
.Lfunc_end8:
	.size	_Z19check_frame_variantILb0ELb0ELb0ELb0ELb0EEbiRVi, .Lfunc_end8-_Z19check_frame_variantILb0ELb0ELb0ELb0ELb0EEbiRVi
	.cfi_endproc
	.section	.gcc_except_table._Z19check_frame_variantILb0ELb0ELb0ELb0ELb0EEbiRVi,"aG",@progbits,_Z19check_frame_variantILb0ELb0ELb0ELb0ELb0EEbiRVi,comdat
	.p2align	2, 0x0
GCC_except_table8:
.Lexception2:
	.byte	255                             # @LPStart Encoding = omit
	.byte	255                             # @TType Encoding = omit
	.byte	1                               # Call site Encoding = uleb128
	.uleb128 .Lcst_end2-.Lcst_begin2
.Lcst_begin2:
	.uleb128 .Lfunc_begin2-.Lfunc_begin2    # >> Call Site 1 <<
	.uleb128 .Ltmp26-.Lfunc_begin2          #   Call between .Lfunc_begin2 and .Ltmp26
	.byte	0                               #     has no landing pad
	.byte	0                               #   On action: cleanup
	.uleb128 .Ltmp26-.Lfunc_begin2          # >> Call Site 2 <<
	.uleb128 .Ltmp27-.Ltmp26                #   Call between .Ltmp26 and .Ltmp27
	.uleb128 .Ltmp28-.Lfunc_begin2          #     jumps to .Ltmp28
	.byte	0                               #   On action: cleanup
	.uleb128 .Ltmp27-.Lfunc_begin2          # >> Call Site 3 <<
	.uleb128 .Lfunc_end8-.Ltmp27            #   Call between .Ltmp27 and .Lfunc_end8
	.byte	0                               #     has no landing pad
	.byte	0                               #   On action: cleanup
.Lcst_end2:
	.p2align	2, 0x0
                                        # -- End function
	.section	.text._Z19check_frame_variantILb1ELb1ELb0ELb0ELb0EEbiRVi,"axG",@progbits,_Z19check_frame_variantILb1ELb1ELb0ELb0ELb0EEbiRVi,comdat
	.weak	_Z19check_frame_variantILb1ELb1ELb0ELb0ELb0EEbiRVi # -- Begin function _Z19check_frame_variantILb1ELb1ELb0ELb0ELb0EEbiRVi
	.p2align	5
	.type	_Z19check_frame_variantILb1ELb1ELb0ELb0ELb0EEbiRVi,@function
_Z19check_frame_variantILb1ELb1ELb0ELb0ELb0EEbiRVi: # @_Z19check_frame_variantILb1ELb1ELb0ELb0ELb0EEbiRVi
.Lfunc_begin3:
	.cfi_startproc
	.cfi_personality 155, DW.ref.__gxx_personality_v0
	.cfi_lsda 27, .Lexception3
# %bb.0:                                # %entry
	addi.d	$sp, $sp, -1568
	.cfi_def_cfa_offset 1568
	st.d	$ra, $sp, 1560                  # 8-byte Folded Spill
	st.d	$fp, $sp, 1552                  # 8-byte Folded Spill
	st.d	$s0, $sp, 1544                  # 8-byte Folded Spill
	st.d	$s1, $sp, 1536                  # 8-byte Folded Spill
	st.d	$s2, $sp, 1528                  # 8-byte Folded Spill
	st.d	$s3, $sp, 1520                  # 8-byte Folded Spill
	st.d	$s4, $sp, 1512                  # 8-byte Folded Spill
	st.d	$s5, $sp, 1504                  # 8-byte Folded Spill
	st.d	$s6, $sp, 1496                  # 8-byte Folded Spill
	st.d	$s7, $sp, 1488                  # 8-byte Folded Spill
	st.d	$s8, $sp, 1480                  # 8-byte Folded Spill
	fst.d	$fs0, $sp, 1472                 # 8-byte Folded Spill
	fst.d	$fs1, $sp, 1464                 # 8-byte Folded Spill
	fst.d	$fs2, $sp, 1456                 # 8-byte Folded Spill
	fst.d	$fs3, $sp, 1448                 # 8-byte Folded Spill
	fst.d	$fs4, $sp, 1440                 # 8-byte Folded Spill
	fst.d	$fs5, $sp, 1432                 # 8-byte Folded Spill
	fst.d	$fs6, $sp, 1424                 # 8-byte Folded Spill
	fst.d	$fs7, $sp, 1416                 # 8-byte Folded Spill
	.cfi_offset 1, -8
	.cfi_offset 22, -16
	.cfi_offset 23, -24
	.cfi_offset 24, -32
	.cfi_offset 25, -40
	.cfi_offset 26, -48
	.cfi_offset 27, -56
	.cfi_offset 28, -64
	.cfi_offset 29, -72
	.cfi_offset 30, -80
	.cfi_offset 31, -88
	.cfi_offset 56, -96
	.cfi_offset 57, -104
	.cfi_offset 58, -112
	.cfi_offset 59, -120
	.cfi_offset 60, -128
	.cfi_offset 61, -136
	.cfi_offset 62, -144
	.cfi_offset 63, -152
	st.d	$a1, $sp, 576                   # 8-byte Folded Spill
	move	$s0, $a0
	addi.d	$a0, $sp, 584
	ori	$a1, $zero, 1
	ori	$a2, $zero, 1
	move	$a3, $zero
	move	$a4, $zero
	move	$a5, $zero
	pcaddu18i	$ra, %call36(_Z24getTestDescriptionStringB5cxx11bbbbb)
	jirl	$ra, $ra, 0
	movgr2fr.w	$fa0, $s0
	ffint.d.w	$fs7, $fa0
	fadd.d	$fa0, $fs7, $fs7
	fst.d	$fa0, $sp, 120                  # 8-byte Folded Spill
	fadd.d	$fa0, $fa0, $fs7
	fst.d	$fa0, $sp, 112                  # 8-byte Folded Spill
	fadd.d	$fa0, $fa0, $fs7
	fst.d	$fa0, $sp, 104                  # 8-byte Folded Spill
	fadd.d	$fa0, $fa0, $fs7
	fst.d	$fa0, $sp, 96                   # 8-byte Folded Spill
	fadd.d	$fa0, $fa0, $fs7
	fst.d	$fa0, $sp, 88                   # 8-byte Folded Spill
	fadd.d	$fa0, $fa0, $fs7
	fst.d	$fa0, $sp, 80                   # 8-byte Folded Spill
	fadd.d	$fa0, $fa0, $fs7
	fst.d	$fa0, $sp, 72                   # 8-byte Folded Spill
	fadd.d	$fs6, $fa0, $fs7
	fadd.d	$fs5, $fs6, $fs7
	fst.d	$fs6, $sp, 184                  # 8-byte Folded Spill
	fadd.d	$fs4, $fs5, $fs7
	fst.d	$fs5, $sp, 192                  # 8-byte Folded Spill
	fadd.d	$fs3, $fs4, $fs7
	fst.d	$fs4, $sp, 216                  # 8-byte Folded Spill
	fadd.d	$fs2, $fs3, $fs7
	fst.d	$fs3, $sp, 224                  # 8-byte Folded Spill
	fadd.d	$fs1, $fs2, $fs7
	fst.d	$fs2, $sp, 240                  # 8-byte Folded Spill
	fadd.d	$fs0, $fs1, $fs7
	fst.d	$fs1, $sp, 256                  # 8-byte Folded Spill
	fadd.d	$ft1, $fs0, $fs7
	fst.d	$fs0, $sp, 272                  # 8-byte Folded Spill
	fadd.d	$ft2, $ft1, $fs7
	fst.d	$ft1, $sp, 304                  # 8-byte Folded Spill
	fadd.d	$ft3, $ft2, $fs7
	fst.d	$ft2, $sp, 320                  # 8-byte Folded Spill
	fadd.d	$ft4, $ft3, $fs7
	fst.d	$ft3, $sp, 336                  # 8-byte Folded Spill
	fadd.d	$ft5, $ft4, $fs7
	fst.d	$ft4, $sp, 344                  # 8-byte Folded Spill
	fadd.d	$ft6, $ft5, $fs7
	fst.d	$ft5, $sp, 360                  # 8-byte Folded Spill
	fadd.d	$ft7, $ft6, $fs7
	fst.d	$ft6, $sp, 376                  # 8-byte Folded Spill
	fadd.d	$ft8, $ft7, $fs7
	fst.d	$ft7, $sp, 392                  # 8-byte Folded Spill
	fadd.d	$ft9, $ft8, $fs7
	fst.d	$ft8, $sp, 408                  # 8-byte Folded Spill
	fadd.d	$ft10, $ft9, $fs7
	fst.d	$ft9, $sp, 416                  # 8-byte Folded Spill
	fadd.d	$ft11, $ft10, $fs7
	fst.d	$ft10, $sp, 432                 # 8-byte Folded Spill
	fadd.d	$ft12, $ft11, $fs7
	fst.d	$ft11, $sp, 448                 # 8-byte Folded Spill
	fadd.d	$ft13, $ft12, $fs7
	fst.d	$ft12, $sp, 464                 # 8-byte Folded Spill
	fadd.d	$ft14, $ft13, $fs7
	fst.d	$ft13, $sp, 472                 # 8-byte Folded Spill
	fadd.d	$ft15, $ft14, $fs7
	fst.d	$ft14, $sp, 488                 # 8-byte Folded Spill
	fadd.d	$ft0, $ft15, $fs7
	fst.d	$ft15, $sp, 496                 # 8-byte Folded Spill
	fadd.d	$fa7, $ft0, $fs7
	fst.d	$fa7, $sp, 512                  # 8-byte Folded Spill
	fst.d	$ft0, $sp, 504                  # 8-byte Folded Spill
	alsl.w	$s6, $s0, $s0, 1
	alsl.w	$s4, $s0, $s0, 2
	alsl.w	$a2, $s0, $s0, 3
	ori	$a0, $zero, 14
	mul.w	$s1, $s0, $a0
	st.d	$s1, $sp, 64                    # 8-byte Folded Spill
	slli.w	$s3, $s0, 4
	sub.w	$t3, $s3, $s0
	st.d	$t3, $sp, 144                   # 8-byte Folded Spill
	alsl.w	$a5, $s0, $s0, 4
	alsl.w	$a6, $s0, $s3, 1
	st.d	$a6, $sp, 168                   # 8-byte Folded Spill
	alsl.w	$a3, $s0, $s3, 2
	st.d	$a3, $sp, 200                   # 8-byte Folded Spill
	ori	$a0, $zero, 22
	mul.w	$a4, $s0, $a0
	st.d	$a4, $sp, 232                   # 8-byte Folded Spill
	ori	$a0, $zero, 23
	mul.w	$a7, $s0, $a0
	st.d	$a7, $sp, 248                   # 8-byte Folded Spill
	alsl.w	$t0, $s0, $s3, 3
	st.d	$t0, $sp, 264                   # 8-byte Folded Spill
	st.d	$s3, $sp, 152                   # 8-byte Folded Spill
	ori	$a0, $zero, 26
	mul.w	$t1, $s0, $a0
	st.d	$t1, $sp, 312                   # 8-byte Folded Spill
	ori	$a0, $zero, 28
	mul.w	$t2, $s0, $a0
	st.d	$t2, $sp, 352                   # 8-byte Folded Spill
	ori	$a0, $zero, 29
	mul.w	$t4, $s0, $a0
	st.d	$t4, $sp, 368                   # 8-byte Folded Spill
	ori	$a0, $zero, 30
	mul.w	$t6, $s0, $a0
	st.d	$t6, $sp, 384                   # 8-byte Folded Spill
	slli.w	$s5, $s0, 5
	sub.w	$fp, $s5, $s0
	st.d	$fp, $sp, 400                   # 8-byte Folded Spill
	add.w	$t7, $s5, $s0
	st.d	$t7, $sp, 424                   # 8-byte Folded Spill
	alsl.w	$t8, $s0, $s5, 1
	st.d	$t8, $sp, 440                   # 8-byte Folded Spill
	alsl.w	$t5, $s0, $s5, 2
	st.d	$t5, $sp, 480                   # 8-byte Folded Spill
	alsl.d	$a0, $s0, $s0, 3
	alsl.d	$a0, $a0, $s0, 2
	fadd.d	$fa6, $fa7, $fs7
	fadd.d	$fa5, $fa6, $fs7
	fst.d	$fa6, $sp, 520                  # 8-byte Folded Spill
	fadd.d	$fa4, $fa5, $fs7
	fst.d	$fa5, $sp, 528                  # 8-byte Folded Spill
	fadd.d	$fa2, $fa4, $fs7
	fst.d	$fa2, $sp, 544                  # 8-byte Folded Spill
	fst.d	$fa4, $sp, 536                  # 8-byte Folded Spill
	fadd.d	$fa3, $fa2, $fs7
	fadd.d	$fa1, $fa3, $fs7
	fst.d	$fa1, $sp, 560                  # 8-byte Folded Spill
	fst.d	$fa3, $sp, 552                  # 8-byte Folded Spill
	fadd.d	$fa0, $fa1, $fs7
	fst.d	$fa0, $sp, 568                  # 8-byte Folded Spill
	fdiv.d	$fa0, $fa0, $fa1
	fdiv.d	$fa0, $fa0, $fa3
	fdiv.d	$fa0, $fa0, $fa2
	fdiv.d	$fa0, $fa0, $fa4
	fdiv.d	$fa0, $fa0, $fa5
	fdiv.d	$fa0, $fa0, $fa6
	fdiv.d	$fa0, $fa0, $fa7
	fdiv.d	$fa0, $fa0, $ft0
	fdiv.d	$fa0, $fa0, $ft15
	fdiv.d	$fa0, $fa0, $ft14
	fdiv.d	$fa0, $fa0, $ft13
	fdiv.d	$fa0, $fa0, $ft12
	fdiv.d	$fa0, $fa0, $ft11
	fdiv.d	$fa0, $fa0, $ft10
	fdiv.d	$fa0, $fa0, $ft9
	fdiv.d	$fa0, $fa0, $ft8
	fdiv.d	$fa0, $fa0, $ft7
	fdiv.d	$fa0, $fa0, $ft6
	fdiv.d	$fa0, $fa0, $ft5
	fdiv.d	$fa0, $fa0, $ft4
	fdiv.d	$fa0, $fa0, $ft3
	fdiv.d	$fa0, $fa0, $ft2
	fdiv.d	$fa0, $fa0, $ft1
	fdiv.d	$fa0, $fa0, $fs0
	fdiv.d	$fa0, $fa0, $fs1
	fdiv.d	$fa0, $fa0, $fs2
	fdiv.d	$fa0, $fa0, $fs3
	fdiv.d	$fa0, $fa0, $fs4
	fdiv.d	$fa0, $fa0, $fs5
	fdiv.d	$fa0, $fa0, $fs6
	fld.d	$fs6, $sp, 72                   # 8-byte Folded Reload
	fdiv.d	$fa0, $fa0, $fs6
	fld.d	$fs5, $sp, 80                   # 8-byte Folded Reload
	fdiv.d	$fa0, $fa0, $fs5
	fld.d	$fs4, $sp, 88                   # 8-byte Folded Reload
	fdiv.d	$fa0, $fa0, $fs4
	fld.d	$fs3, $sp, 96                   # 8-byte Folded Reload
	fdiv.d	$fa0, $fa0, $fs3
	fld.d	$fs2, $sp, 104                  # 8-byte Folded Reload
	fdiv.d	$fa0, $fa0, $fs2
	fld.d	$fs1, $sp, 112                  # 8-byte Folded Reload
	fdiv.d	$fa0, $fa0, $fs1
	fld.d	$fs0, $sp, 120                  # 8-byte Folded Reload
	fdiv.d	$fa0, $fa0, $fs0
	fdiv.d	$fa0, $fa0, $fs7
	addi.w	$a1, $a0, 1
	sltui	$a1, $a1, 3
	maskeqz	$a0, $a0, $a1
	addi.w	$a0, $a0, 0
	div.w	$a0, $a0, $t5
	st.d	$a5, $sp, 160                   # 8-byte Folded Spill
	alsl.w	$a1, $a5, $s0, 1
	st.d	$a1, $sp, 456                   # 8-byte Folded Spill
	div.w	$a0, $a0, $a1
	div.w	$a0, $a0, $t8
	div.w	$a0, $a0, $t7
	div.w	$a0, $a0, $s5
	div.w	$a0, $a0, $fp
	div.w	$a0, $a0, $t6
	div.w	$a0, $a0, $t4
	div.w	$a0, $a0, $t2
	alsl.w	$a1, $s6, $s6, 3
	st.d	$a1, $sp, 328                   # 8-byte Folded Spill
	div.w	$a0, $a0, $a1
	div.w	$a0, $a0, $t1
	alsl.w	$a1, $s6, $s0, 3
	st.d	$a1, $sp, 280                   # 8-byte Folded Spill
	div.w	$a0, $a0, $a1
	div.w	$a0, $a0, $t0
	div.w	$a0, $a0, $a7
	div.w	$a0, $a0, $a4
	alsl.w	$a1, $s4, $s0, 2
	st.d	$a1, $sp, 208                   # 8-byte Folded Spill
	div.w	$a0, $a0, $a1
	div.w	$a0, $a0, $a3
	st.d	$a2, $sp, 32                    # 8-byte Folded Spill
	alsl.w	$a1, $a2, $s0, 1
	st.d	$a1, $sp, 176                   # 8-byte Folded Spill
	div.w	$a0, $a0, $a1
	div.w	$a0, $a0, $a6
	div.w	$a0, $a0, $a5
	div.w	$a0, $a0, $s3
	div.w	$a0, $a0, $t3
	div.w	$a0, $a0, $s1
	alsl.w	$a1, $s6, $s0, 2
	st.d	$a1, $sp, 56                    # 8-byte Folded Spill
	div.w	$a0, $a0, $a1
	slli.w	$s2, $s0, 3
	alsl.w	$a1, $s0, $s2, 2
	st.d	$a1, $sp, 48                    # 8-byte Folded Spill
	div.w	$a0, $a0, $a1
	alsl.w	$a1, $s4, $s0, 1
	st.d	$a1, $sp, 40                    # 8-byte Folded Spill
	move	$s3, $s4
	div.w	$a0, $a0, $a1
	alsl.w	$fp, $s0, $s2, 1
	div.w	$a0, $a0, $fp
	div.w	$a0, $a0, $a2
	div.w	$a0, $a0, $s2
	sub.w	$s8, $s2, $s0
	div.w	$a0, $a0, $s8
	slli.w	$s7, $s0, 2
	alsl.w	$s1, $s0, $s7, 1
	div.w	$a0, $a0, $s1
	div.w	$a0, $a0, $s4
	div.w	$a0, $a0, $s7
	div.w	$a0, $a0, $s6
	slli.w	$s4, $s0, 1
	div.w	$a0, $a0, $s4
	div.w	$a0, $a0, $s0
	movgr2fr.w	$fa1, $a0
	ffint.d.w	$fa1, $fa1
	fadd.d	$fa0, $fa0, $fa1
	fst.d	$fa0, $sp, 296                  # 8-byte Folded Spill
	ori	$a0, $zero, 38
	mul.w	$a0, $s0, $a0
	st.d	$a0, $sp, 136                   # 8-byte Folded Spill
	ori	$a0, $zero, 39
	mul.w	$a0, $s0, $a0
	st.d	$a0, $sp, 128                   # 8-byte Folded Spill
	pcalau12i	$a0, %pc_hi20(.L.str.36)
	addi.d	$a1, $a0, %pc_lo12(.L.str.36)
	st.d	$a1, $sp, 288                   # 8-byte Folded Spill
	ori	$a0, $zero, 100
	addi.d	$a2, $sp, 616
	pcaddu18i	$ra, %call36(_Z10test_frameILj4096ELb1ELj2048ELb0ELb0EJEEvDpT4_jPKcP13trace_elementd)
	jirl	$ra, $ra, 0
	fdiv.d	$fa0, $fs7, $fs0
	fdiv.d	$fa0, $fa0, $fs1
	fdiv.d	$fa0, $fa0, $fs2
	fdiv.d	$fa0, $fa0, $fs3
	fdiv.d	$fa0, $fa0, $fs4
	fdiv.d	$fa0, $fa0, $fs5
	fdiv.d	$fa0, $fa0, $fs6
	div.w	$a0, $s0, $s4
	div.w	$a0, $a0, $s6
	div.w	$a0, $a0, $s7
	div.w	$a0, $a0, $s3
	div.w	$a0, $a0, $s1
	div.w	$a0, $a0, $s8
	div.w	$a0, $a0, $s2
	ld.d	$a2, $sp, 32                    # 8-byte Folded Reload
	div.w	$a0, $a0, $a2
	div.w	$a0, $a0, $fp
	ld.d	$a1, $sp, 40                    # 8-byte Folded Reload
	div.w	$a0, $a0, $a1
	ld.d	$a1, $sp, 48                    # 8-byte Folded Reload
	div.w	$a0, $a0, $a1
	ld.d	$a1, $sp, 56                    # 8-byte Folded Reload
	div.w	$a0, $a0, $a1
	ld.d	$a1, $sp, 64                    # 8-byte Folded Reload
	div.w	$a0, $a0, $a1
	fld.d	$fa1, $sp, 184                  # 8-byte Folded Reload
	fdiv.d	$fa0, $fa0, $fa1
	fld.d	$fa1, $sp, 192                  # 8-byte Folded Reload
	fdiv.d	$fa0, $fa0, $fa1
	fld.d	$fa1, $sp, 216                  # 8-byte Folded Reload
	fdiv.d	$fa0, $fa0, $fa1
	fld.d	$fa1, $sp, 224                  # 8-byte Folded Reload
	fdiv.d	$fa0, $fa0, $fa1
	fld.d	$fa1, $sp, 240                  # 8-byte Folded Reload
	fdiv.d	$fa0, $fa0, $fa1
	fld.d	$fa1, $sp, 256                  # 8-byte Folded Reload
	fdiv.d	$fa0, $fa0, $fa1
	fld.d	$fa1, $sp, 272                  # 8-byte Folded Reload
	fdiv.d	$fa0, $fa0, $fa1
	fld.d	$fa1, $sp, 304                  # 8-byte Folded Reload
	fdiv.d	$fa0, $fa0, $fa1
	fld.d	$fa1, $sp, 320                  # 8-byte Folded Reload
	fdiv.d	$fa0, $fa0, $fa1
	fld.d	$fa1, $sp, 336                  # 8-byte Folded Reload
	fdiv.d	$fa0, $fa0, $fa1
	fld.d	$fa1, $sp, 344                  # 8-byte Folded Reload
	fdiv.d	$fa0, $fa0, $fa1
	fld.d	$fa1, $sp, 360                  # 8-byte Folded Reload
	fdiv.d	$fa0, $fa0, $fa1
	fld.d	$fa1, $sp, 376                  # 8-byte Folded Reload
	fdiv.d	$fa0, $fa0, $fa1
	fld.d	$fa1, $sp, 392                  # 8-byte Folded Reload
	fdiv.d	$fa0, $fa0, $fa1
	fld.d	$fa1, $sp, 408                  # 8-byte Folded Reload
	fdiv.d	$fa0, $fa0, $fa1
	fld.d	$fa1, $sp, 416                  # 8-byte Folded Reload
	fdiv.d	$fa0, $fa0, $fa1
	fld.d	$fa1, $sp, 432                  # 8-byte Folded Reload
	fdiv.d	$fa0, $fa0, $fa1
	fld.d	$fa1, $sp, 448                  # 8-byte Folded Reload
	fdiv.d	$fa0, $fa0, $fa1
	fld.d	$fa1, $sp, 464                  # 8-byte Folded Reload
	fdiv.d	$fa0, $fa0, $fa1
	fld.d	$fa1, $sp, 472                  # 8-byte Folded Reload
	fdiv.d	$fa0, $fa0, $fa1
	fld.d	$fa1, $sp, 488                  # 8-byte Folded Reload
	fdiv.d	$fa0, $fa0, $fa1
	fld.d	$fa1, $sp, 496                  # 8-byte Folded Reload
	fdiv.d	$fa0, $fa0, $fa1
	fld.d	$fa1, $sp, 504                  # 8-byte Folded Reload
	fdiv.d	$fa0, $fa0, $fa1
	fld.d	$fa1, $sp, 512                  # 8-byte Folded Reload
	fdiv.d	$fa0, $fa0, $fa1
	fld.d	$fa1, $sp, 520                  # 8-byte Folded Reload
	fdiv.d	$fa0, $fa0, $fa1
	fld.d	$fa1, $sp, 528                  # 8-byte Folded Reload
	fdiv.d	$fa0, $fa0, $fa1
	fld.d	$fa1, $sp, 536                  # 8-byte Folded Reload
	fdiv.d	$fa0, $fa0, $fa1
	fld.d	$fa1, $sp, 544                  # 8-byte Folded Reload
	fdiv.d	$fa0, $fa0, $fa1
	fld.d	$fa1, $sp, 552                  # 8-byte Folded Reload
	fdiv.d	$fa0, $fa0, $fa1
	fld.d	$fa1, $sp, 560                  # 8-byte Folded Reload
	fdiv.d	$fa0, $fa0, $fa1
	ld.d	$a1, $sp, 144                   # 8-byte Folded Reload
	div.w	$a0, $a0, $a1
	ld.d	$a1, $sp, 152                   # 8-byte Folded Reload
	div.w	$a0, $a0, $a1
	ld.d	$a1, $sp, 160                   # 8-byte Folded Reload
	div.w	$a0, $a0, $a1
	ld.d	$a1, $sp, 168                   # 8-byte Folded Reload
	div.w	$a0, $a0, $a1
	ld.d	$a1, $sp, 176                   # 8-byte Folded Reload
	div.w	$a0, $a0, $a1
	ld.d	$a1, $sp, 200                   # 8-byte Folded Reload
	div.w	$a0, $a0, $a1
	ld.d	$a1, $sp, 208                   # 8-byte Folded Reload
	div.w	$a0, $a0, $a1
	ld.d	$a1, $sp, 232                   # 8-byte Folded Reload
	div.w	$a0, $a0, $a1
	ld.d	$a1, $sp, 248                   # 8-byte Folded Reload
	div.w	$a0, $a0, $a1
	ld.d	$a1, $sp, 264                   # 8-byte Folded Reload
	div.w	$a0, $a0, $a1
	ld.d	$a1, $sp, 280                   # 8-byte Folded Reload
	div.w	$a0, $a0, $a1
	ld.d	$a1, $sp, 312                   # 8-byte Folded Reload
	div.w	$a0, $a0, $a1
	ld.d	$a1, $sp, 328                   # 8-byte Folded Reload
	div.w	$a0, $a0, $a1
	ld.d	$a1, $sp, 352                   # 8-byte Folded Reload
	div.w	$a0, $a0, $a1
	ld.d	$a1, $sp, 368                   # 8-byte Folded Reload
	div.w	$a0, $a0, $a1
	ld.d	$a1, $sp, 384                   # 8-byte Folded Reload
	div.w	$a0, $a0, $a1
	ld.d	$a1, $sp, 400                   # 8-byte Folded Reload
	div.w	$a0, $a0, $a1
	div.w	$a0, $a0, $s5
	ld.d	$a1, $sp, 424                   # 8-byte Folded Reload
	div.w	$a0, $a0, $a1
	ld.d	$a1, $sp, 440                   # 8-byte Folded Reload
	div.w	$a0, $a0, $a1
	ld.d	$a1, $sp, 456                   # 8-byte Folded Reload
	div.w	$a0, $a0, $a1
	ld.d	$a1, $sp, 480                   # 8-byte Folded Reload
	div.w	$a0, $a0, $a1
	fld.d	$fa1, $sp, 568                  # 8-byte Folded Reload
	fdiv.d	$fa0, $fa0, $fa1
	fld.d	$fa1, $sp, 616
	alsl.w	$a1, $a2, $s0, 2
	div.w	$a0, $a0, $a1
	ld.d	$a1, $sp, 136                   # 8-byte Folded Reload
	div.w	$a0, $a0, $a1
	fdiv.d	$fa0, $fa0, $fa1
	ld.d	$a1, $sp, 128                   # 8-byte Folded Reload
	div.w	$a0, $a0, $a1
	movfr2gr.d	$a1, $fa1
	addi.w	$a1, $a1, 0
	div.w	$a0, $a0, $a1
	movgr2fr.w	$fa1, $a0
	ffint.d.w	$fa1, $fa1
	ld.d	$a2, $sp, 576                   # 8-byte Folded Reload
	ld.w	$a0, $a2, 0
	fadd.d	$fa0, $fa0, $fa1
	ftintrz.w.d	$fa0, $fa0
	movfr2gr.s	$a1, $fa0
	add.d	$a0, $a0, $a1
	st.w	$a0, $a2, 0
	ld.d	$a0, $sp, 584
.Ltmp29:                                # EH_LABEL
	addi.w	$a1, $zero, -1
	st.d	$a1, $sp, 8
	lu12i.w	$a3, 1
	addi.d	$a2, $sp, 616
	ori	$a4, $zero, 1
	ori	$a6, $zero, 2048
	st.d	$zero, $sp, 0
	ld.d	$a1, $sp, 288                   # 8-byte Folded Reload
	fld.d	$fa0, $sp, 296                  # 8-byte Folded Reload
	move	$a7, $zero
	pcaddu18i	$ra, %call36(_Z11check_tracePKcS0_PK13trace_elementdjbjjbbi)
	jirl	$ra, $ra, 0
.Ltmp30:                                # EH_LABEL
# %bb.1:                                # %invoke.cont17
	ld.d	$a1, $sp, 584
	addi.d	$a2, $sp, 600
	beq	$a1, $a2, .LBB9_3
# %bb.2:                                # %if.then.i.i
	move	$fp, $a0
	move	$a0, $a1
	pcaddu18i	$ra, %call36(_ZdlPv)
	jirl	$ra, $ra, 0
	move	$a0, $fp
.LBB9_3:                                # %_ZNSt7__cxx1112basic_stringIcSt11char_traitsIcESaIcEED2Ev.exit
	fld.d	$fs7, $sp, 1416                 # 8-byte Folded Reload
	fld.d	$fs6, $sp, 1424                 # 8-byte Folded Reload
	fld.d	$fs5, $sp, 1432                 # 8-byte Folded Reload
	fld.d	$fs4, $sp, 1440                 # 8-byte Folded Reload
	fld.d	$fs3, $sp, 1448                 # 8-byte Folded Reload
	fld.d	$fs2, $sp, 1456                 # 8-byte Folded Reload
	fld.d	$fs1, $sp, 1464                 # 8-byte Folded Reload
	fld.d	$fs0, $sp, 1472                 # 8-byte Folded Reload
	ld.d	$s8, $sp, 1480                  # 8-byte Folded Reload
	ld.d	$s7, $sp, 1488                  # 8-byte Folded Reload
	ld.d	$s6, $sp, 1496                  # 8-byte Folded Reload
	ld.d	$s5, $sp, 1504                  # 8-byte Folded Reload
	ld.d	$s4, $sp, 1512                  # 8-byte Folded Reload
	ld.d	$s3, $sp, 1520                  # 8-byte Folded Reload
	ld.d	$s2, $sp, 1528                  # 8-byte Folded Reload
	ld.d	$s1, $sp, 1536                  # 8-byte Folded Reload
	ld.d	$s0, $sp, 1544                  # 8-byte Folded Reload
	ld.d	$fp, $sp, 1552                  # 8-byte Folded Reload
	ld.d	$ra, $sp, 1560                  # 8-byte Folded Reload
	addi.d	$sp, $sp, 1568
	ret
.LBB9_4:                                # %lpad16
.Ltmp31:                                # EH_LABEL
	ld.d	$a1, $sp, 584
	addi.d	$a2, $sp, 600
	move	$fp, $a0
	beq	$a1, $a2, .LBB9_6
# %bb.5:                                # %if.then.i.i342
	move	$a0, $a1
	pcaddu18i	$ra, %call36(_ZdlPv)
	jirl	$ra, $ra, 0
.LBB9_6:                                # %_ZNSt7__cxx1112basic_stringIcSt11char_traitsIcESaIcEED2Ev.exit346
	move	$a0, $fp
	pcaddu18i	$ra, %call36(_Unwind_Resume)
	jirl	$ra, $ra, 0
.Lfunc_end9:
	.size	_Z19check_frame_variantILb1ELb1ELb0ELb0ELb0EEbiRVi, .Lfunc_end9-_Z19check_frame_variantILb1ELb1ELb0ELb0ELb0EEbiRVi
	.cfi_endproc
	.section	.gcc_except_table._Z19check_frame_variantILb1ELb1ELb0ELb0ELb0EEbiRVi,"aG",@progbits,_Z19check_frame_variantILb1ELb1ELb0ELb0ELb0EEbiRVi,comdat
	.p2align	2, 0x0
GCC_except_table9:
.Lexception3:
	.byte	255                             # @LPStart Encoding = omit
	.byte	255                             # @TType Encoding = omit
	.byte	1                               # Call site Encoding = uleb128
	.uleb128 .Lcst_end3-.Lcst_begin3
.Lcst_begin3:
	.uleb128 .Lfunc_begin3-.Lfunc_begin3    # >> Call Site 1 <<
	.uleb128 .Ltmp29-.Lfunc_begin3          #   Call between .Lfunc_begin3 and .Ltmp29
	.byte	0                               #     has no landing pad
	.byte	0                               #   On action: cleanup
	.uleb128 .Ltmp29-.Lfunc_begin3          # >> Call Site 2 <<
	.uleb128 .Ltmp30-.Ltmp29                #   Call between .Ltmp29 and .Ltmp30
	.uleb128 .Ltmp31-.Lfunc_begin3          #     jumps to .Ltmp31
	.byte	0                               #   On action: cleanup
	.uleb128 .Ltmp30-.Lfunc_begin3          # >> Call Site 3 <<
	.uleb128 .Lfunc_end9-.Ltmp30            #   Call between .Ltmp30 and .Lfunc_end9
	.byte	0                               #     has no landing pad
	.byte	0                               #   On action: cleanup
.Lcst_end3:
	.p2align	2, 0x0
                                        # -- End function
	.section	.text._Z19check_frame_variantILb0ELb1ELb0ELb0ELb0EEbiRVi,"axG",@progbits,_Z19check_frame_variantILb0ELb1ELb0ELb0ELb0EEbiRVi,comdat
	.weak	_Z19check_frame_variantILb0ELb1ELb0ELb0ELb0EEbiRVi # -- Begin function _Z19check_frame_variantILb0ELb1ELb0ELb0ELb0EEbiRVi
	.p2align	5
	.type	_Z19check_frame_variantILb0ELb1ELb0ELb0ELb0EEbiRVi,@function
_Z19check_frame_variantILb0ELb1ELb0ELb0ELb0EEbiRVi: # @_Z19check_frame_variantILb0ELb1ELb0ELb0ELb0EEbiRVi
.Lfunc_begin4:
	.cfi_startproc
	.cfi_personality 155, DW.ref.__gxx_personality_v0
	.cfi_lsda 27, .Lexception4
# %bb.0:                                # %entry
	addi.d	$sp, $sp, -1568
	.cfi_def_cfa_offset 1568
	st.d	$ra, $sp, 1560                  # 8-byte Folded Spill
	st.d	$fp, $sp, 1552                  # 8-byte Folded Spill
	st.d	$s0, $sp, 1544                  # 8-byte Folded Spill
	st.d	$s1, $sp, 1536                  # 8-byte Folded Spill
	st.d	$s2, $sp, 1528                  # 8-byte Folded Spill
	st.d	$s3, $sp, 1520                  # 8-byte Folded Spill
	st.d	$s4, $sp, 1512                  # 8-byte Folded Spill
	st.d	$s5, $sp, 1504                  # 8-byte Folded Spill
	st.d	$s6, $sp, 1496                  # 8-byte Folded Spill
	st.d	$s7, $sp, 1488                  # 8-byte Folded Spill
	st.d	$s8, $sp, 1480                  # 8-byte Folded Spill
	fst.d	$fs0, $sp, 1472                 # 8-byte Folded Spill
	fst.d	$fs1, $sp, 1464                 # 8-byte Folded Spill
	fst.d	$fs2, $sp, 1456                 # 8-byte Folded Spill
	fst.d	$fs3, $sp, 1448                 # 8-byte Folded Spill
	fst.d	$fs4, $sp, 1440                 # 8-byte Folded Spill
	fst.d	$fs5, $sp, 1432                 # 8-byte Folded Spill
	fst.d	$fs6, $sp, 1424                 # 8-byte Folded Spill
	fst.d	$fs7, $sp, 1416                 # 8-byte Folded Spill
	.cfi_offset 1, -8
	.cfi_offset 22, -16
	.cfi_offset 23, -24
	.cfi_offset 24, -32
	.cfi_offset 25, -40
	.cfi_offset 26, -48
	.cfi_offset 27, -56
	.cfi_offset 28, -64
	.cfi_offset 29, -72
	.cfi_offset 30, -80
	.cfi_offset 31, -88
	.cfi_offset 56, -96
	.cfi_offset 57, -104
	.cfi_offset 58, -112
	.cfi_offset 59, -120
	.cfi_offset 60, -128
	.cfi_offset 61, -136
	.cfi_offset 62, -144
	.cfi_offset 63, -152
	st.d	$a1, $sp, 576                   # 8-byte Folded Spill
	move	$s0, $a0
	addi.d	$a0, $sp, 584
	ori	$a2, $zero, 1
	move	$a1, $zero
	move	$a3, $zero
	move	$a4, $zero
	move	$a5, $zero
	pcaddu18i	$ra, %call36(_Z24getTestDescriptionStringB5cxx11bbbbb)
	jirl	$ra, $ra, 0
	movgr2fr.w	$fa0, $s0
	ffint.d.w	$fs7, $fa0
	fadd.d	$fa0, $fs7, $fs7
	fst.d	$fa0, $sp, 120                  # 8-byte Folded Spill
	fadd.d	$fa0, $fa0, $fs7
	fst.d	$fa0, $sp, 112                  # 8-byte Folded Spill
	fadd.d	$fa0, $fa0, $fs7
	fst.d	$fa0, $sp, 104                  # 8-byte Folded Spill
	fadd.d	$fa0, $fa0, $fs7
	fst.d	$fa0, $sp, 96                   # 8-byte Folded Spill
	fadd.d	$fa0, $fa0, $fs7
	fst.d	$fa0, $sp, 88                   # 8-byte Folded Spill
	fadd.d	$fa0, $fa0, $fs7
	fst.d	$fa0, $sp, 80                   # 8-byte Folded Spill
	fadd.d	$fa0, $fa0, $fs7
	fst.d	$fa0, $sp, 72                   # 8-byte Folded Spill
	fadd.d	$fs6, $fa0, $fs7
	fadd.d	$fs5, $fs6, $fs7
	fst.d	$fs6, $sp, 184                  # 8-byte Folded Spill
	fadd.d	$fs4, $fs5, $fs7
	fst.d	$fs5, $sp, 192                  # 8-byte Folded Spill
	fadd.d	$fs3, $fs4, $fs7
	fst.d	$fs4, $sp, 216                  # 8-byte Folded Spill
	fadd.d	$fs2, $fs3, $fs7
	fst.d	$fs3, $sp, 224                  # 8-byte Folded Spill
	fadd.d	$fs1, $fs2, $fs7
	fst.d	$fs2, $sp, 240                  # 8-byte Folded Spill
	fadd.d	$fs0, $fs1, $fs7
	fst.d	$fs1, $sp, 256                  # 8-byte Folded Spill
	fadd.d	$ft1, $fs0, $fs7
	fst.d	$fs0, $sp, 272                  # 8-byte Folded Spill
	fadd.d	$ft2, $ft1, $fs7
	fst.d	$ft1, $sp, 304                  # 8-byte Folded Spill
	fadd.d	$ft3, $ft2, $fs7
	fst.d	$ft2, $sp, 320                  # 8-byte Folded Spill
	fadd.d	$ft4, $ft3, $fs7
	fst.d	$ft3, $sp, 336                  # 8-byte Folded Spill
	fadd.d	$ft5, $ft4, $fs7
	fst.d	$ft4, $sp, 344                  # 8-byte Folded Spill
	fadd.d	$ft6, $ft5, $fs7
	fst.d	$ft5, $sp, 360                  # 8-byte Folded Spill
	fadd.d	$ft7, $ft6, $fs7
	fst.d	$ft6, $sp, 376                  # 8-byte Folded Spill
	fadd.d	$ft8, $ft7, $fs7
	fst.d	$ft7, $sp, 392                  # 8-byte Folded Spill
	fadd.d	$ft9, $ft8, $fs7
	fst.d	$ft8, $sp, 408                  # 8-byte Folded Spill
	fadd.d	$ft10, $ft9, $fs7
	fst.d	$ft9, $sp, 416                  # 8-byte Folded Spill
	fadd.d	$ft11, $ft10, $fs7
	fst.d	$ft10, $sp, 432                 # 8-byte Folded Spill
	fadd.d	$ft12, $ft11, $fs7
	fst.d	$ft11, $sp, 448                 # 8-byte Folded Spill
	fadd.d	$ft13, $ft12, $fs7
	fst.d	$ft12, $sp, 464                 # 8-byte Folded Spill
	fadd.d	$ft14, $ft13, $fs7
	fst.d	$ft13, $sp, 472                 # 8-byte Folded Spill
	fadd.d	$ft15, $ft14, $fs7
	fst.d	$ft14, $sp, 488                 # 8-byte Folded Spill
	fadd.d	$ft0, $ft15, $fs7
	fst.d	$ft15, $sp, 496                 # 8-byte Folded Spill
	fadd.d	$fa7, $ft0, $fs7
	fst.d	$fa7, $sp, 512                  # 8-byte Folded Spill
	fst.d	$ft0, $sp, 504                  # 8-byte Folded Spill
	alsl.w	$s6, $s0, $s0, 1
	alsl.w	$s4, $s0, $s0, 2
	alsl.w	$a2, $s0, $s0, 3
	ori	$a0, $zero, 14
	mul.w	$s1, $s0, $a0
	st.d	$s1, $sp, 64                    # 8-byte Folded Spill
	slli.w	$s3, $s0, 4
	sub.w	$t3, $s3, $s0
	st.d	$t3, $sp, 144                   # 8-byte Folded Spill
	alsl.w	$a5, $s0, $s0, 4
	alsl.w	$a6, $s0, $s3, 1
	st.d	$a6, $sp, 168                   # 8-byte Folded Spill
	alsl.w	$a3, $s0, $s3, 2
	st.d	$a3, $sp, 200                   # 8-byte Folded Spill
	ori	$a0, $zero, 22
	mul.w	$a4, $s0, $a0
	st.d	$a4, $sp, 232                   # 8-byte Folded Spill
	ori	$a0, $zero, 23
	mul.w	$a7, $s0, $a0
	st.d	$a7, $sp, 248                   # 8-byte Folded Spill
	alsl.w	$t0, $s0, $s3, 3
	st.d	$t0, $sp, 264                   # 8-byte Folded Spill
	st.d	$s3, $sp, 152                   # 8-byte Folded Spill
	ori	$a0, $zero, 26
	mul.w	$t1, $s0, $a0
	st.d	$t1, $sp, 312                   # 8-byte Folded Spill
	ori	$a0, $zero, 28
	mul.w	$t2, $s0, $a0
	st.d	$t2, $sp, 352                   # 8-byte Folded Spill
	ori	$a0, $zero, 29
	mul.w	$t4, $s0, $a0
	st.d	$t4, $sp, 368                   # 8-byte Folded Spill
	ori	$a0, $zero, 30
	mul.w	$t6, $s0, $a0
	st.d	$t6, $sp, 384                   # 8-byte Folded Spill
	slli.w	$s5, $s0, 5
	sub.w	$fp, $s5, $s0
	st.d	$fp, $sp, 400                   # 8-byte Folded Spill
	add.w	$t7, $s5, $s0
	st.d	$t7, $sp, 424                   # 8-byte Folded Spill
	alsl.w	$t8, $s0, $s5, 1
	st.d	$t8, $sp, 440                   # 8-byte Folded Spill
	alsl.w	$t5, $s0, $s5, 2
	st.d	$t5, $sp, 480                   # 8-byte Folded Spill
	alsl.d	$a0, $s0, $s0, 3
	alsl.d	$a0, $a0, $s0, 2
	fadd.d	$fa6, $fa7, $fs7
	fadd.d	$fa5, $fa6, $fs7
	fst.d	$fa6, $sp, 520                  # 8-byte Folded Spill
	fadd.d	$fa4, $fa5, $fs7
	fst.d	$fa5, $sp, 528                  # 8-byte Folded Spill
	fadd.d	$fa2, $fa4, $fs7
	fst.d	$fa2, $sp, 544                  # 8-byte Folded Spill
	fst.d	$fa4, $sp, 536                  # 8-byte Folded Spill
	fadd.d	$fa3, $fa2, $fs7
	fadd.d	$fa1, $fa3, $fs7
	fst.d	$fa1, $sp, 560                  # 8-byte Folded Spill
	fst.d	$fa3, $sp, 552                  # 8-byte Folded Spill
	fadd.d	$fa0, $fa1, $fs7
	fst.d	$fa0, $sp, 568                  # 8-byte Folded Spill
	fdiv.d	$fa0, $fa0, $fa1
	fdiv.d	$fa0, $fa0, $fa3
	fdiv.d	$fa0, $fa0, $fa2
	fdiv.d	$fa0, $fa0, $fa4
	fdiv.d	$fa0, $fa0, $fa5
	fdiv.d	$fa0, $fa0, $fa6
	fdiv.d	$fa0, $fa0, $fa7
	fdiv.d	$fa0, $fa0, $ft0
	fdiv.d	$fa0, $fa0, $ft15
	fdiv.d	$fa0, $fa0, $ft14
	fdiv.d	$fa0, $fa0, $ft13
	fdiv.d	$fa0, $fa0, $ft12
	fdiv.d	$fa0, $fa0, $ft11
	fdiv.d	$fa0, $fa0, $ft10
	fdiv.d	$fa0, $fa0, $ft9
	fdiv.d	$fa0, $fa0, $ft8
	fdiv.d	$fa0, $fa0, $ft7
	fdiv.d	$fa0, $fa0, $ft6
	fdiv.d	$fa0, $fa0, $ft5
	fdiv.d	$fa0, $fa0, $ft4
	fdiv.d	$fa0, $fa0, $ft3
	fdiv.d	$fa0, $fa0, $ft2
	fdiv.d	$fa0, $fa0, $ft1
	fdiv.d	$fa0, $fa0, $fs0
	fdiv.d	$fa0, $fa0, $fs1
	fdiv.d	$fa0, $fa0, $fs2
	fdiv.d	$fa0, $fa0, $fs3
	fdiv.d	$fa0, $fa0, $fs4
	fdiv.d	$fa0, $fa0, $fs5
	fdiv.d	$fa0, $fa0, $fs6
	fld.d	$fs6, $sp, 72                   # 8-byte Folded Reload
	fdiv.d	$fa0, $fa0, $fs6
	fld.d	$fs5, $sp, 80                   # 8-byte Folded Reload
	fdiv.d	$fa0, $fa0, $fs5
	fld.d	$fs4, $sp, 88                   # 8-byte Folded Reload
	fdiv.d	$fa0, $fa0, $fs4
	fld.d	$fs3, $sp, 96                   # 8-byte Folded Reload
	fdiv.d	$fa0, $fa0, $fs3
	fld.d	$fs2, $sp, 104                  # 8-byte Folded Reload
	fdiv.d	$fa0, $fa0, $fs2
	fld.d	$fs1, $sp, 112                  # 8-byte Folded Reload
	fdiv.d	$fa0, $fa0, $fs1
	fld.d	$fs0, $sp, 120                  # 8-byte Folded Reload
	fdiv.d	$fa0, $fa0, $fs0
	fdiv.d	$fa0, $fa0, $fs7
	addi.w	$a1, $a0, 1
	sltui	$a1, $a1, 3
	maskeqz	$a0, $a0, $a1
	addi.w	$a0, $a0, 0
	div.w	$a0, $a0, $t5
	st.d	$a5, $sp, 160                   # 8-byte Folded Spill
	alsl.w	$a1, $a5, $s0, 1
	st.d	$a1, $sp, 456                   # 8-byte Folded Spill
	div.w	$a0, $a0, $a1
	div.w	$a0, $a0, $t8
	div.w	$a0, $a0, $t7
	div.w	$a0, $a0, $s5
	div.w	$a0, $a0, $fp
	div.w	$a0, $a0, $t6
	div.w	$a0, $a0, $t4
	div.w	$a0, $a0, $t2
	alsl.w	$a1, $s6, $s6, 3
	st.d	$a1, $sp, 328                   # 8-byte Folded Spill
	div.w	$a0, $a0, $a1
	div.w	$a0, $a0, $t1
	alsl.w	$a1, $s6, $s0, 3
	st.d	$a1, $sp, 280                   # 8-byte Folded Spill
	div.w	$a0, $a0, $a1
	div.w	$a0, $a0, $t0
	div.w	$a0, $a0, $a7
	div.w	$a0, $a0, $a4
	alsl.w	$a1, $s4, $s0, 2
	st.d	$a1, $sp, 208                   # 8-byte Folded Spill
	div.w	$a0, $a0, $a1
	div.w	$a0, $a0, $a3
	st.d	$a2, $sp, 32                    # 8-byte Folded Spill
	alsl.w	$a1, $a2, $s0, 1
	st.d	$a1, $sp, 176                   # 8-byte Folded Spill
	div.w	$a0, $a0, $a1
	div.w	$a0, $a0, $a6
	div.w	$a0, $a0, $a5
	div.w	$a0, $a0, $s3
	div.w	$a0, $a0, $t3
	div.w	$a0, $a0, $s1
	alsl.w	$a1, $s6, $s0, 2
	st.d	$a1, $sp, 56                    # 8-byte Folded Spill
	div.w	$a0, $a0, $a1
	slli.w	$s2, $s0, 3
	alsl.w	$a1, $s0, $s2, 2
	st.d	$a1, $sp, 48                    # 8-byte Folded Spill
	div.w	$a0, $a0, $a1
	alsl.w	$a1, $s4, $s0, 1
	st.d	$a1, $sp, 40                    # 8-byte Folded Spill
	move	$s3, $s4
	div.w	$a0, $a0, $a1
	alsl.w	$fp, $s0, $s2, 1
	div.w	$a0, $a0, $fp
	div.w	$a0, $a0, $a2
	div.w	$a0, $a0, $s2
	sub.w	$s8, $s2, $s0
	div.w	$a0, $a0, $s8
	slli.w	$s7, $s0, 2
	alsl.w	$s1, $s0, $s7, 1
	div.w	$a0, $a0, $s1
	div.w	$a0, $a0, $s4
	div.w	$a0, $a0, $s7
	div.w	$a0, $a0, $s6
	slli.w	$s4, $s0, 1
	div.w	$a0, $a0, $s4
	div.w	$a0, $a0, $s0
	movgr2fr.w	$fa1, $a0
	ffint.d.w	$fa1, $fa1
	fadd.d	$fa0, $fa0, $fa1
	fst.d	$fa0, $sp, 296                  # 8-byte Folded Spill
	ori	$a0, $zero, 38
	mul.w	$a0, $s0, $a0
	st.d	$a0, $sp, 136                   # 8-byte Folded Spill
	ori	$a0, $zero, 39
	mul.w	$a0, $s0, $a0
	st.d	$a0, $sp, 128                   # 8-byte Folded Spill
	pcalau12i	$a0, %pc_hi20(.L.str.36)
	addi.d	$a1, $a0, %pc_lo12(.L.str.36)
	st.d	$a1, $sp, 288                   # 8-byte Folded Spill
	ori	$a0, $zero, 100
	addi.d	$a2, $sp, 616
	pcaddu18i	$ra, %call36(_Z10test_frameILj2ELb1ELj2048ELb0ELb0EJEEvDpT4_jPKcP13trace_elementd)
	jirl	$ra, $ra, 0
	fdiv.d	$fa0, $fs7, $fs0
	fdiv.d	$fa0, $fa0, $fs1
	fdiv.d	$fa0, $fa0, $fs2
	fdiv.d	$fa0, $fa0, $fs3
	fdiv.d	$fa0, $fa0, $fs4
	fdiv.d	$fa0, $fa0, $fs5
	fdiv.d	$fa0, $fa0, $fs6
	div.w	$a0, $s0, $s4
	div.w	$a0, $a0, $s6
	div.w	$a0, $a0, $s7
	div.w	$a0, $a0, $s3
	div.w	$a0, $a0, $s1
	div.w	$a0, $a0, $s8
	div.w	$a0, $a0, $s2
	ld.d	$a2, $sp, 32                    # 8-byte Folded Reload
	div.w	$a0, $a0, $a2
	div.w	$a0, $a0, $fp
	ld.d	$a1, $sp, 40                    # 8-byte Folded Reload
	div.w	$a0, $a0, $a1
	ld.d	$a1, $sp, 48                    # 8-byte Folded Reload
	div.w	$a0, $a0, $a1
	ld.d	$a1, $sp, 56                    # 8-byte Folded Reload
	div.w	$a0, $a0, $a1
	ld.d	$a1, $sp, 64                    # 8-byte Folded Reload
	div.w	$a0, $a0, $a1
	fld.d	$fa1, $sp, 184                  # 8-byte Folded Reload
	fdiv.d	$fa0, $fa0, $fa1
	fld.d	$fa1, $sp, 192                  # 8-byte Folded Reload
	fdiv.d	$fa0, $fa0, $fa1
	fld.d	$fa1, $sp, 216                  # 8-byte Folded Reload
	fdiv.d	$fa0, $fa0, $fa1
	fld.d	$fa1, $sp, 224                  # 8-byte Folded Reload
	fdiv.d	$fa0, $fa0, $fa1
	fld.d	$fa1, $sp, 240                  # 8-byte Folded Reload
	fdiv.d	$fa0, $fa0, $fa1
	fld.d	$fa1, $sp, 256                  # 8-byte Folded Reload
	fdiv.d	$fa0, $fa0, $fa1
	fld.d	$fa1, $sp, 272                  # 8-byte Folded Reload
	fdiv.d	$fa0, $fa0, $fa1
	fld.d	$fa1, $sp, 304                  # 8-byte Folded Reload
	fdiv.d	$fa0, $fa0, $fa1
	fld.d	$fa1, $sp, 320                  # 8-byte Folded Reload
	fdiv.d	$fa0, $fa0, $fa1
	fld.d	$fa1, $sp, 336                  # 8-byte Folded Reload
	fdiv.d	$fa0, $fa0, $fa1
	fld.d	$fa1, $sp, 344                  # 8-byte Folded Reload
	fdiv.d	$fa0, $fa0, $fa1
	fld.d	$fa1, $sp, 360                  # 8-byte Folded Reload
	fdiv.d	$fa0, $fa0, $fa1
	fld.d	$fa1, $sp, 376                  # 8-byte Folded Reload
	fdiv.d	$fa0, $fa0, $fa1
	fld.d	$fa1, $sp, 392                  # 8-byte Folded Reload
	fdiv.d	$fa0, $fa0, $fa1
	fld.d	$fa1, $sp, 408                  # 8-byte Folded Reload
	fdiv.d	$fa0, $fa0, $fa1
	fld.d	$fa1, $sp, 416                  # 8-byte Folded Reload
	fdiv.d	$fa0, $fa0, $fa1
	fld.d	$fa1, $sp, 432                  # 8-byte Folded Reload
	fdiv.d	$fa0, $fa0, $fa1
	fld.d	$fa1, $sp, 448                  # 8-byte Folded Reload
	fdiv.d	$fa0, $fa0, $fa1
	fld.d	$fa1, $sp, 464                  # 8-byte Folded Reload
	fdiv.d	$fa0, $fa0, $fa1
	fld.d	$fa1, $sp, 472                  # 8-byte Folded Reload
	fdiv.d	$fa0, $fa0, $fa1
	fld.d	$fa1, $sp, 488                  # 8-byte Folded Reload
	fdiv.d	$fa0, $fa0, $fa1
	fld.d	$fa1, $sp, 496                  # 8-byte Folded Reload
	fdiv.d	$fa0, $fa0, $fa1
	fld.d	$fa1, $sp, 504                  # 8-byte Folded Reload
	fdiv.d	$fa0, $fa0, $fa1
	fld.d	$fa1, $sp, 512                  # 8-byte Folded Reload
	fdiv.d	$fa0, $fa0, $fa1
	fld.d	$fa1, $sp, 520                  # 8-byte Folded Reload
	fdiv.d	$fa0, $fa0, $fa1
	fld.d	$fa1, $sp, 528                  # 8-byte Folded Reload
	fdiv.d	$fa0, $fa0, $fa1
	fld.d	$fa1, $sp, 536                  # 8-byte Folded Reload
	fdiv.d	$fa0, $fa0, $fa1
	fld.d	$fa1, $sp, 544                  # 8-byte Folded Reload
	fdiv.d	$fa0, $fa0, $fa1
	fld.d	$fa1, $sp, 552                  # 8-byte Folded Reload
	fdiv.d	$fa0, $fa0, $fa1
	fld.d	$fa1, $sp, 560                  # 8-byte Folded Reload
	fdiv.d	$fa0, $fa0, $fa1
	ld.d	$a1, $sp, 144                   # 8-byte Folded Reload
	div.w	$a0, $a0, $a1
	ld.d	$a1, $sp, 152                   # 8-byte Folded Reload
	div.w	$a0, $a0, $a1
	ld.d	$a1, $sp, 160                   # 8-byte Folded Reload
	div.w	$a0, $a0, $a1
	ld.d	$a1, $sp, 168                   # 8-byte Folded Reload
	div.w	$a0, $a0, $a1
	ld.d	$a1, $sp, 176                   # 8-byte Folded Reload
	div.w	$a0, $a0, $a1
	ld.d	$a1, $sp, 200                   # 8-byte Folded Reload
	div.w	$a0, $a0, $a1
	ld.d	$a1, $sp, 208                   # 8-byte Folded Reload
	div.w	$a0, $a0, $a1
	ld.d	$a1, $sp, 232                   # 8-byte Folded Reload
	div.w	$a0, $a0, $a1
	ld.d	$a1, $sp, 248                   # 8-byte Folded Reload
	div.w	$a0, $a0, $a1
	ld.d	$a1, $sp, 264                   # 8-byte Folded Reload
	div.w	$a0, $a0, $a1
	ld.d	$a1, $sp, 280                   # 8-byte Folded Reload
	div.w	$a0, $a0, $a1
	ld.d	$a1, $sp, 312                   # 8-byte Folded Reload
	div.w	$a0, $a0, $a1
	ld.d	$a1, $sp, 328                   # 8-byte Folded Reload
	div.w	$a0, $a0, $a1
	ld.d	$a1, $sp, 352                   # 8-byte Folded Reload
	div.w	$a0, $a0, $a1
	ld.d	$a1, $sp, 368                   # 8-byte Folded Reload
	div.w	$a0, $a0, $a1
	ld.d	$a1, $sp, 384                   # 8-byte Folded Reload
	div.w	$a0, $a0, $a1
	ld.d	$a1, $sp, 400                   # 8-byte Folded Reload
	div.w	$a0, $a0, $a1
	div.w	$a0, $a0, $s5
	ld.d	$a1, $sp, 424                   # 8-byte Folded Reload
	div.w	$a0, $a0, $a1
	ld.d	$a1, $sp, 440                   # 8-byte Folded Reload
	div.w	$a0, $a0, $a1
	ld.d	$a1, $sp, 456                   # 8-byte Folded Reload
	div.w	$a0, $a0, $a1
	ld.d	$a1, $sp, 480                   # 8-byte Folded Reload
	div.w	$a0, $a0, $a1
	fld.d	$fa1, $sp, 568                  # 8-byte Folded Reload
	fdiv.d	$fa0, $fa0, $fa1
	fld.d	$fa1, $sp, 616
	alsl.w	$a1, $a2, $s0, 2
	div.w	$a0, $a0, $a1
	ld.d	$a1, $sp, 136                   # 8-byte Folded Reload
	div.w	$a0, $a0, $a1
	fdiv.d	$fa0, $fa0, $fa1
	ld.d	$a1, $sp, 128                   # 8-byte Folded Reload
	div.w	$a0, $a0, $a1
	movfr2gr.d	$a1, $fa1
	addi.w	$a1, $a1, 0
	div.w	$a0, $a0, $a1
	movgr2fr.w	$fa1, $a0
	ffint.d.w	$fa1, $fa1
	ld.d	$a2, $sp, 576                   # 8-byte Folded Reload
	ld.w	$a0, $a2, 0
	fadd.d	$fa0, $fa0, $fa1
	ftintrz.w.d	$fa0, $fa0
	movfr2gr.s	$a1, $fa0
	add.d	$a0, $a0, $a1
	st.w	$a0, $a2, 0
	ld.d	$a0, $sp, 584
.Ltmp32:                                # EH_LABEL
	addi.w	$a1, $zero, -1
	st.d	$a1, $sp, 8
	addi.d	$a2, $sp, 616
	ori	$a3, $zero, 2
	ori	$a4, $zero, 1
	ori	$a6, $zero, 2048
	st.d	$zero, $sp, 0
	ld.d	$a1, $sp, 288                   # 8-byte Folded Reload
	fld.d	$fa0, $sp, 296                  # 8-byte Folded Reload
	move	$a7, $zero
	pcaddu18i	$ra, %call36(_Z11check_tracePKcS0_PK13trace_elementdjbjjbbi)
	jirl	$ra, $ra, 0
.Ltmp33:                                # EH_LABEL
# %bb.1:                                # %invoke.cont17
	ld.d	$a1, $sp, 584
	addi.d	$a2, $sp, 600
	beq	$a1, $a2, .LBB10_3
# %bb.2:                                # %if.then.i.i
	move	$fp, $a0
	move	$a0, $a1
	pcaddu18i	$ra, %call36(_ZdlPv)
	jirl	$ra, $ra, 0
	move	$a0, $fp
.LBB10_3:                               # %_ZNSt7__cxx1112basic_stringIcSt11char_traitsIcESaIcEED2Ev.exit
	fld.d	$fs7, $sp, 1416                 # 8-byte Folded Reload
	fld.d	$fs6, $sp, 1424                 # 8-byte Folded Reload
	fld.d	$fs5, $sp, 1432                 # 8-byte Folded Reload
	fld.d	$fs4, $sp, 1440                 # 8-byte Folded Reload
	fld.d	$fs3, $sp, 1448                 # 8-byte Folded Reload
	fld.d	$fs2, $sp, 1456                 # 8-byte Folded Reload
	fld.d	$fs1, $sp, 1464                 # 8-byte Folded Reload
	fld.d	$fs0, $sp, 1472                 # 8-byte Folded Reload
	ld.d	$s8, $sp, 1480                  # 8-byte Folded Reload
	ld.d	$s7, $sp, 1488                  # 8-byte Folded Reload
	ld.d	$s6, $sp, 1496                  # 8-byte Folded Reload
	ld.d	$s5, $sp, 1504                  # 8-byte Folded Reload
	ld.d	$s4, $sp, 1512                  # 8-byte Folded Reload
	ld.d	$s3, $sp, 1520                  # 8-byte Folded Reload
	ld.d	$s2, $sp, 1528                  # 8-byte Folded Reload
	ld.d	$s1, $sp, 1536                  # 8-byte Folded Reload
	ld.d	$s0, $sp, 1544                  # 8-byte Folded Reload
	ld.d	$fp, $sp, 1552                  # 8-byte Folded Reload
	ld.d	$ra, $sp, 1560                  # 8-byte Folded Reload
	addi.d	$sp, $sp, 1568
	ret
.LBB10_4:                               # %lpad16
.Ltmp34:                                # EH_LABEL
	ld.d	$a1, $sp, 584
	addi.d	$a2, $sp, 600
	move	$fp, $a0
	beq	$a1, $a2, .LBB10_6
# %bb.5:                                # %if.then.i.i342
	move	$a0, $a1
	pcaddu18i	$ra, %call36(_ZdlPv)
	jirl	$ra, $ra, 0
.LBB10_6:                               # %_ZNSt7__cxx1112basic_stringIcSt11char_traitsIcESaIcEED2Ev.exit346
	move	$a0, $fp
	pcaddu18i	$ra, %call36(_Unwind_Resume)
	jirl	$ra, $ra, 0
.Lfunc_end10:
	.size	_Z19check_frame_variantILb0ELb1ELb0ELb0ELb0EEbiRVi, .Lfunc_end10-_Z19check_frame_variantILb0ELb1ELb0ELb0ELb0EEbiRVi
	.cfi_endproc
	.section	.gcc_except_table._Z19check_frame_variantILb0ELb1ELb0ELb0ELb0EEbiRVi,"aG",@progbits,_Z19check_frame_variantILb0ELb1ELb0ELb0ELb0EEbiRVi,comdat
	.p2align	2, 0x0
GCC_except_table10:
.Lexception4:
	.byte	255                             # @LPStart Encoding = omit
	.byte	255                             # @TType Encoding = omit
	.byte	1                               # Call site Encoding = uleb128
	.uleb128 .Lcst_end4-.Lcst_begin4
.Lcst_begin4:
	.uleb128 .Lfunc_begin4-.Lfunc_begin4    # >> Call Site 1 <<
	.uleb128 .Ltmp32-.Lfunc_begin4          #   Call between .Lfunc_begin4 and .Ltmp32
	.byte	0                               #     has no landing pad
	.byte	0                               #   On action: cleanup
	.uleb128 .Ltmp32-.Lfunc_begin4          # >> Call Site 2 <<
	.uleb128 .Ltmp33-.Ltmp32                #   Call between .Ltmp32 and .Ltmp33
	.uleb128 .Ltmp34-.Lfunc_begin4          #     jumps to .Ltmp34
	.byte	0                               #   On action: cleanup
	.uleb128 .Ltmp33-.Lfunc_begin4          # >> Call Site 3 <<
	.uleb128 .Lfunc_end10-.Ltmp33           #   Call between .Ltmp33 and .Lfunc_end10
	.byte	0                               #     has no landing pad
	.byte	0                               #   On action: cleanup
.Lcst_end4:
	.p2align	2, 0x0
                                        # -- End function
	.section	.text._Z19check_frame_variantILb1ELb0ELb1ELb0ELb0EEbiRVi,"axG",@progbits,_Z19check_frame_variantILb1ELb0ELb1ELb0ELb0EEbiRVi,comdat
	.weak	_Z19check_frame_variantILb1ELb0ELb1ELb0ELb0EEbiRVi # -- Begin function _Z19check_frame_variantILb1ELb0ELb1ELb0ELb0EEbiRVi
	.p2align	5
	.type	_Z19check_frame_variantILb1ELb0ELb1ELb0ELb0EEbiRVi,@function
_Z19check_frame_variantILb1ELb0ELb1ELb0ELb0EEbiRVi: # @_Z19check_frame_variantILb1ELb0ELb1ELb0ELb0EEbiRVi
.Lfunc_begin5:
	.cfi_startproc
	.cfi_personality 155, DW.ref.__gxx_personality_v0
	.cfi_lsda 27, .Lexception5
# %bb.0:                                # %entry
	addi.d	$sp, $sp, -1504
	.cfi_def_cfa_offset 1504
	st.d	$ra, $sp, 1496                  # 8-byte Folded Spill
	st.d	$fp, $sp, 1488                  # 8-byte Folded Spill
	st.d	$s0, $sp, 1480                  # 8-byte Folded Spill
	st.d	$s1, $sp, 1472                  # 8-byte Folded Spill
	st.d	$s2, $sp, 1464                  # 8-byte Folded Spill
	st.d	$s3, $sp, 1456                  # 8-byte Folded Spill
	st.d	$s4, $sp, 1448                  # 8-byte Folded Spill
	st.d	$s5, $sp, 1440                  # 8-byte Folded Spill
	st.d	$s6, $sp, 1432                  # 8-byte Folded Spill
	st.d	$s7, $sp, 1424                  # 8-byte Folded Spill
	st.d	$s8, $sp, 1416                  # 8-byte Folded Spill
	fst.d	$fs0, $sp, 1408                 # 8-byte Folded Spill
	fst.d	$fs1, $sp, 1400                 # 8-byte Folded Spill
	fst.d	$fs2, $sp, 1392                 # 8-byte Folded Spill
	fst.d	$fs3, $sp, 1384                 # 8-byte Folded Spill
	fst.d	$fs4, $sp, 1376                 # 8-byte Folded Spill
	fst.d	$fs5, $sp, 1368                 # 8-byte Folded Spill
	fst.d	$fs6, $sp, 1360                 # 8-byte Folded Spill
	fst.d	$fs7, $sp, 1352                 # 8-byte Folded Spill
	.cfi_offset 1, -8
	.cfi_offset 22, -16
	.cfi_offset 23, -24
	.cfi_offset 24, -32
	.cfi_offset 25, -40
	.cfi_offset 26, -48
	.cfi_offset 27, -56
	.cfi_offset 28, -64
	.cfi_offset 29, -72
	.cfi_offset 30, -80
	.cfi_offset 31, -88
	.cfi_offset 56, -96
	.cfi_offset 57, -104
	.cfi_offset 58, -112
	.cfi_offset 59, -120
	.cfi_offset 60, -128
	.cfi_offset 61, -136
	.cfi_offset 62, -144
	.cfi_offset 63, -152
	st.d	$a1, $sp, 448                   # 8-byte Folded Spill
	move	$s0, $a0
	addi.d	$a0, $sp, 520
	ori	$a1, $zero, 1
	ori	$a3, $zero, 1
	move	$a2, $zero
	move	$a4, $zero
	move	$a5, $zero
	pcaddu18i	$ra, %call36(_Z24getTestDescriptionStringB5cxx11bbbbb)
	jirl	$ra, $ra, 0
	movgr2fr.w	$fa0, $s0
	ffint.d.w	$fs0, $fa0
	fadd.d	$fa0, $fs0, $fs0
	fst.d	$fa0, $sp, 504                  # 8-byte Folded Spill
	fadd.d	$fa0, $fa0, $fs0
	fst.d	$fa0, $sp, 496                  # 8-byte Folded Spill
	fadd.d	$fa0, $fa0, $fs0
	fst.d	$fa0, $sp, 488                  # 8-byte Folded Spill
	fadd.d	$fa0, $fa0, $fs0
	fst.d	$fa0, $sp, 480                  # 8-byte Folded Spill
	fadd.d	$fa0, $fa0, $fs0
	fst.d	$fa0, $sp, 472                  # 8-byte Folded Spill
	fadd.d	$fa0, $fa0, $fs0
	fst.d	$fa0, $sp, 464                  # 8-byte Folded Spill
	fadd.d	$fa0, $fa0, $fs0
	fst.d	$fa0, $sp, 456                  # 8-byte Folded Spill
	fadd.d	$fs5, $fa0, $fs0
	fadd.d	$fs4, $fs5, $fs0
	fadd.d	$fs3, $fs4, $fs0
	fadd.d	$fs2, $fs3, $fs0
	fadd.d	$fs1, $fs2, $fs0
	fadd.d	$fa6, $fs1, $fs0
	fadd.d	$fa7, $fa6, $fs0
	fadd.d	$ft0, $fa7, $fs0
	fadd.d	$ft1, $ft0, $fs0
	fadd.d	$ft2, $ft1, $fs0
	fadd.d	$ft3, $ft2, $fs0
	fadd.d	$ft4, $ft3, $fs0
	fadd.d	$ft5, $ft4, $fs0
	fadd.d	$ft6, $ft5, $fs0
	fadd.d	$ft7, $ft6, $fs0
	fadd.d	$ft8, $ft7, $fs0
	fadd.d	$ft9, $ft8, $fs0
	fadd.d	$ft10, $ft9, $fs0
	fadd.d	$ft11, $ft10, $fs0
	fadd.d	$ft12, $ft11, $fs0
	fadd.d	$ft13, $ft12, $fs0
	fadd.d	$ft14, $ft13, $fs0
	fadd.d	$ft15, $ft14, $fs0
	fadd.d	$fs7, $ft15, $fs0
	alsl.w	$fp, $s0, $s0, 1
	alsl.w	$s6, $s0, $s0, 2
	slli.w	$s3, $s0, 3
	sub.w	$ra, $s3, $s0
	alsl.w	$s4, $s0, $s0, 3
	alsl.w	$s2, $s0, $s3, 2
	ori	$a0, $zero, 14
	mul.w	$t6, $s0, $a0
	slli.w	$s7, $s0, 4
	sub.w	$s1, $s7, $s0
	alsl.w	$t7, $s0, $s0, 4
	alsl.w	$t8, $s0, $s7, 1
	alsl.d	$a1, $s0, $s0, 3
	alsl.w	$t5, $s0, $s7, 2
	ori	$a0, $zero, 22
	mul.w	$t4, $s0, $a0
	ori	$a0, $zero, 23
	mul.w	$t3, $s0, $a0
	alsl.w	$t2, $s0, $s7, 3
	ori	$a0, $zero, 26
	mul.w	$a5, $s0, $a0
	ori	$a0, $zero, 28
	mul.w	$a2, $s0, $a0
	ori	$a0, $zero, 29
	mul.w	$a4, $s0, $a0
	ori	$a0, $zero, 30
	mul.w	$a6, $s0, $a0
	slli.w	$s5, $s0, 5
	sub.w	$t1, $s5, $s0
	add.w	$t0, $s5, $s0
	alsl.w	$a7, $s0, $s5, 1
	alsl.w	$a3, $s0, $s5, 2
	st.d	$a1, $sp, 312                   # 8-byte Folded Spill
	alsl.d	$a1, $a1, $s0, 2
	addi.w	$a0, $a1, 1
	sltui	$a0, $a0, 3
	st.d	$a1, $sp, 440                   # 8-byte Folded Spill
	maskeqz	$a0, $a1, $a0
	addi.w	$a0, $a0, 0
	st.d	$a3, $sp, 424                   # 8-byte Folded Spill
	div.w	$a0, $a0, $a3
	alsl.w	$a1, $t7, $s0, 1
	div.w	$a0, $a0, $a1
	st.d	$a7, $sp, 392                   # 8-byte Folded Spill
	div.w	$a0, $a0, $a7
	st.d	$t0, $sp, 384                   # 8-byte Folded Spill
	div.w	$a0, $a0, $t0
	div.w	$a0, $a0, $s5
	st.d	$t1, $sp, 376                   # 8-byte Folded Spill
	div.w	$a0, $a0, $t1
	st.d	$a6, $sp, 400                   # 8-byte Folded Spill
	div.w	$a0, $a0, $a6
	st.d	$a4, $sp, 416                   # 8-byte Folded Spill
	div.w	$a0, $a0, $a4
	st.d	$a2, $sp, 432                   # 8-byte Folded Spill
	div.w	$a0, $a0, $a2
	alsl.w	$a1, $fp, $fp, 3
	div.w	$a0, $a0, $a1
	st.d	$a5, $sp, 408                   # 8-byte Folded Spill
	div.w	$a0, $a0, $a5
	alsl.w	$a1, $fp, $s0, 3
	div.w	$a0, $a0, $a1
	st.d	$t2, $sp, 368                   # 8-byte Folded Spill
	div.w	$a0, $a0, $t2
	st.d	$t3, $sp, 360                   # 8-byte Folded Spill
	div.w	$a0, $a0, $t3
	st.d	$t4, $sp, 352                   # 8-byte Folded Spill
	div.w	$a0, $a0, $t4
	alsl.w	$a1, $s6, $s0, 2
	div.w	$a0, $a0, $a1
	st.d	$t5, $sp, 344                   # 8-byte Folded Spill
	div.w	$a0, $a0, $t5
	alsl.w	$a1, $s4, $s0, 1
	div.w	$a0, $a0, $a1
	st.d	$t8, $sp, 320                   # 8-byte Folded Spill
	div.w	$a0, $a0, $t8
	st.d	$t7, $sp, 328                   # 8-byte Folded Spill
	div.w	$a0, $a0, $t7
	div.w	$a0, $a0, $s7
	st.d	$s1, $sp, 120                   # 8-byte Folded Spill
	div.w	$a0, $a0, $s1
	st.d	$t6, $sp, 336                   # 8-byte Folded Spill
	div.w	$a0, $a0, $t6
	alsl.w	$a1, $fp, $s0, 2
	div.w	$a0, $a0, $a1
	st.d	$s2, $sp, 112                   # 8-byte Folded Spill
	div.w	$a0, $a0, $s2
	alsl.w	$a1, $s6, $s0, 1
	div.w	$a0, $a0, $a1
	alsl.w	$s8, $s0, $s3, 1
	fadd.d	$fs6, $fs7, $fs0
	fadd.d	$fa5, $fs6, $fs0
	fadd.d	$fa3, $fa5, $fs0
	fadd.d	$fa2, $fa3, $fs0
	fadd.d	$fa1, $fa2, $fs0
	fadd.d	$fa0, $fa1, $fs0
	fadd.d	$fa4, $fa0, $fs0
	fst.d	$fa4, $sp, 80                   # 8-byte Folded Spill
	fst.d	$fa0, $sp, 32                   # 8-byte Folded Spill
	fdiv.d	$fa0, $fa4, $fa0
	fst.d	$fa1, $sp, 40                   # 8-byte Folded Spill
	fdiv.d	$fa0, $fa0, $fa1
	fst.d	$fa2, $sp, 48                   # 8-byte Folded Spill
	fdiv.d	$fa0, $fa0, $fa2
	fst.d	$fa3, $sp, 56                   # 8-byte Folded Spill
	fdiv.d	$fa0, $fa0, $fa3
	fst.d	$fa5, $sp, 64                   # 8-byte Folded Spill
	fdiv.d	$fa0, $fa0, $fa5
	fst.d	$fs6, $sp, 72                   # 8-byte Folded Spill
	fdiv.d	$fa0, $fa0, $fs6
	fst.d	$fs7, $sp, 128                  # 8-byte Folded Spill
	fdiv.d	$fa0, $fa0, $fs7
	fst.d	$ft15, $sp, 136                 # 8-byte Folded Spill
	fdiv.d	$fa0, $fa0, $ft15
	fst.d	$ft14, $sp, 144                 # 8-byte Folded Spill
	fdiv.d	$fa0, $fa0, $ft14
	fst.d	$ft13, $sp, 152                 # 8-byte Folded Spill
	fdiv.d	$fa0, $fa0, $ft13
	fst.d	$ft12, $sp, 160                 # 8-byte Folded Spill
	fdiv.d	$fa0, $fa0, $ft12
	fst.d	$ft11, $sp, 168                 # 8-byte Folded Spill
	fdiv.d	$fa0, $fa0, $ft11
	fst.d	$ft10, $sp, 176                 # 8-byte Folded Spill
	fdiv.d	$fa0, $fa0, $ft10
	fst.d	$ft9, $sp, 184                  # 8-byte Folded Spill
	fdiv.d	$fa0, $fa0, $ft9
	fst.d	$ft8, $sp, 192                  # 8-byte Folded Spill
	fdiv.d	$fa0, $fa0, $ft8
	fst.d	$ft7, $sp, 200                  # 8-byte Folded Spill
	fdiv.d	$fa0, $fa0, $ft7
	fst.d	$ft6, $sp, 208                  # 8-byte Folded Spill
	fdiv.d	$fa0, $fa0, $ft6
	fst.d	$ft5, $sp, 216                  # 8-byte Folded Spill
	fdiv.d	$fa0, $fa0, $ft5
	fst.d	$ft4, $sp, 224                  # 8-byte Folded Spill
	fdiv.d	$fa0, $fa0, $ft4
	fst.d	$ft3, $sp, 232                  # 8-byte Folded Spill
	fdiv.d	$fa0, $fa0, $ft3
	fst.d	$ft2, $sp, 240                  # 8-byte Folded Spill
	fdiv.d	$fa0, $fa0, $ft2
	fst.d	$ft1, $sp, 248                  # 8-byte Folded Spill
	fdiv.d	$fa0, $fa0, $ft1
	fst.d	$ft0, $sp, 256                  # 8-byte Folded Spill
	fdiv.d	$fa0, $fa0, $ft0
	fst.d	$fa7, $sp, 264                  # 8-byte Folded Spill
	fdiv.d	$fa0, $fa0, $fa7
	fst.d	$fa6, $sp, 272                  # 8-byte Folded Spill
	fdiv.d	$fa0, $fa0, $fa6
	fst.d	$fs1, $sp, 280                  # 8-byte Folded Spill
	fdiv.d	$fa0, $fa0, $fs1
	fst.d	$fs2, $sp, 288                  # 8-byte Folded Spill
	fdiv.d	$fa0, $fa0, $fs2
	fst.d	$fs3, $sp, 296                  # 8-byte Folded Spill
	fdiv.d	$fa0, $fa0, $fs3
	fst.d	$fs4, $sp, 304                  # 8-byte Folded Spill
	fdiv.d	$fa0, $fa0, $fs4
	fst.d	$fs5, $sp, 88                   # 8-byte Folded Spill
	fdiv.d	$fa0, $fa0, $fs5
	fld.d	$fa1, $sp, 456                  # 8-byte Folded Reload
	fmov.d	$fs6, $fa1
	fdiv.d	$fa0, $fa0, $fa1
	fld.d	$fa1, $sp, 464                  # 8-byte Folded Reload
	fmov.d	$fs5, $fa1
	fdiv.d	$fa0, $fa0, $fa1
	fld.d	$fa1, $sp, 472                  # 8-byte Folded Reload
	fmov.d	$fs4, $fa1
	fdiv.d	$fa0, $fa0, $fa1
	fld.d	$fa1, $sp, 480                  # 8-byte Folded Reload
	fmov.d	$fs3, $fa1
	fdiv.d	$fa0, $fa0, $fa1
	fld.d	$fa1, $sp, 488                  # 8-byte Folded Reload
	fmov.d	$fs2, $fa1
	fdiv.d	$fa0, $fa0, $fa1
	fld.d	$fa1, $sp, 496                  # 8-byte Folded Reload
	fmov.d	$fs1, $fa1
	fdiv.d	$fa0, $fa0, $fa1
	fld.d	$fa1, $sp, 504                  # 8-byte Folded Reload
	fmov.d	$fs7, $fa1
	fdiv.d	$fa0, $fa0, $fa1
	fdiv.d	$fa0, $fa0, $fs0
	div.w	$a0, $a0, $s8
	st.d	$s4, $sp, 104                   # 8-byte Folded Spill
	div.w	$a0, $a0, $s4
	div.w	$a0, $a0, $s3
	st.d	$ra, $sp, 96                    # 8-byte Folded Spill
	div.w	$a0, $a0, $ra
	slli.w	$s2, $s0, 2
	alsl.w	$s1, $s0, $s2, 1
	div.w	$a0, $a0, $s1
	div.w	$a0, $a0, $s6
	div.w	$a0, $a0, $s2
	div.w	$a0, $a0, $fp
	slli.w	$s4, $s0, 1
	div.w	$a0, $a0, $s4
	div.w	$a0, $a0, $s0
	movgr2fr.w	$fa1, $a0
	ffint.d.w	$fa1, $fa1
	fadd.d	$fa0, $fa0, $fa1
.Ltmp35:                                # EH_LABEL
	pcalau12i	$a0, %pc_hi20(.L.str.36)
	addi.d	$a1, $a0, %pc_lo12(.L.str.36)
	ori	$a0, $zero, 100
	addi.d	$a2, $sp, 552
	fst.d	$fa0, $sp, 512                  # 8-byte Folded Spill
	pcaddu18i	$ra, %call36(_Z10test_frameILj4096ELb0ELj2048ELb1ELb0EJEEvDpT4_jPKcP13trace_elementd)
	jirl	$ra, $ra, 0
.Ltmp36:                                # EH_LABEL
# %bb.1:                                # %invoke.cont6
	fdiv.d	$fa0, $fs0, $fs7
	fdiv.d	$fa0, $fa0, $fs1
	fdiv.d	$fa0, $fa0, $fs2
	fdiv.d	$fa0, $fa0, $fs3
	fdiv.d	$fa0, $fa0, $fs4
	fdiv.d	$fa0, $fa0, $fs5
	fdiv.d	$fa0, $fa0, $fs6
	div.w	$a0, $s0, $s4
	div.w	$a0, $a0, $fp
	div.w	$a0, $a0, $s2
	div.w	$a0, $a0, $s6
	div.w	$a0, $a0, $s1
	fld.d	$fa1, $sp, 88                   # 8-byte Folded Reload
	fdiv.d	$fa0, $fa0, $fa1
	fld.d	$fa1, $sp, 304                  # 8-byte Folded Reload
	fdiv.d	$fa0, $fa0, $fa1
	fld.d	$fa1, $sp, 296                  # 8-byte Folded Reload
	fdiv.d	$fa0, $fa0, $fa1
	fld.d	$fa1, $sp, 288                  # 8-byte Folded Reload
	fdiv.d	$fa0, $fa0, $fa1
	fld.d	$fa1, $sp, 280                  # 8-byte Folded Reload
	fdiv.d	$fa0, $fa0, $fa1
	fld.d	$fa1, $sp, 272                  # 8-byte Folded Reload
	fdiv.d	$fa0, $fa0, $fa1
	fld.d	$fa1, $sp, 264                  # 8-byte Folded Reload
	fdiv.d	$fa0, $fa0, $fa1
	fld.d	$fa1, $sp, 256                  # 8-byte Folded Reload
	fdiv.d	$fa0, $fa0, $fa1
	fld.d	$fa1, $sp, 248                  # 8-byte Folded Reload
	fdiv.d	$fa0, $fa0, $fa1
	fld.d	$fa1, $sp, 240                  # 8-byte Folded Reload
	fdiv.d	$fa0, $fa0, $fa1
	fld.d	$fa1, $sp, 232                  # 8-byte Folded Reload
	fdiv.d	$fa0, $fa0, $fa1
	fld.d	$fa1, $sp, 224                  # 8-byte Folded Reload
	fdiv.d	$fa0, $fa0, $fa1
	fld.d	$fa1, $sp, 216                  # 8-byte Folded Reload
	fdiv.d	$fa0, $fa0, $fa1
	fld.d	$fa1, $sp, 208                  # 8-byte Folded Reload
	fdiv.d	$fa0, $fa0, $fa1
	fld.d	$fa1, $sp, 200                  # 8-byte Folded Reload
	fdiv.d	$fa0, $fa0, $fa1
	fld.d	$fa1, $sp, 192                  # 8-byte Folded Reload
	fdiv.d	$fa0, $fa0, $fa1
	fld.d	$fa1, $sp, 184                  # 8-byte Folded Reload
	fdiv.d	$fa0, $fa0, $fa1
	fld.d	$fa1, $sp, 176                  # 8-byte Folded Reload
	fdiv.d	$fa0, $fa0, $fa1
	fld.d	$fa1, $sp, 168                  # 8-byte Folded Reload
	fdiv.d	$fa0, $fa0, $fa1
	fld.d	$fa1, $sp, 160                  # 8-byte Folded Reload
	fdiv.d	$fa0, $fa0, $fa1
	fld.d	$fa1, $sp, 152                  # 8-byte Folded Reload
	fdiv.d	$fa0, $fa0, $fa1
	fld.d	$fa1, $sp, 144                  # 8-byte Folded Reload
	fdiv.d	$fa0, $fa0, $fa1
	fld.d	$fa1, $sp, 136                  # 8-byte Folded Reload
	fdiv.d	$fa0, $fa0, $fa1
	fld.d	$fa1, $sp, 128                  # 8-byte Folded Reload
	fdiv.d	$fa0, $fa0, $fa1
	fld.d	$fa1, $sp, 72                   # 8-byte Folded Reload
	fdiv.d	$fa0, $fa0, $fa1
	fld.d	$fa1, $sp, 64                   # 8-byte Folded Reload
	fdiv.d	$fa0, $fa0, $fa1
	fld.d	$fa1, $sp, 56                   # 8-byte Folded Reload
	fdiv.d	$fa0, $fa0, $fa1
	fld.d	$fa1, $sp, 48                   # 8-byte Folded Reload
	fdiv.d	$fa0, $fa0, $fa1
	fld.d	$fa1, $sp, 40                   # 8-byte Folded Reload
	fdiv.d	$fa0, $fa0, $fa1
	fld.d	$fa1, $sp, 32                   # 8-byte Folded Reload
	fdiv.d	$fa0, $fa0, $fa1
	ld.d	$a1, $sp, 96                    # 8-byte Folded Reload
	div.w	$a0, $a0, $a1
	div.w	$a0, $a0, $s3
	ld.d	$a1, $sp, 104                   # 8-byte Folded Reload
	div.w	$a0, $a0, $a1
	alsl.d	$a1, $s0, $s0, 2
	div.w	$a0, $a0, $s8
	alsl.d	$a2, $a1, $s0, 1
	addi.w	$a2, $a2, 0
	div.w	$a0, $a0, $a2
	alsl.d	$a2, $s0, $s0, 1
	ld.d	$a3, $sp, 112                   # 8-byte Folded Reload
	div.w	$a0, $a0, $a3
	alsl.d	$a3, $a2, $s0, 2
	addi.w	$a3, $a3, 0
	div.w	$a0, $a0, $a3
	ld.d	$a3, $sp, 336                   # 8-byte Folded Reload
	div.w	$a0, $a0, $a3
	ld.d	$a3, $sp, 120                   # 8-byte Folded Reload
	div.w	$a0, $a0, $a3
	div.w	$a0, $a0, $s7
	ld.d	$a3, $sp, 328                   # 8-byte Folded Reload
	div.w	$a0, $a0, $a3
	ld.d	$a3, $sp, 320                   # 8-byte Folded Reload
	div.w	$a0, $a0, $a3
	ld.d	$a3, $sp, 312                   # 8-byte Folded Reload
	alsl.d	$a3, $a3, $s0, 1
	addi.w	$a3, $a3, 0
	div.w	$a0, $a0, $a3
	ld.d	$a3, $sp, 344                   # 8-byte Folded Reload
	div.w	$a0, $a0, $a3
	alsl.d	$a1, $a1, $s0, 2
	addi.w	$a1, $a1, 0
	div.w	$a0, $a0, $a1
	ld.d	$a1, $sp, 352                   # 8-byte Folded Reload
	div.w	$a0, $a0, $a1
	alsl.d	$a1, $s0, $s0, 4
	alsl.d	$a1, $a1, $s0, 1
	ld.d	$a3, $sp, 360                   # 8-byte Folded Reload
	div.w	$a0, $a0, $a3
	ori	$a3, $zero, 38
	mul.w	$a3, $s0, $a3
	ld.d	$a4, $sp, 368                   # 8-byte Folded Reload
	div.w	$a0, $a0, $a4
	ori	$a4, $zero, 39
	mul.w	$a4, $s0, $a4
	alsl.d	$a5, $a2, $s0, 3
	addi.w	$a5, $a5, 0
	div.w	$a0, $a0, $a5
	ld.d	$a5, $sp, 408                   # 8-byte Folded Reload
	div.w	$a0, $a0, $a5
	alsl.d	$a2, $a2, $a2, 3
	addi.w	$a2, $a2, 0
	div.w	$a0, $a0, $a2
	ld.d	$a2, $sp, 432                   # 8-byte Folded Reload
	div.w	$a0, $a0, $a2
	ld.d	$a2, $sp, 416                   # 8-byte Folded Reload
	div.w	$a0, $a0, $a2
	ld.d	$a2, $sp, 400                   # 8-byte Folded Reload
	div.w	$a0, $a0, $a2
	ld.d	$a2, $sp, 376                   # 8-byte Folded Reload
	div.w	$a0, $a0, $a2
	div.w	$a0, $a0, $s5
	ld.d	$a2, $sp, 384                   # 8-byte Folded Reload
	div.w	$a0, $a0, $a2
	ld.d	$a2, $sp, 392                   # 8-byte Folded Reload
	div.w	$a0, $a0, $a2
	addi.w	$a1, $a1, 0
	div.w	$a0, $a0, $a1
	ld.d	$a1, $sp, 424                   # 8-byte Folded Reload
	div.w	$a0, $a0, $a1
	fld.d	$fa1, $sp, 80                   # 8-byte Folded Reload
	fdiv.d	$fa0, $fa0, $fa1
	fld.d	$fa1, $sp, 552
	ld.d	$a1, $sp, 440                   # 8-byte Folded Reload
	addi.w	$a1, $a1, 0
	div.w	$a0, $a0, $a1
	div.w	$a0, $a0, $a3
	fdiv.d	$fa0, $fa0, $fa1
	div.w	$a0, $a0, $a4
	movfr2gr.d	$a1, $fa1
	addi.w	$a1, $a1, 0
	div.w	$a0, $a0, $a1
	movgr2fr.w	$fa1, $a0
	ffint.d.w	$fa1, $fa1
	ld.d	$a2, $sp, 448                   # 8-byte Folded Reload
	ld.w	$a0, $a2, 0
	fadd.d	$fa0, $fa0, $fa1
	ftintrz.w.d	$fa0, $fa0
	movfr2gr.s	$a1, $fa0
	add.d	$a0, $a0, $a1
	st.w	$a0, $a2, 0
	addi.w	$fp, $zero, -1
.LBB11_2:                               # %try.cont
	ld.d	$a0, $sp, 520
.Ltmp38:                                # EH_LABEL
	st.d	$fp, $sp, 8
	st.d	$zero, $sp, 0
	pcalau12i	$a1, %pc_hi20(.L.str.36)
	addi.d	$a1, $a1, %pc_lo12(.L.str.36)
	lu12i.w	$a3, 1
	addi.d	$a2, $sp, 552
	ori	$a6, $zero, 2048
	ori	$a7, $zero, 1
	fld.d	$fa0, $sp, 512                  # 8-byte Folded Reload
	move	$a4, $zero
	pcaddu18i	$ra, %call36(_Z11check_tracePKcS0_PK13trace_elementdjbjjbbi)
	jirl	$ra, $ra, 0
.Ltmp39:                                # EH_LABEL
# %bb.3:                                # %invoke.cont17
	ld.d	$a1, $sp, 520
	addi.d	$a2, $sp, 536
	beq	$a1, $a2, .LBB11_5
# %bb.4:                                # %if.then.i.i
	move	$fp, $a0
	move	$a0, $a1
	pcaddu18i	$ra, %call36(_ZdlPv)
	jirl	$ra, $ra, 0
	move	$a0, $fp
.LBB11_5:                               # %_ZNSt7__cxx1112basic_stringIcSt11char_traitsIcESaIcEED2Ev.exit
	fld.d	$fs7, $sp, 1352                 # 8-byte Folded Reload
	fld.d	$fs6, $sp, 1360                 # 8-byte Folded Reload
	fld.d	$fs5, $sp, 1368                 # 8-byte Folded Reload
	fld.d	$fs4, $sp, 1376                 # 8-byte Folded Reload
	fld.d	$fs3, $sp, 1384                 # 8-byte Folded Reload
	fld.d	$fs2, $sp, 1392                 # 8-byte Folded Reload
	fld.d	$fs1, $sp, 1400                 # 8-byte Folded Reload
	fld.d	$fs0, $sp, 1408                 # 8-byte Folded Reload
	ld.d	$s8, $sp, 1416                  # 8-byte Folded Reload
	ld.d	$s7, $sp, 1424                  # 8-byte Folded Reload
	ld.d	$s6, $sp, 1432                  # 8-byte Folded Reload
	ld.d	$s5, $sp, 1440                  # 8-byte Folded Reload
	ld.d	$s4, $sp, 1448                  # 8-byte Folded Reload
	ld.d	$s3, $sp, 1456                  # 8-byte Folded Reload
	ld.d	$s2, $sp, 1464                  # 8-byte Folded Reload
	ld.d	$s1, $sp, 1472                  # 8-byte Folded Reload
	ld.d	$s0, $sp, 1480                  # 8-byte Folded Reload
	ld.d	$fp, $sp, 1488                  # 8-byte Folded Reload
	ld.d	$ra, $sp, 1496                  # 8-byte Folded Reload
	addi.d	$sp, $sp, 1504
	ret
.LBB11_6:                               # %lpad16
.Ltmp40:                                # EH_LABEL
	move	$fp, $a0
.LBB11_7:                               # %ehcleanup
	ld.d	$a0, $sp, 520
	addi.d	$a1, $sp, 536
	beq	$a0, $a1, .LBB11_9
# %bb.8:                                # %if.then.i.i343
	pcaddu18i	$ra, %call36(_ZdlPv)
	jirl	$ra, $ra, 0
.LBB11_9:                               # %_ZNSt7__cxx1112basic_stringIcSt11char_traitsIcESaIcEED2Ev.exit347
	move	$a0, $fp
	pcaddu18i	$ra, %call36(_Unwind_Resume)
	jirl	$ra, $ra, 0
.LBB11_10:                              # %lpad5
.Ltmp37:                                # EH_LABEL
	addi.w	$a1, $a1, 0
	move	$fp, $a0
	ori	$a0, $zero, 1
	bne	$a1, $a0, .LBB11_7
# %bb.11:                               # %catch
	move	$a0, $fp
	pcaddu18i	$ra, %call36(__cxa_begin_catch)
	jirl	$ra, $ra, 0
	ld.w	$fp, $a0, 0
	pcaddu18i	$ra, %call36(__cxa_end_catch)
	jirl	$ra, $ra, 0
	b	.LBB11_2
.Lfunc_end11:
	.size	_Z19check_frame_variantILb1ELb0ELb1ELb0ELb0EEbiRVi, .Lfunc_end11-_Z19check_frame_variantILb1ELb0ELb1ELb0ELb0EEbiRVi
	.cfi_endproc
	.section	.gcc_except_table._Z19check_frame_variantILb1ELb0ELb1ELb0ELb0EEbiRVi,"aG",@progbits,_Z19check_frame_variantILb1ELb0ELb1ELb0ELb0EEbiRVi,comdat
	.p2align	2, 0x0
GCC_except_table11:
.Lexception5:
	.byte	255                             # @LPStart Encoding = omit
	.byte	155                             # @TType Encoding = indirect pcrel sdata4
	.uleb128 .Lttbase0-.Lttbaseref0
.Lttbaseref0:
	.byte	1                               # Call site Encoding = uleb128
	.uleb128 .Lcst_end5-.Lcst_begin5
.Lcst_begin5:
	.uleb128 .Lfunc_begin5-.Lfunc_begin5    # >> Call Site 1 <<
	.uleb128 .Ltmp35-.Lfunc_begin5          #   Call between .Lfunc_begin5 and .Ltmp35
	.byte	0                               #     has no landing pad
	.byte	0                               #   On action: cleanup
	.uleb128 .Ltmp35-.Lfunc_begin5          # >> Call Site 2 <<
	.uleb128 .Ltmp36-.Ltmp35                #   Call between .Ltmp35 and .Ltmp36
	.uleb128 .Ltmp37-.Lfunc_begin5          #     jumps to .Ltmp37
	.byte	3                               #   On action: 2
	.uleb128 .Ltmp38-.Lfunc_begin5          # >> Call Site 3 <<
	.uleb128 .Ltmp39-.Ltmp38                #   Call between .Ltmp38 and .Ltmp39
	.uleb128 .Ltmp40-.Lfunc_begin5          #     jumps to .Ltmp40
	.byte	0                               #   On action: cleanup
	.uleb128 .Ltmp39-.Lfunc_begin5          # >> Call Site 4 <<
	.uleb128 .Lfunc_end11-.Ltmp39           #   Call between .Ltmp39 and .Lfunc_end11
	.byte	0                               #     has no landing pad
	.byte	0                               #   On action: cleanup
.Lcst_end5:
	.byte	0                               # >> Action Record 1 <<
                                        #   Cleanup
	.byte	0                               #   No further actions
	.byte	1                               # >> Action Record 2 <<
                                        #   Catch TypeInfo 1
	.byte	125                             #   Continue to action 1
	.p2align	2, 0x0
                                        # >> Catch TypeInfos <<
.Ltmp41:                                # TypeInfo 1
	.word	.L_ZTIi.DW.stub-.Ltmp41
.Lttbase0:
	.p2align	2, 0x0
                                        # -- End function
	.section	.text._Z19check_frame_variantILb0ELb0ELb1ELb0ELb0EEbiRVi,"axG",@progbits,_Z19check_frame_variantILb0ELb0ELb1ELb0ELb0EEbiRVi,comdat
	.weak	_Z19check_frame_variantILb0ELb0ELb1ELb0ELb0EEbiRVi # -- Begin function _Z19check_frame_variantILb0ELb0ELb1ELb0ELb0EEbiRVi
	.p2align	5
	.type	_Z19check_frame_variantILb0ELb0ELb1ELb0ELb0EEbiRVi,@function
_Z19check_frame_variantILb0ELb0ELb1ELb0ELb0EEbiRVi: # @_Z19check_frame_variantILb0ELb0ELb1ELb0ELb0EEbiRVi
.Lfunc_begin6:
	.cfi_startproc
	.cfi_personality 155, DW.ref.__gxx_personality_v0
	.cfi_lsda 27, .Lexception6
# %bb.0:                                # %entry
	addi.d	$sp, $sp, -1504
	.cfi_def_cfa_offset 1504
	st.d	$ra, $sp, 1496                  # 8-byte Folded Spill
	st.d	$fp, $sp, 1488                  # 8-byte Folded Spill
	st.d	$s0, $sp, 1480                  # 8-byte Folded Spill
	st.d	$s1, $sp, 1472                  # 8-byte Folded Spill
	st.d	$s2, $sp, 1464                  # 8-byte Folded Spill
	st.d	$s3, $sp, 1456                  # 8-byte Folded Spill
	st.d	$s4, $sp, 1448                  # 8-byte Folded Spill
	st.d	$s5, $sp, 1440                  # 8-byte Folded Spill
	st.d	$s6, $sp, 1432                  # 8-byte Folded Spill
	st.d	$s7, $sp, 1424                  # 8-byte Folded Spill
	st.d	$s8, $sp, 1416                  # 8-byte Folded Spill
	fst.d	$fs0, $sp, 1408                 # 8-byte Folded Spill
	fst.d	$fs1, $sp, 1400                 # 8-byte Folded Spill
	fst.d	$fs2, $sp, 1392                 # 8-byte Folded Spill
	fst.d	$fs3, $sp, 1384                 # 8-byte Folded Spill
	fst.d	$fs4, $sp, 1376                 # 8-byte Folded Spill
	fst.d	$fs5, $sp, 1368                 # 8-byte Folded Spill
	fst.d	$fs6, $sp, 1360                 # 8-byte Folded Spill
	fst.d	$fs7, $sp, 1352                 # 8-byte Folded Spill
	.cfi_offset 1, -8
	.cfi_offset 22, -16
	.cfi_offset 23, -24
	.cfi_offset 24, -32
	.cfi_offset 25, -40
	.cfi_offset 26, -48
	.cfi_offset 27, -56
	.cfi_offset 28, -64
	.cfi_offset 29, -72
	.cfi_offset 30, -80
	.cfi_offset 31, -88
	.cfi_offset 56, -96
	.cfi_offset 57, -104
	.cfi_offset 58, -112
	.cfi_offset 59, -120
	.cfi_offset 60, -128
	.cfi_offset 61, -136
	.cfi_offset 62, -144
	.cfi_offset 63, -152
	st.d	$a1, $sp, 448                   # 8-byte Folded Spill
	move	$s0, $a0
	addi.d	$a0, $sp, 520
	ori	$a3, $zero, 1
	move	$a1, $zero
	move	$a2, $zero
	move	$a4, $zero
	move	$a5, $zero
	pcaddu18i	$ra, %call36(_Z24getTestDescriptionStringB5cxx11bbbbb)
	jirl	$ra, $ra, 0
	movgr2fr.w	$fa0, $s0
	ffint.d.w	$fs0, $fa0
	fadd.d	$fa0, $fs0, $fs0
	fst.d	$fa0, $sp, 504                  # 8-byte Folded Spill
	fadd.d	$fa0, $fa0, $fs0
	fst.d	$fa0, $sp, 496                  # 8-byte Folded Spill
	fadd.d	$fa0, $fa0, $fs0
	fst.d	$fa0, $sp, 488                  # 8-byte Folded Spill
	fadd.d	$fa0, $fa0, $fs0
	fst.d	$fa0, $sp, 480                  # 8-byte Folded Spill
	fadd.d	$fa0, $fa0, $fs0
	fst.d	$fa0, $sp, 472                  # 8-byte Folded Spill
	fadd.d	$fa0, $fa0, $fs0
	fst.d	$fa0, $sp, 464                  # 8-byte Folded Spill
	fadd.d	$fa0, $fa0, $fs0
	fst.d	$fa0, $sp, 456                  # 8-byte Folded Spill
	fadd.d	$fs5, $fa0, $fs0
	fadd.d	$fs4, $fs5, $fs0
	fadd.d	$fs3, $fs4, $fs0
	fadd.d	$fs2, $fs3, $fs0
	fadd.d	$fs1, $fs2, $fs0
	fadd.d	$fa6, $fs1, $fs0
	fadd.d	$fa7, $fa6, $fs0
	fadd.d	$ft0, $fa7, $fs0
	fadd.d	$ft1, $ft0, $fs0
	fadd.d	$ft2, $ft1, $fs0
	fadd.d	$ft3, $ft2, $fs0
	fadd.d	$ft4, $ft3, $fs0
	fadd.d	$ft5, $ft4, $fs0
	fadd.d	$ft6, $ft5, $fs0
	fadd.d	$ft7, $ft6, $fs0
	fadd.d	$ft8, $ft7, $fs0
	fadd.d	$ft9, $ft8, $fs0
	fadd.d	$ft10, $ft9, $fs0
	fadd.d	$ft11, $ft10, $fs0
	fadd.d	$ft12, $ft11, $fs0
	fadd.d	$ft13, $ft12, $fs0
	fadd.d	$ft14, $ft13, $fs0
	fadd.d	$ft15, $ft14, $fs0
	fadd.d	$fs7, $ft15, $fs0
	alsl.w	$fp, $s0, $s0, 1
	alsl.w	$s6, $s0, $s0, 2
	slli.w	$s3, $s0, 3
	sub.w	$ra, $s3, $s0
	alsl.w	$s4, $s0, $s0, 3
	alsl.w	$s2, $s0, $s3, 2
	ori	$a0, $zero, 14
	mul.w	$t6, $s0, $a0
	slli.w	$s7, $s0, 4
	sub.w	$s1, $s7, $s0
	alsl.w	$t7, $s0, $s0, 4
	alsl.w	$t8, $s0, $s7, 1
	alsl.d	$a1, $s0, $s0, 3
	alsl.w	$t5, $s0, $s7, 2
	ori	$a0, $zero, 22
	mul.w	$t4, $s0, $a0
	ori	$a0, $zero, 23
	mul.w	$t3, $s0, $a0
	alsl.w	$t2, $s0, $s7, 3
	ori	$a0, $zero, 26
	mul.w	$a5, $s0, $a0
	ori	$a0, $zero, 28
	mul.w	$a2, $s0, $a0
	ori	$a0, $zero, 29
	mul.w	$a4, $s0, $a0
	ori	$a0, $zero, 30
	mul.w	$a6, $s0, $a0
	slli.w	$s5, $s0, 5
	sub.w	$t1, $s5, $s0
	add.w	$t0, $s5, $s0
	alsl.w	$a7, $s0, $s5, 1
	alsl.w	$a3, $s0, $s5, 2
	st.d	$a1, $sp, 312                   # 8-byte Folded Spill
	alsl.d	$a1, $a1, $s0, 2
	addi.w	$a0, $a1, 1
	sltui	$a0, $a0, 3
	st.d	$a1, $sp, 440                   # 8-byte Folded Spill
	maskeqz	$a0, $a1, $a0
	addi.w	$a0, $a0, 0
	st.d	$a3, $sp, 424                   # 8-byte Folded Spill
	div.w	$a0, $a0, $a3
	alsl.w	$a1, $t7, $s0, 1
	div.w	$a0, $a0, $a1
	st.d	$a7, $sp, 392                   # 8-byte Folded Spill
	div.w	$a0, $a0, $a7
	st.d	$t0, $sp, 384                   # 8-byte Folded Spill
	div.w	$a0, $a0, $t0
	div.w	$a0, $a0, $s5
	st.d	$t1, $sp, 376                   # 8-byte Folded Spill
	div.w	$a0, $a0, $t1
	st.d	$a6, $sp, 400                   # 8-byte Folded Spill
	div.w	$a0, $a0, $a6
	st.d	$a4, $sp, 416                   # 8-byte Folded Spill
	div.w	$a0, $a0, $a4
	st.d	$a2, $sp, 432                   # 8-byte Folded Spill
	div.w	$a0, $a0, $a2
	alsl.w	$a1, $fp, $fp, 3
	div.w	$a0, $a0, $a1
	st.d	$a5, $sp, 408                   # 8-byte Folded Spill
	div.w	$a0, $a0, $a5
	alsl.w	$a1, $fp, $s0, 3
	div.w	$a0, $a0, $a1
	st.d	$t2, $sp, 368                   # 8-byte Folded Spill
	div.w	$a0, $a0, $t2
	st.d	$t3, $sp, 360                   # 8-byte Folded Spill
	div.w	$a0, $a0, $t3
	st.d	$t4, $sp, 352                   # 8-byte Folded Spill
	div.w	$a0, $a0, $t4
	alsl.w	$a1, $s6, $s0, 2
	div.w	$a0, $a0, $a1
	st.d	$t5, $sp, 344                   # 8-byte Folded Spill
	div.w	$a0, $a0, $t5
	alsl.w	$a1, $s4, $s0, 1
	div.w	$a0, $a0, $a1
	st.d	$t8, $sp, 320                   # 8-byte Folded Spill
	div.w	$a0, $a0, $t8
	st.d	$t7, $sp, 328                   # 8-byte Folded Spill
	div.w	$a0, $a0, $t7
	div.w	$a0, $a0, $s7
	st.d	$s1, $sp, 120                   # 8-byte Folded Spill
	div.w	$a0, $a0, $s1
	st.d	$t6, $sp, 336                   # 8-byte Folded Spill
	div.w	$a0, $a0, $t6
	alsl.w	$a1, $fp, $s0, 2
	div.w	$a0, $a0, $a1
	st.d	$s2, $sp, 112                   # 8-byte Folded Spill
	div.w	$a0, $a0, $s2
	alsl.w	$a1, $s6, $s0, 1
	div.w	$a0, $a0, $a1
	alsl.w	$s8, $s0, $s3, 1
	fadd.d	$fs6, $fs7, $fs0
	fadd.d	$fa5, $fs6, $fs0
	fadd.d	$fa3, $fa5, $fs0
	fadd.d	$fa2, $fa3, $fs0
	fadd.d	$fa1, $fa2, $fs0
	fadd.d	$fa0, $fa1, $fs0
	fadd.d	$fa4, $fa0, $fs0
	fst.d	$fa4, $sp, 80                   # 8-byte Folded Spill
	fst.d	$fa0, $sp, 32                   # 8-byte Folded Spill
	fdiv.d	$fa0, $fa4, $fa0
	fst.d	$fa1, $sp, 40                   # 8-byte Folded Spill
	fdiv.d	$fa0, $fa0, $fa1
	fst.d	$fa2, $sp, 48                   # 8-byte Folded Spill
	fdiv.d	$fa0, $fa0, $fa2
	fst.d	$fa3, $sp, 56                   # 8-byte Folded Spill
	fdiv.d	$fa0, $fa0, $fa3
	fst.d	$fa5, $sp, 64                   # 8-byte Folded Spill
	fdiv.d	$fa0, $fa0, $fa5
	fst.d	$fs6, $sp, 72                   # 8-byte Folded Spill
	fdiv.d	$fa0, $fa0, $fs6
	fst.d	$fs7, $sp, 128                  # 8-byte Folded Spill
	fdiv.d	$fa0, $fa0, $fs7
	fst.d	$ft15, $sp, 136                 # 8-byte Folded Spill
	fdiv.d	$fa0, $fa0, $ft15
	fst.d	$ft14, $sp, 144                 # 8-byte Folded Spill
	fdiv.d	$fa0, $fa0, $ft14
	fst.d	$ft13, $sp, 152                 # 8-byte Folded Spill
	fdiv.d	$fa0, $fa0, $ft13
	fst.d	$ft12, $sp, 160                 # 8-byte Folded Spill
	fdiv.d	$fa0, $fa0, $ft12
	fst.d	$ft11, $sp, 168                 # 8-byte Folded Spill
	fdiv.d	$fa0, $fa0, $ft11
	fst.d	$ft10, $sp, 176                 # 8-byte Folded Spill
	fdiv.d	$fa0, $fa0, $ft10
	fst.d	$ft9, $sp, 184                  # 8-byte Folded Spill
	fdiv.d	$fa0, $fa0, $ft9
	fst.d	$ft8, $sp, 192                  # 8-byte Folded Spill
	fdiv.d	$fa0, $fa0, $ft8
	fst.d	$ft7, $sp, 200                  # 8-byte Folded Spill
	fdiv.d	$fa0, $fa0, $ft7
	fst.d	$ft6, $sp, 208                  # 8-byte Folded Spill
	fdiv.d	$fa0, $fa0, $ft6
	fst.d	$ft5, $sp, 216                  # 8-byte Folded Spill
	fdiv.d	$fa0, $fa0, $ft5
	fst.d	$ft4, $sp, 224                  # 8-byte Folded Spill
	fdiv.d	$fa0, $fa0, $ft4
	fst.d	$ft3, $sp, 232                  # 8-byte Folded Spill
	fdiv.d	$fa0, $fa0, $ft3
	fst.d	$ft2, $sp, 240                  # 8-byte Folded Spill
	fdiv.d	$fa0, $fa0, $ft2
	fst.d	$ft1, $sp, 248                  # 8-byte Folded Spill
	fdiv.d	$fa0, $fa0, $ft1
	fst.d	$ft0, $sp, 256                  # 8-byte Folded Spill
	fdiv.d	$fa0, $fa0, $ft0
	fst.d	$fa7, $sp, 264                  # 8-byte Folded Spill
	fdiv.d	$fa0, $fa0, $fa7
	fst.d	$fa6, $sp, 272                  # 8-byte Folded Spill
	fdiv.d	$fa0, $fa0, $fa6
	fst.d	$fs1, $sp, 280                  # 8-byte Folded Spill
	fdiv.d	$fa0, $fa0, $fs1
	fst.d	$fs2, $sp, 288                  # 8-byte Folded Spill
	fdiv.d	$fa0, $fa0, $fs2
	fst.d	$fs3, $sp, 296                  # 8-byte Folded Spill
	fdiv.d	$fa0, $fa0, $fs3
	fst.d	$fs4, $sp, 304                  # 8-byte Folded Spill
	fdiv.d	$fa0, $fa0, $fs4
	fst.d	$fs5, $sp, 88                   # 8-byte Folded Spill
	fdiv.d	$fa0, $fa0, $fs5
	fld.d	$fa1, $sp, 456                  # 8-byte Folded Reload
	fmov.d	$fs6, $fa1
	fdiv.d	$fa0, $fa0, $fa1
	fld.d	$fa1, $sp, 464                  # 8-byte Folded Reload
	fmov.d	$fs5, $fa1
	fdiv.d	$fa0, $fa0, $fa1
	fld.d	$fa1, $sp, 472                  # 8-byte Folded Reload
	fmov.d	$fs4, $fa1
	fdiv.d	$fa0, $fa0, $fa1
	fld.d	$fa1, $sp, 480                  # 8-byte Folded Reload
	fmov.d	$fs3, $fa1
	fdiv.d	$fa0, $fa0, $fa1
	fld.d	$fa1, $sp, 488                  # 8-byte Folded Reload
	fmov.d	$fs2, $fa1
	fdiv.d	$fa0, $fa0, $fa1
	fld.d	$fa1, $sp, 496                  # 8-byte Folded Reload
	fmov.d	$fs1, $fa1
	fdiv.d	$fa0, $fa0, $fa1
	fld.d	$fa1, $sp, 504                  # 8-byte Folded Reload
	fmov.d	$fs7, $fa1
	fdiv.d	$fa0, $fa0, $fa1
	fdiv.d	$fa0, $fa0, $fs0
	div.w	$a0, $a0, $s8
	st.d	$s4, $sp, 104                   # 8-byte Folded Spill
	div.w	$a0, $a0, $s4
	div.w	$a0, $a0, $s3
	st.d	$ra, $sp, 96                    # 8-byte Folded Spill
	div.w	$a0, $a0, $ra
	slli.w	$s2, $s0, 2
	alsl.w	$s1, $s0, $s2, 1
	div.w	$a0, $a0, $s1
	div.w	$a0, $a0, $s6
	div.w	$a0, $a0, $s2
	div.w	$a0, $a0, $fp
	slli.w	$s4, $s0, 1
	div.w	$a0, $a0, $s4
	div.w	$a0, $a0, $s0
	movgr2fr.w	$fa1, $a0
	ffint.d.w	$fa1, $fa1
	fadd.d	$fa0, $fa0, $fa1
.Ltmp42:                                # EH_LABEL
	pcalau12i	$a0, %pc_hi20(.L.str.36)
	addi.d	$a1, $a0, %pc_lo12(.L.str.36)
	ori	$a0, $zero, 100
	addi.d	$a2, $sp, 552
	fst.d	$fa0, $sp, 512                  # 8-byte Folded Spill
	pcaddu18i	$ra, %call36(_Z10test_frameILj2ELb0ELj2048ELb1ELb0EJEEvDpT4_jPKcP13trace_elementd)
	jirl	$ra, $ra, 0
.Ltmp43:                                # EH_LABEL
# %bb.1:                                # %invoke.cont6
	fdiv.d	$fa0, $fs0, $fs7
	fdiv.d	$fa0, $fa0, $fs1
	fdiv.d	$fa0, $fa0, $fs2
	fdiv.d	$fa0, $fa0, $fs3
	fdiv.d	$fa0, $fa0, $fs4
	fdiv.d	$fa0, $fa0, $fs5
	fdiv.d	$fa0, $fa0, $fs6
	div.w	$a0, $s0, $s4
	div.w	$a0, $a0, $fp
	div.w	$a0, $a0, $s2
	div.w	$a0, $a0, $s6
	div.w	$a0, $a0, $s1
	fld.d	$fa1, $sp, 88                   # 8-byte Folded Reload
	fdiv.d	$fa0, $fa0, $fa1
	fld.d	$fa1, $sp, 304                  # 8-byte Folded Reload
	fdiv.d	$fa0, $fa0, $fa1
	fld.d	$fa1, $sp, 296                  # 8-byte Folded Reload
	fdiv.d	$fa0, $fa0, $fa1
	fld.d	$fa1, $sp, 288                  # 8-byte Folded Reload
	fdiv.d	$fa0, $fa0, $fa1
	fld.d	$fa1, $sp, 280                  # 8-byte Folded Reload
	fdiv.d	$fa0, $fa0, $fa1
	fld.d	$fa1, $sp, 272                  # 8-byte Folded Reload
	fdiv.d	$fa0, $fa0, $fa1
	fld.d	$fa1, $sp, 264                  # 8-byte Folded Reload
	fdiv.d	$fa0, $fa0, $fa1
	fld.d	$fa1, $sp, 256                  # 8-byte Folded Reload
	fdiv.d	$fa0, $fa0, $fa1
	fld.d	$fa1, $sp, 248                  # 8-byte Folded Reload
	fdiv.d	$fa0, $fa0, $fa1
	fld.d	$fa1, $sp, 240                  # 8-byte Folded Reload
	fdiv.d	$fa0, $fa0, $fa1
	fld.d	$fa1, $sp, 232                  # 8-byte Folded Reload
	fdiv.d	$fa0, $fa0, $fa1
	fld.d	$fa1, $sp, 224                  # 8-byte Folded Reload
	fdiv.d	$fa0, $fa0, $fa1
	fld.d	$fa1, $sp, 216                  # 8-byte Folded Reload
	fdiv.d	$fa0, $fa0, $fa1
	fld.d	$fa1, $sp, 208                  # 8-byte Folded Reload
	fdiv.d	$fa0, $fa0, $fa1
	fld.d	$fa1, $sp, 200                  # 8-byte Folded Reload
	fdiv.d	$fa0, $fa0, $fa1
	fld.d	$fa1, $sp, 192                  # 8-byte Folded Reload
	fdiv.d	$fa0, $fa0, $fa1
	fld.d	$fa1, $sp, 184                  # 8-byte Folded Reload
	fdiv.d	$fa0, $fa0, $fa1
	fld.d	$fa1, $sp, 176                  # 8-byte Folded Reload
	fdiv.d	$fa0, $fa0, $fa1
	fld.d	$fa1, $sp, 168                  # 8-byte Folded Reload
	fdiv.d	$fa0, $fa0, $fa1
	fld.d	$fa1, $sp, 160                  # 8-byte Folded Reload
	fdiv.d	$fa0, $fa0, $fa1
	fld.d	$fa1, $sp, 152                  # 8-byte Folded Reload
	fdiv.d	$fa0, $fa0, $fa1
	fld.d	$fa1, $sp, 144                  # 8-byte Folded Reload
	fdiv.d	$fa0, $fa0, $fa1
	fld.d	$fa1, $sp, 136                  # 8-byte Folded Reload
	fdiv.d	$fa0, $fa0, $fa1
	fld.d	$fa1, $sp, 128                  # 8-byte Folded Reload
	fdiv.d	$fa0, $fa0, $fa1
	fld.d	$fa1, $sp, 72                   # 8-byte Folded Reload
	fdiv.d	$fa0, $fa0, $fa1
	fld.d	$fa1, $sp, 64                   # 8-byte Folded Reload
	fdiv.d	$fa0, $fa0, $fa1
	fld.d	$fa1, $sp, 56                   # 8-byte Folded Reload
	fdiv.d	$fa0, $fa0, $fa1
	fld.d	$fa1, $sp, 48                   # 8-byte Folded Reload
	fdiv.d	$fa0, $fa0, $fa1
	fld.d	$fa1, $sp, 40                   # 8-byte Folded Reload
	fdiv.d	$fa0, $fa0, $fa1
	fld.d	$fa1, $sp, 32                   # 8-byte Folded Reload
	fdiv.d	$fa0, $fa0, $fa1
	ld.d	$a1, $sp, 96                    # 8-byte Folded Reload
	div.w	$a0, $a0, $a1
	div.w	$a0, $a0, $s3
	ld.d	$a1, $sp, 104                   # 8-byte Folded Reload
	div.w	$a0, $a0, $a1
	alsl.d	$a1, $s0, $s0, 2
	div.w	$a0, $a0, $s8
	alsl.d	$a2, $a1, $s0, 1
	addi.w	$a2, $a2, 0
	div.w	$a0, $a0, $a2
	alsl.d	$a2, $s0, $s0, 1
	ld.d	$a3, $sp, 112                   # 8-byte Folded Reload
	div.w	$a0, $a0, $a3
	alsl.d	$a3, $a2, $s0, 2
	addi.w	$a3, $a3, 0
	div.w	$a0, $a0, $a3
	ld.d	$a3, $sp, 336                   # 8-byte Folded Reload
	div.w	$a0, $a0, $a3
	ld.d	$a3, $sp, 120                   # 8-byte Folded Reload
	div.w	$a0, $a0, $a3
	div.w	$a0, $a0, $s7
	ld.d	$a3, $sp, 328                   # 8-byte Folded Reload
	div.w	$a0, $a0, $a3
	ld.d	$a3, $sp, 320                   # 8-byte Folded Reload
	div.w	$a0, $a0, $a3
	ld.d	$a3, $sp, 312                   # 8-byte Folded Reload
	alsl.d	$a3, $a3, $s0, 1
	addi.w	$a3, $a3, 0
	div.w	$a0, $a0, $a3
	ld.d	$a3, $sp, 344                   # 8-byte Folded Reload
	div.w	$a0, $a0, $a3
	alsl.d	$a1, $a1, $s0, 2
	addi.w	$a1, $a1, 0
	div.w	$a0, $a0, $a1
	ld.d	$a1, $sp, 352                   # 8-byte Folded Reload
	div.w	$a0, $a0, $a1
	alsl.d	$a1, $s0, $s0, 4
	alsl.d	$a1, $a1, $s0, 1
	ld.d	$a3, $sp, 360                   # 8-byte Folded Reload
	div.w	$a0, $a0, $a3
	ori	$a3, $zero, 38
	mul.w	$a3, $s0, $a3
	ld.d	$a4, $sp, 368                   # 8-byte Folded Reload
	div.w	$a0, $a0, $a4
	ori	$a4, $zero, 39
	mul.w	$a4, $s0, $a4
	alsl.d	$a5, $a2, $s0, 3
	addi.w	$a5, $a5, 0
	div.w	$a0, $a0, $a5
	ld.d	$a5, $sp, 408                   # 8-byte Folded Reload
	div.w	$a0, $a0, $a5
	alsl.d	$a2, $a2, $a2, 3
	addi.w	$a2, $a2, 0
	div.w	$a0, $a0, $a2
	ld.d	$a2, $sp, 432                   # 8-byte Folded Reload
	div.w	$a0, $a0, $a2
	ld.d	$a2, $sp, 416                   # 8-byte Folded Reload
	div.w	$a0, $a0, $a2
	ld.d	$a2, $sp, 400                   # 8-byte Folded Reload
	div.w	$a0, $a0, $a2
	ld.d	$a2, $sp, 376                   # 8-byte Folded Reload
	div.w	$a0, $a0, $a2
	div.w	$a0, $a0, $s5
	ld.d	$a2, $sp, 384                   # 8-byte Folded Reload
	div.w	$a0, $a0, $a2
	ld.d	$a2, $sp, 392                   # 8-byte Folded Reload
	div.w	$a0, $a0, $a2
	addi.w	$a1, $a1, 0
	div.w	$a0, $a0, $a1
	ld.d	$a1, $sp, 424                   # 8-byte Folded Reload
	div.w	$a0, $a0, $a1
	fld.d	$fa1, $sp, 80                   # 8-byte Folded Reload
	fdiv.d	$fa0, $fa0, $fa1
	fld.d	$fa1, $sp, 552
	ld.d	$a1, $sp, 440                   # 8-byte Folded Reload
	addi.w	$a1, $a1, 0
	div.w	$a0, $a0, $a1
	div.w	$a0, $a0, $a3
	fdiv.d	$fa0, $fa0, $fa1
	div.w	$a0, $a0, $a4
	movfr2gr.d	$a1, $fa1
	addi.w	$a1, $a1, 0
	div.w	$a0, $a0, $a1
	movgr2fr.w	$fa1, $a0
	ffint.d.w	$fa1, $fa1
	ld.d	$a2, $sp, 448                   # 8-byte Folded Reload
	ld.w	$a0, $a2, 0
	fadd.d	$fa0, $fa0, $fa1
	ftintrz.w.d	$fa0, $fa0
	movfr2gr.s	$a1, $fa0
	add.d	$a0, $a0, $a1
	st.w	$a0, $a2, 0
	addi.w	$fp, $zero, -1
.LBB12_2:                               # %try.cont
	ld.d	$a0, $sp, 520
.Ltmp45:                                # EH_LABEL
	st.d	$fp, $sp, 8
	st.d	$zero, $sp, 0
	pcalau12i	$a1, %pc_hi20(.L.str.36)
	addi.d	$a1, $a1, %pc_lo12(.L.str.36)
	addi.d	$a2, $sp, 552
	ori	$a3, $zero, 2
	ori	$a6, $zero, 2048
	ori	$a7, $zero, 1
	fld.d	$fa0, $sp, 512                  # 8-byte Folded Reload
	move	$a4, $zero
	pcaddu18i	$ra, %call36(_Z11check_tracePKcS0_PK13trace_elementdjbjjbbi)
	jirl	$ra, $ra, 0
.Ltmp46:                                # EH_LABEL
# %bb.3:                                # %invoke.cont17
	ld.d	$a1, $sp, 520
	addi.d	$a2, $sp, 536
	beq	$a1, $a2, .LBB12_5
# %bb.4:                                # %if.then.i.i
	move	$fp, $a0
	move	$a0, $a1
	pcaddu18i	$ra, %call36(_ZdlPv)
	jirl	$ra, $ra, 0
	move	$a0, $fp
.LBB12_5:                               # %_ZNSt7__cxx1112basic_stringIcSt11char_traitsIcESaIcEED2Ev.exit
	fld.d	$fs7, $sp, 1352                 # 8-byte Folded Reload
	fld.d	$fs6, $sp, 1360                 # 8-byte Folded Reload
	fld.d	$fs5, $sp, 1368                 # 8-byte Folded Reload
	fld.d	$fs4, $sp, 1376                 # 8-byte Folded Reload
	fld.d	$fs3, $sp, 1384                 # 8-byte Folded Reload
	fld.d	$fs2, $sp, 1392                 # 8-byte Folded Reload
	fld.d	$fs1, $sp, 1400                 # 8-byte Folded Reload
	fld.d	$fs0, $sp, 1408                 # 8-byte Folded Reload
	ld.d	$s8, $sp, 1416                  # 8-byte Folded Reload
	ld.d	$s7, $sp, 1424                  # 8-byte Folded Reload
	ld.d	$s6, $sp, 1432                  # 8-byte Folded Reload
	ld.d	$s5, $sp, 1440                  # 8-byte Folded Reload
	ld.d	$s4, $sp, 1448                  # 8-byte Folded Reload
	ld.d	$s3, $sp, 1456                  # 8-byte Folded Reload
	ld.d	$s2, $sp, 1464                  # 8-byte Folded Reload
	ld.d	$s1, $sp, 1472                  # 8-byte Folded Reload
	ld.d	$s0, $sp, 1480                  # 8-byte Folded Reload
	ld.d	$fp, $sp, 1488                  # 8-byte Folded Reload
	ld.d	$ra, $sp, 1496                  # 8-byte Folded Reload
	addi.d	$sp, $sp, 1504
	ret
.LBB12_6:                               # %lpad16
.Ltmp47:                                # EH_LABEL
	move	$fp, $a0
.LBB12_7:                               # %ehcleanup
	ld.d	$a0, $sp, 520
	addi.d	$a1, $sp, 536
	beq	$a0, $a1, .LBB12_9
# %bb.8:                                # %if.then.i.i343
	pcaddu18i	$ra, %call36(_ZdlPv)
	jirl	$ra, $ra, 0
.LBB12_9:                               # %_ZNSt7__cxx1112basic_stringIcSt11char_traitsIcESaIcEED2Ev.exit347
	move	$a0, $fp
	pcaddu18i	$ra, %call36(_Unwind_Resume)
	jirl	$ra, $ra, 0
.LBB12_10:                              # %lpad5
.Ltmp44:                                # EH_LABEL
	addi.w	$a1, $a1, 0
	move	$fp, $a0
	ori	$a0, $zero, 1
	bne	$a1, $a0, .LBB12_7
# %bb.11:                               # %catch
	move	$a0, $fp
	pcaddu18i	$ra, %call36(__cxa_begin_catch)
	jirl	$ra, $ra, 0
	ld.w	$fp, $a0, 0
	pcaddu18i	$ra, %call36(__cxa_end_catch)
	jirl	$ra, $ra, 0
	b	.LBB12_2
.Lfunc_end12:
	.size	_Z19check_frame_variantILb0ELb0ELb1ELb0ELb0EEbiRVi, .Lfunc_end12-_Z19check_frame_variantILb0ELb0ELb1ELb0ELb0EEbiRVi
	.cfi_endproc
	.section	.gcc_except_table._Z19check_frame_variantILb0ELb0ELb1ELb0ELb0EEbiRVi,"aG",@progbits,_Z19check_frame_variantILb0ELb0ELb1ELb0ELb0EEbiRVi,comdat
	.p2align	2, 0x0
GCC_except_table12:
.Lexception6:
	.byte	255                             # @LPStart Encoding = omit
	.byte	155                             # @TType Encoding = indirect pcrel sdata4
	.uleb128 .Lttbase1-.Lttbaseref1
.Lttbaseref1:
	.byte	1                               # Call site Encoding = uleb128
	.uleb128 .Lcst_end6-.Lcst_begin6
.Lcst_begin6:
	.uleb128 .Lfunc_begin6-.Lfunc_begin6    # >> Call Site 1 <<
	.uleb128 .Ltmp42-.Lfunc_begin6          #   Call between .Lfunc_begin6 and .Ltmp42
	.byte	0                               #     has no landing pad
	.byte	0                               #   On action: cleanup
	.uleb128 .Ltmp42-.Lfunc_begin6          # >> Call Site 2 <<
	.uleb128 .Ltmp43-.Ltmp42                #   Call between .Ltmp42 and .Ltmp43
	.uleb128 .Ltmp44-.Lfunc_begin6          #     jumps to .Ltmp44
	.byte	3                               #   On action: 2
	.uleb128 .Ltmp45-.Lfunc_begin6          # >> Call Site 3 <<
	.uleb128 .Ltmp46-.Ltmp45                #   Call between .Ltmp45 and .Ltmp46
	.uleb128 .Ltmp47-.Lfunc_begin6          #     jumps to .Ltmp47
	.byte	0                               #   On action: cleanup
	.uleb128 .Ltmp46-.Lfunc_begin6          # >> Call Site 4 <<
	.uleb128 .Lfunc_end12-.Ltmp46           #   Call between .Ltmp46 and .Lfunc_end12
	.byte	0                               #     has no landing pad
	.byte	0                               #   On action: cleanup
.Lcst_end6:
	.byte	0                               # >> Action Record 1 <<
                                        #   Cleanup
	.byte	0                               #   No further actions
	.byte	1                               # >> Action Record 2 <<
                                        #   Catch TypeInfo 1
	.byte	125                             #   Continue to action 1
	.p2align	2, 0x0
                                        # >> Catch TypeInfos <<
.Ltmp48:                                # TypeInfo 1
	.word	.L_ZTIi.DW.stub-.Ltmp48
.Lttbase1:
	.p2align	2, 0x0
                                        # -- End function
	.section	.text._Z19check_frame_variantILb1ELb1ELb1ELb0ELb0EEbiRVi,"axG",@progbits,_Z19check_frame_variantILb1ELb1ELb1ELb0ELb0EEbiRVi,comdat
	.weak	_Z19check_frame_variantILb1ELb1ELb1ELb0ELb0EEbiRVi # -- Begin function _Z19check_frame_variantILb1ELb1ELb1ELb0ELb0EEbiRVi
	.p2align	5
	.type	_Z19check_frame_variantILb1ELb1ELb1ELb0ELb0EEbiRVi,@function
_Z19check_frame_variantILb1ELb1ELb1ELb0ELb0EEbiRVi: # @_Z19check_frame_variantILb1ELb1ELb1ELb0ELb0EEbiRVi
.Lfunc_begin7:
	.cfi_startproc
	.cfi_personality 155, DW.ref.__gxx_personality_v0
	.cfi_lsda 27, .Lexception7
# %bb.0:                                # %entry
	addi.d	$sp, $sp, -1504
	.cfi_def_cfa_offset 1504
	st.d	$ra, $sp, 1496                  # 8-byte Folded Spill
	st.d	$fp, $sp, 1488                  # 8-byte Folded Spill
	st.d	$s0, $sp, 1480                  # 8-byte Folded Spill
	st.d	$s1, $sp, 1472                  # 8-byte Folded Spill
	st.d	$s2, $sp, 1464                  # 8-byte Folded Spill
	st.d	$s3, $sp, 1456                  # 8-byte Folded Spill
	st.d	$s4, $sp, 1448                  # 8-byte Folded Spill
	st.d	$s5, $sp, 1440                  # 8-byte Folded Spill
	st.d	$s6, $sp, 1432                  # 8-byte Folded Spill
	st.d	$s7, $sp, 1424                  # 8-byte Folded Spill
	st.d	$s8, $sp, 1416                  # 8-byte Folded Spill
	fst.d	$fs0, $sp, 1408                 # 8-byte Folded Spill
	fst.d	$fs1, $sp, 1400                 # 8-byte Folded Spill
	fst.d	$fs2, $sp, 1392                 # 8-byte Folded Spill
	fst.d	$fs3, $sp, 1384                 # 8-byte Folded Spill
	fst.d	$fs4, $sp, 1376                 # 8-byte Folded Spill
	fst.d	$fs5, $sp, 1368                 # 8-byte Folded Spill
	fst.d	$fs6, $sp, 1360                 # 8-byte Folded Spill
	fst.d	$fs7, $sp, 1352                 # 8-byte Folded Spill
	.cfi_offset 1, -8
	.cfi_offset 22, -16
	.cfi_offset 23, -24
	.cfi_offset 24, -32
	.cfi_offset 25, -40
	.cfi_offset 26, -48
	.cfi_offset 27, -56
	.cfi_offset 28, -64
	.cfi_offset 29, -72
	.cfi_offset 30, -80
	.cfi_offset 31, -88
	.cfi_offset 56, -96
	.cfi_offset 57, -104
	.cfi_offset 58, -112
	.cfi_offset 59, -120
	.cfi_offset 60, -128
	.cfi_offset 61, -136
	.cfi_offset 62, -144
	.cfi_offset 63, -152
	st.d	$a1, $sp, 448                   # 8-byte Folded Spill
	move	$s0, $a0
	addi.d	$a0, $sp, 520
	ori	$a1, $zero, 1
	ori	$a2, $zero, 1
	ori	$a3, $zero, 1
	move	$a4, $zero
	move	$a5, $zero
	pcaddu18i	$ra, %call36(_Z24getTestDescriptionStringB5cxx11bbbbb)
	jirl	$ra, $ra, 0
	movgr2fr.w	$fa0, $s0
	ffint.d.w	$fs0, $fa0
	fadd.d	$fa0, $fs0, $fs0
	fst.d	$fa0, $sp, 504                  # 8-byte Folded Spill
	fadd.d	$fa0, $fa0, $fs0
	fst.d	$fa0, $sp, 496                  # 8-byte Folded Spill
	fadd.d	$fa0, $fa0, $fs0
	fst.d	$fa0, $sp, 488                  # 8-byte Folded Spill
	fadd.d	$fa0, $fa0, $fs0
	fst.d	$fa0, $sp, 480                  # 8-byte Folded Spill
	fadd.d	$fa0, $fa0, $fs0
	fst.d	$fa0, $sp, 472                  # 8-byte Folded Spill
	fadd.d	$fa0, $fa0, $fs0
	fst.d	$fa0, $sp, 464                  # 8-byte Folded Spill
	fadd.d	$fa0, $fa0, $fs0
	fst.d	$fa0, $sp, 456                  # 8-byte Folded Spill
	fadd.d	$fs5, $fa0, $fs0
	fadd.d	$fs4, $fs5, $fs0
	fadd.d	$fs3, $fs4, $fs0
	fadd.d	$fs2, $fs3, $fs0
	fadd.d	$fs1, $fs2, $fs0
	fadd.d	$fa6, $fs1, $fs0
	fadd.d	$fa7, $fa6, $fs0
	fadd.d	$ft0, $fa7, $fs0
	fadd.d	$ft1, $ft0, $fs0
	fadd.d	$ft2, $ft1, $fs0
	fadd.d	$ft3, $ft2, $fs0
	fadd.d	$ft4, $ft3, $fs0
	fadd.d	$ft5, $ft4, $fs0
	fadd.d	$ft6, $ft5, $fs0
	fadd.d	$ft7, $ft6, $fs0
	fadd.d	$ft8, $ft7, $fs0
	fadd.d	$ft9, $ft8, $fs0
	fadd.d	$ft10, $ft9, $fs0
	fadd.d	$ft11, $ft10, $fs0
	fadd.d	$ft12, $ft11, $fs0
	fadd.d	$ft13, $ft12, $fs0
	fadd.d	$ft14, $ft13, $fs0
	fadd.d	$ft15, $ft14, $fs0
	fadd.d	$fs7, $ft15, $fs0
	alsl.w	$fp, $s0, $s0, 1
	alsl.w	$s6, $s0, $s0, 2
	slli.w	$s3, $s0, 3
	sub.w	$ra, $s3, $s0
	alsl.w	$s4, $s0, $s0, 3
	alsl.w	$s2, $s0, $s3, 2
	ori	$a0, $zero, 14
	mul.w	$t6, $s0, $a0
	slli.w	$s7, $s0, 4
	sub.w	$s1, $s7, $s0
	alsl.w	$t7, $s0, $s0, 4
	alsl.w	$t8, $s0, $s7, 1
	alsl.d	$a1, $s0, $s0, 3
	alsl.w	$t5, $s0, $s7, 2
	ori	$a0, $zero, 22
	mul.w	$t4, $s0, $a0
	ori	$a0, $zero, 23
	mul.w	$t3, $s0, $a0
	alsl.w	$t2, $s0, $s7, 3
	ori	$a0, $zero, 26
	mul.w	$a5, $s0, $a0
	ori	$a0, $zero, 28
	mul.w	$a2, $s0, $a0
	ori	$a0, $zero, 29
	mul.w	$a4, $s0, $a0
	ori	$a0, $zero, 30
	mul.w	$a6, $s0, $a0
	slli.w	$s5, $s0, 5
	sub.w	$t1, $s5, $s0
	add.w	$t0, $s5, $s0
	alsl.w	$a7, $s0, $s5, 1
	alsl.w	$a3, $s0, $s5, 2
	st.d	$a1, $sp, 312                   # 8-byte Folded Spill
	alsl.d	$a1, $a1, $s0, 2
	addi.w	$a0, $a1, 1
	sltui	$a0, $a0, 3
	st.d	$a1, $sp, 440                   # 8-byte Folded Spill
	maskeqz	$a0, $a1, $a0
	addi.w	$a0, $a0, 0
	st.d	$a3, $sp, 424                   # 8-byte Folded Spill
	div.w	$a0, $a0, $a3
	alsl.w	$a1, $t7, $s0, 1
	div.w	$a0, $a0, $a1
	st.d	$a7, $sp, 392                   # 8-byte Folded Spill
	div.w	$a0, $a0, $a7
	st.d	$t0, $sp, 384                   # 8-byte Folded Spill
	div.w	$a0, $a0, $t0
	div.w	$a0, $a0, $s5
	st.d	$t1, $sp, 376                   # 8-byte Folded Spill
	div.w	$a0, $a0, $t1
	st.d	$a6, $sp, 400                   # 8-byte Folded Spill
	div.w	$a0, $a0, $a6
	st.d	$a4, $sp, 416                   # 8-byte Folded Spill
	div.w	$a0, $a0, $a4
	st.d	$a2, $sp, 432                   # 8-byte Folded Spill
	div.w	$a0, $a0, $a2
	alsl.w	$a1, $fp, $fp, 3
	div.w	$a0, $a0, $a1
	st.d	$a5, $sp, 408                   # 8-byte Folded Spill
	div.w	$a0, $a0, $a5
	alsl.w	$a1, $fp, $s0, 3
	div.w	$a0, $a0, $a1
	st.d	$t2, $sp, 368                   # 8-byte Folded Spill
	div.w	$a0, $a0, $t2
	st.d	$t3, $sp, 360                   # 8-byte Folded Spill
	div.w	$a0, $a0, $t3
	st.d	$t4, $sp, 352                   # 8-byte Folded Spill
	div.w	$a0, $a0, $t4
	alsl.w	$a1, $s6, $s0, 2
	div.w	$a0, $a0, $a1
	st.d	$t5, $sp, 344                   # 8-byte Folded Spill
	div.w	$a0, $a0, $t5
	alsl.w	$a1, $s4, $s0, 1
	div.w	$a0, $a0, $a1
	st.d	$t8, $sp, 320                   # 8-byte Folded Spill
	div.w	$a0, $a0, $t8
	st.d	$t7, $sp, 328                   # 8-byte Folded Spill
	div.w	$a0, $a0, $t7
	div.w	$a0, $a0, $s7
	st.d	$s1, $sp, 120                   # 8-byte Folded Spill
	div.w	$a0, $a0, $s1
	st.d	$t6, $sp, 336                   # 8-byte Folded Spill
	div.w	$a0, $a0, $t6
	alsl.w	$a1, $fp, $s0, 2
	div.w	$a0, $a0, $a1
	st.d	$s2, $sp, 112                   # 8-byte Folded Spill
	div.w	$a0, $a0, $s2
	alsl.w	$a1, $s6, $s0, 1
	div.w	$a0, $a0, $a1
	alsl.w	$s8, $s0, $s3, 1
	fadd.d	$fs6, $fs7, $fs0
	fadd.d	$fa5, $fs6, $fs0
	fadd.d	$fa3, $fa5, $fs0
	fadd.d	$fa2, $fa3, $fs0
	fadd.d	$fa1, $fa2, $fs0
	fadd.d	$fa0, $fa1, $fs0
	fadd.d	$fa4, $fa0, $fs0
	fst.d	$fa4, $sp, 80                   # 8-byte Folded Spill
	fst.d	$fa0, $sp, 32                   # 8-byte Folded Spill
	fdiv.d	$fa0, $fa4, $fa0
	fst.d	$fa1, $sp, 40                   # 8-byte Folded Spill
	fdiv.d	$fa0, $fa0, $fa1
	fst.d	$fa2, $sp, 48                   # 8-byte Folded Spill
	fdiv.d	$fa0, $fa0, $fa2
	fst.d	$fa3, $sp, 56                   # 8-byte Folded Spill
	fdiv.d	$fa0, $fa0, $fa3
	fst.d	$fa5, $sp, 64                   # 8-byte Folded Spill
	fdiv.d	$fa0, $fa0, $fa5
	fst.d	$fs6, $sp, 72                   # 8-byte Folded Spill
	fdiv.d	$fa0, $fa0, $fs6
	fst.d	$fs7, $sp, 128                  # 8-byte Folded Spill
	fdiv.d	$fa0, $fa0, $fs7
	fst.d	$ft15, $sp, 136                 # 8-byte Folded Spill
	fdiv.d	$fa0, $fa0, $ft15
	fst.d	$ft14, $sp, 144                 # 8-byte Folded Spill
	fdiv.d	$fa0, $fa0, $ft14
	fst.d	$ft13, $sp, 152                 # 8-byte Folded Spill
	fdiv.d	$fa0, $fa0, $ft13
	fst.d	$ft12, $sp, 160                 # 8-byte Folded Spill
	fdiv.d	$fa0, $fa0, $ft12
	fst.d	$ft11, $sp, 168                 # 8-byte Folded Spill
	fdiv.d	$fa0, $fa0, $ft11
	fst.d	$ft10, $sp, 176                 # 8-byte Folded Spill
	fdiv.d	$fa0, $fa0, $ft10
	fst.d	$ft9, $sp, 184                  # 8-byte Folded Spill
	fdiv.d	$fa0, $fa0, $ft9
	fst.d	$ft8, $sp, 192                  # 8-byte Folded Spill
	fdiv.d	$fa0, $fa0, $ft8
	fst.d	$ft7, $sp, 200                  # 8-byte Folded Spill
	fdiv.d	$fa0, $fa0, $ft7
	fst.d	$ft6, $sp, 208                  # 8-byte Folded Spill
	fdiv.d	$fa0, $fa0, $ft6
	fst.d	$ft5, $sp, 216                  # 8-byte Folded Spill
	fdiv.d	$fa0, $fa0, $ft5
	fst.d	$ft4, $sp, 224                  # 8-byte Folded Spill
	fdiv.d	$fa0, $fa0, $ft4
	fst.d	$ft3, $sp, 232                  # 8-byte Folded Spill
	fdiv.d	$fa0, $fa0, $ft3
	fst.d	$ft2, $sp, 240                  # 8-byte Folded Spill
	fdiv.d	$fa0, $fa0, $ft2
	fst.d	$ft1, $sp, 248                  # 8-byte Folded Spill
	fdiv.d	$fa0, $fa0, $ft1
	fst.d	$ft0, $sp, 256                  # 8-byte Folded Spill
	fdiv.d	$fa0, $fa0, $ft0
	fst.d	$fa7, $sp, 264                  # 8-byte Folded Spill
	fdiv.d	$fa0, $fa0, $fa7
	fst.d	$fa6, $sp, 272                  # 8-byte Folded Spill
	fdiv.d	$fa0, $fa0, $fa6
	fst.d	$fs1, $sp, 280                  # 8-byte Folded Spill
	fdiv.d	$fa0, $fa0, $fs1
	fst.d	$fs2, $sp, 288                  # 8-byte Folded Spill
	fdiv.d	$fa0, $fa0, $fs2
	fst.d	$fs3, $sp, 296                  # 8-byte Folded Spill
	fdiv.d	$fa0, $fa0, $fs3
	fst.d	$fs4, $sp, 304                  # 8-byte Folded Spill
	fdiv.d	$fa0, $fa0, $fs4
	fst.d	$fs5, $sp, 88                   # 8-byte Folded Spill
	fdiv.d	$fa0, $fa0, $fs5
	fld.d	$fa1, $sp, 456                  # 8-byte Folded Reload
	fmov.d	$fs6, $fa1
	fdiv.d	$fa0, $fa0, $fa1
	fld.d	$fa1, $sp, 464                  # 8-byte Folded Reload
	fmov.d	$fs5, $fa1
	fdiv.d	$fa0, $fa0, $fa1
	fld.d	$fa1, $sp, 472                  # 8-byte Folded Reload
	fmov.d	$fs4, $fa1
	fdiv.d	$fa0, $fa0, $fa1
	fld.d	$fa1, $sp, 480                  # 8-byte Folded Reload
	fmov.d	$fs3, $fa1
	fdiv.d	$fa0, $fa0, $fa1
	fld.d	$fa1, $sp, 488                  # 8-byte Folded Reload
	fmov.d	$fs2, $fa1
	fdiv.d	$fa0, $fa0, $fa1
	fld.d	$fa1, $sp, 496                  # 8-byte Folded Reload
	fmov.d	$fs1, $fa1
	fdiv.d	$fa0, $fa0, $fa1
	fld.d	$fa1, $sp, 504                  # 8-byte Folded Reload
	fmov.d	$fs7, $fa1
	fdiv.d	$fa0, $fa0, $fa1
	fdiv.d	$fa0, $fa0, $fs0
	div.w	$a0, $a0, $s8
	st.d	$s4, $sp, 104                   # 8-byte Folded Spill
	div.w	$a0, $a0, $s4
	div.w	$a0, $a0, $s3
	st.d	$ra, $sp, 96                    # 8-byte Folded Spill
	div.w	$a0, $a0, $ra
	slli.w	$s2, $s0, 2
	alsl.w	$s1, $s0, $s2, 1
	div.w	$a0, $a0, $s1
	div.w	$a0, $a0, $s6
	div.w	$a0, $a0, $s2
	div.w	$a0, $a0, $fp
	slli.w	$s4, $s0, 1
	div.w	$a0, $a0, $s4
	div.w	$a0, $a0, $s0
	movgr2fr.w	$fa1, $a0
	ffint.d.w	$fa1, $fa1
	fadd.d	$fa0, $fa0, $fa1
.Ltmp49:                                # EH_LABEL
	pcalau12i	$a0, %pc_hi20(.L.str.36)
	addi.d	$a1, $a0, %pc_lo12(.L.str.36)
	ori	$a0, $zero, 100
	addi.d	$a2, $sp, 552
	fst.d	$fa0, $sp, 512                  # 8-byte Folded Spill
	pcaddu18i	$ra, %call36(_Z10test_frameILj4096ELb1ELj2048ELb1ELb0EJEEvDpT4_jPKcP13trace_elementd)
	jirl	$ra, $ra, 0
.Ltmp50:                                # EH_LABEL
# %bb.1:                                # %invoke.cont6
	fdiv.d	$fa0, $fs0, $fs7
	fdiv.d	$fa0, $fa0, $fs1
	fdiv.d	$fa0, $fa0, $fs2
	fdiv.d	$fa0, $fa0, $fs3
	fdiv.d	$fa0, $fa0, $fs4
	fdiv.d	$fa0, $fa0, $fs5
	fdiv.d	$fa0, $fa0, $fs6
	div.w	$a0, $s0, $s4
	div.w	$a0, $a0, $fp
	div.w	$a0, $a0, $s2
	div.w	$a0, $a0, $s6
	div.w	$a0, $a0, $s1
	fld.d	$fa1, $sp, 88                   # 8-byte Folded Reload
	fdiv.d	$fa0, $fa0, $fa1
	fld.d	$fa1, $sp, 304                  # 8-byte Folded Reload
	fdiv.d	$fa0, $fa0, $fa1
	fld.d	$fa1, $sp, 296                  # 8-byte Folded Reload
	fdiv.d	$fa0, $fa0, $fa1
	fld.d	$fa1, $sp, 288                  # 8-byte Folded Reload
	fdiv.d	$fa0, $fa0, $fa1
	fld.d	$fa1, $sp, 280                  # 8-byte Folded Reload
	fdiv.d	$fa0, $fa0, $fa1
	fld.d	$fa1, $sp, 272                  # 8-byte Folded Reload
	fdiv.d	$fa0, $fa0, $fa1
	fld.d	$fa1, $sp, 264                  # 8-byte Folded Reload
	fdiv.d	$fa0, $fa0, $fa1
	fld.d	$fa1, $sp, 256                  # 8-byte Folded Reload
	fdiv.d	$fa0, $fa0, $fa1
	fld.d	$fa1, $sp, 248                  # 8-byte Folded Reload
	fdiv.d	$fa0, $fa0, $fa1
	fld.d	$fa1, $sp, 240                  # 8-byte Folded Reload
	fdiv.d	$fa0, $fa0, $fa1
	fld.d	$fa1, $sp, 232                  # 8-byte Folded Reload
	fdiv.d	$fa0, $fa0, $fa1
	fld.d	$fa1, $sp, 224                  # 8-byte Folded Reload
	fdiv.d	$fa0, $fa0, $fa1
	fld.d	$fa1, $sp, 216                  # 8-byte Folded Reload
	fdiv.d	$fa0, $fa0, $fa1
	fld.d	$fa1, $sp, 208                  # 8-byte Folded Reload
	fdiv.d	$fa0, $fa0, $fa1
	fld.d	$fa1, $sp, 200                  # 8-byte Folded Reload
	fdiv.d	$fa0, $fa0, $fa1
	fld.d	$fa1, $sp, 192                  # 8-byte Folded Reload
	fdiv.d	$fa0, $fa0, $fa1
	fld.d	$fa1, $sp, 184                  # 8-byte Folded Reload
	fdiv.d	$fa0, $fa0, $fa1
	fld.d	$fa1, $sp, 176                  # 8-byte Folded Reload
	fdiv.d	$fa0, $fa0, $fa1
	fld.d	$fa1, $sp, 168                  # 8-byte Folded Reload
	fdiv.d	$fa0, $fa0, $fa1
	fld.d	$fa1, $sp, 160                  # 8-byte Folded Reload
	fdiv.d	$fa0, $fa0, $fa1
	fld.d	$fa1, $sp, 152                  # 8-byte Folded Reload
	fdiv.d	$fa0, $fa0, $fa1
	fld.d	$fa1, $sp, 144                  # 8-byte Folded Reload
	fdiv.d	$fa0, $fa0, $fa1
	fld.d	$fa1, $sp, 136                  # 8-byte Folded Reload
	fdiv.d	$fa0, $fa0, $fa1
	fld.d	$fa1, $sp, 128                  # 8-byte Folded Reload
	fdiv.d	$fa0, $fa0, $fa1
	fld.d	$fa1, $sp, 72                   # 8-byte Folded Reload
	fdiv.d	$fa0, $fa0, $fa1
	fld.d	$fa1, $sp, 64                   # 8-byte Folded Reload
	fdiv.d	$fa0, $fa0, $fa1
	fld.d	$fa1, $sp, 56                   # 8-byte Folded Reload
	fdiv.d	$fa0, $fa0, $fa1
	fld.d	$fa1, $sp, 48                   # 8-byte Folded Reload
	fdiv.d	$fa0, $fa0, $fa1
	fld.d	$fa1, $sp, 40                   # 8-byte Folded Reload
	fdiv.d	$fa0, $fa0, $fa1
	fld.d	$fa1, $sp, 32                   # 8-byte Folded Reload
	fdiv.d	$fa0, $fa0, $fa1
	ld.d	$a1, $sp, 96                    # 8-byte Folded Reload
	div.w	$a0, $a0, $a1
	div.w	$a0, $a0, $s3
	ld.d	$a1, $sp, 104                   # 8-byte Folded Reload
	div.w	$a0, $a0, $a1
	alsl.d	$a1, $s0, $s0, 2
	div.w	$a0, $a0, $s8
	alsl.d	$a2, $a1, $s0, 1
	addi.w	$a2, $a2, 0
	div.w	$a0, $a0, $a2
	alsl.d	$a2, $s0, $s0, 1
	ld.d	$a3, $sp, 112                   # 8-byte Folded Reload
	div.w	$a0, $a0, $a3
	alsl.d	$a3, $a2, $s0, 2
	addi.w	$a3, $a3, 0
	div.w	$a0, $a0, $a3
	ld.d	$a3, $sp, 336                   # 8-byte Folded Reload
	div.w	$a0, $a0, $a3
	ld.d	$a3, $sp, 120                   # 8-byte Folded Reload
	div.w	$a0, $a0, $a3
	div.w	$a0, $a0, $s7
	ld.d	$a3, $sp, 328                   # 8-byte Folded Reload
	div.w	$a0, $a0, $a3
	ld.d	$a3, $sp, 320                   # 8-byte Folded Reload
	div.w	$a0, $a0, $a3
	ld.d	$a3, $sp, 312                   # 8-byte Folded Reload
	alsl.d	$a3, $a3, $s0, 1
	addi.w	$a3, $a3, 0
	div.w	$a0, $a0, $a3
	ld.d	$a3, $sp, 344                   # 8-byte Folded Reload
	div.w	$a0, $a0, $a3
	alsl.d	$a1, $a1, $s0, 2
	addi.w	$a1, $a1, 0
	div.w	$a0, $a0, $a1
	ld.d	$a1, $sp, 352                   # 8-byte Folded Reload
	div.w	$a0, $a0, $a1
	alsl.d	$a1, $s0, $s0, 4
	alsl.d	$a1, $a1, $s0, 1
	ld.d	$a3, $sp, 360                   # 8-byte Folded Reload
	div.w	$a0, $a0, $a3
	ori	$a3, $zero, 38
	mul.w	$a3, $s0, $a3
	ld.d	$a4, $sp, 368                   # 8-byte Folded Reload
	div.w	$a0, $a0, $a4
	ori	$a4, $zero, 39
	mul.w	$a4, $s0, $a4
	alsl.d	$a5, $a2, $s0, 3
	addi.w	$a5, $a5, 0
	div.w	$a0, $a0, $a5
	ld.d	$a5, $sp, 408                   # 8-byte Folded Reload
	div.w	$a0, $a0, $a5
	alsl.d	$a2, $a2, $a2, 3
	addi.w	$a2, $a2, 0
	div.w	$a0, $a0, $a2
	ld.d	$a2, $sp, 432                   # 8-byte Folded Reload
	div.w	$a0, $a0, $a2
	ld.d	$a2, $sp, 416                   # 8-byte Folded Reload
	div.w	$a0, $a0, $a2
	ld.d	$a2, $sp, 400                   # 8-byte Folded Reload
	div.w	$a0, $a0, $a2
	ld.d	$a2, $sp, 376                   # 8-byte Folded Reload
	div.w	$a0, $a0, $a2
	div.w	$a0, $a0, $s5
	ld.d	$a2, $sp, 384                   # 8-byte Folded Reload
	div.w	$a0, $a0, $a2
	ld.d	$a2, $sp, 392                   # 8-byte Folded Reload
	div.w	$a0, $a0, $a2
	addi.w	$a1, $a1, 0
	div.w	$a0, $a0, $a1
	ld.d	$a1, $sp, 424                   # 8-byte Folded Reload
	div.w	$a0, $a0, $a1
	fld.d	$fa1, $sp, 80                   # 8-byte Folded Reload
	fdiv.d	$fa0, $fa0, $fa1
	fld.d	$fa1, $sp, 552
	ld.d	$a1, $sp, 440                   # 8-byte Folded Reload
	addi.w	$a1, $a1, 0
	div.w	$a0, $a0, $a1
	div.w	$a0, $a0, $a3
	fdiv.d	$fa0, $fa0, $fa1
	div.w	$a0, $a0, $a4
	movfr2gr.d	$a1, $fa1
	addi.w	$a1, $a1, 0
	div.w	$a0, $a0, $a1
	movgr2fr.w	$fa1, $a0
	ffint.d.w	$fa1, $fa1
	ld.d	$a2, $sp, 448                   # 8-byte Folded Reload
	ld.w	$a0, $a2, 0
	fadd.d	$fa0, $fa0, $fa1
	ftintrz.w.d	$fa0, $fa0
	movfr2gr.s	$a1, $fa0
	add.d	$a0, $a0, $a1
	st.w	$a0, $a2, 0
	addi.w	$fp, $zero, -1
.LBB13_2:                               # %try.cont
	ld.d	$a0, $sp, 520
.Ltmp52:                                # EH_LABEL
	st.d	$fp, $sp, 8
	st.d	$zero, $sp, 0
	pcalau12i	$a1, %pc_hi20(.L.str.36)
	addi.d	$a1, $a1, %pc_lo12(.L.str.36)
	lu12i.w	$a3, 1
	addi.d	$a2, $sp, 552
	ori	$a4, $zero, 1
	ori	$a6, $zero, 2048
	ori	$a7, $zero, 1
	fld.d	$fa0, $sp, 512                  # 8-byte Folded Reload
	pcaddu18i	$ra, %call36(_Z11check_tracePKcS0_PK13trace_elementdjbjjbbi)
	jirl	$ra, $ra, 0
.Ltmp53:                                # EH_LABEL
# %bb.3:                                # %invoke.cont17
	ld.d	$a1, $sp, 520
	addi.d	$a2, $sp, 536
	beq	$a1, $a2, .LBB13_5
# %bb.4:                                # %if.then.i.i
	move	$fp, $a0
	move	$a0, $a1
	pcaddu18i	$ra, %call36(_ZdlPv)
	jirl	$ra, $ra, 0
	move	$a0, $fp
.LBB13_5:                               # %_ZNSt7__cxx1112basic_stringIcSt11char_traitsIcESaIcEED2Ev.exit
	fld.d	$fs7, $sp, 1352                 # 8-byte Folded Reload
	fld.d	$fs6, $sp, 1360                 # 8-byte Folded Reload
	fld.d	$fs5, $sp, 1368                 # 8-byte Folded Reload
	fld.d	$fs4, $sp, 1376                 # 8-byte Folded Reload
	fld.d	$fs3, $sp, 1384                 # 8-byte Folded Reload
	fld.d	$fs2, $sp, 1392                 # 8-byte Folded Reload
	fld.d	$fs1, $sp, 1400                 # 8-byte Folded Reload
	fld.d	$fs0, $sp, 1408                 # 8-byte Folded Reload
	ld.d	$s8, $sp, 1416                  # 8-byte Folded Reload
	ld.d	$s7, $sp, 1424                  # 8-byte Folded Reload
	ld.d	$s6, $sp, 1432                  # 8-byte Folded Reload
	ld.d	$s5, $sp, 1440                  # 8-byte Folded Reload
	ld.d	$s4, $sp, 1448                  # 8-byte Folded Reload
	ld.d	$s3, $sp, 1456                  # 8-byte Folded Reload
	ld.d	$s2, $sp, 1464                  # 8-byte Folded Reload
	ld.d	$s1, $sp, 1472                  # 8-byte Folded Reload
	ld.d	$s0, $sp, 1480                  # 8-byte Folded Reload
	ld.d	$fp, $sp, 1488                  # 8-byte Folded Reload
	ld.d	$ra, $sp, 1496                  # 8-byte Folded Reload
	addi.d	$sp, $sp, 1504
	ret
.LBB13_6:                               # %lpad16
.Ltmp54:                                # EH_LABEL
	move	$fp, $a0
.LBB13_7:                               # %ehcleanup
	ld.d	$a0, $sp, 520
	addi.d	$a1, $sp, 536
	beq	$a0, $a1, .LBB13_9
# %bb.8:                                # %if.then.i.i343
	pcaddu18i	$ra, %call36(_ZdlPv)
	jirl	$ra, $ra, 0
.LBB13_9:                               # %_ZNSt7__cxx1112basic_stringIcSt11char_traitsIcESaIcEED2Ev.exit347
	move	$a0, $fp
	pcaddu18i	$ra, %call36(_Unwind_Resume)
	jirl	$ra, $ra, 0
.LBB13_10:                              # %lpad5
.Ltmp51:                                # EH_LABEL
	addi.w	$a1, $a1, 0
	move	$fp, $a0
	ori	$a0, $zero, 1
	bne	$a1, $a0, .LBB13_7
# %bb.11:                               # %catch
	move	$a0, $fp
	pcaddu18i	$ra, %call36(__cxa_begin_catch)
	jirl	$ra, $ra, 0
	ld.w	$fp, $a0, 0
	pcaddu18i	$ra, %call36(__cxa_end_catch)
	jirl	$ra, $ra, 0
	b	.LBB13_2
.Lfunc_end13:
	.size	_Z19check_frame_variantILb1ELb1ELb1ELb0ELb0EEbiRVi, .Lfunc_end13-_Z19check_frame_variantILb1ELb1ELb1ELb0ELb0EEbiRVi
	.cfi_endproc
	.section	.gcc_except_table._Z19check_frame_variantILb1ELb1ELb1ELb0ELb0EEbiRVi,"aG",@progbits,_Z19check_frame_variantILb1ELb1ELb1ELb0ELb0EEbiRVi,comdat
	.p2align	2, 0x0
GCC_except_table13:
.Lexception7:
	.byte	255                             # @LPStart Encoding = omit
	.byte	155                             # @TType Encoding = indirect pcrel sdata4
	.uleb128 .Lttbase2-.Lttbaseref2
.Lttbaseref2:
	.byte	1                               # Call site Encoding = uleb128
	.uleb128 .Lcst_end7-.Lcst_begin7
.Lcst_begin7:
	.uleb128 .Lfunc_begin7-.Lfunc_begin7    # >> Call Site 1 <<
	.uleb128 .Ltmp49-.Lfunc_begin7          #   Call between .Lfunc_begin7 and .Ltmp49
	.byte	0                               #     has no landing pad
	.byte	0                               #   On action: cleanup
	.uleb128 .Ltmp49-.Lfunc_begin7          # >> Call Site 2 <<
	.uleb128 .Ltmp50-.Ltmp49                #   Call between .Ltmp49 and .Ltmp50
	.uleb128 .Ltmp51-.Lfunc_begin7          #     jumps to .Ltmp51
	.byte	3                               #   On action: 2
	.uleb128 .Ltmp52-.Lfunc_begin7          # >> Call Site 3 <<
	.uleb128 .Ltmp53-.Ltmp52                #   Call between .Ltmp52 and .Ltmp53
	.uleb128 .Ltmp54-.Lfunc_begin7          #     jumps to .Ltmp54
	.byte	0                               #   On action: cleanup
	.uleb128 .Ltmp53-.Lfunc_begin7          # >> Call Site 4 <<
	.uleb128 .Lfunc_end13-.Ltmp53           #   Call between .Ltmp53 and .Lfunc_end13
	.byte	0                               #     has no landing pad
	.byte	0                               #   On action: cleanup
.Lcst_end7:
	.byte	0                               # >> Action Record 1 <<
                                        #   Cleanup
	.byte	0                               #   No further actions
	.byte	1                               # >> Action Record 2 <<
                                        #   Catch TypeInfo 1
	.byte	125                             #   Continue to action 1
	.p2align	2, 0x0
                                        # >> Catch TypeInfos <<
.Ltmp55:                                # TypeInfo 1
	.word	.L_ZTIi.DW.stub-.Ltmp55
.Lttbase2:
	.p2align	2, 0x0
                                        # -- End function
	.section	.text._Z19check_frame_variantILb0ELb1ELb1ELb0ELb0EEbiRVi,"axG",@progbits,_Z19check_frame_variantILb0ELb1ELb1ELb0ELb0EEbiRVi,comdat
	.weak	_Z19check_frame_variantILb0ELb1ELb1ELb0ELb0EEbiRVi # -- Begin function _Z19check_frame_variantILb0ELb1ELb1ELb0ELb0EEbiRVi
	.p2align	5
	.type	_Z19check_frame_variantILb0ELb1ELb1ELb0ELb0EEbiRVi,@function
_Z19check_frame_variantILb0ELb1ELb1ELb0ELb0EEbiRVi: # @_Z19check_frame_variantILb0ELb1ELb1ELb0ELb0EEbiRVi
.Lfunc_begin8:
	.cfi_startproc
	.cfi_personality 155, DW.ref.__gxx_personality_v0
	.cfi_lsda 27, .Lexception8
# %bb.0:                                # %entry
	addi.d	$sp, $sp, -1504
	.cfi_def_cfa_offset 1504
	st.d	$ra, $sp, 1496                  # 8-byte Folded Spill
	st.d	$fp, $sp, 1488                  # 8-byte Folded Spill
	st.d	$s0, $sp, 1480                  # 8-byte Folded Spill
	st.d	$s1, $sp, 1472                  # 8-byte Folded Spill
	st.d	$s2, $sp, 1464                  # 8-byte Folded Spill
	st.d	$s3, $sp, 1456                  # 8-byte Folded Spill
	st.d	$s4, $sp, 1448                  # 8-byte Folded Spill
	st.d	$s5, $sp, 1440                  # 8-byte Folded Spill
	st.d	$s6, $sp, 1432                  # 8-byte Folded Spill
	st.d	$s7, $sp, 1424                  # 8-byte Folded Spill
	st.d	$s8, $sp, 1416                  # 8-byte Folded Spill
	fst.d	$fs0, $sp, 1408                 # 8-byte Folded Spill
	fst.d	$fs1, $sp, 1400                 # 8-byte Folded Spill
	fst.d	$fs2, $sp, 1392                 # 8-byte Folded Spill
	fst.d	$fs3, $sp, 1384                 # 8-byte Folded Spill
	fst.d	$fs4, $sp, 1376                 # 8-byte Folded Spill
	fst.d	$fs5, $sp, 1368                 # 8-byte Folded Spill
	fst.d	$fs6, $sp, 1360                 # 8-byte Folded Spill
	fst.d	$fs7, $sp, 1352                 # 8-byte Folded Spill
	.cfi_offset 1, -8
	.cfi_offset 22, -16
	.cfi_offset 23, -24
	.cfi_offset 24, -32
	.cfi_offset 25, -40
	.cfi_offset 26, -48
	.cfi_offset 27, -56
	.cfi_offset 28, -64
	.cfi_offset 29, -72
	.cfi_offset 30, -80
	.cfi_offset 31, -88
	.cfi_offset 56, -96
	.cfi_offset 57, -104
	.cfi_offset 58, -112
	.cfi_offset 59, -120
	.cfi_offset 60, -128
	.cfi_offset 61, -136
	.cfi_offset 62, -144
	.cfi_offset 63, -152
	st.d	$a1, $sp, 448                   # 8-byte Folded Spill
	move	$s0, $a0
	addi.d	$a0, $sp, 520
	ori	$a2, $zero, 1
	ori	$a3, $zero, 1
	move	$a1, $zero
	move	$a4, $zero
	move	$a5, $zero
	pcaddu18i	$ra, %call36(_Z24getTestDescriptionStringB5cxx11bbbbb)
	jirl	$ra, $ra, 0
	movgr2fr.w	$fa0, $s0
	ffint.d.w	$fs0, $fa0
	fadd.d	$fa0, $fs0, $fs0
	fst.d	$fa0, $sp, 504                  # 8-byte Folded Spill
	fadd.d	$fa0, $fa0, $fs0
	fst.d	$fa0, $sp, 496                  # 8-byte Folded Spill
	fadd.d	$fa0, $fa0, $fs0
	fst.d	$fa0, $sp, 488                  # 8-byte Folded Spill
	fadd.d	$fa0, $fa0, $fs0
	fst.d	$fa0, $sp, 480                  # 8-byte Folded Spill
	fadd.d	$fa0, $fa0, $fs0
	fst.d	$fa0, $sp, 472                  # 8-byte Folded Spill
	fadd.d	$fa0, $fa0, $fs0
	fst.d	$fa0, $sp, 464                  # 8-byte Folded Spill
	fadd.d	$fa0, $fa0, $fs0
	fst.d	$fa0, $sp, 456                  # 8-byte Folded Spill
	fadd.d	$fs5, $fa0, $fs0
	fadd.d	$fs4, $fs5, $fs0
	fadd.d	$fs3, $fs4, $fs0
	fadd.d	$fs2, $fs3, $fs0
	fadd.d	$fs1, $fs2, $fs0
	fadd.d	$fa6, $fs1, $fs0
	fadd.d	$fa7, $fa6, $fs0
	fadd.d	$ft0, $fa7, $fs0
	fadd.d	$ft1, $ft0, $fs0
	fadd.d	$ft2, $ft1, $fs0
	fadd.d	$ft3, $ft2, $fs0
	fadd.d	$ft4, $ft3, $fs0
	fadd.d	$ft5, $ft4, $fs0
	fadd.d	$ft6, $ft5, $fs0
	fadd.d	$ft7, $ft6, $fs0
	fadd.d	$ft8, $ft7, $fs0
	fadd.d	$ft9, $ft8, $fs0
	fadd.d	$ft10, $ft9, $fs0
	fadd.d	$ft11, $ft10, $fs0
	fadd.d	$ft12, $ft11, $fs0
	fadd.d	$ft13, $ft12, $fs0
	fadd.d	$ft14, $ft13, $fs0
	fadd.d	$ft15, $ft14, $fs0
	fadd.d	$fs7, $ft15, $fs0
	alsl.w	$fp, $s0, $s0, 1
	alsl.w	$s6, $s0, $s0, 2
	slli.w	$s3, $s0, 3
	sub.w	$ra, $s3, $s0
	alsl.w	$s4, $s0, $s0, 3
	alsl.w	$s2, $s0, $s3, 2
	ori	$a0, $zero, 14
	mul.w	$t6, $s0, $a0
	slli.w	$s7, $s0, 4
	sub.w	$s1, $s7, $s0
	alsl.w	$t7, $s0, $s0, 4
	alsl.w	$t8, $s0, $s7, 1
	alsl.d	$a1, $s0, $s0, 3
	alsl.w	$t5, $s0, $s7, 2
	ori	$a0, $zero, 22
	mul.w	$t4, $s0, $a0
	ori	$a0, $zero, 23
	mul.w	$t3, $s0, $a0
	alsl.w	$t2, $s0, $s7, 3
	ori	$a0, $zero, 26
	mul.w	$a5, $s0, $a0
	ori	$a0, $zero, 28
	mul.w	$a2, $s0, $a0
	ori	$a0, $zero, 29
	mul.w	$a4, $s0, $a0
	ori	$a0, $zero, 30
	mul.w	$a6, $s0, $a0
	slli.w	$s5, $s0, 5
	sub.w	$t1, $s5, $s0
	add.w	$t0, $s5, $s0
	alsl.w	$a7, $s0, $s5, 1
	alsl.w	$a3, $s0, $s5, 2
	st.d	$a1, $sp, 312                   # 8-byte Folded Spill
	alsl.d	$a1, $a1, $s0, 2
	addi.w	$a0, $a1, 1
	sltui	$a0, $a0, 3
	st.d	$a1, $sp, 440                   # 8-byte Folded Spill
	maskeqz	$a0, $a1, $a0
	addi.w	$a0, $a0, 0
	st.d	$a3, $sp, 424                   # 8-byte Folded Spill
	div.w	$a0, $a0, $a3
	alsl.w	$a1, $t7, $s0, 1
	div.w	$a0, $a0, $a1
	st.d	$a7, $sp, 392                   # 8-byte Folded Spill
	div.w	$a0, $a0, $a7
	st.d	$t0, $sp, 384                   # 8-byte Folded Spill
	div.w	$a0, $a0, $t0
	div.w	$a0, $a0, $s5
	st.d	$t1, $sp, 376                   # 8-byte Folded Spill
	div.w	$a0, $a0, $t1
	st.d	$a6, $sp, 400                   # 8-byte Folded Spill
	div.w	$a0, $a0, $a6
	st.d	$a4, $sp, 416                   # 8-byte Folded Spill
	div.w	$a0, $a0, $a4
	st.d	$a2, $sp, 432                   # 8-byte Folded Spill
	div.w	$a0, $a0, $a2
	alsl.w	$a1, $fp, $fp, 3
	div.w	$a0, $a0, $a1
	st.d	$a5, $sp, 408                   # 8-byte Folded Spill
	div.w	$a0, $a0, $a5
	alsl.w	$a1, $fp, $s0, 3
	div.w	$a0, $a0, $a1
	st.d	$t2, $sp, 368                   # 8-byte Folded Spill
	div.w	$a0, $a0, $t2
	st.d	$t3, $sp, 360                   # 8-byte Folded Spill
	div.w	$a0, $a0, $t3
	st.d	$t4, $sp, 352                   # 8-byte Folded Spill
	div.w	$a0, $a0, $t4
	alsl.w	$a1, $s6, $s0, 2
	div.w	$a0, $a0, $a1
	st.d	$t5, $sp, 344                   # 8-byte Folded Spill
	div.w	$a0, $a0, $t5
	alsl.w	$a1, $s4, $s0, 1
	div.w	$a0, $a0, $a1
	st.d	$t8, $sp, 320                   # 8-byte Folded Spill
	div.w	$a0, $a0, $t8
	st.d	$t7, $sp, 328                   # 8-byte Folded Spill
	div.w	$a0, $a0, $t7
	div.w	$a0, $a0, $s7
	st.d	$s1, $sp, 120                   # 8-byte Folded Spill
	div.w	$a0, $a0, $s1
	st.d	$t6, $sp, 336                   # 8-byte Folded Spill
	div.w	$a0, $a0, $t6
	alsl.w	$a1, $fp, $s0, 2
	div.w	$a0, $a0, $a1
	st.d	$s2, $sp, 112                   # 8-byte Folded Spill
	div.w	$a0, $a0, $s2
	alsl.w	$a1, $s6, $s0, 1
	div.w	$a0, $a0, $a1
	alsl.w	$s8, $s0, $s3, 1
	fadd.d	$fs6, $fs7, $fs0
	fadd.d	$fa5, $fs6, $fs0
	fadd.d	$fa3, $fa5, $fs0
	fadd.d	$fa2, $fa3, $fs0
	fadd.d	$fa1, $fa2, $fs0
	fadd.d	$fa0, $fa1, $fs0
	fadd.d	$fa4, $fa0, $fs0
	fst.d	$fa4, $sp, 80                   # 8-byte Folded Spill
	fst.d	$fa0, $sp, 32                   # 8-byte Folded Spill
	fdiv.d	$fa0, $fa4, $fa0
	fst.d	$fa1, $sp, 40                   # 8-byte Folded Spill
	fdiv.d	$fa0, $fa0, $fa1
	fst.d	$fa2, $sp, 48                   # 8-byte Folded Spill
	fdiv.d	$fa0, $fa0, $fa2
	fst.d	$fa3, $sp, 56                   # 8-byte Folded Spill
	fdiv.d	$fa0, $fa0, $fa3
	fst.d	$fa5, $sp, 64                   # 8-byte Folded Spill
	fdiv.d	$fa0, $fa0, $fa5
	fst.d	$fs6, $sp, 72                   # 8-byte Folded Spill
	fdiv.d	$fa0, $fa0, $fs6
	fst.d	$fs7, $sp, 128                  # 8-byte Folded Spill
	fdiv.d	$fa0, $fa0, $fs7
	fst.d	$ft15, $sp, 136                 # 8-byte Folded Spill
	fdiv.d	$fa0, $fa0, $ft15
	fst.d	$ft14, $sp, 144                 # 8-byte Folded Spill
	fdiv.d	$fa0, $fa0, $ft14
	fst.d	$ft13, $sp, 152                 # 8-byte Folded Spill
	fdiv.d	$fa0, $fa0, $ft13
	fst.d	$ft12, $sp, 160                 # 8-byte Folded Spill
	fdiv.d	$fa0, $fa0, $ft12
	fst.d	$ft11, $sp, 168                 # 8-byte Folded Spill
	fdiv.d	$fa0, $fa0, $ft11
	fst.d	$ft10, $sp, 176                 # 8-byte Folded Spill
	fdiv.d	$fa0, $fa0, $ft10
	fst.d	$ft9, $sp, 184                  # 8-byte Folded Spill
	fdiv.d	$fa0, $fa0, $ft9
	fst.d	$ft8, $sp, 192                  # 8-byte Folded Spill
	fdiv.d	$fa0, $fa0, $ft8
	fst.d	$ft7, $sp, 200                  # 8-byte Folded Spill
	fdiv.d	$fa0, $fa0, $ft7
	fst.d	$ft6, $sp, 208                  # 8-byte Folded Spill
	fdiv.d	$fa0, $fa0, $ft6
	fst.d	$ft5, $sp, 216                  # 8-byte Folded Spill
	fdiv.d	$fa0, $fa0, $ft5
	fst.d	$ft4, $sp, 224                  # 8-byte Folded Spill
	fdiv.d	$fa0, $fa0, $ft4
	fst.d	$ft3, $sp, 232                  # 8-byte Folded Spill
	fdiv.d	$fa0, $fa0, $ft3
	fst.d	$ft2, $sp, 240                  # 8-byte Folded Spill
	fdiv.d	$fa0, $fa0, $ft2
	fst.d	$ft1, $sp, 248                  # 8-byte Folded Spill
	fdiv.d	$fa0, $fa0, $ft1
	fst.d	$ft0, $sp, 256                  # 8-byte Folded Spill
	fdiv.d	$fa0, $fa0, $ft0
	fst.d	$fa7, $sp, 264                  # 8-byte Folded Spill
	fdiv.d	$fa0, $fa0, $fa7
	fst.d	$fa6, $sp, 272                  # 8-byte Folded Spill
	fdiv.d	$fa0, $fa0, $fa6
	fst.d	$fs1, $sp, 280                  # 8-byte Folded Spill
	fdiv.d	$fa0, $fa0, $fs1
	fst.d	$fs2, $sp, 288                  # 8-byte Folded Spill
	fdiv.d	$fa0, $fa0, $fs2
	fst.d	$fs3, $sp, 296                  # 8-byte Folded Spill
	fdiv.d	$fa0, $fa0, $fs3
	fst.d	$fs4, $sp, 304                  # 8-byte Folded Spill
	fdiv.d	$fa0, $fa0, $fs4
	fst.d	$fs5, $sp, 88                   # 8-byte Folded Spill
	fdiv.d	$fa0, $fa0, $fs5
	fld.d	$fa1, $sp, 456                  # 8-byte Folded Reload
	fmov.d	$fs6, $fa1
	fdiv.d	$fa0, $fa0, $fa1
	fld.d	$fa1, $sp, 464                  # 8-byte Folded Reload
	fmov.d	$fs5, $fa1
	fdiv.d	$fa0, $fa0, $fa1
	fld.d	$fa1, $sp, 472                  # 8-byte Folded Reload
	fmov.d	$fs4, $fa1
	fdiv.d	$fa0, $fa0, $fa1
	fld.d	$fa1, $sp, 480                  # 8-byte Folded Reload
	fmov.d	$fs3, $fa1
	fdiv.d	$fa0, $fa0, $fa1
	fld.d	$fa1, $sp, 488                  # 8-byte Folded Reload
	fmov.d	$fs2, $fa1
	fdiv.d	$fa0, $fa0, $fa1
	fld.d	$fa1, $sp, 496                  # 8-byte Folded Reload
	fmov.d	$fs1, $fa1
	fdiv.d	$fa0, $fa0, $fa1
	fld.d	$fa1, $sp, 504                  # 8-byte Folded Reload
	fmov.d	$fs7, $fa1
	fdiv.d	$fa0, $fa0, $fa1
	fdiv.d	$fa0, $fa0, $fs0
	div.w	$a0, $a0, $s8
	st.d	$s4, $sp, 104                   # 8-byte Folded Spill
	div.w	$a0, $a0, $s4
	div.w	$a0, $a0, $s3
	st.d	$ra, $sp, 96                    # 8-byte Folded Spill
	div.w	$a0, $a0, $ra
	slli.w	$s2, $s0, 2
	alsl.w	$s1, $s0, $s2, 1
	div.w	$a0, $a0, $s1
	div.w	$a0, $a0, $s6
	div.w	$a0, $a0, $s2
	div.w	$a0, $a0, $fp
	slli.w	$s4, $s0, 1
	div.w	$a0, $a0, $s4
	div.w	$a0, $a0, $s0
	movgr2fr.w	$fa1, $a0
	ffint.d.w	$fa1, $fa1
	fadd.d	$fa0, $fa0, $fa1
.Ltmp56:                                # EH_LABEL
	pcalau12i	$a0, %pc_hi20(.L.str.36)
	addi.d	$a1, $a0, %pc_lo12(.L.str.36)
	ori	$a0, $zero, 100
	addi.d	$a2, $sp, 552
	fst.d	$fa0, $sp, 512                  # 8-byte Folded Spill
	pcaddu18i	$ra, %call36(_Z10test_frameILj2ELb1ELj2048ELb1ELb0EJEEvDpT4_jPKcP13trace_elementd)
	jirl	$ra, $ra, 0
.Ltmp57:                                # EH_LABEL
# %bb.1:                                # %invoke.cont6
	fdiv.d	$fa0, $fs0, $fs7
	fdiv.d	$fa0, $fa0, $fs1
	fdiv.d	$fa0, $fa0, $fs2
	fdiv.d	$fa0, $fa0, $fs3
	fdiv.d	$fa0, $fa0, $fs4
	fdiv.d	$fa0, $fa0, $fs5
	fdiv.d	$fa0, $fa0, $fs6
	div.w	$a0, $s0, $s4
	div.w	$a0, $a0, $fp
	div.w	$a0, $a0, $s2
	div.w	$a0, $a0, $s6
	div.w	$a0, $a0, $s1
	fld.d	$fa1, $sp, 88                   # 8-byte Folded Reload
	fdiv.d	$fa0, $fa0, $fa1
	fld.d	$fa1, $sp, 304                  # 8-byte Folded Reload
	fdiv.d	$fa0, $fa0, $fa1
	fld.d	$fa1, $sp, 296                  # 8-byte Folded Reload
	fdiv.d	$fa0, $fa0, $fa1
	fld.d	$fa1, $sp, 288                  # 8-byte Folded Reload
	fdiv.d	$fa0, $fa0, $fa1
	fld.d	$fa1, $sp, 280                  # 8-byte Folded Reload
	fdiv.d	$fa0, $fa0, $fa1
	fld.d	$fa1, $sp, 272                  # 8-byte Folded Reload
	fdiv.d	$fa0, $fa0, $fa1
	fld.d	$fa1, $sp, 264                  # 8-byte Folded Reload
	fdiv.d	$fa0, $fa0, $fa1
	fld.d	$fa1, $sp, 256                  # 8-byte Folded Reload
	fdiv.d	$fa0, $fa0, $fa1
	fld.d	$fa1, $sp, 248                  # 8-byte Folded Reload
	fdiv.d	$fa0, $fa0, $fa1
	fld.d	$fa1, $sp, 240                  # 8-byte Folded Reload
	fdiv.d	$fa0, $fa0, $fa1
	fld.d	$fa1, $sp, 232                  # 8-byte Folded Reload
	fdiv.d	$fa0, $fa0, $fa1
	fld.d	$fa1, $sp, 224                  # 8-byte Folded Reload
	fdiv.d	$fa0, $fa0, $fa1
	fld.d	$fa1, $sp, 216                  # 8-byte Folded Reload
	fdiv.d	$fa0, $fa0, $fa1
	fld.d	$fa1, $sp, 208                  # 8-byte Folded Reload
	fdiv.d	$fa0, $fa0, $fa1
	fld.d	$fa1, $sp, 200                  # 8-byte Folded Reload
	fdiv.d	$fa0, $fa0, $fa1
	fld.d	$fa1, $sp, 192                  # 8-byte Folded Reload
	fdiv.d	$fa0, $fa0, $fa1
	fld.d	$fa1, $sp, 184                  # 8-byte Folded Reload
	fdiv.d	$fa0, $fa0, $fa1
	fld.d	$fa1, $sp, 176                  # 8-byte Folded Reload
	fdiv.d	$fa0, $fa0, $fa1
	fld.d	$fa1, $sp, 168                  # 8-byte Folded Reload
	fdiv.d	$fa0, $fa0, $fa1
	fld.d	$fa1, $sp, 160                  # 8-byte Folded Reload
	fdiv.d	$fa0, $fa0, $fa1
	fld.d	$fa1, $sp, 152                  # 8-byte Folded Reload
	fdiv.d	$fa0, $fa0, $fa1
	fld.d	$fa1, $sp, 144                  # 8-byte Folded Reload
	fdiv.d	$fa0, $fa0, $fa1
	fld.d	$fa1, $sp, 136                  # 8-byte Folded Reload
	fdiv.d	$fa0, $fa0, $fa1
	fld.d	$fa1, $sp, 128                  # 8-byte Folded Reload
	fdiv.d	$fa0, $fa0, $fa1
	fld.d	$fa1, $sp, 72                   # 8-byte Folded Reload
	fdiv.d	$fa0, $fa0, $fa1
	fld.d	$fa1, $sp, 64                   # 8-byte Folded Reload
	fdiv.d	$fa0, $fa0, $fa1
	fld.d	$fa1, $sp, 56                   # 8-byte Folded Reload
	fdiv.d	$fa0, $fa0, $fa1
	fld.d	$fa1, $sp, 48                   # 8-byte Folded Reload
	fdiv.d	$fa0, $fa0, $fa1
	fld.d	$fa1, $sp, 40                   # 8-byte Folded Reload
	fdiv.d	$fa0, $fa0, $fa1
	fld.d	$fa1, $sp, 32                   # 8-byte Folded Reload
	fdiv.d	$fa0, $fa0, $fa1
	ld.d	$a1, $sp, 96                    # 8-byte Folded Reload
	div.w	$a0, $a0, $a1
	div.w	$a0, $a0, $s3
	ld.d	$a1, $sp, 104                   # 8-byte Folded Reload
	div.w	$a0, $a0, $a1
	alsl.d	$a1, $s0, $s0, 2
	div.w	$a0, $a0, $s8
	alsl.d	$a2, $a1, $s0, 1
	addi.w	$a2, $a2, 0
	div.w	$a0, $a0, $a2
	alsl.d	$a2, $s0, $s0, 1
	ld.d	$a3, $sp, 112                   # 8-byte Folded Reload
	div.w	$a0, $a0, $a3
	alsl.d	$a3, $a2, $s0, 2
	addi.w	$a3, $a3, 0
	div.w	$a0, $a0, $a3
	ld.d	$a3, $sp, 336                   # 8-byte Folded Reload
	div.w	$a0, $a0, $a3
	ld.d	$a3, $sp, 120                   # 8-byte Folded Reload
	div.w	$a0, $a0, $a3
	div.w	$a0, $a0, $s7
	ld.d	$a3, $sp, 328                   # 8-byte Folded Reload
	div.w	$a0, $a0, $a3
	ld.d	$a3, $sp, 320                   # 8-byte Folded Reload
	div.w	$a0, $a0, $a3
	ld.d	$a3, $sp, 312                   # 8-byte Folded Reload
	alsl.d	$a3, $a3, $s0, 1
	addi.w	$a3, $a3, 0
	div.w	$a0, $a0, $a3
	ld.d	$a3, $sp, 344                   # 8-byte Folded Reload
	div.w	$a0, $a0, $a3
	alsl.d	$a1, $a1, $s0, 2
	addi.w	$a1, $a1, 0
	div.w	$a0, $a0, $a1
	ld.d	$a1, $sp, 352                   # 8-byte Folded Reload
	div.w	$a0, $a0, $a1
	alsl.d	$a1, $s0, $s0, 4
	alsl.d	$a1, $a1, $s0, 1
	ld.d	$a3, $sp, 360                   # 8-byte Folded Reload
	div.w	$a0, $a0, $a3
	ori	$a3, $zero, 38
	mul.w	$a3, $s0, $a3
	ld.d	$a4, $sp, 368                   # 8-byte Folded Reload
	div.w	$a0, $a0, $a4
	ori	$a4, $zero, 39
	mul.w	$a4, $s0, $a4
	alsl.d	$a5, $a2, $s0, 3
	addi.w	$a5, $a5, 0
	div.w	$a0, $a0, $a5
	ld.d	$a5, $sp, 408                   # 8-byte Folded Reload
	div.w	$a0, $a0, $a5
	alsl.d	$a2, $a2, $a2, 3
	addi.w	$a2, $a2, 0
	div.w	$a0, $a0, $a2
	ld.d	$a2, $sp, 432                   # 8-byte Folded Reload
	div.w	$a0, $a0, $a2
	ld.d	$a2, $sp, 416                   # 8-byte Folded Reload
	div.w	$a0, $a0, $a2
	ld.d	$a2, $sp, 400                   # 8-byte Folded Reload
	div.w	$a0, $a0, $a2
	ld.d	$a2, $sp, 376                   # 8-byte Folded Reload
	div.w	$a0, $a0, $a2
	div.w	$a0, $a0, $s5
	ld.d	$a2, $sp, 384                   # 8-byte Folded Reload
	div.w	$a0, $a0, $a2
	ld.d	$a2, $sp, 392                   # 8-byte Folded Reload
	div.w	$a0, $a0, $a2
	addi.w	$a1, $a1, 0
	div.w	$a0, $a0, $a1
	ld.d	$a1, $sp, 424                   # 8-byte Folded Reload
	div.w	$a0, $a0, $a1
	fld.d	$fa1, $sp, 80                   # 8-byte Folded Reload
	fdiv.d	$fa0, $fa0, $fa1
	fld.d	$fa1, $sp, 552
	ld.d	$a1, $sp, 440                   # 8-byte Folded Reload
	addi.w	$a1, $a1, 0
	div.w	$a0, $a0, $a1
	div.w	$a0, $a0, $a3
	fdiv.d	$fa0, $fa0, $fa1
	div.w	$a0, $a0, $a4
	movfr2gr.d	$a1, $fa1
	addi.w	$a1, $a1, 0
	div.w	$a0, $a0, $a1
	movgr2fr.w	$fa1, $a0
	ffint.d.w	$fa1, $fa1
	ld.d	$a2, $sp, 448                   # 8-byte Folded Reload
	ld.w	$a0, $a2, 0
	fadd.d	$fa0, $fa0, $fa1
	ftintrz.w.d	$fa0, $fa0
	movfr2gr.s	$a1, $fa0
	add.d	$a0, $a0, $a1
	st.w	$a0, $a2, 0
	addi.w	$fp, $zero, -1
.LBB14_2:                               # %try.cont
	ld.d	$a0, $sp, 520
.Ltmp59:                                # EH_LABEL
	st.d	$fp, $sp, 8
	st.d	$zero, $sp, 0
	pcalau12i	$a1, %pc_hi20(.L.str.36)
	addi.d	$a1, $a1, %pc_lo12(.L.str.36)
	addi.d	$a2, $sp, 552
	ori	$a3, $zero, 2
	ori	$a4, $zero, 1
	ori	$a6, $zero, 2048
	ori	$a7, $zero, 1
	fld.d	$fa0, $sp, 512                  # 8-byte Folded Reload
	pcaddu18i	$ra, %call36(_Z11check_tracePKcS0_PK13trace_elementdjbjjbbi)
	jirl	$ra, $ra, 0
.Ltmp60:                                # EH_LABEL
# %bb.3:                                # %invoke.cont17
	ld.d	$a1, $sp, 520
	addi.d	$a2, $sp, 536
	beq	$a1, $a2, .LBB14_5
# %bb.4:                                # %if.then.i.i
	move	$fp, $a0
	move	$a0, $a1
	pcaddu18i	$ra, %call36(_ZdlPv)
	jirl	$ra, $ra, 0
	move	$a0, $fp
.LBB14_5:                               # %_ZNSt7__cxx1112basic_stringIcSt11char_traitsIcESaIcEED2Ev.exit
	fld.d	$fs7, $sp, 1352                 # 8-byte Folded Reload
	fld.d	$fs6, $sp, 1360                 # 8-byte Folded Reload
	fld.d	$fs5, $sp, 1368                 # 8-byte Folded Reload
	fld.d	$fs4, $sp, 1376                 # 8-byte Folded Reload
	fld.d	$fs3, $sp, 1384                 # 8-byte Folded Reload
	fld.d	$fs2, $sp, 1392                 # 8-byte Folded Reload
	fld.d	$fs1, $sp, 1400                 # 8-byte Folded Reload
	fld.d	$fs0, $sp, 1408                 # 8-byte Folded Reload
	ld.d	$s8, $sp, 1416                  # 8-byte Folded Reload
	ld.d	$s7, $sp, 1424                  # 8-byte Folded Reload
	ld.d	$s6, $sp, 1432                  # 8-byte Folded Reload
	ld.d	$s5, $sp, 1440                  # 8-byte Folded Reload
	ld.d	$s4, $sp, 1448                  # 8-byte Folded Reload
	ld.d	$s3, $sp, 1456                  # 8-byte Folded Reload
	ld.d	$s2, $sp, 1464                  # 8-byte Folded Reload
	ld.d	$s1, $sp, 1472                  # 8-byte Folded Reload
	ld.d	$s0, $sp, 1480                  # 8-byte Folded Reload
	ld.d	$fp, $sp, 1488                  # 8-byte Folded Reload
	ld.d	$ra, $sp, 1496                  # 8-byte Folded Reload
	addi.d	$sp, $sp, 1504
	ret
.LBB14_6:                               # %lpad16
.Ltmp61:                                # EH_LABEL
	move	$fp, $a0
.LBB14_7:                               # %ehcleanup
	ld.d	$a0, $sp, 520
	addi.d	$a1, $sp, 536
	beq	$a0, $a1, .LBB14_9
# %bb.8:                                # %if.then.i.i343
	pcaddu18i	$ra, %call36(_ZdlPv)
	jirl	$ra, $ra, 0
.LBB14_9:                               # %_ZNSt7__cxx1112basic_stringIcSt11char_traitsIcESaIcEED2Ev.exit347
	move	$a0, $fp
	pcaddu18i	$ra, %call36(_Unwind_Resume)
	jirl	$ra, $ra, 0
.LBB14_10:                              # %lpad5
.Ltmp58:                                # EH_LABEL
	addi.w	$a1, $a1, 0
	move	$fp, $a0
	ori	$a0, $zero, 1
	bne	$a1, $a0, .LBB14_7
# %bb.11:                               # %catch
	move	$a0, $fp
	pcaddu18i	$ra, %call36(__cxa_begin_catch)
	jirl	$ra, $ra, 0
	ld.w	$fp, $a0, 0
	pcaddu18i	$ra, %call36(__cxa_end_catch)
	jirl	$ra, $ra, 0
	b	.LBB14_2
.Lfunc_end14:
	.size	_Z19check_frame_variantILb0ELb1ELb1ELb0ELb0EEbiRVi, .Lfunc_end14-_Z19check_frame_variantILb0ELb1ELb1ELb0ELb0EEbiRVi
	.cfi_endproc
	.section	.gcc_except_table._Z19check_frame_variantILb0ELb1ELb1ELb0ELb0EEbiRVi,"aG",@progbits,_Z19check_frame_variantILb0ELb1ELb1ELb0ELb0EEbiRVi,comdat
	.p2align	2, 0x0
GCC_except_table14:
.Lexception8:
	.byte	255                             # @LPStart Encoding = omit
	.byte	155                             # @TType Encoding = indirect pcrel sdata4
	.uleb128 .Lttbase3-.Lttbaseref3
.Lttbaseref3:
	.byte	1                               # Call site Encoding = uleb128
	.uleb128 .Lcst_end8-.Lcst_begin8
.Lcst_begin8:
	.uleb128 .Lfunc_begin8-.Lfunc_begin8    # >> Call Site 1 <<
	.uleb128 .Ltmp56-.Lfunc_begin8          #   Call between .Lfunc_begin8 and .Ltmp56
	.byte	0                               #     has no landing pad
	.byte	0                               #   On action: cleanup
	.uleb128 .Ltmp56-.Lfunc_begin8          # >> Call Site 2 <<
	.uleb128 .Ltmp57-.Ltmp56                #   Call between .Ltmp56 and .Ltmp57
	.uleb128 .Ltmp58-.Lfunc_begin8          #     jumps to .Ltmp58
	.byte	3                               #   On action: 2
	.uleb128 .Ltmp59-.Lfunc_begin8          # >> Call Site 3 <<
	.uleb128 .Ltmp60-.Ltmp59                #   Call between .Ltmp59 and .Ltmp60
	.uleb128 .Ltmp61-.Lfunc_begin8          #     jumps to .Ltmp61
	.byte	0                               #   On action: cleanup
	.uleb128 .Ltmp60-.Lfunc_begin8          # >> Call Site 4 <<
	.uleb128 .Lfunc_end14-.Ltmp60           #   Call between .Ltmp60 and .Lfunc_end14
	.byte	0                               #     has no landing pad
	.byte	0                               #   On action: cleanup
.Lcst_end8:
	.byte	0                               # >> Action Record 1 <<
                                        #   Cleanup
	.byte	0                               #   No further actions
	.byte	1                               # >> Action Record 2 <<
                                        #   Catch TypeInfo 1
	.byte	125                             #   Continue to action 1
	.p2align	2, 0x0
                                        # >> Catch TypeInfos <<
.Ltmp62:                                # TypeInfo 1
	.word	.L_ZTIi.DW.stub-.Ltmp62
.Lttbase3:
	.p2align	2, 0x0
                                        # -- End function
	.section	.text._Z19check_frame_variantILb1ELb0ELb0ELb1ELb0EEbiRVi,"axG",@progbits,_Z19check_frame_variantILb1ELb0ELb0ELb1ELb0EEbiRVi,comdat
	.weak	_Z19check_frame_variantILb1ELb0ELb0ELb1ELb0EEbiRVi # -- Begin function _Z19check_frame_variantILb1ELb0ELb0ELb1ELb0EEbiRVi
	.p2align	5
	.type	_Z19check_frame_variantILb1ELb0ELb0ELb1ELb0EEbiRVi,@function
_Z19check_frame_variantILb1ELb0ELb0ELb1ELb0EEbiRVi: # @_Z19check_frame_variantILb1ELb0ELb0ELb1ELb0EEbiRVi
.Lfunc_begin9:
	.cfi_startproc
	.cfi_personality 155, DW.ref.__gxx_personality_v0
	.cfi_lsda 27, .Lexception9
# %bb.0:                                # %entry
	addi.d	$sp, $sp, -1776
	.cfi_def_cfa_offset 1776
	st.d	$ra, $sp, 1768                  # 8-byte Folded Spill
	st.d	$fp, $sp, 1760                  # 8-byte Folded Spill
	st.d	$s0, $sp, 1752                  # 8-byte Folded Spill
	st.d	$s1, $sp, 1744                  # 8-byte Folded Spill
	st.d	$s2, $sp, 1736                  # 8-byte Folded Spill
	st.d	$s3, $sp, 1728                  # 8-byte Folded Spill
	st.d	$s4, $sp, 1720                  # 8-byte Folded Spill
	st.d	$s5, $sp, 1712                  # 8-byte Folded Spill
	st.d	$s6, $sp, 1704                  # 8-byte Folded Spill
	st.d	$s7, $sp, 1696                  # 8-byte Folded Spill
	st.d	$s8, $sp, 1688                  # 8-byte Folded Spill
	fst.d	$fs0, $sp, 1680                 # 8-byte Folded Spill
	fst.d	$fs1, $sp, 1672                 # 8-byte Folded Spill
	fst.d	$fs2, $sp, 1664                 # 8-byte Folded Spill
	fst.d	$fs3, $sp, 1656                 # 8-byte Folded Spill
	fst.d	$fs4, $sp, 1648                 # 8-byte Folded Spill
	fst.d	$fs5, $sp, 1640                 # 8-byte Folded Spill
	fst.d	$fs6, $sp, 1632                 # 8-byte Folded Spill
	fst.d	$fs7, $sp, 1624                 # 8-byte Folded Spill
	.cfi_offset 1, -8
	.cfi_offset 22, -16
	.cfi_offset 23, -24
	.cfi_offset 24, -32
	.cfi_offset 25, -40
	.cfi_offset 26, -48
	.cfi_offset 27, -56
	.cfi_offset 28, -64
	.cfi_offset 29, -72
	.cfi_offset 30, -80
	.cfi_offset 31, -88
	.cfi_offset 56, -96
	.cfi_offset 57, -104
	.cfi_offset 58, -112
	.cfi_offset 59, -120
	.cfi_offset 60, -128
	.cfi_offset 61, -136
	.cfi_offset 62, -144
	.cfi_offset 63, -152
	st.d	$a1, $sp, 784                   # 8-byte Folded Spill
	move	$s0, $a0
	addi.d	$a0, $sp, 792
	ori	$a1, $zero, 1
	ori	$a4, $zero, 1
	move	$a2, $zero
	move	$a3, $zero
	move	$a5, $zero
	pcaddu18i	$ra, %call36(_Z24getTestDescriptionStringB5cxx11bbbbb)
	jirl	$ra, $ra, 0
	movgr2fr.w	$fa0, $s0
	ffint.d.w	$fs7, $fa0
	fadd.d	$fa0, $fs7, $fs7
	fst.d	$fa0, $sp, 320                  # 8-byte Folded Spill
	fadd.d	$fa0, $fa0, $fs7
	fst.d	$fa0, $sp, 304                  # 8-byte Folded Spill
	fadd.d	$fa0, $fa0, $fs7
	fst.d	$fa0, $sp, 296                  # 8-byte Folded Spill
	fadd.d	$fa0, $fa0, $fs7
	fst.d	$fa0, $sp, 280                  # 8-byte Folded Spill
	fadd.d	$fa0, $fa0, $fs7
	fst.d	$fa0, $sp, 272                  # 8-byte Folded Spill
	fadd.d	$fa0, $fa0, $fs7
	fst.d	$fa0, $sp, 264                  # 8-byte Folded Spill
	fadd.d	$fa0, $fa0, $fs7
	fst.d	$fa0, $sp, 248                  # 8-byte Folded Spill
	fadd.d	$fs6, $fa0, $fs7
	fadd.d	$fs5, $fs6, $fs7
	fst.d	$fs6, $sp, 400                  # 8-byte Folded Spill
	fadd.d	$fs4, $fs5, $fs7
	fst.d	$fs5, $sp, 408                  # 8-byte Folded Spill
	fadd.d	$fs3, $fs4, $fs7
	fst.d	$fs4, $sp, 432                  # 8-byte Folded Spill
	fadd.d	$fs2, $fs3, $fs7
	fst.d	$fs3, $sp, 440                  # 8-byte Folded Spill
	fadd.d	$fs1, $fs2, $fs7
	fst.d	$fs2, $sp, 456                  # 8-byte Folded Spill
	fadd.d	$fs0, $fs1, $fs7
	fst.d	$fs1, $sp, 472                  # 8-byte Folded Spill
	fadd.d	$ft1, $fs0, $fs7
	fst.d	$fs0, $sp, 488                  # 8-byte Folded Spill
	fadd.d	$ft2, $ft1, $fs7
	fst.d	$ft1, $sp, 504                  # 8-byte Folded Spill
	fadd.d	$ft3, $ft2, $fs7
	fst.d	$ft2, $sp, 528                  # 8-byte Folded Spill
	fadd.d	$ft4, $ft3, $fs7
	fst.d	$ft3, $sp, 544                  # 8-byte Folded Spill
	fadd.d	$ft5, $ft4, $fs7
	fst.d	$ft4, $sp, 552                  # 8-byte Folded Spill
	fadd.d	$ft6, $ft5, $fs7
	fst.d	$ft5, $sp, 568                  # 8-byte Folded Spill
	fadd.d	$ft7, $ft6, $fs7
	fst.d	$ft6, $sp, 584                  # 8-byte Folded Spill
	fadd.d	$ft8, $ft7, $fs7
	fst.d	$ft7, $sp, 600                  # 8-byte Folded Spill
	fadd.d	$ft9, $ft8, $fs7
	fst.d	$ft8, $sp, 616                  # 8-byte Folded Spill
	fadd.d	$ft10, $ft9, $fs7
	fst.d	$ft9, $sp, 624                  # 8-byte Folded Spill
	fadd.d	$ft11, $ft10, $fs7
	fst.d	$ft10, $sp, 640                 # 8-byte Folded Spill
	fadd.d	$ft12, $ft11, $fs7
	fst.d	$ft11, $sp, 656                 # 8-byte Folded Spill
	fadd.d	$ft13, $ft12, $fs7
	fst.d	$ft12, $sp, 672                 # 8-byte Folded Spill
	fadd.d	$ft14, $ft13, $fs7
	fst.d	$ft13, $sp, 680                 # 8-byte Folded Spill
	fadd.d	$ft15, $ft14, $fs7
	fst.d	$ft14, $sp, 696                 # 8-byte Folded Spill
	fadd.d	$ft0, $ft15, $fs7
	fst.d	$ft15, $sp, 704                 # 8-byte Folded Spill
	fadd.d	$fa7, $ft0, $fs7
	fst.d	$fa7, $sp, 720                  # 8-byte Folded Spill
	fst.d	$ft0, $sp, 712                  # 8-byte Folded Spill
	alsl.w	$s4, $s0, $s0, 1
	alsl.w	$s2, $s0, $s0, 2
	alsl.w	$a2, $s0, $s0, 3
	ori	$a0, $zero, 14
	mul.w	$s1, $s0, $a0
	st.d	$s1, $sp, 336                   # 8-byte Folded Spill
	slli.w	$s3, $s0, 4
	sub.w	$t3, $s3, $s0
	st.d	$t3, $sp, 360                   # 8-byte Folded Spill
	alsl.w	$a5, $s0, $s0, 4
	alsl.w	$a6, $s0, $s3, 1
	st.d	$a6, $sp, 376                   # 8-byte Folded Spill
	alsl.w	$a3, $s0, $s3, 2
	st.d	$a3, $sp, 416                   # 8-byte Folded Spill
	ori	$a0, $zero, 22
	mul.w	$a4, $s0, $a0
	st.d	$a4, $sp, 448                   # 8-byte Folded Spill
	ori	$a0, $zero, 23
	mul.w	$a7, $s0, $a0
	st.d	$a7, $sp, 464                   # 8-byte Folded Spill
	alsl.w	$t0, $s0, $s3, 3
	st.d	$t0, $sp, 480                   # 8-byte Folded Spill
	ori	$a0, $zero, 26
	mul.w	$t1, $s0, $a0
	st.d	$t1, $sp, 520                   # 8-byte Folded Spill
	ori	$a0, $zero, 28
	mul.w	$t2, $s0, $a0
	st.d	$t2, $sp, 560                   # 8-byte Folded Spill
	ori	$a0, $zero, 29
	mul.w	$t4, $s0, $a0
	st.d	$t4, $sp, 576                   # 8-byte Folded Spill
	ori	$a0, $zero, 30
	mul.w	$t6, $s0, $a0
	st.d	$t6, $sp, 592                   # 8-byte Folded Spill
	slli.w	$s5, $s0, 5
	sub.w	$fp, $s5, $s0
	st.d	$fp, $sp, 608                   # 8-byte Folded Spill
	add.w	$t7, $s5, $s0
	st.d	$t7, $sp, 632                   # 8-byte Folded Spill
	alsl.w	$t8, $s0, $s5, 1
	st.d	$t8, $sp, 648                   # 8-byte Folded Spill
	alsl.w	$t5, $s0, $s5, 2
	st.d	$t5, $sp, 688                   # 8-byte Folded Spill
	alsl.d	$a0, $s0, $s0, 3
	alsl.d	$a0, $a0, $s0, 2
	fadd.d	$fa6, $fa7, $fs7
	fadd.d	$fa5, $fa6, $fs7
	fst.d	$fa6, $sp, 728                  # 8-byte Folded Spill
	fadd.d	$fa4, $fa5, $fs7
	fst.d	$fa5, $sp, 736                  # 8-byte Folded Spill
	fadd.d	$fa2, $fa4, $fs7
	fst.d	$fa2, $sp, 752                  # 8-byte Folded Spill
	fst.d	$fa4, $sp, 744                  # 8-byte Folded Spill
	fadd.d	$fa3, $fa2, $fs7
	fadd.d	$fa1, $fa3, $fs7
	fst.d	$fa1, $sp, 768                  # 8-byte Folded Spill
	fst.d	$fa3, $sp, 760                  # 8-byte Folded Spill
	fadd.d	$fa0, $fa1, $fs7
	fst.d	$fa0, $sp, 776                  # 8-byte Folded Spill
	fdiv.d	$fa0, $fa0, $fa1
	fdiv.d	$fa0, $fa0, $fa3
	fdiv.d	$fa0, $fa0, $fa2
	fdiv.d	$fa0, $fa0, $fa4
	fdiv.d	$fa0, $fa0, $fa5
	fdiv.d	$fa0, $fa0, $fa6
	fdiv.d	$fa0, $fa0, $fa7
	fdiv.d	$fa0, $fa0, $ft0
	fdiv.d	$fa0, $fa0, $ft15
	fdiv.d	$fa0, $fa0, $ft14
	fdiv.d	$fa0, $fa0, $ft13
	fdiv.d	$fa0, $fa0, $ft12
	fdiv.d	$fa0, $fa0, $ft11
	fdiv.d	$fa0, $fa0, $ft10
	fdiv.d	$fa0, $fa0, $ft9
	fdiv.d	$fa0, $fa0, $ft8
	fdiv.d	$fa0, $fa0, $ft7
	fdiv.d	$fa0, $fa0, $ft6
	fdiv.d	$fa0, $fa0, $ft5
	fdiv.d	$fa0, $fa0, $ft4
	fdiv.d	$fa0, $fa0, $ft3
	fdiv.d	$fa0, $fa0, $ft2
	fdiv.d	$fa0, $fa0, $ft1
	fdiv.d	$fa0, $fa0, $fs0
	fdiv.d	$fa0, $fa0, $fs1
	fdiv.d	$fa0, $fa0, $fs2
	fdiv.d	$fa0, $fa0, $fs3
	fdiv.d	$fa0, $fa0, $fs4
	fdiv.d	$fa0, $fa0, $fs5
	fdiv.d	$fa0, $fa0, $fs6
	fld.d	$fs6, $sp, 248                  # 8-byte Folded Reload
	fdiv.d	$fa0, $fa0, $fs6
	fld.d	$fs5, $sp, 264                  # 8-byte Folded Reload
	fdiv.d	$fa0, $fa0, $fs5
	fld.d	$fs4, $sp, 272                  # 8-byte Folded Reload
	fdiv.d	$fa0, $fa0, $fs4
	fld.d	$fs3, $sp, 280                  # 8-byte Folded Reload
	fdiv.d	$fa0, $fa0, $fs3
	fld.d	$fs2, $sp, 296                  # 8-byte Folded Reload
	fdiv.d	$fa0, $fa0, $fs2
	fld.d	$fs1, $sp, 304                  # 8-byte Folded Reload
	fdiv.d	$fa0, $fa0, $fs1
	fld.d	$fs0, $sp, 320                  # 8-byte Folded Reload
	fdiv.d	$fa0, $fa0, $fs0
	fdiv.d	$fa0, $fa0, $fs7
	addi.w	$a1, $a0, 1
	sltui	$a1, $a1, 3
	maskeqz	$a0, $a0, $a1
	addi.w	$a0, $a0, 0
	div.w	$a0, $a0, $t5
	st.d	$a5, $sp, 368                   # 8-byte Folded Spill
	alsl.w	$a1, $a5, $s0, 1
	st.d	$a1, $sp, 664                   # 8-byte Folded Spill
	div.w	$a0, $a0, $a1
	div.w	$a0, $a0, $t8
	div.w	$a0, $a0, $t7
	div.w	$a0, $a0, $s5
	div.w	$a0, $a0, $fp
	div.w	$a0, $a0, $t6
	div.w	$a0, $a0, $t4
	div.w	$a0, $a0, $t2
	alsl.w	$a1, $s4, $s4, 3
