	.file	"any-of.cpp"
                                        # Start of file scope inline assembly
	.globl	_ZSt21ios_base_library_initv

                                        # End of file scope inline assembly
	.text
	.globl	main                            # -- Begin function main
	.p2align	5
	.type	main,@function
main:                                   # @main
.Lfunc_begin0:
	.cfi_startproc
	.cfi_personality 155, DW.ref.__gxx_personality_v0
	.cfi_lsda 27, .Lexception0
# %bb.0:                                # %entry
	addi.d	$sp, $sp, -2032
	.cfi_def_cfa_offset 2032
	st.d	$ra, $sp, 2024                  # 8-byte Folded Spill
	st.d	$fp, $sp, 2016                  # 8-byte Folded Spill
	.cfi_offset 1, -8
	.cfi_offset 22, -16
	addi.d	$sp, $sp, -2048
	addi.d	$sp, $sp, -1744
	.cfi_def_cfa_offset 5824
	ori	$a2, $zero, 15
	st.d	$a2, $sp, 808
	ori	$a0, $zero, 1
	ori	$a1, $zero, 8
	lu12i.w	$a3, 442488
	ori	$a3, $a3, 2405
	addi.d	$a4, $sp, 808
	ori	$a5, $zero, 624
	.p2align	4, , 16
.LBB0_1:                                # %for.body.i.i
                                        # =>This Inner Loop Header: Depth=1
	srli.d	$a6, $a2, 30
	xor	$a2, $a6, $a2
	mul.d	$a2, $a2, $a3
	add.d	$a2, $a0, $a2
	bstrpick.d	$a2, $a2, 31, 0
	stx.d	$a2, $a1, $a4
	addi.d	$a0, $a0, 1
	addi.d	$a1, $a1, 8
	bne	$a0, $a5, .LBB0_1
# %bb.2:                                # %_ZNSt23mersenne_twister_engineImLm32ELm624ELm397ELm31ELm2567483615ELm11ELm4294967295ELm7ELm2636928640ELm15ELm4022730752ELm18ELm1812433253EEC2Em.exit
	ori	$a0, $zero, 624
	lu12i.w	$a1, 1
	ori	$a1, $a1, 1704
	add.d	$a1, $sp, $a1
	stptr.d	$a0, $a1, 0
	pcalau12i	$a0, %pc_hi20(_ZL3rng)
	addi.d	$a0, $a0, %pc_lo12(_ZL3rng)
	lu12i.w	$a1, 1
	ori	$a2, $a1, 904
	addi.d	$a1, $sp, 808
	pcaddu18i	$ra, %call36(memcpy)
	jirl	$ra, $ra, 0
	vrepli.b	$vr0, 0
	vst	$vr0, $sp, 776
	pcalau12i	$a0, %pc_hi20(_ZNSt17_Function_handlerIFiPiS0_jEZ4mainE3$_0E9_M_invokeERKSt9_Any_dataOS0_S7_Oj)
	addi.d	$a0, $a0, %pc_lo12(_ZNSt17_Function_handlerIFiPiS0_jEZ4mainE3$_0E9_M_invokeERKSt9_Any_dataOS0_S7_Oj)
	st.d	$a0, $sp, 800
	pcalau12i	$a0, %pc_hi20(_ZNSt17_Function_handlerIFiPiS0_jEZ4mainE3$_0E10_M_managerERSt9_Any_dataRKS4_St18_Manager_operation)
	addi.d	$a0, $a0, %pc_lo12(_ZNSt17_Function_handlerIFiPiS0_jEZ4mainE3$_0E10_M_managerERSt9_Any_dataRKS4_St18_Manager_operation)
	st.d	$a0, $sp, 792
	vst	$vr0, $sp, 16                   # 16-byte Folded Spill
	vst	$vr0, $sp, 744
	pcalau12i	$a0, %pc_hi20(_ZNSt17_Function_handlerIFiPiS0_jEZ4mainE3$_1E9_M_invokeERKSt9_Any_dataOS0_S7_Oj)
	addi.d	$a0, $a0, %pc_lo12(_ZNSt17_Function_handlerIFiPiS0_jEZ4mainE3$_1E9_M_invokeERKSt9_Any_dataOS0_S7_Oj)
	st.d	$a0, $sp, 768
	pcalau12i	$a0, %pc_hi20(_ZNSt17_Function_handlerIFiPiS0_jEZ4mainE3$_1E10_M_managerERSt9_Any_dataRKS4_St18_Manager_operation)
	addi.d	$a0, $a0, %pc_lo12(_ZNSt17_Function_handlerIFiPiS0_jEZ4mainE3$_1E10_M_managerERSt9_Any_dataRKS4_St18_Manager_operation)
	st.d	$a0, $sp, 760
.Ltmp0:                                 # EH_LABEL
	pcalau12i	$a0, %pc_hi20(.L.str)
	addi.d	$a2, $a0, %pc_lo12(.L.str)
	addi.d	$a0, $sp, 776
	addi.d	$a1, $sp, 744
	pcaddu18i	$ra, %call36(_ZL19checkVectorFunctionIiiEvSt8functionIFT_PT0_S3_jEES5_PKc)
	jirl	$ra, $ra, 0
.Ltmp1:                                 # EH_LABEL
# %bb.3:                                # %invoke.cont
	ld.d	$a3, $sp, 760
	beqz	$a3, .LBB0_5
# %bb.4:                                # %if.then.i
.Ltmp9:                                 # EH_LABEL
	addi.d	$a0, $sp, 744
	addi.d	$a1, $sp, 744
	ori	$a2, $zero, 3
	jirl	$ra, $a3, 0
.Ltmp10:                                # EH_LABEL
.LBB0_5:                                # %_ZNSt14_Function_baseD2Ev.exit
	ld.d	$a3, $sp, 792
	beqz	$a3, .LBB0_7
# %bb.6:                                # %if.then.i14
.Ltmp12:                                # EH_LABEL
	addi.d	$a0, $sp, 776
	addi.d	$a1, $sp, 776
	ori	$a2, $zero, 3
	jirl	$ra, $a3, 0
.Ltmp13:                                # EH_LABEL
.LBB0_7:                                # %_ZNSt14_Function_baseD2Ev.exit17
	vld	$vr0, $sp, 16                   # 16-byte Folded Reload
	vst	$vr0, $sp, 712
	pcalau12i	$a0, %pc_hi20(_ZNSt17_Function_handlerIFiPfS0_jEZ4mainE3$_0E9_M_invokeERKSt9_Any_dataOS0_S7_Oj)
	addi.d	$a0, $a0, %pc_lo12(_ZNSt17_Function_handlerIFiPfS0_jEZ4mainE3$_0E9_M_invokeERKSt9_Any_dataOS0_S7_Oj)
	st.d	$a0, $sp, 736
	pcalau12i	$a0, %pc_hi20(_ZNSt17_Function_handlerIFiPfS0_jEZ4mainE3$_0E10_M_managerERSt9_Any_dataRKS4_St18_Manager_operation)
	addi.d	$a0, $a0, %pc_lo12(_ZNSt17_Function_handlerIFiPfS0_jEZ4mainE3$_0E10_M_managerERSt9_Any_dataRKS4_St18_Manager_operation)
	st.d	$a0, $sp, 728
	vst	$vr0, $sp, 680
	pcalau12i	$a0, %pc_hi20(_ZNSt17_Function_handlerIFiPfS0_jEZ4mainE3$_1E9_M_invokeERKSt9_Any_dataOS0_S7_Oj)
	addi.d	$a0, $a0, %pc_lo12(_ZNSt17_Function_handlerIFiPfS0_jEZ4mainE3$_1E9_M_invokeERKSt9_Any_dataOS0_S7_Oj)
	st.d	$a0, $sp, 704
	pcalau12i	$a0, %pc_hi20(_ZNSt17_Function_handlerIFiPfS0_jEZ4mainE3$_1E10_M_managerERSt9_Any_dataRKS4_St18_Manager_operation)
	addi.d	$a0, $a0, %pc_lo12(_ZNSt17_Function_handlerIFiPfS0_jEZ4mainE3$_1E10_M_managerERSt9_Any_dataRKS4_St18_Manager_operation)
	st.d	$a0, $sp, 696
.Ltmp15:                                # EH_LABEL
	pcalau12i	$a0, %pc_hi20(.L.str.1)
	addi.d	$a2, $a0, %pc_lo12(.L.str.1)
	addi.d	$a0, $sp, 712
	addi.d	$a1, $sp, 680
	pcaddu18i	$ra, %call36(_ZL19checkVectorFunctionIifEvSt8functionIFT_PT0_S3_jEES5_PKc)
	jirl	$ra, $ra, 0
.Ltmp16:                                # EH_LABEL
# %bb.8:                                # %invoke.cont5
	ld.d	$a3, $sp, 696
	beqz	$a3, .LBB0_10
# %bb.9:                                # %if.then.i24
.Ltmp24:                                # EH_LABEL
	addi.d	$a0, $sp, 680
	addi.d	$a1, $sp, 680
	ori	$a2, $zero, 3
	jirl	$ra, $a3, 0
.Ltmp25:                                # EH_LABEL
.LBB0_10:                               # %_ZNSt14_Function_baseD2Ev.exit27
	ld.d	$a3, $sp, 728
	beqz	$a3, .LBB0_12
# %bb.11:                               # %if.then.i30
.Ltmp27:                                # EH_LABEL
	addi.d	$a0, $sp, 712
	addi.d	$a1, $sp, 712
	ori	$a2, $zero, 3
	jirl	$ra, $a3, 0
.Ltmp28:                                # EH_LABEL
.LBB0_12:                               # %_ZNSt14_Function_baseD2Ev.exit33
	vld	$vr0, $sp, 16                   # 16-byte Folded Reload
	vst	$vr0, $sp, 648
	pcalau12i	$a0, %pc_hi20(_ZNSt17_Function_handlerIFsPsS0_jEZ4mainE3$_2E9_M_invokeERKSt9_Any_dataOS0_S7_Oj)
	addi.d	$a0, $a0, %pc_lo12(_ZNSt17_Function_handlerIFsPsS0_jEZ4mainE3$_2E9_M_invokeERKSt9_Any_dataOS0_S7_Oj)
	st.d	$a0, $sp, 672
	pcalau12i	$a0, %pc_hi20(_ZNSt17_Function_handlerIFsPsS0_jEZ4mainE3$_2E10_M_managerERSt9_Any_dataRKS4_St18_Manager_operation)
	addi.d	$a0, $a0, %pc_lo12(_ZNSt17_Function_handlerIFsPsS0_jEZ4mainE3$_2E10_M_managerERSt9_Any_dataRKS4_St18_Manager_operation)
	st.d	$a0, $sp, 664
	vst	$vr0, $sp, 616
	pcalau12i	$a0, %pc_hi20(_ZNSt17_Function_handlerIFsPsS0_jEZ4mainE3$_3E9_M_invokeERKSt9_Any_dataOS0_S7_Oj)
	addi.d	$a0, $a0, %pc_lo12(_ZNSt17_Function_handlerIFsPsS0_jEZ4mainE3$_3E9_M_invokeERKSt9_Any_dataOS0_S7_Oj)
	st.d	$a0, $sp, 640
	pcalau12i	$a0, %pc_hi20(_ZNSt17_Function_handlerIFsPsS0_jEZ4mainE3$_3E10_M_managerERSt9_Any_dataRKS4_St18_Manager_operation)
	addi.d	$a0, $a0, %pc_lo12(_ZNSt17_Function_handlerIFsPsS0_jEZ4mainE3$_3E10_M_managerERSt9_Any_dataRKS4_St18_Manager_operation)
	st.d	$a0, $sp, 632
.Ltmp30:                                # EH_LABEL
	pcalau12i	$a0, %pc_hi20(.L.str.2)
	addi.d	$a2, $a0, %pc_lo12(.L.str.2)
	addi.d	$a0, $sp, 648
	addi.d	$a1, $sp, 616
	pcaddu18i	$ra, %call36(_ZL19checkVectorFunctionIssEvSt8functionIFT_PT0_S3_jEES5_PKc)
	jirl	$ra, $ra, 0
.Ltmp31:                                # EH_LABEL
# %bb.13:                               # %invoke.cont12
	ld.d	$a3, $sp, 632
	beqz	$a3, .LBB0_15
# %bb.14:                               # %if.then.i40
.Ltmp39:                                # EH_LABEL
	addi.d	$a0, $sp, 616
	addi.d	$a1, $sp, 616
	ori	$a2, $zero, 3
	jirl	$ra, $a3, 0
.Ltmp40:                                # EH_LABEL
.LBB0_15:                               # %_ZNSt14_Function_baseD2Ev.exit43
	ld.d	$a3, $sp, 664
	beqz	$a3, .LBB0_17
# %bb.16:                               # %if.then.i46
.Ltmp42:                                # EH_LABEL
	addi.d	$a0, $sp, 648
	addi.d	$a1, $sp, 648
	ori	$a2, $zero, 3
	jirl	$ra, $a3, 0
.Ltmp43:                                # EH_LABEL
.LBB0_17:                               # %_ZNSt14_Function_baseD2Ev.exit49
	vld	$vr0, $sp, 16                   # 16-byte Folded Reload
	vst	$vr0, $sp, 584
	pcalau12i	$a0, %pc_hi20(_ZNSt17_Function_handlerIFiPiS0_jEZ4mainE3$_4E9_M_invokeERKSt9_Any_dataOS0_S7_Oj)
	addi.d	$a0, $a0, %pc_lo12(_ZNSt17_Function_handlerIFiPiS0_jEZ4mainE3$_4E9_M_invokeERKSt9_Any_dataOS0_S7_Oj)
	st.d	$a0, $sp, 608
	pcalau12i	$a0, %pc_hi20(_ZNSt17_Function_handlerIFiPiS0_jEZ4mainE3$_4E10_M_managerERSt9_Any_dataRKS4_St18_Manager_operation)
	addi.d	$a0, $a0, %pc_lo12(_ZNSt17_Function_handlerIFiPiS0_jEZ4mainE3$_4E10_M_managerERSt9_Any_dataRKS4_St18_Manager_operation)
	st.d	$a0, $sp, 600
	vst	$vr0, $sp, 552
	pcalau12i	$a0, %pc_hi20(_ZNSt17_Function_handlerIFiPiS0_jEZ4mainE3$_5E9_M_invokeERKSt9_Any_dataOS0_S7_Oj)
	addi.d	$a0, $a0, %pc_lo12(_ZNSt17_Function_handlerIFiPiS0_jEZ4mainE3$_5E9_M_invokeERKSt9_Any_dataOS0_S7_Oj)
	st.d	$a0, $sp, 576
	pcalau12i	$a0, %pc_hi20(_ZNSt17_Function_handlerIFiPiS0_jEZ4mainE3$_5E10_M_managerERSt9_Any_dataRKS4_St18_Manager_operation)
	addi.d	$a0, $a0, %pc_lo12(_ZNSt17_Function_handlerIFiPiS0_jEZ4mainE3$_5E10_M_managerERSt9_Any_dataRKS4_St18_Manager_operation)
	st.d	$a0, $sp, 568
.Ltmp45:                                # EH_LABEL
	pcalau12i	$a0, %pc_hi20(.L.str.3)
	addi.d	$a2, $a0, %pc_lo12(.L.str.3)
	addi.d	$a0, $sp, 584
	addi.d	$a1, $sp, 552
	pcaddu18i	$ra, %call36(_ZL19checkVectorFunctionIiiEvSt8functionIFT_PT0_S3_jEES5_PKc)
	jirl	$ra, $ra, 0
.Ltmp46:                                # EH_LABEL
# %bb.18:                               # %invoke.cont22
	ld.d	$a3, $sp, 568
	beqz	$a3, .LBB0_20
# %bb.19:                               # %if.then.i56
.Ltmp54:                                # EH_LABEL
	addi.d	$a0, $sp, 552
	addi.d	$a1, $sp, 552
	ori	$a2, $zero, 3
	jirl	$ra, $a3, 0
.Ltmp55:                                # EH_LABEL
.LBB0_20:                               # %_ZNSt14_Function_baseD2Ev.exit59
	ld.d	$a3, $sp, 600
	beqz	$a3, .LBB0_22
# %bb.21:                               # %if.then.i62
.Ltmp57:                                # EH_LABEL
	addi.d	$a0, $sp, 584
	addi.d	$a1, $sp, 584
	ori	$a2, $zero, 3
	jirl	$ra, $a3, 0
.Ltmp58:                                # EH_LABEL
.LBB0_22:                               # %_ZNSt14_Function_baseD2Ev.exit65
	vld	$vr0, $sp, 16                   # 16-byte Folded Reload
	vst	$vr0, $sp, 520
	pcalau12i	$a0, %pc_hi20(_ZNSt17_Function_handlerIFiPfS0_jEZ4mainE3$_4E9_M_invokeERKSt9_Any_dataOS0_S7_Oj)
	addi.d	$a0, $a0, %pc_lo12(_ZNSt17_Function_handlerIFiPfS0_jEZ4mainE3$_4E9_M_invokeERKSt9_Any_dataOS0_S7_Oj)
	st.d	$a0, $sp, 544
	pcalau12i	$a0, %pc_hi20(_ZNSt17_Function_handlerIFiPfS0_jEZ4mainE3$_4E10_M_managerERSt9_Any_dataRKS4_St18_Manager_operation)
	addi.d	$a0, $a0, %pc_lo12(_ZNSt17_Function_handlerIFiPfS0_jEZ4mainE3$_4E10_M_managerERSt9_Any_dataRKS4_St18_Manager_operation)
	st.d	$a0, $sp, 536
	vst	$vr0, $sp, 488
	pcalau12i	$a0, %pc_hi20(_ZNSt17_Function_handlerIFiPfS0_jEZ4mainE3$_5E9_M_invokeERKSt9_Any_dataOS0_S7_Oj)
	addi.d	$a0, $a0, %pc_lo12(_ZNSt17_Function_handlerIFiPfS0_jEZ4mainE3$_5E9_M_invokeERKSt9_Any_dataOS0_S7_Oj)
	st.d	$a0, $sp, 512
	pcalau12i	$a0, %pc_hi20(_ZNSt17_Function_handlerIFiPfS0_jEZ4mainE3$_5E10_M_managerERSt9_Any_dataRKS4_St18_Manager_operation)
	addi.d	$a0, $a0, %pc_lo12(_ZNSt17_Function_handlerIFiPfS0_jEZ4mainE3$_5E10_M_managerERSt9_Any_dataRKS4_St18_Manager_operation)
	st.d	$a0, $sp, 504
.Ltmp60:                                # EH_LABEL
	pcalau12i	$a0, %pc_hi20(.L.str.4)
	addi.d	$a2, $a0, %pc_lo12(.L.str.4)
	addi.d	$a0, $sp, 520
	addi.d	$a1, $sp, 488
	pcaddu18i	$ra, %call36(_ZL19checkVectorFunctionIifEvSt8functionIFT_PT0_S3_jEES5_PKc)
	jirl	$ra, $ra, 0
.Ltmp61:                                # EH_LABEL
# %bb.23:                               # %invoke.cont28
	ld.d	$a3, $sp, 504
	beqz	$a3, .LBB0_25
# %bb.24:                               # %if.then.i72
.Ltmp69:                                # EH_LABEL
	addi.d	$a0, $sp, 488
	addi.d	$a1, $sp, 488
	ori	$a2, $zero, 3
	jirl	$ra, $a3, 0
.Ltmp70:                                # EH_LABEL
.LBB0_25:                               # %_ZNSt14_Function_baseD2Ev.exit75
	ld.d	$a3, $sp, 536
	beqz	$a3, .LBB0_27
# %bb.26:                               # %if.then.i78
.Ltmp72:                                # EH_LABEL
	addi.d	$a0, $sp, 520
	addi.d	$a1, $sp, 520
	ori	$a2, $zero, 3
	jirl	$ra, $a3, 0
.Ltmp73:                                # EH_LABEL
.LBB0_27:                               # %_ZNSt14_Function_baseD2Ev.exit81
	vld	$vr0, $sp, 16                   # 16-byte Folded Reload
	vst	$vr0, $sp, 456
	pcalau12i	$a0, %pc_hi20(_ZNSt17_Function_handlerIFsPsS0_jEZ4mainE3$_6E9_M_invokeERKSt9_Any_dataOS0_S7_Oj)
	addi.d	$a0, $a0, %pc_lo12(_ZNSt17_Function_handlerIFsPsS0_jEZ4mainE3$_6E9_M_invokeERKSt9_Any_dataOS0_S7_Oj)
	st.d	$a0, $sp, 480
	pcalau12i	$a0, %pc_hi20(_ZNSt17_Function_handlerIFsPsS0_jEZ4mainE3$_6E10_M_managerERSt9_Any_dataRKS4_St18_Manager_operation)
	addi.d	$a0, $a0, %pc_lo12(_ZNSt17_Function_handlerIFsPsS0_jEZ4mainE3$_6E10_M_managerERSt9_Any_dataRKS4_St18_Manager_operation)
	st.d	$a0, $sp, 472
	vst	$vr0, $sp, 424
	pcalau12i	$a0, %pc_hi20(_ZNSt17_Function_handlerIFsPsS0_jEZ4mainE3$_7E9_M_invokeERKSt9_Any_dataOS0_S7_Oj)
	addi.d	$a0, $a0, %pc_lo12(_ZNSt17_Function_handlerIFsPsS0_jEZ4mainE3$_7E9_M_invokeERKSt9_Any_dataOS0_S7_Oj)
	st.d	$a0, $sp, 448
	pcalau12i	$a0, %pc_hi20(_ZNSt17_Function_handlerIFsPsS0_jEZ4mainE3$_7E10_M_managerERSt9_Any_dataRKS4_St18_Manager_operation)
	addi.d	$a0, $a0, %pc_lo12(_ZNSt17_Function_handlerIFsPsS0_jEZ4mainE3$_7E10_M_managerERSt9_Any_dataRKS4_St18_Manager_operation)
	st.d	$a0, $sp, 440
.Ltmp75:                                # EH_LABEL
	pcalau12i	$a0, %pc_hi20(.L.str.5)
	addi.d	$a2, $a0, %pc_lo12(.L.str.5)
	addi.d	$a0, $sp, 456
	addi.d	$a1, $sp, 424
	pcaddu18i	$ra, %call36(_ZL19checkVectorFunctionIssEvSt8functionIFT_PT0_S3_jEES5_PKc)
	jirl	$ra, $ra, 0
.Ltmp76:                                # EH_LABEL
# %bb.28:                               # %invoke.cont38
	ld.d	$a3, $sp, 440
	beqz	$a3, .LBB0_30
# %bb.29:                               # %if.then.i88
.Ltmp84:                                # EH_LABEL
	addi.d	$a0, $sp, 424
	addi.d	$a1, $sp, 424
	ori	$a2, $zero, 3
	jirl	$ra, $a3, 0
.Ltmp85:                                # EH_LABEL
.LBB0_30:                               # %_ZNSt14_Function_baseD2Ev.exit91
	ld.d	$a3, $sp, 472
	beqz	$a3, .LBB0_32
# %bb.31:                               # %if.then.i94
.Ltmp87:                                # EH_LABEL
	addi.d	$a0, $sp, 456
	addi.d	$a1, $sp, 456
	ori	$a2, $zero, 3
	jirl	$ra, $a3, 0
.Ltmp88:                                # EH_LABEL
.LBB0_32:                               # %_ZNSt14_Function_baseD2Ev.exit97
	vld	$vr0, $sp, 16                   # 16-byte Folded Reload
	vst	$vr0, $sp, 392
	pcalau12i	$a0, %pc_hi20(_ZNSt17_Function_handlerIFjPjS0_jEZ4mainE3$_8E9_M_invokeERKSt9_Any_dataOS0_S7_Oj)
	addi.d	$a0, $a0, %pc_lo12(_ZNSt17_Function_handlerIFjPjS0_jEZ4mainE3$_8E9_M_invokeERKSt9_Any_dataOS0_S7_Oj)
	st.d	$a0, $sp, 416
	pcalau12i	$a0, %pc_hi20(_ZNSt17_Function_handlerIFjPjS0_jEZ4mainE3$_8E10_M_managerERSt9_Any_dataRKS4_St18_Manager_operation)
	addi.d	$a0, $a0, %pc_lo12(_ZNSt17_Function_handlerIFjPjS0_jEZ4mainE3$_8E10_M_managerERSt9_Any_dataRKS4_St18_Manager_operation)
	st.d	$a0, $sp, 408
	vst	$vr0, $sp, 360
	pcalau12i	$a0, %pc_hi20(_ZNSt17_Function_handlerIFjPjS0_jEZ4mainE3$_9E9_M_invokeERKSt9_Any_dataOS0_S7_Oj)
	addi.d	$a0, $a0, %pc_lo12(_ZNSt17_Function_handlerIFjPjS0_jEZ4mainE3$_9E9_M_invokeERKSt9_Any_dataOS0_S7_Oj)
	st.d	$a0, $sp, 384
	pcalau12i	$a0, %pc_hi20(_ZNSt17_Function_handlerIFjPjS0_jEZ4mainE3$_9E10_M_managerERSt9_Any_dataRKS4_St18_Manager_operation)
	addi.d	$a0, $a0, %pc_lo12(_ZNSt17_Function_handlerIFjPjS0_jEZ4mainE3$_9E10_M_managerERSt9_Any_dataRKS4_St18_Manager_operation)
	st.d	$a0, $sp, 376
.Ltmp90:                                # EH_LABEL
	pcalau12i	$a0, %pc_hi20(.L.str.6)
	addi.d	$a2, $a0, %pc_lo12(.L.str.6)
	addi.d	$a0, $sp, 392
	addi.d	$a1, $sp, 360
	pcaddu18i	$ra, %call36(_ZL19checkVectorFunctionIjjEvSt8functionIFT_PT0_S3_jEES5_PKc)
	jirl	$ra, $ra, 0
.Ltmp91:                                # EH_LABEL
# %bb.33:                               # %invoke.cont48
	ld.d	$a3, $sp, 376
	beqz	$a3, .LBB0_35
# %bb.34:                               # %if.then.i104
.Ltmp99:                                # EH_LABEL
	addi.d	$a0, $sp, 360
	addi.d	$a1, $sp, 360
	ori	$a2, $zero, 3
	jirl	$ra, $a3, 0
.Ltmp100:                               # EH_LABEL
.LBB0_35:                               # %_ZNSt14_Function_baseD2Ev.exit107
	ld.d	$a3, $sp, 408
	beqz	$a3, .LBB0_37
# %bb.36:                               # %if.then.i110
.Ltmp102:                               # EH_LABEL
	addi.d	$a0, $sp, 392
	addi.d	$a1, $sp, 392
	ori	$a2, $zero, 3
	jirl	$ra, $a3, 0
.Ltmp103:                               # EH_LABEL
.LBB0_37:                               # %_ZNSt14_Function_baseD2Ev.exit113
	vld	$vr0, $sp, 16                   # 16-byte Folded Reload
	vst	$vr0, $sp, 328
	pcalau12i	$a0, %pc_hi20(_ZNSt17_Function_handlerIFjPfS0_jEZ4mainE3$_8E9_M_invokeERKSt9_Any_dataOS0_S7_Oj)
	addi.d	$a0, $a0, %pc_lo12(_ZNSt17_Function_handlerIFjPfS0_jEZ4mainE3$_8E9_M_invokeERKSt9_Any_dataOS0_S7_Oj)
	st.d	$a0, $sp, 352
	pcalau12i	$a0, %pc_hi20(_ZNSt17_Function_handlerIFjPfS0_jEZ4mainE3$_8E10_M_managerERSt9_Any_dataRKS4_St18_Manager_operation)
	addi.d	$a0, $a0, %pc_lo12(_ZNSt17_Function_handlerIFjPfS0_jEZ4mainE3$_8E10_M_managerERSt9_Any_dataRKS4_St18_Manager_operation)
	st.d	$a0, $sp, 344
	vst	$vr0, $sp, 296
	pcalau12i	$a0, %pc_hi20(_ZNSt17_Function_handlerIFjPfS0_jEZ4mainE3$_9E9_M_invokeERKSt9_Any_dataOS0_S7_Oj)
	addi.d	$a0, $a0, %pc_lo12(_ZNSt17_Function_handlerIFjPfS0_jEZ4mainE3$_9E9_M_invokeERKSt9_Any_dataOS0_S7_Oj)
	st.d	$a0, $sp, 320
	pcalau12i	$a0, %pc_hi20(_ZNSt17_Function_handlerIFjPfS0_jEZ4mainE3$_9E10_M_managerERSt9_Any_dataRKS4_St18_Manager_operation)
	addi.d	$a0, $a0, %pc_lo12(_ZNSt17_Function_handlerIFjPfS0_jEZ4mainE3$_9E10_M_managerERSt9_Any_dataRKS4_St18_Manager_operation)
	st.d	$a0, $sp, 312
.Ltmp105:                               # EH_LABEL
	pcalau12i	$a0, %pc_hi20(.L.str.7)
	addi.d	$a2, $a0, %pc_lo12(.L.str.7)
	addi.d	$a0, $sp, 328
	addi.d	$a1, $sp, 296
	pcaddu18i	$ra, %call36(_ZL19checkVectorFunctionIjfEvSt8functionIFT_PT0_S3_jEES5_PKc)
	jirl	$ra, $ra, 0
.Ltmp106:                               # EH_LABEL
# %bb.38:                               # %invoke.cont54
	ld.d	$a3, $sp, 312
	beqz	$a3, .LBB0_40
# %bb.39:                               # %if.then.i120
.Ltmp114:                               # EH_LABEL
	addi.d	$a0, $sp, 296
	addi.d	$a1, $sp, 296
	ori	$a2, $zero, 3
	jirl	$ra, $a3, 0
.Ltmp115:                               # EH_LABEL
.LBB0_40:                               # %_ZNSt14_Function_baseD2Ev.exit123
	ld.d	$a3, $sp, 344
	beqz	$a3, .LBB0_42
# %bb.41:                               # %if.then.i126
.Ltmp117:                               # EH_LABEL
	addi.d	$a0, $sp, 328
	addi.d	$a1, $sp, 328
	ori	$a2, $zero, 3
	jirl	$ra, $a3, 0
.Ltmp118:                               # EH_LABEL
.LBB0_42:                               # %_ZNSt14_Function_baseD2Ev.exit129
	vld	$vr0, $sp, 16                   # 16-byte Folded Reload
	vst	$vr0, $sp, 264
	pcalau12i	$a0, %pc_hi20(_ZNSt17_Function_handlerIFtPtS0_jEZ4mainE4$_10E9_M_invokeERKSt9_Any_dataOS0_S7_Oj)
	addi.d	$a0, $a0, %pc_lo12(_ZNSt17_Function_handlerIFtPtS0_jEZ4mainE4$_10E9_M_invokeERKSt9_Any_dataOS0_S7_Oj)
	st.d	$a0, $sp, 288
	pcalau12i	$a0, %pc_hi20(_ZNSt17_Function_handlerIFtPtS0_jEZ4mainE4$_10E10_M_managerERSt9_Any_dataRKS4_St18_Manager_operation)
	addi.d	$a0, $a0, %pc_lo12(_ZNSt17_Function_handlerIFtPtS0_jEZ4mainE4$_10E10_M_managerERSt9_Any_dataRKS4_St18_Manager_operation)
	st.d	$a0, $sp, 280
	vst	$vr0, $sp, 232
	pcalau12i	$a0, %pc_hi20(_ZNSt17_Function_handlerIFtPtS0_jEZ4mainE4$_11E9_M_invokeERKSt9_Any_dataOS0_S7_Oj)
	addi.d	$a0, $a0, %pc_lo12(_ZNSt17_Function_handlerIFtPtS0_jEZ4mainE4$_11E9_M_invokeERKSt9_Any_dataOS0_S7_Oj)
	st.d	$a0, $sp, 256
	pcalau12i	$a0, %pc_hi20(_ZNSt17_Function_handlerIFtPtS0_jEZ4mainE4$_11E10_M_managerERSt9_Any_dataRKS4_St18_Manager_operation)
	addi.d	$a0, $a0, %pc_lo12(_ZNSt17_Function_handlerIFtPtS0_jEZ4mainE4$_11E10_M_managerERSt9_Any_dataRKS4_St18_Manager_operation)
	st.d	$a0, $sp, 248
.Ltmp120:                               # EH_LABEL
	pcalau12i	$a0, %pc_hi20(.L.str.8)
	addi.d	$a2, $a0, %pc_lo12(.L.str.8)
	addi.d	$a0, $sp, 264
	addi.d	$a1, $sp, 232
	pcaddu18i	$ra, %call36(_ZL19checkVectorFunctionIttEvSt8functionIFT_PT0_S3_jEES5_PKc)
	jirl	$ra, $ra, 0
.Ltmp121:                               # EH_LABEL
# %bb.43:                               # %invoke.cont64
	ld.d	$a3, $sp, 248
	beqz	$a3, .LBB0_45
# %bb.44:                               # %if.then.i136
.Ltmp129:                               # EH_LABEL
	addi.d	$a0, $sp, 232
	addi.d	$a1, $sp, 232
	ori	$a2, $zero, 3
	jirl	$ra, $a3, 0
.Ltmp130:                               # EH_LABEL
.LBB0_45:                               # %_ZNSt14_Function_baseD2Ev.exit139
	ld.d	$a3, $sp, 280
	beqz	$a3, .LBB0_47
# %bb.46:                               # %if.then.i142
.Ltmp132:                               # EH_LABEL
	addi.d	$a0, $sp, 264
	addi.d	$a1, $sp, 264
	ori	$a2, $zero, 3
	jirl	$ra, $a3, 0
.Ltmp133:                               # EH_LABEL
.LBB0_47:                               # %_ZNSt14_Function_baseD2Ev.exit145
	vld	$vr0, $sp, 16                   # 16-byte Folded Reload
	vst	$vr0, $sp, 200
	pcalau12i	$a0, %pc_hi20(_ZNSt17_Function_handlerIFjPjS0_jEZ4mainE4$_12E9_M_invokeERKSt9_Any_dataOS0_S7_Oj)
	addi.d	$a0, $a0, %pc_lo12(_ZNSt17_Function_handlerIFjPjS0_jEZ4mainE4$_12E9_M_invokeERKSt9_Any_dataOS0_S7_Oj)
	st.d	$a0, $sp, 224
	pcalau12i	$a0, %pc_hi20(_ZNSt17_Function_handlerIFjPjS0_jEZ4mainE4$_12E10_M_managerERSt9_Any_dataRKS4_St18_Manager_operation)
	addi.d	$a0, $a0, %pc_lo12(_ZNSt17_Function_handlerIFjPjS0_jEZ4mainE4$_12E10_M_managerERSt9_Any_dataRKS4_St18_Manager_operation)
	st.d	$a0, $sp, 216
	vst	$vr0, $sp, 168
	pcalau12i	$a0, %pc_hi20(_ZNSt17_Function_handlerIFjPjS0_jEZ4mainE4$_13E9_M_invokeERKSt9_Any_dataOS0_S7_Oj)
	addi.d	$a0, $a0, %pc_lo12(_ZNSt17_Function_handlerIFjPjS0_jEZ4mainE4$_13E9_M_invokeERKSt9_Any_dataOS0_S7_Oj)
	st.d	$a0, $sp, 192
	pcalau12i	$a0, %pc_hi20(_ZNSt17_Function_handlerIFjPjS0_jEZ4mainE4$_13E10_M_managerERSt9_Any_dataRKS4_St18_Manager_operation)
	addi.d	$a0, $a0, %pc_lo12(_ZNSt17_Function_handlerIFjPjS0_jEZ4mainE4$_13E10_M_managerERSt9_Any_dataRKS4_St18_Manager_operation)
	st.d	$a0, $sp, 184
.Ltmp135:                               # EH_LABEL
	pcalau12i	$a0, %pc_hi20(.L.str.9)
	addi.d	$a2, $a0, %pc_lo12(.L.str.9)
	addi.d	$a0, $sp, 200
	addi.d	$a1, $sp, 168
	pcaddu18i	$ra, %call36(_ZL19checkVectorFunctionIjjEvSt8functionIFT_PT0_S3_jEES5_PKc)
	jirl	$ra, $ra, 0
.Ltmp136:                               # EH_LABEL
# %bb.48:                               # %invoke.cont74
	ld.d	$a3, $sp, 184
	beqz	$a3, .LBB0_50
# %bb.49:                               # %if.then.i152
.Ltmp144:                               # EH_LABEL
	addi.d	$a0, $sp, 168
	addi.d	$a1, $sp, 168
	ori	$a2, $zero, 3
	jirl	$ra, $a3, 0
.Ltmp145:                               # EH_LABEL
.LBB0_50:                               # %_ZNSt14_Function_baseD2Ev.exit155
	ld.d	$a3, $sp, 216
	beqz	$a3, .LBB0_52
# %bb.51:                               # %if.then.i158
.Ltmp147:                               # EH_LABEL
	addi.d	$a0, $sp, 200
	addi.d	$a1, $sp, 200
	ori	$a2, $zero, 3
	jirl	$ra, $a3, 0
.Ltmp148:                               # EH_LABEL
.LBB0_52:                               # %_ZNSt14_Function_baseD2Ev.exit161
	vld	$vr0, $sp, 16                   # 16-byte Folded Reload
	vst	$vr0, $sp, 136
	pcalau12i	$a0, %pc_hi20(_ZNSt17_Function_handlerIFjPfS0_jEZ4mainE4$_12E9_M_invokeERKSt9_Any_dataOS0_S7_Oj)
	addi.d	$a0, $a0, %pc_lo12(_ZNSt17_Function_handlerIFjPfS0_jEZ4mainE4$_12E9_M_invokeERKSt9_Any_dataOS0_S7_Oj)
	st.d	$a0, $sp, 160
	pcalau12i	$a0, %pc_hi20(_ZNSt17_Function_handlerIFjPfS0_jEZ4mainE4$_12E10_M_managerERSt9_Any_dataRKS4_St18_Manager_operation)
	addi.d	$a0, $a0, %pc_lo12(_ZNSt17_Function_handlerIFjPfS0_jEZ4mainE4$_12E10_M_managerERSt9_Any_dataRKS4_St18_Manager_operation)
	st.d	$a0, $sp, 152
	vst	$vr0, $sp, 104
	pcalau12i	$a0, %pc_hi20(_ZNSt17_Function_handlerIFjPfS0_jEZ4mainE4$_13E9_M_invokeERKSt9_Any_dataOS0_S7_Oj)
	addi.d	$a0, $a0, %pc_lo12(_ZNSt17_Function_handlerIFjPfS0_jEZ4mainE4$_13E9_M_invokeERKSt9_Any_dataOS0_S7_Oj)
	st.d	$a0, $sp, 128
	pcalau12i	$a0, %pc_hi20(_ZNSt17_Function_handlerIFjPfS0_jEZ4mainE4$_13E10_M_managerERSt9_Any_dataRKS4_St18_Manager_operation)
	addi.d	$a0, $a0, %pc_lo12(_ZNSt17_Function_handlerIFjPfS0_jEZ4mainE4$_13E10_M_managerERSt9_Any_dataRKS4_St18_Manager_operation)
	st.d	$a0, $sp, 120
.Ltmp150:                               # EH_LABEL
	pcalau12i	$a0, %pc_hi20(.L.str.10)
	addi.d	$a2, $a0, %pc_lo12(.L.str.10)
	addi.d	$a0, $sp, 136
	addi.d	$a1, $sp, 104
	pcaddu18i	$ra, %call36(_ZL19checkVectorFunctionIjfEvSt8functionIFT_PT0_S3_jEES5_PKc)
	jirl	$ra, $ra, 0
.Ltmp151:                               # EH_LABEL
# %bb.53:                               # %invoke.cont80
	ld.d	$a3, $sp, 120
	beqz	$a3, .LBB0_55
# %bb.54:                               # %if.then.i168
.Ltmp159:                               # EH_LABEL
	addi.d	$a0, $sp, 104
	addi.d	$a1, $sp, 104
	ori	$a2, $zero, 3
	jirl	$ra, $a3, 0
.Ltmp160:                               # EH_LABEL
.LBB0_55:                               # %_ZNSt14_Function_baseD2Ev.exit171
	ld.d	$a3, $sp, 152
	beqz	$a3, .LBB0_57
# %bb.56:                               # %if.then.i174
.Ltmp162:                               # EH_LABEL
	addi.d	$a0, $sp, 136
	addi.d	$a1, $sp, 136
	ori	$a2, $zero, 3
	jirl	$ra, $a3, 0
.Ltmp163:                               # EH_LABEL
.LBB0_57:                               # %_ZNSt14_Function_baseD2Ev.exit177
	vld	$vr0, $sp, 16                   # 16-byte Folded Reload
	vst	$vr0, $sp, 72
	pcalau12i	$a0, %pc_hi20(_ZNSt17_Function_handlerIFtPtS0_jEZ4mainE4$_14E9_M_invokeERKSt9_Any_dataOS0_S7_Oj)
	addi.d	$a0, $a0, %pc_lo12(_ZNSt17_Function_handlerIFtPtS0_jEZ4mainE4$_14E9_M_invokeERKSt9_Any_dataOS0_S7_Oj)
	st.d	$a0, $sp, 96
	pcalau12i	$a0, %pc_hi20(_ZNSt17_Function_handlerIFtPtS0_jEZ4mainE4$_14E10_M_managerERSt9_Any_dataRKS4_St18_Manager_operation)
	addi.d	$a0, $a0, %pc_lo12(_ZNSt17_Function_handlerIFtPtS0_jEZ4mainE4$_14E10_M_managerERSt9_Any_dataRKS4_St18_Manager_operation)
	st.d	$a0, $sp, 88
	vst	$vr0, $sp, 40
	pcalau12i	$a0, %pc_hi20(_ZNSt17_Function_handlerIFtPtS0_jEZ4mainE4$_15E9_M_invokeERKSt9_Any_dataOS0_S7_Oj)
	addi.d	$a0, $a0, %pc_lo12(_ZNSt17_Function_handlerIFtPtS0_jEZ4mainE4$_15E9_M_invokeERKSt9_Any_dataOS0_S7_Oj)
	st.d	$a0, $sp, 64
	pcalau12i	$a0, %pc_hi20(_ZNSt17_Function_handlerIFtPtS0_jEZ4mainE4$_15E10_M_managerERSt9_Any_dataRKS4_St18_Manager_operation)
	addi.d	$a0, $a0, %pc_lo12(_ZNSt17_Function_handlerIFtPtS0_jEZ4mainE4$_15E10_M_managerERSt9_Any_dataRKS4_St18_Manager_operation)
	st.d	$a0, $sp, 56
.Ltmp165:                               # EH_LABEL
	pcalau12i	$a0, %pc_hi20(.L.str.11)
	addi.d	$a2, $a0, %pc_lo12(.L.str.11)
	addi.d	$a0, $sp, 72
	addi.d	$a1, $sp, 40
	pcaddu18i	$ra, %call36(_ZL19checkVectorFunctionIttEvSt8functionIFT_PT0_S3_jEES5_PKc)
	jirl	$ra, $ra, 0
.Ltmp166:                               # EH_LABEL
# %bb.58:                               # %invoke.cont90
	ld.d	$a3, $sp, 56
	beqz	$a3, .LBB0_60
# %bb.59:                               # %if.then.i184
.Ltmp174:                               # EH_LABEL
	addi.d	$a0, $sp, 40
	addi.d	$a1, $sp, 40
	ori	$a2, $zero, 3
	jirl	$ra, $a3, 0
.Ltmp175:                               # EH_LABEL
.LBB0_60:                               # %_ZNSt14_Function_baseD2Ev.exit187
	ld.d	$a3, $sp, 88
	beqz	$a3, .LBB0_62
# %bb.61:                               # %if.then.i190
.Ltmp177:                               # EH_LABEL
	addi.d	$a0, $sp, 72
	addi.d	$a1, $sp, 72
	ori	$a2, $zero, 3
	jirl	$ra, $a3, 0
.Ltmp178:                               # EH_LABEL
.LBB0_62:                               # %_ZNSt14_Function_baseD2Ev.exit193
	move	$a0, $zero
	addi.d	$sp, $sp, 2032
	addi.d	$sp, $sp, 1760
	ld.d	$fp, $sp, 2016                  # 8-byte Folded Reload
	ld.d	$ra, $sp, 2024                  # 8-byte Folded Reload
	addi.d	$sp, $sp, 2032
	ret
.LBB0_63:                               # %terminate.lpad.i192
.Ltmp179:                               # EH_LABEL
	pcaddu18i	$ra, %call36(__clang_call_terminate)
	jirl	$ra, $ra, 0
.LBB0_64:                               # %terminate.lpad.i186
.Ltmp176:                               # EH_LABEL
	pcaddu18i	$ra, %call36(__clang_call_terminate)
	jirl	$ra, $ra, 0
.LBB0_65:                               # %terminate.lpad.i176
.Ltmp164:                               # EH_LABEL
	pcaddu18i	$ra, %call36(__clang_call_terminate)
	jirl	$ra, $ra, 0
.LBB0_66:                               # %terminate.lpad.i170
.Ltmp161:                               # EH_LABEL
	pcaddu18i	$ra, %call36(__clang_call_terminate)
	jirl	$ra, $ra, 0
.LBB0_67:                               # %terminate.lpad.i160
.Ltmp149:                               # EH_LABEL
	pcaddu18i	$ra, %call36(__clang_call_terminate)
	jirl	$ra, $ra, 0
.LBB0_68:                               # %terminate.lpad.i154
.Ltmp146:                               # EH_LABEL
	pcaddu18i	$ra, %call36(__clang_call_terminate)
	jirl	$ra, $ra, 0
.LBB0_69:                               # %terminate.lpad.i144
.Ltmp134:                               # EH_LABEL
	pcaddu18i	$ra, %call36(__clang_call_terminate)
	jirl	$ra, $ra, 0
.LBB0_70:                               # %terminate.lpad.i138
.Ltmp131:                               # EH_LABEL
	pcaddu18i	$ra, %call36(__clang_call_terminate)
	jirl	$ra, $ra, 0
.LBB0_71:                               # %terminate.lpad.i128
.Ltmp119:                               # EH_LABEL
	pcaddu18i	$ra, %call36(__clang_call_terminate)
	jirl	$ra, $ra, 0
.LBB0_72:                               # %terminate.lpad.i122
.Ltmp116:                               # EH_LABEL
	pcaddu18i	$ra, %call36(__clang_call_terminate)
	jirl	$ra, $ra, 0
.LBB0_73:                               # %terminate.lpad.i112
.Ltmp104:                               # EH_LABEL
	pcaddu18i	$ra, %call36(__clang_call_terminate)
	jirl	$ra, $ra, 0
.LBB0_74:                               # %terminate.lpad.i106
.Ltmp101:                               # EH_LABEL
	pcaddu18i	$ra, %call36(__clang_call_terminate)
	jirl	$ra, $ra, 0
.LBB0_75:                               # %terminate.lpad.i96
.Ltmp89:                                # EH_LABEL
	pcaddu18i	$ra, %call36(__clang_call_terminate)
	jirl	$ra, $ra, 0
.LBB0_76:                               # %terminate.lpad.i90
.Ltmp86:                                # EH_LABEL
	pcaddu18i	$ra, %call36(__clang_call_terminate)
	jirl	$ra, $ra, 0
.LBB0_77:                               # %terminate.lpad.i80
.Ltmp74:                                # EH_LABEL
	pcaddu18i	$ra, %call36(__clang_call_terminate)
	jirl	$ra, $ra, 0
.LBB0_78:                               # %terminate.lpad.i74
.Ltmp71:                                # EH_LABEL
	pcaddu18i	$ra, %call36(__clang_call_terminate)
	jirl	$ra, $ra, 0
.LBB0_79:                               # %terminate.lpad.i64
.Ltmp59:                                # EH_LABEL
	pcaddu18i	$ra, %call36(__clang_call_terminate)
	jirl	$ra, $ra, 0
.LBB0_80:                               # %terminate.lpad.i58
.Ltmp56:                                # EH_LABEL
	pcaddu18i	$ra, %call36(__clang_call_terminate)
	jirl	$ra, $ra, 0
.LBB0_81:                               # %terminate.lpad.i48
.Ltmp44:                                # EH_LABEL
	pcaddu18i	$ra, %call36(__clang_call_terminate)
	jirl	$ra, $ra, 0
.LBB0_82:                               # %terminate.lpad.i42
.Ltmp41:                                # EH_LABEL
	pcaddu18i	$ra, %call36(__clang_call_terminate)
	jirl	$ra, $ra, 0
.LBB0_83:                               # %terminate.lpad.i32
.Ltmp29:                                # EH_LABEL
	pcaddu18i	$ra, %call36(__clang_call_terminate)
	jirl	$ra, $ra, 0
.LBB0_84:                               # %terminate.lpad.i26
.Ltmp26:                                # EH_LABEL
	pcaddu18i	$ra, %call36(__clang_call_terminate)
	jirl	$ra, $ra, 0
.LBB0_85:                               # %terminate.lpad.i16
.Ltmp14:                                # EH_LABEL
	pcaddu18i	$ra, %call36(__clang_call_terminate)
	jirl	$ra, $ra, 0
.LBB0_86:                               # %terminate.lpad.i
.Ltmp11:                                # EH_LABEL
	pcaddu18i	$ra, %call36(__clang_call_terminate)
	jirl	$ra, $ra, 0
.LBB0_87:                               # %lpad89
.Ltmp167:                               # EH_LABEL
	ld.d	$a3, $sp, 56
	move	$fp, $a0
	beqz	$a3, .LBB0_89
# %bb.88:                               # %if.then.i328
.Ltmp168:                               # EH_LABEL
	addi.d	$a0, $sp, 40
	addi.d	$a1, $sp, 40
	ori	$a2, $zero, 3
	jirl	$ra, $a3, 0
.Ltmp169:                               # EH_LABEL
.LBB0_89:                               # %_ZNSt14_Function_baseD2Ev.exit331
	ld.d	$a3, $sp, 88
	beqz	$a3, .LBB0_157
# %bb.90:                               # %if.then.i334
.Ltmp171:                               # EH_LABEL
	addi.d	$a0, $sp, 72
	addi.d	$a1, $sp, 72
	ori	$a2, $zero, 3
	jirl	$ra, $a3, 0
.Ltmp172:                               # EH_LABEL
	b	.LBB0_157
.LBB0_91:                               # %terminate.lpad.i336
.Ltmp173:                               # EH_LABEL
	pcaddu18i	$ra, %call36(__clang_call_terminate)
	jirl	$ra, $ra, 0
.LBB0_92:                               # %terminate.lpad.i330
.Ltmp170:                               # EH_LABEL
	pcaddu18i	$ra, %call36(__clang_call_terminate)
	jirl	$ra, $ra, 0
.LBB0_93:                               # %lpad79
.Ltmp152:                               # EH_LABEL
	ld.d	$a3, $sp, 120
	move	$fp, $a0
	beqz	$a3, .LBB0_95
# %bb.94:                               # %if.then.i316
.Ltmp153:                               # EH_LABEL
	addi.d	$a0, $sp, 104
	addi.d	$a1, $sp, 104
	ori	$a2, $zero, 3
	jirl	$ra, $a3, 0
.Ltmp154:                               # EH_LABEL
.LBB0_95:                               # %_ZNSt14_Function_baseD2Ev.exit319
	ld.d	$a3, $sp, 152
	beqz	$a3, .LBB0_157
# %bb.96:                               # %if.then.i322
.Ltmp156:                               # EH_LABEL
	addi.d	$a0, $sp, 136
	addi.d	$a1, $sp, 136
	ori	$a2, $zero, 3
	jirl	$ra, $a3, 0
.Ltmp157:                               # EH_LABEL
	b	.LBB0_157
.LBB0_97:                               # %terminate.lpad.i324
.Ltmp158:                               # EH_LABEL
	pcaddu18i	$ra, %call36(__clang_call_terminate)
	jirl	$ra, $ra, 0
.LBB0_98:                               # %terminate.lpad.i318
.Ltmp155:                               # EH_LABEL
	pcaddu18i	$ra, %call36(__clang_call_terminate)
	jirl	$ra, $ra, 0
.LBB0_99:                               # %lpad73
.Ltmp137:                               # EH_LABEL
	ld.d	$a3, $sp, 184
	move	$fp, $a0
	beqz	$a3, .LBB0_101
# %bb.100:                              # %if.then.i304
.Ltmp138:                               # EH_LABEL
	addi.d	$a0, $sp, 168
	addi.d	$a1, $sp, 168
	ori	$a2, $zero, 3
	jirl	$ra, $a3, 0
.Ltmp139:                               # EH_LABEL
.LBB0_101:                              # %_ZNSt14_Function_baseD2Ev.exit307
	ld.d	$a3, $sp, 216
	beqz	$a3, .LBB0_157
# %bb.102:                              # %if.then.i310
.Ltmp141:                               # EH_LABEL
	addi.d	$a0, $sp, 200
	addi.d	$a1, $sp, 200
	ori	$a2, $zero, 3
	jirl	$ra, $a3, 0
.Ltmp142:                               # EH_LABEL
	b	.LBB0_157
.LBB0_103:                              # %terminate.lpad.i312
.Ltmp143:                               # EH_LABEL
	pcaddu18i	$ra, %call36(__clang_call_terminate)
	jirl	$ra, $ra, 0
.LBB0_104:                              # %terminate.lpad.i306
.Ltmp140:                               # EH_LABEL
	pcaddu18i	$ra, %call36(__clang_call_terminate)
	jirl	$ra, $ra, 0
.LBB0_105:                              # %lpad63
.Ltmp122:                               # EH_LABEL
	ld.d	$a3, $sp, 248
	move	$fp, $a0
	beqz	$a3, .LBB0_107
# %bb.106:                              # %if.then.i292
.Ltmp123:                               # EH_LABEL
	addi.d	$a0, $sp, 232
	addi.d	$a1, $sp, 232
	ori	$a2, $zero, 3
	jirl	$ra, $a3, 0
.Ltmp124:                               # EH_LABEL
.LBB0_107:                              # %_ZNSt14_Function_baseD2Ev.exit295
	ld.d	$a3, $sp, 280
	beqz	$a3, .LBB0_157
# %bb.108:                              # %if.then.i298
.Ltmp126:                               # EH_LABEL
	addi.d	$a0, $sp, 264
	addi.d	$a1, $sp, 264
	ori	$a2, $zero, 3
	jirl	$ra, $a3, 0
.Ltmp127:                               # EH_LABEL
	b	.LBB0_157
.LBB0_109:                              # %terminate.lpad.i300
.Ltmp128:                               # EH_LABEL
	pcaddu18i	$ra, %call36(__clang_call_terminate)
	jirl	$ra, $ra, 0
.LBB0_110:                              # %terminate.lpad.i294
.Ltmp125:                               # EH_LABEL
	pcaddu18i	$ra, %call36(__clang_call_terminate)
	jirl	$ra, $ra, 0
.LBB0_111:                              # %lpad53
.Ltmp107:                               # EH_LABEL
	ld.d	$a3, $sp, 312
	move	$fp, $a0
	beqz	$a3, .LBB0_113
# %bb.112:                              # %if.then.i280
.Ltmp108:                               # EH_LABEL
	addi.d	$a0, $sp, 296
	addi.d	$a1, $sp, 296
	ori	$a2, $zero, 3
	jirl	$ra, $a3, 0
.Ltmp109:                               # EH_LABEL
.LBB0_113:                              # %_ZNSt14_Function_baseD2Ev.exit283
	ld.d	$a3, $sp, 344
	beqz	$a3, .LBB0_157
# %bb.114:                              # %if.then.i286
.Ltmp111:                               # EH_LABEL
	addi.d	$a0, $sp, 328
	addi.d	$a1, $sp, 328
	ori	$a2, $zero, 3
	jirl	$ra, $a3, 0
.Ltmp112:                               # EH_LABEL
	b	.LBB0_157
.LBB0_115:                              # %terminate.lpad.i288
.Ltmp113:                               # EH_LABEL
	pcaddu18i	$ra, %call36(__clang_call_terminate)
	jirl	$ra, $ra, 0
.LBB0_116:                              # %terminate.lpad.i282
.Ltmp110:                               # EH_LABEL
	pcaddu18i	$ra, %call36(__clang_call_terminate)
	jirl	$ra, $ra, 0
.LBB0_117:                              # %lpad47
.Ltmp92:                                # EH_LABEL
	ld.d	$a3, $sp, 376
	move	$fp, $a0
	beqz	$a3, .LBB0_119
# %bb.118:                              # %if.then.i268
.Ltmp93:                                # EH_LABEL
	addi.d	$a0, $sp, 360
	addi.d	$a1, $sp, 360
	ori	$a2, $zero, 3
	jirl	$ra, $a3, 0
.Ltmp94:                                # EH_LABEL
.LBB0_119:                              # %_ZNSt14_Function_baseD2Ev.exit271
	ld.d	$a3, $sp, 408
	beqz	$a3, .LBB0_157
# %bb.120:                              # %if.then.i274
.Ltmp96:                                # EH_LABEL
	addi.d	$a0, $sp, 392
	addi.d	$a1, $sp, 392
	ori	$a2, $zero, 3
	jirl	$ra, $a3, 0
.Ltmp97:                                # EH_LABEL
	b	.LBB0_157
.LBB0_121:                              # %terminate.lpad.i276
.Ltmp98:                                # EH_LABEL
	pcaddu18i	$ra, %call36(__clang_call_terminate)
	jirl	$ra, $ra, 0
.LBB0_122:                              # %terminate.lpad.i270
.Ltmp95:                                # EH_LABEL
	pcaddu18i	$ra, %call36(__clang_call_terminate)
	jirl	$ra, $ra, 0
.LBB0_123:                              # %lpad37
.Ltmp77:                                # EH_LABEL
	ld.d	$a3, $sp, 440
	move	$fp, $a0
	beqz	$a3, .LBB0_125
# %bb.124:                              # %if.then.i256
.Ltmp78:                                # EH_LABEL
	addi.d	$a0, $sp, 424
	addi.d	$a1, $sp, 424
	ori	$a2, $zero, 3
	jirl	$ra, $a3, 0
.Ltmp79:                                # EH_LABEL
.LBB0_125:                              # %_ZNSt14_Function_baseD2Ev.exit259
	ld.d	$a3, $sp, 472
	beqz	$a3, .LBB0_157
# %bb.126:                              # %if.then.i262
.Ltmp81:                                # EH_LABEL
	addi.d	$a0, $sp, 456
	addi.d	$a1, $sp, 456
	ori	$a2, $zero, 3
	jirl	$ra, $a3, 0
.Ltmp82:                                # EH_LABEL
	b	.LBB0_157
.LBB0_127:                              # %terminate.lpad.i264
.Ltmp83:                                # EH_LABEL
	pcaddu18i	$ra, %call36(__clang_call_terminate)
	jirl	$ra, $ra, 0
.LBB0_128:                              # %terminate.lpad.i258
.Ltmp80:                                # EH_LABEL
	pcaddu18i	$ra, %call36(__clang_call_terminate)
	jirl	$ra, $ra, 0
.LBB0_129:                              # %lpad27
.Ltmp62:                                # EH_LABEL
	ld.d	$a3, $sp, 504
	move	$fp, $a0
	beqz	$a3, .LBB0_131
# %bb.130:                              # %if.then.i244
.Ltmp63:                                # EH_LABEL
	addi.d	$a0, $sp, 488
	addi.d	$a1, $sp, 488
	ori	$a2, $zero, 3
	jirl	$ra, $a3, 0
.Ltmp64:                                # EH_LABEL
.LBB0_131:                              # %_ZNSt14_Function_baseD2Ev.exit247
	ld.d	$a3, $sp, 536
	beqz	$a3, .LBB0_157
# %bb.132:                              # %if.then.i250
.Ltmp66:                                # EH_LABEL
	addi.d	$a0, $sp, 520
	addi.d	$a1, $sp, 520
	ori	$a2, $zero, 3
	jirl	$ra, $a3, 0
.Ltmp67:                                # EH_LABEL
	b	.LBB0_157
.LBB0_133:                              # %terminate.lpad.i252
.Ltmp68:                                # EH_LABEL
	pcaddu18i	$ra, %call36(__clang_call_terminate)
	jirl	$ra, $ra, 0
.LBB0_134:                              # %terminate.lpad.i246
.Ltmp65:                                # EH_LABEL
	pcaddu18i	$ra, %call36(__clang_call_terminate)
	jirl	$ra, $ra, 0
.LBB0_135:                              # %lpad21
.Ltmp47:                                # EH_LABEL
	ld.d	$a3, $sp, 568
	move	$fp, $a0
	beqz	$a3, .LBB0_137
# %bb.136:                              # %if.then.i232
.Ltmp48:                                # EH_LABEL
	addi.d	$a0, $sp, 552
	addi.d	$a1, $sp, 552
	ori	$a2, $zero, 3
	jirl	$ra, $a3, 0
.Ltmp49:                                # EH_LABEL
.LBB0_137:                              # %_ZNSt14_Function_baseD2Ev.exit235
	ld.d	$a3, $sp, 600
	beqz	$a3, .LBB0_157
# %bb.138:                              # %if.then.i238
.Ltmp51:                                # EH_LABEL
	addi.d	$a0, $sp, 584
	addi.d	$a1, $sp, 584
	ori	$a2, $zero, 3
	jirl	$ra, $a3, 0
.Ltmp52:                                # EH_LABEL
	b	.LBB0_157
.LBB0_139:                              # %terminate.lpad.i240
.Ltmp53:                                # EH_LABEL
	pcaddu18i	$ra, %call36(__clang_call_terminate)
	jirl	$ra, $ra, 0
.LBB0_140:                              # %terminate.lpad.i234
.Ltmp50:                                # EH_LABEL
	pcaddu18i	$ra, %call36(__clang_call_terminate)
	jirl	$ra, $ra, 0
.LBB0_141:                              # %lpad11
.Ltmp32:                                # EH_LABEL
	ld.d	$a3, $sp, 632
	move	$fp, $a0
	beqz	$a3, .LBB0_143
# %bb.142:                              # %if.then.i220
.Ltmp33:                                # EH_LABEL
	addi.d	$a0, $sp, 616
	addi.d	$a1, $sp, 616
	ori	$a2, $zero, 3
	jirl	$ra, $a3, 0
.Ltmp34:                                # EH_LABEL
.LBB0_143:                              # %_ZNSt14_Function_baseD2Ev.exit223
	ld.d	$a3, $sp, 664
	beqz	$a3, .LBB0_157
# %bb.144:                              # %if.then.i226
.Ltmp36:                                # EH_LABEL
	addi.d	$a0, $sp, 648
	addi.d	$a1, $sp, 648
	ori	$a2, $zero, 3
	jirl	$ra, $a3, 0
.Ltmp37:                                # EH_LABEL
	b	.LBB0_157
.LBB0_145:                              # %terminate.lpad.i228
.Ltmp38:                                # EH_LABEL
	pcaddu18i	$ra, %call36(__clang_call_terminate)
	jirl	$ra, $ra, 0
.LBB0_146:                              # %terminate.lpad.i222
.Ltmp35:                                # EH_LABEL
	pcaddu18i	$ra, %call36(__clang_call_terminate)
	jirl	$ra, $ra, 0
.LBB0_147:                              # %lpad4
.Ltmp17:                                # EH_LABEL
	ld.d	$a3, $sp, 696
	move	$fp, $a0
	beqz	$a3, .LBB0_149
# %bb.148:                              # %if.then.i208
.Ltmp18:                                # EH_LABEL
	addi.d	$a0, $sp, 680
	addi.d	$a1, $sp, 680
	ori	$a2, $zero, 3
	jirl	$ra, $a3, 0
.Ltmp19:                                # EH_LABEL
.LBB0_149:                              # %_ZNSt14_Function_baseD2Ev.exit211
	ld.d	$a3, $sp, 728
	beqz	$a3, .LBB0_157
# %bb.150:                              # %if.then.i214
.Ltmp21:                                # EH_LABEL
	addi.d	$a0, $sp, 712
	addi.d	$a1, $sp, 712
	ori	$a2, $zero, 3
	jirl	$ra, $a3, 0
.Ltmp22:                                # EH_LABEL
	b	.LBB0_157
.LBB0_151:                              # %terminate.lpad.i216
.Ltmp23:                                # EH_LABEL
	pcaddu18i	$ra, %call36(__clang_call_terminate)
	jirl	$ra, $ra, 0
.LBB0_152:                              # %terminate.lpad.i210
.Ltmp20:                                # EH_LABEL
	pcaddu18i	$ra, %call36(__clang_call_terminate)
	jirl	$ra, $ra, 0
.LBB0_153:                              # %lpad
.Ltmp2:                                 # EH_LABEL
	ld.d	$a3, $sp, 760
	move	$fp, $a0
	beqz	$a3, .LBB0_155
# %bb.154:                              # %if.then.i196
.Ltmp3:                                 # EH_LABEL
	addi.d	$a0, $sp, 744
	addi.d	$a1, $sp, 744
	ori	$a2, $zero, 3
	jirl	$ra, $a3, 0
.Ltmp4:                                 # EH_LABEL
.LBB0_155:                              # %_ZNSt14_Function_baseD2Ev.exit199
	ld.d	$a3, $sp, 792
	beqz	$a3, .LBB0_157
# %bb.156:                              # %if.then.i202
.Ltmp6:                                 # EH_LABEL
	addi.d	$a0, $sp, 776
	addi.d	$a1, $sp, 776
	ori	$a2, $zero, 3
	jirl	$ra, $a3, 0
.Ltmp7:                                 # EH_LABEL
.LBB0_157:                              # %eh.resume
	move	$a0, $fp
	pcaddu18i	$ra, %call36(_Unwind_Resume)
	jirl	$ra, $ra, 0
.LBB0_158:                              # %terminate.lpad.i204
.Ltmp8:                                 # EH_LABEL
	pcaddu18i	$ra, %call36(__clang_call_terminate)
	jirl	$ra, $ra, 0
.LBB0_159:                              # %terminate.lpad.i198
.Ltmp5:                                 # EH_LABEL
	pcaddu18i	$ra, %call36(__clang_call_terminate)
	jirl	$ra, $ra, 0
.Lfunc_end0:
	.size	main, .Lfunc_end0-main
	.cfi_endproc
	.section	.gcc_except_table,"a",@progbits
	.p2align	2, 0x0
GCC_except_table0:
.Lexception0:
	.byte	255                             # @LPStart Encoding = omit
	.byte	155                             # @TType Encoding = indirect pcrel sdata4
	.uleb128 .Lttbase0-.Lttbaseref0
.Lttbaseref0:
	.byte	1                               # Call site Encoding = uleb128
	.uleb128 .Lcst_end0-.Lcst_begin0
.Lcst_begin0:
	.uleb128 .Lfunc_begin0-.Lfunc_begin0    # >> Call Site 1 <<
	.uleb128 .Ltmp0-.Lfunc_begin0           #   Call between .Lfunc_begin0 and .Ltmp0
	.byte	0                               #     has no landing pad
	.byte	0                               #   On action: cleanup
	.uleb128 .Ltmp0-.Lfunc_begin0           # >> Call Site 2 <<
	.uleb128 .Ltmp1-.Ltmp0                  #   Call between .Ltmp0 and .Ltmp1
	.uleb128 .Ltmp2-.Lfunc_begin0           #     jumps to .Ltmp2
	.byte	0                               #   On action: cleanup
	.uleb128 .Ltmp9-.Lfunc_begin0           # >> Call Site 3 <<
	.uleb128 .Ltmp10-.Ltmp9                 #   Call between .Ltmp9 and .Ltmp10
	.uleb128 .Ltmp11-.Lfunc_begin0          #     jumps to .Ltmp11
	.byte	1                               #   On action: 1
	.uleb128 .Ltmp12-.Lfunc_begin0          # >> Call Site 4 <<
	.uleb128 .Ltmp13-.Ltmp12                #   Call between .Ltmp12 and .Ltmp13
	.uleb128 .Ltmp14-.Lfunc_begin0          #     jumps to .Ltmp14
	.byte	1                               #   On action: 1
	.uleb128 .Ltmp15-.Lfunc_begin0          # >> Call Site 5 <<
	.uleb128 .Ltmp16-.Ltmp15                #   Call between .Ltmp15 and .Ltmp16
	.uleb128 .Ltmp17-.Lfunc_begin0          #     jumps to .Ltmp17
	.byte	0                               #   On action: cleanup
	.uleb128 .Ltmp24-.Lfunc_begin0          # >> Call Site 6 <<
	.uleb128 .Ltmp25-.Ltmp24                #   Call between .Ltmp24 and .Ltmp25
	.uleb128 .Ltmp26-.Lfunc_begin0          #     jumps to .Ltmp26
	.byte	1                               #   On action: 1
	.uleb128 .Ltmp27-.Lfunc_begin0          # >> Call Site 7 <<
	.uleb128 .Ltmp28-.Ltmp27                #   Call between .Ltmp27 and .Ltmp28
	.uleb128 .Ltmp29-.Lfunc_begin0          #     jumps to .Ltmp29
	.byte	1                               #   On action: 1
	.uleb128 .Ltmp30-.Lfunc_begin0          # >> Call Site 8 <<
	.uleb128 .Ltmp31-.Ltmp30                #   Call between .Ltmp30 and .Ltmp31
	.uleb128 .Ltmp32-.Lfunc_begin0          #     jumps to .Ltmp32
	.byte	0                               #   On action: cleanup
	.uleb128 .Ltmp39-.Lfunc_begin0          # >> Call Site 9 <<
	.uleb128 .Ltmp40-.Ltmp39                #   Call between .Ltmp39 and .Ltmp40
	.uleb128 .Ltmp41-.Lfunc_begin0          #     jumps to .Ltmp41
	.byte	1                               #   On action: 1
	.uleb128 .Ltmp42-.Lfunc_begin0          # >> Call Site 10 <<
	.uleb128 .Ltmp43-.Ltmp42                #   Call between .Ltmp42 and .Ltmp43
	.uleb128 .Ltmp44-.Lfunc_begin0          #     jumps to .Ltmp44
	.byte	1                               #   On action: 1
	.uleb128 .Ltmp45-.Lfunc_begin0          # >> Call Site 11 <<
	.uleb128 .Ltmp46-.Ltmp45                #   Call between .Ltmp45 and .Ltmp46
	.uleb128 .Ltmp47-.Lfunc_begin0          #     jumps to .Ltmp47
	.byte	0                               #   On action: cleanup
	.uleb128 .Ltmp54-.Lfunc_begin0          # >> Call Site 12 <<
	.uleb128 .Ltmp55-.Ltmp54                #   Call between .Ltmp54 and .Ltmp55
	.uleb128 .Ltmp56-.Lfunc_begin0          #     jumps to .Ltmp56
	.byte	1                               #   On action: 1
	.uleb128 .Ltmp57-.Lfunc_begin0          # >> Call Site 13 <<
	.uleb128 .Ltmp58-.Ltmp57                #   Call between .Ltmp57 and .Ltmp58
	.uleb128 .Ltmp59-.Lfunc_begin0          #     jumps to .Ltmp59
	.byte	1                               #   On action: 1
	.uleb128 .Ltmp60-.Lfunc_begin0          # >> Call Site 14 <<
	.uleb128 .Ltmp61-.Ltmp60                #   Call between .Ltmp60 and .Ltmp61
	.uleb128 .Ltmp62-.Lfunc_begin0          #     jumps to .Ltmp62
	.byte	0                               #   On action: cleanup
	.uleb128 .Ltmp69-.Lfunc_begin0          # >> Call Site 15 <<
	.uleb128 .Ltmp70-.Ltmp69                #   Call between .Ltmp69 and .Ltmp70
	.uleb128 .Ltmp71-.Lfunc_begin0          #     jumps to .Ltmp71
	.byte	1                               #   On action: 1
	.uleb128 .Ltmp72-.Lfunc_begin0          # >> Call Site 16 <<
	.uleb128 .Ltmp73-.Ltmp72                #   Call between .Ltmp72 and .Ltmp73
	.uleb128 .Ltmp74-.Lfunc_begin0          #     jumps to .Ltmp74
	.byte	1                               #   On action: 1
	.uleb128 .Ltmp75-.Lfunc_begin0          # >> Call Site 17 <<
	.uleb128 .Ltmp76-.Ltmp75                #   Call between .Ltmp75 and .Ltmp76
	.uleb128 .Ltmp77-.Lfunc_begin0          #     jumps to .Ltmp77
	.byte	0                               #   On action: cleanup
	.uleb128 .Ltmp84-.Lfunc_begin0          # >> Call Site 18 <<
	.uleb128 .Ltmp85-.Ltmp84                #   Call between .Ltmp84 and .Ltmp85
	.uleb128 .Ltmp86-.Lfunc_begin0          #     jumps to .Ltmp86
	.byte	1                               #   On action: 1
	.uleb128 .Ltmp87-.Lfunc_begin0          # >> Call Site 19 <<
	.uleb128 .Ltmp88-.Ltmp87                #   Call between .Ltmp87 and .Ltmp88
	.uleb128 .Ltmp89-.Lfunc_begin0          #     jumps to .Ltmp89
	.byte	1                               #   On action: 1
	.uleb128 .Ltmp90-.Lfunc_begin0          # >> Call Site 20 <<
	.uleb128 .Ltmp91-.Ltmp90                #   Call between .Ltmp90 and .Ltmp91
	.uleb128 .Ltmp92-.Lfunc_begin0          #     jumps to .Ltmp92
	.byte	0                               #   On action: cleanup
	.uleb128 .Ltmp99-.Lfunc_begin0          # >> Call Site 21 <<
	.uleb128 .Ltmp100-.Ltmp99               #   Call between .Ltmp99 and .Ltmp100
	.uleb128 .Ltmp101-.Lfunc_begin0         #     jumps to .Ltmp101
	.byte	1                               #   On action: 1
	.uleb128 .Ltmp102-.Lfunc_begin0         # >> Call Site 22 <<
	.uleb128 .Ltmp103-.Ltmp102              #   Call between .Ltmp102 and .Ltmp103
	.uleb128 .Ltmp104-.Lfunc_begin0         #     jumps to .Ltmp104
	.byte	1                               #   On action: 1
	.uleb128 .Ltmp105-.Lfunc_begin0         # >> Call Site 23 <<
	.uleb128 .Ltmp106-.Ltmp105              #   Call between .Ltmp105 and .Ltmp106
	.uleb128 .Ltmp107-.Lfunc_begin0         #     jumps to .Ltmp107
	.byte	0                               #   On action: cleanup
	.uleb128 .Ltmp114-.Lfunc_begin0         # >> Call Site 24 <<
	.uleb128 .Ltmp115-.Ltmp114              #   Call between .Ltmp114 and .Ltmp115
	.uleb128 .Ltmp116-.Lfunc_begin0         #     jumps to .Ltmp116
	.byte	1                               #   On action: 1
	.uleb128 .Ltmp117-.Lfunc_begin0         # >> Call Site 25 <<
	.uleb128 .Ltmp118-.Ltmp117              #   Call between .Ltmp117 and .Ltmp118
	.uleb128 .Ltmp119-.Lfunc_begin0         #     jumps to .Ltmp119
	.byte	1                               #   On action: 1
	.uleb128 .Ltmp120-.Lfunc_begin0         # >> Call Site 26 <<
	.uleb128 .Ltmp121-.Ltmp120              #   Call between .Ltmp120 and .Ltmp121
	.uleb128 .Ltmp122-.Lfunc_begin0         #     jumps to .Ltmp122
	.byte	0                               #   On action: cleanup
	.uleb128 .Ltmp129-.Lfunc_begin0         # >> Call Site 27 <<
	.uleb128 .Ltmp130-.Ltmp129              #   Call between .Ltmp129 and .Ltmp130
	.uleb128 .Ltmp131-.Lfunc_begin0         #     jumps to .Ltmp131
	.byte	1                               #   On action: 1
	.uleb128 .Ltmp132-.Lfunc_begin0         # >> Call Site 28 <<
	.uleb128 .Ltmp133-.Ltmp132              #   Call between .Ltmp132 and .Ltmp133
	.uleb128 .Ltmp134-.Lfunc_begin0         #     jumps to .Ltmp134
	.byte	1                               #   On action: 1
	.uleb128 .Ltmp135-.Lfunc_begin0         # >> Call Site 29 <<
	.uleb128 .Ltmp136-.Ltmp135              #   Call between .Ltmp135 and .Ltmp136
	.uleb128 .Ltmp137-.Lfunc_begin0         #     jumps to .Ltmp137
	.byte	0                               #   On action: cleanup
	.uleb128 .Ltmp144-.Lfunc_begin0         # >> Call Site 30 <<
	.uleb128 .Ltmp145-.Ltmp144              #   Call between .Ltmp144 and .Ltmp145
	.uleb128 .Ltmp146-.Lfunc_begin0         #     jumps to .Ltmp146
	.byte	1                               #   On action: 1
	.uleb128 .Ltmp147-.Lfunc_begin0         # >> Call Site 31 <<
	.uleb128 .Ltmp148-.Ltmp147              #   Call between .Ltmp147 and .Ltmp148
	.uleb128 .Ltmp149-.Lfunc_begin0         #     jumps to .Ltmp149
	.byte	1                               #   On action: 1
	.uleb128 .Ltmp150-.Lfunc_begin0         # >> Call Site 32 <<
	.uleb128 .Ltmp151-.Ltmp150              #   Call between .Ltmp150 and .Ltmp151
	.uleb128 .Ltmp152-.Lfunc_begin0         #     jumps to .Ltmp152
	.byte	0                               #   On action: cleanup
	.uleb128 .Ltmp159-.Lfunc_begin0         # >> Call Site 33 <<
	.uleb128 .Ltmp160-.Ltmp159              #   Call between .Ltmp159 and .Ltmp160
	.uleb128 .Ltmp161-.Lfunc_begin0         #     jumps to .Ltmp161
	.byte	1                               #   On action: 1
	.uleb128 .Ltmp162-.Lfunc_begin0         # >> Call Site 34 <<
	.uleb128 .Ltmp163-.Ltmp162              #   Call between .Ltmp162 and .Ltmp163
	.uleb128 .Ltmp164-.Lfunc_begin0         #     jumps to .Ltmp164
	.byte	1                               #   On action: 1
	.uleb128 .Ltmp165-.Lfunc_begin0         # >> Call Site 35 <<
	.uleb128 .Ltmp166-.Ltmp165              #   Call between .Ltmp165 and .Ltmp166
	.uleb128 .Ltmp167-.Lfunc_begin0         #     jumps to .Ltmp167
	.byte	0                               #   On action: cleanup
	.uleb128 .Ltmp174-.Lfunc_begin0         # >> Call Site 36 <<
	.uleb128 .Ltmp175-.Ltmp174              #   Call between .Ltmp174 and .Ltmp175
	.uleb128 .Ltmp176-.Lfunc_begin0         #     jumps to .Ltmp176
	.byte	1                               #   On action: 1
	.uleb128 .Ltmp177-.Lfunc_begin0         # >> Call Site 37 <<
	.uleb128 .Ltmp178-.Ltmp177              #   Call between .Ltmp177 and .Ltmp178
	.uleb128 .Ltmp179-.Lfunc_begin0         #     jumps to .Ltmp179
	.byte	1                               #   On action: 1
	.uleb128 .Ltmp178-.Lfunc_begin0         # >> Call Site 38 <<
	.uleb128 .Ltmp168-.Ltmp178              #   Call between .Ltmp178 and .Ltmp168
	.byte	0                               #     has no landing pad
	.byte	0                               #   On action: cleanup
	.uleb128 .Ltmp168-.Lfunc_begin0         # >> Call Site 39 <<
	.uleb128 .Ltmp169-.Ltmp168              #   Call between .Ltmp168 and .Ltmp169
	.uleb128 .Ltmp170-.Lfunc_begin0         #     jumps to .Ltmp170
	.byte	1                               #   On action: 1
	.uleb128 .Ltmp171-.Lfunc_begin0         # >> Call Site 40 <<
	.uleb128 .Ltmp172-.Ltmp171              #   Call between .Ltmp171 and .Ltmp172
	.uleb128 .Ltmp173-.Lfunc_begin0         #     jumps to .Ltmp173
	.byte	1                               #   On action: 1
	.uleb128 .Ltmp172-.Lfunc_begin0         # >> Call Site 41 <<
	.uleb128 .Ltmp153-.Ltmp172              #   Call between .Ltmp172 and .Ltmp153
	.byte	0                               #     has no landing pad
	.byte	0                               #   On action: cleanup
	.uleb128 .Ltmp153-.Lfunc_begin0         # >> Call Site 42 <<
	.uleb128 .Ltmp154-.Ltmp153              #   Call between .Ltmp153 and .Ltmp154
	.uleb128 .Ltmp155-.Lfunc_begin0         #     jumps to .Ltmp155
	.byte	1                               #   On action: 1
	.uleb128 .Ltmp156-.Lfunc_begin0         # >> Call Site 43 <<
	.uleb128 .Ltmp157-.Ltmp156              #   Call between .Ltmp156 and .Ltmp157
	.uleb128 .Ltmp158-.Lfunc_begin0         #     jumps to .Ltmp158
	.byte	1                               #   On action: 1
	.uleb128 .Ltmp157-.Lfunc_begin0         # >> Call Site 44 <<
	.uleb128 .Ltmp138-.Ltmp157              #   Call between .Ltmp157 and .Ltmp138
	.byte	0                               #     has no landing pad
	.byte	0                               #   On action: cleanup
	.uleb128 .Ltmp138-.Lfunc_begin0         # >> Call Site 45 <<
	.uleb128 .Ltmp139-.Ltmp138              #   Call between .Ltmp138 and .Ltmp139
	.uleb128 .Ltmp140-.Lfunc_begin0         #     jumps to .Ltmp140
	.byte	1                               #   On action: 1
	.uleb128 .Ltmp141-.Lfunc_begin0         # >> Call Site 46 <<
	.uleb128 .Ltmp142-.Ltmp141              #   Call between .Ltmp141 and .Ltmp142
	.uleb128 .Ltmp143-.Lfunc_begin0         #     jumps to .Ltmp143
	.byte	1                               #   On action: 1
	.uleb128 .Ltmp142-.Lfunc_begin0         # >> Call Site 47 <<
	.uleb128 .Ltmp123-.Ltmp142              #   Call between .Ltmp142 and .Ltmp123
	.byte	0                               #     has no landing pad
	.byte	0                               #   On action: cleanup
	.uleb128 .Ltmp123-.Lfunc_begin0         # >> Call Site 48 <<
	.uleb128 .Ltmp124-.Ltmp123              #   Call between .Ltmp123 and .Ltmp124
	.uleb128 .Ltmp125-.Lfunc_begin0         #     jumps to .Ltmp125
	.byte	1                               #   On action: 1
	.uleb128 .Ltmp126-.Lfunc_begin0         # >> Call Site 49 <<
	.uleb128 .Ltmp127-.Ltmp126              #   Call between .Ltmp126 and .Ltmp127
	.uleb128 .Ltmp128-.Lfunc_begin0         #     jumps to .Ltmp128
	.byte	1                               #   On action: 1
	.uleb128 .Ltmp127-.Lfunc_begin0         # >> Call Site 50 <<
	.uleb128 .Ltmp108-.Ltmp127              #   Call between .Ltmp127 and .Ltmp108
	.byte	0                               #     has no landing pad
	.byte	0                               #   On action: cleanup
	.uleb128 .Ltmp108-.Lfunc_begin0         # >> Call Site 51 <<
	.uleb128 .Ltmp109-.Ltmp108              #   Call between .Ltmp108 and .Ltmp109
	.uleb128 .Ltmp110-.Lfunc_begin0         #     jumps to .Ltmp110
	.byte	1                               #   On action: 1
	.uleb128 .Ltmp111-.Lfunc_begin0         # >> Call Site 52 <<
	.uleb128 .Ltmp112-.Ltmp111              #   Call between .Ltmp111 and .Ltmp112
	.uleb128 .Ltmp113-.Lfunc_begin0         #     jumps to .Ltmp113
	.byte	1                               #   On action: 1
	.uleb128 .Ltmp112-.Lfunc_begin0         # >> Call Site 53 <<
	.uleb128 .Ltmp93-.Ltmp112               #   Call between .Ltmp112 and .Ltmp93
	.byte	0                               #     has no landing pad
	.byte	0                               #   On action: cleanup
	.uleb128 .Ltmp93-.Lfunc_begin0          # >> Call Site 54 <<
	.uleb128 .Ltmp94-.Ltmp93                #   Call between .Ltmp93 and .Ltmp94
	.uleb128 .Ltmp95-.Lfunc_begin0          #     jumps to .Ltmp95
	.byte	1                               #   On action: 1
	.uleb128 .Ltmp96-.Lfunc_begin0          # >> Call Site 55 <<
	.uleb128 .Ltmp97-.Ltmp96                #   Call between .Ltmp96 and .Ltmp97
	.uleb128 .Ltmp98-.Lfunc_begin0          #     jumps to .Ltmp98
	.byte	1                               #   On action: 1
	.uleb128 .Ltmp97-.Lfunc_begin0          # >> Call Site 56 <<
	.uleb128 .Ltmp78-.Ltmp97                #   Call between .Ltmp97 and .Ltmp78
	.byte	0                               #     has no landing pad
	.byte	0                               #   On action: cleanup
	.uleb128 .Ltmp78-.Lfunc_begin0          # >> Call Site 57 <<
	.uleb128 .Ltmp79-.Ltmp78                #   Call between .Ltmp78 and .Ltmp79
	.uleb128 .Ltmp80-.Lfunc_begin0          #     jumps to .Ltmp80
	.byte	1                               #   On action: 1
	.uleb128 .Ltmp81-.Lfunc_begin0          # >> Call Site 58 <<
	.uleb128 .Ltmp82-.Ltmp81                #   Call between .Ltmp81 and .Ltmp82
	.uleb128 .Ltmp83-.Lfunc_begin0          #     jumps to .Ltmp83
	.byte	1                               #   On action: 1
	.uleb128 .Ltmp82-.Lfunc_begin0          # >> Call Site 59 <<
	.uleb128 .Ltmp63-.Ltmp82                #   Call between .Ltmp82 and .Ltmp63
	.byte	0                               #     has no landing pad
	.byte	0                               #   On action: cleanup
	.uleb128 .Ltmp63-.Lfunc_begin0          # >> Call Site 60 <<
	.uleb128 .Ltmp64-.Ltmp63                #   Call between .Ltmp63 and .Ltmp64
	.uleb128 .Ltmp65-.Lfunc_begin0          #     jumps to .Ltmp65
	.byte	1                               #   On action: 1
	.uleb128 .Ltmp66-.Lfunc_begin0          # >> Call Site 61 <<
	.uleb128 .Ltmp67-.Ltmp66                #   Call between .Ltmp66 and .Ltmp67
	.uleb128 .Ltmp68-.Lfunc_begin0          #     jumps to .Ltmp68
	.byte	1                               #   On action: 1
	.uleb128 .Ltmp67-.Lfunc_begin0          # >> Call Site 62 <<
	.uleb128 .Ltmp48-.Ltmp67                #   Call between .Ltmp67 and .Ltmp48
	.byte	0                               #     has no landing pad
	.byte	0                               #   On action: cleanup
	.uleb128 .Ltmp48-.Lfunc_begin0          # >> Call Site 63 <<
	.uleb128 .Ltmp49-.Ltmp48                #   Call between .Ltmp48 and .Ltmp49
	.uleb128 .Ltmp50-.Lfunc_begin0          #     jumps to .Ltmp50
	.byte	1                               #   On action: 1
	.uleb128 .Ltmp51-.Lfunc_begin0          # >> Call Site 64 <<
	.uleb128 .Ltmp52-.Ltmp51                #   Call between .Ltmp51 and .Ltmp52
	.uleb128 .Ltmp53-.Lfunc_begin0          #     jumps to .Ltmp53
	.byte	1                               #   On action: 1
	.uleb128 .Ltmp52-.Lfunc_begin0          # >> Call Site 65 <<
	.uleb128 .Ltmp33-.Ltmp52                #   Call between .Ltmp52 and .Ltmp33
	.byte	0                               #     has no landing pad
	.byte	0                               #   On action: cleanup
	.uleb128 .Ltmp33-.Lfunc_begin0          # >> Call Site 66 <<
	.uleb128 .Ltmp34-.Ltmp33                #   Call between .Ltmp33 and .Ltmp34
	.uleb128 .Ltmp35-.Lfunc_begin0          #     jumps to .Ltmp35
	.byte	1                               #   On action: 1
	.uleb128 .Ltmp36-.Lfunc_begin0          # >> Call Site 67 <<
	.uleb128 .Ltmp37-.Ltmp36                #   Call between .Ltmp36 and .Ltmp37
	.uleb128 .Ltmp38-.Lfunc_begin0          #     jumps to .Ltmp38
	.byte	1                               #   On action: 1
	.uleb128 .Ltmp37-.Lfunc_begin0          # >> Call Site 68 <<
	.uleb128 .Ltmp18-.Ltmp37                #   Call between .Ltmp37 and .Ltmp18
	.byte	0                               #     has no landing pad
	.byte	0                               #   On action: cleanup
	.uleb128 .Ltmp18-.Lfunc_begin0          # >> Call Site 69 <<
	.uleb128 .Ltmp19-.Ltmp18                #   Call between .Ltmp18 and .Ltmp19
	.uleb128 .Ltmp20-.Lfunc_begin0          #     jumps to .Ltmp20
	.byte	1                               #   On action: 1
	.uleb128 .Ltmp21-.Lfunc_begin0          # >> Call Site 70 <<
	.uleb128 .Ltmp22-.Ltmp21                #   Call between .Ltmp21 and .Ltmp22
	.uleb128 .Ltmp23-.Lfunc_begin0          #     jumps to .Ltmp23
	.byte	1                               #   On action: 1
	.uleb128 .Ltmp22-.Lfunc_begin0          # >> Call Site 71 <<
	.uleb128 .Ltmp3-.Ltmp22                 #   Call between .Ltmp22 and .Ltmp3
	.byte	0                               #     has no landing pad
	.byte	0                               #   On action: cleanup
	.uleb128 .Ltmp3-.Lfunc_begin0           # >> Call Site 72 <<
	.uleb128 .Ltmp4-.Ltmp3                  #   Call between .Ltmp3 and .Ltmp4
	.uleb128 .Ltmp5-.Lfunc_begin0           #     jumps to .Ltmp5
	.byte	1                               #   On action: 1
	.uleb128 .Ltmp6-.Lfunc_begin0           # >> Call Site 73 <<
	.uleb128 .Ltmp7-.Ltmp6                  #   Call between .Ltmp6 and .Ltmp7
	.uleb128 .Ltmp8-.Lfunc_begin0           #     jumps to .Ltmp8
	.byte	1                               #   On action: 1
	.uleb128 .Ltmp7-.Lfunc_begin0           # >> Call Site 74 <<
	.uleb128 .Lfunc_end0-.Ltmp7             #   Call between .Ltmp7 and .Lfunc_end0
	.byte	0                               #     has no landing pad
	.byte	0                               #   On action: cleanup
.Lcst_end0:
	.byte	1                               # >> Action Record 1 <<
                                        #   Catch TypeInfo 1
	.byte	0                               #   No further actions
	.p2align	2, 0x0
                                        # >> Catch TypeInfos <<
	.word	0                               # TypeInfo 1
.Lttbase0:
	.p2align	2, 0x0
                                        # -- End function
	.text
	.p2align	5                               # -- Begin function _ZL19checkVectorFunctionIiiEvSt8functionIFT_PT0_S3_jEES5_PKc
	.type	_ZL19checkVectorFunctionIiiEvSt8functionIFT_PT0_S3_jEES5_PKc,@function
_ZL19checkVectorFunctionIiiEvSt8functionIFT_PT0_S3_jEES5_PKc: # @_ZL19checkVectorFunctionIiiEvSt8functionIFT_PT0_S3_jEES5_PKc
.Lfunc_begin1:
	.cfi_startproc
	.cfi_personality 155, DW.ref.__gxx_personality_v0
	.cfi_lsda 27, .Lexception1
# %bb.0:                                # %entry
	addi.d	$sp, $sp, -128
	.cfi_def_cfa_offset 128
	st.d	$ra, $sp, 120                   # 8-byte Folded Spill
	st.d	$fp, $sp, 112                   # 8-byte Folded Spill
	st.d	$s0, $sp, 104                   # 8-byte Folded Spill
	st.d	$s1, $sp, 96                    # 8-byte Folded Spill
	st.d	$s2, $sp, 88                    # 8-byte Folded Spill
	st.d	$s3, $sp, 80                    # 8-byte Folded Spill
	st.d	$s4, $sp, 72                    # 8-byte Folded Spill
	st.d	$s5, $sp, 64                    # 8-byte Folded Spill
	st.d	$s6, $sp, 56                    # 8-byte Folded Spill
	.cfi_offset 1, -8
	.cfi_offset 22, -16
	.cfi_offset 23, -24
	.cfi_offset 24, -32
	.cfi_offset 25, -40
	.cfi_offset 26, -48
	.cfi_offset 27, -56
	.cfi_offset 28, -64
	.cfi_offset 29, -72
	move	$fp, $a2
	move	$s1, $a1
	move	$s2, $a0
	pcalau12i	$a0, %got_pc_hi20(_ZSt4cout)
	ld.d	$s0, $a0, %got_pc_lo12(_ZSt4cout)
	pcalau12i	$a0, %pc_hi20(.L.str.12)
	addi.d	$a1, $a0, %pc_lo12(.L.str.12)
	ori	$a2, $zero, 9
	move	$a0, $s0
	pcaddu18i	$ra, %call36(_ZSt16__ostream_insertIcSt11char_traitsIcEERSt13basic_ostreamIT_T0_ES6_PKS3_l)
	jirl	$ra, $ra, 0
	beqz	$fp, .LBB1_2
# %bb.1:                                # %if.else.i
	move	$a0, $fp
	pcaddu18i	$ra, %call36(strlen)
	jirl	$ra, $ra, 0
	move	$a2, $a0
	pcalau12i	$a0, %got_pc_hi20(_ZSt4cout)
	ld.d	$a0, $a0, %got_pc_lo12(_ZSt4cout)
	move	$a1, $fp
	pcaddu18i	$ra, %call36(_ZSt16__ostream_insertIcSt11char_traitsIcEERSt13basic_ostreamIT_T0_ES6_PKS3_l)
	jirl	$ra, $ra, 0
	b	.LBB1_3
.LBB1_2:                                # %if.then.i
	ld.d	$a0, $s0, 0
	ld.d	$a0, $a0, -24
	add.d	$a0, $s0, $a0
	ld.w	$a1, $a0, 32
	ori	$a1, $a1, 1
	pcaddu18i	$ra, %call36(_ZNSt9basic_iosIcSt11char_traitsIcEE5clearESt12_Ios_Iostate)
	jirl	$ra, $ra, 0
.LBB1_3:                                # %_ZStlsISt11char_traitsIcEERSt13basic_ostreamIcT_ES5_PKc.exit
	pcalau12i	$a0, %got_pc_hi20(_ZSt4cout)
	ld.d	$a0, $a0, %got_pc_lo12(_ZSt4cout)
	pcalau12i	$a1, %pc_hi20(.L.str.13)
	addi.d	$a1, $a1, %pc_lo12(.L.str.13)
	ori	$a2, $zero, 1
	pcaddu18i	$ra, %call36(_ZSt16__ostream_insertIcSt11char_traitsIcEERSt13basic_ostreamIT_T0_ES6_PKS3_l)
	jirl	$ra, $ra, 0
	ori	$a0, $zero, 4000
	pcaddu18i	$ra, %call36(_Znam)
	jirl	$ra, $ra, 0
	move	$fp, $a0
.Ltmp180:                               # EH_LABEL
	ori	$a0, $zero, 4000
	pcaddu18i	$ra, %call36(_Znam)
	jirl	$ra, $ra, 0
.Ltmp181:                               # EH_LABEL
# %bb.4:                                # %invoke.cont
	move	$s0, $a0
	lu12i.w	$a0, -524288
	lu52i.d	$s5, $a0, 2047
	st.d	$s5, $sp, 48
	lu12i.w	$s4, -1
	ori	$s6, $s4, 96
	pcalau12i	$a0, %pc_hi20(_ZL3rng)
	addi.d	$s3, $a0, %pc_lo12(_ZL3rng)
	.p2align	4, , 16
.LBB1_5:                                # %for.body.i
                                        # =>This Inner Loop Header: Depth=1
.Ltmp183:                               # EH_LABEL
	addi.d	$a0, $sp, 48
	addi.d	$a2, $sp, 48
	move	$a1, $s3
	pcaddu18i	$ra, %call36(_ZNSt24uniform_int_distributionIiEclISt23mersenne_twister_engineImLm32ELm624ELm397ELm31ELm2567483615ELm11ELm4294967295ELm7ELm2636928640ELm15ELm4022730752ELm18ELm1812433253EEEEiRT_RKNS0_10param_typeE)
	jirl	$ra, $ra, 0
.Ltmp184:                               # EH_LABEL
# %bb.6:                                # %call.i.i64.noexc
                                        #   in Loop: Header=BB1_5 Depth=1
	add.d	$a1, $fp, $s6
	addi.d	$s6, $s6, 4
	stptr.w	$a0, $a1, 4000
	bnez	$s6, .LBB1_5
# %bb.7:                                # %invoke.cont7
	st.d	$s5, $sp, 48
	ori	$s5, $s4, 96
	pcalau12i	$a0, %pc_hi20(_ZL3rng)
	addi.d	$s3, $a0, %pc_lo12(_ZL3rng)
	.p2align	4, , 16
.LBB1_8:                                # %for.body.i68
                                        # =>This Inner Loop Header: Depth=1
.Ltmp186:                               # EH_LABEL
	addi.d	$a0, $sp, 48
	addi.d	$a2, $sp, 48
	move	$a1, $s3
	pcaddu18i	$ra, %call36(_ZNSt24uniform_int_distributionIiEclISt23mersenne_twister_engineImLm32ELm624ELm397ELm31ELm2567483615ELm11ELm4294967295ELm7ELm2636928640ELm15ELm4022730752ELm18ELm1812433253EEEEiRT_RKNS0_10param_typeE)
	jirl	$ra, $ra, 0
.Ltmp187:                               # EH_LABEL
# %bb.9:                                # %call.i.i70.noexc
                                        #   in Loop: Header=BB1_8 Depth=1
	add.d	$a1, $s0, $s5
	addi.d	$s5, $s5, 4
	stptr.w	$a0, $a1, 4000
	bnez	$s5, .LBB1_8
# %bb.10:                               # %invoke.cont8
	ld.d	$a0, $s2, 16
	st.d	$fp, $sp, 48
	st.d	$s0, $sp, 40
	ori	$a1, $zero, 1000
	st.w	$a1, $sp, 36
	beqz	$a0, .LBB1_58
# %bb.11:                               # %if.end.i
	ld.d	$a4, $s2, 24
.Ltmp189:                               # EH_LABEL
	addi.d	$a1, $sp, 48
	addi.d	$a2, $sp, 40
	addi.d	$a3, $sp, 36
	move	$a0, $s2
	jirl	$ra, $a4, 0
.Ltmp190:                               # EH_LABEL
# %bb.12:                               # %invoke.cont14
	move	$s3, $a0
	ld.d	$a0, $s1, 16
	st.d	$fp, $sp, 48
	st.d	$s0, $sp, 40
	ori	$a1, $zero, 1000
	st.w	$a1, $sp, 36
	beqz	$a0, .LBB1_60
# %bb.13:                               # %if.end.i83
	ld.d	$a4, $s1, 24
.Ltmp191:                               # EH_LABEL
	addi.d	$a1, $sp, 48
	addi.d	$a2, $sp, 40
	addi.d	$a3, $sp, 36
	move	$a0, $s1
	jirl	$ra, $a4, 0
.Ltmp192:                               # EH_LABEL
# %bb.14:                               # %invoke.cont21
	bne	$s3, $a0, .LBB1_62
# %bb.15:                               # %vector.body.preheader
	ori	$a0, $s4, 96
	lu12i.w	$a1, 524287
	ori	$s5, $a1, 4095
	vreplgr2vr.w	$vr1, $s5
	ori	$a1, $zero, 4000
	ori	$a2, $zero, 4016
	vldi	$vr0, -3200
	.p2align	4, , 16
.LBB1_16:                               # %vector.body
                                        # =>This Inner Loop Header: Depth=1
	add.d	$a3, $fp, $a0
	vstx	$vr1, $a3, $a1
	vstx	$vr1, $a3, $a2
	add.d	$a3, $s0, $a0
	vstx	$vr0, $a3, $a1
	addi.d	$a0, $a0, 32
	vstx	$vr0, $a3, $a2
	bnez	$a0, .LBB1_16
# %bb.17:                               # %for.cond.cleanup
	vst	$vr1, $sp, 16                   # 16-byte Folded Spill
	ld.d	$a0, $s2, 16
	st.d	$fp, $sp, 48
	st.d	$s0, $sp, 40
	ori	$a1, $zero, 1000
	st.w	$a1, $sp, 36
	beqz	$a0, .LBB1_63
# %bb.18:                               # %if.end.i94
	ld.d	$a4, $s2, 24
.Ltmp195:                               # EH_LABEL
	addi.d	$a1, $sp, 48
	addi.d	$a2, $sp, 40
	addi.d	$a3, $sp, 36
	move	$a0, $s2
	jirl	$ra, $a4, 0
.Ltmp196:                               # EH_LABEL
# %bb.19:                               # %invoke.cont42
	move	$s3, $a0
	ld.d	$a0, $s1, 16
	st.d	$fp, $sp, 48
	st.d	$s0, $sp, 40
	ori	$a1, $zero, 1000
	st.w	$a1, $sp, 36
	beqz	$a0, .LBB1_65
# %bb.20:                               # %if.end.i108
	ld.d	$a4, $s1, 24
.Ltmp197:                               # EH_LABEL
	addi.d	$a1, $sp, 48
	addi.d	$a2, $sp, 40
	addi.d	$a3, $sp, 36
	move	$a0, $s1
	jirl	$ra, $a4, 0
.Ltmp198:                               # EH_LABEL
# %bb.21:                               # %invoke.cont50
	vld	$vr1, $sp, 16                   # 16-byte Folded Reload
	bne	$s3, $a0, .LBB1_67
# %bb.22:                               # %vector.body338.preheader
	ori	$a0, $s4, 96
	vldi	$vr0, -3200
	ori	$a1, $zero, 4000
	ori	$a2, $zero, 4016
	.p2align	4, , 16
.LBB1_23:                               # %vector.body338
                                        # =>This Inner Loop Header: Depth=1
	add.d	$a3, $fp, $a0
	vstx	$vr0, $a3, $a1
	vstx	$vr0, $a3, $a2
	add.d	$a3, $s0, $a0
	vstx	$vr1, $a3, $a1
	addi.d	$a0, $a0, 32
	vstx	$vr1, $a3, $a2
	bnez	$a0, .LBB1_23
# %bb.24:                               # %for.cond.cleanup62
	ld.d	$a0, $s2, 16
	st.d	$fp, $sp, 48
	st.d	$s0, $sp, 40
	ori	$a1, $zero, 1000
	st.w	$a1, $sp, 36
	beqz	$a0, .LBB1_68
# %bb.25:                               # %if.end.i121
	ld.d	$a4, $s2, 24
.Ltmp201:                               # EH_LABEL
	addi.d	$a1, $sp, 48
	addi.d	$a2, $sp, 40
	addi.d	$a3, $sp, 36
	move	$a0, $s2
	jirl	$ra, $a4, 0
.Ltmp202:                               # EH_LABEL
# %bb.26:                               # %invoke.cont83
	move	$s3, $a0
	ld.d	$a0, $s1, 16
	st.d	$fp, $sp, 48
	st.d	$s0, $sp, 40
	ori	$a1, $zero, 1000
	st.w	$a1, $sp, 36
	beqz	$a0, .LBB1_70
# %bb.27:                               # %if.end.i136
	ld.d	$a4, $s1, 24
.Ltmp203:                               # EH_LABEL
	addi.d	$a1, $sp, 48
	addi.d	$a2, $sp, 40
	addi.d	$a3, $sp, 36
	move	$a0, $s1
	jirl	$ra, $a4, 0
.Ltmp204:                               # EH_LABEL
# %bb.28:                               # %invoke.cont91
	bne	$s3, $a0, .LBB1_72
# %bb.29:                               # %vector.body343.preheader
	ori	$a0, $s4, 96
	vldi	$vr0, -3200
	ori	$a1, $zero, 4000
	ori	$a2, $zero, 4016
	.p2align	4, , 16
.LBB1_30:                               # %vector.body343
                                        # =>This Inner Loop Header: Depth=1
	add.d	$a3, $s0, $a0
	vstx	$vr0, $a3, $a1
	vstx	$vr0, $a3, $a2
	add.d	$a3, $fp, $a0
	vstx	$vr0, $a3, $a1
	addi.d	$a0, $a0, 32
	vstx	$vr0, $a3, $a2
	bnez	$a0, .LBB1_30
# %bb.31:                               # %for.cond.cleanup103
	stptr.w	$s5, $fp, 3992
	ld.d	$a0, $s2, 16
	st.d	$fp, $sp, 48
	st.d	$s0, $sp, 40
	ori	$a1, $zero, 1000
	st.w	$a1, $sp, 36
	beqz	$a0, .LBB1_73
# %bb.32:                               # %if.end.i150
	ld.d	$a4, $s2, 24
.Ltmp207:                               # EH_LABEL
	addi.d	$a1, $sp, 48
	addi.d	$a2, $sp, 40
	addi.d	$a3, $sp, 36
	move	$a0, $s2
	jirl	$ra, $a4, 0
.Ltmp208:                               # EH_LABEL
# %bb.33:                               # %invoke.cont126
	move	$s3, $a0
	ld.d	$a0, $s1, 16
	st.d	$fp, $sp, 48
	st.d	$s0, $sp, 40
	ori	$a1, $zero, 1000
	st.w	$a1, $sp, 36
	beqz	$a0, .LBB1_75
# %bb.34:                               # %if.end.i165
	ld.d	$a4, $s1, 24
.Ltmp209:                               # EH_LABEL
	addi.d	$a1, $sp, 48
	addi.d	$a2, $sp, 40
	addi.d	$a3, $sp, 36
	move	$a0, $s1
	jirl	$ra, $a4, 0
.Ltmp210:                               # EH_LABEL
# %bb.35:                               # %invoke.cont134
	bne	$s3, $a0, .LBB1_77
# %bb.36:                               # %vector.body348.preheader
	ori	$a0, $s4, 96
	vldi	$vr0, -3200
	ori	$a1, $zero, 4000
	ori	$a2, $zero, 4016
	.p2align	4, , 16
.LBB1_37:                               # %vector.body348
                                        # =>This Inner Loop Header: Depth=1
	add.d	$a3, $s0, $a0
	vstx	$vr0, $a3, $a1
	vstx	$vr0, $a3, $a2
	add.d	$a3, $fp, $a0
	vstx	$vr0, $a3, $a1
	addi.d	$a0, $a0, 32
	vstx	$vr0, $a3, $a2
	bnez	$a0, .LBB1_37
# %bb.38:                               # %for.cond.cleanup146
	st.w	$s5, $fp, 0
	ld.d	$a0, $s2, 16
	st.d	$fp, $sp, 48
	st.d	$s0, $sp, 40
	ori	$a1, $zero, 1000
	st.w	$a1, $sp, 36
	beqz	$a0, .LBB1_78
# %bb.39:                               # %if.end.i179
	ld.d	$a4, $s2, 24
.Ltmp213:                               # EH_LABEL
	addi.d	$a1, $sp, 48
	addi.d	$a2, $sp, 40
	addi.d	$a3, $sp, 36
	move	$a0, $s2
	jirl	$ra, $a4, 0
.Ltmp214:                               # EH_LABEL
# %bb.40:                               # %invoke.cont169
	move	$s3, $a0
	ld.d	$a0, $s1, 16
	st.d	$fp, $sp, 48
	st.d	$s0, $sp, 40
	ori	$a1, $zero, 1000
	st.w	$a1, $sp, 36
	beqz	$a0, .LBB1_80
# %bb.41:                               # %if.end.i194
	ld.d	$a4, $s1, 24
.Ltmp215:                               # EH_LABEL
	addi.d	$a1, $sp, 48
	addi.d	$a2, $sp, 40
	addi.d	$a3, $sp, 36
	move	$a0, $s1
	jirl	$ra, $a4, 0
.Ltmp216:                               # EH_LABEL
# %bb.42:                               # %invoke.cont177
	bne	$s3, $a0, .LBB1_82
# %bb.43:                               # %vector.body353.preheader
	ori	$a0, $s4, 96
	vldi	$vr0, -3200
	ori	$a1, $zero, 4000
	ori	$a2, $zero, 4016
	.p2align	4, , 16
.LBB1_44:                               # %vector.body353
                                        # =>This Inner Loop Header: Depth=1
	add.d	$a3, $s0, $a0
	vstx	$vr0, $a3, $a1
	vstx	$vr0, $a3, $a2
	add.d	$a3, $fp, $a0
	vstx	$vr0, $a3, $a1
	addi.d	$a0, $a0, 32
	vstx	$vr0, $a3, $a2
	bnez	$a0, .LBB1_44
# %bb.45:                               # %for.cond.cleanup189
	stptr.w	$s5, $fp, 3996
	ld.d	$a0, $s2, 16
	st.d	$fp, $sp, 48
	st.d	$s0, $sp, 40
	ori	$a1, $zero, 1000
	st.w	$a1, $sp, 36
	beqz	$a0, .LBB1_83
# %bb.46:                               # %if.end.i208
	ld.d	$a4, $s2, 24
.Ltmp219:                               # EH_LABEL
	addi.d	$a1, $sp, 48
	addi.d	$a2, $sp, 40
	addi.d	$a3, $sp, 36
	move	$a0, $s2
	jirl	$ra, $a4, 0
.Ltmp220:                               # EH_LABEL
# %bb.47:                               # %invoke.cont213
	move	$s3, $a0
	ld.d	$a0, $s1, 16
	st.d	$fp, $sp, 48
	st.d	$s0, $sp, 40
	ori	$a1, $zero, 1000
	st.w	$a1, $sp, 36
	beqz	$a0, .LBB1_85
# %bb.48:                               # %if.end.i223
	ld.d	$a4, $s1, 24
.Ltmp221:                               # EH_LABEL
	addi.d	$a1, $sp, 48
	addi.d	$a2, $sp, 40
	addi.d	$a3, $sp, 36
	move	$a0, $s1
	jirl	$ra, $a4, 0
.Ltmp222:                               # EH_LABEL
# %bb.49:                               # %invoke.cont221
	bne	$s3, $a0, .LBB1_87
# %bb.50:                               # %vector.body358.preheader
	ori	$a0, $s4, 96
	vldi	$vr0, -3200
	ori	$a1, $zero, 4000
	ori	$a2, $zero, 4016
	.p2align	4, , 16
.LBB1_51:                               # %vector.body358
                                        # =>This Inner Loop Header: Depth=1
	add.d	$a3, $s0, $a0
	vstx	$vr0, $a3, $a1
	vstx	$vr0, $a3, $a2
	add.d	$a3, $fp, $a0
	vstx	$vr0, $a3, $a1
	addi.d	$a0, $a0, 32
	vstx	$vr0, $a3, $a2
	bnez	$a0, .LBB1_51
# %bb.52:                               # %for.cond.cleanup233
	stptr.w	$s5, $fp, 3996
	st.w	$s5, $fp, 0
	ld.d	$a0, $s2, 16
	st.d	$fp, $sp, 48
	st.d	$s0, $sp, 40
	ori	$a1, $zero, 1000
	st.w	$a1, $sp, 36
	beqz	$a0, .LBB1_88
# %bb.53:                               # %if.end.i238
	ld.d	$a4, $s2, 24
.Ltmp225:                               # EH_LABEL
	addi.d	$a1, $sp, 48
	addi.d	$a2, $sp, 40
	addi.d	$a3, $sp, 36
	move	$a0, $s2
	jirl	$ra, $a4, 0
.Ltmp226:                               # EH_LABEL
# %bb.54:                               # %invoke.cont260
	move	$s2, $a0
	ld.d	$a0, $s1, 16
	st.d	$fp, $sp, 48
	st.d	$s0, $sp, 40
	ori	$a1, $zero, 1000
	st.w	$a1, $sp, 36
	beqz	$a0, .LBB1_90
# %bb.55:                               # %if.end.i253
	ld.d	$a4, $s1, 24
.Ltmp227:                               # EH_LABEL
	addi.d	$a1, $sp, 48
	addi.d	$a2, $sp, 40
	addi.d	$a3, $sp, 36
	move	$a0, $s1
	jirl	$ra, $a4, 0
.Ltmp228:                               # EH_LABEL
# %bb.56:                               # %invoke.cont268
	bne	$s2, $a0, .LBB1_92
# %bb.57:                               # %_ZNSt10unique_ptrIA_iSt14default_deleteIS0_EED2Ev.exit263
	move	$a0, $s0
	pcaddu18i	$ra, %call36(_ZdaPv)
	jirl	$ra, $ra, 0
	move	$a0, $fp
	pcaddu18i	$ra, %call36(_ZdaPv)
	jirl	$ra, $ra, 0
	ld.d	$s6, $sp, 56                    # 8-byte Folded Reload
	ld.d	$s5, $sp, 64                    # 8-byte Folded Reload
	ld.d	$s4, $sp, 72                    # 8-byte Folded Reload
	ld.d	$s3, $sp, 80                    # 8-byte Folded Reload
	ld.d	$s2, $sp, 88                    # 8-byte Folded Reload
	ld.d	$s1, $sp, 96                    # 8-byte Folded Reload
	ld.d	$s0, $sp, 104                   # 8-byte Folded Reload
	ld.d	$fp, $sp, 112                   # 8-byte Folded Reload
	ld.d	$ra, $sp, 120                   # 8-byte Folded Reload
	addi.d	$sp, $sp, 128
	ret
.LBB1_58:                               # %if.then.i76
.Ltmp270:                               # EH_LABEL
	pcaddu18i	$ra, %call36(_ZSt25__throw_bad_function_callv)
	jirl	$ra, $ra, 0
.Ltmp271:                               # EH_LABEL
# %bb.59:                               # %.noexc
.LBB1_60:                               # %if.then.i85
.Ltmp267:                               # EH_LABEL
	pcaddu18i	$ra, %call36(_ZSt25__throw_bad_function_callv)
	jirl	$ra, $ra, 0
.Ltmp268:                               # EH_LABEL
# %bb.61:                               # %.noexc86
.LBB1_62:                               # %if.then
.Ltmp193:                               # EH_LABEL
	pcalau12i	$a0, %got_pc_hi20(_ZSt4cerr)
	ld.d	$a0, $a0, %got_pc_lo12(_ZSt4cerr)
	pcalau12i	$a1, %pc_hi20(.L.str.14)
	addi.d	$a1, $a1, %pc_lo12(.L.str.14)
	pcaddu18i	$ra, %call36(_ZStlsISt11char_traitsIcEERSt13basic_ostreamIcT_ES5_PKc)
	jirl	$ra, $ra, 0
.Ltmp194:                               # EH_LABEL
	b	.LBB1_93
.LBB1_63:                               # %if.then.i96
.Ltmp264:                               # EH_LABEL
	pcaddu18i	$ra, %call36(_ZSt25__throw_bad_function_callv)
	jirl	$ra, $ra, 0
.Ltmp265:                               # EH_LABEL
# %bb.64:                               # %.noexc97
.LBB1_65:                               # %if.then.i110
.Ltmp261:                               # EH_LABEL
	pcaddu18i	$ra, %call36(_ZSt25__throw_bad_function_callv)
	jirl	$ra, $ra, 0
.Ltmp262:                               # EH_LABEL
# %bb.66:                               # %.noexc111
.LBB1_67:                               # %if.then53
.Ltmp199:                               # EH_LABEL
	pcalau12i	$a0, %got_pc_hi20(_ZSt4cerr)
	ld.d	$a0, $a0, %got_pc_lo12(_ZSt4cerr)
	pcalau12i	$a1, %pc_hi20(.L.str.14)
	addi.d	$a1, $a1, %pc_lo12(.L.str.14)
	pcaddu18i	$ra, %call36(_ZStlsISt11char_traitsIcEERSt13basic_ostreamIcT_ES5_PKc)
	jirl	$ra, $ra, 0
.Ltmp200:                               # EH_LABEL
	b	.LBB1_93
.LBB1_68:                               # %if.then.i123
.Ltmp258:                               # EH_LABEL
	pcaddu18i	$ra, %call36(_ZSt25__throw_bad_function_callv)
	jirl	$ra, $ra, 0
.Ltmp259:                               # EH_LABEL
# %bb.69:                               # %.noexc124
.LBB1_70:                               # %if.then.i138
.Ltmp255:                               # EH_LABEL
	pcaddu18i	$ra, %call36(_ZSt25__throw_bad_function_callv)
	jirl	$ra, $ra, 0
.Ltmp256:                               # EH_LABEL
# %bb.71:                               # %.noexc139
.LBB1_72:                               # %if.then94
.Ltmp205:                               # EH_LABEL
	pcalau12i	$a0, %got_pc_hi20(_ZSt4cerr)
	ld.d	$a0, $a0, %got_pc_lo12(_ZSt4cerr)
	pcalau12i	$a1, %pc_hi20(.L.str.14)
	addi.d	$a1, $a1, %pc_lo12(.L.str.14)
	pcaddu18i	$ra, %call36(_ZStlsISt11char_traitsIcEERSt13basic_ostreamIcT_ES5_PKc)
	jirl	$ra, $ra, 0
.Ltmp206:                               # EH_LABEL
	b	.LBB1_93
.LBB1_73:                               # %if.then.i152
.Ltmp252:                               # EH_LABEL
	pcaddu18i	$ra, %call36(_ZSt25__throw_bad_function_callv)
	jirl	$ra, $ra, 0
.Ltmp253:                               # EH_LABEL
# %bb.74:                               # %.noexc153
.LBB1_75:                               # %if.then.i167
.Ltmp249:                               # EH_LABEL
	pcaddu18i	$ra, %call36(_ZSt25__throw_bad_function_callv)
	jirl	$ra, $ra, 0
.Ltmp250:                               # EH_LABEL
# %bb.76:                               # %.noexc168
.LBB1_77:                               # %if.then137
.Ltmp211:                               # EH_LABEL
	pcalau12i	$a0, %got_pc_hi20(_ZSt4cerr)
	ld.d	$a0, $a0, %got_pc_lo12(_ZSt4cerr)
	pcalau12i	$a1, %pc_hi20(.L.str.14)
	addi.d	$a1, $a1, %pc_lo12(.L.str.14)
	pcaddu18i	$ra, %call36(_ZStlsISt11char_traitsIcEERSt13basic_ostreamIcT_ES5_PKc)
	jirl	$ra, $ra, 0
.Ltmp212:                               # EH_LABEL
	b	.LBB1_93
.LBB1_78:                               # %if.then.i181
.Ltmp246:                               # EH_LABEL
	pcaddu18i	$ra, %call36(_ZSt25__throw_bad_function_callv)
	jirl	$ra, $ra, 0
.Ltmp247:                               # EH_LABEL
# %bb.79:                               # %.noexc182
.LBB1_80:                               # %if.then.i196
.Ltmp243:                               # EH_LABEL
	pcaddu18i	$ra, %call36(_ZSt25__throw_bad_function_callv)
	jirl	$ra, $ra, 0
.Ltmp244:                               # EH_LABEL
# %bb.81:                               # %.noexc197
.LBB1_82:                               # %if.then180
.Ltmp217:                               # EH_LABEL
	pcalau12i	$a0, %got_pc_hi20(_ZSt4cerr)
	ld.d	$a0, $a0, %got_pc_lo12(_ZSt4cerr)
	pcalau12i	$a1, %pc_hi20(.L.str.14)
	addi.d	$a1, $a1, %pc_lo12(.L.str.14)
	pcaddu18i	$ra, %call36(_ZStlsISt11char_traitsIcEERSt13basic_ostreamIcT_ES5_PKc)
	jirl	$ra, $ra, 0
.Ltmp218:                               # EH_LABEL
	b	.LBB1_93
.LBB1_83:                               # %if.then.i210
.Ltmp240:                               # EH_LABEL
	pcaddu18i	$ra, %call36(_ZSt25__throw_bad_function_callv)
	jirl	$ra, $ra, 0
.Ltmp241:                               # EH_LABEL
# %bb.84:                               # %.noexc211
.LBB1_85:                               # %if.then.i225
.Ltmp237:                               # EH_LABEL
	pcaddu18i	$ra, %call36(_ZSt25__throw_bad_function_callv)
	jirl	$ra, $ra, 0
.Ltmp238:                               # EH_LABEL
# %bb.86:                               # %.noexc226
.LBB1_87:                               # %if.then224
.Ltmp223:                               # EH_LABEL
	pcalau12i	$a0, %got_pc_hi20(_ZSt4cerr)
	ld.d	$a0, $a0, %got_pc_lo12(_ZSt4cerr)
	pcalau12i	$a1, %pc_hi20(.L.str.14)
	addi.d	$a1, $a1, %pc_lo12(.L.str.14)
	pcaddu18i	$ra, %call36(_ZStlsISt11char_traitsIcEERSt13basic_ostreamIcT_ES5_PKc)
	jirl	$ra, $ra, 0
.Ltmp224:                               # EH_LABEL
	b	.LBB1_93
.LBB1_88:                               # %if.then.i240
.Ltmp234:                               # EH_LABEL
	pcaddu18i	$ra, %call36(_ZSt25__throw_bad_function_callv)
	jirl	$ra, $ra, 0
.Ltmp235:                               # EH_LABEL
# %bb.89:                               # %.noexc241
.LBB1_90:                               # %if.then.i255
.Ltmp231:                               # EH_LABEL
	pcaddu18i	$ra, %call36(_ZSt25__throw_bad_function_callv)
	jirl	$ra, $ra, 0
.Ltmp232:                               # EH_LABEL
# %bb.91:                               # %.noexc256
.LBB1_92:                               # %if.then271
.Ltmp229:                               # EH_LABEL
	pcalau12i	$a0, %got_pc_hi20(_ZSt4cerr)
	ld.d	$a0, $a0, %got_pc_lo12(_ZSt4cerr)
	pcalau12i	$a1, %pc_hi20(.L.str.14)
	addi.d	$a1, $a1, %pc_lo12(.L.str.14)
	pcaddu18i	$ra, %call36(_ZStlsISt11char_traitsIcEERSt13basic_ostreamIcT_ES5_PKc)
	jirl	$ra, $ra, 0
.Ltmp230:                               # EH_LABEL
.LBB1_93:                               # %invoke.cont23
	ori	$a0, $zero, 1
	pcaddu18i	$ra, %call36(exit)
	jirl	$ra, $ra, 0
.LBB1_94:                               # %lpad
.Ltmp182:                               # EH_LABEL
	move	$s1, $a0
	move	$a0, $fp
	pcaddu18i	$ra, %call36(_ZdaPv)
	jirl	$ra, $ra, 0
	move	$a0, $s1
	pcaddu18i	$ra, %call36(_Unwind_Resume)
	jirl	$ra, $ra, 0
.LBB1_95:                               # %lpad255
.Ltmp236:                               # EH_LABEL
	b	.LBB1_111
.LBB1_96:                               # %lpad208
.Ltmp242:                               # EH_LABEL
	b	.LBB1_111
.LBB1_97:                               # %lpad164
.Ltmp248:                               # EH_LABEL
	b	.LBB1_111
.LBB1_98:                               # %lpad121
.Ltmp254:                               # EH_LABEL
	b	.LBB1_111
.LBB1_99:                               # %lpad78
.Ltmp260:                               # EH_LABEL
	b	.LBB1_111
.LBB1_100:                              # %lpad37
.Ltmp266:                               # EH_LABEL
	b	.LBB1_111
.LBB1_101:                              # %lpad9
.Ltmp272:                               # EH_LABEL
	b	.LBB1_111
.LBB1_102:                              # %lpad263
.Ltmp233:                               # EH_LABEL
	b	.LBB1_111
.LBB1_103:                              # %lpad216
.Ltmp239:                               # EH_LABEL
	b	.LBB1_111
.LBB1_104:                              # %lpad172
.Ltmp245:                               # EH_LABEL
	b	.LBB1_111
.LBB1_105:                              # %lpad129
.Ltmp251:                               # EH_LABEL
	b	.LBB1_111
.LBB1_106:                              # %lpad86
.Ltmp257:                               # EH_LABEL
	b	.LBB1_111
.LBB1_107:                              # %lpad45
.Ltmp263:                               # EH_LABEL
	b	.LBB1_111
.LBB1_108:                              # %lpad16
.Ltmp269:                               # EH_LABEL
	b	.LBB1_111
.LBB1_109:                              # %lpad6.loopexit
.Ltmp188:                               # EH_LABEL
	b	.LBB1_111
.LBB1_110:                              # %lpad6.loopexit.split-lp
.Ltmp185:                               # EH_LABEL
.LBB1_111:                              # %_ZNSt10unique_ptrIA_iSt14default_deleteIS0_EED2Ev.exit267
	move	$s1, $a0
	move	$a0, $s0
	pcaddu18i	$ra, %call36(_ZdaPv)
	jirl	$ra, $ra, 0
	move	$a0, $fp
	pcaddu18i	$ra, %call36(_ZdaPv)
	jirl	$ra, $ra, 0
	move	$a0, $s1
	pcaddu18i	$ra, %call36(_Unwind_Resume)
	jirl	$ra, $ra, 0
.Lfunc_end1:
	.size	_ZL19checkVectorFunctionIiiEvSt8functionIFT_PT0_S3_jEES5_PKc, .Lfunc_end1-_ZL19checkVectorFunctionIiiEvSt8functionIFT_PT0_S3_jEES5_PKc
	.cfi_endproc
	.section	.gcc_except_table,"a",@progbits
	.p2align	2, 0x0
GCC_except_table1:
.Lexception1:
	.byte	255                             # @LPStart Encoding = omit
	.byte	255                             # @TType Encoding = omit
	.byte	1                               # Call site Encoding = uleb128
	.uleb128 .Lcst_end1-.Lcst_begin1
.Lcst_begin1:
	.uleb128 .Lfunc_begin1-.Lfunc_begin1    # >> Call Site 1 <<
	.uleb128 .Ltmp180-.Lfunc_begin1         #   Call between .Lfunc_begin1 and .Ltmp180
	.byte	0                               #     has no landing pad
	.byte	0                               #   On action: cleanup
	.uleb128 .Ltmp180-.Lfunc_begin1         # >> Call Site 2 <<
	.uleb128 .Ltmp181-.Ltmp180              #   Call between .Ltmp180 and .Ltmp181
	.uleb128 .Ltmp182-.Lfunc_begin1         #     jumps to .Ltmp182
	.byte	0                               #   On action: cleanup
	.uleb128 .Ltmp183-.Lfunc_begin1         # >> Call Site 3 <<
	.uleb128 .Ltmp184-.Ltmp183              #   Call between .Ltmp183 and .Ltmp184
	.uleb128 .Ltmp185-.Lfunc_begin1         #     jumps to .Ltmp185
	.byte	0                               #   On action: cleanup
	.uleb128 .Ltmp186-.Lfunc_begin1         # >> Call Site 4 <<
	.uleb128 .Ltmp187-.Ltmp186              #   Call between .Ltmp186 and .Ltmp187
	.uleb128 .Ltmp188-.Lfunc_begin1         #     jumps to .Ltmp188
	.byte	0                               #   On action: cleanup
	.uleb128 .Ltmp189-.Lfunc_begin1         # >> Call Site 5 <<
	.uleb128 .Ltmp190-.Ltmp189              #   Call between .Ltmp189 and .Ltmp190
	.uleb128 .Ltmp272-.Lfunc_begin1         #     jumps to .Ltmp272
	.byte	0                               #   On action: cleanup
	.uleb128 .Ltmp191-.Lfunc_begin1         # >> Call Site 6 <<
	.uleb128 .Ltmp192-.Ltmp191              #   Call between .Ltmp191 and .Ltmp192
	.uleb128 .Ltmp269-.Lfunc_begin1         #     jumps to .Ltmp269
	.byte	0                               #   On action: cleanup
	.uleb128 .Ltmp195-.Lfunc_begin1         # >> Call Site 7 <<
	.uleb128 .Ltmp196-.Ltmp195              #   Call between .Ltmp195 and .Ltmp196
	.uleb128 .Ltmp266-.Lfunc_begin1         #     jumps to .Ltmp266
	.byte	0                               #   On action: cleanup
	.uleb128 .Ltmp197-.Lfunc_begin1         # >> Call Site 8 <<
	.uleb128 .Ltmp198-.Ltmp197              #   Call between .Ltmp197 and .Ltmp198
	.uleb128 .Ltmp263-.Lfunc_begin1         #     jumps to .Ltmp263
	.byte	0                               #   On action: cleanup
	.uleb128 .Ltmp201-.Lfunc_begin1         # >> Call Site 9 <<
	.uleb128 .Ltmp202-.Ltmp201              #   Call between .Ltmp201 and .Ltmp202
	.uleb128 .Ltmp260-.Lfunc_begin1         #     jumps to .Ltmp260
	.byte	0                               #   On action: cleanup
	.uleb128 .Ltmp203-.Lfunc_begin1         # >> Call Site 10 <<
	.uleb128 .Ltmp204-.Ltmp203              #   Call between .Ltmp203 and .Ltmp204
	.uleb128 .Ltmp257-.Lfunc_begin1         #     jumps to .Ltmp257
	.byte	0                               #   On action: cleanup
	.uleb128 .Ltmp207-.Lfunc_begin1         # >> Call Site 11 <<
	.uleb128 .Ltmp208-.Ltmp207              #   Call between .Ltmp207 and .Ltmp208
	.uleb128 .Ltmp254-.Lfunc_begin1         #     jumps to .Ltmp254
	.byte	0                               #   On action: cleanup
	.uleb128 .Ltmp209-.Lfunc_begin1         # >> Call Site 12 <<
	.uleb128 .Ltmp210-.Ltmp209              #   Call between .Ltmp209 and .Ltmp210
	.uleb128 .Ltmp251-.Lfunc_begin1         #     jumps to .Ltmp251
	.byte	0                               #   On action: cleanup
	.uleb128 .Ltmp213-.Lfunc_begin1         # >> Call Site 13 <<
	.uleb128 .Ltmp214-.Ltmp213              #   Call between .Ltmp213 and .Ltmp214
	.uleb128 .Ltmp248-.Lfunc_begin1         #     jumps to .Ltmp248
	.byte	0                               #   On action: cleanup
	.uleb128 .Ltmp215-.Lfunc_begin1         # >> Call Site 14 <<
	.uleb128 .Ltmp216-.Ltmp215              #   Call between .Ltmp215 and .Ltmp216
	.uleb128 .Ltmp245-.Lfunc_begin1         #     jumps to .Ltmp245
	.byte	0                               #   On action: cleanup
	.uleb128 .Ltmp219-.Lfunc_begin1         # >> Call Site 15 <<
	.uleb128 .Ltmp220-.Ltmp219              #   Call between .Ltmp219 and .Ltmp220
	.uleb128 .Ltmp242-.Lfunc_begin1         #     jumps to .Ltmp242
	.byte	0                               #   On action: cleanup
	.uleb128 .Ltmp221-.Lfunc_begin1         # >> Call Site 16 <<
	.uleb128 .Ltmp222-.Ltmp221              #   Call between .Ltmp221 and .Ltmp222
	.uleb128 .Ltmp239-.Lfunc_begin1         #     jumps to .Ltmp239
	.byte	0                               #   On action: cleanup
	.uleb128 .Ltmp225-.Lfunc_begin1         # >> Call Site 17 <<
	.uleb128 .Ltmp226-.Ltmp225              #   Call between .Ltmp225 and .Ltmp226
	.uleb128 .Ltmp236-.Lfunc_begin1         #     jumps to .Ltmp236
	.byte	0                               #   On action: cleanup
	.uleb128 .Ltmp227-.Lfunc_begin1         # >> Call Site 18 <<
	.uleb128 .Ltmp228-.Ltmp227              #   Call between .Ltmp227 and .Ltmp228
	.uleb128 .Ltmp233-.Lfunc_begin1         #     jumps to .Ltmp233
	.byte	0                               #   On action: cleanup
	.uleb128 .Ltmp228-.Lfunc_begin1         # >> Call Site 19 <<
	.uleb128 .Ltmp270-.Ltmp228              #   Call between .Ltmp228 and .Ltmp270
	.byte	0                               #     has no landing pad
	.byte	0                               #   On action: cleanup
	.uleb128 .Ltmp270-.Lfunc_begin1         # >> Call Site 20 <<
	.uleb128 .Ltmp271-.Ltmp270              #   Call between .Ltmp270 and .Ltmp271
	.uleb128 .Ltmp272-.Lfunc_begin1         #     jumps to .Ltmp272
	.byte	0                               #   On action: cleanup
	.uleb128 .Ltmp267-.Lfunc_begin1         # >> Call Site 21 <<
	.uleb128 .Ltmp194-.Ltmp267              #   Call between .Ltmp267 and .Ltmp194
	.uleb128 .Ltmp269-.Lfunc_begin1         #     jumps to .Ltmp269
	.byte	0                               #   On action: cleanup
	.uleb128 .Ltmp264-.Lfunc_begin1         # >> Call Site 22 <<
	.uleb128 .Ltmp265-.Ltmp264              #   Call between .Ltmp264 and .Ltmp265
	.uleb128 .Ltmp266-.Lfunc_begin1         #     jumps to .Ltmp266
	.byte	0                               #   On action: cleanup
	.uleb128 .Ltmp261-.Lfunc_begin1         # >> Call Site 23 <<
	.uleb128 .Ltmp200-.Ltmp261              #   Call between .Ltmp261 and .Ltmp200
	.uleb128 .Ltmp263-.Lfunc_begin1         #     jumps to .Ltmp263
	.byte	0                               #   On action: cleanup
	.uleb128 .Ltmp258-.Lfunc_begin1         # >> Call Site 24 <<
	.uleb128 .Ltmp259-.Ltmp258              #   Call between .Ltmp258 and .Ltmp259
	.uleb128 .Ltmp260-.Lfunc_begin1         #     jumps to .Ltmp260
	.byte	0                               #   On action: cleanup
	.uleb128 .Ltmp255-.Lfunc_begin1         # >> Call Site 25 <<
	.uleb128 .Ltmp206-.Ltmp255              #   Call between .Ltmp255 and .Ltmp206
	.uleb128 .Ltmp257-.Lfunc_begin1         #     jumps to .Ltmp257
	.byte	0                               #   On action: cleanup
	.uleb128 .Ltmp252-.Lfunc_begin1         # >> Call Site 26 <<
	.uleb128 .Ltmp253-.Ltmp252              #   Call between .Ltmp252 and .Ltmp253
	.uleb128 .Ltmp254-.Lfunc_begin1         #     jumps to .Ltmp254
	.byte	0                               #   On action: cleanup
	.uleb128 .Ltmp249-.Lfunc_begin1         # >> Call Site 27 <<
	.uleb128 .Ltmp212-.Ltmp249              #   Call between .Ltmp249 and .Ltmp212
	.uleb128 .Ltmp251-.Lfunc_begin1         #     jumps to .Ltmp251
	.byte	0                               #   On action: cleanup
	.uleb128 .Ltmp246-.Lfunc_begin1         # >> Call Site 28 <<
	.uleb128 .Ltmp247-.Ltmp246              #   Call between .Ltmp246 and .Ltmp247
	.uleb128 .Ltmp248-.Lfunc_begin1         #     jumps to .Ltmp248
	.byte	0                               #   On action: cleanup
	.uleb128 .Ltmp243-.Lfunc_begin1         # >> Call Site 29 <<
	.uleb128 .Ltmp218-.Ltmp243              #   Call between .Ltmp243 and .Ltmp218
	.uleb128 .Ltmp245-.Lfunc_begin1         #     jumps to .Ltmp245
	.byte	0                               #   On action: cleanup
	.uleb128 .Ltmp240-.Lfunc_begin1         # >> Call Site 30 <<
	.uleb128 .Ltmp241-.Ltmp240              #   Call between .Ltmp240 and .Ltmp241
	.uleb128 .Ltmp242-.Lfunc_begin1         #     jumps to .Ltmp242
	.byte	0                               #   On action: cleanup
	.uleb128 .Ltmp237-.Lfunc_begin1         # >> Call Site 31 <<
	.uleb128 .Ltmp224-.Ltmp237              #   Call between .Ltmp237 and .Ltmp224
	.uleb128 .Ltmp239-.Lfunc_begin1         #     jumps to .Ltmp239
	.byte	0                               #   On action: cleanup
	.uleb128 .Ltmp234-.Lfunc_begin1         # >> Call Site 32 <<
	.uleb128 .Ltmp235-.Ltmp234              #   Call between .Ltmp234 and .Ltmp235
	.uleb128 .Ltmp236-.Lfunc_begin1         #     jumps to .Ltmp236
	.byte	0                               #   On action: cleanup
	.uleb128 .Ltmp231-.Lfunc_begin1         # >> Call Site 33 <<
	.uleb128 .Ltmp230-.Ltmp231              #   Call between .Ltmp231 and .Ltmp230
	.uleb128 .Ltmp233-.Lfunc_begin1         #     jumps to .Ltmp233
	.byte	0                               #   On action: cleanup
	.uleb128 .Ltmp230-.Lfunc_begin1         # >> Call Site 34 <<
	.uleb128 .Lfunc_end1-.Ltmp230           #   Call between .Ltmp230 and .Lfunc_end1
	.byte	0                               #     has no landing pad
	.byte	0                               #   On action: cleanup
.Lcst_end1:
	.p2align	2, 0x0
                                        # -- End function
	.text
	.p2align	5                               # -- Begin function _ZL19checkVectorFunctionIifEvSt8functionIFT_PT0_S3_jEES5_PKc
	.type	_ZL19checkVectorFunctionIifEvSt8functionIFT_PT0_S3_jEES5_PKc,@function
_ZL19checkVectorFunctionIifEvSt8functionIFT_PT0_S3_jEES5_PKc: # @_ZL19checkVectorFunctionIifEvSt8functionIFT_PT0_S3_jEES5_PKc
.Lfunc_begin2:
	.cfi_startproc
	.cfi_personality 155, DW.ref.__gxx_personality_v0
	.cfi_lsda 27, .Lexception2
# %bb.0:                                # %entry
	addi.d	$sp, $sp, -128
	.cfi_def_cfa_offset 128
	st.d	$ra, $sp, 120                   # 8-byte Folded Spill
	st.d	$fp, $sp, 112                   # 8-byte Folded Spill
	st.d	$s0, $sp, 104                   # 8-byte Folded Spill
	st.d	$s1, $sp, 96                    # 8-byte Folded Spill
	st.d	$s2, $sp, 88                    # 8-byte Folded Spill
	st.d	$s3, $sp, 80                    # 8-byte Folded Spill
	st.d	$s4, $sp, 72                    # 8-byte Folded Spill
	st.d	$s5, $sp, 64                    # 8-byte Folded Spill
	.cfi_offset 1, -8
	.cfi_offset 22, -16
	.cfi_offset 23, -24
	.cfi_offset 24, -32
	.cfi_offset 25, -40
	.cfi_offset 26, -48
	.cfi_offset 27, -56
	.cfi_offset 28, -64
	move	$fp, $a2
	move	$s1, $a1
	move	$s2, $a0
	pcalau12i	$a0, %got_pc_hi20(_ZSt4cout)
	ld.d	$s0, $a0, %got_pc_lo12(_ZSt4cout)
	pcalau12i	$a0, %pc_hi20(.L.str.12)
	addi.d	$a1, $a0, %pc_lo12(.L.str.12)
	ori	$a2, $zero, 9
	move	$a0, $s0
	pcaddu18i	$ra, %call36(_ZSt16__ostream_insertIcSt11char_traitsIcEERSt13basic_ostreamIT_T0_ES6_PKS3_l)
	jirl	$ra, $ra, 0
	beqz	$fp, .LBB2_2
# %bb.1:                                # %if.else.i
	move	$a0, $fp
	pcaddu18i	$ra, %call36(strlen)
	jirl	$ra, $ra, 0
	move	$a2, $a0
	pcalau12i	$a0, %got_pc_hi20(_ZSt4cout)
	ld.d	$a0, $a0, %got_pc_lo12(_ZSt4cout)
	move	$a1, $fp
	pcaddu18i	$ra, %call36(_ZSt16__ostream_insertIcSt11char_traitsIcEERSt13basic_ostreamIT_T0_ES6_PKS3_l)
	jirl	$ra, $ra, 0
	b	.LBB2_3
.LBB2_2:                                # %if.then.i
	ld.d	$a0, $s0, 0
	ld.d	$a0, $a0, -24
	add.d	$a0, $s0, $a0
	ld.w	$a1, $a0, 32
	ori	$a1, $a1, 1
	pcaddu18i	$ra, %call36(_ZNSt9basic_iosIcSt11char_traitsIcEE5clearESt12_Ios_Iostate)
	jirl	$ra, $ra, 0
.LBB2_3:                                # %_ZStlsISt11char_traitsIcEERSt13basic_ostreamIcT_ES5_PKc.exit
	pcalau12i	$a0, %got_pc_hi20(_ZSt4cout)
	ld.d	$a0, $a0, %got_pc_lo12(_ZSt4cout)
	pcalau12i	$a1, %pc_hi20(.L.str.13)
	addi.d	$a1, $a1, %pc_lo12(.L.str.13)
	ori	$a2, $zero, 1
	pcaddu18i	$ra, %call36(_ZSt16__ostream_insertIcSt11char_traitsIcEERSt13basic_ostreamIT_T0_ES6_PKS3_l)
	jirl	$ra, $ra, 0
	ori	$a0, $zero, 4000
	pcaddu18i	$ra, %call36(_Znam)
	jirl	$ra, $ra, 0
	move	$fp, $a0
.Ltmp273:                               # EH_LABEL
	ori	$a0, $zero, 4000
	pcaddu18i	$ra, %call36(_Znam)
	jirl	$ra, $ra, 0
.Ltmp274:                               # EH_LABEL
# %bb.4:                                # %invoke.cont
	move	$s0, $a0
	move	$a0, $fp
	pcaddu18i	$ra, %call36(_ZL9init_dataIfEvRKSt10unique_ptrIA_T_St14default_deleteIS2_EEj)
	jirl	$ra, $ra, 0
	move	$a0, $s0
	pcaddu18i	$ra, %call36(_ZL9init_dataIfEvRKSt10unique_ptrIA_T_St14default_deleteIS2_EEj)
	jirl	$ra, $ra, 0
	ld.d	$a0, $s2, 16
	st.d	$fp, $sp, 56
	st.d	$s0, $sp, 48
	ori	$a1, $zero, 1000
	st.w	$a1, $sp, 44
	beqz	$a0, .LBB2_52
# %bb.5:                                # %if.end.i
	ld.d	$a4, $s2, 24
.Ltmp276:                               # EH_LABEL
	addi.d	$a1, $sp, 56
	addi.d	$a2, $sp, 48
	addi.d	$a3, $sp, 44
	move	$a0, $s2
	jirl	$ra, $a4, 0
.Ltmp277:                               # EH_LABEL
# %bb.6:                                # %invoke.cont14
	move	$s3, $a0
	ld.d	$a0, $s1, 16
	st.d	$fp, $sp, 56
	st.d	$s0, $sp, 48
	ori	$a1, $zero, 1000
	st.w	$a1, $sp, 44
	beqz	$a0, .LBB2_54
# %bb.7:                                # %if.end.i71
	ld.d	$a4, $s1, 24
.Ltmp278:                               # EH_LABEL
	addi.d	$a1, $sp, 56
	addi.d	$a2, $sp, 48
	addi.d	$a3, $sp, 44
	move	$a0, $s1
	jirl	$ra, $a4, 0
.Ltmp279:                               # EH_LABEL
# %bb.8:                                # %invoke.cont21
	bne	$s3, $a0, .LBB2_56
# %bb.9:                                # %vector.body.preheader
	lu12i.w	$s5, -1
	ori	$a0, $s5, 96
	lu12i.w	$a1, 522239
	ori	$s4, $a1, 4095
	vreplgr2vr.w	$vr1, $s4
	ori	$a1, $zero, 4000
	ori	$a2, $zero, 4016
	vldi	$vr0, -3456
	.p2align	4, , 16
.LBB2_10:                               # %vector.body
                                        # =>This Inner Loop Header: Depth=1
	add.d	$a3, $fp, $a0
	vstx	$vr1, $a3, $a1
	vstx	$vr1, $a3, $a2
	add.d	$a3, $s0, $a0
	vstx	$vr0, $a3, $a1
	addi.d	$a0, $a0, 32
	vstx	$vr0, $a3, $a2
	bnez	$a0, .LBB2_10
# %bb.11:                               # %for.cond.cleanup
	vst	$vr1, $sp, 16                   # 16-byte Folded Spill
	ld.d	$a0, $s2, 16
	st.d	$fp, $sp, 56
	st.d	$s0, $sp, 48
	ori	$a1, $zero, 1000
	st.w	$a1, $sp, 44
	beqz	$a0, .LBB2_57
# %bb.12:                               # %if.end.i82
	ld.d	$a4, $s2, 24
.Ltmp282:                               # EH_LABEL
	addi.d	$a1, $sp, 56
	addi.d	$a2, $sp, 48
	addi.d	$a3, $sp, 44
	move	$a0, $s2
	jirl	$ra, $a4, 0
.Ltmp283:                               # EH_LABEL
# %bb.13:                               # %invoke.cont42
	move	$s3, $a0
	ld.d	$a0, $s1, 16
	st.d	$fp, $sp, 56
	st.d	$s0, $sp, 48
	ori	$a1, $zero, 1000
	st.w	$a1, $sp, 44
	beqz	$a0, .LBB2_59
# %bb.14:                               # %if.end.i96
	ld.d	$a4, $s1, 24
.Ltmp284:                               # EH_LABEL
	addi.d	$a1, $sp, 56
	addi.d	$a2, $sp, 48
	addi.d	$a3, $sp, 44
	move	$a0, $s1
	jirl	$ra, $a4, 0
.Ltmp285:                               # EH_LABEL
# %bb.15:                               # %invoke.cont50
	vld	$vr1, $sp, 16                   # 16-byte Folded Reload
	bne	$s3, $a0, .LBB2_61
# %bb.16:                               # %vector.body324.preheader
	ori	$a0, $s5, 96
	vldi	$vr0, -3456
	ori	$a1, $zero, 4000
	ori	$a2, $zero, 4016
	.p2align	4, , 16
.LBB2_17:                               # %vector.body324
                                        # =>This Inner Loop Header: Depth=1
	add.d	$a3, $fp, $a0
	vstx	$vr0, $a3, $a1
	vstx	$vr0, $a3, $a2
	add.d	$a3, $s0, $a0
	vstx	$vr1, $a3, $a1
	addi.d	$a0, $a0, 32
	vstx	$vr1, $a3, $a2
	bnez	$a0, .LBB2_17
# %bb.18:                               # %for.cond.cleanup62
	ld.d	$a0, $s2, 16
	st.d	$fp, $sp, 56
	st.d	$s0, $sp, 48
	ori	$a1, $zero, 1000
	st.w	$a1, $sp, 44
	beqz	$a0, .LBB2_62
# %bb.19:                               # %if.end.i109
	ld.d	$a4, $s2, 24
.Ltmp288:                               # EH_LABEL
	addi.d	$a1, $sp, 56
	addi.d	$a2, $sp, 48
	addi.d	$a3, $sp, 44
	move	$a0, $s2
	jirl	$ra, $a4, 0
.Ltmp289:                               # EH_LABEL
# %bb.20:                               # %invoke.cont83
	move	$s3, $a0
	ld.d	$a0, $s1, 16
	st.d	$fp, $sp, 56
	st.d	$s0, $sp, 48
	ori	$a1, $zero, 1000
	st.w	$a1, $sp, 44
	beqz	$a0, .LBB2_64
# %bb.21:                               # %if.end.i124
	ld.d	$a4, $s1, 24
.Ltmp290:                               # EH_LABEL
	addi.d	$a1, $sp, 56
	addi.d	$a2, $sp, 48
	addi.d	$a3, $sp, 44
	move	$a0, $s1
	jirl	$ra, $a4, 0
.Ltmp291:                               # EH_LABEL
# %bb.22:                               # %invoke.cont91
	bne	$s3, $a0, .LBB2_66
# %bb.23:                               # %vector.body329.preheader
	ori	$a0, $s5, 96
	vldi	$vr0, -3456
	ori	$a1, $zero, 4000
	ori	$a2, $zero, 4016
	.p2align	4, , 16
.LBB2_24:                               # %vector.body329
                                        # =>This Inner Loop Header: Depth=1
	add.d	$a3, $s0, $a0
	vstx	$vr0, $a3, $a1
	vstx	$vr0, $a3, $a2
	add.d	$a3, $fp, $a0
	vstx	$vr0, $a3, $a1
	addi.d	$a0, $a0, 32
	vstx	$vr0, $a3, $a2
	bnez	$a0, .LBB2_24
# %bb.25:                               # %for.cond.cleanup103
	stptr.w	$s4, $fp, 3992
	ld.d	$a0, $s2, 16
	st.d	$fp, $sp, 56
	st.d	$s0, $sp, 48
	ori	$a1, $zero, 1000
	st.w	$a1, $sp, 44
	beqz	$a0, .LBB2_67
# %bb.26:                               # %if.end.i138
	ld.d	$a4, $s2, 24
.Ltmp294:                               # EH_LABEL
	addi.d	$a1, $sp, 56
	addi.d	$a2, $sp, 48
	addi.d	$a3, $sp, 44
	move	$a0, $s2
	jirl	$ra, $a4, 0
.Ltmp295:                               # EH_LABEL
# %bb.27:                               # %invoke.cont126
	move	$s3, $a0
	ld.d	$a0, $s1, 16
	st.d	$fp, $sp, 56
	st.d	$s0, $sp, 48
	ori	$a1, $zero, 1000
	st.w	$a1, $sp, 44
	beqz	$a0, .LBB2_69
# %bb.28:                               # %if.end.i153
	ld.d	$a4, $s1, 24
.Ltmp296:                               # EH_LABEL
	addi.d	$a1, $sp, 56
	addi.d	$a2, $sp, 48
	addi.d	$a3, $sp, 44
	move	$a0, $s1
	jirl	$ra, $a4, 0
.Ltmp297:                               # EH_LABEL
# %bb.29:                               # %invoke.cont134
	bne	$s3, $a0, .LBB2_71
# %bb.30:                               # %vector.body334.preheader
	ori	$a0, $s5, 96
	vldi	$vr0, -3456
	ori	$a1, $zero, 4000
	ori	$a2, $zero, 4016
	.p2align	4, , 16
.LBB2_31:                               # %vector.body334
                                        # =>This Inner Loop Header: Depth=1
	add.d	$a3, $s0, $a0
	vstx	$vr0, $a3, $a1
	vstx	$vr0, $a3, $a2
	add.d	$a3, $fp, $a0
	vstx	$vr0, $a3, $a1
	addi.d	$a0, $a0, 32
	vstx	$vr0, $a3, $a2
	bnez	$a0, .LBB2_31
# %bb.32:                               # %for.cond.cleanup146
	st.w	$s4, $fp, 0
	ld.d	$a0, $s2, 16
	st.d	$fp, $sp, 56
	st.d	$s0, $sp, 48
	ori	$a1, $zero, 1000
	st.w	$a1, $sp, 44
	beqz	$a0, .LBB2_72
# %bb.33:                               # %if.end.i167
	ld.d	$a4, $s2, 24
.Ltmp300:                               # EH_LABEL
	addi.d	$a1, $sp, 56
	addi.d	$a2, $sp, 48
	addi.d	$a3, $sp, 44
	move	$a0, $s2
	jirl	$ra, $a4, 0
.Ltmp301:                               # EH_LABEL
# %bb.34:                               # %invoke.cont169
	move	$s3, $a0
	ld.d	$a0, $s1, 16
	st.d	$fp, $sp, 56
	st.d	$s0, $sp, 48
	ori	$a1, $zero, 1000
	st.w	$a1, $sp, 44
	beqz	$a0, .LBB2_74
# %bb.35:                               # %if.end.i182
	ld.d	$a4, $s1, 24
.Ltmp302:                               # EH_LABEL
	addi.d	$a1, $sp, 56
	addi.d	$a2, $sp, 48
	addi.d	$a3, $sp, 44
	move	$a0, $s1
	jirl	$ra, $a4, 0
.Ltmp303:                               # EH_LABEL
# %bb.36:                               # %invoke.cont177
	bne	$s3, $a0, .LBB2_76
# %bb.37:                               # %vector.body339.preheader
	ori	$a0, $s5, 96
	vldi	$vr0, -3456
	ori	$a1, $zero, 4000
	ori	$a2, $zero, 4016
	.p2align	4, , 16
.LBB2_38:                               # %vector.body339
                                        # =>This Inner Loop Header: Depth=1
	add.d	$a3, $s0, $a0
	vstx	$vr0, $a3, $a1
	vstx	$vr0, $a3, $a2
	add.d	$a3, $fp, $a0
	vstx	$vr0, $a3, $a1
	addi.d	$a0, $a0, 32
	vstx	$vr0, $a3, $a2
	bnez	$a0, .LBB2_38
# %bb.39:                               # %for.cond.cleanup189
	stptr.w	$s4, $fp, 3996
	ld.d	$a0, $s2, 16
	st.d	$fp, $sp, 56
	st.d	$s0, $sp, 48
	ori	$a1, $zero, 1000
	st.w	$a1, $sp, 44
	beqz	$a0, .LBB2_77
# %bb.40:                               # %if.end.i196
	ld.d	$a4, $s2, 24
.Ltmp306:                               # EH_LABEL
	addi.d	$a1, $sp, 56
	addi.d	$a2, $sp, 48
	addi.d	$a3, $sp, 44
	move	$a0, $s2
	jirl	$ra, $a4, 0
.Ltmp307:                               # EH_LABEL
# %bb.41:                               # %invoke.cont213
	move	$s3, $a0
	ld.d	$a0, $s1, 16
	st.d	$fp, $sp, 56
	st.d	$s0, $sp, 48
	ori	$a1, $zero, 1000
	st.w	$a1, $sp, 44
	beqz	$a0, .LBB2_79
# %bb.42:                               # %if.end.i211
	ld.d	$a4, $s1, 24
.Ltmp308:                               # EH_LABEL
	addi.d	$a1, $sp, 56
	addi.d	$a2, $sp, 48
	addi.d	$a3, $sp, 44
	move	$a0, $s1
	jirl	$ra, $a4, 0
.Ltmp309:                               # EH_LABEL
# %bb.43:                               # %invoke.cont221
	bne	$s3, $a0, .LBB2_81
# %bb.44:                               # %vector.body344.preheader
	ori	$a0, $s5, 96
	vldi	$vr0, -3456
	ori	$a1, $zero, 4000
	ori	$a2, $zero, 4016
	.p2align	4, , 16
.LBB2_45:                               # %vector.body344
                                        # =>This Inner Loop Header: Depth=1
	add.d	$a3, $s0, $a0
	vstx	$vr0, $a3, $a1
	vstx	$vr0, $a3, $a2
	add.d	$a3, $fp, $a0
	vstx	$vr0, $a3, $a1
	addi.d	$a0, $a0, 32
	vstx	$vr0, $a3, $a2
	bnez	$a0, .LBB2_45
# %bb.46:                               # %for.cond.cleanup233
	stptr.w	$s4, $fp, 3996
	st.w	$s4, $fp, 0
	ld.d	$a0, $s2, 16
	st.d	$fp, $sp, 56
	st.d	$s0, $sp, 48
	ori	$a1, $zero, 1000
	st.w	$a1, $sp, 44
	beqz	$a0, .LBB2_82
# %bb.47:                               # %if.end.i226
	ld.d	$a4, $s2, 24
.Ltmp312:                               # EH_LABEL
	addi.d	$a1, $sp, 56
	addi.d	$a2, $sp, 48
	addi.d	$a3, $sp, 44
	move	$a0, $s2
	jirl	$ra, $a4, 0
.Ltmp313:                               # EH_LABEL
# %bb.48:                               # %invoke.cont260
	move	$s2, $a0
	ld.d	$a0, $s1, 16
	st.d	$fp, $sp, 56
	st.d	$s0, $sp, 48
	ori	$a1, $zero, 1000
	st.w	$a1, $sp, 44
	beqz	$a0, .LBB2_84
# %bb.49:                               # %if.end.i241
	ld.d	$a4, $s1, 24
.Ltmp314:                               # EH_LABEL
	addi.d	$a1, $sp, 56
	addi.d	$a2, $sp, 48
	addi.d	$a3, $sp, 44
	move	$a0, $s1
	jirl	$ra, $a4, 0
.Ltmp315:                               # EH_LABEL
# %bb.50:                               # %invoke.cont268
	bne	$s2, $a0, .LBB2_86
# %bb.51:                               # %_ZNSt10unique_ptrIA_fSt14default_deleteIS0_EED2Ev.exit251
	move	$a0, $s0
	pcaddu18i	$ra, %call36(_ZdaPv)
	jirl	$ra, $ra, 0
	move	$a0, $fp
	pcaddu18i	$ra, %call36(_ZdaPv)
	jirl	$ra, $ra, 0
	ld.d	$s5, $sp, 64                    # 8-byte Folded Reload
	ld.d	$s4, $sp, 72                    # 8-byte Folded Reload
	ld.d	$s3, $sp, 80                    # 8-byte Folded Reload
	ld.d	$s2, $sp, 88                    # 8-byte Folded Reload
	ld.d	$s1, $sp, 96                    # 8-byte Folded Reload
	ld.d	$s0, $sp, 104                   # 8-byte Folded Reload
	ld.d	$fp, $sp, 112                   # 8-byte Folded Reload
	ld.d	$ra, $sp, 120                   # 8-byte Folded Reload
	addi.d	$sp, $sp, 128
	ret
.LBB2_52:                               # %if.then.i64
.Ltmp357:                               # EH_LABEL
	pcaddu18i	$ra, %call36(_ZSt25__throw_bad_function_callv)
	jirl	$ra, $ra, 0
.Ltmp358:                               # EH_LABEL
# %bb.53:                               # %.noexc
.LBB2_54:                               # %if.then.i73
.Ltmp354:                               # EH_LABEL
	pcaddu18i	$ra, %call36(_ZSt25__throw_bad_function_callv)
	jirl	$ra, $ra, 0
.Ltmp355:                               # EH_LABEL
# %bb.55:                               # %.noexc74
.LBB2_56:                               # %if.then
.Ltmp280:                               # EH_LABEL
	pcalau12i	$a0, %got_pc_hi20(_ZSt4cerr)
	ld.d	$a0, $a0, %got_pc_lo12(_ZSt4cerr)
	pcalau12i	$a1, %pc_hi20(.L.str.14)
	addi.d	$a1, $a1, %pc_lo12(.L.str.14)
	pcaddu18i	$ra, %call36(_ZStlsISt11char_traitsIcEERSt13basic_ostreamIcT_ES5_PKc)
	jirl	$ra, $ra, 0
.Ltmp281:                               # EH_LABEL
	b	.LBB2_87
.LBB2_57:                               # %if.then.i84
.Ltmp351:                               # EH_LABEL
	pcaddu18i	$ra, %call36(_ZSt25__throw_bad_function_callv)
	jirl	$ra, $ra, 0
.Ltmp352:                               # EH_LABEL
# %bb.58:                               # %.noexc85
.LBB2_59:                               # %if.then.i98
.Ltmp348:                               # EH_LABEL
	pcaddu18i	$ra, %call36(_ZSt25__throw_bad_function_callv)
	jirl	$ra, $ra, 0
.Ltmp349:                               # EH_LABEL
# %bb.60:                               # %.noexc99
.LBB2_61:                               # %if.then53
.Ltmp286:                               # EH_LABEL
	pcalau12i	$a0, %got_pc_hi20(_ZSt4cerr)
	ld.d	$a0, $a0, %got_pc_lo12(_ZSt4cerr)
	pcalau12i	$a1, %pc_hi20(.L.str.14)
	addi.d	$a1, $a1, %pc_lo12(.L.str.14)
	pcaddu18i	$ra, %call36(_ZStlsISt11char_traitsIcEERSt13basic_ostreamIcT_ES5_PKc)
	jirl	$ra, $ra, 0
.Ltmp287:                               # EH_LABEL
	b	.LBB2_87
.LBB2_62:                               # %if.then.i111
.Ltmp345:                               # EH_LABEL
	pcaddu18i	$ra, %call36(_ZSt25__throw_bad_function_callv)
	jirl	$ra, $ra, 0
.Ltmp346:                               # EH_LABEL
# %bb.63:                               # %.noexc112
.LBB2_64:                               # %if.then.i126
.Ltmp342:                               # EH_LABEL
	pcaddu18i	$ra, %call36(_ZSt25__throw_bad_function_callv)
	jirl	$ra, $ra, 0
.Ltmp343:                               # EH_LABEL
# %bb.65:                               # %.noexc127
.LBB2_66:                               # %if.then94
.Ltmp292:                               # EH_LABEL
	pcalau12i	$a0, %got_pc_hi20(_ZSt4cerr)
	ld.d	$a0, $a0, %got_pc_lo12(_ZSt4cerr)
	pcalau12i	$a1, %pc_hi20(.L.str.14)
	addi.d	$a1, $a1, %pc_lo12(.L.str.14)
	pcaddu18i	$ra, %call36(_ZStlsISt11char_traitsIcEERSt13basic_ostreamIcT_ES5_PKc)
	jirl	$ra, $ra, 0
.Ltmp293:                               # EH_LABEL
	b	.LBB2_87
.LBB2_67:                               # %if.then.i140
.Ltmp339:                               # EH_LABEL
	pcaddu18i	$ra, %call36(_ZSt25__throw_bad_function_callv)
	jirl	$ra, $ra, 0
.Ltmp340:                               # EH_LABEL
# %bb.68:                               # %.noexc141
.LBB2_69:                               # %if.then.i155
.Ltmp336:                               # EH_LABEL
	pcaddu18i	$ra, %call36(_ZSt25__throw_bad_function_callv)
	jirl	$ra, $ra, 0
.Ltmp337:                               # EH_LABEL
# %bb.70:                               # %.noexc156
.LBB2_71:                               # %if.then137
.Ltmp298:                               # EH_LABEL
	pcalau12i	$a0, %got_pc_hi20(_ZSt4cerr)
	ld.d	$a0, $a0, %got_pc_lo12(_ZSt4cerr)
	pcalau12i	$a1, %pc_hi20(.L.str.14)
	addi.d	$a1, $a1, %pc_lo12(.L.str.14)
	pcaddu18i	$ra, %call36(_ZStlsISt11char_traitsIcEERSt13basic_ostreamIcT_ES5_PKc)
	jirl	$ra, $ra, 0
.Ltmp299:                               # EH_LABEL
	b	.LBB2_87
.LBB2_72:                               # %if.then.i169
.Ltmp333:                               # EH_LABEL
	pcaddu18i	$ra, %call36(_ZSt25__throw_bad_function_callv)
	jirl	$ra, $ra, 0
.Ltmp334:                               # EH_LABEL
# %bb.73:                               # %.noexc170
.LBB2_74:                               # %if.then.i184
.Ltmp330:                               # EH_LABEL
	pcaddu18i	$ra, %call36(_ZSt25__throw_bad_function_callv)
	jirl	$ra, $ra, 0
.Ltmp331:                               # EH_LABEL
# %bb.75:                               # %.noexc185
.LBB2_76:                               # %if.then180
.Ltmp304:                               # EH_LABEL
	pcalau12i	$a0, %got_pc_hi20(_ZSt4cerr)
	ld.d	$a0, $a0, %got_pc_lo12(_ZSt4cerr)
	pcalau12i	$a1, %pc_hi20(.L.str.14)
	addi.d	$a1, $a1, %pc_lo12(.L.str.14)
	pcaddu18i	$ra, %call36(_ZStlsISt11char_traitsIcEERSt13basic_ostreamIcT_ES5_PKc)
	jirl	$ra, $ra, 0
.Ltmp305:                               # EH_LABEL
	b	.LBB2_87
.LBB2_77:                               # %if.then.i198
.Ltmp327:                               # EH_LABEL
	pcaddu18i	$ra, %call36(_ZSt25__throw_bad_function_callv)
	jirl	$ra, $ra, 0
.Ltmp328:                               # EH_LABEL
# %bb.78:                               # %.noexc199
.LBB2_79:                               # %if.then.i213
.Ltmp324:                               # EH_LABEL
	pcaddu18i	$ra, %call36(_ZSt25__throw_bad_function_callv)
	jirl	$ra, $ra, 0
.Ltmp325:                               # EH_LABEL
# %bb.80:                               # %.noexc214
.LBB2_81:                               # %if.then224
.Ltmp310:                               # EH_LABEL
	pcalau12i	$a0, %got_pc_hi20(_ZSt4cerr)
	ld.d	$a0, $a0, %got_pc_lo12(_ZSt4cerr)
	pcalau12i	$a1, %pc_hi20(.L.str.14)
	addi.d	$a1, $a1, %pc_lo12(.L.str.14)
	pcaddu18i	$ra, %call36(_ZStlsISt11char_traitsIcEERSt13basic_ostreamIcT_ES5_PKc)
	jirl	$ra, $ra, 0
.Ltmp311:                               # EH_LABEL
	b	.LBB2_87
.LBB2_82:                               # %if.then.i228
.Ltmp321:                               # EH_LABEL
	pcaddu18i	$ra, %call36(_ZSt25__throw_bad_function_callv)
	jirl	$ra, $ra, 0
.Ltmp322:                               # EH_LABEL
# %bb.83:                               # %.noexc229
.LBB2_84:                               # %if.then.i243
.Ltmp318:                               # EH_LABEL
	pcaddu18i	$ra, %call36(_ZSt25__throw_bad_function_callv)
	jirl	$ra, $ra, 0
.Ltmp319:                               # EH_LABEL
# %bb.85:                               # %.noexc244
.LBB2_86:                               # %if.then271
.Ltmp316:                               # EH_LABEL
	pcalau12i	$a0, %got_pc_hi20(_ZSt4cerr)
	ld.d	$a0, $a0, %got_pc_lo12(_ZSt4cerr)
	pcalau12i	$a1, %pc_hi20(.L.str.14)
	addi.d	$a1, $a1, %pc_lo12(.L.str.14)
	pcaddu18i	$ra, %call36(_ZStlsISt11char_traitsIcEERSt13basic_ostreamIcT_ES5_PKc)
	jirl	$ra, $ra, 0
.Ltmp317:                               # EH_LABEL
.LBB2_87:                               # %invoke.cont23
	ori	$a0, $zero, 1
	pcaddu18i	$ra, %call36(exit)
	jirl	$ra, $ra, 0
.LBB2_88:                               # %lpad
.Ltmp275:                               # EH_LABEL
	move	$s1, $a0
	move	$a0, $fp
	pcaddu18i	$ra, %call36(_ZdaPv)
	jirl	$ra, $ra, 0
	move	$a0, $s1
	pcaddu18i	$ra, %call36(_Unwind_Resume)
	jirl	$ra, $ra, 0
.LBB2_89:                               # %lpad255
.Ltmp323:                               # EH_LABEL
	b	.LBB2_103
.LBB2_90:                               # %lpad208
.Ltmp329:                               # EH_LABEL
	b	.LBB2_103
.LBB2_91:                               # %lpad164
.Ltmp335:                               # EH_LABEL
	b	.LBB2_103
.LBB2_92:                               # %lpad121
.Ltmp341:                               # EH_LABEL
	b	.LBB2_103
.LBB2_93:                               # %lpad78
.Ltmp347:                               # EH_LABEL
	b	.LBB2_103
.LBB2_94:                               # %lpad37
.Ltmp353:                               # EH_LABEL
	b	.LBB2_103
.LBB2_95:                               # %lpad9
.Ltmp359:                               # EH_LABEL
	b	.LBB2_103
.LBB2_96:                               # %lpad263
.Ltmp320:                               # EH_LABEL
	b	.LBB2_103
.LBB2_97:                               # %lpad216
.Ltmp326:                               # EH_LABEL
	b	.LBB2_103
.LBB2_98:                               # %lpad172
.Ltmp332:                               # EH_LABEL
	b	.LBB2_103
.LBB2_99:                               # %lpad129
.Ltmp338:                               # EH_LABEL
	b	.LBB2_103
.LBB2_100:                              # %lpad86
.Ltmp344:                               # EH_LABEL
	b	.LBB2_103
.LBB2_101:                              # %lpad45
.Ltmp350:                               # EH_LABEL
	b	.LBB2_103
.LBB2_102:                              # %lpad16
.Ltmp356:                               # EH_LABEL
.LBB2_103:                              # %_ZNSt10unique_ptrIA_fSt14default_deleteIS0_EED2Ev.exit255
	move	$s1, $a0
	move	$a0, $s0
	pcaddu18i	$ra, %call36(_ZdaPv)
	jirl	$ra, $ra, 0
	move	$a0, $fp
	pcaddu18i	$ra, %call36(_ZdaPv)
	jirl	$ra, $ra, 0
	move	$a0, $s1
	pcaddu18i	$ra, %call36(_Unwind_Resume)
	jirl	$ra, $ra, 0
.Lfunc_end2:
	.size	_ZL19checkVectorFunctionIifEvSt8functionIFT_PT0_S3_jEES5_PKc, .Lfunc_end2-_ZL19checkVectorFunctionIifEvSt8functionIFT_PT0_S3_jEES5_PKc
	.cfi_endproc
	.section	.gcc_except_table,"a",@progbits
	.p2align	2, 0x0
GCC_except_table2:
.Lexception2:
	.byte	255                             # @LPStart Encoding = omit
	.byte	255                             # @TType Encoding = omit
	.byte	1                               # Call site Encoding = uleb128
	.uleb128 .Lcst_end2-.Lcst_begin2
.Lcst_begin2:
	.uleb128 .Lfunc_begin2-.Lfunc_begin2    # >> Call Site 1 <<
	.uleb128 .Ltmp273-.Lfunc_begin2         #   Call between .Lfunc_begin2 and .Ltmp273
	.byte	0                               #     has no landing pad
	.byte	0                               #   On action: cleanup
	.uleb128 .Ltmp273-.Lfunc_begin2         # >> Call Site 2 <<
	.uleb128 .Ltmp274-.Ltmp273              #   Call between .Ltmp273 and .Ltmp274
	.uleb128 .Ltmp275-.Lfunc_begin2         #     jumps to .Ltmp275
	.byte	0                               #   On action: cleanup
	.uleb128 .Ltmp274-.Lfunc_begin2         # >> Call Site 3 <<
	.uleb128 .Ltmp276-.Ltmp274              #   Call between .Ltmp274 and .Ltmp276
	.byte	0                               #     has no landing pad
	.byte	0                               #   On action: cleanup
	.uleb128 .Ltmp276-.Lfunc_begin2         # >> Call Site 4 <<
	.uleb128 .Ltmp277-.Ltmp276              #   Call between .Ltmp276 and .Ltmp277
	.uleb128 .Ltmp359-.Lfunc_begin2         #     jumps to .Ltmp359
	.byte	0                               #   On action: cleanup
	.uleb128 .Ltmp278-.Lfunc_begin2         # >> Call Site 5 <<
	.uleb128 .Ltmp279-.Ltmp278              #   Call between .Ltmp278 and .Ltmp279
	.uleb128 .Ltmp356-.Lfunc_begin2         #     jumps to .Ltmp356
	.byte	0                               #   On action: cleanup
	.uleb128 .Ltmp282-.Lfunc_begin2         # >> Call Site 6 <<
	.uleb128 .Ltmp283-.Ltmp282              #   Call between .Ltmp282 and .Ltmp283
	.uleb128 .Ltmp353-.Lfunc_begin2         #     jumps to .Ltmp353
	.byte	0                               #   On action: cleanup
	.uleb128 .Ltmp284-.Lfunc_begin2         # >> Call Site 7 <<
	.uleb128 .Ltmp285-.Ltmp284              #   Call between .Ltmp284 and .Ltmp285
	.uleb128 .Ltmp350-.Lfunc_begin2         #     jumps to .Ltmp350
	.byte	0                               #   On action: cleanup
	.uleb128 .Ltmp288-.Lfunc_begin2         # >> Call Site 8 <<
	.uleb128 .Ltmp289-.Ltmp288              #   Call between .Ltmp288 and .Ltmp289
	.uleb128 .Ltmp347-.Lfunc_begin2         #     jumps to .Ltmp347
	.byte	0                               #   On action: cleanup
	.uleb128 .Ltmp290-.Lfunc_begin2         # >> Call Site 9 <<
	.uleb128 .Ltmp291-.Ltmp290              #   Call between .Ltmp290 and .Ltmp291
	.uleb128 .Ltmp344-.Lfunc_begin2         #     jumps to .Ltmp344
	.byte	0                               #   On action: cleanup
	.uleb128 .Ltmp294-.Lfunc_begin2         # >> Call Site 10 <<
	.uleb128 .Ltmp295-.Ltmp294              #   Call between .Ltmp294 and .Ltmp295
	.uleb128 .Ltmp341-.Lfunc_begin2         #     jumps to .Ltmp341
	.byte	0                               #   On action: cleanup
	.uleb128 .Ltmp296-.Lfunc_begin2         # >> Call Site 11 <<
	.uleb128 .Ltmp297-.Ltmp296              #   Call between .Ltmp296 and .Ltmp297
	.uleb128 .Ltmp338-.Lfunc_begin2         #     jumps to .Ltmp338
	.byte	0                               #   On action: cleanup
	.uleb128 .Ltmp300-.Lfunc_begin2         # >> Call Site 12 <<
	.uleb128 .Ltmp301-.Ltmp300              #   Call between .Ltmp300 and .Ltmp301
	.uleb128 .Ltmp335-.Lfunc_begin2         #     jumps to .Ltmp335
	.byte	0                               #   On action: cleanup
	.uleb128 .Ltmp302-.Lfunc_begin2         # >> Call Site 13 <<
	.uleb128 .Ltmp303-.Ltmp302              #   Call between .Ltmp302 and .Ltmp303
	.uleb128 .Ltmp332-.Lfunc_begin2         #     jumps to .Ltmp332
	.byte	0                               #   On action: cleanup
	.uleb128 .Ltmp306-.Lfunc_begin2         # >> Call Site 14 <<
	.uleb128 .Ltmp307-.Ltmp306              #   Call between .Ltmp306 and .Ltmp307
	.uleb128 .Ltmp329-.Lfunc_begin2         #     jumps to .Ltmp329
	.byte	0                               #   On action: cleanup
	.uleb128 .Ltmp308-.Lfunc_begin2         # >> Call Site 15 <<
	.uleb128 .Ltmp309-.Ltmp308              #   Call between .Ltmp308 and .Ltmp309
	.uleb128 .Ltmp326-.Lfunc_begin2         #     jumps to .Ltmp326
	.byte	0                               #   On action: cleanup
	.uleb128 .Ltmp312-.Lfunc_begin2         # >> Call Site 16 <<
	.uleb128 .Ltmp313-.Ltmp312              #   Call between .Ltmp312 and .Ltmp313
	.uleb128 .Ltmp323-.Lfunc_begin2         #     jumps to .Ltmp323
	.byte	0                               #   On action: cleanup
	.uleb128 .Ltmp314-.Lfunc_begin2         # >> Call Site 17 <<
	.uleb128 .Ltmp315-.Ltmp314              #   Call between .Ltmp314 and .Ltmp315
	.uleb128 .Ltmp320-.Lfunc_begin2         #     jumps to .Ltmp320
	.byte	0                               #   On action: cleanup
	.uleb128 .Ltmp315-.Lfunc_begin2         # >> Call Site 18 <<
	.uleb128 .Ltmp357-.Ltmp315              #   Call between .Ltmp315 and .Ltmp357
	.byte	0                               #     has no landing pad
	.byte	0                               #   On action: cleanup
	.uleb128 .Ltmp357-.Lfunc_begin2         # >> Call Site 19 <<
	.uleb128 .Ltmp358-.Ltmp357              #   Call between .Ltmp357 and .Ltmp358
	.uleb128 .Ltmp359-.Lfunc_begin2         #     jumps to .Ltmp359
	.byte	0                               #   On action: cleanup
	.uleb128 .Ltmp354-.Lfunc_begin2         # >> Call Site 20 <<
	.uleb128 .Ltmp281-.Ltmp354              #   Call between .Ltmp354 and .Ltmp281
	.uleb128 .Ltmp356-.Lfunc_begin2         #     jumps to .Ltmp356
	.byte	0                               #   On action: cleanup
	.uleb128 .Ltmp351-.Lfunc_begin2         # >> Call Site 21 <<
	.uleb128 .Ltmp352-.Ltmp351              #   Call between .Ltmp351 and .Ltmp352
	.uleb128 .Ltmp353-.Lfunc_begin2         #     jumps to .Ltmp353
	.byte	0                               #   On action: cleanup
	.uleb128 .Ltmp348-.Lfunc_begin2         # >> Call Site 22 <<
	.uleb128 .Ltmp287-.Ltmp348              #   Call between .Ltmp348 and .Ltmp287
	.uleb128 .Ltmp350-.Lfunc_begin2         #     jumps to .Ltmp350
	.byte	0                               #   On action: cleanup
	.uleb128 .Ltmp345-.Lfunc_begin2         # >> Call Site 23 <<
	.uleb128 .Ltmp346-.Ltmp345              #   Call between .Ltmp345 and .Ltmp346
	.uleb128 .Ltmp347-.Lfunc_begin2         #     jumps to .Ltmp347
	.byte	0                               #   On action: cleanup
	.uleb128 .Ltmp342-.Lfunc_begin2         # >> Call Site 24 <<
	.uleb128 .Ltmp293-.Ltmp342              #   Call between .Ltmp342 and .Ltmp293
	.uleb128 .Ltmp344-.Lfunc_begin2         #     jumps to .Ltmp344
	.byte	0                               #   On action: cleanup
	.uleb128 .Ltmp339-.Lfunc_begin2         # >> Call Site 25 <<
	.uleb128 .Ltmp340-.Ltmp339              #   Call between .Ltmp339 and .Ltmp340
	.uleb128 .Ltmp341-.Lfunc_begin2         #     jumps to .Ltmp341
	.byte	0                               #   On action: cleanup
	.uleb128 .Ltmp336-.Lfunc_begin2         # >> Call Site 26 <<
	.uleb128 .Ltmp299-.Ltmp336              #   Call between .Ltmp336 and .Ltmp299
	.uleb128 .Ltmp338-.Lfunc_begin2         #     jumps to .Ltmp338
	.byte	0                               #   On action: cleanup
	.uleb128 .Ltmp333-.Lfunc_begin2         # >> Call Site 27 <<
	.uleb128 .Ltmp334-.Ltmp333              #   Call between .Ltmp333 and .Ltmp334
	.uleb128 .Ltmp335-.Lfunc_begin2         #     jumps to .Ltmp335
	.byte	0                               #   On action: cleanup
	.uleb128 .Ltmp330-.Lfunc_begin2         # >> Call Site 28 <<
	.uleb128 .Ltmp305-.Ltmp330              #   Call between .Ltmp330 and .Ltmp305
	.uleb128 .Ltmp332-.Lfunc_begin2         #     jumps to .Ltmp332
	.byte	0                               #   On action: cleanup
	.uleb128 .Ltmp327-.Lfunc_begin2         # >> Call Site 29 <<
	.uleb128 .Ltmp328-.Ltmp327              #   Call between .Ltmp327 and .Ltmp328
	.uleb128 .Ltmp329-.Lfunc_begin2         #     jumps to .Ltmp329
	.byte	0                               #   On action: cleanup
	.uleb128 .Ltmp324-.Lfunc_begin2         # >> Call Site 30 <<
	.uleb128 .Ltmp311-.Ltmp324              #   Call between .Ltmp324 and .Ltmp311
	.uleb128 .Ltmp326-.Lfunc_begin2         #     jumps to .Ltmp326
	.byte	0                               #   On action: cleanup
	.uleb128 .Ltmp321-.Lfunc_begin2         # >> Call Site 31 <<
	.uleb128 .Ltmp322-.Ltmp321              #   Call between .Ltmp321 and .Ltmp322
	.uleb128 .Ltmp323-.Lfunc_begin2         #     jumps to .Ltmp323
	.byte	0                               #   On action: cleanup
	.uleb128 .Ltmp318-.Lfunc_begin2         # >> Call Site 32 <<
	.uleb128 .Ltmp317-.Ltmp318              #   Call between .Ltmp318 and .Ltmp317
	.uleb128 .Ltmp320-.Lfunc_begin2         #     jumps to .Ltmp320
	.byte	0                               #   On action: cleanup
	.uleb128 .Ltmp317-.Lfunc_begin2         # >> Call Site 33 <<
	.uleb128 .Lfunc_end2-.Ltmp317           #   Call between .Ltmp317 and .Lfunc_end2
	.byte	0                               #     has no landing pad
	.byte	0                               #   On action: cleanup
.Lcst_end2:
	.p2align	2, 0x0
                                        # -- End function
	.text
	.p2align	5                               # -- Begin function _ZL19checkVectorFunctionIssEvSt8functionIFT_PT0_S3_jEES5_PKc
	.type	_ZL19checkVectorFunctionIssEvSt8functionIFT_PT0_S3_jEES5_PKc,@function
_ZL19checkVectorFunctionIssEvSt8functionIFT_PT0_S3_jEES5_PKc: # @_ZL19checkVectorFunctionIssEvSt8functionIFT_PT0_S3_jEES5_PKc
.Lfunc_begin3:
	.cfi_startproc
	.cfi_personality 155, DW.ref.__gxx_personality_v0
	.cfi_lsda 27, .Lexception3
# %bb.0:                                # %entry
	addi.d	$sp, $sp, -128
	.cfi_def_cfa_offset 128
	st.d	$ra, $sp, 120                   # 8-byte Folded Spill
	st.d	$fp, $sp, 112                   # 8-byte Folded Spill
	st.d	$s0, $sp, 104                   # 8-byte Folded Spill
	st.d	$s1, $sp, 96                    # 8-byte Folded Spill
	st.d	$s2, $sp, 88                    # 8-byte Folded Spill
	st.d	$s3, $sp, 80                    # 8-byte Folded Spill
	st.d	$s4, $sp, 72                    # 8-byte Folded Spill
	st.d	$s5, $sp, 64                    # 8-byte Folded Spill
	st.d	$s6, $sp, 56                    # 8-byte Folded Spill
	.cfi_offset 1, -8
	.cfi_offset 22, -16
	.cfi_offset 23, -24
	.cfi_offset 24, -32
	.cfi_offset 25, -40
	.cfi_offset 26, -48
	.cfi_offset 27, -56
	.cfi_offset 28, -64
	.cfi_offset 29, -72
	move	$fp, $a2
	move	$s1, $a1
	move	$s2, $a0
	pcalau12i	$a0, %got_pc_hi20(_ZSt4cout)
	ld.d	$s0, $a0, %got_pc_lo12(_ZSt4cout)
	pcalau12i	$a0, %pc_hi20(.L.str.12)
	addi.d	$a1, $a0, %pc_lo12(.L.str.12)
	ori	$a2, $zero, 9
	move	$a0, $s0
	pcaddu18i	$ra, %call36(_ZSt16__ostream_insertIcSt11char_traitsIcEERSt13basic_ostreamIT_T0_ES6_PKS3_l)
	jirl	$ra, $ra, 0
	beqz	$fp, .LBB3_2
# %bb.1:                                # %if.else.i
	move	$a0, $fp
	pcaddu18i	$ra, %call36(strlen)
	jirl	$ra, $ra, 0
	move	$a2, $a0
	pcalau12i	$a0, %got_pc_hi20(_ZSt4cout)
	ld.d	$a0, $a0, %got_pc_lo12(_ZSt4cout)
	move	$a1, $fp
	pcaddu18i	$ra, %call36(_ZSt16__ostream_insertIcSt11char_traitsIcEERSt13basic_ostreamIT_T0_ES6_PKS3_l)
	jirl	$ra, $ra, 0
	b	.LBB3_3
.LBB3_2:                                # %if.then.i
	ld.d	$a0, $s0, 0
	ld.d	$a0, $a0, -24
	add.d	$a0, $s0, $a0
	ld.w	$a1, $a0, 32
	ori	$a1, $a1, 1
	pcaddu18i	$ra, %call36(_ZNSt9basic_iosIcSt11char_traitsIcEE5clearESt12_Ios_Iostate)
	jirl	$ra, $ra, 0
.LBB3_3:                                # %_ZStlsISt11char_traitsIcEERSt13basic_ostreamIcT_ES5_PKc.exit
	pcalau12i	$a0, %got_pc_hi20(_ZSt4cout)
	ld.d	$a0, $a0, %got_pc_lo12(_ZSt4cout)
	pcalau12i	$a1, %pc_hi20(.L.str.13)
	addi.d	$a1, $a1, %pc_lo12(.L.str.13)
	ori	$a2, $zero, 1
	pcaddu18i	$ra, %call36(_ZSt16__ostream_insertIcSt11char_traitsIcEERSt13basic_ostreamIT_T0_ES6_PKS3_l)
	jirl	$ra, $ra, 0
	ori	$a0, $zero, 2000
	ori	$s4, $zero, 2000
	pcaddu18i	$ra, %call36(_Znam)
	jirl	$ra, $ra, 0
	move	$fp, $a0
.Ltmp360:                               # EH_LABEL
	ori	$a0, $zero, 2000
	pcaddu18i	$ra, %call36(_Znam)
	jirl	$ra, $ra, 0
.Ltmp361:                               # EH_LABEL
# %bb.4:                                # %invoke.cont
	move	$s0, $a0
	lu12i.w	$s5, 524280
	st.w	$s5, $sp, 48
	pcalau12i	$a0, %pc_hi20(_ZL3rng)
	addi.d	$s3, $a0, %pc_lo12(_ZL3rng)
	move	$s6, $zero
	.p2align	4, , 16
.LBB3_5:                                # %for.body.i
                                        # =>This Inner Loop Header: Depth=1
.Ltmp363:                               # EH_LABEL
	addi.d	$a0, $sp, 48
	addi.d	$a2, $sp, 48
	move	$a1, $s3
	pcaddu18i	$ra, %call36(_ZNSt24uniform_int_distributionIsEclISt23mersenne_twister_engineImLm32ELm624ELm397ELm31ELm2567483615ELm11ELm4294967295ELm7ELm2636928640ELm15ELm4022730752ELm18ELm1812433253EEEEsRT_RKNS0_10param_typeE)
	jirl	$ra, $ra, 0
.Ltmp364:                               # EH_LABEL
# %bb.6:                                # %call.i.i64.noexc
                                        #   in Loop: Header=BB3_5 Depth=1
	stx.h	$a0, $fp, $s6
	addi.d	$s6, $s6, 2
	bne	$s6, $s4, .LBB3_5
# %bb.7:                                # %invoke.cont7
	st.w	$s5, $sp, 48
	pcalau12i	$a0, %pc_hi20(_ZL3rng)
	addi.d	$s3, $a0, %pc_lo12(_ZL3rng)
	move	$s4, $zero
	ori	$s5, $zero, 2000
	.p2align	4, , 16
.LBB3_8:                                # %for.body.i68
                                        # =>This Inner Loop Header: Depth=1
.Ltmp366:                               # EH_LABEL
	addi.d	$a0, $sp, 48
	addi.d	$a2, $sp, 48
	move	$a1, $s3
	pcaddu18i	$ra, %call36(_ZNSt24uniform_int_distributionIsEclISt23mersenne_twister_engineImLm32ELm624ELm397ELm31ELm2567483615ELm11ELm4294967295ELm7ELm2636928640ELm15ELm4022730752ELm18ELm1812433253EEEEsRT_RKNS0_10param_typeE)
	jirl	$ra, $ra, 0
.Ltmp367:                               # EH_LABEL
# %bb.9:                                # %call.i.i70.noexc
                                        #   in Loop: Header=BB3_8 Depth=1
	stx.h	$a0, $s0, $s4
	addi.d	$s4, $s4, 2
	bne	$s4, $s5, .LBB3_8
# %bb.10:                               # %invoke.cont8
	ld.d	$a0, $s2, 16
	st.d	$fp, $sp, 48
	st.d	$s0, $sp, 40
	ori	$a1, $zero, 1000
	st.w	$a1, $sp, 36
	beqz	$a0, .LBB3_58
# %bb.11:                               # %if.end.i
	ld.d	$a4, $s2, 24
.Ltmp369:                               # EH_LABEL
	addi.d	$a1, $sp, 48
	addi.d	$a2, $sp, 40
	addi.d	$a3, $sp, 36
	move	$a0, $s2
	jirl	$ra, $a4, 0
.Ltmp370:                               # EH_LABEL
# %bb.12:                               # %invoke.cont14
	move	$s3, $a0
	ld.d	$a0, $s1, 16
	st.d	$fp, $sp, 48
	st.d	$s0, $sp, 40
	ori	$a1, $zero, 1000
	st.w	$a1, $sp, 36
	beqz	$a0, .LBB3_60
# %bb.13:                               # %if.end.i83
	ld.d	$a4, $s1, 24
.Ltmp371:                               # EH_LABEL
	addi.d	$a1, $sp, 48
	addi.d	$a2, $sp, 40
	addi.d	$a3, $sp, 36
	move	$a0, $s1
	jirl	$ra, $a4, 0
.Ltmp372:                               # EH_LABEL
# %bb.14:                               # %invoke.cont21
	bne	$s3, $a0, .LBB3_62
# %bb.15:                               # %vector.body.preheader
	move	$a0, $zero
	lu12i.w	$a1, 7
	ori	$s4, $a1, 4095
	vreplgr2vr.h	$vr1, $s4
	vldi	$vr0, -2688
	ori	$a1, $zero, 1984
	.p2align	4, , 16
.LBB3_16:                               # %vector.body
                                        # =>This Inner Loop Header: Depth=1
	add.d	$a2, $fp, $a0
	vstx	$vr1, $fp, $a0
	vst	$vr1, $a2, 16
	add.d	$a2, $s0, $a0
	vstx	$vr0, $s0, $a0
	addi.d	$a0, $a0, 32
	vst	$vr0, $a2, 16
	bne	$a0, $a1, .LBB3_16
# %bb.17:                               # %vec.epilog.vector.body
	vst	$vr1, $sp, 16                   # 16-byte Folded Spill
	vst	$vr1, $fp, 1984
	vldi	$vr0, -2688
	vst	$vr0, $s0, 1984
	ld.d	$a0, $s2, 16
	st.d	$fp, $sp, 48
	st.d	$s0, $sp, 40
	ori	$a1, $zero, 1000
	st.w	$a1, $sp, 36
	beqz	$a0, .LBB3_63
# %bb.18:                               # %if.end.i94
	ld.d	$a4, $s2, 24
.Ltmp375:                               # EH_LABEL
	addi.d	$a1, $sp, 48
	addi.d	$a2, $sp, 40
	addi.d	$a3, $sp, 36
	move	$a0, $s2
	jirl	$ra, $a4, 0
.Ltmp376:                               # EH_LABEL
# %bb.19:                               # %invoke.cont44
	move	$s3, $a0
	ld.d	$a0, $s1, 16
	st.d	$fp, $sp, 48
	st.d	$s0, $sp, 40
	ori	$a1, $zero, 1000
	st.w	$a1, $sp, 36
	beqz	$a0, .LBB3_65
# %bb.20:                               # %if.end.i108
	ld.d	$a4, $s1, 24
.Ltmp377:                               # EH_LABEL
	addi.d	$a1, $sp, 48
	addi.d	$a2, $sp, 40
	addi.d	$a3, $sp, 36
	move	$a0, $s1
	jirl	$ra, $a4, 0
.Ltmp378:                               # EH_LABEL
# %bb.21:                               # %invoke.cont52
	vld	$vr1, $sp, 16                   # 16-byte Folded Reload
	bne	$s3, $a0, .LBB3_67
# %bb.22:                               # %vector.body343.preheader
	move	$a0, $zero
	vldi	$vr0, -2688
	ori	$a1, $zero, 1984
	.p2align	4, , 16
.LBB3_23:                               # %vector.body343
                                        # =>This Inner Loop Header: Depth=1
	add.d	$a2, $fp, $a0
	vstx	$vr0, $fp, $a0
	vst	$vr0, $a2, 16
	add.d	$a2, $s0, $a0
	vstx	$vr1, $s0, $a0
	addi.d	$a0, $a0, 32
	vst	$vr1, $a2, 16
	bne	$a0, $a1, .LBB3_23
# %bb.24:                               # %vec.epilog.vector.body351
	vldi	$vr0, -2688
	vst	$vr0, $fp, 1984
	vst	$vr1, $s0, 1984
	ld.d	$a0, $s2, 16
	st.d	$fp, $sp, 48
	st.d	$s0, $sp, 40
	ori	$a1, $zero, 1000
	st.w	$a1, $sp, 36
	beqz	$a0, .LBB3_68
# %bb.25:                               # %if.end.i121
	ld.d	$a4, $s2, 24
.Ltmp381:                               # EH_LABEL
	addi.d	$a1, $sp, 48
	addi.d	$a2, $sp, 40
	addi.d	$a3, $sp, 36
	move	$a0, $s2
	jirl	$ra, $a4, 0
.Ltmp382:                               # EH_LABEL
# %bb.26:                               # %invoke.cont87
	move	$s3, $a0
	ld.d	$a0, $s1, 16
	st.d	$fp, $sp, 48
	st.d	$s0, $sp, 40
	ori	$a1, $zero, 1000
	st.w	$a1, $sp, 36
	beqz	$a0, .LBB3_70
# %bb.27:                               # %if.end.i136
	ld.d	$a4, $s1, 24
.Ltmp383:                               # EH_LABEL
	addi.d	$a1, $sp, 48
	addi.d	$a2, $sp, 40
	addi.d	$a3, $sp, 36
	move	$a0, $s1
	jirl	$ra, $a4, 0
.Ltmp384:                               # EH_LABEL
# %bb.28:                               # %invoke.cont95
	bne	$s3, $a0, .LBB3_72
# %bb.29:                               # %vector.body360.preheader
	move	$a0, $zero
	vldi	$vr0, -2688
	ori	$a1, $zero, 1984
	.p2align	4, , 16
.LBB3_30:                               # %vector.body360
                                        # =>This Inner Loop Header: Depth=1
	add.d	$a2, $s0, $a0
	vstx	$vr0, $s0, $a0
	vst	$vr0, $a2, 16
	add.d	$a2, $fp, $a0
	vstx	$vr0, $fp, $a0
	addi.d	$a0, $a0, 32
	vst	$vr0, $a2, 16
	bne	$a0, $a1, .LBB3_30
# %bb.31:                               # %vec.epilog.vector.body368
	vldi	$vr0, -2688
	vst	$vr0, $s0, 1984
	vst	$vr0, $fp, 1984
	st.h	$s4, $fp, 1996
	ld.d	$a0, $s2, 16
	st.d	$fp, $sp, 48
	st.d	$s0, $sp, 40
	ori	$a1, $zero, 1000
	st.w	$a1, $sp, 36
	beqz	$a0, .LBB3_73
# %bb.32:                               # %if.end.i150
	ld.d	$a4, $s2, 24
.Ltmp387:                               # EH_LABEL
	addi.d	$a1, $sp, 48
	addi.d	$a2, $sp, 40
	addi.d	$a3, $sp, 36
	move	$a0, $s2
	jirl	$ra, $a4, 0
.Ltmp388:                               # EH_LABEL
# %bb.33:                               # %invoke.cont132
	move	$s3, $a0
	ld.d	$a0, $s1, 16
	st.d	$fp, $sp, 48
	st.d	$s0, $sp, 40
	ori	$a1, $zero, 1000
	st.w	$a1, $sp, 36
	beqz	$a0, .LBB3_75
# %bb.34:                               # %if.end.i165
	ld.d	$a4, $s1, 24
.Ltmp389:                               # EH_LABEL
	addi.d	$a1, $sp, 48
	addi.d	$a2, $sp, 40
	addi.d	$a3, $sp, 36
	move	$a0, $s1
	jirl	$ra, $a4, 0
.Ltmp390:                               # EH_LABEL
# %bb.35:                               # %invoke.cont140
	bne	$s3, $a0, .LBB3_77
# %bb.36:                               # %vector.body377.preheader
	move	$a0, $zero
	vldi	$vr0, -2688
	ori	$a1, $zero, 1984
	.p2align	4, , 16
.LBB3_37:                               # %vector.body377
                                        # =>This Inner Loop Header: Depth=1
	add.d	$a2, $s0, $a0
	vstx	$vr0, $s0, $a0
	vst	$vr0, $a2, 16
	add.d	$a2, $fp, $a0
	vstx	$vr0, $fp, $a0
	addi.d	$a0, $a0, 32
	vst	$vr0, $a2, 16
	bne	$a0, $a1, .LBB3_37
# %bb.38:                               # %vec.epilog.vector.body385
	vldi	$vr0, -2688
	vst	$vr0, $s0, 1984
	vst	$vr0, $fp, 1984
	st.h	$s4, $fp, 0
	ld.d	$a0, $s2, 16
	st.d	$fp, $sp, 48
	st.d	$s0, $sp, 40
	ori	$a1, $zero, 1000
	st.w	$a1, $sp, 36
	beqz	$a0, .LBB3_78
# %bb.39:                               # %if.end.i179
	ld.d	$a4, $s2, 24
.Ltmp393:                               # EH_LABEL
	addi.d	$a1, $sp, 48
	addi.d	$a2, $sp, 40
	addi.d	$a3, $sp, 36
	move	$a0, $s2
	jirl	$ra, $a4, 0
.Ltmp394:                               # EH_LABEL
# %bb.40:                               # %invoke.cont177
	move	$s3, $a0
	ld.d	$a0, $s1, 16
	st.d	$fp, $sp, 48
	st.d	$s0, $sp, 40
	ori	$a1, $zero, 1000
	st.w	$a1, $sp, 36
	beqz	$a0, .LBB3_80
# %bb.41:                               # %if.end.i194
	ld.d	$a4, $s1, 24
.Ltmp395:                               # EH_LABEL
	addi.d	$a1, $sp, 48
	addi.d	$a2, $sp, 40
	addi.d	$a3, $sp, 36
	move	$a0, $s1
	jirl	$ra, $a4, 0
.Ltmp396:                               # EH_LABEL
# %bb.42:                               # %invoke.cont185
	bne	$s3, $a0, .LBB3_82
# %bb.43:                               # %vector.body394.preheader
	move	$a0, $zero
	vldi	$vr0, -2688
	ori	$a1, $zero, 1984
	.p2align	4, , 16
.LBB3_44:                               # %vector.body394
                                        # =>This Inner Loop Header: Depth=1
	add.d	$a2, $s0, $a0
	vstx	$vr0, $s0, $a0
	vst	$vr0, $a2, 16
	add.d	$a2, $fp, $a0
	vstx	$vr0, $fp, $a0
	addi.d	$a0, $a0, 32
	vst	$vr0, $a2, 16
	bne	$a0, $a1, .LBB3_44
# %bb.45:                               # %vec.epilog.vector.body402
	vldi	$vr0, -2688
	vst	$vr0, $s0, 1984
	vst	$vr0, $fp, 1984
	st.h	$s4, $fp, 1998
	ld.d	$a0, $s2, 16
	st.d	$fp, $sp, 48
	st.d	$s0, $sp, 40
	ori	$a1, $zero, 1000
	st.w	$a1, $sp, 36
	beqz	$a0, .LBB3_83
# %bb.46:                               # %if.end.i208
	ld.d	$a4, $s2, 24
.Ltmp399:                               # EH_LABEL
	addi.d	$a1, $sp, 48
	addi.d	$a2, $sp, 40
	addi.d	$a3, $sp, 36
	move	$a0, $s2
	jirl	$ra, $a4, 0
.Ltmp400:                               # EH_LABEL
# %bb.47:                               # %invoke.cont223
	move	$s3, $a0
	ld.d	$a0, $s1, 16
	st.d	$fp, $sp, 48
	st.d	$s0, $sp, 40
	ori	$a1, $zero, 1000
	st.w	$a1, $sp, 36
	beqz	$a0, .LBB3_85
# %bb.48:                               # %if.end.i223
	ld.d	$a4, $s1, 24
.Ltmp401:                               # EH_LABEL
	addi.d	$a1, $sp, 48
	addi.d	$a2, $sp, 40
	addi.d	$a3, $sp, 36
	move	$a0, $s1
	jirl	$ra, $a4, 0
.Ltmp402:                               # EH_LABEL
# %bb.49:                               # %invoke.cont231
	bne	$s3, $a0, .LBB3_87
# %bb.50:                               # %vector.body411.preheader
	move	$a0, $zero
	vldi	$vr0, -2688
	ori	$a1, $zero, 1984
	.p2align	4, , 16
.LBB3_51:                               # %vector.body411
                                        # =>This Inner Loop Header: Depth=1
	add.d	$a2, $s0, $a0
	vstx	$vr0, $s0, $a0
	vst	$vr0, $a2, 16
	add.d	$a2, $fp, $a0
	vstx	$vr0, $fp, $a0
	addi.d	$a0, $a0, 32
	vst	$vr0, $a2, 16
	bne	$a0, $a1, .LBB3_51
# %bb.52:                               # %vec.epilog.vector.body419
	vldi	$vr0, -2688
	vst	$vr0, $s0, 1984
	vst	$vr0, $fp, 1984
	st.h	$s4, $fp, 1998
	st.h	$s4, $fp, 0
	ld.d	$a0, $s2, 16
	st.d	$fp, $sp, 48
	st.d	$s0, $sp, 40
	ori	$a1, $zero, 1000
	st.w	$a1, $sp, 36
	beqz	$a0, .LBB3_88
# %bb.53:                               # %if.end.i238
	ld.d	$a4, $s2, 24
.Ltmp405:                               # EH_LABEL
	addi.d	$a1, $sp, 48
	addi.d	$a2, $sp, 40
	addi.d	$a3, $sp, 36
	move	$a0, $s2
	jirl	$ra, $a4, 0
.Ltmp406:                               # EH_LABEL
# %bb.54:                               # %invoke.cont272
	move	$s2, $a0
	ld.d	$a0, $s1, 16
	st.d	$fp, $sp, 48
	st.d	$s0, $sp, 40
	ori	$a1, $zero, 1000
	st.w	$a1, $sp, 36
	beqz	$a0, .LBB3_90
# %bb.55:                               # %if.end.i253
	ld.d	$a4, $s1, 24
.Ltmp407:                               # EH_LABEL
	addi.d	$a1, $sp, 48
	addi.d	$a2, $sp, 40
	addi.d	$a3, $sp, 36
	move	$a0, $s1
	jirl	$ra, $a4, 0
.Ltmp408:                               # EH_LABEL
# %bb.56:                               # %invoke.cont280
	bne	$s2, $a0, .LBB3_92
# %bb.57:                               # %_ZNSt10unique_ptrIA_sSt14default_deleteIS0_EED2Ev.exit263
	move	$a0, $s0
	pcaddu18i	$ra, %call36(_ZdaPv)
	jirl	$ra, $ra, 0
	move	$a0, $fp
	pcaddu18i	$ra, %call36(_ZdaPv)
	jirl	$ra, $ra, 0
	ld.d	$s6, $sp, 56                    # 8-byte Folded Reload
	ld.d	$s5, $sp, 64                    # 8-byte Folded Reload
	ld.d	$s4, $sp, 72                    # 8-byte Folded Reload
	ld.d	$s3, $sp, 80                    # 8-byte Folded Reload
	ld.d	$s2, $sp, 88                    # 8-byte Folded Reload
	ld.d	$s1, $sp, 96                    # 8-byte Folded Reload
	ld.d	$s0, $sp, 104                   # 8-byte Folded Reload
	ld.d	$fp, $sp, 112                   # 8-byte Folded Reload
	ld.d	$ra, $sp, 120                   # 8-byte Folded Reload
	addi.d	$sp, $sp, 128
	ret
.LBB3_58:                               # %if.then.i76
.Ltmp450:                               # EH_LABEL
	pcaddu18i	$ra, %call36(_ZSt25__throw_bad_function_callv)
	jirl	$ra, $ra, 0
.Ltmp451:                               # EH_LABEL
# %bb.59:                               # %.noexc
.LBB3_60:                               # %if.then.i85
.Ltmp447:                               # EH_LABEL
	pcaddu18i	$ra, %call36(_ZSt25__throw_bad_function_callv)
	jirl	$ra, $ra, 0
.Ltmp448:                               # EH_LABEL
# %bb.61:                               # %.noexc86
.LBB3_62:                               # %if.then
.Ltmp373:                               # EH_LABEL
	pcalau12i	$a0, %got_pc_hi20(_ZSt4cerr)
	ld.d	$a0, $a0, %got_pc_lo12(_ZSt4cerr)
	pcalau12i	$a1, %pc_hi20(.L.str.14)
	addi.d	$a1, $a1, %pc_lo12(.L.str.14)
	pcaddu18i	$ra, %call36(_ZStlsISt11char_traitsIcEERSt13basic_ostreamIcT_ES5_PKc)
	jirl	$ra, $ra, 0
.Ltmp374:                               # EH_LABEL
	b	.LBB3_93
.LBB3_63:                               # %if.then.i96
.Ltmp444:                               # EH_LABEL
	pcaddu18i	$ra, %call36(_ZSt25__throw_bad_function_callv)
	jirl	$ra, $ra, 0
.Ltmp445:                               # EH_LABEL
# %bb.64:                               # %.noexc97
.LBB3_65:                               # %if.then.i110
.Ltmp441:                               # EH_LABEL
	pcaddu18i	$ra, %call36(_ZSt25__throw_bad_function_callv)
	jirl	$ra, $ra, 0
.Ltmp442:                               # EH_LABEL
# %bb.66:                               # %.noexc111
.LBB3_67:                               # %if.then57
.Ltmp379:                               # EH_LABEL
	pcalau12i	$a0, %got_pc_hi20(_ZSt4cerr)
	ld.d	$a0, $a0, %got_pc_lo12(_ZSt4cerr)
	pcalau12i	$a1, %pc_hi20(.L.str.14)
	addi.d	$a1, $a1, %pc_lo12(.L.str.14)
	pcaddu18i	$ra, %call36(_ZStlsISt11char_traitsIcEERSt13basic_ostreamIcT_ES5_PKc)
	jirl	$ra, $ra, 0
.Ltmp380:                               # EH_LABEL
	b	.LBB3_93
.LBB3_68:                               # %if.then.i123
.Ltmp438:                               # EH_LABEL
	pcaddu18i	$ra, %call36(_ZSt25__throw_bad_function_callv)
	jirl	$ra, $ra, 0
.Ltmp439:                               # EH_LABEL
# %bb.69:                               # %.noexc124
.LBB3_70:                               # %if.then.i138
.Ltmp435:                               # EH_LABEL
	pcaddu18i	$ra, %call36(_ZSt25__throw_bad_function_callv)
	jirl	$ra, $ra, 0
.Ltmp436:                               # EH_LABEL
# %bb.71:                               # %.noexc139
.LBB3_72:                               # %if.then100
.Ltmp385:                               # EH_LABEL
	pcalau12i	$a0, %got_pc_hi20(_ZSt4cerr)
	ld.d	$a0, $a0, %got_pc_lo12(_ZSt4cerr)
	pcalau12i	$a1, %pc_hi20(.L.str.14)
	addi.d	$a1, $a1, %pc_lo12(.L.str.14)
	pcaddu18i	$ra, %call36(_ZStlsISt11char_traitsIcEERSt13basic_ostreamIcT_ES5_PKc)
	jirl	$ra, $ra, 0
.Ltmp386:                               # EH_LABEL
	b	.LBB3_93
.LBB3_73:                               # %if.then.i152
.Ltmp432:                               # EH_LABEL
	pcaddu18i	$ra, %call36(_ZSt25__throw_bad_function_callv)
	jirl	$ra, $ra, 0
.Ltmp433:                               # EH_LABEL
# %bb.74:                               # %.noexc153
.LBB3_75:                               # %if.then.i167
.Ltmp429:                               # EH_LABEL
	pcaddu18i	$ra, %call36(_ZSt25__throw_bad_function_callv)
	jirl	$ra, $ra, 0
.Ltmp430:                               # EH_LABEL
# %bb.76:                               # %.noexc168
.LBB3_77:                               # %if.then145
.Ltmp391:                               # EH_LABEL
	pcalau12i	$a0, %got_pc_hi20(_ZSt4cerr)
	ld.d	$a0, $a0, %got_pc_lo12(_ZSt4cerr)
	pcalau12i	$a1, %pc_hi20(.L.str.14)
	addi.d	$a1, $a1, %pc_lo12(.L.str.14)
	pcaddu18i	$ra, %call36(_ZStlsISt11char_traitsIcEERSt13basic_ostreamIcT_ES5_PKc)
	jirl	$ra, $ra, 0
.Ltmp392:                               # EH_LABEL
	b	.LBB3_93
.LBB3_78:                               # %if.then.i181
.Ltmp426:                               # EH_LABEL
	pcaddu18i	$ra, %call36(_ZSt25__throw_bad_function_callv)
	jirl	$ra, $ra, 0
.Ltmp427:                               # EH_LABEL
# %bb.79:                               # %.noexc182
.LBB3_80:                               # %if.then.i196
.Ltmp423:                               # EH_LABEL
	pcaddu18i	$ra, %call36(_ZSt25__throw_bad_function_callv)
	jirl	$ra, $ra, 0
.Ltmp424:                               # EH_LABEL
# %bb.81:                               # %.noexc197
.LBB3_82:                               # %if.then190
.Ltmp397:                               # EH_LABEL
	pcalau12i	$a0, %got_pc_hi20(_ZSt4cerr)
	ld.d	$a0, $a0, %got_pc_lo12(_ZSt4cerr)
	pcalau12i	$a1, %pc_hi20(.L.str.14)
	addi.d	$a1, $a1, %pc_lo12(.L.str.14)
	pcaddu18i	$ra, %call36(_ZStlsISt11char_traitsIcEERSt13basic_ostreamIcT_ES5_PKc)
	jirl	$ra, $ra, 0
.Ltmp398:                               # EH_LABEL
	b	.LBB3_93
.LBB3_83:                               # %if.then.i210
.Ltmp420:                               # EH_LABEL
	pcaddu18i	$ra, %call36(_ZSt25__throw_bad_function_callv)
	jirl	$ra, $ra, 0
.Ltmp421:                               # EH_LABEL
# %bb.84:                               # %.noexc211
.LBB3_85:                               # %if.then.i225
.Ltmp417:                               # EH_LABEL
	pcaddu18i	$ra, %call36(_ZSt25__throw_bad_function_callv)
	jirl	$ra, $ra, 0
.Ltmp418:                               # EH_LABEL
# %bb.86:                               # %.noexc226
.LBB3_87:                               # %if.then236
.Ltmp403:                               # EH_LABEL
	pcalau12i	$a0, %got_pc_hi20(_ZSt4cerr)
	ld.d	$a0, $a0, %got_pc_lo12(_ZSt4cerr)
	pcalau12i	$a1, %pc_hi20(.L.str.14)
	addi.d	$a1, $a1, %pc_lo12(.L.str.14)
	pcaddu18i	$ra, %call36(_ZStlsISt11char_traitsIcEERSt13basic_ostreamIcT_ES5_PKc)
	jirl	$ra, $ra, 0
.Ltmp404:                               # EH_LABEL
	b	.LBB3_93
.LBB3_88:                               # %if.then.i240
.Ltmp414:                               # EH_LABEL
	pcaddu18i	$ra, %call36(_ZSt25__throw_bad_function_callv)
	jirl	$ra, $ra, 0
.Ltmp415:                               # EH_LABEL
# %bb.89:                               # %.noexc241
.LBB3_90:                               # %if.then.i255
.Ltmp411:                               # EH_LABEL
	pcaddu18i	$ra, %call36(_ZSt25__throw_bad_function_callv)
	jirl	$ra, $ra, 0
.Ltmp412:                               # EH_LABEL
# %bb.91:                               # %.noexc256
.LBB3_92:                               # %if.then285
.Ltmp409:                               # EH_LABEL
	pcalau12i	$a0, %got_pc_hi20(_ZSt4cerr)
	ld.d	$a0, $a0, %got_pc_lo12(_ZSt4cerr)
	pcalau12i	$a1, %pc_hi20(.L.str.14)
	addi.d	$a1, $a1, %pc_lo12(.L.str.14)
	pcaddu18i	$ra, %call36(_ZStlsISt11char_traitsIcEERSt13basic_ostreamIcT_ES5_PKc)
	jirl	$ra, $ra, 0
.Ltmp410:                               # EH_LABEL
.LBB3_93:                               # %invoke.cont25
	ori	$a0, $zero, 1
	pcaddu18i	$ra, %call36(exit)
	jirl	$ra, $ra, 0
.LBB3_94:                               # %lpad
.Ltmp362:                               # EH_LABEL
	move	$s1, $a0
	move	$a0, $fp
	pcaddu18i	$ra, %call36(_ZdaPv)
	jirl	$ra, $ra, 0
	move	$a0, $s1
	pcaddu18i	$ra, %call36(_Unwind_Resume)
	jirl	$ra, $ra, 0
.LBB3_95:                               # %lpad267
.Ltmp416:                               # EH_LABEL
	b	.LBB3_111
.LBB3_96:                               # %lpad218
.Ltmp422:                               # EH_LABEL
	b	.LBB3_111
.LBB3_97:                               # %lpad172
.Ltmp428:                               # EH_LABEL
	b	.LBB3_111
.LBB3_98:                               # %lpad127
.Ltmp434:                               # EH_LABEL
	b	.LBB3_111
.LBB3_99:                               # %lpad82
.Ltmp440:                               # EH_LABEL
	b	.LBB3_111
.LBB3_100:                              # %lpad39
.Ltmp446:                               # EH_LABEL
	b	.LBB3_111
.LBB3_101:                              # %lpad9
.Ltmp452:                               # EH_LABEL
	b	.LBB3_111
.LBB3_102:                              # %lpad275
.Ltmp413:                               # EH_LABEL
	b	.LBB3_111
.LBB3_103:                              # %lpad226
.Ltmp419:                               # EH_LABEL
	b	.LBB3_111
.LBB3_104:                              # %lpad180
.Ltmp425:                               # EH_LABEL
	b	.LBB3_111
.LBB3_105:                              # %lpad135
.Ltmp431:                               # EH_LABEL
	b	.LBB3_111
.LBB3_106:                              # %lpad90
.Ltmp437:                               # EH_LABEL
	b	.LBB3_111
.LBB3_107:                              # %lpad47
.Ltmp443:                               # EH_LABEL
	b	.LBB3_111
.LBB3_108:                              # %lpad16
.Ltmp449:                               # EH_LABEL
	b	.LBB3_111
.LBB3_109:                              # %lpad6.loopexit
.Ltmp368:                               # EH_LABEL
	b	.LBB3_111
.LBB3_110:                              # %lpad6.loopexit.split-lp
.Ltmp365:                               # EH_LABEL
.LBB3_111:                              # %_ZNSt10unique_ptrIA_sSt14default_deleteIS0_EED2Ev.exit267
	move	$s1, $a0
	move	$a0, $s0
	pcaddu18i	$ra, %call36(_ZdaPv)
	jirl	$ra, $ra, 0
	move	$a0, $fp
	pcaddu18i	$ra, %call36(_ZdaPv)
	jirl	$ra, $ra, 0
	move	$a0, $s1
	pcaddu18i	$ra, %call36(_Unwind_Resume)
	jirl	$ra, $ra, 0
.Lfunc_end3:
	.size	_ZL19checkVectorFunctionIssEvSt8functionIFT_PT0_S3_jEES5_PKc, .Lfunc_end3-_ZL19checkVectorFunctionIssEvSt8functionIFT_PT0_S3_jEES5_PKc
	.cfi_endproc
	.section	.gcc_except_table,"a",@progbits
	.p2align	2, 0x0
GCC_except_table3:
.Lexception3:
	.byte	255                             # @LPStart Encoding = omit
	.byte	255                             # @TType Encoding = omit
	.byte	1                               # Call site Encoding = uleb128
	.uleb128 .Lcst_end3-.Lcst_begin3
.Lcst_begin3:
	.uleb128 .Lfunc_begin3-.Lfunc_begin3    # >> Call Site 1 <<
	.uleb128 .Ltmp360-.Lfunc_begin3         #   Call between .Lfunc_begin3 and .Ltmp360
	.byte	0                               #     has no landing pad
	.byte	0                               #   On action: cleanup
	.uleb128 .Ltmp360-.Lfunc_begin3         # >> Call Site 2 <<
	.uleb128 .Ltmp361-.Ltmp360              #   Call between .Ltmp360 and .Ltmp361
	.uleb128 .Ltmp362-.Lfunc_begin3         #     jumps to .Ltmp362
	.byte	0                               #   On action: cleanup
	.uleb128 .Ltmp363-.Lfunc_begin3         # >> Call Site 3 <<
	.uleb128 .Ltmp364-.Ltmp363              #   Call between .Ltmp363 and .Ltmp364
	.uleb128 .Ltmp365-.Lfunc_begin3         #     jumps to .Ltmp365
	.byte	0                               #   On action: cleanup
	.uleb128 .Ltmp366-.Lfunc_begin3         # >> Call Site 4 <<
	.uleb128 .Ltmp367-.Ltmp366              #   Call between .Ltmp366 and .Ltmp367
	.uleb128 .Ltmp368-.Lfunc_begin3         #     jumps to .Ltmp368
	.byte	0                               #   On action: cleanup
	.uleb128 .Ltmp369-.Lfunc_begin3         # >> Call Site 5 <<
	.uleb128 .Ltmp370-.Ltmp369              #   Call between .Ltmp369 and .Ltmp370
	.uleb128 .Ltmp452-.Lfunc_begin3         #     jumps to .Ltmp452
	.byte	0                               #   On action: cleanup
	.uleb128 .Ltmp371-.Lfunc_begin3         # >> Call Site 6 <<
	.uleb128 .Ltmp372-.Ltmp371              #   Call between .Ltmp371 and .Ltmp372
	.uleb128 .Ltmp449-.Lfunc_begin3         #     jumps to .Ltmp449
	.byte	0                               #   On action: cleanup
	.uleb128 .Ltmp375-.Lfunc_begin3         # >> Call Site 7 <<
	.uleb128 .Ltmp376-.Ltmp375              #   Call between .Ltmp375 and .Ltmp376
	.uleb128 .Ltmp446-.Lfunc_begin3         #     jumps to .Ltmp446
	.byte	0                               #   On action: cleanup
	.uleb128 .Ltmp377-.Lfunc_begin3         # >> Call Site 8 <<
	.uleb128 .Ltmp378-.Ltmp377              #   Call between .Ltmp377 and .Ltmp378
	.uleb128 .Ltmp443-.Lfunc_begin3         #     jumps to .Ltmp443
	.byte	0                               #   On action: cleanup
	.uleb128 .Ltmp381-.Lfunc_begin3         # >> Call Site 9 <<
	.uleb128 .Ltmp382-.Ltmp381              #   Call between .Ltmp381 and .Ltmp382
	.uleb128 .Ltmp440-.Lfunc_begin3         #     jumps to .Ltmp440
	.byte	0                               #   On action: cleanup
	.uleb128 .Ltmp383-.Lfunc_begin3         # >> Call Site 10 <<
	.uleb128 .Ltmp384-.Ltmp383              #   Call between .Ltmp383 and .Ltmp384
	.uleb128 .Ltmp437-.Lfunc_begin3         #     jumps to .Ltmp437
	.byte	0                               #   On action: cleanup
	.uleb128 .Ltmp387-.Lfunc_begin3         # >> Call Site 11 <<
	.uleb128 .Ltmp388-.Ltmp387              #   Call between .Ltmp387 and .Ltmp388
	.uleb128 .Ltmp434-.Lfunc_begin3         #     jumps to .Ltmp434
	.byte	0                               #   On action: cleanup
	.uleb128 .Ltmp389-.Lfunc_begin3         # >> Call Site 12 <<
	.uleb128 .Ltmp390-.Ltmp389              #   Call between .Ltmp389 and .Ltmp390
	.uleb128 .Ltmp431-.Lfunc_begin3         #     jumps to .Ltmp431
	.byte	0                               #   On action: cleanup
	.uleb128 .Ltmp393-.Lfunc_begin3         # >> Call Site 13 <<
	.uleb128 .Ltmp394-.Ltmp393              #   Call between .Ltmp393 and .Ltmp394
	.uleb128 .Ltmp428-.Lfunc_begin3         #     jumps to .Ltmp428
	.byte	0                               #   On action: cleanup
	.uleb128 .Ltmp395-.Lfunc_begin3         # >> Call Site 14 <<
	.uleb128 .Ltmp396-.Ltmp395              #   Call between .Ltmp395 and .Ltmp396
	.uleb128 .Ltmp425-.Lfunc_begin3         #     jumps to .Ltmp425
	.byte	0                               #   On action: cleanup
	.uleb128 .Ltmp399-.Lfunc_begin3         # >> Call Site 15 <<
	.uleb128 .Ltmp400-.Ltmp399              #   Call between .Ltmp399 and .Ltmp400
	.uleb128 .Ltmp422-.Lfunc_begin3         #     jumps to .Ltmp422
	.byte	0                               #   On action: cleanup
	.uleb128 .Ltmp401-.Lfunc_begin3         # >> Call Site 16 <<
	.uleb128 .Ltmp402-.Ltmp401              #   Call between .Ltmp401 and .Ltmp402
	.uleb128 .Ltmp419-.Lfunc_begin3         #     jumps to .Ltmp419
	.byte	0                               #   On action: cleanup
	.uleb128 .Ltmp405-.Lfunc_begin3         # >> Call Site 17 <<
	.uleb128 .Ltmp406-.Ltmp405              #   Call between .Ltmp405 and .Ltmp406
	.uleb128 .Ltmp416-.Lfunc_begin3         #     jumps to .Ltmp416
	.byte	0                               #   On action: cleanup
	.uleb128 .Ltmp407-.Lfunc_begin3         # >> Call Site 18 <<
	.uleb128 .Ltmp408-.Ltmp407              #   Call between .Ltmp407 and .Ltmp408
	.uleb128 .Ltmp413-.Lfunc_begin3         #     jumps to .Ltmp413
	.byte	0                               #   On action: cleanup
	.uleb128 .Ltmp408-.Lfunc_begin3         # >> Call Site 19 <<
	.uleb128 .Ltmp450-.Ltmp408              #   Call between .Ltmp408 and .Ltmp450
	.byte	0                               #     has no landing pad
	.byte	0                               #   On action: cleanup
	.uleb128 .Ltmp450-.Lfunc_begin3         # >> Call Site 20 <<
	.uleb128 .Ltmp451-.Ltmp450              #   Call between .Ltmp450 and .Ltmp451
	.uleb128 .Ltmp452-.Lfunc_begin3         #     jumps to .Ltmp452
	.byte	0                               #   On action: cleanup
	.uleb128 .Ltmp447-.Lfunc_begin3         # >> Call Site 21 <<
	.uleb128 .Ltmp374-.Ltmp447              #   Call between .Ltmp447 and .Ltmp374
	.uleb128 .Ltmp449-.Lfunc_begin3         #     jumps to .Ltmp449
	.byte	0                               #   On action: cleanup
	.uleb128 .Ltmp444-.Lfunc_begin3         # >> Call Site 22 <<
	.uleb128 .Ltmp445-.Ltmp444              #   Call between .Ltmp444 and .Ltmp445
	.uleb128 .Ltmp446-.Lfunc_begin3         #     jumps to .Ltmp446
	.byte	0                               #   On action: cleanup
	.uleb128 .Ltmp441-.Lfunc_begin3         # >> Call Site 23 <<
	.uleb128 .Ltmp380-.Ltmp441              #   Call between .Ltmp441 and .Ltmp380
	.uleb128 .Ltmp443-.Lfunc_begin3         #     jumps to .Ltmp443
	.byte	0                               #   On action: cleanup
	.uleb128 .Ltmp438-.Lfunc_begin3         # >> Call Site 24 <<
	.uleb128 .Ltmp439-.Ltmp438              #   Call between .Ltmp438 and .Ltmp439
	.uleb128 .Ltmp440-.Lfunc_begin3         #     jumps to .Ltmp440
	.byte	0                               #   On action: cleanup
	.uleb128 .Ltmp435-.Lfunc_begin3         # >> Call Site 25 <<
	.uleb128 .Ltmp386-.Ltmp435              #   Call between .Ltmp435 and .Ltmp386
	.uleb128 .Ltmp437-.Lfunc_begin3         #     jumps to .Ltmp437
	.byte	0                               #   On action: cleanup
	.uleb128 .Ltmp432-.Lfunc_begin3         # >> Call Site 26 <<
	.uleb128 .Ltmp433-.Ltmp432              #   Call between .Ltmp432 and .Ltmp433
	.uleb128 .Ltmp434-.Lfunc_begin3         #     jumps to .Ltmp434
	.byte	0                               #   On action: cleanup
	.uleb128 .Ltmp429-.Lfunc_begin3         # >> Call Site 27 <<
	.uleb128 .Ltmp392-.Ltmp429              #   Call between .Ltmp429 and .Ltmp392
	.uleb128 .Ltmp431-.Lfunc_begin3         #     jumps to .Ltmp431
	.byte	0                               #   On action: cleanup
	.uleb128 .Ltmp426-.Lfunc_begin3         # >> Call Site 28 <<
	.uleb128 .Ltmp427-.Ltmp426              #   Call between .Ltmp426 and .Ltmp427
	.uleb128 .Ltmp428-.Lfunc_begin3         #     jumps to .Ltmp428
	.byte	0                               #   On action: cleanup
	.uleb128 .Ltmp423-.Lfunc_begin3         # >> Call Site 29 <<
	.uleb128 .Ltmp398-.Ltmp423              #   Call between .Ltmp423 and .Ltmp398
	.uleb128 .Ltmp425-.Lfunc_begin3         #     jumps to .Ltmp425
	.byte	0                               #   On action: cleanup
	.uleb128 .Ltmp420-.Lfunc_begin3         # >> Call Site 30 <<
	.uleb128 .Ltmp421-.Ltmp420              #   Call between .Ltmp420 and .Ltmp421
	.uleb128 .Ltmp422-.Lfunc_begin3         #     jumps to .Ltmp422
	.byte	0                               #   On action: cleanup
	.uleb128 .Ltmp417-.Lfunc_begin3         # >> Call Site 31 <<
	.uleb128 .Ltmp404-.Ltmp417              #   Call between .Ltmp417 and .Ltmp404
	.uleb128 .Ltmp419-.Lfunc_begin3         #     jumps to .Ltmp419
	.byte	0                               #   On action: cleanup
	.uleb128 .Ltmp414-.Lfunc_begin3         # >> Call Site 32 <<
	.uleb128 .Ltmp415-.Ltmp414              #   Call between .Ltmp414 and .Ltmp415
	.uleb128 .Ltmp416-.Lfunc_begin3         #     jumps to .Ltmp416
	.byte	0                               #   On action: cleanup
	.uleb128 .Ltmp411-.Lfunc_begin3         # >> Call Site 33 <<
	.uleb128 .Ltmp410-.Ltmp411              #   Call between .Ltmp411 and .Ltmp410
	.uleb128 .Ltmp413-.Lfunc_begin3         #     jumps to .Ltmp413
	.byte	0                               #   On action: cleanup
	.uleb128 .Ltmp410-.Lfunc_begin3         # >> Call Site 34 <<
	.uleb128 .Lfunc_end3-.Ltmp410           #   Call between .Ltmp410 and .Lfunc_end3
	.byte	0                               #     has no landing pad
	.byte	0                               #   On action: cleanup
.Lcst_end3:
	.p2align	2, 0x0
                                        # -- End function
	.text
	.p2align	5                               # -- Begin function _ZL19checkVectorFunctionIjjEvSt8functionIFT_PT0_S3_jEES5_PKc
	.type	_ZL19checkVectorFunctionIjjEvSt8functionIFT_PT0_S3_jEES5_PKc,@function
_ZL19checkVectorFunctionIjjEvSt8functionIFT_PT0_S3_jEES5_PKc: # @_ZL19checkVectorFunctionIjjEvSt8functionIFT_PT0_S3_jEES5_PKc
.Lfunc_begin4:
	.cfi_startproc
	.cfi_personality 155, DW.ref.__gxx_personality_v0
	.cfi_lsda 27, .Lexception4
# %bb.0:                                # %entry
	addi.d	$sp, $sp, -96
	.cfi_def_cfa_offset 96
	st.d	$ra, $sp, 88                    # 8-byte Folded Spill
	st.d	$fp, $sp, 80                    # 8-byte Folded Spill
	st.d	$s0, $sp, 72                    # 8-byte Folded Spill
	st.d	$s1, $sp, 64                    # 8-byte Folded Spill
	st.d	$s2, $sp, 56                    # 8-byte Folded Spill
	st.d	$s3, $sp, 48                    # 8-byte Folded Spill
	st.d	$s4, $sp, 40                    # 8-byte Folded Spill
	st.d	$s5, $sp, 32                    # 8-byte Folded Spill
	.cfi_offset 1, -8
	.cfi_offset 22, -16
	.cfi_offset 23, -24
	.cfi_offset 24, -32
	.cfi_offset 25, -40
	.cfi_offset 26, -48
	.cfi_offset 27, -56
	.cfi_offset 28, -64
	move	$fp, $a2
	move	$s1, $a1
	move	$s2, $a0
	pcalau12i	$a0, %got_pc_hi20(_ZSt4cout)
	ld.d	$s0, $a0, %got_pc_lo12(_ZSt4cout)
	pcalau12i	$a0, %pc_hi20(.L.str.12)
	addi.d	$a1, $a0, %pc_lo12(.L.str.12)
	ori	$a2, $zero, 9
	move	$a0, $s0
	pcaddu18i	$ra, %call36(_ZSt16__ostream_insertIcSt11char_traitsIcEERSt13basic_ostreamIT_T0_ES6_PKS3_l)
	jirl	$ra, $ra, 0
	beqz	$fp, .LBB4_2
# %bb.1:                                # %if.else.i
	move	$a0, $fp
	pcaddu18i	$ra, %call36(strlen)
	jirl	$ra, $ra, 0
	move	$a2, $a0
	pcalau12i	$a0, %got_pc_hi20(_ZSt4cout)
	ld.d	$a0, $a0, %got_pc_lo12(_ZSt4cout)
	move	$a1, $fp
	pcaddu18i	$ra, %call36(_ZSt16__ostream_insertIcSt11char_traitsIcEERSt13basic_ostreamIT_T0_ES6_PKS3_l)
	jirl	$ra, $ra, 0
	b	.LBB4_3
.LBB4_2:                                # %if.then.i
	ld.d	$a0, $s0, 0
	ld.d	$a0, $a0, -24
	add.d	$a0, $s0, $a0
	ld.w	$a1, $a0, 32
	ori	$a1, $a1, 1
	pcaddu18i	$ra, %call36(_ZNSt9basic_iosIcSt11char_traitsIcEE5clearESt12_Ios_Iostate)
	jirl	$ra, $ra, 0
.LBB4_3:                                # %_ZStlsISt11char_traitsIcEERSt13basic_ostreamIcT_ES5_PKc.exit
	pcalau12i	$a0, %got_pc_hi20(_ZSt4cout)
	ld.d	$a0, $a0, %got_pc_lo12(_ZSt4cout)
	pcalau12i	$a1, %pc_hi20(.L.str.13)
	addi.d	$a1, $a1, %pc_lo12(.L.str.13)
	ori	$a2, $zero, 1
	pcaddu18i	$ra, %call36(_ZSt16__ostream_insertIcSt11char_traitsIcEERSt13basic_ostreamIT_T0_ES6_PKS3_l)
	jirl	$ra, $ra, 0
	ori	$a0, $zero, 4000
	pcaddu18i	$ra, %call36(_Znam)
	jirl	$ra, $ra, 0
	move	$fp, $a0
.Ltmp453:                               # EH_LABEL
	ori	$a0, $zero, 4000
	pcaddu18i	$ra, %call36(_Znam)
	jirl	$ra, $ra, 0
.Ltmp454:                               # EH_LABEL
# %bb.4:                                # %invoke.cont
	move	$s0, $a0
	ori	$a0, $zero, 0
	lu32i.d	$a0, -1
	st.d	$a0, $sp, 24
	lu12i.w	$s4, -1
	ori	$s5, $s4, 96
	pcalau12i	$a0, %pc_hi20(_ZL3rng)
	addi.d	$s3, $a0, %pc_lo12(_ZL3rng)
	.p2align	4, , 16
.LBB4_5:                                # %for.body.i
                                        # =>This Inner Loop Header: Depth=1
.Ltmp456:                               # EH_LABEL
	addi.d	$a0, $sp, 24
	addi.d	$a2, $sp, 24
	move	$a1, $s3
	pcaddu18i	$ra, %call36(_ZNSt24uniform_int_distributionIjEclISt23mersenne_twister_engineImLm32ELm624ELm397ELm31ELm2567483615ELm11ELm4294967295ELm7ELm2636928640ELm15ELm4022730752ELm18ELm1812433253EEEEjRT_RKNS0_10param_typeE)
	jirl	$ra, $ra, 0
.Ltmp457:                               # EH_LABEL
# %bb.6:                                # %call.i.i64.noexc
                                        #   in Loop: Header=BB4_5 Depth=1
	add.d	$a1, $fp, $s5
	addi.d	$s5, $s5, 4
	stptr.w	$a0, $a1, 4000
	bnez	$s5, .LBB4_5
# %bb.7:                                # %invoke.cont7
	ori	$a0, $zero, 0
	lu32i.d	$a0, -1
	st.d	$a0, $sp, 24
	ori	$s4, $s4, 96
	pcalau12i	$a0, %pc_hi20(_ZL3rng)
	addi.d	$s3, $a0, %pc_lo12(_ZL3rng)
	.p2align	4, , 16
.LBB4_8:                                # %for.body.i68
                                        # =>This Inner Loop Header: Depth=1
.Ltmp459:                               # EH_LABEL
	addi.d	$a0, $sp, 24
	addi.d	$a2, $sp, 24
	move	$a1, $s3
	pcaddu18i	$ra, %call36(_ZNSt24uniform_int_distributionIjEclISt23mersenne_twister_engineImLm32ELm624ELm397ELm31ELm2567483615ELm11ELm4294967295ELm7ELm2636928640ELm15ELm4022730752ELm18ELm1812433253EEEEjRT_RKNS0_10param_typeE)
	jirl	$ra, $ra, 0
.Ltmp460:                               # EH_LABEL
# %bb.9:                                # %call.i.i70.noexc
                                        #   in Loop: Header=BB4_8 Depth=1
	add.d	$a1, $s0, $s4
	addi.d	$s4, $s4, 4
	stptr.w	$a0, $a1, 4000
	bnez	$s4, .LBB4_8
# %bb.10:                               # %invoke.cont8
	ld.d	$a0, $s2, 16
	st.d	$fp, $sp, 24
	st.d	$s0, $sp, 16
	ori	$a1, $zero, 1000
	st.w	$a1, $sp, 12
	beqz	$a0, .LBB4_46
# %bb.11:                               # %if.end.i
	ld.d	$a4, $s2, 24
.Ltmp462:                               # EH_LABEL
	addi.d	$a1, $sp, 24
	addi.d	$a2, $sp, 16
	addi.d	$a3, $sp, 12
	move	$a0, $s2
	jirl	$ra, $a4, 0
.Ltmp463:                               # EH_LABEL
# %bb.12:                               # %invoke.cont14
	move	$s3, $a0
	ld.d	$a0, $s1, 16
	st.d	$fp, $sp, 24
	st.d	$s0, $sp, 16
	ori	$a1, $zero, 1000
	st.w	$a1, $sp, 12
	beqz	$a0, .LBB4_48
# %bb.13:                               # %if.end.i83
	ld.d	$a4, $s1, 24
.Ltmp464:                               # EH_LABEL
	addi.d	$a1, $sp, 24
	addi.d	$a2, $sp, 16
	addi.d	$a3, $sp, 12
	move	$a0, $s1
	jirl	$ra, $a4, 0
.Ltmp465:                               # EH_LABEL
# %bb.14:                               # %invoke.cont21
	bne	$s3, $a0, .LBB4_50
# %bb.15:                               # %for.body.preheader
	ori	$a1, $zero, 255
	ori	$a2, $zero, 4000
	move	$a0, $fp
	pcaddu18i	$ra, %call36(memset)
	jirl	$ra, $ra, 0
	ori	$a2, $zero, 4000
	move	$a0, $s0
	move	$a1, $zero
	pcaddu18i	$ra, %call36(memset)
	jirl	$ra, $ra, 0
	ld.d	$a0, $s2, 16
	st.d	$fp, $sp, 24
	st.d	$s0, $sp, 16
	ori	$a1, $zero, 1000
	st.w	$a1, $sp, 12
	beqz	$a0, .LBB4_51
# %bb.16:                               # %if.end.i94
	ld.d	$a4, $s2, 24
.Ltmp468:                               # EH_LABEL
	addi.d	$a1, $sp, 24
	addi.d	$a2, $sp, 16
	addi.d	$a3, $sp, 12
	move	$a0, $s2
	jirl	$ra, $a4, 0
.Ltmp469:                               # EH_LABEL
# %bb.17:                               # %invoke.cont42
	move	$s3, $a0
	ld.d	$a0, $s1, 16
	st.d	$fp, $sp, 24
	st.d	$s0, $sp, 16
	ori	$a1, $zero, 1000
	st.w	$a1, $sp, 12
	beqz	$a0, .LBB4_53
# %bb.18:                               # %if.end.i108
	ld.d	$a4, $s1, 24
.Ltmp470:                               # EH_LABEL
	addi.d	$a1, $sp, 24
	addi.d	$a2, $sp, 16
	addi.d	$a3, $sp, 12
	move	$a0, $s1
	jirl	$ra, $a4, 0
.Ltmp471:                               # EH_LABEL
# %bb.19:                               # %invoke.cont50
	bne	$s3, $a0, .LBB4_55
# %bb.20:                               # %for.body63.preheader
	ori	$a2, $zero, 4000
	move	$a0, $fp
	move	$a1, $zero
	pcaddu18i	$ra, %call36(memset)
	jirl	$ra, $ra, 0
	ori	$a1, $zero, 255
	ori	$a2, $zero, 4000
	move	$a0, $s0
	pcaddu18i	$ra, %call36(memset)
	jirl	$ra, $ra, 0
	ld.d	$a0, $s2, 16
	st.d	$fp, $sp, 24
	st.d	$s0, $sp, 16
	ori	$a1, $zero, 1000
	st.w	$a1, $sp, 12
	beqz	$a0, .LBB4_56
# %bb.21:                               # %if.end.i121
	ld.d	$a4, $s2, 24
.Ltmp474:                               # EH_LABEL
	addi.d	$a1, $sp, 24
	addi.d	$a2, $sp, 16
	addi.d	$a3, $sp, 12
	move	$a0, $s2
	jirl	$ra, $a4, 0
.Ltmp475:                               # EH_LABEL
# %bb.22:                               # %invoke.cont83
	move	$s3, $a0
	ld.d	$a0, $s1, 16
	st.d	$fp, $sp, 24
	st.d	$s0, $sp, 16
	ori	$a1, $zero, 1000
	st.w	$a1, $sp, 12
	beqz	$a0, .LBB4_58
# %bb.23:                               # %if.end.i136
	ld.d	$a4, $s1, 24
.Ltmp476:                               # EH_LABEL
	addi.d	$a1, $sp, 24
	addi.d	$a2, $sp, 16
	addi.d	$a3, $sp, 12
	move	$a0, $s1
	jirl	$ra, $a4, 0
.Ltmp477:                               # EH_LABEL
# %bb.24:                               # %invoke.cont91
	bne	$s3, $a0, .LBB4_60
# %bb.25:                               # %for.body104.preheader
	ori	$a2, $zero, 4000
	move	$a0, $s0
	move	$a1, $zero
	pcaddu18i	$ra, %call36(memset)
	jirl	$ra, $ra, 0
	ori	$a2, $zero, 4000
	move	$a0, $fp
	move	$a1, $zero
	pcaddu18i	$ra, %call36(memset)
	jirl	$ra, $ra, 0
	addi.w	$s5, $zero, -1
	lu32i.d	$s5, 0
	stptr.w	$s5, $fp, 3992
	ld.d	$a0, $s2, 16
	st.d	$fp, $sp, 24
	st.d	$s0, $sp, 16
	ori	$a1, $zero, 1000
	st.w	$a1, $sp, 12
	beqz	$a0, .LBB4_61
# %bb.26:                               # %if.end.i150
	ld.d	$a4, $s2, 24
.Ltmp480:                               # EH_LABEL
	addi.d	$a1, $sp, 24
	addi.d	$a2, $sp, 16
	addi.d	$a3, $sp, 12
	move	$a0, $s2
	jirl	$ra, $a4, 0
.Ltmp481:                               # EH_LABEL
# %bb.27:                               # %invoke.cont126
	move	$s3, $a0
	ld.d	$a0, $s1, 16
	st.d	$fp, $sp, 24
	st.d	$s0, $sp, 16
	ori	$a1, $zero, 1000
	st.w	$a1, $sp, 12
	beqz	$a0, .LBB4_63
# %bb.28:                               # %if.end.i165
	ld.d	$a4, $s1, 24
.Ltmp482:                               # EH_LABEL
	addi.d	$a1, $sp, 24
	addi.d	$a2, $sp, 16
	addi.d	$a3, $sp, 12
	move	$a0, $s1
	jirl	$ra, $a4, 0
.Ltmp483:                               # EH_LABEL
# %bb.29:                               # %invoke.cont134
	bne	$s3, $a0, .LBB4_65
# %bb.30:                               # %for.body147.preheader
	ori	$a2, $zero, 4000
	move	$a0, $s0
	move	$a1, $zero
	pcaddu18i	$ra, %call36(memset)
	jirl	$ra, $ra, 0
	addi.d	$s3, $fp, 4
	ori	$a2, $zero, 3996
	move	$a0, $s3
	move	$a1, $zero
	pcaddu18i	$ra, %call36(memset)
	jirl	$ra, $ra, 0
	st.w	$s5, $fp, 0
	ld.d	$a0, $s2, 16
	st.d	$fp, $sp, 24
	st.d	$s0, $sp, 16
	ori	$a1, $zero, 1000
	st.w	$a1, $sp, 12
	beqz	$a0, .LBB4_66
# %bb.31:                               # %if.end.i179
	ld.d	$a4, $s2, 24
.Ltmp486:                               # EH_LABEL
	addi.d	$a1, $sp, 24
	addi.d	$a2, $sp, 16
	addi.d	$a3, $sp, 12
	move	$a0, $s2
	jirl	$ra, $a4, 0
.Ltmp487:                               # EH_LABEL
# %bb.32:                               # %invoke.cont169
	move	$s4, $a0
	ld.d	$a0, $s1, 16
	st.d	$fp, $sp, 24
	st.d	$s0, $sp, 16
	ori	$a1, $zero, 1000
	st.w	$a1, $sp, 12
	beqz	$a0, .LBB4_68
# %bb.33:                               # %if.end.i194
	ld.d	$a4, $s1, 24
.Ltmp488:                               # EH_LABEL
	addi.d	$a1, $sp, 24
	addi.d	$a2, $sp, 16
	addi.d	$a3, $sp, 12
	move	$a0, $s1
	jirl	$ra, $a4, 0
.Ltmp489:                               # EH_LABEL
# %bb.34:                               # %invoke.cont177
	bne	$s4, $a0, .LBB4_70
# %bb.35:                               # %for.body190.preheader
	ori	$a2, $zero, 4000
	move	$a0, $s0
	move	$a1, $zero
	pcaddu18i	$ra, %call36(memset)
	jirl	$ra, $ra, 0
	ori	$a2, $zero, 3996
	move	$a0, $fp
	move	$a1, $zero
	pcaddu18i	$ra, %call36(memset)
	jirl	$ra, $ra, 0
	stptr.w	$s5, $fp, 3996
	ld.d	$a0, $s2, 16
	st.d	$fp, $sp, 24
	st.d	$s0, $sp, 16
	ori	$a1, $zero, 1000
	st.w	$a1, $sp, 12
	beqz	$a0, .LBB4_71
# %bb.36:                               # %if.end.i208
	ld.d	$a4, $s2, 24
.Ltmp492:                               # EH_LABEL
	addi.d	$a1, $sp, 24
	addi.d	$a2, $sp, 16
	addi.d	$a3, $sp, 12
	move	$a0, $s2
	jirl	$ra, $a4, 0
.Ltmp493:                               # EH_LABEL
# %bb.37:                               # %invoke.cont213
	move	$s4, $a0
	ld.d	$a0, $s1, 16
	st.d	$fp, $sp, 24
	st.d	$s0, $sp, 16
	ori	$a1, $zero, 1000
	st.w	$a1, $sp, 12
	beqz	$a0, .LBB4_73
# %bb.38:                               # %if.end.i223
	ld.d	$a4, $s1, 24
.Ltmp494:                               # EH_LABEL
	addi.d	$a1, $sp, 24
	addi.d	$a2, $sp, 16
	addi.d	$a3, $sp, 12
	move	$a0, $s1
	jirl	$ra, $a4, 0
.Ltmp495:                               # EH_LABEL
# %bb.39:                               # %invoke.cont221
	bne	$s4, $a0, .LBB4_75
# %bb.40:                               # %for.body234.preheader
	ori	$a2, $zero, 4000
	move	$a0, $s0
	move	$a1, $zero
	pcaddu18i	$ra, %call36(memset)
	jirl	$ra, $ra, 0
	ori	$a2, $zero, 3992
	move	$a0, $s3
	move	$a1, $zero
	pcaddu18i	$ra, %call36(memset)
	jirl	$ra, $ra, 0
	stptr.w	$s5, $fp, 3996
	st.w	$s5, $fp, 0
	ld.d	$a0, $s2, 16
	st.d	$fp, $sp, 24
	st.d	$s0, $sp, 16
	ori	$a1, $zero, 1000
	st.w	$a1, $sp, 12
	beqz	$a0, .LBB4_76
# %bb.41:                               # %if.end.i238
	ld.d	$a4, $s2, 24
.Ltmp498:                               # EH_LABEL
	addi.d	$a1, $sp, 24
	addi.d	$a2, $sp, 16
	addi.d	$a3, $sp, 12
	move	$a0, $s2
	jirl	$ra, $a4, 0
.Ltmp499:                               # EH_LABEL
# %bb.42:                               # %invoke.cont260
	move	$s2, $a0
	ld.d	$a0, $s1, 16
	st.d	$fp, $sp, 24
	st.d	$s0, $sp, 16
	ori	$a1, $zero, 1000
	st.w	$a1, $sp, 12
	beqz	$a0, .LBB4_78
# %bb.43:                               # %if.end.i253
	ld.d	$a4, $s1, 24
.Ltmp500:                               # EH_LABEL
	addi.d	$a1, $sp, 24
	addi.d	$a2, $sp, 16
	addi.d	$a3, $sp, 12
	move	$a0, $s1
	jirl	$ra, $a4, 0
.Ltmp501:                               # EH_LABEL
# %bb.44:                               # %invoke.cont268
	bne	$s2, $a0, .LBB4_80
# %bb.45:                               # %_ZNSt10unique_ptrIA_jSt14default_deleteIS0_EED2Ev.exit263
	move	$a0, $s0
	pcaddu18i	$ra, %call36(_ZdaPv)
	jirl	$ra, $ra, 0
	move	$a0, $fp
	pcaddu18i	$ra, %call36(_ZdaPv)
	jirl	$ra, $ra, 0
	ld.d	$s5, $sp, 32                    # 8-byte Folded Reload
	ld.d	$s4, $sp, 40                    # 8-byte Folded Reload
	ld.d	$s3, $sp, 48                    # 8-byte Folded Reload
	ld.d	$s2, $sp, 56                    # 8-byte Folded Reload
	ld.d	$s1, $sp, 64                    # 8-byte Folded Reload
	ld.d	$s0, $sp, 72                    # 8-byte Folded Reload
	ld.d	$fp, $sp, 80                    # 8-byte Folded Reload
	ld.d	$ra, $sp, 88                    # 8-byte Folded Reload
	addi.d	$sp, $sp, 96
	ret
.LBB4_46:                               # %if.then.i76
.Ltmp543:                               # EH_LABEL
	pcaddu18i	$ra, %call36(_ZSt25__throw_bad_function_callv)
	jirl	$ra, $ra, 0
.Ltmp544:                               # EH_LABEL
# %bb.47:                               # %.noexc
.LBB4_48:                               # %if.then.i85
.Ltmp540:                               # EH_LABEL
	pcaddu18i	$ra, %call36(_ZSt25__throw_bad_function_callv)
	jirl	$ra, $ra, 0
.Ltmp541:                               # EH_LABEL
# %bb.49:                               # %.noexc86
.LBB4_50:                               # %if.then
.Ltmp466:                               # EH_LABEL
	pcalau12i	$a0, %got_pc_hi20(_ZSt4cerr)
	ld.d	$a0, $a0, %got_pc_lo12(_ZSt4cerr)
	pcalau12i	$a1, %pc_hi20(.L.str.14)
	addi.d	$a1, $a1, %pc_lo12(.L.str.14)
	pcaddu18i	$ra, %call36(_ZStlsISt11char_traitsIcEERSt13basic_ostreamIcT_ES5_PKc)
	jirl	$ra, $ra, 0
.Ltmp467:                               # EH_LABEL
	b	.LBB4_81
.LBB4_51:                               # %if.then.i96
.Ltmp537:                               # EH_LABEL
	pcaddu18i	$ra, %call36(_ZSt25__throw_bad_function_callv)
	jirl	$ra, $ra, 0
.Ltmp538:                               # EH_LABEL
# %bb.52:                               # %.noexc97
.LBB4_53:                               # %if.then.i110
.Ltmp534:                               # EH_LABEL
	pcaddu18i	$ra, %call36(_ZSt25__throw_bad_function_callv)
	jirl	$ra, $ra, 0
.Ltmp535:                               # EH_LABEL
# %bb.54:                               # %.noexc111
.LBB4_55:                               # %if.then53
.Ltmp472:                               # EH_LABEL
	pcalau12i	$a0, %got_pc_hi20(_ZSt4cerr)
	ld.d	$a0, $a0, %got_pc_lo12(_ZSt4cerr)
	pcalau12i	$a1, %pc_hi20(.L.str.14)
	addi.d	$a1, $a1, %pc_lo12(.L.str.14)
	pcaddu18i	$ra, %call36(_ZStlsISt11char_traitsIcEERSt13basic_ostreamIcT_ES5_PKc)
	jirl	$ra, $ra, 0
.Ltmp473:                               # EH_LABEL
	b	.LBB4_81
.LBB4_56:                               # %if.then.i123
.Ltmp531:                               # EH_LABEL
	pcaddu18i	$ra, %call36(_ZSt25__throw_bad_function_callv)
	jirl	$ra, $ra, 0
.Ltmp532:                               # EH_LABEL
# %bb.57:                               # %.noexc124
.LBB4_58:                               # %if.then.i138
.Ltmp528:                               # EH_LABEL
	pcaddu18i	$ra, %call36(_ZSt25__throw_bad_function_callv)
	jirl	$ra, $ra, 0
.Ltmp529:                               # EH_LABEL
# %bb.59:                               # %.noexc139
.LBB4_60:                               # %if.then94
.Ltmp478:                               # EH_LABEL
	pcalau12i	$a0, %got_pc_hi20(_ZSt4cerr)
	ld.d	$a0, $a0, %got_pc_lo12(_ZSt4cerr)
	pcalau12i	$a1, %pc_hi20(.L.str.14)
	addi.d	$a1, $a1, %pc_lo12(.L.str.14)
	pcaddu18i	$ra, %call36(_ZStlsISt11char_traitsIcEERSt13basic_ostreamIcT_ES5_PKc)
	jirl	$ra, $ra, 0
.Ltmp479:                               # EH_LABEL
	b	.LBB4_81
.LBB4_61:                               # %if.then.i152
.Ltmp525:                               # EH_LABEL
	pcaddu18i	$ra, %call36(_ZSt25__throw_bad_function_callv)
	jirl	$ra, $ra, 0
.Ltmp526:                               # EH_LABEL
# %bb.62:                               # %.noexc153
.LBB4_63:                               # %if.then.i167
.Ltmp522:                               # EH_LABEL
	pcaddu18i	$ra, %call36(_ZSt25__throw_bad_function_callv)
	jirl	$ra, $ra, 0
.Ltmp523:                               # EH_LABEL
# %bb.64:                               # %.noexc168
.LBB4_65:                               # %if.then137
.Ltmp484:                               # EH_LABEL
	pcalau12i	$a0, %got_pc_hi20(_ZSt4cerr)
	ld.d	$a0, $a0, %got_pc_lo12(_ZSt4cerr)
	pcalau12i	$a1, %pc_hi20(.L.str.14)
	addi.d	$a1, $a1, %pc_lo12(.L.str.14)
	pcaddu18i	$ra, %call36(_ZStlsISt11char_traitsIcEERSt13basic_ostreamIcT_ES5_PKc)
	jirl	$ra, $ra, 0
.Ltmp485:                               # EH_LABEL
	b	.LBB4_81
.LBB4_66:                               # %if.then.i181
.Ltmp519:                               # EH_LABEL
	pcaddu18i	$ra, %call36(_ZSt25__throw_bad_function_callv)
	jirl	$ra, $ra, 0
.Ltmp520:                               # EH_LABEL
# %bb.67:                               # %.noexc182
.LBB4_68:                               # %if.then.i196
.Ltmp516:                               # EH_LABEL
	pcaddu18i	$ra, %call36(_ZSt25__throw_bad_function_callv)
	jirl	$ra, $ra, 0
.Ltmp517:                               # EH_LABEL
# %bb.69:                               # %.noexc197
.LBB4_70:                               # %if.then180
.Ltmp490:                               # EH_LABEL
	pcalau12i	$a0, %got_pc_hi20(_ZSt4cerr)
	ld.d	$a0, $a0, %got_pc_lo12(_ZSt4cerr)
	pcalau12i	$a1, %pc_hi20(.L.str.14)
	addi.d	$a1, $a1, %pc_lo12(.L.str.14)
	pcaddu18i	$ra, %call36(_ZStlsISt11char_traitsIcEERSt13basic_ostreamIcT_ES5_PKc)
	jirl	$ra, $ra, 0
.Ltmp491:                               # EH_LABEL
	b	.LBB4_81
.LBB4_71:                               # %if.then.i210
.Ltmp513:                               # EH_LABEL
	pcaddu18i	$ra, %call36(_ZSt25__throw_bad_function_callv)
	jirl	$ra, $ra, 0
.Ltmp514:                               # EH_LABEL
# %bb.72:                               # %.noexc211
.LBB4_73:                               # %if.then.i225
.Ltmp510:                               # EH_LABEL
	pcaddu18i	$ra, %call36(_ZSt25__throw_bad_function_callv)
	jirl	$ra, $ra, 0
.Ltmp511:                               # EH_LABEL
# %bb.74:                               # %.noexc226
.LBB4_75:                               # %if.then224
.Ltmp496:                               # EH_LABEL
	pcalau12i	$a0, %got_pc_hi20(_ZSt4cerr)
	ld.d	$a0, $a0, %got_pc_lo12(_ZSt4cerr)
	pcalau12i	$a1, %pc_hi20(.L.str.14)
	addi.d	$a1, $a1, %pc_lo12(.L.str.14)
	pcaddu18i	$ra, %call36(_ZStlsISt11char_traitsIcEERSt13basic_ostreamIcT_ES5_PKc)
	jirl	$ra, $ra, 0
.Ltmp497:                               # EH_LABEL
	b	.LBB4_81
.LBB4_76:                               # %if.then.i240
.Ltmp507:                               # EH_LABEL
	pcaddu18i	$ra, %call36(_ZSt25__throw_bad_function_callv)
	jirl	$ra, $ra, 0
.Ltmp508:                               # EH_LABEL
# %bb.77:                               # %.noexc241
.LBB4_78:                               # %if.then.i255
.Ltmp504:                               # EH_LABEL
	pcaddu18i	$ra, %call36(_ZSt25__throw_bad_function_callv)
	jirl	$ra, $ra, 0
.Ltmp505:                               # EH_LABEL
# %bb.79:                               # %.noexc256
.LBB4_80:                               # %if.then271
.Ltmp502:                               # EH_LABEL
	pcalau12i	$a0, %got_pc_hi20(_ZSt4cerr)
	ld.d	$a0, $a0, %got_pc_lo12(_ZSt4cerr)
	pcalau12i	$a1, %pc_hi20(.L.str.14)
	addi.d	$a1, $a1, %pc_lo12(.L.str.14)
	pcaddu18i	$ra, %call36(_ZStlsISt11char_traitsIcEERSt13basic_ostreamIcT_ES5_PKc)
	jirl	$ra, $ra, 0
.Ltmp503:                               # EH_LABEL
.LBB4_81:                               # %invoke.cont23
	ori	$a0, $zero, 1
	pcaddu18i	$ra, %call36(exit)
	jirl	$ra, $ra, 0
.LBB4_82:                               # %lpad
.Ltmp455:                               # EH_LABEL
	move	$s1, $a0
	move	$a0, $fp
	pcaddu18i	$ra, %call36(_ZdaPv)
	jirl	$ra, $ra, 0
	move	$a0, $s1
	pcaddu18i	$ra, %call36(_Unwind_Resume)
	jirl	$ra, $ra, 0
.LBB4_83:                               # %lpad255
.Ltmp509:                               # EH_LABEL
	b	.LBB4_99
.LBB4_84:                               # %lpad208
.Ltmp515:                               # EH_LABEL
	b	.LBB4_99
.LBB4_85:                               # %lpad164
.Ltmp521:                               # EH_LABEL
	b	.LBB4_99
.LBB4_86:                               # %lpad121
.Ltmp527:                               # EH_LABEL
	b	.LBB4_99
.LBB4_87:                               # %lpad78
.Ltmp533:                               # EH_LABEL
	b	.LBB4_99
.LBB4_88:                               # %lpad37
.Ltmp539:                               # EH_LABEL
	b	.LBB4_99
.LBB4_89:                               # %lpad9
.Ltmp545:                               # EH_LABEL
	b	.LBB4_99
.LBB4_90:                               # %lpad263
.Ltmp506:                               # EH_LABEL
	b	.LBB4_99
.LBB4_91:                               # %lpad216
.Ltmp512:                               # EH_LABEL
	b	.LBB4_99
.LBB4_92:                               # %lpad172
.Ltmp518:                               # EH_LABEL
	b	.LBB4_99
.LBB4_93:                               # %lpad129
.Ltmp524:                               # EH_LABEL
	b	.LBB4_99
.LBB4_94:                               # %lpad86
.Ltmp530:                               # EH_LABEL
	b	.LBB4_99
.LBB4_95:                               # %lpad45
.Ltmp536:                               # EH_LABEL
	b	.LBB4_99
.LBB4_96:                               # %lpad16
.Ltmp542:                               # EH_LABEL
	b	.LBB4_99
.LBB4_97:                               # %lpad6.loopexit
.Ltmp461:                               # EH_LABEL
	b	.LBB4_99
.LBB4_98:                               # %lpad6.loopexit.split-lp
.Ltmp458:                               # EH_LABEL
.LBB4_99:                               # %_ZNSt10unique_ptrIA_jSt14default_deleteIS0_EED2Ev.exit267
	move	$s1, $a0
	move	$a0, $s0
	pcaddu18i	$ra, %call36(_ZdaPv)
	jirl	$ra, $ra, 0
	move	$a0, $fp
	pcaddu18i	$ra, %call36(_ZdaPv)
	jirl	$ra, $ra, 0
	move	$a0, $s1
	pcaddu18i	$ra, %call36(_Unwind_Resume)
	jirl	$ra, $ra, 0
.Lfunc_end4:
	.size	_ZL19checkVectorFunctionIjjEvSt8functionIFT_PT0_S3_jEES5_PKc, .Lfunc_end4-_ZL19checkVectorFunctionIjjEvSt8functionIFT_PT0_S3_jEES5_PKc
	.cfi_endproc
	.section	.gcc_except_table,"a",@progbits
	.p2align	2, 0x0
GCC_except_table4:
.Lexception4:
	.byte	255                             # @LPStart Encoding = omit
	.byte	255                             # @TType Encoding = omit
	.byte	1                               # Call site Encoding = uleb128
	.uleb128 .Lcst_end4-.Lcst_begin4
.Lcst_begin4:
	.uleb128 .Lfunc_begin4-.Lfunc_begin4    # >> Call Site 1 <<
	.uleb128 .Ltmp453-.Lfunc_begin4         #   Call between .Lfunc_begin4 and .Ltmp453
	.byte	0                               #     has no landing pad
	.byte	0                               #   On action: cleanup
	.uleb128 .Ltmp453-.Lfunc_begin4         # >> Call Site 2 <<
	.uleb128 .Ltmp454-.Ltmp453              #   Call between .Ltmp453 and .Ltmp454
	.uleb128 .Ltmp455-.Lfunc_begin4         #     jumps to .Ltmp455
	.byte	0                               #   On action: cleanup
	.uleb128 .Ltmp456-.Lfunc_begin4         # >> Call Site 3 <<
	.uleb128 .Ltmp457-.Ltmp456              #   Call between .Ltmp456 and .Ltmp457
	.uleb128 .Ltmp458-.Lfunc_begin4         #     jumps to .Ltmp458
	.byte	0                               #   On action: cleanup
	.uleb128 .Ltmp459-.Lfunc_begin4         # >> Call Site 4 <<
	.uleb128 .Ltmp460-.Ltmp459              #   Call between .Ltmp459 and .Ltmp460
	.uleb128 .Ltmp461-.Lfunc_begin4         #     jumps to .Ltmp461
	.byte	0                               #   On action: cleanup
	.uleb128 .Ltmp462-.Lfunc_begin4         # >> Call Site 5 <<
	.uleb128 .Ltmp463-.Ltmp462              #   Call between .Ltmp462 and .Ltmp463
	.uleb128 .Ltmp545-.Lfunc_begin4         #     jumps to .Ltmp545
	.byte	0                               #   On action: cleanup
	.uleb128 .Ltmp464-.Lfunc_begin4         # >> Call Site 6 <<
	.uleb128 .Ltmp465-.Ltmp464              #   Call between .Ltmp464 and .Ltmp465
	.uleb128 .Ltmp542-.Lfunc_begin4         #     jumps to .Ltmp542
	.byte	0                               #   On action: cleanup
	.uleb128 .Ltmp465-.Lfunc_begin4         # >> Call Site 7 <<
	.uleb128 .Ltmp468-.Ltmp465              #   Call between .Ltmp465 and .Ltmp468
	.byte	0                               #     has no landing pad
	.byte	0                               #   On action: cleanup
	.uleb128 .Ltmp468-.Lfunc_begin4         # >> Call Site 8 <<
	.uleb128 .Ltmp469-.Ltmp468              #   Call between .Ltmp468 and .Ltmp469
	.uleb128 .Ltmp539-.Lfunc_begin4         #     jumps to .Ltmp539
	.byte	0                               #   On action: cleanup
	.uleb128 .Ltmp470-.Lfunc_begin4         # >> Call Site 9 <<
	.uleb128 .Ltmp471-.Ltmp470              #   Call between .Ltmp470 and .Ltmp471
	.uleb128 .Ltmp536-.Lfunc_begin4         #     jumps to .Ltmp536
	.byte	0                               #   On action: cleanup
	.uleb128 .Ltmp471-.Lfunc_begin4         # >> Call Site 10 <<
	.uleb128 .Ltmp474-.Ltmp471              #   Call between .Ltmp471 and .Ltmp474
	.byte	0                               #     has no landing pad
	.byte	0                               #   On action: cleanup
	.uleb128 .Ltmp474-.Lfunc_begin4         # >> Call Site 11 <<
	.uleb128 .Ltmp475-.Ltmp474              #   Call between .Ltmp474 and .Ltmp475
	.uleb128 .Ltmp533-.Lfunc_begin4         #     jumps to .Ltmp533
	.byte	0                               #   On action: cleanup
	.uleb128 .Ltmp476-.Lfunc_begin4         # >> Call Site 12 <<
	.uleb128 .Ltmp477-.Ltmp476              #   Call between .Ltmp476 and .Ltmp477
	.uleb128 .Ltmp530-.Lfunc_begin4         #     jumps to .Ltmp530
	.byte	0                               #   On action: cleanup
	.uleb128 .Ltmp477-.Lfunc_begin4         # >> Call Site 13 <<
	.uleb128 .Ltmp480-.Ltmp477              #   Call between .Ltmp477 and .Ltmp480
	.byte	0                               #     has no landing pad
	.byte	0                               #   On action: cleanup
	.uleb128 .Ltmp480-.Lfunc_begin4         # >> Call Site 14 <<
	.uleb128 .Ltmp481-.Ltmp480              #   Call between .Ltmp480 and .Ltmp481
	.uleb128 .Ltmp527-.Lfunc_begin4         #     jumps to .Ltmp527
	.byte	0                               #   On action: cleanup
	.uleb128 .Ltmp482-.Lfunc_begin4         # >> Call Site 15 <<
	.uleb128 .Ltmp483-.Ltmp482              #   Call between .Ltmp482 and .Ltmp483
	.uleb128 .Ltmp524-.Lfunc_begin4         #     jumps to .Ltmp524
	.byte	0                               #   On action: cleanup
	.uleb128 .Ltmp483-.Lfunc_begin4         # >> Call Site 16 <<
	.uleb128 .Ltmp486-.Ltmp483              #   Call between .Ltmp483 and .Ltmp486
	.byte	0                               #     has no landing pad
	.byte	0                               #   On action: cleanup
	.uleb128 .Ltmp486-.Lfunc_begin4         # >> Call Site 17 <<
	.uleb128 .Ltmp487-.Ltmp486              #   Call between .Ltmp486 and .Ltmp487
	.uleb128 .Ltmp521-.Lfunc_begin4         #     jumps to .Ltmp521
	.byte	0                               #   On action: cleanup
	.uleb128 .Ltmp488-.Lfunc_begin4         # >> Call Site 18 <<
	.uleb128 .Ltmp489-.Ltmp488              #   Call between .Ltmp488 and .Ltmp489
	.uleb128 .Ltmp518-.Lfunc_begin4         #     jumps to .Ltmp518
	.byte	0                               #   On action: cleanup
	.uleb128 .Ltmp489-.Lfunc_begin4         # >> Call Site 19 <<
	.uleb128 .Ltmp492-.Ltmp489              #   Call between .Ltmp489 and .Ltmp492
	.byte	0                               #     has no landing pad
	.byte	0                               #   On action: cleanup
	.uleb128 .Ltmp492-.Lfunc_begin4         # >> Call Site 20 <<
	.uleb128 .Ltmp493-.Ltmp492              #   Call between .Ltmp492 and .Ltmp493
	.uleb128 .Ltmp515-.Lfunc_begin4         #     jumps to .Ltmp515
	.byte	0                               #   On action: cleanup
	.uleb128 .Ltmp494-.Lfunc_begin4         # >> Call Site 21 <<
	.uleb128 .Ltmp495-.Ltmp494              #   Call between .Ltmp494 and .Ltmp495
	.uleb128 .Ltmp512-.Lfunc_begin4         #     jumps to .Ltmp512
	.byte	0                               #   On action: cleanup
	.uleb128 .Ltmp495-.Lfunc_begin4         # >> Call Site 22 <<
	.uleb128 .Ltmp498-.Ltmp495              #   Call between .Ltmp495 and .Ltmp498
	.byte	0                               #     has no landing pad
	.byte	0                               #   On action: cleanup
	.uleb128 .Ltmp498-.Lfunc_begin4         # >> Call Site 23 <<
	.uleb128 .Ltmp499-.Ltmp498              #   Call between .Ltmp498 and .Ltmp499
	.uleb128 .Ltmp509-.Lfunc_begin4         #     jumps to .Ltmp509
	.byte	0                               #   On action: cleanup
	.uleb128 .Ltmp500-.Lfunc_begin4         # >> Call Site 24 <<
	.uleb128 .Ltmp501-.Ltmp500              #   Call between .Ltmp500 and .Ltmp501
	.uleb128 .Ltmp506-.Lfunc_begin4         #     jumps to .Ltmp506
	.byte	0                               #   On action: cleanup
	.uleb128 .Ltmp501-.Lfunc_begin4         # >> Call Site 25 <<
	.uleb128 .Ltmp543-.Ltmp501              #   Call between .Ltmp501 and .Ltmp543
	.byte	0                               #     has no landing pad
	.byte	0                               #   On action: cleanup
	.uleb128 .Ltmp543-.Lfunc_begin4         # >> Call Site 26 <<
	.uleb128 .Ltmp544-.Ltmp543              #   Call between .Ltmp543 and .Ltmp544
	.uleb128 .Ltmp545-.Lfunc_begin4         #     jumps to .Ltmp545
	.byte	0                               #   On action: cleanup
	.uleb128 .Ltmp540-.Lfunc_begin4         # >> Call Site 27 <<
	.uleb128 .Ltmp467-.Ltmp540              #   Call between .Ltmp540 and .Ltmp467
	.uleb128 .Ltmp542-.Lfunc_begin4         #     jumps to .Ltmp542
	.byte	0                               #   On action: cleanup
	.uleb128 .Ltmp537-.Lfunc_begin4         # >> Call Site 28 <<
	.uleb128 .Ltmp538-.Ltmp537              #   Call between .Ltmp537 and .Ltmp538
	.uleb128 .Ltmp539-.Lfunc_begin4         #     jumps to .Ltmp539
	.byte	0                               #   On action: cleanup
	.uleb128 .Ltmp534-.Lfunc_begin4         # >> Call Site 29 <<
	.uleb128 .Ltmp473-.Ltmp534              #   Call between .Ltmp534 and .Ltmp473
	.uleb128 .Ltmp536-.Lfunc_begin4         #     jumps to .Ltmp536
	.byte	0                               #   On action: cleanup
	.uleb128 .Ltmp531-.Lfunc_begin4         # >> Call Site 30 <<
	.uleb128 .Ltmp532-.Ltmp531              #   Call between .Ltmp531 and .Ltmp532
	.uleb128 .Ltmp533-.Lfunc_begin4         #     jumps to .Ltmp533
	.byte	0                               #   On action: cleanup
	.uleb128 .Ltmp528-.Lfunc_begin4         # >> Call Site 31 <<
	.uleb128 .Ltmp479-.Ltmp528              #   Call between .Ltmp528 and .Ltmp479
	.uleb128 .Ltmp530-.Lfunc_begin4         #     jumps to .Ltmp530
	.byte	0                               #   On action: cleanup
	.uleb128 .Ltmp525-.Lfunc_begin4         # >> Call Site 32 <<
	.uleb128 .Ltmp526-.Ltmp525              #   Call between .Ltmp525 and .Ltmp526
	.uleb128 .Ltmp527-.Lfunc_begin4         #     jumps to .Ltmp527
	.byte	0                               #   On action: cleanup
	.uleb128 .Ltmp522-.Lfunc_begin4         # >> Call Site 33 <<
	.uleb128 .Ltmp485-.Ltmp522              #   Call between .Ltmp522 and .Ltmp485
	.uleb128 .Ltmp524-.Lfunc_begin4         #     jumps to .Ltmp524
	.byte	0                               #   On action: cleanup
	.uleb128 .Ltmp519-.Lfunc_begin4         # >> Call Site 34 <<
	.uleb128 .Ltmp520-.Ltmp519              #   Call between .Ltmp519 and .Ltmp520
	.uleb128 .Ltmp521-.Lfunc_begin4         #     jumps to .Ltmp521
	.byte	0                               #   On action: cleanup
	.uleb128 .Ltmp516-.Lfunc_begin4         # >> Call Site 35 <<
	.uleb128 .Ltmp491-.Ltmp516              #   Call between .Ltmp516 and .Ltmp491
	.uleb128 .Ltmp518-.Lfunc_begin4         #     jumps to .Ltmp518
	.byte	0                               #   On action: cleanup
	.uleb128 .Ltmp513-.Lfunc_begin4         # >> Call Site 36 <<
	.uleb128 .Ltmp514-.Ltmp513              #   Call between .Ltmp513 and .Ltmp514
	.uleb128 .Ltmp515-.Lfunc_begin4         #     jumps to .Ltmp515
	.byte	0                               #   On action: cleanup
	.uleb128 .Ltmp510-.Lfunc_begin4         # >> Call Site 37 <<
	.uleb128 .Ltmp497-.Ltmp510              #   Call between .Ltmp510 and .Ltmp497
	.uleb128 .Ltmp512-.Lfunc_begin4         #     jumps to .Ltmp512
	.byte	0                               #   On action: cleanup
	.uleb128 .Ltmp507-.Lfunc_begin4         # >> Call Site 38 <<
	.uleb128 .Ltmp508-.Ltmp507              #   Call between .Ltmp507 and .Ltmp508
	.uleb128 .Ltmp509-.Lfunc_begin4         #     jumps to .Ltmp509
	.byte	0                               #   On action: cleanup
	.uleb128 .Ltmp504-.Lfunc_begin4         # >> Call Site 39 <<
	.uleb128 .Ltmp503-.Ltmp504              #   Call between .Ltmp504 and .Ltmp503
	.uleb128 .Ltmp506-.Lfunc_begin4         #     jumps to .Ltmp506
	.byte	0                               #   On action: cleanup
	.uleb128 .Ltmp503-.Lfunc_begin4         # >> Call Site 40 <<
	.uleb128 .Lfunc_end4-.Ltmp503           #   Call between .Ltmp503 and .Lfunc_end4
	.byte	0                               #     has no landing pad
	.byte	0                               #   On action: cleanup
.Lcst_end4:
	.p2align	2, 0x0
                                        # -- End function
	.text
	.p2align	5                               # -- Begin function _ZL19checkVectorFunctionIjfEvSt8functionIFT_PT0_S3_jEES5_PKc
	.type	_ZL19checkVectorFunctionIjfEvSt8functionIFT_PT0_S3_jEES5_PKc,@function
_ZL19checkVectorFunctionIjfEvSt8functionIFT_PT0_S3_jEES5_PKc: # @_ZL19checkVectorFunctionIjfEvSt8functionIFT_PT0_S3_jEES5_PKc
.Lfunc_begin5:
	.cfi_startproc
	.cfi_personality 155, DW.ref.__gxx_personality_v0
	.cfi_lsda 27, .Lexception5
# %bb.0:                                # %entry
	addi.d	$sp, $sp, -128
	.cfi_def_cfa_offset 128
	st.d	$ra, $sp, 120                   # 8-byte Folded Spill
	st.d	$fp, $sp, 112                   # 8-byte Folded Spill
	st.d	$s0, $sp, 104                   # 8-byte Folded Spill
	st.d	$s1, $sp, 96                    # 8-byte Folded Spill
	st.d	$s2, $sp, 88                    # 8-byte Folded Spill
	st.d	$s3, $sp, 80                    # 8-byte Folded Spill
	st.d	$s4, $sp, 72                    # 8-byte Folded Spill
	st.d	$s5, $sp, 64                    # 8-byte Folded Spill
	.cfi_offset 1, -8
	.cfi_offset 22, -16
	.cfi_offset 23, -24
	.cfi_offset 24, -32
	.cfi_offset 25, -40
	.cfi_offset 26, -48
	.cfi_offset 27, -56
	.cfi_offset 28, -64
	move	$fp, $a2
	move	$s1, $a1
	move	$s2, $a0
	pcalau12i	$a0, %got_pc_hi20(_ZSt4cout)
	ld.d	$s0, $a0, %got_pc_lo12(_ZSt4cout)
	pcalau12i	$a0, %pc_hi20(.L.str.12)
	addi.d	$a1, $a0, %pc_lo12(.L.str.12)
	ori	$a2, $zero, 9
	move	$a0, $s0
	pcaddu18i	$ra, %call36(_ZSt16__ostream_insertIcSt11char_traitsIcEERSt13basic_ostreamIT_T0_ES6_PKS3_l)
	jirl	$ra, $ra, 0
	beqz	$fp, .LBB5_2
# %bb.1:                                # %if.else.i
	move	$a0, $fp
	pcaddu18i	$ra, %call36(strlen)
	jirl	$ra, $ra, 0
	move	$a2, $a0
	pcalau12i	$a0, %got_pc_hi20(_ZSt4cout)
	ld.d	$a0, $a0, %got_pc_lo12(_ZSt4cout)
	move	$a1, $fp
	pcaddu18i	$ra, %call36(_ZSt16__ostream_insertIcSt11char_traitsIcEERSt13basic_ostreamIT_T0_ES6_PKS3_l)
	jirl	$ra, $ra, 0
	b	.LBB5_3
.LBB5_2:                                # %if.then.i
	ld.d	$a0, $s0, 0
	ld.d	$a0, $a0, -24
	add.d	$a0, $s0, $a0
	ld.w	$a1, $a0, 32
	ori	$a1, $a1, 1
	pcaddu18i	$ra, %call36(_ZNSt9basic_iosIcSt11char_traitsIcEE5clearESt12_Ios_Iostate)
	jirl	$ra, $ra, 0
.LBB5_3:                                # %_ZStlsISt11char_traitsIcEERSt13basic_ostreamIcT_ES5_PKc.exit
	pcalau12i	$a0, %got_pc_hi20(_ZSt4cout)
	ld.d	$a0, $a0, %got_pc_lo12(_ZSt4cout)
	pcalau12i	$a1, %pc_hi20(.L.str.13)
	addi.d	$a1, $a1, %pc_lo12(.L.str.13)
	ori	$a2, $zero, 1
	pcaddu18i	$ra, %call36(_ZSt16__ostream_insertIcSt11char_traitsIcEERSt13basic_ostreamIT_T0_ES6_PKS3_l)
	jirl	$ra, $ra, 0
	ori	$a0, $zero, 4000
	pcaddu18i	$ra, %call36(_Znam)
	jirl	$ra, $ra, 0
	move	$fp, $a0
.Ltmp546:                               # EH_LABEL
	ori	$a0, $zero, 4000
	pcaddu18i	$ra, %call36(_Znam)
	jirl	$ra, $ra, 0
.Ltmp547:                               # EH_LABEL
# %bb.4:                                # %invoke.cont
	move	$s0, $a0
	move	$a0, $fp
	pcaddu18i	$ra, %call36(_ZL9init_dataIfEvRKSt10unique_ptrIA_T_St14default_deleteIS2_EEj)
	jirl	$ra, $ra, 0
	move	$a0, $s0
	pcaddu18i	$ra, %call36(_ZL9init_dataIfEvRKSt10unique_ptrIA_T_St14default_deleteIS2_EEj)
	jirl	$ra, $ra, 0
	ld.d	$a0, $s2, 16
	st.d	$fp, $sp, 56
	st.d	$s0, $sp, 48
	ori	$a1, $zero, 1000
	st.w	$a1, $sp, 44
	beqz	$a0, .LBB5_52
# %bb.5:                                # %if.end.i
	ld.d	$a4, $s2, 24
.Ltmp549:                               # EH_LABEL
	addi.d	$a1, $sp, 56
	addi.d	$a2, $sp, 48
	addi.d	$a3, $sp, 44
	move	$a0, $s2
	jirl	$ra, $a4, 0
.Ltmp550:                               # EH_LABEL
# %bb.6:                                # %invoke.cont12
	move	$s3, $a0
	ld.d	$a0, $s1, 16
	st.d	$fp, $sp, 56
	st.d	$s0, $sp, 48
	ori	$a1, $zero, 1000
	st.w	$a1, $sp, 44
	beqz	$a0, .LBB5_54
# %bb.7:                                # %if.end.i71
	ld.d	$a4, $s1, 24
.Ltmp551:                               # EH_LABEL
	addi.d	$a1, $sp, 56
	addi.d	$a2, $sp, 48
	addi.d	$a3, $sp, 44
	move	$a0, $s1
	jirl	$ra, $a4, 0
.Ltmp552:                               # EH_LABEL
# %bb.8:                                # %invoke.cont17
	bne	$s3, $a0, .LBB5_56
# %bb.9:                                # %vector.body.preheader
	lu12i.w	$s5, -1
	ori	$a0, $s5, 96
	lu12i.w	$a1, 522239
	ori	$s4, $a1, 4095
	vreplgr2vr.w	$vr1, $s4
	ori	$a1, $zero, 4000
	ori	$a2, $zero, 4016
	vldi	$vr0, -3456
	.p2align	4, , 16
.LBB5_10:                               # %vector.body
                                        # =>This Inner Loop Header: Depth=1
	add.d	$a3, $fp, $a0
	vstx	$vr1, $a3, $a1
	vstx	$vr1, $a3, $a2
	add.d	$a3, $s0, $a0
	vstx	$vr0, $a3, $a1
	addi.d	$a0, $a0, 32
	vstx	$vr0, $a3, $a2
	bnez	$a0, .LBB5_10
# %bb.11:                               # %for.cond.cleanup
	vst	$vr1, $sp, 16                   # 16-byte Folded Spill
	ld.d	$a0, $s2, 16
	st.d	$fp, $sp, 56
	st.d	$s0, $sp, 48
	ori	$a1, $zero, 1000
	st.w	$a1, $sp, 44
	beqz	$a0, .LBB5_57
# %bb.12:                               # %if.end.i82
	ld.d	$a4, $s2, 24
.Ltmp555:                               # EH_LABEL
	addi.d	$a1, $sp, 56
	addi.d	$a2, $sp, 48
	addi.d	$a3, $sp, 44
	move	$a0, $s2
	jirl	$ra, $a4, 0
.Ltmp556:                               # EH_LABEL
# %bb.13:                               # %invoke.cont32
	move	$s3, $a0
	ld.d	$a0, $s1, 16
	st.d	$fp, $sp, 56
	st.d	$s0, $sp, 48
	ori	$a1, $zero, 1000
	st.w	$a1, $sp, 44
	beqz	$a0, .LBB5_59
# %bb.14:                               # %if.end.i96
	ld.d	$a4, $s1, 24
.Ltmp557:                               # EH_LABEL
	addi.d	$a1, $sp, 56
	addi.d	$a2, $sp, 48
	addi.d	$a3, $sp, 44
	move	$a0, $s1
	jirl	$ra, $a4, 0
.Ltmp558:                               # EH_LABEL
# %bb.15:                               # %invoke.cont38
	vld	$vr1, $sp, 16                   # 16-byte Folded Reload
	bne	$s3, $a0, .LBB5_61
# %bb.16:                               # %vector.body324.preheader
	ori	$a0, $s5, 96
	vldi	$vr0, -3456
	ori	$a1, $zero, 4000
	ori	$a2, $zero, 4016
	.p2align	4, , 16
.LBB5_17:                               # %vector.body324
                                        # =>This Inner Loop Header: Depth=1
	add.d	$a3, $fp, $a0
	vstx	$vr0, $a3, $a1
	vstx	$vr0, $a3, $a2
	add.d	$a3, $s0, $a0
	vstx	$vr1, $a3, $a1
	addi.d	$a0, $a0, 32
	vstx	$vr1, $a3, $a2
	bnez	$a0, .LBB5_17
# %bb.18:                               # %for.cond.cleanup50
	ld.d	$a0, $s2, 16
	st.d	$fp, $sp, 56
	st.d	$s0, $sp, 48
	ori	$a1, $zero, 1000
	st.w	$a1, $sp, 44
	beqz	$a0, .LBB5_62
# %bb.19:                               # %if.end.i109
	ld.d	$a4, $s2, 24
.Ltmp561:                               # EH_LABEL
	addi.d	$a1, $sp, 56
	addi.d	$a2, $sp, 48
	addi.d	$a3, $sp, 44
	move	$a0, $s2
	jirl	$ra, $a4, 0
.Ltmp562:                               # EH_LABEL
# %bb.20:                               # %invoke.cont65
	move	$s3, $a0
	ld.d	$a0, $s1, 16
	st.d	$fp, $sp, 56
	st.d	$s0, $sp, 48
	ori	$a1, $zero, 1000
	st.w	$a1, $sp, 44
	beqz	$a0, .LBB5_64
# %bb.21:                               # %if.end.i124
	ld.d	$a4, $s1, 24
.Ltmp563:                               # EH_LABEL
	addi.d	$a1, $sp, 56
	addi.d	$a2, $sp, 48
	addi.d	$a3, $sp, 44
	move	$a0, $s1
	jirl	$ra, $a4, 0
.Ltmp564:                               # EH_LABEL
# %bb.22:                               # %invoke.cont71
	bne	$s3, $a0, .LBB5_66
# %bb.23:                               # %vector.body329.preheader
	ori	$a0, $s5, 96
	vldi	$vr0, -3456
	ori	$a1, $zero, 4000
	ori	$a2, $zero, 4016
	.p2align	4, , 16
.LBB5_24:                               # %vector.body329
                                        # =>This Inner Loop Header: Depth=1
	add.d	$a3, $s0, $a0
	vstx	$vr0, $a3, $a1
	vstx	$vr0, $a3, $a2
	add.d	$a3, $fp, $a0
	vstx	$vr0, $a3, $a1
	addi.d	$a0, $a0, 32
	vstx	$vr0, $a3, $a2
	bnez	$a0, .LBB5_24
# %bb.25:                               # %for.cond.cleanup83
	stptr.w	$s4, $fp, 3992
	ld.d	$a0, $s2, 16
	st.d	$fp, $sp, 56
	st.d	$s0, $sp, 48
	ori	$a1, $zero, 1000
	st.w	$a1, $sp, 44
	beqz	$a0, .LBB5_67
# %bb.26:                               # %if.end.i138
	ld.d	$a4, $s2, 24
.Ltmp567:                               # EH_LABEL
	addi.d	$a1, $sp, 56
	addi.d	$a2, $sp, 48
	addi.d	$a3, $sp, 44
	move	$a0, $s2
	jirl	$ra, $a4, 0
.Ltmp568:                               # EH_LABEL
# %bb.27:                               # %invoke.cont99
	move	$s3, $a0
	ld.d	$a0, $s1, 16
	st.d	$fp, $sp, 56
	st.d	$s0, $sp, 48
	ori	$a1, $zero, 1000
	st.w	$a1, $sp, 44
	beqz	$a0, .LBB5_69
# %bb.28:                               # %if.end.i153
	ld.d	$a4, $s1, 24
.Ltmp569:                               # EH_LABEL
	addi.d	$a1, $sp, 56
	addi.d	$a2, $sp, 48
	addi.d	$a3, $sp, 44
	move	$a0, $s1
	jirl	$ra, $a4, 0
.Ltmp570:                               # EH_LABEL
# %bb.29:                               # %invoke.cont105
	bne	$s3, $a0, .LBB5_71
# %bb.30:                               # %vector.body334.preheader
	ori	$a0, $s5, 96
	vldi	$vr0, -3456
	ori	$a1, $zero, 4000
	ori	$a2, $zero, 4016
	.p2align	4, , 16
.LBB5_31:                               # %vector.body334
                                        # =>This Inner Loop Header: Depth=1
	add.d	$a3, $s0, $a0
	vstx	$vr0, $a3, $a1
	vstx	$vr0, $a3, $a2
	add.d	$a3, $fp, $a0
	vstx	$vr0, $a3, $a1
	addi.d	$a0, $a0, 32
	vstx	$vr0, $a3, $a2
	bnez	$a0, .LBB5_31
# %bb.32:                               # %for.cond.cleanup117
	st.w	$s4, $fp, 0
	ld.d	$a0, $s2, 16
	st.d	$fp, $sp, 56
	st.d	$s0, $sp, 48
	ori	$a1, $zero, 1000
	st.w	$a1, $sp, 44
	beqz	$a0, .LBB5_72
# %bb.33:                               # %if.end.i167
	ld.d	$a4, $s2, 24
.Ltmp573:                               # EH_LABEL
	addi.d	$a1, $sp, 56
	addi.d	$a2, $sp, 48
	addi.d	$a3, $sp, 44
	move	$a0, $s2
	jirl	$ra, $a4, 0
.Ltmp574:                               # EH_LABEL
# %bb.34:                               # %invoke.cont133
	move	$s3, $a0
	ld.d	$a0, $s1, 16
	st.d	$fp, $sp, 56
	st.d	$s0, $sp, 48
	ori	$a1, $zero, 1000
	st.w	$a1, $sp, 44
	beqz	$a0, .LBB5_74
# %bb.35:                               # %if.end.i182
	ld.d	$a4, $s1, 24
.Ltmp575:                               # EH_LABEL
	addi.d	$a1, $sp, 56
	addi.d	$a2, $sp, 48
	addi.d	$a3, $sp, 44
	move	$a0, $s1
	jirl	$ra, $a4, 0
.Ltmp576:                               # EH_LABEL
# %bb.36:                               # %invoke.cont139
	bne	$s3, $a0, .LBB5_76
# %bb.37:                               # %vector.body339.preheader
	ori	$a0, $s5, 96
	vldi	$vr0, -3456
	ori	$a1, $zero, 4000
	ori	$a2, $zero, 4016
	.p2align	4, , 16
.LBB5_38:                               # %vector.body339
                                        # =>This Inner Loop Header: Depth=1
	add.d	$a3, $s0, $a0
	vstx	$vr0, $a3, $a1
	vstx	$vr0, $a3, $a2
	add.d	$a3, $fp, $a0
	vstx	$vr0, $a3, $a1
	addi.d	$a0, $a0, 32
	vstx	$vr0, $a3, $a2
	bnez	$a0, .LBB5_38
# %bb.39:                               # %for.cond.cleanup151
	stptr.w	$s4, $fp, 3996
	ld.d	$a0, $s2, 16
	st.d	$fp, $sp, 56
	st.d	$s0, $sp, 48
	ori	$a1, $zero, 1000
	st.w	$a1, $sp, 44
	beqz	$a0, .LBB5_77
# %bb.40:                               # %if.end.i196
	ld.d	$a4, $s2, 24
.Ltmp579:                               # EH_LABEL
	addi.d	$a1, $sp, 56
	addi.d	$a2, $sp, 48
	addi.d	$a3, $sp, 44
	move	$a0, $s2
	jirl	$ra, $a4, 0
.Ltmp580:                               # EH_LABEL
# %bb.41:                               # %invoke.cont168
	move	$s3, $a0
	ld.d	$a0, $s1, 16
	st.d	$fp, $sp, 56
	st.d	$s0, $sp, 48
	ori	$a1, $zero, 1000
	st.w	$a1, $sp, 44
	beqz	$a0, .LBB5_79
# %bb.42:                               # %if.end.i211
	ld.d	$a4, $s1, 24
.Ltmp581:                               # EH_LABEL
	addi.d	$a1, $sp, 56
	addi.d	$a2, $sp, 48
	addi.d	$a3, $sp, 44
	move	$a0, $s1
	jirl	$ra, $a4, 0
.Ltmp582:                               # EH_LABEL
# %bb.43:                               # %invoke.cont174
	bne	$s3, $a0, .LBB5_81
# %bb.44:                               # %vector.body344.preheader
	ori	$a0, $s5, 96
	vldi	$vr0, -3456
	ori	$a1, $zero, 4000
	ori	$a2, $zero, 4016
	.p2align	4, , 16
.LBB5_45:                               # %vector.body344
                                        # =>This Inner Loop Header: Depth=1
	add.d	$a3, $s0, $a0
	vstx	$vr0, $a3, $a1
	vstx	$vr0, $a3, $a2
	add.d	$a3, $fp, $a0
	vstx	$vr0, $a3, $a1
	addi.d	$a0, $a0, 32
	vstx	$vr0, $a3, $a2
	bnez	$a0, .LBB5_45
# %bb.46:                               # %for.cond.cleanup186
	stptr.w	$s4, $fp, 3996
	st.w	$s4, $fp, 0
	ld.d	$a0, $s2, 16
	st.d	$fp, $sp, 56
	st.d	$s0, $sp, 48
	ori	$a1, $zero, 1000
	st.w	$a1, $sp, 44
	beqz	$a0, .LBB5_82
# %bb.47:                               # %if.end.i226
	ld.d	$a4, $s2, 24
.Ltmp585:                               # EH_LABEL
	addi.d	$a1, $sp, 56
	addi.d	$a2, $sp, 48
	addi.d	$a3, $sp, 44
	move	$a0, $s2
	jirl	$ra, $a4, 0
.Ltmp586:                               # EH_LABEL
# %bb.48:                               # %invoke.cont205
	move	$s2, $a0
	ld.d	$a0, $s1, 16
	st.d	$fp, $sp, 56
	st.d	$s0, $sp, 48
	ori	$a1, $zero, 1000
	st.w	$a1, $sp, 44
	beqz	$a0, .LBB5_84
# %bb.49:                               # %if.end.i241
	ld.d	$a4, $s1, 24
.Ltmp587:                               # EH_LABEL
	addi.d	$a1, $sp, 56
	addi.d	$a2, $sp, 48
	addi.d	$a3, $sp, 44
	move	$a0, $s1
	jirl	$ra, $a4, 0
.Ltmp588:                               # EH_LABEL
# %bb.50:                               # %invoke.cont211
	bne	$s2, $a0, .LBB5_86
# %bb.51:                               # %_ZNSt10unique_ptrIA_fSt14default_deleteIS0_EED2Ev.exit251
	move	$a0, $s0
	pcaddu18i	$ra, %call36(_ZdaPv)
	jirl	$ra, $ra, 0
	move	$a0, $fp
	pcaddu18i	$ra, %call36(_ZdaPv)
	jirl	$ra, $ra, 0
	ld.d	$s5, $sp, 64                    # 8-byte Folded Reload
	ld.d	$s4, $sp, 72                    # 8-byte Folded Reload
	ld.d	$s3, $sp, 80                    # 8-byte Folded Reload
	ld.d	$s2, $sp, 88                    # 8-byte Folded Reload
	ld.d	$s1, $sp, 96                    # 8-byte Folded Reload
	ld.d	$s0, $sp, 104                   # 8-byte Folded Reload
	ld.d	$fp, $sp, 112                   # 8-byte Folded Reload
	ld.d	$ra, $sp, 120                   # 8-byte Folded Reload
	addi.d	$sp, $sp, 128
	ret
.LBB5_52:                               # %if.then.i64
.Ltmp630:                               # EH_LABEL
	pcaddu18i	$ra, %call36(_ZSt25__throw_bad_function_callv)
	jirl	$ra, $ra, 0
.Ltmp631:                               # EH_LABEL
# %bb.53:                               # %.noexc
.LBB5_54:                               # %if.then.i73
.Ltmp627:                               # EH_LABEL
	pcaddu18i	$ra, %call36(_ZSt25__throw_bad_function_callv)
	jirl	$ra, $ra, 0
.Ltmp628:                               # EH_LABEL
# %bb.55:                               # %.noexc74
.LBB5_56:                               # %if.then
.Ltmp553:                               # EH_LABEL
	pcalau12i	$a0, %got_pc_hi20(_ZSt4cerr)
	ld.d	$a0, $a0, %got_pc_lo12(_ZSt4cerr)
	pcalau12i	$a1, %pc_hi20(.L.str.14)
	addi.d	$a1, $a1, %pc_lo12(.L.str.14)
	pcaddu18i	$ra, %call36(_ZStlsISt11char_traitsIcEERSt13basic_ostreamIcT_ES5_PKc)
	jirl	$ra, $ra, 0
.Ltmp554:                               # EH_LABEL
	b	.LBB5_87
.LBB5_57:                               # %if.then.i84
.Ltmp624:                               # EH_LABEL
	pcaddu18i	$ra, %call36(_ZSt25__throw_bad_function_callv)
	jirl	$ra, $ra, 0
.Ltmp625:                               # EH_LABEL
# %bb.58:                               # %.noexc85
.LBB5_59:                               # %if.then.i98
.Ltmp621:                               # EH_LABEL
	pcaddu18i	$ra, %call36(_ZSt25__throw_bad_function_callv)
	jirl	$ra, $ra, 0
.Ltmp622:                               # EH_LABEL
# %bb.60:                               # %.noexc99
.LBB5_61:                               # %if.then41
.Ltmp559:                               # EH_LABEL
	pcalau12i	$a0, %got_pc_hi20(_ZSt4cerr)
	ld.d	$a0, $a0, %got_pc_lo12(_ZSt4cerr)
	pcalau12i	$a1, %pc_hi20(.L.str.14)
	addi.d	$a1, $a1, %pc_lo12(.L.str.14)
	pcaddu18i	$ra, %call36(_ZStlsISt11char_traitsIcEERSt13basic_ostreamIcT_ES5_PKc)
	jirl	$ra, $ra, 0
.Ltmp560:                               # EH_LABEL
	b	.LBB5_87
.LBB5_62:                               # %if.then.i111
.Ltmp618:                               # EH_LABEL
	pcaddu18i	$ra, %call36(_ZSt25__throw_bad_function_callv)
	jirl	$ra, $ra, 0
.Ltmp619:                               # EH_LABEL
# %bb.63:                               # %.noexc112
.LBB5_64:                               # %if.then.i126
.Ltmp615:                               # EH_LABEL
	pcaddu18i	$ra, %call36(_ZSt25__throw_bad_function_callv)
	jirl	$ra, $ra, 0
.Ltmp616:                               # EH_LABEL
# %bb.65:                               # %.noexc127
.LBB5_66:                               # %if.then74
.Ltmp565:                               # EH_LABEL
	pcalau12i	$a0, %got_pc_hi20(_ZSt4cerr)
	ld.d	$a0, $a0, %got_pc_lo12(_ZSt4cerr)
	pcalau12i	$a1, %pc_hi20(.L.str.14)
	addi.d	$a1, $a1, %pc_lo12(.L.str.14)
	pcaddu18i	$ra, %call36(_ZStlsISt11char_traitsIcEERSt13basic_ostreamIcT_ES5_PKc)
	jirl	$ra, $ra, 0
.Ltmp566:                               # EH_LABEL
	b	.LBB5_87
.LBB5_67:                               # %if.then.i140
.Ltmp612:                               # EH_LABEL
	pcaddu18i	$ra, %call36(_ZSt25__throw_bad_function_callv)
	jirl	$ra, $ra, 0
.Ltmp613:                               # EH_LABEL
# %bb.68:                               # %.noexc141
.LBB5_69:                               # %if.then.i155
.Ltmp609:                               # EH_LABEL
	pcaddu18i	$ra, %call36(_ZSt25__throw_bad_function_callv)
	jirl	$ra, $ra, 0
.Ltmp610:                               # EH_LABEL
# %bb.70:                               # %.noexc156
.LBB5_71:                               # %if.then108
.Ltmp571:                               # EH_LABEL
	pcalau12i	$a0, %got_pc_hi20(_ZSt4cerr)
	ld.d	$a0, $a0, %got_pc_lo12(_ZSt4cerr)
	pcalau12i	$a1, %pc_hi20(.L.str.14)
	addi.d	$a1, $a1, %pc_lo12(.L.str.14)
	pcaddu18i	$ra, %call36(_ZStlsISt11char_traitsIcEERSt13basic_ostreamIcT_ES5_PKc)
	jirl	$ra, $ra, 0
.Ltmp572:                               # EH_LABEL
	b	.LBB5_87
.LBB5_72:                               # %if.then.i169
.Ltmp606:                               # EH_LABEL
	pcaddu18i	$ra, %call36(_ZSt25__throw_bad_function_callv)
	jirl	$ra, $ra, 0
.Ltmp607:                               # EH_LABEL
# %bb.73:                               # %.noexc170
.LBB5_74:                               # %if.then.i184
.Ltmp603:                               # EH_LABEL
	pcaddu18i	$ra, %call36(_ZSt25__throw_bad_function_callv)
	jirl	$ra, $ra, 0
.Ltmp604:                               # EH_LABEL
# %bb.75:                               # %.noexc185
.LBB5_76:                               # %if.then142
.Ltmp577:                               # EH_LABEL
	pcalau12i	$a0, %got_pc_hi20(_ZSt4cerr)
	ld.d	$a0, $a0, %got_pc_lo12(_ZSt4cerr)
	pcalau12i	$a1, %pc_hi20(.L.str.14)
	addi.d	$a1, $a1, %pc_lo12(.L.str.14)
	pcaddu18i	$ra, %call36(_ZStlsISt11char_traitsIcEERSt13basic_ostreamIcT_ES5_PKc)
	jirl	$ra, $ra, 0
.Ltmp578:                               # EH_LABEL
	b	.LBB5_87
.LBB5_77:                               # %if.then.i198
.Ltmp600:                               # EH_LABEL
	pcaddu18i	$ra, %call36(_ZSt25__throw_bad_function_callv)
	jirl	$ra, $ra, 0
.Ltmp601:                               # EH_LABEL
# %bb.78:                               # %.noexc199
.LBB5_79:                               # %if.then.i213
.Ltmp597:                               # EH_LABEL
	pcaddu18i	$ra, %call36(_ZSt25__throw_bad_function_callv)
	jirl	$ra, $ra, 0
.Ltmp598:                               # EH_LABEL
# %bb.80:                               # %.noexc214
.LBB5_81:                               # %if.then177
.Ltmp583:                               # EH_LABEL
	pcalau12i	$a0, %got_pc_hi20(_ZSt4cerr)
	ld.d	$a0, $a0, %got_pc_lo12(_ZSt4cerr)
	pcalau12i	$a1, %pc_hi20(.L.str.14)
	addi.d	$a1, $a1, %pc_lo12(.L.str.14)
	pcaddu18i	$ra, %call36(_ZStlsISt11char_traitsIcEERSt13basic_ostreamIcT_ES5_PKc)
	jirl	$ra, $ra, 0
.Ltmp584:                               # EH_LABEL
	b	.LBB5_87
.LBB5_82:                               # %if.then.i228
.Ltmp594:                               # EH_LABEL
	pcaddu18i	$ra, %call36(_ZSt25__throw_bad_function_callv)
	jirl	$ra, $ra, 0
.Ltmp595:                               # EH_LABEL
# %bb.83:                               # %.noexc229
.LBB5_84:                               # %if.then.i243
.Ltmp591:                               # EH_LABEL
	pcaddu18i	$ra, %call36(_ZSt25__throw_bad_function_callv)
	jirl	$ra, $ra, 0
.Ltmp592:                               # EH_LABEL
# %bb.85:                               # %.noexc244
.LBB5_86:                               # %if.then214
.Ltmp589:                               # EH_LABEL
	pcalau12i	$a0, %got_pc_hi20(_ZSt4cerr)
	ld.d	$a0, $a0, %got_pc_lo12(_ZSt4cerr)
	pcalau12i	$a1, %pc_hi20(.L.str.14)
	addi.d	$a1, $a1, %pc_lo12(.L.str.14)
	pcaddu18i	$ra, %call36(_ZStlsISt11char_traitsIcEERSt13basic_ostreamIcT_ES5_PKc)
	jirl	$ra, $ra, 0
.Ltmp590:                               # EH_LABEL
.LBB5_87:                               # %invoke.cont19
	ori	$a0, $zero, 1
	pcaddu18i	$ra, %call36(exit)
	jirl	$ra, $ra, 0
.LBB5_88:                               # %lpad
.Ltmp548:                               # EH_LABEL
	move	$s1, $a0
	move	$a0, $fp
	pcaddu18i	$ra, %call36(_ZdaPv)
	jirl	$ra, $ra, 0
	move	$a0, $s1
	pcaddu18i	$ra, %call36(_Unwind_Resume)
	jirl	$ra, $ra, 0
.LBB5_89:                               # %lpad204
.Ltmp596:                               # EH_LABEL
	b	.LBB5_103
.LBB5_90:                               # %lpad167
.Ltmp602:                               # EH_LABEL
	b	.LBB5_103
.LBB5_91:                               # %lpad132
.Ltmp608:                               # EH_LABEL
	b	.LBB5_103
.LBB5_92:                               # %lpad98
.Ltmp614:                               # EH_LABEL
	b	.LBB5_103
.LBB5_93:                               # %lpad64
.Ltmp620:                               # EH_LABEL
	b	.LBB5_103
.LBB5_94:                               # %lpad31
.Ltmp626:                               # EH_LABEL
	b	.LBB5_103
.LBB5_95:                               # %lpad11
.Ltmp632:                               # EH_LABEL
	b	.LBB5_103
.LBB5_96:                               # %lpad210
.Ltmp593:                               # EH_LABEL
	b	.LBB5_103
.LBB5_97:                               # %lpad173
.Ltmp599:                               # EH_LABEL
	b	.LBB5_103
.LBB5_98:                               # %lpad138
.Ltmp605:                               # EH_LABEL
	b	.LBB5_103
.LBB5_99:                               # %lpad104
.Ltmp611:                               # EH_LABEL
	b	.LBB5_103
.LBB5_100:                              # %lpad70
.Ltmp617:                               # EH_LABEL
	b	.LBB5_103
.LBB5_101:                              # %lpad37
.Ltmp623:                               # EH_LABEL
	b	.LBB5_103
.LBB5_102:                              # %lpad16
.Ltmp629:                               # EH_LABEL
.LBB5_103:                              # %_ZNSt10unique_ptrIA_fSt14default_deleteIS0_EED2Ev.exit255
	move	$s1, $a0
	move	$a0, $s0
	pcaddu18i	$ra, %call36(_ZdaPv)
	jirl	$ra, $ra, 0
	move	$a0, $fp
	pcaddu18i	$ra, %call36(_ZdaPv)
	jirl	$ra, $ra, 0
	move	$a0, $s1
	pcaddu18i	$ra, %call36(_Unwind_Resume)
	jirl	$ra, $ra, 0
.Lfunc_end5:
	.size	_ZL19checkVectorFunctionIjfEvSt8functionIFT_PT0_S3_jEES5_PKc, .Lfunc_end5-_ZL19checkVectorFunctionIjfEvSt8functionIFT_PT0_S3_jEES5_PKc
	.cfi_endproc
	.section	.gcc_except_table,"a",@progbits
	.p2align	2, 0x0
GCC_except_table5:
.Lexception5:
	.byte	255                             # @LPStart Encoding = omit
	.byte	255                             # @TType Encoding = omit
	.byte	1                               # Call site Encoding = uleb128
	.uleb128 .Lcst_end5-.Lcst_begin5
.Lcst_begin5:
	.uleb128 .Lfunc_begin5-.Lfunc_begin5    # >> Call Site 1 <<
	.uleb128 .Ltmp546-.Lfunc_begin5         #   Call between .Lfunc_begin5 and .Ltmp546
	.byte	0                               #     has no landing pad
	.byte	0                               #   On action: cleanup
	.uleb128 .Ltmp546-.Lfunc_begin5         # >> Call Site 2 <<
	.uleb128 .Ltmp547-.Ltmp546              #   Call between .Ltmp546 and .Ltmp547
	.uleb128 .Ltmp548-.Lfunc_begin5         #     jumps to .Ltmp548
	.byte	0                               #   On action: cleanup
	.uleb128 .Ltmp547-.Lfunc_begin5         # >> Call Site 3 <<
	.uleb128 .Ltmp549-.Ltmp547              #   Call between .Ltmp547 and .Ltmp549
	.byte	0                               #     has no landing pad
	.byte	0                               #   On action: cleanup
	.uleb128 .Ltmp549-.Lfunc_begin5         # >> Call Site 4 <<
	.uleb128 .Ltmp550-.Ltmp549              #   Call between .Ltmp549 and .Ltmp550
	.uleb128 .Ltmp632-.Lfunc_begin5         #     jumps to .Ltmp632
	.byte	0                               #   On action: cleanup
	.uleb128 .Ltmp551-.Lfunc_begin5         # >> Call Site 5 <<
	.uleb128 .Ltmp552-.Ltmp551              #   Call between .Ltmp551 and .Ltmp552
	.uleb128 .Ltmp629-.Lfunc_begin5         #     jumps to .Ltmp629
	.byte	0                               #   On action: cleanup
	.uleb128 .Ltmp555-.Lfunc_begin5         # >> Call Site 6 <<
	.uleb128 .Ltmp556-.Ltmp555              #   Call between .Ltmp555 and .Ltmp556
	.uleb128 .Ltmp626-.Lfunc_begin5         #     jumps to .Ltmp626
	.byte	0                               #   On action: cleanup
	.uleb128 .Ltmp557-.Lfunc_begin5         # >> Call Site 7 <<
	.uleb128 .Ltmp558-.Ltmp557              #   Call between .Ltmp557 and .Ltmp558
	.uleb128 .Ltmp623-.Lfunc_begin5         #     jumps to .Ltmp623
	.byte	0                               #   On action: cleanup
	.uleb128 .Ltmp561-.Lfunc_begin5         # >> Call Site 8 <<
	.uleb128 .Ltmp562-.Ltmp561              #   Call between .Ltmp561 and .Ltmp562
	.uleb128 .Ltmp620-.Lfunc_begin5         #     jumps to .Ltmp620
	.byte	0                               #   On action: cleanup
	.uleb128 .Ltmp563-.Lfunc_begin5         # >> Call Site 9 <<
	.uleb128 .Ltmp564-.Ltmp563              #   Call between .Ltmp563 and .Ltmp564
	.uleb128 .Ltmp617-.Lfunc_begin5         #     jumps to .Ltmp617
	.byte	0                               #   On action: cleanup
	.uleb128 .Ltmp567-.Lfunc_begin5         # >> Call Site 10 <<
	.uleb128 .Ltmp568-.Ltmp567              #   Call between .Ltmp567 and .Ltmp568
	.uleb128 .Ltmp614-.Lfunc_begin5         #     jumps to .Ltmp614
	.byte	0                               #   On action: cleanup
	.uleb128 .Ltmp569-.Lfunc_begin5         # >> Call Site 11 <<
	.uleb128 .Ltmp570-.Ltmp569              #   Call between .Ltmp569 and .Ltmp570
	.uleb128 .Ltmp611-.Lfunc_begin5         #     jumps to .Ltmp611
	.byte	0                               #   On action: cleanup
	.uleb128 .Ltmp573-.Lfunc_begin5         # >> Call Site 12 <<
	.uleb128 .Ltmp574-.Ltmp573              #   Call between .Ltmp573 and .Ltmp574
	.uleb128 .Ltmp608-.Lfunc_begin5         #     jumps to .Ltmp608
	.byte	0                               #   On action: cleanup
	.uleb128 .Ltmp575-.Lfunc_begin5         # >> Call Site 13 <<
	.uleb128 .Ltmp576-.Ltmp575              #   Call between .Ltmp575 and .Ltmp576
	.uleb128 .Ltmp605-.Lfunc_begin5         #     jumps to .Ltmp605
	.byte	0                               #   On action: cleanup
	.uleb128 .Ltmp579-.Lfunc_begin5         # >> Call Site 14 <<
	.uleb128 .Ltmp580-.Ltmp579              #   Call between .Ltmp579 and .Ltmp580
	.uleb128 .Ltmp602-.Lfunc_begin5         #     jumps to .Ltmp602
	.byte	0                               #   On action: cleanup
	.uleb128 .Ltmp581-.Lfunc_begin5         # >> Call Site 15 <<
	.uleb128 .Ltmp582-.Ltmp581              #   Call between .Ltmp581 and .Ltmp582
	.uleb128 .Ltmp599-.Lfunc_begin5         #     jumps to .Ltmp599
	.byte	0                               #   On action: cleanup
	.uleb128 .Ltmp585-.Lfunc_begin5         # >> Call Site 16 <<
	.uleb128 .Ltmp586-.Ltmp585              #   Call between .Ltmp585 and .Ltmp586
	.uleb128 .Ltmp596-.Lfunc_begin5         #     jumps to .Ltmp596
	.byte	0                               #   On action: cleanup
	.uleb128 .Ltmp587-.Lfunc_begin5         # >> Call Site 17 <<
	.uleb128 .Ltmp588-.Ltmp587              #   Call between .Ltmp587 and .Ltmp588
	.uleb128 .Ltmp593-.Lfunc_begin5         #     jumps to .Ltmp593
	.byte	0                               #   On action: cleanup
	.uleb128 .Ltmp588-.Lfunc_begin5         # >> Call Site 18 <<
	.uleb128 .Ltmp630-.Ltmp588              #   Call between .Ltmp588 and .Ltmp630
	.byte	0                               #     has no landing pad
	.byte	0                               #   On action: cleanup
	.uleb128 .Ltmp630-.Lfunc_begin5         # >> Call Site 19 <<
	.uleb128 .Ltmp631-.Ltmp630              #   Call between .Ltmp630 and .Ltmp631
	.uleb128 .Ltmp632-.Lfunc_begin5         #     jumps to .Ltmp632
	.byte	0                               #   On action: cleanup
	.uleb128 .Ltmp627-.Lfunc_begin5         # >> Call Site 20 <<
	.uleb128 .Ltmp554-.Ltmp627              #   Call between .Ltmp627 and .Ltmp554
	.uleb128 .Ltmp629-.Lfunc_begin5         #     jumps to .Ltmp629
	.byte	0                               #   On action: cleanup
	.uleb128 .Ltmp624-.Lfunc_begin5         # >> Call Site 21 <<
	.uleb128 .Ltmp625-.Ltmp624              #   Call between .Ltmp624 and .Ltmp625
	.uleb128 .Ltmp626-.Lfunc_begin5         #     jumps to .Ltmp626
	.byte	0                               #   On action: cleanup
	.uleb128 .Ltmp621-.Lfunc_begin5         # >> Call Site 22 <<
	.uleb128 .Ltmp560-.Ltmp621              #   Call between .Ltmp621 and .Ltmp560
	.uleb128 .Ltmp623-.Lfunc_begin5         #     jumps to .Ltmp623
	.byte	0                               #   On action: cleanup
	.uleb128 .Ltmp618-.Lfunc_begin5         # >> Call Site 23 <<
	.uleb128 .Ltmp619-.Ltmp618              #   Call between .Ltmp618 and .Ltmp619
	.uleb128 .Ltmp620-.Lfunc_begin5         #     jumps to .Ltmp620
	.byte	0                               #   On action: cleanup
	.uleb128 .Ltmp615-.Lfunc_begin5         # >> Call Site 24 <<
	.uleb128 .Ltmp566-.Ltmp615              #   Call between .Ltmp615 and .Ltmp566
	.uleb128 .Ltmp617-.Lfunc_begin5         #     jumps to .Ltmp617
	.byte	0                               #   On action: cleanup
	.uleb128 .Ltmp612-.Lfunc_begin5         # >> Call Site 25 <<
	.uleb128 .Ltmp613-.Ltmp612              #   Call between .Ltmp612 and .Ltmp613
	.uleb128 .Ltmp614-.Lfunc_begin5         #     jumps to .Ltmp614
	.byte	0                               #   On action: cleanup
	.uleb128 .Ltmp609-.Lfunc_begin5         # >> Call Site 26 <<
	.uleb128 .Ltmp572-.Ltmp609              #   Call between .Ltmp609 and .Ltmp572
	.uleb128 .Ltmp611-.Lfunc_begin5         #     jumps to .Ltmp611
	.byte	0                               #   On action: cleanup
	.uleb128 .Ltmp606-.Lfunc_begin5         # >> Call Site 27 <<
	.uleb128 .Ltmp607-.Ltmp606              #   Call between .Ltmp606 and .Ltmp607
	.uleb128 .Ltmp608-.Lfunc_begin5         #     jumps to .Ltmp608
	.byte	0                               #   On action: cleanup
	.uleb128 .Ltmp603-.Lfunc_begin5         # >> Call Site 28 <<
	.uleb128 .Ltmp578-.Ltmp603              #   Call between .Ltmp603 and .Ltmp578
	.uleb128 .Ltmp605-.Lfunc_begin5         #     jumps to .Ltmp605
	.byte	0                               #   On action: cleanup
	.uleb128 .Ltmp600-.Lfunc_begin5         # >> Call Site 29 <<
	.uleb128 .Ltmp601-.Ltmp600              #   Call between .Ltmp600 and .Ltmp601
	.uleb128 .Ltmp602-.Lfunc_begin5         #     jumps to .Ltmp602
	.byte	0                               #   On action: cleanup
	.uleb128 .Ltmp597-.Lfunc_begin5         # >> Call Site 30 <<
	.uleb128 .Ltmp584-.Ltmp597              #   Call between .Ltmp597 and .Ltmp584
	.uleb128 .Ltmp599-.Lfunc_begin5         #     jumps to .Ltmp599
	.byte	0                               #   On action: cleanup
	.uleb128 .Ltmp594-.Lfunc_begin5         # >> Call Site 31 <<
	.uleb128 .Ltmp595-.Ltmp594              #   Call between .Ltmp594 and .Ltmp595
	.uleb128 .Ltmp596-.Lfunc_begin5         #     jumps to .Ltmp596
	.byte	0                               #   On action: cleanup
	.uleb128 .Ltmp591-.Lfunc_begin5         # >> Call Site 32 <<
	.uleb128 .Ltmp590-.Ltmp591              #   Call between .Ltmp591 and .Ltmp590
	.uleb128 .Ltmp593-.Lfunc_begin5         #     jumps to .Ltmp593
	.byte	0                               #   On action: cleanup
	.uleb128 .Ltmp590-.Lfunc_begin5         # >> Call Site 33 <<
	.uleb128 .Lfunc_end5-.Ltmp590           #   Call between .Ltmp590 and .Lfunc_end5
	.byte	0                               #     has no landing pad
	.byte	0                               #   On action: cleanup
.Lcst_end5:
	.p2align	2, 0x0
                                        # -- End function
	.text
	.p2align	5                               # -- Begin function _ZL19checkVectorFunctionIttEvSt8functionIFT_PT0_S3_jEES5_PKc
	.type	_ZL19checkVectorFunctionIttEvSt8functionIFT_PT0_S3_jEES5_PKc,@function
_ZL19checkVectorFunctionIttEvSt8functionIFT_PT0_S3_jEES5_PKc: # @_ZL19checkVectorFunctionIttEvSt8functionIFT_PT0_S3_jEES5_PKc
.Lfunc_begin6:
	.cfi_startproc
	.cfi_personality 155, DW.ref.__gxx_personality_v0
	.cfi_lsda 27, .Lexception6
# %bb.0:                                # %entry
	addi.d	$sp, $sp, -112
	.cfi_def_cfa_offset 112
	st.d	$ra, $sp, 104                   # 8-byte Folded Spill
	st.d	$fp, $sp, 96                    # 8-byte Folded Spill
	st.d	$s0, $sp, 88                    # 8-byte Folded Spill
	st.d	$s1, $sp, 80                    # 8-byte Folded Spill
	st.d	$s2, $sp, 72                    # 8-byte Folded Spill
	st.d	$s3, $sp, 64                    # 8-byte Folded Spill
	st.d	$s4, $sp, 56                    # 8-byte Folded Spill
	st.d	$s5, $sp, 48                    # 8-byte Folded Spill
	st.d	$s6, $sp, 40                    # 8-byte Folded Spill
	.cfi_offset 1, -8
	.cfi_offset 22, -16
	.cfi_offset 23, -24
	.cfi_offset 24, -32
	.cfi_offset 25, -40
	.cfi_offset 26, -48
	.cfi_offset 27, -56
	.cfi_offset 28, -64
	.cfi_offset 29, -72
	move	$fp, $a2
	move	$s1, $a1
	move	$s2, $a0
	pcalau12i	$a0, %got_pc_hi20(_ZSt4cout)
	ld.d	$s0, $a0, %got_pc_lo12(_ZSt4cout)
	pcalau12i	$a0, %pc_hi20(.L.str.12)
	addi.d	$a1, $a0, %pc_lo12(.L.str.12)
	ori	$a2, $zero, 9
	move	$a0, $s0
	pcaddu18i	$ra, %call36(_ZSt16__ostream_insertIcSt11char_traitsIcEERSt13basic_ostreamIT_T0_ES6_PKS3_l)
	jirl	$ra, $ra, 0
	beqz	$fp, .LBB6_2
# %bb.1:                                # %if.else.i
	move	$a0, $fp
	pcaddu18i	$ra, %call36(strlen)
	jirl	$ra, $ra, 0
	move	$a2, $a0
	pcalau12i	$a0, %got_pc_hi20(_ZSt4cout)
	ld.d	$a0, $a0, %got_pc_lo12(_ZSt4cout)
	move	$a1, $fp
	pcaddu18i	$ra, %call36(_ZSt16__ostream_insertIcSt11char_traitsIcEERSt13basic_ostreamIT_T0_ES6_PKS3_l)
	jirl	$ra, $ra, 0
	b	.LBB6_3
.LBB6_2:                                # %if.then.i
	ld.d	$a0, $s0, 0
	ld.d	$a0, $a0, -24
	add.d	$a0, $s0, $a0
	ld.w	$a1, $a0, 32
	ori	$a1, $a1, 1
	pcaddu18i	$ra, %call36(_ZNSt9basic_iosIcSt11char_traitsIcEE5clearESt12_Ios_Iostate)
	jirl	$ra, $ra, 0
.LBB6_3:                                # %_ZStlsISt11char_traitsIcEERSt13basic_ostreamIcT_ES5_PKc.exit
	pcalau12i	$a0, %got_pc_hi20(_ZSt4cout)
	ld.d	$a0, $a0, %got_pc_lo12(_ZSt4cout)
	pcalau12i	$a1, %pc_hi20(.L.str.13)
	addi.d	$a1, $a1, %pc_lo12(.L.str.13)
	ori	$a2, $zero, 1
	pcaddu18i	$ra, %call36(_ZSt16__ostream_insertIcSt11char_traitsIcEERSt13basic_ostreamIT_T0_ES6_PKS3_l)
	jirl	$ra, $ra, 0
	ori	$a0, $zero, 2000
	ori	$s4, $zero, 2000
	pcaddu18i	$ra, %call36(_Znam)
	jirl	$ra, $ra, 0
	move	$fp, $a0
.Ltmp633:                               # EH_LABEL
	ori	$a0, $zero, 2000
	pcaddu18i	$ra, %call36(_Znam)
	jirl	$ra, $ra, 0
.Ltmp634:                               # EH_LABEL
# %bb.4:                                # %invoke.cont
	move	$s0, $a0
	lu12i.w	$s5, -16
	lu32i.d	$s5, 0
	st.w	$s5, $sp, 32
	pcalau12i	$a0, %pc_hi20(_ZL3rng)
	addi.d	$s3, $a0, %pc_lo12(_ZL3rng)
	move	$s6, $zero
	.p2align	4, , 16
.LBB6_5:                                # %for.body.i
                                        # =>This Inner Loop Header: Depth=1
.Ltmp636:                               # EH_LABEL
	addi.d	$a0, $sp, 32
	addi.d	$a2, $sp, 32
	move	$a1, $s3
	pcaddu18i	$ra, %call36(_ZNSt24uniform_int_distributionItEclISt23mersenne_twister_engineImLm32ELm624ELm397ELm31ELm2567483615ELm11ELm4294967295ELm7ELm2636928640ELm15ELm4022730752ELm18ELm1812433253EEEEtRT_RKNS0_10param_typeE)
	jirl	$ra, $ra, 0
.Ltmp637:                               # EH_LABEL
# %bb.6:                                # %call.i.i64.noexc
                                        #   in Loop: Header=BB6_5 Depth=1
	stx.h	$a0, $fp, $s6
	addi.d	$s6, $s6, 2
	bne	$s6, $s4, .LBB6_5
# %bb.7:                                # %invoke.cont7
	st.w	$s5, $sp, 32
	pcalau12i	$a0, %pc_hi20(_ZL3rng)
	addi.d	$s3, $a0, %pc_lo12(_ZL3rng)
	move	$s4, $zero
	ori	$s5, $zero, 2000
	.p2align	4, , 16
.LBB6_8:                                # %for.body.i68
                                        # =>This Inner Loop Header: Depth=1
.Ltmp639:                               # EH_LABEL
	addi.d	$a0, $sp, 32
	addi.d	$a2, $sp, 32
	move	$a1, $s3
	pcaddu18i	$ra, %call36(_ZNSt24uniform_int_distributionItEclISt23mersenne_twister_engineImLm32ELm624ELm397ELm31ELm2567483615ELm11ELm4294967295ELm7ELm2636928640ELm15ELm4022730752ELm18ELm1812433253EEEEtRT_RKNS0_10param_typeE)
	jirl	$ra, $ra, 0
.Ltmp640:                               # EH_LABEL
# %bb.9:                                # %call.i.i70.noexc
                                        #   in Loop: Header=BB6_8 Depth=1
	stx.h	$a0, $s0, $s4
	addi.d	$s4, $s4, 2
	bne	$s4, $s5, .LBB6_8
# %bb.10:                               # %invoke.cont8
	ld.d	$a0, $s2, 16
	st.d	$fp, $sp, 32
	st.d	$s0, $sp, 24
	ori	$a1, $zero, 1000
	st.w	$a1, $sp, 20
	beqz	$a0, .LBB6_46
# %bb.11:                               # %if.end.i
	ld.d	$a4, $s2, 24
.Ltmp642:                               # EH_LABEL
	addi.d	$a1, $sp, 32
	addi.d	$a2, $sp, 24
	addi.d	$a3, $sp, 20
	move	$a0, $s2
	jirl	$ra, $a4, 0
.Ltmp643:                               # EH_LABEL
# %bb.12:                               # %invoke.cont14
	move	$s3, $a0
	ld.d	$a0, $s1, 16
	st.d	$fp, $sp, 32
	st.d	$s0, $sp, 24
	ori	$a1, $zero, 1000
	st.w	$a1, $sp, 20
	beqz	$a0, .LBB6_48
# %bb.13:                               # %if.end.i83
	ld.d	$a4, $s1, 24
.Ltmp644:                               # EH_LABEL
	addi.d	$a1, $sp, 32
	addi.d	$a2, $sp, 24
	addi.d	$a3, $sp, 20
	move	$a0, $s1
	jirl	$ra, $a4, 0
.Ltmp645:                               # EH_LABEL
# %bb.14:                               # %invoke.cont21
	bne	$s3, $a0, .LBB6_50
# %bb.15:                               # %for.body.preheader
	ori	$a1, $zero, 255
	ori	$a2, $zero, 2000
	move	$a0, $fp
	pcaddu18i	$ra, %call36(memset)
	jirl	$ra, $ra, 0
	ori	$a2, $zero, 2000
	move	$a0, $s0
	move	$a1, $zero
	pcaddu18i	$ra, %call36(memset)
	jirl	$ra, $ra, 0
	ld.d	$a0, $s2, 16
	st.d	$fp, $sp, 32
	st.d	$s0, $sp, 24
	ori	$a1, $zero, 1000
	st.w	$a1, $sp, 20
	beqz	$a0, .LBB6_51
# %bb.16:                               # %if.end.i94
	ld.d	$a4, $s2, 24
.Ltmp648:                               # EH_LABEL
	addi.d	$a1, $sp, 32
	addi.d	$a2, $sp, 24
	addi.d	$a3, $sp, 20
	move	$a0, $s2
	jirl	$ra, $a4, 0
.Ltmp649:                               # EH_LABEL
# %bb.17:                               # %invoke.cont44
	move	$s3, $a0
	ld.d	$a0, $s1, 16
	st.d	$fp, $sp, 32
	st.d	$s0, $sp, 24
	ori	$a1, $zero, 1000
	st.w	$a1, $sp, 20
	beqz	$a0, .LBB6_53
# %bb.18:                               # %if.end.i108
	ld.d	$a4, $s1, 24
.Ltmp650:                               # EH_LABEL
	addi.d	$a1, $sp, 32
	addi.d	$a2, $sp, 24
	addi.d	$a3, $sp, 20
	move	$a0, $s1
	jirl	$ra, $a4, 0
.Ltmp651:                               # EH_LABEL
# %bb.19:                               # %invoke.cont52
	bne	$s3, $a0, .LBB6_55
# %bb.20:                               # %for.body67.preheader
	ori	$a2, $zero, 2000
	move	$a0, $fp
	move	$a1, $zero
	pcaddu18i	$ra, %call36(memset)
	jirl	$ra, $ra, 0
	ori	$a1, $zero, 255
	ori	$a2, $zero, 2000
	move	$a0, $s0
	pcaddu18i	$ra, %call36(memset)
	jirl	$ra, $ra, 0
	ld.d	$a0, $s2, 16
	st.d	$fp, $sp, 32
	st.d	$s0, $sp, 24
	ori	$a1, $zero, 1000
	st.w	$a1, $sp, 20
	beqz	$a0, .LBB6_56
# %bb.21:                               # %if.end.i121
	ld.d	$a4, $s2, 24
.Ltmp654:                               # EH_LABEL
	addi.d	$a1, $sp, 32
	addi.d	$a2, $sp, 24
	addi.d	$a3, $sp, 20
	move	$a0, $s2
	jirl	$ra, $a4, 0
.Ltmp655:                               # EH_LABEL
# %bb.22:                               # %invoke.cont87
	move	$s3, $a0
	ld.d	$a0, $s1, 16
	st.d	$fp, $sp, 32
	st.d	$s0, $sp, 24
	ori	$a1, $zero, 1000
	st.w	$a1, $sp, 20
	beqz	$a0, .LBB6_58
# %bb.23:                               # %if.end.i136
	ld.d	$a4, $s1, 24
.Ltmp656:                               # EH_LABEL
	addi.d	$a1, $sp, 32
	addi.d	$a2, $sp, 24
	addi.d	$a3, $sp, 20
	move	$a0, $s1
	jirl	$ra, $a4, 0
.Ltmp657:                               # EH_LABEL
# %bb.24:                               # %invoke.cont95
	bne	$s3, $a0, .LBB6_60
# %bb.25:                               # %for.body110.preheader
	ori	$a2, $zero, 2000
	move	$a0, $s0
	move	$a1, $zero
	pcaddu18i	$ra, %call36(memset)
	jirl	$ra, $ra, 0
	ori	$a2, $zero, 2000
	move	$a0, $fp
	move	$a1, $zero
	pcaddu18i	$ra, %call36(memset)
	jirl	$ra, $ra, 0
	lu12i.w	$a0, 15
	ori	$s5, $a0, 4095
	st.h	$s5, $fp, 1996
	ld.d	$a0, $s2, 16
	st.d	$fp, $sp, 32
	st.d	$s0, $sp, 24
	ori	$a1, $zero, 1000
	st.w	$a1, $sp, 20
	beqz	$a0, .LBB6_61
# %bb.26:                               # %if.end.i150
	ld.d	$a4, $s2, 24
.Ltmp660:                               # EH_LABEL
	addi.d	$a1, $sp, 32
	addi.d	$a2, $sp, 24
	addi.d	$a3, $sp, 20
	move	$a0, $s2
	jirl	$ra, $a4, 0
.Ltmp661:                               # EH_LABEL
# %bb.27:                               # %invoke.cont132
	move	$s3, $a0
	ld.d	$a0, $s1, 16
	st.d	$fp, $sp, 32
	st.d	$s0, $sp, 24
	ori	$a1, $zero, 1000
	st.w	$a1, $sp, 20
	beqz	$a0, .LBB6_63
# %bb.28:                               # %if.end.i165
	ld.d	$a4, $s1, 24
.Ltmp662:                               # EH_LABEL
	addi.d	$a1, $sp, 32
	addi.d	$a2, $sp, 24
	addi.d	$a3, $sp, 20
	move	$a0, $s1
	jirl	$ra, $a4, 0
.Ltmp663:                               # EH_LABEL
# %bb.29:                               # %invoke.cont140
	bne	$s3, $a0, .LBB6_65
# %bb.30:                               # %for.body155.preheader
	ori	$a2, $zero, 2000
	move	$a0, $s0
	move	$a1, $zero
	pcaddu18i	$ra, %call36(memset)
	jirl	$ra, $ra, 0
	addi.d	$s3, $fp, 2
	ori	$a2, $zero, 1998
	move	$a0, $s3
	move	$a1, $zero
	pcaddu18i	$ra, %call36(memset)
	jirl	$ra, $ra, 0
	st.h	$s5, $fp, 0
	ld.d	$a0, $s2, 16
	st.d	$fp, $sp, 32
	st.d	$s0, $sp, 24
	ori	$a1, $zero, 1000
	st.w	$a1, $sp, 20
	beqz	$a0, .LBB6_66
# %bb.31:                               # %if.end.i179
	ld.d	$a4, $s2, 24
.Ltmp666:                               # EH_LABEL
	addi.d	$a1, $sp, 32
	addi.d	$a2, $sp, 24
	addi.d	$a3, $sp, 20
	move	$a0, $s2
	jirl	$ra, $a4, 0
.Ltmp667:                               # EH_LABEL
# %bb.32:                               # %invoke.cont177
	move	$s4, $a0
	ld.d	$a0, $s1, 16
	st.d	$fp, $sp, 32
	st.d	$s0, $sp, 24
	ori	$a1, $zero, 1000
	st.w	$a1, $sp, 20
	beqz	$a0, .LBB6_68
# %bb.33:                               # %if.end.i194
	ld.d	$a4, $s1, 24
.Ltmp668:                               # EH_LABEL
	addi.d	$a1, $sp, 32
	addi.d	$a2, $sp, 24
	addi.d	$a3, $sp, 20
	move	$a0, $s1
	jirl	$ra, $a4, 0
.Ltmp669:                               # EH_LABEL
# %bb.34:                               # %invoke.cont185
	bne	$s4, $a0, .LBB6_70
# %bb.35:                               # %for.body200.preheader
	ori	$a2, $zero, 2000
	move	$a0, $s0
	move	$a1, $zero
	pcaddu18i	$ra, %call36(memset)
	jirl	$ra, $ra, 0
	ori	$a2, $zero, 1998
	move	$a0, $fp
	move	$a1, $zero
	pcaddu18i	$ra, %call36(memset)
	jirl	$ra, $ra, 0
	st.h	$s5, $fp, 1998
	ld.d	$a0, $s2, 16
	st.d	$fp, $sp, 32
	st.d	$s0, $sp, 24
	ori	$a1, $zero, 1000
	st.w	$a1, $sp, 20
	beqz	$a0, .LBB6_71
# %bb.36:                               # %if.end.i208
	ld.d	$a4, $s2, 24
.Ltmp672:                               # EH_LABEL
	addi.d	$a1, $sp, 32
	addi.d	$a2, $sp, 24
	addi.d	$a3, $sp, 20
	move	$a0, $s2
	jirl	$ra, $a4, 0
.Ltmp673:                               # EH_LABEL
# %bb.37:                               # %invoke.cont223
	move	$s4, $a0
	ld.d	$a0, $s1, 16
	st.d	$fp, $sp, 32
	st.d	$s0, $sp, 24
	ori	$a1, $zero, 1000
	st.w	$a1, $sp, 20
	beqz	$a0, .LBB6_73
# %bb.38:                               # %if.end.i223
	ld.d	$a4, $s1, 24
.Ltmp674:                               # EH_LABEL
	addi.d	$a1, $sp, 32
	addi.d	$a2, $sp, 24
	addi.d	$a3, $sp, 20
	move	$a0, $s1
	jirl	$ra, $a4, 0
.Ltmp675:                               # EH_LABEL
# %bb.39:                               # %invoke.cont231
	bne	$s4, $a0, .LBB6_75
# %bb.40:                               # %for.body246.preheader
	ori	$a2, $zero, 2000
	move	$a0, $s0
	move	$a1, $zero
	pcaddu18i	$ra, %call36(memset)
	jirl	$ra, $ra, 0
	ori	$a2, $zero, 1996
	move	$a0, $s3
	move	$a1, $zero
	pcaddu18i	$ra, %call36(memset)
	jirl	$ra, $ra, 0
	st.h	$s5, $fp, 1998
	st.h	$s5, $fp, 0
	ld.d	$a0, $s2, 16
	st.d	$fp, $sp, 32
	st.d	$s0, $sp, 24
	ori	$a1, $zero, 1000
	st.w	$a1, $sp, 20
	beqz	$a0, .LBB6_76
# %bb.41:                               # %if.end.i238
	ld.d	$a4, $s2, 24
.Ltmp678:                               # EH_LABEL
	addi.d	$a1, $sp, 32
	addi.d	$a2, $sp, 24
	addi.d	$a3, $sp, 20
	move	$a0, $s2
	jirl	$ra, $a4, 0
.Ltmp679:                               # EH_LABEL
# %bb.42:                               # %invoke.cont272
	move	$s2, $a0
	ld.d	$a0, $s1, 16
	st.d	$fp, $sp, 32
	st.d	$s0, $sp, 24
	ori	$a1, $zero, 1000
	st.w	$a1, $sp, 20
	beqz	$a0, .LBB6_78
# %bb.43:                               # %if.end.i253
	ld.d	$a4, $s1, 24
.Ltmp680:                               # EH_LABEL
	addi.d	$a1, $sp, 32
	addi.d	$a2, $sp, 24
	addi.d	$a3, $sp, 20
	move	$a0, $s1
	jirl	$ra, $a4, 0
.Ltmp681:                               # EH_LABEL
# %bb.44:                               # %invoke.cont280
