	.file	"runtime-checks.cpp"
                                        # Start of file scope inline assembly
	.globl	_ZSt21ios_base_library_initv

                                        # End of file scope inline assembly
	.text
	.globl	main                            # -- Begin function main
	.p2align	5
	.type	main,@function
main:                                   # @main
.Lfunc_begin0:
	.cfi_startproc
	.cfi_personality 155, DW.ref.__gxx_personality_v0
	.cfi_lsda 27, .Lexception0
# %bb.0:                                # %entry
	addi.d	$sp, $sp, -2032
	.cfi_def_cfa_offset 2032
	st.d	$ra, $sp, 2024                  # 8-byte Folded Spill
	st.d	$fp, $sp, 2016                  # 8-byte Folded Spill
	st.d	$s0, $sp, 2008                  # 8-byte Folded Spill
	st.d	$s1, $sp, 2000                  # 8-byte Folded Spill
	st.d	$s2, $sp, 1992                  # 8-byte Folded Spill
	st.d	$s3, $sp, 1984                  # 8-byte Folded Spill
	st.d	$s4, $sp, 1976                  # 8-byte Folded Spill
	st.d	$s5, $sp, 1968                  # 8-byte Folded Spill
	st.d	$s6, $sp, 1960                  # 8-byte Folded Spill
	st.d	$s7, $sp, 1952                  # 8-byte Folded Spill
	st.d	$s8, $sp, 1944                  # 8-byte Folded Spill
	.cfi_offset 1, -8
	.cfi_offset 22, -16
	.cfi_offset 23, -24
	.cfi_offset 24, -32
	.cfi_offset 25, -40
	.cfi_offset 26, -48
	.cfi_offset 27, -56
	.cfi_offset 28, -64
	.cfi_offset 29, -72
	.cfi_offset 30, -80
	.cfi_offset 31, -88
	lu12i.w	$a0, 1
	ori	$a0, $a0, 2080
	sub.d	$sp, $sp, $a0
	.cfi_def_cfa_offset 8208
	ori	$a2, $zero, 15
	ori	$a0, $zero, 3120
	add.d	$a0, $sp, $a0
	st.d	$a2, $a0, 0
	ori	$a0, $zero, 1
	ori	$a1, $zero, 8
	lu12i.w	$a3, 442488
	ori	$a3, $a3, 2405
	ori	$a4, $zero, 3120
	add.d	$a4, $sp, $a4
	ori	$a5, $zero, 624
	.p2align	4, , 16
.LBB0_1:                                # %for.body.i.i
                                        # =>This Inner Loop Header: Depth=1
	srli.d	$a6, $a2, 30
	xor	$a2, $a6, $a2
	mul.d	$a2, $a2, $a3
	add.d	$a2, $a0, $a2
	bstrpick.d	$a2, $a2, 31, 0
	stx.d	$a2, $a1, $a4
	addi.d	$a0, $a0, 1
	addi.d	$a1, $a1, 8
	bne	$a0, $a5, .LBB0_1
# %bb.2:                                # %_ZNSt23mersenne_twister_engineImLm32ELm624ELm397ELm31ELm2567483615ELm11ELm4294967295ELm7ELm2636928640ELm15ELm4022730752ELm18ELm1812433253EEC2Em.exit
	ori	$a0, $zero, 624
	lu12i.w	$a1, 1
	ori	$a1, $a1, 4016
	add.d	$a1, $sp, $a1
	stptr.d	$a0, $a1, 0
	pcalau12i	$a0, %pc_hi20(_ZL3rng)
	addi.d	$a0, $a0, %pc_lo12(_ZL3rng)
	lu12i.w	$a1, 1
	ori	$a2, $a1, 904
	ori	$a1, $zero, 3120
	add.d	$a1, $sp, $a1
	pcaddu18i	$ra, %call36(memcpy)
	jirl	$ra, $ra, 0
	vrepli.b	$vr0, 0
	ori	$a0, $zero, 3088
	add.d	$a0, $sp, $a0
	vst	$vr0, $a0, 0
	pcalau12i	$a0, %pc_hi20(_ZNSt17_Function_handlerIFvPhS0_jEZ4mainE3$_0E9_M_invokeERKSt9_Any_dataOS0_S7_Oj)
	addi.d	$a0, $a0, %pc_lo12(_ZNSt17_Function_handlerIFvPhS0_jEZ4mainE3$_0E9_M_invokeERKSt9_Any_dataOS0_S7_Oj)
	ori	$a1, $zero, 3112
	add.d	$a1, $sp, $a1
	st.d	$a0, $a1, 0
	pcalau12i	$a0, %pc_hi20(_ZNSt17_Function_handlerIFvPhS0_jEZ4mainE3$_0E10_M_managerERSt9_Any_dataRKS4_St18_Manager_operation)
	addi.d	$a0, $a0, %pc_lo12(_ZNSt17_Function_handlerIFvPhS0_jEZ4mainE3$_0E10_M_managerERSt9_Any_dataRKS4_St18_Manager_operation)
	ori	$a1, $zero, 3104
	add.d	$a1, $sp, $a1
	st.d	$a0, $a1, 0
	vst	$vr0, $sp, 32                   # 16-byte Folded Spill
	ori	$a0, $zero, 3056
	add.d	$a0, $sp, $a0
	vst	$vr0, $a0, 0
	pcalau12i	$a0, %pc_hi20(_ZNSt17_Function_handlerIFvPhS0_jEZ4mainE3$_1E9_M_invokeERKSt9_Any_dataOS0_S7_Oj)
	addi.d	$a0, $a0, %pc_lo12(_ZNSt17_Function_handlerIFvPhS0_jEZ4mainE3$_1E9_M_invokeERKSt9_Any_dataOS0_S7_Oj)
	ori	$a1, $zero, 3080
	add.d	$a1, $sp, $a1
	st.d	$a0, $a1, 0
	pcalau12i	$a0, %pc_hi20(_ZNSt17_Function_handlerIFvPhS0_jEZ4mainE3$_1E10_M_managerERSt9_Any_dataRKS4_St18_Manager_operation)
	addi.d	$a0, $a0, %pc_lo12(_ZNSt17_Function_handlerIFvPhS0_jEZ4mainE3$_1E10_M_managerERSt9_Any_dataRKS4_St18_Manager_operation)
	ori	$a1, $zero, 3072
	add.d	$a1, $sp, $a1
	st.d	$a0, $a1, 0
.Ltmp0:                                 # EH_LABEL
	pcalau12i	$a0, %pc_hi20(.L.str)
	addi.d	$a2, $a0, %pc_lo12(.L.str)
	ori	$a0, $zero, 3088
	add.d	$a0, $sp, $a0
	ori	$a1, $zero, 3056
	add.d	$a1, $sp, $a1
	pcaddu18i	$ra, %call36(_ZL37checkOverlappingMemoryOneRuntimeCheckIhEvSt8functionIFvPT_S2_jEES4_PKc)
	jirl	$ra, $ra, 0
.Ltmp1:                                 # EH_LABEL
# %bb.3:                                # %invoke.cont
	ori	$a0, $zero, 3072
	add.d	$a0, $sp, $a0
	ld.d	$a3, $a0, 0
	beqz	$a3, .LBB0_5
# %bb.4:                                # %if.then.i
.Ltmp9:                                 # EH_LABEL
	ori	$a0, $zero, 3056
	add.d	$a0, $sp, $a0
	ori	$a1, $zero, 3056
	add.d	$a1, $sp, $a1
	ori	$a2, $zero, 3
	jirl	$ra, $a3, 0
.Ltmp10:                                # EH_LABEL
.LBB0_5:                                # %_ZNSt14_Function_baseD2Ev.exit
	ori	$a0, $zero, 3104
	add.d	$a0, $sp, $a0
	ld.d	$a3, $a0, 0
	beqz	$a3, .LBB0_7
# %bb.6:                                # %if.then.i33
.Ltmp12:                                # EH_LABEL
	ori	$a0, $zero, 3088
	add.d	$a0, $sp, $a0
	ori	$a1, $zero, 3088
	add.d	$a1, $sp, $a1
	ori	$a2, $zero, 3
	jirl	$ra, $a3, 0
.Ltmp13:                                # EH_LABEL
.LBB0_7:                                # %_ZNSt14_Function_baseD2Ev.exit36
	vld	$vr0, $sp, 32                   # 16-byte Folded Reload
	ori	$a0, $zero, 3024
	add.d	$a0, $sp, $a0
	vst	$vr0, $a0, 0
	pcalau12i	$a0, %pc_hi20(_ZNSt17_Function_handlerIFvPjS0_jEZ4mainE3$_0E9_M_invokeERKSt9_Any_dataOS0_S7_Oj)
	addi.d	$a0, $a0, %pc_lo12(_ZNSt17_Function_handlerIFvPjS0_jEZ4mainE3$_0E9_M_invokeERKSt9_Any_dataOS0_S7_Oj)
	ori	$a1, $zero, 3048
	add.d	$a1, $sp, $a1
	st.d	$a0, $a1, 0
	pcalau12i	$a0, %pc_hi20(_ZNSt17_Function_handlerIFvPjS0_jEZ4mainE3$_0E10_M_managerERSt9_Any_dataRKS4_St18_Manager_operation)
	addi.d	$a0, $a0, %pc_lo12(_ZNSt17_Function_handlerIFvPjS0_jEZ4mainE3$_0E10_M_managerERSt9_Any_dataRKS4_St18_Manager_operation)
	ori	$a1, $zero, 3040
	add.d	$a1, $sp, $a1
	st.d	$a0, $a1, 0
	ori	$a0, $zero, 2992
	add.d	$a0, $sp, $a0
	vst	$vr0, $a0, 0
	pcalau12i	$a0, %pc_hi20(_ZNSt17_Function_handlerIFvPjS0_jEZ4mainE3$_1E9_M_invokeERKSt9_Any_dataOS0_S7_Oj)
	addi.d	$a0, $a0, %pc_lo12(_ZNSt17_Function_handlerIFvPjS0_jEZ4mainE3$_1E9_M_invokeERKSt9_Any_dataOS0_S7_Oj)
	ori	$a1, $zero, 3016
	add.d	$a1, $sp, $a1
	st.d	$a0, $a1, 0
	pcalau12i	$a0, %pc_hi20(_ZNSt17_Function_handlerIFvPjS0_jEZ4mainE3$_1E10_M_managerERSt9_Any_dataRKS4_St18_Manager_operation)
	addi.d	$a0, $a0, %pc_lo12(_ZNSt17_Function_handlerIFvPjS0_jEZ4mainE3$_1E10_M_managerERSt9_Any_dataRKS4_St18_Manager_operation)
	ori	$a1, $zero, 3008
	add.d	$a1, $sp, $a1
	st.d	$a0, $a1, 0
.Ltmp15:                                # EH_LABEL
	pcalau12i	$a0, %pc_hi20(.L.str.1)
	addi.d	$a2, $a0, %pc_lo12(.L.str.1)
	ori	$a0, $zero, 3024
	add.d	$a0, $sp, $a0
	ori	$a1, $zero, 2992
	add.d	$a1, $sp, $a1
	pcaddu18i	$ra, %call36(_ZL37checkOverlappingMemoryOneRuntimeCheckIjEvSt8functionIFvPT_S2_jEES4_PKc)
	jirl	$ra, $ra, 0
.Ltmp16:                                # EH_LABEL
# %bb.8:                                # %invoke.cont5
	ori	$a0, $zero, 3008
	add.d	$a0, $sp, $a0
	ld.d	$a3, $a0, 0
	beqz	$a3, .LBB0_10
# %bb.9:                                # %if.then.i43
.Ltmp24:                                # EH_LABEL
	ori	$a0, $zero, 2992
	add.d	$a0, $sp, $a0
	ori	$a1, $zero, 2992
	add.d	$a1, $sp, $a1
	ori	$a2, $zero, 3
	jirl	$ra, $a3, 0
.Ltmp25:                                # EH_LABEL
.LBB0_10:                               # %_ZNSt14_Function_baseD2Ev.exit46
	ori	$a0, $zero, 3040
	add.d	$a0, $sp, $a0
	ld.d	$a3, $a0, 0
	beqz	$a3, .LBB0_12
# %bb.11:                               # %if.then.i49
.Ltmp27:                                # EH_LABEL
	ori	$a0, $zero, 3024
	add.d	$a0, $sp, $a0
	ori	$a1, $zero, 3024
	add.d	$a1, $sp, $a1
	ori	$a2, $zero, 3
	jirl	$ra, $a3, 0
.Ltmp28:                                # EH_LABEL
.LBB0_12:                               # %_ZNSt14_Function_baseD2Ev.exit52
	vld	$vr0, $sp, 32                   # 16-byte Folded Reload
	ori	$a0, $zero, 2960
	add.d	$a0, $sp, $a0
	vst	$vr0, $a0, 0
	pcalau12i	$a0, %pc_hi20(_ZNSt17_Function_handlerIFvPmS0_jEZ4mainE3$_0E9_M_invokeERKSt9_Any_dataOS0_S7_Oj)
	addi.d	$a0, $a0, %pc_lo12(_ZNSt17_Function_handlerIFvPmS0_jEZ4mainE3$_0E9_M_invokeERKSt9_Any_dataOS0_S7_Oj)
	ori	$a1, $zero, 2984
	add.d	$a1, $sp, $a1
	st.d	$a0, $a1, 0
	pcalau12i	$a0, %pc_hi20(_ZNSt17_Function_handlerIFvPmS0_jEZ4mainE3$_0E10_M_managerERSt9_Any_dataRKS4_St18_Manager_operation)
	addi.d	$a0, $a0, %pc_lo12(_ZNSt17_Function_handlerIFvPmS0_jEZ4mainE3$_0E10_M_managerERSt9_Any_dataRKS4_St18_Manager_operation)
	ori	$a1, $zero, 2976
	add.d	$a1, $sp, $a1
	st.d	$a0, $a1, 0
	ori	$a0, $zero, 2928
	add.d	$a0, $sp, $a0
	vst	$vr0, $a0, 0
	pcalau12i	$a0, %pc_hi20(_ZNSt17_Function_handlerIFvPmS0_jEZ4mainE3$_1E9_M_invokeERKSt9_Any_dataOS0_S7_Oj)
	addi.d	$a0, $a0, %pc_lo12(_ZNSt17_Function_handlerIFvPmS0_jEZ4mainE3$_1E9_M_invokeERKSt9_Any_dataOS0_S7_Oj)
	ori	$a1, $zero, 2952
	add.d	$a1, $sp, $a1
	st.d	$a0, $a1, 0
	pcalau12i	$a0, %pc_hi20(_ZNSt17_Function_handlerIFvPmS0_jEZ4mainE3$_1E10_M_managerERSt9_Any_dataRKS4_St18_Manager_operation)
	addi.d	$a0, $a0, %pc_lo12(_ZNSt17_Function_handlerIFvPmS0_jEZ4mainE3$_1E10_M_managerERSt9_Any_dataRKS4_St18_Manager_operation)
	ori	$a1, $zero, 2944
	add.d	$a1, $sp, $a1
	st.d	$a0, $a1, 0
.Ltmp30:                                # EH_LABEL
	pcalau12i	$a0, %pc_hi20(.L.str.2)
	addi.d	$a2, $a0, %pc_lo12(.L.str.2)
	ori	$a0, $zero, 2960
	add.d	$a0, $sp, $a0
	ori	$a1, $zero, 2928
	add.d	$a1, $sp, $a1
	pcaddu18i	$ra, %call36(_ZL37checkOverlappingMemoryOneRuntimeCheckImEvSt8functionIFvPT_S2_jEES4_PKc)
	jirl	$ra, $ra, 0
.Ltmp31:                                # EH_LABEL
# %bb.13:                               # %invoke.cont9
	ori	$a0, $zero, 2944
	add.d	$a0, $sp, $a0
	ld.d	$a3, $a0, 0
	beqz	$a3, .LBB0_15
# %bb.14:                               # %if.then.i59
.Ltmp39:                                # EH_LABEL
	ori	$a0, $zero, 2928
	add.d	$a0, $sp, $a0
	ori	$a1, $zero, 2928
	add.d	$a1, $sp, $a1
	ori	$a2, $zero, 3
	jirl	$ra, $a3, 0
.Ltmp40:                                # EH_LABEL
.LBB0_15:                               # %_ZNSt14_Function_baseD2Ev.exit62
	ori	$a0, $zero, 2976
	add.d	$a0, $sp, $a0
	ld.d	$a3, $a0, 0
	beqz	$a3, .LBB0_17
# %bb.16:                               # %if.then.i65
.Ltmp42:                                # EH_LABEL
	ori	$a0, $zero, 2960
	add.d	$a0, $sp, $a0
	ori	$a1, $zero, 2960
	add.d	$a1, $sp, $a1
	ori	$a2, $zero, 3
	jirl	$ra, $a3, 0
.Ltmp43:                                # EH_LABEL
.LBB0_17:                               # %_ZNSt14_Function_baseD2Ev.exit68
	vld	$vr0, $sp, 32                   # 16-byte Folded Reload
	ori	$a0, $zero, 2896
	add.d	$a0, $sp, $a0
	vst	$vr0, $a0, 0
	pcalau12i	$a0, %pc_hi20(_ZNSt17_Function_handlerIFvPhS0_jEZ4mainE3$_2E9_M_invokeERKSt9_Any_dataOS0_S7_Oj)
	addi.d	$a0, $a0, %pc_lo12(_ZNSt17_Function_handlerIFvPhS0_jEZ4mainE3$_2E9_M_invokeERKSt9_Any_dataOS0_S7_Oj)
	ori	$a1, $zero, 2920
	add.d	$a1, $sp, $a1
	st.d	$a0, $a1, 0
	pcalau12i	$a0, %pc_hi20(_ZNSt17_Function_handlerIFvPhS0_jEZ4mainE3$_2E10_M_managerERSt9_Any_dataRKS4_St18_Manager_operation)
	addi.d	$a0, $a0, %pc_lo12(_ZNSt17_Function_handlerIFvPhS0_jEZ4mainE3$_2E10_M_managerERSt9_Any_dataRKS4_St18_Manager_operation)
	ori	$a1, $zero, 2912
	add.d	$a1, $sp, $a1
	st.d	$a0, $a1, 0
	ori	$a0, $zero, 2864
	add.d	$a0, $sp, $a0
	vst	$vr0, $a0, 0
	pcalau12i	$a0, %pc_hi20(_ZNSt17_Function_handlerIFvPhS0_jEZ4mainE3$_3E9_M_invokeERKSt9_Any_dataOS0_S7_Oj)
	addi.d	$a0, $a0, %pc_lo12(_ZNSt17_Function_handlerIFvPhS0_jEZ4mainE3$_3E9_M_invokeERKSt9_Any_dataOS0_S7_Oj)
	ori	$a1, $zero, 2888
	add.d	$a1, $sp, $a1
	st.d	$a0, $a1, 0
	pcalau12i	$a0, %pc_hi20(_ZNSt17_Function_handlerIFvPhS0_jEZ4mainE3$_3E10_M_managerERSt9_Any_dataRKS4_St18_Manager_operation)
	addi.d	$a0, $a0, %pc_lo12(_ZNSt17_Function_handlerIFvPhS0_jEZ4mainE3$_3E10_M_managerERSt9_Any_dataRKS4_St18_Manager_operation)
	ori	$a1, $zero, 2880
	add.d	$a1, $sp, $a1
	st.d	$a0, $a1, 0
.Ltmp45:                                # EH_LABEL
	pcalau12i	$a0, %pc_hi20(.L.str.3)
	addi.d	$a2, $a0, %pc_lo12(.L.str.3)
	ori	$a0, $zero, 2896
	add.d	$a0, $sp, $a0
	ori	$a1, $zero, 2864
	add.d	$a1, $sp, $a1
	pcaddu18i	$ra, %call36(_ZL37checkOverlappingMemoryOneRuntimeCheckIhEvSt8functionIFvPT_S2_jEES4_PKc)
	jirl	$ra, $ra, 0
.Ltmp46:                                # EH_LABEL
# %bb.18:                               # %invoke.cont16
	ori	$a0, $zero, 2880
	add.d	$a0, $sp, $a0
	ld.d	$a3, $a0, 0
	beqz	$a3, .LBB0_20
# %bb.19:                               # %if.then.i75
.Ltmp54:                                # EH_LABEL
	ori	$a0, $zero, 2864
	add.d	$a0, $sp, $a0
	ori	$a1, $zero, 2864
	add.d	$a1, $sp, $a1
	ori	$a2, $zero, 3
	jirl	$ra, $a3, 0
.Ltmp55:                                # EH_LABEL
.LBB0_20:                               # %_ZNSt14_Function_baseD2Ev.exit78
	ori	$a0, $zero, 2912
	add.d	$a0, $sp, $a0
	ld.d	$a3, $a0, 0
	beqz	$a3, .LBB0_22
# %bb.21:                               # %if.then.i81
.Ltmp57:                                # EH_LABEL
	ori	$a0, $zero, 2896
	add.d	$a0, $sp, $a0
	ori	$a1, $zero, 2896
	add.d	$a1, $sp, $a1
	ori	$a2, $zero, 3
	jirl	$ra, $a3, 0
.Ltmp58:                                # EH_LABEL
.LBB0_22:                               # %_ZNSt14_Function_baseD2Ev.exit84
	vld	$vr0, $sp, 32                   # 16-byte Folded Reload
	ori	$a0, $zero, 2832
	add.d	$a0, $sp, $a0
	vst	$vr0, $a0, 0
	pcalau12i	$a0, %pc_hi20(_ZNSt17_Function_handlerIFvPjS0_jEZ4mainE3$_2E9_M_invokeERKSt9_Any_dataOS0_S7_Oj)
	addi.d	$a0, $a0, %pc_lo12(_ZNSt17_Function_handlerIFvPjS0_jEZ4mainE3$_2E9_M_invokeERKSt9_Any_dataOS0_S7_Oj)
	ori	$a1, $zero, 2856
	add.d	$a1, $sp, $a1
	st.d	$a0, $a1, 0
	pcalau12i	$a0, %pc_hi20(_ZNSt17_Function_handlerIFvPjS0_jEZ4mainE3$_2E10_M_managerERSt9_Any_dataRKS4_St18_Manager_operation)
	addi.d	$a0, $a0, %pc_lo12(_ZNSt17_Function_handlerIFvPjS0_jEZ4mainE3$_2E10_M_managerERSt9_Any_dataRKS4_St18_Manager_operation)
	ori	$a1, $zero, 2848
	add.d	$a1, $sp, $a1
	st.d	$a0, $a1, 0
	ori	$a0, $zero, 2800
	add.d	$a0, $sp, $a0
	vst	$vr0, $a0, 0
	pcalau12i	$a0, %pc_hi20(_ZNSt17_Function_handlerIFvPjS0_jEZ4mainE3$_3E9_M_invokeERKSt9_Any_dataOS0_S7_Oj)
	addi.d	$a0, $a0, %pc_lo12(_ZNSt17_Function_handlerIFvPjS0_jEZ4mainE3$_3E9_M_invokeERKSt9_Any_dataOS0_S7_Oj)
	ori	$a1, $zero, 2824
	add.d	$a1, $sp, $a1
	st.d	$a0, $a1, 0
	pcalau12i	$a0, %pc_hi20(_ZNSt17_Function_handlerIFvPjS0_jEZ4mainE3$_3E10_M_managerERSt9_Any_dataRKS4_St18_Manager_operation)
	addi.d	$a0, $a0, %pc_lo12(_ZNSt17_Function_handlerIFvPjS0_jEZ4mainE3$_3E10_M_managerERSt9_Any_dataRKS4_St18_Manager_operation)
	ori	$a1, $zero, 2816
	add.d	$a1, $sp, $a1
	st.d	$a0, $a1, 0
.Ltmp60:                                # EH_LABEL
	pcalau12i	$a0, %pc_hi20(.L.str.4)
	addi.d	$a2, $a0, %pc_lo12(.L.str.4)
	ori	$a0, $zero, 2832
	add.d	$a0, $sp, $a0
	ori	$a1, $zero, 2800
	add.d	$a1, $sp, $a1
	pcaddu18i	$ra, %call36(_ZL37checkOverlappingMemoryOneRuntimeCheckIjEvSt8functionIFvPT_S2_jEES4_PKc)
	jirl	$ra, $ra, 0
.Ltmp61:                                # EH_LABEL
# %bb.23:                               # %invoke.cont22
	ori	$a0, $zero, 2816
	add.d	$a0, $sp, $a0
	ld.d	$a3, $a0, 0
	beqz	$a3, .LBB0_25
# %bb.24:                               # %if.then.i91
.Ltmp69:                                # EH_LABEL
	ori	$a0, $zero, 2800
	add.d	$a0, $sp, $a0
	ori	$a1, $zero, 2800
	add.d	$a1, $sp, $a1
	ori	$a2, $zero, 3
	jirl	$ra, $a3, 0
.Ltmp70:                                # EH_LABEL
.LBB0_25:                               # %_ZNSt14_Function_baseD2Ev.exit94
	ori	$a0, $zero, 2848
	add.d	$a0, $sp, $a0
	ld.d	$a3, $a0, 0
	beqz	$a3, .LBB0_27
# %bb.26:                               # %if.then.i97
.Ltmp72:                                # EH_LABEL
	ori	$a0, $zero, 2832
	add.d	$a0, $sp, $a0
	ori	$a1, $zero, 2832
	add.d	$a1, $sp, $a1
	ori	$a2, $zero, 3
	jirl	$ra, $a3, 0
.Ltmp73:                                # EH_LABEL
.LBB0_27:                               # %_ZNSt14_Function_baseD2Ev.exit100
	vld	$vr0, $sp, 32                   # 16-byte Folded Reload
	ori	$a0, $zero, 2768
	add.d	$a0, $sp, $a0
	vst	$vr0, $a0, 0
	pcalau12i	$a0, %pc_hi20(_ZNSt17_Function_handlerIFvPmS0_jEZ4mainE3$_2E9_M_invokeERKSt9_Any_dataOS0_S7_Oj)
	addi.d	$a0, $a0, %pc_lo12(_ZNSt17_Function_handlerIFvPmS0_jEZ4mainE3$_2E9_M_invokeERKSt9_Any_dataOS0_S7_Oj)
	ori	$a1, $zero, 2792
	add.d	$a1, $sp, $a1
	st.d	$a0, $a1, 0
	pcalau12i	$a0, %pc_hi20(_ZNSt17_Function_handlerIFvPmS0_jEZ4mainE3$_2E10_M_managerERSt9_Any_dataRKS4_St18_Manager_operation)
	addi.d	$a0, $a0, %pc_lo12(_ZNSt17_Function_handlerIFvPmS0_jEZ4mainE3$_2E10_M_managerERSt9_Any_dataRKS4_St18_Manager_operation)
	ori	$a1, $zero, 2784
	add.d	$a1, $sp, $a1
	st.d	$a0, $a1, 0
	ori	$a0, $zero, 2736
	add.d	$a0, $sp, $a0
	vst	$vr0, $a0, 0
	pcalau12i	$a0, %pc_hi20(_ZNSt17_Function_handlerIFvPmS0_jEZ4mainE3$_3E9_M_invokeERKSt9_Any_dataOS0_S7_Oj)
	addi.d	$a0, $a0, %pc_lo12(_ZNSt17_Function_handlerIFvPmS0_jEZ4mainE3$_3E9_M_invokeERKSt9_Any_dataOS0_S7_Oj)
	ori	$a1, $zero, 2760
	add.d	$a1, $sp, $a1
	st.d	$a0, $a1, 0
	pcalau12i	$a0, %pc_hi20(_ZNSt17_Function_handlerIFvPmS0_jEZ4mainE3$_3E10_M_managerERSt9_Any_dataRKS4_St18_Manager_operation)
	addi.d	$a0, $a0, %pc_lo12(_ZNSt17_Function_handlerIFvPmS0_jEZ4mainE3$_3E10_M_managerERSt9_Any_dataRKS4_St18_Manager_operation)
	ori	$a1, $zero, 2752
	add.d	$a1, $sp, $a1
	st.d	$a0, $a1, 0
.Ltmp75:                                # EH_LABEL
	pcalau12i	$a0, %pc_hi20(.L.str.5)
	addi.d	$a2, $a0, %pc_lo12(.L.str.5)
	ori	$a0, $zero, 2768
	add.d	$a0, $sp, $a0
	ori	$a1, $zero, 2736
	add.d	$a1, $sp, $a1
	pcaddu18i	$ra, %call36(_ZL37checkOverlappingMemoryOneRuntimeCheckImEvSt8functionIFvPT_S2_jEES4_PKc)
	jirl	$ra, $ra, 0
.Ltmp76:                                # EH_LABEL
# %bb.28:                               # %invoke.cont28
	ori	$a0, $zero, 2752
	add.d	$a0, $sp, $a0
	ld.d	$a3, $a0, 0
	beqz	$a3, .LBB0_30
# %bb.29:                               # %if.then.i107
.Ltmp84:                                # EH_LABEL
	ori	$a0, $zero, 2736
	add.d	$a0, $sp, $a0
	ori	$a1, $zero, 2736
	add.d	$a1, $sp, $a1
	ori	$a2, $zero, 3
	jirl	$ra, $a3, 0
.Ltmp85:                                # EH_LABEL
.LBB0_30:                               # %_ZNSt14_Function_baseD2Ev.exit110
	ori	$a0, $zero, 2784
	add.d	$a0, $sp, $a0
	ld.d	$a3, $a0, 0
	beqz	$a3, .LBB0_32
# %bb.31:                               # %if.then.i113
.Ltmp87:                                # EH_LABEL
	ori	$a0, $zero, 2768
	add.d	$a0, $sp, $a0
	ori	$a1, $zero, 2768
	add.d	$a1, $sp, $a1
	ori	$a2, $zero, 3
	jirl	$ra, $a3, 0
.Ltmp88:                                # EH_LABEL
.LBB0_32:                               # %_ZNSt14_Function_baseD2Ev.exit116
	vld	$vr0, $sp, 32                   # 16-byte Folded Reload
	ori	$a0, $zero, 2704
	add.d	$a0, $sp, $a0
	vst	$vr0, $a0, 0
	pcalau12i	$a0, %pc_hi20(_ZNSt17_Function_handlerIFvPhS0_jEZ4mainE3$_4E9_M_invokeERKSt9_Any_dataOS0_S7_Oj)
	addi.d	$a0, $a0, %pc_lo12(_ZNSt17_Function_handlerIFvPhS0_jEZ4mainE3$_4E9_M_invokeERKSt9_Any_dataOS0_S7_Oj)
	ori	$a1, $zero, 2728
	add.d	$a1, $sp, $a1
	st.d	$a0, $a1, 0
	pcalau12i	$a0, %pc_hi20(_ZNSt17_Function_handlerIFvPhS0_jEZ4mainE3$_4E10_M_managerERSt9_Any_dataRKS4_St18_Manager_operation)
	addi.d	$a0, $a0, %pc_lo12(_ZNSt17_Function_handlerIFvPhS0_jEZ4mainE3$_4E10_M_managerERSt9_Any_dataRKS4_St18_Manager_operation)
	ori	$a1, $zero, 2720
	add.d	$a1, $sp, $a1
	st.d	$a0, $a1, 0
	ori	$a0, $zero, 2672
	add.d	$a0, $sp, $a0
	vst	$vr0, $a0, 0
	pcalau12i	$a0, %pc_hi20(_ZNSt17_Function_handlerIFvPhS0_jEZ4mainE3$_5E9_M_invokeERKSt9_Any_dataOS0_S7_Oj)
	addi.d	$a0, $a0, %pc_lo12(_ZNSt17_Function_handlerIFvPhS0_jEZ4mainE3$_5E9_M_invokeERKSt9_Any_dataOS0_S7_Oj)
	ori	$a1, $zero, 2696
	add.d	$a1, $sp, $a1
	st.d	$a0, $a1, 0
	pcalau12i	$a0, %pc_hi20(_ZNSt17_Function_handlerIFvPhS0_jEZ4mainE3$_5E10_M_managerERSt9_Any_dataRKS4_St18_Manager_operation)
	addi.d	$a0, $a0, %pc_lo12(_ZNSt17_Function_handlerIFvPhS0_jEZ4mainE3$_5E10_M_managerERSt9_Any_dataRKS4_St18_Manager_operation)
	ori	$a1, $zero, 2688
	add.d	$a1, $sp, $a1
	st.d	$a0, $a1, 0
.Ltmp90:                                # EH_LABEL
	pcalau12i	$a0, %pc_hi20(.L.str.6)
	addi.d	$a2, $a0, %pc_lo12(.L.str.6)
	ori	$a0, $zero, 2704
	add.d	$a0, $sp, $a0
	ori	$a1, $zero, 2672
	add.d	$a1, $sp, $a1
	pcaddu18i	$ra, %call36(_ZL37checkOverlappingMemoryOneRuntimeCheckIhEvSt8functionIFvPT_S2_jEES4_PKc)
	jirl	$ra, $ra, 0
.Ltmp91:                                # EH_LABEL
# %bb.33:                               # %invoke.cont38
	ori	$a0, $zero, 2688
	add.d	$a0, $sp, $a0
	ld.d	$a3, $a0, 0
	beqz	$a3, .LBB0_35
# %bb.34:                               # %if.then.i123
.Ltmp99:                                # EH_LABEL
	ori	$a0, $zero, 2672
	add.d	$a0, $sp, $a0
	ori	$a1, $zero, 2672
	add.d	$a1, $sp, $a1
	ori	$a2, $zero, 3
	jirl	$ra, $a3, 0
.Ltmp100:                               # EH_LABEL
.LBB0_35:                               # %_ZNSt14_Function_baseD2Ev.exit126
	ori	$a0, $zero, 2720
	add.d	$a0, $sp, $a0
	ld.d	$a3, $a0, 0
	beqz	$a3, .LBB0_37
# %bb.36:                               # %if.then.i129
.Ltmp102:                               # EH_LABEL
	ori	$a0, $zero, 2704
	add.d	$a0, $sp, $a0
	ori	$a1, $zero, 2704
	add.d	$a1, $sp, $a1
	ori	$a2, $zero, 3
	jirl	$ra, $a3, 0
.Ltmp103:                               # EH_LABEL
.LBB0_37:                               # %_ZNSt14_Function_baseD2Ev.exit132
	vld	$vr0, $sp, 32                   # 16-byte Folded Reload
	ori	$a0, $zero, 2640
	add.d	$a0, $sp, $a0
	vst	$vr0, $a0, 0
	pcalau12i	$a0, %pc_hi20(_ZNSt17_Function_handlerIFvPjS0_jEZ4mainE3$_4E9_M_invokeERKSt9_Any_dataOS0_S7_Oj)
	addi.d	$a0, $a0, %pc_lo12(_ZNSt17_Function_handlerIFvPjS0_jEZ4mainE3$_4E9_M_invokeERKSt9_Any_dataOS0_S7_Oj)
	ori	$a1, $zero, 2664
	add.d	$a1, $sp, $a1
	st.d	$a0, $a1, 0
	pcalau12i	$a0, %pc_hi20(_ZNSt17_Function_handlerIFvPjS0_jEZ4mainE3$_4E10_M_managerERSt9_Any_dataRKS4_St18_Manager_operation)
	addi.d	$a0, $a0, %pc_lo12(_ZNSt17_Function_handlerIFvPjS0_jEZ4mainE3$_4E10_M_managerERSt9_Any_dataRKS4_St18_Manager_operation)
	ori	$a1, $zero, 2656
	add.d	$a1, $sp, $a1
	st.d	$a0, $a1, 0
	ori	$a0, $zero, 2608
	add.d	$a0, $sp, $a0
	vst	$vr0, $a0, 0
	pcalau12i	$a0, %pc_hi20(_ZNSt17_Function_handlerIFvPjS0_jEZ4mainE3$_5E9_M_invokeERKSt9_Any_dataOS0_S7_Oj)
	addi.d	$a0, $a0, %pc_lo12(_ZNSt17_Function_handlerIFvPjS0_jEZ4mainE3$_5E9_M_invokeERKSt9_Any_dataOS0_S7_Oj)
	ori	$a1, $zero, 2632
	add.d	$a1, $sp, $a1
	st.d	$a0, $a1, 0
	pcalau12i	$a0, %pc_hi20(_ZNSt17_Function_handlerIFvPjS0_jEZ4mainE3$_5E10_M_managerERSt9_Any_dataRKS4_St18_Manager_operation)
	addi.d	$a0, $a0, %pc_lo12(_ZNSt17_Function_handlerIFvPjS0_jEZ4mainE3$_5E10_M_managerERSt9_Any_dataRKS4_St18_Manager_operation)
	ori	$a1, $zero, 2624
	add.d	$a1, $sp, $a1
	st.d	$a0, $a1, 0
.Ltmp105:                               # EH_LABEL
	pcalau12i	$a0, %pc_hi20(.L.str.7)
	addi.d	$a2, $a0, %pc_lo12(.L.str.7)
	ori	$a0, $zero, 2640
	add.d	$a0, $sp, $a0
	ori	$a1, $zero, 2608
	add.d	$a1, $sp, $a1
	pcaddu18i	$ra, %call36(_ZL37checkOverlappingMemoryOneRuntimeCheckIjEvSt8functionIFvPT_S2_jEES4_PKc)
	jirl	$ra, $ra, 0
.Ltmp106:                               # EH_LABEL
# %bb.38:                               # %invoke.cont44
	ori	$a0, $zero, 2624
	add.d	$a0, $sp, $a0
	ld.d	$a3, $a0, 0
	beqz	$a3, .LBB0_40
# %bb.39:                               # %if.then.i139
.Ltmp114:                               # EH_LABEL
	ori	$a0, $zero, 2608
	add.d	$a0, $sp, $a0
	ori	$a1, $zero, 2608
	add.d	$a1, $sp, $a1
	ori	$a2, $zero, 3
	jirl	$ra, $a3, 0
.Ltmp115:                               # EH_LABEL
.LBB0_40:                               # %_ZNSt14_Function_baseD2Ev.exit142
	ori	$a0, $zero, 2656
	add.d	$a0, $sp, $a0
	ld.d	$a3, $a0, 0
	beqz	$a3, .LBB0_42
# %bb.41:                               # %if.then.i145
.Ltmp117:                               # EH_LABEL
	ori	$a0, $zero, 2640
	add.d	$a0, $sp, $a0
	ori	$a1, $zero, 2640
	add.d	$a1, $sp, $a1
	ori	$a2, $zero, 3
	jirl	$ra, $a3, 0
.Ltmp118:                               # EH_LABEL
.LBB0_42:                               # %_ZNSt14_Function_baseD2Ev.exit148
	vld	$vr0, $sp, 32                   # 16-byte Folded Reload
	ori	$a0, $zero, 2576
	add.d	$a0, $sp, $a0
	vst	$vr0, $a0, 0
	pcalau12i	$a0, %pc_hi20(_ZNSt17_Function_handlerIFvPmS0_jEZ4mainE3$_4E9_M_invokeERKSt9_Any_dataOS0_S7_Oj)
	addi.d	$a0, $a0, %pc_lo12(_ZNSt17_Function_handlerIFvPmS0_jEZ4mainE3$_4E9_M_invokeERKSt9_Any_dataOS0_S7_Oj)
	ori	$a1, $zero, 2600
	add.d	$a1, $sp, $a1
	st.d	$a0, $a1, 0
	pcalau12i	$a0, %pc_hi20(_ZNSt17_Function_handlerIFvPmS0_jEZ4mainE3$_4E10_M_managerERSt9_Any_dataRKS4_St18_Manager_operation)
	addi.d	$a0, $a0, %pc_lo12(_ZNSt17_Function_handlerIFvPmS0_jEZ4mainE3$_4E10_M_managerERSt9_Any_dataRKS4_St18_Manager_operation)
	ori	$a1, $zero, 2592
	add.d	$a1, $sp, $a1
	st.d	$a0, $a1, 0
	ori	$a0, $zero, 2544
	add.d	$a0, $sp, $a0
	vst	$vr0, $a0, 0
	pcalau12i	$a0, %pc_hi20(_ZNSt17_Function_handlerIFvPmS0_jEZ4mainE3$_5E9_M_invokeERKSt9_Any_dataOS0_S7_Oj)
	addi.d	$a0, $a0, %pc_lo12(_ZNSt17_Function_handlerIFvPmS0_jEZ4mainE3$_5E9_M_invokeERKSt9_Any_dataOS0_S7_Oj)
	ori	$a1, $zero, 2568
	add.d	$a1, $sp, $a1
	st.d	$a0, $a1, 0
	pcalau12i	$a0, %pc_hi20(_ZNSt17_Function_handlerIFvPmS0_jEZ4mainE3$_5E10_M_managerERSt9_Any_dataRKS4_St18_Manager_operation)
	addi.d	$a0, $a0, %pc_lo12(_ZNSt17_Function_handlerIFvPmS0_jEZ4mainE3$_5E10_M_managerERSt9_Any_dataRKS4_St18_Manager_operation)
	ori	$a1, $zero, 2560
	add.d	$a1, $sp, $a1
	st.d	$a0, $a1, 0
.Ltmp120:                               # EH_LABEL
	pcalau12i	$a0, %pc_hi20(.L.str.8)
	addi.d	$a2, $a0, %pc_lo12(.L.str.8)
	ori	$a0, $zero, 2576
	add.d	$a0, $sp, $a0
	ori	$a1, $zero, 2544
	add.d	$a1, $sp, $a1
	pcaddu18i	$ra, %call36(_ZL37checkOverlappingMemoryOneRuntimeCheckImEvSt8functionIFvPT_S2_jEES4_PKc)
	jirl	$ra, $ra, 0
.Ltmp121:                               # EH_LABEL
# %bb.43:                               # %invoke.cont50
	ori	$a0, $zero, 2560
	add.d	$a0, $sp, $a0
	ld.d	$a3, $a0, 0
	beqz	$a3, .LBB0_45
# %bb.44:                               # %if.then.i155
.Ltmp129:                               # EH_LABEL
	ori	$a0, $zero, 2544
	add.d	$a0, $sp, $a0
	ori	$a1, $zero, 2544
	add.d	$a1, $sp, $a1
	ori	$a2, $zero, 3
	jirl	$ra, $a3, 0
.Ltmp130:                               # EH_LABEL
.LBB0_45:                               # %_ZNSt14_Function_baseD2Ev.exit158
	ori	$a0, $zero, 2592
	add.d	$a0, $sp, $a0
	ld.d	$a3, $a0, 0
	beqz	$a3, .LBB0_47
# %bb.46:                               # %if.then.i161
.Ltmp132:                               # EH_LABEL
	ori	$a0, $zero, 2576
	add.d	$a0, $sp, $a0
	ori	$a1, $zero, 2576
	add.d	$a1, $sp, $a1
	ori	$a2, $zero, 3
	jirl	$ra, $a3, 0
.Ltmp133:                               # EH_LABEL
.LBB0_47:                               # %_ZNSt14_Function_baseD2Ev.exit164
	vld	$vr0, $sp, 32                   # 16-byte Folded Reload
	ori	$a0, $zero, 2512
	add.d	$a0, $sp, $a0
	vst	$vr0, $a0, 0
	pcalau12i	$a0, %pc_hi20(_ZNSt17_Function_handlerIFvPhS0_jEZ4mainE3$_6E9_M_invokeERKSt9_Any_dataOS0_S7_Oj)
	addi.d	$a0, $a0, %pc_lo12(_ZNSt17_Function_handlerIFvPhS0_jEZ4mainE3$_6E9_M_invokeERKSt9_Any_dataOS0_S7_Oj)
	ori	$a1, $zero, 2536
	add.d	$a1, $sp, $a1
	st.d	$a0, $a1, 0
	pcalau12i	$a0, %pc_hi20(_ZNSt17_Function_handlerIFvPhS0_jEZ4mainE3$_6E10_M_managerERSt9_Any_dataRKS4_St18_Manager_operation)
	addi.d	$a0, $a0, %pc_lo12(_ZNSt17_Function_handlerIFvPhS0_jEZ4mainE3$_6E10_M_managerERSt9_Any_dataRKS4_St18_Manager_operation)
	ori	$a1, $zero, 2528
	add.d	$a1, $sp, $a1
	st.d	$a0, $a1, 0
	ori	$a0, $zero, 2480
	add.d	$a0, $sp, $a0
	vst	$vr0, $a0, 0
	pcalau12i	$a0, %pc_hi20(_ZNSt17_Function_handlerIFvPhS0_jEZ4mainE3$_7E9_M_invokeERKSt9_Any_dataOS0_S7_Oj)
	addi.d	$a0, $a0, %pc_lo12(_ZNSt17_Function_handlerIFvPhS0_jEZ4mainE3$_7E9_M_invokeERKSt9_Any_dataOS0_S7_Oj)
	ori	$a1, $zero, 2504
	add.d	$a1, $sp, $a1
	st.d	$a0, $a1, 0
	pcalau12i	$a0, %pc_hi20(_ZNSt17_Function_handlerIFvPhS0_jEZ4mainE3$_7E10_M_managerERSt9_Any_dataRKS4_St18_Manager_operation)
	addi.d	$a0, $a0, %pc_lo12(_ZNSt17_Function_handlerIFvPhS0_jEZ4mainE3$_7E10_M_managerERSt9_Any_dataRKS4_St18_Manager_operation)
	ori	$a1, $zero, 2496
	add.d	$a1, $sp, $a1
	st.d	$a0, $a1, 0
.Ltmp135:                               # EH_LABEL
	pcalau12i	$a0, %pc_hi20(.L.str.9)
	addi.d	$a2, $a0, %pc_lo12(.L.str.9)
	ori	$a0, $zero, 2512
	add.d	$a0, $sp, $a0
	ori	$a1, $zero, 2480
	add.d	$a1, $sp, $a1
	pcaddu18i	$ra, %call36(_ZL37checkOverlappingMemoryOneRuntimeCheckIhEvSt8functionIFvPT_S2_jEES4_PKc)
	jirl	$ra, $ra, 0
.Ltmp136:                               # EH_LABEL
# %bb.48:                               # %invoke.cont60
	ori	$a0, $zero, 2496
	add.d	$a0, $sp, $a0
	ld.d	$a3, $a0, 0
	beqz	$a3, .LBB0_50
# %bb.49:                               # %if.then.i171
.Ltmp144:                               # EH_LABEL
	ori	$a0, $zero, 2480
	add.d	$a0, $sp, $a0
	ori	$a1, $zero, 2480
	add.d	$a1, $sp, $a1
	ori	$a2, $zero, 3
	jirl	$ra, $a3, 0
.Ltmp145:                               # EH_LABEL
.LBB0_50:                               # %_ZNSt14_Function_baseD2Ev.exit174
	ori	$a0, $zero, 2528
	add.d	$a0, $sp, $a0
	ld.d	$a3, $a0, 0
	beqz	$a3, .LBB0_52
# %bb.51:                               # %if.then.i177
.Ltmp147:                               # EH_LABEL
	ori	$a0, $zero, 2512
	add.d	$a0, $sp, $a0
	ori	$a1, $zero, 2512
	add.d	$a1, $sp, $a1
	ori	$a2, $zero, 3
	jirl	$ra, $a3, 0
.Ltmp148:                               # EH_LABEL
.LBB0_52:                               # %_ZNSt14_Function_baseD2Ev.exit180
	vld	$vr0, $sp, 32                   # 16-byte Folded Reload
	ori	$a0, $zero, 2448
	add.d	$a0, $sp, $a0
	vst	$vr0, $a0, 0
	pcalau12i	$a0, %pc_hi20(_ZNSt17_Function_handlerIFvPjS0_jEZ4mainE3$_6E9_M_invokeERKSt9_Any_dataOS0_S7_Oj)
	addi.d	$a0, $a0, %pc_lo12(_ZNSt17_Function_handlerIFvPjS0_jEZ4mainE3$_6E9_M_invokeERKSt9_Any_dataOS0_S7_Oj)
	ori	$a1, $zero, 2472
	add.d	$a1, $sp, $a1
	st.d	$a0, $a1, 0
	pcalau12i	$a0, %pc_hi20(_ZNSt17_Function_handlerIFvPjS0_jEZ4mainE3$_6E10_M_managerERSt9_Any_dataRKS4_St18_Manager_operation)
	addi.d	$a0, $a0, %pc_lo12(_ZNSt17_Function_handlerIFvPjS0_jEZ4mainE3$_6E10_M_managerERSt9_Any_dataRKS4_St18_Manager_operation)
	ori	$a1, $zero, 2464
	add.d	$a1, $sp, $a1
	st.d	$a0, $a1, 0
	ori	$a0, $zero, 2416
	add.d	$a0, $sp, $a0
	vst	$vr0, $a0, 0
	pcalau12i	$a0, %pc_hi20(_ZNSt17_Function_handlerIFvPjS0_jEZ4mainE3$_7E9_M_invokeERKSt9_Any_dataOS0_S7_Oj)
	addi.d	$a0, $a0, %pc_lo12(_ZNSt17_Function_handlerIFvPjS0_jEZ4mainE3$_7E9_M_invokeERKSt9_Any_dataOS0_S7_Oj)
	ori	$a1, $zero, 2440
	add.d	$a1, $sp, $a1
	st.d	$a0, $a1, 0
	pcalau12i	$a0, %pc_hi20(_ZNSt17_Function_handlerIFvPjS0_jEZ4mainE3$_7E10_M_managerERSt9_Any_dataRKS4_St18_Manager_operation)
	addi.d	$a0, $a0, %pc_lo12(_ZNSt17_Function_handlerIFvPjS0_jEZ4mainE3$_7E10_M_managerERSt9_Any_dataRKS4_St18_Manager_operation)
	ori	$a1, $zero, 2432
	add.d	$a1, $sp, $a1
	st.d	$a0, $a1, 0
.Ltmp150:                               # EH_LABEL
	pcalau12i	$a0, %pc_hi20(.L.str.10)
	addi.d	$a2, $a0, %pc_lo12(.L.str.10)
	ori	$a0, $zero, 2448
	add.d	$a0, $sp, $a0
	ori	$a1, $zero, 2416
	add.d	$a1, $sp, $a1
	pcaddu18i	$ra, %call36(_ZL37checkOverlappingMemoryOneRuntimeCheckIjEvSt8functionIFvPT_S2_jEES4_PKc)
	jirl	$ra, $ra, 0
.Ltmp151:                               # EH_LABEL
# %bb.53:                               # %invoke.cont66
	ori	$a0, $zero, 2432
	add.d	$a0, $sp, $a0
	ld.d	$a3, $a0, 0
	beqz	$a3, .LBB0_55
# %bb.54:                               # %if.then.i187
.Ltmp159:                               # EH_LABEL
	ori	$a0, $zero, 2416
	add.d	$a0, $sp, $a0
	ori	$a1, $zero, 2416
	add.d	$a1, $sp, $a1
	ori	$a2, $zero, 3
	jirl	$ra, $a3, 0
.Ltmp160:                               # EH_LABEL
.LBB0_55:                               # %_ZNSt14_Function_baseD2Ev.exit190
	ori	$a0, $zero, 2464
	add.d	$a0, $sp, $a0
	ld.d	$a3, $a0, 0
	beqz	$a3, .LBB0_57
# %bb.56:                               # %if.then.i193
.Ltmp162:                               # EH_LABEL
	ori	$a0, $zero, 2448
	add.d	$a0, $sp, $a0
	ori	$a1, $zero, 2448
	add.d	$a1, $sp, $a1
	ori	$a2, $zero, 3
	jirl	$ra, $a3, 0
.Ltmp163:                               # EH_LABEL
.LBB0_57:                               # %_ZNSt14_Function_baseD2Ev.exit196
	vld	$vr0, $sp, 32                   # 16-byte Folded Reload
	ori	$a0, $zero, 2384
	add.d	$a0, $sp, $a0
	vst	$vr0, $a0, 0
	pcalau12i	$a0, %pc_hi20(_ZNSt17_Function_handlerIFvPmS0_jEZ4mainE3$_6E9_M_invokeERKSt9_Any_dataOS0_S7_Oj)
	addi.d	$a0, $a0, %pc_lo12(_ZNSt17_Function_handlerIFvPmS0_jEZ4mainE3$_6E9_M_invokeERKSt9_Any_dataOS0_S7_Oj)
	ori	$a1, $zero, 2408
	add.d	$a1, $sp, $a1
	st.d	$a0, $a1, 0
	pcalau12i	$a0, %pc_hi20(_ZNSt17_Function_handlerIFvPmS0_jEZ4mainE3$_6E10_M_managerERSt9_Any_dataRKS4_St18_Manager_operation)
	addi.d	$a0, $a0, %pc_lo12(_ZNSt17_Function_handlerIFvPmS0_jEZ4mainE3$_6E10_M_managerERSt9_Any_dataRKS4_St18_Manager_operation)
	ori	$a1, $zero, 2400
	add.d	$a1, $sp, $a1
	st.d	$a0, $a1, 0
	ori	$a0, $zero, 2352
	add.d	$a0, $sp, $a0
	vst	$vr0, $a0, 0
	pcalau12i	$a0, %pc_hi20(_ZNSt17_Function_handlerIFvPmS0_jEZ4mainE3$_7E9_M_invokeERKSt9_Any_dataOS0_S7_Oj)
	addi.d	$a0, $a0, %pc_lo12(_ZNSt17_Function_handlerIFvPmS0_jEZ4mainE3$_7E9_M_invokeERKSt9_Any_dataOS0_S7_Oj)
	ori	$a1, $zero, 2376
	add.d	$a1, $sp, $a1
	st.d	$a0, $a1, 0
	pcalau12i	$a0, %pc_hi20(_ZNSt17_Function_handlerIFvPmS0_jEZ4mainE3$_7E10_M_managerERSt9_Any_dataRKS4_St18_Manager_operation)
	addi.d	$a0, $a0, %pc_lo12(_ZNSt17_Function_handlerIFvPmS0_jEZ4mainE3$_7E10_M_managerERSt9_Any_dataRKS4_St18_Manager_operation)
	ori	$a1, $zero, 2368
	add.d	$a1, $sp, $a1
	st.d	$a0, $a1, 0
.Ltmp165:                               # EH_LABEL
	pcalau12i	$a0, %pc_hi20(.L.str.11)
	addi.d	$a2, $a0, %pc_lo12(.L.str.11)
	ori	$a0, $zero, 2384
	add.d	$a0, $sp, $a0
	ori	$a1, $zero, 2352
	add.d	$a1, $sp, $a1
	pcaddu18i	$ra, %call36(_ZL37checkOverlappingMemoryOneRuntimeCheckImEvSt8functionIFvPT_S2_jEES4_PKc)
	jirl	$ra, $ra, 0
.Ltmp166:                               # EH_LABEL
# %bb.58:                               # %invoke.cont72
	ori	$a0, $zero, 2368
	add.d	$a0, $sp, $a0
	ld.d	$a3, $a0, 0
	beqz	$a3, .LBB0_60
# %bb.59:                               # %if.then.i203
.Ltmp174:                               # EH_LABEL
	ori	$a0, $zero, 2352
	add.d	$a0, $sp, $a0
	ori	$a1, $zero, 2352
	add.d	$a1, $sp, $a1
	ori	$a2, $zero, 3
	jirl	$ra, $a3, 0
.Ltmp175:                               # EH_LABEL
.LBB0_60:                               # %_ZNSt14_Function_baseD2Ev.exit206
	ori	$a0, $zero, 2400
	add.d	$a0, $sp, $a0
	ld.d	$a3, $a0, 0
	beqz	$a3, .LBB0_62
# %bb.61:                               # %if.then.i209
.Ltmp177:                               # EH_LABEL
	ori	$a0, $zero, 2384
	add.d	$a0, $sp, $a0
	ori	$a1, $zero, 2384
	add.d	$a1, $sp, $a1
	ori	$a2, $zero, 3
	jirl	$ra, $a3, 0
.Ltmp178:                               # EH_LABEL
.LBB0_62:                               # %_ZNSt14_Function_baseD2Ev.exit212
	vld	$vr0, $sp, 32                   # 16-byte Folded Reload
	ori	$a0, $zero, 2320
	add.d	$a0, $sp, $a0
	vst	$vr0, $a0, 0
	pcalau12i	$a0, %pc_hi20(_ZNSt17_Function_handlerIFvPhS0_jEZ4mainE3$_8E9_M_invokeERKSt9_Any_dataOS0_S7_Oj)
	addi.d	$a0, $a0, %pc_lo12(_ZNSt17_Function_handlerIFvPhS0_jEZ4mainE3$_8E9_M_invokeERKSt9_Any_dataOS0_S7_Oj)
	ori	$a1, $zero, 2344
	add.d	$a1, $sp, $a1
	st.d	$a0, $a1, 0
	pcalau12i	$a0, %pc_hi20(_ZNSt17_Function_handlerIFvPhS0_jEZ4mainE3$_8E10_M_managerERSt9_Any_dataRKS4_St18_Manager_operation)
	addi.d	$a0, $a0, %pc_lo12(_ZNSt17_Function_handlerIFvPhS0_jEZ4mainE3$_8E10_M_managerERSt9_Any_dataRKS4_St18_Manager_operation)
	ori	$a1, $zero, 2336
	add.d	$a1, $sp, $a1
	st.d	$a0, $a1, 0
	ori	$a0, $zero, 2288
	add.d	$a0, $sp, $a0
	vst	$vr0, $a0, 0
	pcalau12i	$a0, %pc_hi20(_ZNSt17_Function_handlerIFvPhS0_jEZ4mainE3$_9E9_M_invokeERKSt9_Any_dataOS0_S7_Oj)
	addi.d	$a0, $a0, %pc_lo12(_ZNSt17_Function_handlerIFvPhS0_jEZ4mainE3$_9E9_M_invokeERKSt9_Any_dataOS0_S7_Oj)
	ori	$a1, $zero, 2312
	add.d	$a1, $sp, $a1
	st.d	$a0, $a1, 0
	pcalau12i	$a0, %pc_hi20(_ZNSt17_Function_handlerIFvPhS0_jEZ4mainE3$_9E10_M_managerERSt9_Any_dataRKS4_St18_Manager_operation)
	addi.d	$a0, $a0, %pc_lo12(_ZNSt17_Function_handlerIFvPhS0_jEZ4mainE3$_9E10_M_managerERSt9_Any_dataRKS4_St18_Manager_operation)
	ori	$a1, $zero, 2304
	add.d	$a1, $sp, $a1
	st.d	$a0, $a1, 0
.Ltmp180:                               # EH_LABEL
	pcalau12i	$a0, %pc_hi20(.L.str.12)
	addi.d	$a2, $a0, %pc_lo12(.L.str.12)
	ori	$a0, $zero, 2320
	add.d	$a0, $sp, $a0
	ori	$a1, $zero, 2288
	add.d	$a1, $sp, $a1
	pcaddu18i	$ra, %call36(_ZL37checkOverlappingMemoryOneRuntimeCheckIhEvSt8functionIFvPT_S2_jEES4_PKc)
	jirl	$ra, $ra, 0
.Ltmp181:                               # EH_LABEL
# %bb.63:                               # %invoke.cont82
	ori	$a0, $zero, 2304
	add.d	$a0, $sp, $a0
	ld.d	$a3, $a0, 0
	beqz	$a3, .LBB0_65
# %bb.64:                               # %if.then.i219
.Ltmp189:                               # EH_LABEL
	ori	$a0, $zero, 2288
	add.d	$a0, $sp, $a0
	ori	$a1, $zero, 2288
	add.d	$a1, $sp, $a1
	ori	$a2, $zero, 3
	jirl	$ra, $a3, 0
.Ltmp190:                               # EH_LABEL
.LBB0_65:                               # %_ZNSt14_Function_baseD2Ev.exit222
	ori	$a0, $zero, 2336
	add.d	$a0, $sp, $a0
	ld.d	$a3, $a0, 0
	beqz	$a3, .LBB0_67
# %bb.66:                               # %if.then.i225
.Ltmp192:                               # EH_LABEL
	ori	$a0, $zero, 2320
	add.d	$a0, $sp, $a0
	ori	$a1, $zero, 2320
	add.d	$a1, $sp, $a1
	ori	$a2, $zero, 3
	jirl	$ra, $a3, 0
.Ltmp193:                               # EH_LABEL
.LBB0_67:                               # %_ZNSt14_Function_baseD2Ev.exit228
	vld	$vr0, $sp, 32                   # 16-byte Folded Reload
	ori	$a0, $zero, 2256
	add.d	$a0, $sp, $a0
	vst	$vr0, $a0, 0
	pcalau12i	$a0, %pc_hi20(_ZNSt17_Function_handlerIFvPjS0_jEZ4mainE3$_8E9_M_invokeERKSt9_Any_dataOS0_S7_Oj)
	addi.d	$a0, $a0, %pc_lo12(_ZNSt17_Function_handlerIFvPjS0_jEZ4mainE3$_8E9_M_invokeERKSt9_Any_dataOS0_S7_Oj)
	ori	$a1, $zero, 2280
	add.d	$a1, $sp, $a1
	st.d	$a0, $a1, 0
	pcalau12i	$a0, %pc_hi20(_ZNSt17_Function_handlerIFvPjS0_jEZ4mainE3$_8E10_M_managerERSt9_Any_dataRKS4_St18_Manager_operation)
	addi.d	$a0, $a0, %pc_lo12(_ZNSt17_Function_handlerIFvPjS0_jEZ4mainE3$_8E10_M_managerERSt9_Any_dataRKS4_St18_Manager_operation)
	ori	$a1, $zero, 2272
	add.d	$a1, $sp, $a1
	st.d	$a0, $a1, 0
	ori	$a0, $zero, 2224
	add.d	$a0, $sp, $a0
	vst	$vr0, $a0, 0
	pcalau12i	$a0, %pc_hi20(_ZNSt17_Function_handlerIFvPjS0_jEZ4mainE3$_9E9_M_invokeERKSt9_Any_dataOS0_S7_Oj)
	addi.d	$a0, $a0, %pc_lo12(_ZNSt17_Function_handlerIFvPjS0_jEZ4mainE3$_9E9_M_invokeERKSt9_Any_dataOS0_S7_Oj)
	ori	$a1, $zero, 2248
	add.d	$a1, $sp, $a1
	st.d	$a0, $a1, 0
	pcalau12i	$a0, %pc_hi20(_ZNSt17_Function_handlerIFvPjS0_jEZ4mainE3$_9E10_M_managerERSt9_Any_dataRKS4_St18_Manager_operation)
	addi.d	$a0, $a0, %pc_lo12(_ZNSt17_Function_handlerIFvPjS0_jEZ4mainE3$_9E10_M_managerERSt9_Any_dataRKS4_St18_Manager_operation)
	ori	$a1, $zero, 2240
	add.d	$a1, $sp, $a1
	st.d	$a0, $a1, 0
.Ltmp195:                               # EH_LABEL
	pcalau12i	$a0, %pc_hi20(.L.str.13)
	addi.d	$a2, $a0, %pc_lo12(.L.str.13)
	ori	$a0, $zero, 2256
	add.d	$a0, $sp, $a0
	ori	$a1, $zero, 2224
	add.d	$a1, $sp, $a1
	pcaddu18i	$ra, %call36(_ZL37checkOverlappingMemoryOneRuntimeCheckIjEvSt8functionIFvPT_S2_jEES4_PKc)
	jirl	$ra, $ra, 0
.Ltmp196:                               # EH_LABEL
# %bb.68:                               # %invoke.cont88
	ori	$a0, $zero, 2240
	add.d	$a0, $sp, $a0
	ld.d	$a3, $a0, 0
	beqz	$a3, .LBB0_70
# %bb.69:                               # %if.then.i235
.Ltmp204:                               # EH_LABEL
	ori	$a0, $zero, 2224
	add.d	$a0, $sp, $a0
	ori	$a1, $zero, 2224
	add.d	$a1, $sp, $a1
	ori	$a2, $zero, 3
	jirl	$ra, $a3, 0
.Ltmp205:                               # EH_LABEL
.LBB0_70:                               # %_ZNSt14_Function_baseD2Ev.exit238
	ori	$a0, $zero, 2272
	add.d	$a0, $sp, $a0
	ld.d	$a3, $a0, 0
	beqz	$a3, .LBB0_72
# %bb.71:                               # %if.then.i241
.Ltmp207:                               # EH_LABEL
	ori	$a0, $zero, 2256
	add.d	$a0, $sp, $a0
	ori	$a1, $zero, 2256
	add.d	$a1, $sp, $a1
	ori	$a2, $zero, 3
	jirl	$ra, $a3, 0
.Ltmp208:                               # EH_LABEL
.LBB0_72:                               # %_ZNSt14_Function_baseD2Ev.exit244
	vld	$vr0, $sp, 32                   # 16-byte Folded Reload
	ori	$a0, $zero, 2192
	add.d	$a0, $sp, $a0
	vst	$vr0, $a0, 0
	pcalau12i	$a0, %pc_hi20(_ZNSt17_Function_handlerIFvPmS0_jEZ4mainE3$_8E9_M_invokeERKSt9_Any_dataOS0_S7_Oj)
	addi.d	$a0, $a0, %pc_lo12(_ZNSt17_Function_handlerIFvPmS0_jEZ4mainE3$_8E9_M_invokeERKSt9_Any_dataOS0_S7_Oj)
	ori	$a1, $zero, 2216
	add.d	$a1, $sp, $a1
	st.d	$a0, $a1, 0
	pcalau12i	$a0, %pc_hi20(_ZNSt17_Function_handlerIFvPmS0_jEZ4mainE3$_8E10_M_managerERSt9_Any_dataRKS4_St18_Manager_operation)
	addi.d	$a0, $a0, %pc_lo12(_ZNSt17_Function_handlerIFvPmS0_jEZ4mainE3$_8E10_M_managerERSt9_Any_dataRKS4_St18_Manager_operation)
	ori	$a1, $zero, 2208
	add.d	$a1, $sp, $a1
	st.d	$a0, $a1, 0
	ori	$a0, $zero, 2160
	add.d	$a0, $sp, $a0
	vst	$vr0, $a0, 0
	pcalau12i	$a0, %pc_hi20(_ZNSt17_Function_handlerIFvPmS0_jEZ4mainE3$_9E9_M_invokeERKSt9_Any_dataOS0_S7_Oj)
	addi.d	$a0, $a0, %pc_lo12(_ZNSt17_Function_handlerIFvPmS0_jEZ4mainE3$_9E9_M_invokeERKSt9_Any_dataOS0_S7_Oj)
	ori	$a1, $zero, 2184
	add.d	$a1, $sp, $a1
	st.d	$a0, $a1, 0
	pcalau12i	$a0, %pc_hi20(_ZNSt17_Function_handlerIFvPmS0_jEZ4mainE3$_9E10_M_managerERSt9_Any_dataRKS4_St18_Manager_operation)
	addi.d	$a0, $a0, %pc_lo12(_ZNSt17_Function_handlerIFvPmS0_jEZ4mainE3$_9E10_M_managerERSt9_Any_dataRKS4_St18_Manager_operation)
	ori	$a1, $zero, 2176
	add.d	$a1, $sp, $a1
	st.d	$a0, $a1, 0
.Ltmp210:                               # EH_LABEL
	pcalau12i	$a0, %pc_hi20(.L.str.14)
	addi.d	$a2, $a0, %pc_lo12(.L.str.14)
	ori	$a0, $zero, 2192
	add.d	$a0, $sp, $a0
	ori	$a1, $zero, 2160
	add.d	$a1, $sp, $a1
	pcaddu18i	$ra, %call36(_ZL37checkOverlappingMemoryOneRuntimeCheckImEvSt8functionIFvPT_S2_jEES4_PKc)
	jirl	$ra, $ra, 0
.Ltmp211:                               # EH_LABEL
# %bb.73:                               # %invoke.cont94
	ori	$a0, $zero, 2176
	add.d	$a0, $sp, $a0
	ld.d	$a3, $a0, 0
	beqz	$a3, .LBB0_75
# %bb.74:                               # %if.then.i251
.Ltmp219:                               # EH_LABEL
	ori	$a0, $zero, 2160
	add.d	$a0, $sp, $a0
	ori	$a1, $zero, 2160
	add.d	$a1, $sp, $a1
	ori	$a2, $zero, 3
	jirl	$ra, $a3, 0
.Ltmp220:                               # EH_LABEL
.LBB0_75:                               # %_ZNSt14_Function_baseD2Ev.exit254
	ori	$a0, $zero, 2208
	add.d	$a0, $sp, $a0
	ld.d	$a3, $a0, 0
	beqz	$a3, .LBB0_77
# %bb.76:                               # %if.then.i257
.Ltmp222:                               # EH_LABEL
	ori	$a0, $zero, 2192
	add.d	$a0, $sp, $a0
	ori	$a1, $zero, 2192
	add.d	$a1, $sp, $a1
	ori	$a2, $zero, 3
	jirl	$ra, $a3, 0
.Ltmp223:                               # EH_LABEL
.LBB0_77:                               # %_ZNSt14_Function_baseD2Ev.exit260
	vld	$vr0, $sp, 32                   # 16-byte Folded Reload
	ori	$a0, $zero, 2128
	add.d	$a0, $sp, $a0
	vst	$vr0, $a0, 0
	pcalau12i	$a0, %pc_hi20(_ZNSt17_Function_handlerIFvPhS0_jEZ4mainE4$_10E9_M_invokeERKSt9_Any_dataOS0_S7_Oj)
	addi.d	$a0, $a0, %pc_lo12(_ZNSt17_Function_handlerIFvPhS0_jEZ4mainE4$_10E9_M_invokeERKSt9_Any_dataOS0_S7_Oj)
	ori	$a1, $zero, 2152
	add.d	$a1, $sp, $a1
	st.d	$a0, $a1, 0
	pcalau12i	$a0, %pc_hi20(_ZNSt17_Function_handlerIFvPhS0_jEZ4mainE4$_10E10_M_managerERSt9_Any_dataRKS4_St18_Manager_operation)
	addi.d	$a0, $a0, %pc_lo12(_ZNSt17_Function_handlerIFvPhS0_jEZ4mainE4$_10E10_M_managerERSt9_Any_dataRKS4_St18_Manager_operation)
	ori	$a1, $zero, 2144
	add.d	$a1, $sp, $a1
	st.d	$a0, $a1, 0
	ori	$a0, $zero, 2096
	add.d	$a0, $sp, $a0
	vst	$vr0, $a0, 0
	pcalau12i	$a0, %pc_hi20(_ZNSt17_Function_handlerIFvPhS0_jEZ4mainE4$_11E9_M_invokeERKSt9_Any_dataOS0_S7_Oj)
	addi.d	$a0, $a0, %pc_lo12(_ZNSt17_Function_handlerIFvPhS0_jEZ4mainE4$_11E9_M_invokeERKSt9_Any_dataOS0_S7_Oj)
	ori	$a1, $zero, 2120
	add.d	$a1, $sp, $a1
	st.d	$a0, $a1, 0
	pcalau12i	$a0, %pc_hi20(_ZNSt17_Function_handlerIFvPhS0_jEZ4mainE4$_11E10_M_managerERSt9_Any_dataRKS4_St18_Manager_operation)
	addi.d	$a0, $a0, %pc_lo12(_ZNSt17_Function_handlerIFvPhS0_jEZ4mainE4$_11E10_M_managerERSt9_Any_dataRKS4_St18_Manager_operation)
	ori	$a1, $zero, 2112
	add.d	$a1, $sp, $a1
	st.d	$a0, $a1, 0
.Ltmp225:                               # EH_LABEL
	pcalau12i	$a0, %pc_hi20(.L.str.15)
	addi.d	$a2, $a0, %pc_lo12(.L.str.15)
	ori	$a0, $zero, 2128
	add.d	$a0, $sp, $a0
	ori	$a1, $zero, 2096
	add.d	$a1, $sp, $a1
	pcaddu18i	$ra, %call36(_ZL37checkOverlappingMemoryOneRuntimeCheckIhEvSt8functionIFvPT_S2_jEES4_PKc)
	jirl	$ra, $ra, 0
.Ltmp226:                               # EH_LABEL
# %bb.78:                               # %invoke.cont104
	ori	$a0, $zero, 2112
	add.d	$a0, $sp, $a0
	ld.d	$a3, $a0, 0
	beqz	$a3, .LBB0_80
# %bb.79:                               # %if.then.i267
.Ltmp234:                               # EH_LABEL
	ori	$a0, $zero, 2096
	add.d	$a0, $sp, $a0
	ori	$a1, $zero, 2096
	add.d	$a1, $sp, $a1
	ori	$a2, $zero, 3
	jirl	$ra, $a3, 0
.Ltmp235:                               # EH_LABEL
.LBB0_80:                               # %_ZNSt14_Function_baseD2Ev.exit270
	ori	$a0, $zero, 2144
	add.d	$a0, $sp, $a0
	ld.d	$a3, $a0, 0
	beqz	$a3, .LBB0_82
# %bb.81:                               # %if.then.i273
.Ltmp237:                               # EH_LABEL
	ori	$a0, $zero, 2128
	add.d	$a0, $sp, $a0
	ori	$a1, $zero, 2128
	add.d	$a1, $sp, $a1
	ori	$a2, $zero, 3
	jirl	$ra, $a3, 0
.Ltmp238:                               # EH_LABEL
.LBB0_82:                               # %_ZNSt14_Function_baseD2Ev.exit276
	vld	$vr0, $sp, 32                   # 16-byte Folded Reload
	ori	$a0, $zero, 2064
	add.d	$a0, $sp, $a0
	vst	$vr0, $a0, 0
	pcalau12i	$a0, %pc_hi20(_ZNSt17_Function_handlerIFvPjS0_jEZ4mainE4$_10E9_M_invokeERKSt9_Any_dataOS0_S7_Oj)
	addi.d	$a0, $a0, %pc_lo12(_ZNSt17_Function_handlerIFvPjS0_jEZ4mainE4$_10E9_M_invokeERKSt9_Any_dataOS0_S7_Oj)
	ori	$a1, $zero, 2088
	add.d	$a1, $sp, $a1
	st.d	$a0, $a1, 0
	pcalau12i	$a0, %pc_hi20(_ZNSt17_Function_handlerIFvPjS0_jEZ4mainE4$_10E10_M_managerERSt9_Any_dataRKS4_St18_Manager_operation)
	addi.d	$a0, $a0, %pc_lo12(_ZNSt17_Function_handlerIFvPjS0_jEZ4mainE4$_10E10_M_managerERSt9_Any_dataRKS4_St18_Manager_operation)
	ori	$a1, $zero, 2080
	add.d	$a1, $sp, $a1
	st.d	$a0, $a1, 0
	vst	$vr0, $sp, 2032
	pcalau12i	$a0, %pc_hi20(_ZNSt17_Function_handlerIFvPjS0_jEZ4mainE4$_11E9_M_invokeERKSt9_Any_dataOS0_S7_Oj)
	addi.d	$a0, $a0, %pc_lo12(_ZNSt17_Function_handlerIFvPjS0_jEZ4mainE4$_11E9_M_invokeERKSt9_Any_dataOS0_S7_Oj)
	ori	$a1, $zero, 2056
	add.d	$a1, $sp, $a1
	st.d	$a0, $a1, 0
	pcalau12i	$a0, %pc_hi20(_ZNSt17_Function_handlerIFvPjS0_jEZ4mainE4$_11E10_M_managerERSt9_Any_dataRKS4_St18_Manager_operation)
	addi.d	$a0, $a0, %pc_lo12(_ZNSt17_Function_handlerIFvPjS0_jEZ4mainE4$_11E10_M_managerERSt9_Any_dataRKS4_St18_Manager_operation)
	ori	$a1, $zero, 2048
	add.d	$a1, $sp, $a1
	st.d	$a0, $a1, 0
.Ltmp240:                               # EH_LABEL
	pcalau12i	$a0, %pc_hi20(.L.str.16)
	addi.d	$a2, $a0, %pc_lo12(.L.str.16)
	ori	$a0, $zero, 2064
	add.d	$a0, $sp, $a0
	addi.d	$a1, $sp, 2032
	pcaddu18i	$ra, %call36(_ZL37checkOverlappingMemoryOneRuntimeCheckIjEvSt8functionIFvPT_S2_jEES4_PKc)
	jirl	$ra, $ra, 0
.Ltmp241:                               # EH_LABEL
# %bb.83:                               # %invoke.cont110
	ori	$a0, $zero, 2048
	add.d	$a0, $sp, $a0
	ld.d	$a3, $a0, 0
	beqz	$a3, .LBB0_85
# %bb.84:                               # %if.then.i283
.Ltmp249:                               # EH_LABEL
	addi.d	$a0, $sp, 2032
	addi.d	$a1, $sp, 2032
	ori	$a2, $zero, 3
	jirl	$ra, $a3, 0
.Ltmp250:                               # EH_LABEL
.LBB0_85:                               # %_ZNSt14_Function_baseD2Ev.exit286
	ori	$a0, $zero, 2080
	add.d	$a0, $sp, $a0
	ld.d	$a3, $a0, 0
	beqz	$a3, .LBB0_87
# %bb.86:                               # %if.then.i289
.Ltmp252:                               # EH_LABEL
	ori	$a0, $zero, 2064
	add.d	$a0, $sp, $a0
	ori	$a1, $zero, 2064
	add.d	$a1, $sp, $a1
	ori	$a2, $zero, 3
	jirl	$ra, $a3, 0
.Ltmp253:                               # EH_LABEL
.LBB0_87:                               # %_ZNSt14_Function_baseD2Ev.exit292
	vld	$vr0, $sp, 32                   # 16-byte Folded Reload
	vst	$vr0, $sp, 2000
	pcalau12i	$a0, %pc_hi20(_ZNSt17_Function_handlerIFvPmS0_jEZ4mainE4$_10E9_M_invokeERKSt9_Any_dataOS0_S7_Oj)
	addi.d	$a0, $a0, %pc_lo12(_ZNSt17_Function_handlerIFvPmS0_jEZ4mainE4$_10E9_M_invokeERKSt9_Any_dataOS0_S7_Oj)
	st.d	$a0, $sp, 2024
	pcalau12i	$a0, %pc_hi20(_ZNSt17_Function_handlerIFvPmS0_jEZ4mainE4$_10E10_M_managerERSt9_Any_dataRKS4_St18_Manager_operation)
	addi.d	$a0, $a0, %pc_lo12(_ZNSt17_Function_handlerIFvPmS0_jEZ4mainE4$_10E10_M_managerERSt9_Any_dataRKS4_St18_Manager_operation)
	st.d	$a0, $sp, 2016
	vst	$vr0, $sp, 1968
	pcalau12i	$a0, %pc_hi20(_ZNSt17_Function_handlerIFvPmS0_jEZ4mainE4$_11E9_M_invokeERKSt9_Any_dataOS0_S7_Oj)
	addi.d	$a0, $a0, %pc_lo12(_ZNSt17_Function_handlerIFvPmS0_jEZ4mainE4$_11E9_M_invokeERKSt9_Any_dataOS0_S7_Oj)
	st.d	$a0, $sp, 1992
	pcalau12i	$a0, %pc_hi20(_ZNSt17_Function_handlerIFvPmS0_jEZ4mainE4$_11E10_M_managerERSt9_Any_dataRKS4_St18_Manager_operation)
	addi.d	$a0, $a0, %pc_lo12(_ZNSt17_Function_handlerIFvPmS0_jEZ4mainE4$_11E10_M_managerERSt9_Any_dataRKS4_St18_Manager_operation)
	st.d	$a0, $sp, 1984
.Ltmp255:                               # EH_LABEL
	pcalau12i	$a0, %pc_hi20(.L.str.17)
	addi.d	$a2, $a0, %pc_lo12(.L.str.17)
	addi.d	$a0, $sp, 2000
	addi.d	$a1, $sp, 1968
	pcaddu18i	$ra, %call36(_ZL37checkOverlappingMemoryOneRuntimeCheckImEvSt8functionIFvPT_S2_jEES4_PKc)
	jirl	$ra, $ra, 0
.Ltmp256:                               # EH_LABEL
# %bb.88:                               # %invoke.cont116
	ld.d	$a3, $sp, 1984
	beqz	$a3, .LBB0_90
# %bb.89:                               # %if.then.i299
.Ltmp264:                               # EH_LABEL
	addi.d	$a0, $sp, 1968
	addi.d	$a1, $sp, 1968
	ori	$a2, $zero, 3
	jirl	$ra, $a3, 0
.Ltmp265:                               # EH_LABEL
.LBB0_90:                               # %_ZNSt14_Function_baseD2Ev.exit302
	ld.d	$a3, $sp, 2016
	beqz	$a3, .LBB0_92
# %bb.91:                               # %if.then.i305
.Ltmp267:                               # EH_LABEL
	addi.d	$a0, $sp, 2000
	addi.d	$a1, $sp, 2000
	ori	$a2, $zero, 3
	jirl	$ra, $a3, 0
.Ltmp268:                               # EH_LABEL
.LBB0_92:                               # %_ZNSt14_Function_baseD2Ev.exit308
	vld	$vr0, $sp, 32                   # 16-byte Folded Reload
	vst	$vr0, $sp, 1936
	pcalau12i	$a0, %pc_hi20(_ZNSt17_Function_handlerIFvPhS0_jEZ4mainE4$_12E9_M_invokeERKSt9_Any_dataOS0_S7_Oj)
	addi.d	$a0, $a0, %pc_lo12(_ZNSt17_Function_handlerIFvPhS0_jEZ4mainE4$_12E9_M_invokeERKSt9_Any_dataOS0_S7_Oj)
	st.d	$a0, $sp, 1960
	pcalau12i	$a0, %pc_hi20(_ZNSt17_Function_handlerIFvPhS0_jEZ4mainE4$_12E10_M_managerERSt9_Any_dataRKS4_St18_Manager_operation)
	addi.d	$a0, $a0, %pc_lo12(_ZNSt17_Function_handlerIFvPhS0_jEZ4mainE4$_12E10_M_managerERSt9_Any_dataRKS4_St18_Manager_operation)
	st.d	$a0, $sp, 1952
	vst	$vr0, $sp, 1904
	pcalau12i	$a0, %pc_hi20(_ZNSt17_Function_handlerIFvPhS0_jEZ4mainE4$_13E9_M_invokeERKSt9_Any_dataOS0_S7_Oj)
	addi.d	$a0, $a0, %pc_lo12(_ZNSt17_Function_handlerIFvPhS0_jEZ4mainE4$_13E9_M_invokeERKSt9_Any_dataOS0_S7_Oj)
	st.d	$a0, $sp, 1928
	pcalau12i	$a0, %pc_hi20(_ZNSt17_Function_handlerIFvPhS0_jEZ4mainE4$_13E10_M_managerERSt9_Any_dataRKS4_St18_Manager_operation)
	addi.d	$a0, $a0, %pc_lo12(_ZNSt17_Function_handlerIFvPhS0_jEZ4mainE4$_13E10_M_managerERSt9_Any_dataRKS4_St18_Manager_operation)
	st.d	$a0, $sp, 1920
.Ltmp270:                               # EH_LABEL
	pcalau12i	$a0, %pc_hi20(.L.str.18)
	addi.d	$a2, $a0, %pc_lo12(.L.str.18)
	addi.d	$a0, $sp, 1936
	addi.d	$a1, $sp, 1904
	pcaddu18i	$ra, %call36(_ZL37checkOverlappingMemoryOneRuntimeCheckIhEvSt8functionIFvPT_S2_jEES4_PKc)
	jirl	$ra, $ra, 0
.Ltmp271:                               # EH_LABEL
# %bb.93:                               # %invoke.cont126
	ld.d	$a3, $sp, 1920
	beqz	$a3, .LBB0_95
# %bb.94:                               # %if.then.i315
.Ltmp279:                               # EH_LABEL
	addi.d	$a0, $sp, 1904
	addi.d	$a1, $sp, 1904
	ori	$a2, $zero, 3
	jirl	$ra, $a3, 0
.Ltmp280:                               # EH_LABEL
.LBB0_95:                               # %_ZNSt14_Function_baseD2Ev.exit318
	ld.d	$a3, $sp, 1952
	beqz	$a3, .LBB0_97
# %bb.96:                               # %if.then.i321
.Ltmp282:                               # EH_LABEL
	addi.d	$a0, $sp, 1936
	addi.d	$a1, $sp, 1936
	ori	$a2, $zero, 3
	jirl	$ra, $a3, 0
.Ltmp283:                               # EH_LABEL
.LBB0_97:                               # %_ZNSt14_Function_baseD2Ev.exit324
	vld	$vr0, $sp, 32                   # 16-byte Folded Reload
	vst	$vr0, $sp, 1872
	pcalau12i	$a0, %pc_hi20(_ZNSt17_Function_handlerIFvPjS0_jEZ4mainE4$_12E9_M_invokeERKSt9_Any_dataOS0_S7_Oj)
	addi.d	$a0, $a0, %pc_lo12(_ZNSt17_Function_handlerIFvPjS0_jEZ4mainE4$_12E9_M_invokeERKSt9_Any_dataOS0_S7_Oj)
	st.d	$a0, $sp, 1896
	pcalau12i	$a0, %pc_hi20(_ZNSt17_Function_handlerIFvPjS0_jEZ4mainE4$_12E10_M_managerERSt9_Any_dataRKS4_St18_Manager_operation)
	addi.d	$a0, $a0, %pc_lo12(_ZNSt17_Function_handlerIFvPjS0_jEZ4mainE4$_12E10_M_managerERSt9_Any_dataRKS4_St18_Manager_operation)
	st.d	$a0, $sp, 1888
	vst	$vr0, $sp, 1840
	pcalau12i	$a0, %pc_hi20(_ZNSt17_Function_handlerIFvPjS0_jEZ4mainE4$_13E9_M_invokeERKSt9_Any_dataOS0_S7_Oj)
	addi.d	$a0, $a0, %pc_lo12(_ZNSt17_Function_handlerIFvPjS0_jEZ4mainE4$_13E9_M_invokeERKSt9_Any_dataOS0_S7_Oj)
	st.d	$a0, $sp, 1864
	pcalau12i	$a0, %pc_hi20(_ZNSt17_Function_handlerIFvPjS0_jEZ4mainE4$_13E10_M_managerERSt9_Any_dataRKS4_St18_Manager_operation)
	addi.d	$a0, $a0, %pc_lo12(_ZNSt17_Function_handlerIFvPjS0_jEZ4mainE4$_13E10_M_managerERSt9_Any_dataRKS4_St18_Manager_operation)
	st.d	$a0, $sp, 1856
.Ltmp285:                               # EH_LABEL
	pcalau12i	$a0, %pc_hi20(.L.str.19)
	addi.d	$a2, $a0, %pc_lo12(.L.str.19)
	addi.d	$a0, $sp, 1872
	addi.d	$a1, $sp, 1840
	pcaddu18i	$ra, %call36(_ZL37checkOverlappingMemoryOneRuntimeCheckIjEvSt8functionIFvPT_S2_jEES4_PKc)
	jirl	$ra, $ra, 0
.Ltmp286:                               # EH_LABEL
# %bb.98:                               # %invoke.cont132
	ld.d	$a3, $sp, 1856
	beqz	$a3, .LBB0_100
# %bb.99:                               # %if.then.i331
.Ltmp294:                               # EH_LABEL
	addi.d	$a0, $sp, 1840
	addi.d	$a1, $sp, 1840
	ori	$a2, $zero, 3
	jirl	$ra, $a3, 0
.Ltmp295:                               # EH_LABEL
.LBB0_100:                              # %_ZNSt14_Function_baseD2Ev.exit334
	ld.d	$a3, $sp, 1888
	beqz	$a3, .LBB0_102
# %bb.101:                              # %if.then.i337
.Ltmp297:                               # EH_LABEL
	addi.d	$a0, $sp, 1872
	addi.d	$a1, $sp, 1872
	ori	$a2, $zero, 3
	jirl	$ra, $a3, 0
.Ltmp298:                               # EH_LABEL
.LBB0_102:                              # %_ZNSt14_Function_baseD2Ev.exit340
	vld	$vr0, $sp, 32                   # 16-byte Folded Reload
	vst	$vr0, $sp, 1808
	pcalau12i	$a0, %pc_hi20(_ZNSt17_Function_handlerIFvPmS0_jEZ4mainE4$_12E9_M_invokeERKSt9_Any_dataOS0_S7_Oj)
	addi.d	$a0, $a0, %pc_lo12(_ZNSt17_Function_handlerIFvPmS0_jEZ4mainE4$_12E9_M_invokeERKSt9_Any_dataOS0_S7_Oj)
	st.d	$a0, $sp, 1832
	pcalau12i	$a0, %pc_hi20(_ZNSt17_Function_handlerIFvPmS0_jEZ4mainE4$_12E10_M_managerERSt9_Any_dataRKS4_St18_Manager_operation)
	addi.d	$a0, $a0, %pc_lo12(_ZNSt17_Function_handlerIFvPmS0_jEZ4mainE4$_12E10_M_managerERSt9_Any_dataRKS4_St18_Manager_operation)
	st.d	$a0, $sp, 1824
	vst	$vr0, $sp, 1776
	pcalau12i	$a0, %pc_hi20(_ZNSt17_Function_handlerIFvPmS0_jEZ4mainE4$_13E9_M_invokeERKSt9_Any_dataOS0_S7_Oj)
	addi.d	$a0, $a0, %pc_lo12(_ZNSt17_Function_handlerIFvPmS0_jEZ4mainE4$_13E9_M_invokeERKSt9_Any_dataOS0_S7_Oj)
	st.d	$a0, $sp, 1800
	pcalau12i	$a0, %pc_hi20(_ZNSt17_Function_handlerIFvPmS0_jEZ4mainE4$_13E10_M_managerERSt9_Any_dataRKS4_St18_Manager_operation)
	addi.d	$a0, $a0, %pc_lo12(_ZNSt17_Function_handlerIFvPmS0_jEZ4mainE4$_13E10_M_managerERSt9_Any_dataRKS4_St18_Manager_operation)
	st.d	$a0, $sp, 1792
.Ltmp300:                               # EH_LABEL
	pcalau12i	$a0, %pc_hi20(.L.str.20)
	addi.d	$a2, $a0, %pc_lo12(.L.str.20)
	addi.d	$a0, $sp, 1808
	addi.d	$a1, $sp, 1776
	pcaddu18i	$ra, %call36(_ZL37checkOverlappingMemoryOneRuntimeCheckImEvSt8functionIFvPT_S2_jEES4_PKc)
	jirl	$ra, $ra, 0
.Ltmp301:                               # EH_LABEL
# %bb.103:                              # %invoke.cont138
	ld.d	$a3, $sp, 1792
	beqz	$a3, .LBB0_105
# %bb.104:                              # %if.then.i347
.Ltmp309:                               # EH_LABEL
	addi.d	$a0, $sp, 1776
	addi.d	$a1, $sp, 1776
	ori	$a2, $zero, 3
	jirl	$ra, $a3, 0
.Ltmp310:                               # EH_LABEL
.LBB0_105:                              # %_ZNSt14_Function_baseD2Ev.exit350
	ld.d	$a3, $sp, 1824
	beqz	$a3, .LBB0_107
# %bb.106:                              # %if.then.i353
.Ltmp312:                               # EH_LABEL
	addi.d	$a0, $sp, 1808
	addi.d	$a1, $sp, 1808
	ori	$a2, $zero, 3
	jirl	$ra, $a3, 0
.Ltmp313:                               # EH_LABEL
.LBB0_107:                              # %_ZNSt14_Function_baseD2Ev.exit356
	vld	$vr0, $sp, 32                   # 16-byte Folded Reload
	vst	$vr0, $sp, 1744
	pcalau12i	$a0, %pc_hi20(_ZNSt17_Function_handlerIFvPhS0_jEZ4mainE4$_14E9_M_invokeERKSt9_Any_dataOS0_S7_Oj)
	addi.d	$a0, $a0, %pc_lo12(_ZNSt17_Function_handlerIFvPhS0_jEZ4mainE4$_14E9_M_invokeERKSt9_Any_dataOS0_S7_Oj)
	st.d	$a0, $sp, 1768
	pcalau12i	$a0, %pc_hi20(_ZNSt17_Function_handlerIFvPhS0_jEZ4mainE4$_14E10_M_managerERSt9_Any_dataRKS4_St18_Manager_operation)
	addi.d	$a0, $a0, %pc_lo12(_ZNSt17_Function_handlerIFvPhS0_jEZ4mainE4$_14E10_M_managerERSt9_Any_dataRKS4_St18_Manager_operation)
	st.d	$a0, $sp, 1760
	vst	$vr0, $sp, 1712
	pcalau12i	$a0, %pc_hi20(_ZNSt17_Function_handlerIFvPhS0_jEZ4mainE4$_15E9_M_invokeERKSt9_Any_dataOS0_S7_Oj)
	addi.d	$a0, $a0, %pc_lo12(_ZNSt17_Function_handlerIFvPhS0_jEZ4mainE4$_15E9_M_invokeERKSt9_Any_dataOS0_S7_Oj)
	st.d	$a0, $sp, 1736
	pcalau12i	$a0, %pc_hi20(_ZNSt17_Function_handlerIFvPhS0_jEZ4mainE4$_15E10_M_managerERSt9_Any_dataRKS4_St18_Manager_operation)
	addi.d	$a0, $a0, %pc_lo12(_ZNSt17_Function_handlerIFvPhS0_jEZ4mainE4$_15E10_M_managerERSt9_Any_dataRKS4_St18_Manager_operation)
	st.d	$a0, $sp, 1728
.Ltmp315:                               # EH_LABEL
	pcalau12i	$a0, %pc_hi20(.L.str.21)
	addi.d	$a2, $a0, %pc_lo12(.L.str.21)
	addi.d	$a0, $sp, 1744
	addi.d	$a1, $sp, 1712
	pcaddu18i	$ra, %call36(_ZL37checkOverlappingMemoryOneRuntimeCheckIhEvSt8functionIFvPT_S2_jEES4_PKc)
	jirl	$ra, $ra, 0
.Ltmp316:                               # EH_LABEL
# %bb.108:                              # %invoke.cont148
	ld.d	$a3, $sp, 1728
	beqz	$a3, .LBB0_110
# %bb.109:                              # %if.then.i363
.Ltmp324:                               # EH_LABEL
	addi.d	$a0, $sp, 1712
	addi.d	$a1, $sp, 1712
	ori	$a2, $zero, 3
	jirl	$ra, $a3, 0
.Ltmp325:                               # EH_LABEL
.LBB0_110:                              # %_ZNSt14_Function_baseD2Ev.exit366
	ld.d	$a3, $sp, 1760
	beqz	$a3, .LBB0_112
# %bb.111:                              # %if.then.i369
.Ltmp327:                               # EH_LABEL
	addi.d	$a0, $sp, 1744
	addi.d	$a1, $sp, 1744
	ori	$a2, $zero, 3
	jirl	$ra, $a3, 0
.Ltmp328:                               # EH_LABEL
.LBB0_112:                              # %_ZNSt14_Function_baseD2Ev.exit372
	vld	$vr0, $sp, 32                   # 16-byte Folded Reload
	vst	$vr0, $sp, 1680
	pcalau12i	$a0, %pc_hi20(_ZNSt17_Function_handlerIFvPjS0_jEZ4mainE4$_14E9_M_invokeERKSt9_Any_dataOS0_S7_Oj)
	addi.d	$a0, $a0, %pc_lo12(_ZNSt17_Function_handlerIFvPjS0_jEZ4mainE4$_14E9_M_invokeERKSt9_Any_dataOS0_S7_Oj)
	st.d	$a0, $sp, 1704
	pcalau12i	$a0, %pc_hi20(_ZNSt17_Function_handlerIFvPjS0_jEZ4mainE4$_14E10_M_managerERSt9_Any_dataRKS4_St18_Manager_operation)
	addi.d	$a0, $a0, %pc_lo12(_ZNSt17_Function_handlerIFvPjS0_jEZ4mainE4$_14E10_M_managerERSt9_Any_dataRKS4_St18_Manager_operation)
	st.d	$a0, $sp, 1696
	vst	$vr0, $sp, 1648
	pcalau12i	$a0, %pc_hi20(_ZNSt17_Function_handlerIFvPjS0_jEZ4mainE4$_15E9_M_invokeERKSt9_Any_dataOS0_S7_Oj)
	addi.d	$a0, $a0, %pc_lo12(_ZNSt17_Function_handlerIFvPjS0_jEZ4mainE4$_15E9_M_invokeERKSt9_Any_dataOS0_S7_Oj)
	st.d	$a0, $sp, 1672
	pcalau12i	$a0, %pc_hi20(_ZNSt17_Function_handlerIFvPjS0_jEZ4mainE4$_15E10_M_managerERSt9_Any_dataRKS4_St18_Manager_operation)
	addi.d	$a0, $a0, %pc_lo12(_ZNSt17_Function_handlerIFvPjS0_jEZ4mainE4$_15E10_M_managerERSt9_Any_dataRKS4_St18_Manager_operation)
	st.d	$a0, $sp, 1664
.Ltmp330:                               # EH_LABEL
	pcalau12i	$a0, %pc_hi20(.L.str.22)
	addi.d	$a2, $a0, %pc_lo12(.L.str.22)
	addi.d	$a0, $sp, 1680
	addi.d	$a1, $sp, 1648
	pcaddu18i	$ra, %call36(_ZL37checkOverlappingMemoryOneRuntimeCheckIjEvSt8functionIFvPT_S2_jEES4_PKc)
	jirl	$ra, $ra, 0
.Ltmp331:                               # EH_LABEL
# %bb.113:                              # %invoke.cont154
	ld.d	$a3, $sp, 1664
	beqz	$a3, .LBB0_115
# %bb.114:                              # %if.then.i379
.Ltmp339:                               # EH_LABEL
	addi.d	$a0, $sp, 1648
	addi.d	$a1, $sp, 1648
	ori	$a2, $zero, 3
	jirl	$ra, $a3, 0
.Ltmp340:                               # EH_LABEL
.LBB0_115:                              # %_ZNSt14_Function_baseD2Ev.exit382
	ld.d	$a3, $sp, 1696
	beqz	$a3, .LBB0_117
# %bb.116:                              # %if.then.i385
.Ltmp342:                               # EH_LABEL
	addi.d	$a0, $sp, 1680
	addi.d	$a1, $sp, 1680
	ori	$a2, $zero, 3
	jirl	$ra, $a3, 0
.Ltmp343:                               # EH_LABEL
.LBB0_117:                              # %_ZNSt14_Function_baseD2Ev.exit388
	vld	$vr0, $sp, 32                   # 16-byte Folded Reload
	vst	$vr0, $sp, 1616
	pcalau12i	$a0, %pc_hi20(_ZNSt17_Function_handlerIFvPmS0_jEZ4mainE4$_14E9_M_invokeERKSt9_Any_dataOS0_S7_Oj)
	addi.d	$a0, $a0, %pc_lo12(_ZNSt17_Function_handlerIFvPmS0_jEZ4mainE4$_14E9_M_invokeERKSt9_Any_dataOS0_S7_Oj)
	st.d	$a0, $sp, 1640
	pcalau12i	$a0, %pc_hi20(_ZNSt17_Function_handlerIFvPmS0_jEZ4mainE4$_14E10_M_managerERSt9_Any_dataRKS4_St18_Manager_operation)
	addi.d	$a0, $a0, %pc_lo12(_ZNSt17_Function_handlerIFvPmS0_jEZ4mainE4$_14E10_M_managerERSt9_Any_dataRKS4_St18_Manager_operation)
	st.d	$a0, $sp, 1632
	vst	$vr0, $sp, 1584
	pcalau12i	$a0, %pc_hi20(_ZNSt17_Function_handlerIFvPmS0_jEZ4mainE4$_15E9_M_invokeERKSt9_Any_dataOS0_S7_Oj)
	addi.d	$a0, $a0, %pc_lo12(_ZNSt17_Function_handlerIFvPmS0_jEZ4mainE4$_15E9_M_invokeERKSt9_Any_dataOS0_S7_Oj)
	st.d	$a0, $sp, 1608
	pcalau12i	$a0, %pc_hi20(_ZNSt17_Function_handlerIFvPmS0_jEZ4mainE4$_15E10_M_managerERSt9_Any_dataRKS4_St18_Manager_operation)
	addi.d	$a0, $a0, %pc_lo12(_ZNSt17_Function_handlerIFvPmS0_jEZ4mainE4$_15E10_M_managerERSt9_Any_dataRKS4_St18_Manager_operation)
	st.d	$a0, $sp, 1600
.Ltmp345:                               # EH_LABEL
	pcalau12i	$a0, %pc_hi20(.L.str.23)
	addi.d	$a2, $a0, %pc_lo12(.L.str.23)
	addi.d	$a0, $sp, 1616
	addi.d	$a1, $sp, 1584
	pcaddu18i	$ra, %call36(_ZL37checkOverlappingMemoryOneRuntimeCheckImEvSt8functionIFvPT_S2_jEES4_PKc)
	jirl	$ra, $ra, 0
.Ltmp346:                               # EH_LABEL
# %bb.118:                              # %invoke.cont160
	ld.d	$a3, $sp, 1600
	beqz	$a3, .LBB0_120
# %bb.119:                              # %if.then.i395
.Ltmp354:                               # EH_LABEL
	addi.d	$a0, $sp, 1584
	addi.d	$a1, $sp, 1584
	ori	$a2, $zero, 3
	jirl	$ra, $a3, 0
.Ltmp355:                               # EH_LABEL
.LBB0_120:                              # %_ZNSt14_Function_baseD2Ev.exit398
	ld.d	$a3, $sp, 1632
	beqz	$a3, .LBB0_122
# %bb.121:                              # %if.then.i401
.Ltmp357:                               # EH_LABEL
	addi.d	$a0, $sp, 1616
	addi.d	$a1, $sp, 1616
	ori	$a2, $zero, 3
	jirl	$ra, $a3, 0
.Ltmp358:                               # EH_LABEL
.LBB0_122:                              # %_ZNSt14_Function_baseD2Ev.exit404
	vld	$vr0, $sp, 32                   # 16-byte Folded Reload
	vst	$vr0, $sp, 1552
	pcalau12i	$a0, %pc_hi20(_ZNSt17_Function_handlerIFvPjS0_S0_jEZ4mainE4$_16E9_M_invokeERKSt9_Any_dataOS0_S7_S7_Oj)
	addi.d	$a0, $a0, %pc_lo12(_ZNSt17_Function_handlerIFvPjS0_S0_jEZ4mainE4$_16E9_M_invokeERKSt9_Any_dataOS0_S7_S7_Oj)
	st.d	$a0, $sp, 1576
	pcalau12i	$a0, %pc_hi20(_ZNSt17_Function_handlerIFvPjS0_S0_jEZ4mainE4$_16E10_M_managerERSt9_Any_dataRKS4_St18_Manager_operation)
	addi.d	$a0, $a0, %pc_lo12(_ZNSt17_Function_handlerIFvPjS0_S0_jEZ4mainE4$_16E10_M_managerERSt9_Any_dataRKS4_St18_Manager_operation)
	st.d	$a0, $sp, 1568
	vst	$vr0, $sp, 1520
	pcalau12i	$a0, %pc_hi20(_ZNSt17_Function_handlerIFvPjS0_S0_jEZ4mainE4$_17E9_M_invokeERKSt9_Any_dataOS0_S7_S7_Oj)
	addi.d	$a0, $a0, %pc_lo12(_ZNSt17_Function_handlerIFvPjS0_S0_jEZ4mainE4$_17E9_M_invokeERKSt9_Any_dataOS0_S7_S7_Oj)
	st.d	$a0, $sp, 1544
	pcalau12i	$a0, %pc_hi20(_ZNSt17_Function_handlerIFvPjS0_S0_jEZ4mainE4$_17E10_M_managerERSt9_Any_dataRKS4_St18_Manager_operation)
	addi.d	$a0, $a0, %pc_lo12(_ZNSt17_Function_handlerIFvPjS0_S0_jEZ4mainE4$_17E10_M_managerERSt9_Any_dataRKS4_St18_Manager_operation)
	st.d	$a0, $sp, 1536
.Ltmp360:                               # EH_LABEL
	pcalau12i	$a0, %pc_hi20(.L.str.24)
	addi.d	$a2, $a0, %pc_lo12(.L.str.24)
	addi.d	$a0, $sp, 1552
	addi.d	$a1, $sp, 1520
	pcaddu18i	$ra, %call36(_ZL38checkOverlappingMemoryTwoRuntimeChecksIjEvSt8functionIFvPT_S2_S2_jEES4_PKc)
	jirl	$ra, $ra, 0
.Ltmp361:                               # EH_LABEL
# %bb.123:                              # %invoke.cont170
	ld.d	$a3, $sp, 1536
	beqz	$a3, .LBB0_125
# %bb.124:                              # %if.then.i411
.Ltmp369:                               # EH_LABEL
	addi.d	$a0, $sp, 1520
	addi.d	$a1, $sp, 1520
	ori	$a2, $zero, 3
	jirl	$ra, $a3, 0
.Ltmp370:                               # EH_LABEL
.LBB0_125:                              # %_ZNSt14_Function_baseD2Ev.exit414
	ld.d	$a3, $sp, 1568
	beqz	$a3, .LBB0_127
# %bb.126:                              # %if.then.i417
.Ltmp372:                               # EH_LABEL
	addi.d	$a0, $sp, 1552
	addi.d	$a1, $sp, 1552
	ori	$a2, $zero, 3
	jirl	$ra, $a3, 0
.Ltmp373:                               # EH_LABEL
.LBB0_127:                              # %_ZNSt14_Function_baseD2Ev.exit420
	vld	$vr0, $sp, 32                   # 16-byte Folded Reload
	vst	$vr0, $sp, 1488
	pcalau12i	$a0, %pc_hi20(_ZNSt17_Function_handlerIFvPhS0_S0_jEZ4mainE4$_16E9_M_invokeERKSt9_Any_dataOS0_S7_S7_Oj)
	addi.d	$a0, $a0, %pc_lo12(_ZNSt17_Function_handlerIFvPhS0_S0_jEZ4mainE4$_16E9_M_invokeERKSt9_Any_dataOS0_S7_S7_Oj)
	st.d	$a0, $sp, 1512
	pcalau12i	$a0, %pc_hi20(_ZNSt17_Function_handlerIFvPhS0_S0_jEZ4mainE4$_16E10_M_managerERSt9_Any_dataRKS4_St18_Manager_operation)
	addi.d	$a0, $a0, %pc_lo12(_ZNSt17_Function_handlerIFvPhS0_S0_jEZ4mainE4$_16E10_M_managerERSt9_Any_dataRKS4_St18_Manager_operation)
	st.d	$a0, $sp, 1504
	vst	$vr0, $sp, 1456
	pcalau12i	$a0, %pc_hi20(_ZNSt17_Function_handlerIFvPhS0_S0_jEZ4mainE4$_17E9_M_invokeERKSt9_Any_dataOS0_S7_S7_Oj)
	addi.d	$a0, $a0, %pc_lo12(_ZNSt17_Function_handlerIFvPhS0_S0_jEZ4mainE4$_17E9_M_invokeERKSt9_Any_dataOS0_S7_S7_Oj)
	st.d	$a0, $sp, 1480
	pcalau12i	$a0, %pc_hi20(_ZNSt17_Function_handlerIFvPhS0_S0_jEZ4mainE4$_17E10_M_managerERSt9_Any_dataRKS4_St18_Manager_operation)
	addi.d	$a0, $a0, %pc_lo12(_ZNSt17_Function_handlerIFvPhS0_S0_jEZ4mainE4$_17E10_M_managerERSt9_Any_dataRKS4_St18_Manager_operation)
	st.d	$a0, $sp, 1472
.Ltmp375:                               # EH_LABEL
	pcalau12i	$a0, %pc_hi20(.L.str.25)
	addi.d	$a2, $a0, %pc_lo12(.L.str.25)
	addi.d	$a0, $sp, 1488
	addi.d	$a1, $sp, 1456
	pcaddu18i	$ra, %call36(_ZL38checkOverlappingMemoryTwoRuntimeChecksIhEvSt8functionIFvPT_S2_S2_jEES4_PKc)
	jirl	$ra, $ra, 0
.Ltmp376:                               # EH_LABEL
# %bb.128:                              # %invoke.cont176
	ld.d	$a3, $sp, 1472
	beqz	$a3, .LBB0_130
# %bb.129:                              # %if.then.i427
.Ltmp384:                               # EH_LABEL
	addi.d	$a0, $sp, 1456
	addi.d	$a1, $sp, 1456
	ori	$a2, $zero, 3
	jirl	$ra, $a3, 0
.Ltmp385:                               # EH_LABEL
.LBB0_130:                              # %_ZNSt14_Function_baseD2Ev.exit430
	ld.d	$a3, $sp, 1504
	beqz	$a3, .LBB0_132
# %bb.131:                              # %if.then.i433
.Ltmp387:                               # EH_LABEL
	addi.d	$a0, $sp, 1488
	addi.d	$a1, $sp, 1488
	ori	$a2, $zero, 3
	jirl	$ra, $a3, 0
.Ltmp388:                               # EH_LABEL
.LBB0_132:                              # %_ZNSt14_Function_baseD2Ev.exit436
	vld	$vr0, $sp, 32                   # 16-byte Folded Reload
	vst	$vr0, $sp, 1424
	pcalau12i	$a0, %pc_hi20(_ZNSt17_Function_handlerIFvPmS0_S0_jEZ4mainE4$_16E9_M_invokeERKSt9_Any_dataOS0_S7_S7_Oj)
	addi.d	$a0, $a0, %pc_lo12(_ZNSt17_Function_handlerIFvPmS0_S0_jEZ4mainE4$_16E9_M_invokeERKSt9_Any_dataOS0_S7_S7_Oj)
	st.d	$a0, $sp, 1448
	pcalau12i	$a0, %pc_hi20(_ZNSt17_Function_handlerIFvPmS0_S0_jEZ4mainE4$_16E10_M_managerERSt9_Any_dataRKS4_St18_Manager_operation)
	addi.d	$a0, $a0, %pc_lo12(_ZNSt17_Function_handlerIFvPmS0_S0_jEZ4mainE4$_16E10_M_managerERSt9_Any_dataRKS4_St18_Manager_operation)
	st.d	$a0, $sp, 1440
	vst	$vr0, $sp, 1392
	pcalau12i	$a0, %pc_hi20(_ZNSt17_Function_handlerIFvPmS0_S0_jEZ4mainE4$_17E9_M_invokeERKSt9_Any_dataOS0_S7_S7_Oj)
	addi.d	$a0, $a0, %pc_lo12(_ZNSt17_Function_handlerIFvPmS0_S0_jEZ4mainE4$_17E9_M_invokeERKSt9_Any_dataOS0_S7_S7_Oj)
	st.d	$a0, $sp, 1416
	pcalau12i	$a0, %pc_hi20(_ZNSt17_Function_handlerIFvPmS0_S0_jEZ4mainE4$_17E10_M_managerERSt9_Any_dataRKS4_St18_Manager_operation)
	addi.d	$a0, $a0, %pc_lo12(_ZNSt17_Function_handlerIFvPmS0_S0_jEZ4mainE4$_17E10_M_managerERSt9_Any_dataRKS4_St18_Manager_operation)
	st.d	$a0, $sp, 1408
.Ltmp390:                               # EH_LABEL
	pcalau12i	$a0, %pc_hi20(.L.str.26)
	addi.d	$a2, $a0, %pc_lo12(.L.str.26)
	addi.d	$a0, $sp, 1424
	addi.d	$a1, $sp, 1392
	pcaddu18i	$ra, %call36(_ZL38checkOverlappingMemoryTwoRuntimeChecksImEvSt8functionIFvPT_S2_S2_jEES4_PKc)
	jirl	$ra, $ra, 0
.Ltmp391:                               # EH_LABEL
# %bb.133:                              # %invoke.cont182
	ld.d	$a3, $sp, 1408
	beqz	$a3, .LBB0_135
# %bb.134:                              # %if.then.i443
.Ltmp399:                               # EH_LABEL
	addi.d	$a0, $sp, 1392
	addi.d	$a1, $sp, 1392
	ori	$a2, $zero, 3
	jirl	$ra, $a3, 0
.Ltmp400:                               # EH_LABEL
.LBB0_135:                              # %_ZNSt14_Function_baseD2Ev.exit446
	ld.d	$a3, $sp, 1440
	beqz	$a3, .LBB0_137
# %bb.136:                              # %if.then.i449
.Ltmp402:                               # EH_LABEL
	addi.d	$a0, $sp, 1424
	addi.d	$a1, $sp, 1424
	ori	$a2, $zero, 3
	jirl	$ra, $a3, 0
.Ltmp403:                               # EH_LABEL
.LBB0_137:                              # %_ZNSt14_Function_baseD2Ev.exit452
	vld	$vr0, $sp, 32                   # 16-byte Folded Reload
	vst	$vr0, $sp, 1360
	pcalau12i	$a0, %pc_hi20(_ZNSt17_Function_handlerIFvPhS0_S0_jEZ4mainE4$_18E9_M_invokeERKSt9_Any_dataOS0_S7_S7_Oj)
	addi.d	$a0, $a0, %pc_lo12(_ZNSt17_Function_handlerIFvPhS0_S0_jEZ4mainE4$_18E9_M_invokeERKSt9_Any_dataOS0_S7_S7_Oj)
	st.d	$a0, $sp, 1384
	pcalau12i	$a0, %pc_hi20(_ZNSt17_Function_handlerIFvPhS0_S0_jEZ4mainE4$_18E10_M_managerERSt9_Any_dataRKS4_St18_Manager_operation)
	addi.d	$a0, $a0, %pc_lo12(_ZNSt17_Function_handlerIFvPhS0_S0_jEZ4mainE4$_18E10_M_managerERSt9_Any_dataRKS4_St18_Manager_operation)
	st.d	$a0, $sp, 1376
	vst	$vr0, $sp, 1328
	pcalau12i	$a0, %pc_hi20(_ZNSt17_Function_handlerIFvPhS0_S0_jEZ4mainE4$_19E9_M_invokeERKSt9_Any_dataOS0_S7_S7_Oj)
	addi.d	$a0, $a0, %pc_lo12(_ZNSt17_Function_handlerIFvPhS0_S0_jEZ4mainE4$_19E9_M_invokeERKSt9_Any_dataOS0_S7_S7_Oj)
	st.d	$a0, $sp, 1352
	pcalau12i	$a0, %pc_hi20(_ZNSt17_Function_handlerIFvPhS0_S0_jEZ4mainE4$_19E10_M_managerERSt9_Any_dataRKS4_St18_Manager_operation)
	addi.d	$a0, $a0, %pc_lo12(_ZNSt17_Function_handlerIFvPhS0_S0_jEZ4mainE4$_19E10_M_managerERSt9_Any_dataRKS4_St18_Manager_operation)
	st.d	$a0, $sp, 1344
.Ltmp405:                               # EH_LABEL
	pcalau12i	$a0, %pc_hi20(.L.str.27)
	addi.d	$a2, $a0, %pc_lo12(.L.str.27)
	addi.d	$a0, $sp, 1360
	addi.d	$a1, $sp, 1328
	pcaddu18i	$ra, %call36(_ZL38checkOverlappingMemoryTwoRuntimeChecksIhEvSt8functionIFvPT_S2_S2_jEES4_PKc)
	jirl	$ra, $ra, 0
.Ltmp406:                               # EH_LABEL
# %bb.138:                              # %invoke.cont192
	ld.d	$a3, $sp, 1344
	beqz	$a3, .LBB0_140
# %bb.139:                              # %if.then.i459
.Ltmp414:                               # EH_LABEL
	addi.d	$a0, $sp, 1328
	addi.d	$a1, $sp, 1328
	ori	$a2, $zero, 3
	jirl	$ra, $a3, 0
.Ltmp415:                               # EH_LABEL
.LBB0_140:                              # %_ZNSt14_Function_baseD2Ev.exit462
	ld.d	$a3, $sp, 1376
	beqz	$a3, .LBB0_142
# %bb.141:                              # %if.then.i465
.Ltmp417:                               # EH_LABEL
	addi.d	$a0, $sp, 1360
	addi.d	$a1, $sp, 1360
	ori	$a2, $zero, 3
	jirl	$ra, $a3, 0
.Ltmp418:                               # EH_LABEL
.LBB0_142:                              # %_ZNSt14_Function_baseD2Ev.exit468
	vld	$vr0, $sp, 32                   # 16-byte Folded Reload
	vst	$vr0, $sp, 1296
	pcalau12i	$a0, %pc_hi20(_ZNSt17_Function_handlerIFvPjS0_S0_jEZ4mainE4$_18E9_M_invokeERKSt9_Any_dataOS0_S7_S7_Oj)
	addi.d	$a0, $a0, %pc_lo12(_ZNSt17_Function_handlerIFvPjS0_S0_jEZ4mainE4$_18E9_M_invokeERKSt9_Any_dataOS0_S7_S7_Oj)
	st.d	$a0, $sp, 1320
	pcalau12i	$a0, %pc_hi20(_ZNSt17_Function_handlerIFvPjS0_S0_jEZ4mainE4$_18E10_M_managerERSt9_Any_dataRKS4_St18_Manager_operation)
	addi.d	$a0, $a0, %pc_lo12(_ZNSt17_Function_handlerIFvPjS0_S0_jEZ4mainE4$_18E10_M_managerERSt9_Any_dataRKS4_St18_Manager_operation)
	st.d	$a0, $sp, 1312
	vst	$vr0, $sp, 1264
	pcalau12i	$a0, %pc_hi20(_ZNSt17_Function_handlerIFvPjS0_S0_jEZ4mainE4$_19E9_M_invokeERKSt9_Any_dataOS0_S7_S7_Oj)
	addi.d	$a0, $a0, %pc_lo12(_ZNSt17_Function_handlerIFvPjS0_S0_jEZ4mainE4$_19E9_M_invokeERKSt9_Any_dataOS0_S7_S7_Oj)
	st.d	$a0, $sp, 1288
	pcalau12i	$a0, %pc_hi20(_ZNSt17_Function_handlerIFvPjS0_S0_jEZ4mainE4$_19E10_M_managerERSt9_Any_dataRKS4_St18_Manager_operation)
	addi.d	$a0, $a0, %pc_lo12(_ZNSt17_Function_handlerIFvPjS0_S0_jEZ4mainE4$_19E10_M_managerERSt9_Any_dataRKS4_St18_Manager_operation)
	st.d	$a0, $sp, 1280
.Ltmp420:                               # EH_LABEL
	pcalau12i	$a0, %pc_hi20(.L.str.28)
	addi.d	$a2, $a0, %pc_lo12(.L.str.28)
	addi.d	$a0, $sp, 1296
	addi.d	$a1, $sp, 1264
	pcaddu18i	$ra, %call36(_ZL38checkOverlappingMemoryTwoRuntimeChecksIjEvSt8functionIFvPT_S2_S2_jEES4_PKc)
	jirl	$ra, $ra, 0
.Ltmp421:                               # EH_LABEL
# %bb.143:                              # %invoke.cont198
	ld.d	$a3, $sp, 1280
	beqz	$a3, .LBB0_145
# %bb.144:                              # %if.then.i475
.Ltmp429:                               # EH_LABEL
	addi.d	$a0, $sp, 1264
	addi.d	$a1, $sp, 1264
	ori	$a2, $zero, 3
	jirl	$ra, $a3, 0
.Ltmp430:                               # EH_LABEL
.LBB0_145:                              # %_ZNSt14_Function_baseD2Ev.exit478
	ld.d	$a3, $sp, 1312
	beqz	$a3, .LBB0_147
# %bb.146:                              # %if.then.i481
.Ltmp432:                               # EH_LABEL
	addi.d	$a0, $sp, 1296
	addi.d	$a1, $sp, 1296
	ori	$a2, $zero, 3
	jirl	$ra, $a3, 0
.Ltmp433:                               # EH_LABEL
.LBB0_147:                              # %_ZNSt14_Function_baseD2Ev.exit484
	vld	$vr0, $sp, 32                   # 16-byte Folded Reload
	vst	$vr0, $sp, 1232
	pcalau12i	$a0, %pc_hi20(_ZNSt17_Function_handlerIFvPmS0_S0_jEZ4mainE4$_18E9_M_invokeERKSt9_Any_dataOS0_S7_S7_Oj)
	addi.d	$a0, $a0, %pc_lo12(_ZNSt17_Function_handlerIFvPmS0_S0_jEZ4mainE4$_18E9_M_invokeERKSt9_Any_dataOS0_S7_S7_Oj)
	st.d	$a0, $sp, 1256
	pcalau12i	$a0, %pc_hi20(_ZNSt17_Function_handlerIFvPmS0_S0_jEZ4mainE4$_18E10_M_managerERSt9_Any_dataRKS4_St18_Manager_operation)
	addi.d	$a0, $a0, %pc_lo12(_ZNSt17_Function_handlerIFvPmS0_S0_jEZ4mainE4$_18E10_M_managerERSt9_Any_dataRKS4_St18_Manager_operation)
	st.d	$a0, $sp, 1248
	vst	$vr0, $sp, 1200
	pcalau12i	$a0, %pc_hi20(_ZNSt17_Function_handlerIFvPmS0_S0_jEZ4mainE4$_19E9_M_invokeERKSt9_Any_dataOS0_S7_S7_Oj)
	addi.d	$a0, $a0, %pc_lo12(_ZNSt17_Function_handlerIFvPmS0_S0_jEZ4mainE4$_19E9_M_invokeERKSt9_Any_dataOS0_S7_S7_Oj)
	st.d	$a0, $sp, 1224
	pcalau12i	$a0, %pc_hi20(_ZNSt17_Function_handlerIFvPmS0_S0_jEZ4mainE4$_19E10_M_managerERSt9_Any_dataRKS4_St18_Manager_operation)
	addi.d	$a0, $a0, %pc_lo12(_ZNSt17_Function_handlerIFvPmS0_S0_jEZ4mainE4$_19E10_M_managerERSt9_Any_dataRKS4_St18_Manager_operation)
	st.d	$a0, $sp, 1216
.Ltmp435:                               # EH_LABEL
	pcalau12i	$a0, %pc_hi20(.L.str.29)
	addi.d	$a2, $a0, %pc_lo12(.L.str.29)
	addi.d	$a0, $sp, 1232
	addi.d	$a1, $sp, 1200
	pcaddu18i	$ra, %call36(_ZL38checkOverlappingMemoryTwoRuntimeChecksImEvSt8functionIFvPT_S2_S2_jEES4_PKc)
	jirl	$ra, $ra, 0
.Ltmp436:                               # EH_LABEL
# %bb.148:                              # %invoke.cont204
	ld.d	$a3, $sp, 1216
	beqz	$a3, .LBB0_150
# %bb.149:                              # %if.then.i491
.Ltmp444:                               # EH_LABEL
	addi.d	$a0, $sp, 1200
	addi.d	$a1, $sp, 1200
	ori	$a2, $zero, 3
	jirl	$ra, $a3, 0
.Ltmp445:                               # EH_LABEL
.LBB0_150:                              # %_ZNSt14_Function_baseD2Ev.exit494
	ld.d	$a3, $sp, 1248
	beqz	$a3, .LBB0_152
# %bb.151:                              # %if.then.i497
.Ltmp447:                               # EH_LABEL
	addi.d	$a0, $sp, 1232
	addi.d	$a1, $sp, 1232
	ori	$a2, $zero, 3
	jirl	$ra, $a3, 0
.Ltmp448:                               # EH_LABEL
.LBB0_152:                              # %_ZNSt14_Function_baseD2Ev.exit500
	vld	$vr0, $sp, 32                   # 16-byte Folded Reload
	vst	$vr0, $sp, 1168
	pcalau12i	$a0, %pc_hi20(_ZNSt17_Function_handlerIFvPhS0_jjEZ4mainE4$_20E9_M_invokeERKSt9_Any_dataOS0_S7_OjS8_)
	addi.d	$fp, $a0, %pc_lo12(_ZNSt17_Function_handlerIFvPhS0_jjEZ4mainE4$_20E9_M_invokeERKSt9_Any_dataOS0_S7_OjS8_)
	st.d	$fp, $sp, 1192
	pcalau12i	$a0, %pc_hi20(_ZNSt17_Function_handlerIFvPhS0_jjEZ4mainE4$_20E10_M_managerERSt9_Any_dataRKS4_St18_Manager_operation)
	addi.d	$s0, $a0, %pc_lo12(_ZNSt17_Function_handlerIFvPhS0_jjEZ4mainE4$_20E10_M_managerERSt9_Any_dataRKS4_St18_Manager_operation)
	st.d	$s0, $sp, 1184
	vst	$vr0, $sp, 1136
	pcalau12i	$a0, %pc_hi20(_ZNSt17_Function_handlerIFvPhS0_jjEZ4mainE4$_21E9_M_invokeERKSt9_Any_dataOS0_S7_OjS8_)
	addi.d	$s1, $a0, %pc_lo12(_ZNSt17_Function_handlerIFvPhS0_jjEZ4mainE4$_21E9_M_invokeERKSt9_Any_dataOS0_S7_OjS8_)
	st.d	$s1, $sp, 1160
	pcalau12i	$a0, %pc_hi20(_ZNSt17_Function_handlerIFvPhS0_jjEZ4mainE4$_21E10_M_managerERSt9_Any_dataRKS4_St18_Manager_operation)
	addi.d	$s2, $a0, %pc_lo12(_ZNSt17_Function_handlerIFvPhS0_jjEZ4mainE4$_21E10_M_managerERSt9_Any_dataRKS4_St18_Manager_operation)
	st.d	$s2, $sp, 1152
.Ltmp450:                               # EH_LABEL
	pcalau12i	$a0, %pc_hi20(.L.str.30)
	addi.d	$a3, $a0, %pc_lo12(.L.str.30)
	addi.d	$a0, $sp, 1168
	addi.d	$a1, $sp, 1136
	ori	$a2, $zero, 100
	pcaddu18i	$ra, %call36(_ZL44checkOverlappingMemoryTwoRuntimeChecksNestedIhEvSt8functionIFvPT_S2_jjEES4_iiPKc)
	jirl	$ra, $ra, 0
.Ltmp451:                               # EH_LABEL
# %bb.153:                              # %invoke.cont214
	ld.d	$a3, $sp, 1152
	beqz	$a3, .LBB0_155
# %bb.154:                              # %if.then.i507
.Ltmp459:                               # EH_LABEL
	addi.d	$a0, $sp, 1136
	addi.d	$a1, $sp, 1136
	ori	$a2, $zero, 3
	jirl	$ra, $a3, 0
.Ltmp460:                               # EH_LABEL
.LBB0_155:                              # %_ZNSt14_Function_baseD2Ev.exit510
	ld.d	$a3, $sp, 1184
	beqz	$a3, .LBB0_157
# %bb.156:                              # %if.then.i513
.Ltmp462:                               # EH_LABEL
	addi.d	$a0, $sp, 1168
	addi.d	$a1, $sp, 1168
	ori	$a2, $zero, 3
	jirl	$ra, $a3, 0
.Ltmp463:                               # EH_LABEL
.LBB0_157:                              # %_ZNSt14_Function_baseD2Ev.exit516
	vld	$vr0, $sp, 32                   # 16-byte Folded Reload
	vst	$vr0, $sp, 1104
	pcalau12i	$a0, %pc_hi20(_ZNSt17_Function_handlerIFvPjS0_jjEZ4mainE4$_20E9_M_invokeERKSt9_Any_dataOS0_S7_OjS8_)
	addi.d	$s3, $a0, %pc_lo12(_ZNSt17_Function_handlerIFvPjS0_jjEZ4mainE4$_20E9_M_invokeERKSt9_Any_dataOS0_S7_OjS8_)
	st.d	$s3, $sp, 1128
	pcalau12i	$a0, %pc_hi20(_ZNSt17_Function_handlerIFvPjS0_jjEZ4mainE4$_20E10_M_managerERSt9_Any_dataRKS4_St18_Manager_operation)
	addi.d	$s4, $a0, %pc_lo12(_ZNSt17_Function_handlerIFvPjS0_jjEZ4mainE4$_20E10_M_managerERSt9_Any_dataRKS4_St18_Manager_operation)
	st.d	$s4, $sp, 1120
	vst	$vr0, $sp, 1072
	pcalau12i	$a0, %pc_hi20(_ZNSt17_Function_handlerIFvPjS0_jjEZ4mainE4$_21E9_M_invokeERKSt9_Any_dataOS0_S7_OjS8_)
	addi.d	$s5, $a0, %pc_lo12(_ZNSt17_Function_handlerIFvPjS0_jjEZ4mainE4$_21E9_M_invokeERKSt9_Any_dataOS0_S7_OjS8_)
	st.d	$s5, $sp, 1096
	pcalau12i	$a0, %pc_hi20(_ZNSt17_Function_handlerIFvPjS0_jjEZ4mainE4$_21E10_M_managerERSt9_Any_dataRKS4_St18_Manager_operation)
	addi.d	$s6, $a0, %pc_lo12(_ZNSt17_Function_handlerIFvPjS0_jjEZ4mainE4$_21E10_M_managerERSt9_Any_dataRKS4_St18_Manager_operation)
	st.d	$s6, $sp, 1088
.Ltmp465:                               # EH_LABEL
	pcalau12i	$a0, %pc_hi20(.L.str.31)
	addi.d	$a3, $a0, %pc_lo12(.L.str.31)
	addi.d	$a0, $sp, 1104
	addi.d	$a1, $sp, 1072
	ori	$a2, $zero, 100
	pcaddu18i	$ra, %call36(_ZL44checkOverlappingMemoryTwoRuntimeChecksNestedIjEvSt8functionIFvPT_S2_jjEES4_iiPKc)
	jirl	$ra, $ra, 0
.Ltmp466:                               # EH_LABEL
# %bb.158:                              # %invoke.cont220
	ld.d	$a3, $sp, 1088
	beqz	$a3, .LBB0_160
# %bb.159:                              # %if.then.i523
.Ltmp474:                               # EH_LABEL
	addi.d	$a0, $sp, 1072
	addi.d	$a1, $sp, 1072
	ori	$a2, $zero, 3
	jirl	$ra, $a3, 0
.Ltmp475:                               # EH_LABEL
.LBB0_160:                              # %_ZNSt14_Function_baseD2Ev.exit526
	st.d	$s4, $sp, 16                    # 8-byte Folded Spill
	st.d	$s3, $sp, 24                    # 8-byte Folded Spill
	ld.d	$a3, $sp, 1120
	beqz	$a3, .LBB0_162
# %bb.161:                              # %if.then.i529
.Ltmp477:                               # EH_LABEL
	addi.d	$a0, $sp, 1104
	addi.d	$a1, $sp, 1104
	ori	$a2, $zero, 3
	jirl	$ra, $a3, 0
.Ltmp478:                               # EH_LABEL
.LBB0_162:                              # %_ZNSt14_Function_baseD2Ev.exit532
	vld	$vr0, $sp, 32                   # 16-byte Folded Reload
	vst	$vr0, $sp, 1040
	pcalau12i	$a0, %pc_hi20(_ZNSt17_Function_handlerIFvPmS0_jjEZ4mainE4$_20E9_M_invokeERKSt9_Any_dataOS0_S7_OjS8_)
	addi.d	$s7, $a0, %pc_lo12(_ZNSt17_Function_handlerIFvPmS0_jjEZ4mainE4$_20E9_M_invokeERKSt9_Any_dataOS0_S7_OjS8_)
	st.d	$s7, $sp, 1064
	pcalau12i	$a0, %pc_hi20(_ZNSt17_Function_handlerIFvPmS0_jjEZ4mainE4$_20E10_M_managerERSt9_Any_dataRKS4_St18_Manager_operation)
	addi.d	$s8, $a0, %pc_lo12(_ZNSt17_Function_handlerIFvPmS0_jjEZ4mainE4$_20E10_M_managerERSt9_Any_dataRKS4_St18_Manager_operation)
	st.d	$s8, $sp, 1056
	vst	$vr0, $sp, 1008
	pcalau12i	$a0, %pc_hi20(_ZNSt17_Function_handlerIFvPmS0_jjEZ4mainE4$_21E9_M_invokeERKSt9_Any_dataOS0_S7_OjS8_)
	addi.d	$s3, $a0, %pc_lo12(_ZNSt17_Function_handlerIFvPmS0_jjEZ4mainE4$_21E9_M_invokeERKSt9_Any_dataOS0_S7_OjS8_)
	st.d	$s3, $sp, 1032
	pcalau12i	$a0, %pc_hi20(_ZNSt17_Function_handlerIFvPmS0_jjEZ4mainE4$_21E10_M_managerERSt9_Any_dataRKS4_St18_Manager_operation)
	addi.d	$s4, $a0, %pc_lo12(_ZNSt17_Function_handlerIFvPmS0_jjEZ4mainE4$_21E10_M_managerERSt9_Any_dataRKS4_St18_Manager_operation)
	st.d	$s4, $sp, 1024
.Ltmp480:                               # EH_LABEL
	pcalau12i	$a0, %pc_hi20(.L.str.32)
	addi.d	$a3, $a0, %pc_lo12(.L.str.32)
	addi.d	$a0, $sp, 1040
	addi.d	$a1, $sp, 1008
	ori	$a2, $zero, 100
	pcaddu18i	$ra, %call36(_ZL44checkOverlappingMemoryTwoRuntimeChecksNestedImEvSt8functionIFvPT_S2_jjEES4_iiPKc)
	jirl	$ra, $ra, 0
.Ltmp481:                               # EH_LABEL
# %bb.163:                              # %invoke.cont226
	ld.d	$a3, $sp, 1024
	beqz	$a3, .LBB0_165
# %bb.164:                              # %if.then.i539
.Ltmp489:                               # EH_LABEL
	addi.d	$a0, $sp, 1008
	addi.d	$a1, $sp, 1008
	ori	$a2, $zero, 3
	jirl	$ra, $a3, 0
.Ltmp490:                               # EH_LABEL
.LBB0_165:                              # %_ZNSt14_Function_baseD2Ev.exit542
	ld.d	$a3, $sp, 1056
	beqz	$a3, .LBB0_167
# %bb.166:                              # %if.then.i545
.Ltmp492:                               # EH_LABEL
	addi.d	$a0, $sp, 1040
	addi.d	$a1, $sp, 1040
	ori	$a2, $zero, 3
	jirl	$ra, $a3, 0
.Ltmp493:                               # EH_LABEL
.LBB0_167:                              # %_ZNSt14_Function_baseD2Ev.exit548
	vld	$vr0, $sp, 32                   # 16-byte Folded Reload
	vst	$vr0, $sp, 976
	st.d	$fp, $sp, 1000
	st.d	$s0, $sp, 992
	vst	$vr0, $sp, 944
	st.d	$s1, $sp, 968
	st.d	$s2, $sp, 960
.Ltmp495:                               # EH_LABEL
	pcalau12i	$a0, %pc_hi20(.L.str.33)
	addi.d	$a3, $a0, %pc_lo12(.L.str.33)
	addi.d	$a0, $sp, 976
	addi.d	$a1, $sp, 944
	ori	$a2, $zero, 50
	pcaddu18i	$ra, %call36(_ZL44checkOverlappingMemoryTwoRuntimeChecksNestedIhEvSt8functionIFvPT_S2_jjEES4_iiPKc)
	jirl	$ra, $ra, 0
.Ltmp496:                               # EH_LABEL
# %bb.168:                              # %invoke.cont232
	ld.d	$a3, $sp, 960
	beqz	$a3, .LBB0_170
# %bb.169:                              # %if.then.i555
.Ltmp504:                               # EH_LABEL
	addi.d	$a0, $sp, 944
	addi.d	$a1, $sp, 944
	ori	$a2, $zero, 3
	jirl	$ra, $a3, 0
.Ltmp505:                               # EH_LABEL
.LBB0_170:                              # %_ZNSt14_Function_baseD2Ev.exit558
	ld.d	$a3, $sp, 992
	beqz	$a3, .LBB0_172
# %bb.171:                              # %if.then.i561
.Ltmp507:                               # EH_LABEL
	addi.d	$a0, $sp, 976
	addi.d	$a1, $sp, 976
	ori	$a2, $zero, 3
	jirl	$ra, $a3, 0
.Ltmp508:                               # EH_LABEL
.LBB0_172:                              # %_ZNSt14_Function_baseD2Ev.exit564
	vld	$vr0, $sp, 32                   # 16-byte Folded Reload
	vst	$vr0, $sp, 912
	ld.d	$a0, $sp, 24                    # 8-byte Folded Reload
	st.d	$a0, $sp, 936
	ld.d	$a0, $sp, 16                    # 8-byte Folded Reload
	st.d	$a0, $sp, 928
	vst	$vr0, $sp, 880
	st.d	$s5, $sp, 904
	st.d	$s6, $sp, 896
.Ltmp510:                               # EH_LABEL
	pcalau12i	$a0, %pc_hi20(.L.str.34)
	addi.d	$a3, $a0, %pc_lo12(.L.str.34)
	addi.d	$a0, $sp, 912
	addi.d	$a1, $sp, 880
	ori	$a2, $zero, 50
	pcaddu18i	$ra, %call36(_ZL44checkOverlappingMemoryTwoRuntimeChecksNestedIjEvSt8functionIFvPT_S2_jjEES4_iiPKc)
	jirl	$ra, $ra, 0
.Ltmp511:                               # EH_LABEL
# %bb.173:                              # %invoke.cont238
	ld.d	$a3, $sp, 896
	beqz	$a3, .LBB0_175
# %bb.174:                              # %if.then.i571
.Ltmp519:                               # EH_LABEL
	addi.d	$a0, $sp, 880
	addi.d	$a1, $sp, 880
	ori	$a2, $zero, 3
	jirl	$ra, $a3, 0
.Ltmp520:                               # EH_LABEL
.LBB0_175:                              # %_ZNSt14_Function_baseD2Ev.exit574
	ld.d	$a3, $sp, 928
	beqz	$a3, .LBB0_177
# %bb.176:                              # %if.then.i577
.Ltmp522:                               # EH_LABEL
	addi.d	$a0, $sp, 912
	addi.d	$a1, $sp, 912
	ori	$a2, $zero, 3
	jirl	$ra, $a3, 0
.Ltmp523:                               # EH_LABEL
.LBB0_177:                              # %_ZNSt14_Function_baseD2Ev.exit580
	vld	$vr0, $sp, 32                   # 16-byte Folded Reload
	vst	$vr0, $sp, 848
	st.d	$s7, $sp, 872
	st.d	$s8, $sp, 864
	vst	$vr0, $sp, 816
	st.d	$s3, $sp, 840
	st.d	$s4, $sp, 832
.Ltmp525:                               # EH_LABEL
	pcalau12i	$a0, %pc_hi20(.L.str.35)
	addi.d	$a3, $a0, %pc_lo12(.L.str.35)
	addi.d	$a0, $sp, 848
	addi.d	$a1, $sp, 816
	ori	$a2, $zero, 50
	pcaddu18i	$ra, %call36(_ZL44checkOverlappingMemoryTwoRuntimeChecksNestedImEvSt8functionIFvPT_S2_jjEES4_iiPKc)
	jirl	$ra, $ra, 0
.Ltmp526:                               # EH_LABEL
# %bb.178:                              # %invoke.cont244
	ld.d	$a3, $sp, 832
	beqz	$a3, .LBB0_180
# %bb.179:                              # %if.then.i587
.Ltmp534:                               # EH_LABEL
	addi.d	$a0, $sp, 816
	addi.d	$a1, $sp, 816
	ori	$a2, $zero, 3
	jirl	$ra, $a3, 0
.Ltmp535:                               # EH_LABEL
.LBB0_180:                              # %_ZNSt14_Function_baseD2Ev.exit590
	ld.d	$a3, $sp, 864
	beqz	$a3, .LBB0_182
# %bb.181:                              # %if.then.i593
.Ltmp537:                               # EH_LABEL
	addi.d	$a0, $sp, 848
	addi.d	$a1, $sp, 848
	ori	$a2, $zero, 3
	jirl	$ra, $a3, 0
.Ltmp538:                               # EH_LABEL
.LBB0_182:                              # %_ZNSt14_Function_baseD2Ev.exit596
	vld	$vr0, $sp, 32                   # 16-byte Folded Reload
	vst	$vr0, $sp, 784
	pcalau12i	$a0, %pc_hi20(_ZNSt17_Function_handlerIFvPhS0_jjEZ4mainE4$_22E9_M_invokeERKSt9_Any_dataOS0_S7_OjS8_)
	addi.d	$fp, $a0, %pc_lo12(_ZNSt17_Function_handlerIFvPhS0_jjEZ4mainE4$_22E9_M_invokeERKSt9_Any_dataOS0_S7_OjS8_)
	st.d	$fp, $sp, 808
	pcalau12i	$a0, %pc_hi20(_ZNSt17_Function_handlerIFvPhS0_jjEZ4mainE4$_22E10_M_managerERSt9_Any_dataRKS4_St18_Manager_operation)
	addi.d	$s0, $a0, %pc_lo12(_ZNSt17_Function_handlerIFvPhS0_jjEZ4mainE4$_22E10_M_managerERSt9_Any_dataRKS4_St18_Manager_operation)
	st.d	$s0, $sp, 800
	vst	$vr0, $sp, 752
	pcalau12i	$a0, %pc_hi20(_ZNSt17_Function_handlerIFvPhS0_jjEZ4mainE4$_23E9_M_invokeERKSt9_Any_dataOS0_S7_OjS8_)
	addi.d	$s1, $a0, %pc_lo12(_ZNSt17_Function_handlerIFvPhS0_jjEZ4mainE4$_23E9_M_invokeERKSt9_Any_dataOS0_S7_OjS8_)
	st.d	$s1, $sp, 776
	pcalau12i	$a0, %pc_hi20(_ZNSt17_Function_handlerIFvPhS0_jjEZ4mainE4$_23E10_M_managerERSt9_Any_dataRKS4_St18_Manager_operation)
	addi.d	$s2, $a0, %pc_lo12(_ZNSt17_Function_handlerIFvPhS0_jjEZ4mainE4$_23E10_M_managerERSt9_Any_dataRKS4_St18_Manager_operation)
	st.d	$s2, $sp, 768
.Ltmp540:                               # EH_LABEL
	pcalau12i	$a0, %pc_hi20(.L.str.36)
	addi.d	$a3, $a0, %pc_lo12(.L.str.36)
	addi.d	$a0, $sp, 784
	addi.d	$a1, $sp, 752
	ori	$a2, $zero, 100
	pcaddu18i	$ra, %call36(_ZL44checkOverlappingMemoryTwoRuntimeChecksNestedIhEvSt8functionIFvPT_S2_jjEES4_iiPKc)
	jirl	$ra, $ra, 0
.Ltmp541:                               # EH_LABEL
# %bb.183:                              # %invoke.cont254
	ld.d	$a3, $sp, 768
	beqz	$a3, .LBB0_185
# %bb.184:                              # %if.then.i603
.Ltmp549:                               # EH_LABEL
	addi.d	$a0, $sp, 752
	addi.d	$a1, $sp, 752
	ori	$a2, $zero, 3
	jirl	$ra, $a3, 0
.Ltmp550:                               # EH_LABEL
.LBB0_185:                              # %_ZNSt14_Function_baseD2Ev.exit606
	ld.d	$a3, $sp, 800
	beqz	$a3, .LBB0_187
# %bb.186:                              # %if.then.i609
.Ltmp552:                               # EH_LABEL
	addi.d	$a0, $sp, 784
	addi.d	$a1, $sp, 784
	ori	$a2, $zero, 3
	jirl	$ra, $a3, 0
.Ltmp553:                               # EH_LABEL
.LBB0_187:                              # %_ZNSt14_Function_baseD2Ev.exit612
	vld	$vr0, $sp, 32                   # 16-byte Folded Reload
	vst	$vr0, $sp, 720
	pcalau12i	$a0, %pc_hi20(_ZNSt17_Function_handlerIFvPjS0_jjEZ4mainE4$_22E9_M_invokeERKSt9_Any_dataOS0_S7_OjS8_)
	addi.d	$s3, $a0, %pc_lo12(_ZNSt17_Function_handlerIFvPjS0_jjEZ4mainE4$_22E9_M_invokeERKSt9_Any_dataOS0_S7_OjS8_)
	st.d	$s3, $sp, 744
	pcalau12i	$a0, %pc_hi20(_ZNSt17_Function_handlerIFvPjS0_jjEZ4mainE4$_22E10_M_managerERSt9_Any_dataRKS4_St18_Manager_operation)
	addi.d	$s4, $a0, %pc_lo12(_ZNSt17_Function_handlerIFvPjS0_jjEZ4mainE4$_22E10_M_managerERSt9_Any_dataRKS4_St18_Manager_operation)
	st.d	$s4, $sp, 736
	vst	$vr0, $sp, 688
	pcalau12i	$a0, %pc_hi20(_ZNSt17_Function_handlerIFvPjS0_jjEZ4mainE4$_23E9_M_invokeERKSt9_Any_dataOS0_S7_OjS8_)
	addi.d	$s5, $a0, %pc_lo12(_ZNSt17_Function_handlerIFvPjS0_jjEZ4mainE4$_23E9_M_invokeERKSt9_Any_dataOS0_S7_OjS8_)
	st.d	$s5, $sp, 712
	pcalau12i	$a0, %pc_hi20(_ZNSt17_Function_handlerIFvPjS0_jjEZ4mainE4$_23E10_M_managerERSt9_Any_dataRKS4_St18_Manager_operation)
	addi.d	$s6, $a0, %pc_lo12(_ZNSt17_Function_handlerIFvPjS0_jjEZ4mainE4$_23E10_M_managerERSt9_Any_dataRKS4_St18_Manager_operation)
	st.d	$s6, $sp, 704
.Ltmp555:                               # EH_LABEL
	pcalau12i	$a0, %pc_hi20(.L.str.37)
	addi.d	$a3, $a0, %pc_lo12(.L.str.37)
	addi.d	$a0, $sp, 720
	addi.d	$a1, $sp, 688
	ori	$a2, $zero, 100
	pcaddu18i	$ra, %call36(_ZL44checkOverlappingMemoryTwoRuntimeChecksNestedIjEvSt8functionIFvPT_S2_jjEES4_iiPKc)
	jirl	$ra, $ra, 0
.Ltmp556:                               # EH_LABEL
# %bb.188:                              # %invoke.cont260
	ld.d	$a3, $sp, 704
	beqz	$a3, .LBB0_190
# %bb.189:                              # %if.then.i619
.Ltmp564:                               # EH_LABEL
	addi.d	$a0, $sp, 688
	addi.d	$a1, $sp, 688
	ori	$a2, $zero, 3
	jirl	$ra, $a3, 0
.Ltmp565:                               # EH_LABEL
.LBB0_190:                              # %_ZNSt14_Function_baseD2Ev.exit622
	st.d	$s4, $sp, 16                    # 8-byte Folded Spill
	st.d	$s3, $sp, 24                    # 8-byte Folded Spill
	ld.d	$a3, $sp, 736
	beqz	$a3, .LBB0_192
# %bb.191:                              # %if.then.i625
.Ltmp567:                               # EH_LABEL
	addi.d	$a0, $sp, 720
	addi.d	$a1, $sp, 720
	ori	$a2, $zero, 3
	jirl	$ra, $a3, 0
.Ltmp568:                               # EH_LABEL
.LBB0_192:                              # %_ZNSt14_Function_baseD2Ev.exit628
	vld	$vr0, $sp, 32                   # 16-byte Folded Reload
	vst	$vr0, $sp, 656
	pcalau12i	$a0, %pc_hi20(_ZNSt17_Function_handlerIFvPmS0_jjEZ4mainE4$_22E9_M_invokeERKSt9_Any_dataOS0_S7_OjS8_)
	addi.d	$s7, $a0, %pc_lo12(_ZNSt17_Function_handlerIFvPmS0_jjEZ4mainE4$_22E9_M_invokeERKSt9_Any_dataOS0_S7_OjS8_)
	st.d	$s7, $sp, 680
	pcalau12i	$a0, %pc_hi20(_ZNSt17_Function_handlerIFvPmS0_jjEZ4mainE4$_22E10_M_managerERSt9_Any_dataRKS4_St18_Manager_operation)
	addi.d	$s8, $a0, %pc_lo12(_ZNSt17_Function_handlerIFvPmS0_jjEZ4mainE4$_22E10_M_managerERSt9_Any_dataRKS4_St18_Manager_operation)
	st.d	$s8, $sp, 672
	vst	$vr0, $sp, 624
	pcalau12i	$a0, %pc_hi20(_ZNSt17_Function_handlerIFvPmS0_jjEZ4mainE4$_23E9_M_invokeERKSt9_Any_dataOS0_S7_OjS8_)
	addi.d	$s3, $a0, %pc_lo12(_ZNSt17_Function_handlerIFvPmS0_jjEZ4mainE4$_23E9_M_invokeERKSt9_Any_dataOS0_S7_OjS8_)
	st.d	$s3, $sp, 648
	pcalau12i	$a0, %pc_hi20(_ZNSt17_Function_handlerIFvPmS0_jjEZ4mainE4$_23E10_M_managerERSt9_Any_dataRKS4_St18_Manager_operation)
	addi.d	$s4, $a0, %pc_lo12(_ZNSt17_Function_handlerIFvPmS0_jjEZ4mainE4$_23E10_M_managerERSt9_Any_dataRKS4_St18_Manager_operation)
	st.d	$s4, $sp, 640
.Ltmp570:                               # EH_LABEL
	pcalau12i	$a0, %pc_hi20(.L.str.38)
	addi.d	$a3, $a0, %pc_lo12(.L.str.38)
	addi.d	$a0, $sp, 656
	addi.d	$a1, $sp, 624
	ori	$a2, $zero, 100
	pcaddu18i	$ra, %call36(_ZL44checkOverlappingMemoryTwoRuntimeChecksNestedImEvSt8functionIFvPT_S2_jjEES4_iiPKc)
	jirl	$ra, $ra, 0
.Ltmp571:                               # EH_LABEL
# %bb.193:                              # %invoke.cont266
	ld.d	$a3, $sp, 640
	beqz	$a3, .LBB0_195
# %bb.194:                              # %if.then.i635
.Ltmp579:                               # EH_LABEL
	addi.d	$a0, $sp, 624
	addi.d	$a1, $sp, 624
	ori	$a2, $zero, 3
	jirl	$ra, $a3, 0
.Ltmp580:                               # EH_LABEL
.LBB0_195:                              # %_ZNSt14_Function_baseD2Ev.exit638
	ld.d	$a3, $sp, 672
	beqz	$a3, .LBB0_197
# %bb.196:                              # %if.then.i641
.Ltmp582:                               # EH_LABEL
	addi.d	$a0, $sp, 656
	addi.d	$a1, $sp, 656
	ori	$a2, $zero, 3
	jirl	$ra, $a3, 0
.Ltmp583:                               # EH_LABEL
.LBB0_197:                              # %_ZNSt14_Function_baseD2Ev.exit644
	vld	$vr0, $sp, 32                   # 16-byte Folded Reload
	vst	$vr0, $sp, 592
	st.d	$fp, $sp, 616
	st.d	$s0, $sp, 608
	vst	$vr0, $sp, 560
	st.d	$s1, $sp, 584
	st.d	$s2, $sp, 576
.Ltmp585:                               # EH_LABEL
	pcalau12i	$a0, %pc_hi20(.L.str.39)
	addi.d	$a3, $a0, %pc_lo12(.L.str.39)
	addi.d	$a0, $sp, 592
	addi.d	$a1, $sp, 560
	ori	$a2, $zero, 50
	pcaddu18i	$ra, %call36(_ZL44checkOverlappingMemoryTwoRuntimeChecksNestedIhEvSt8functionIFvPT_S2_jjEES4_iiPKc)
	jirl	$ra, $ra, 0
.Ltmp586:                               # EH_LABEL
# %bb.198:                              # %invoke.cont272
	ld.d	$a3, $sp, 576
	beqz	$a3, .LBB0_200
# %bb.199:                              # %if.then.i651
.Ltmp594:                               # EH_LABEL
	addi.d	$a0, $sp, 560
	addi.d	$a1, $sp, 560
	ori	$a2, $zero, 3
	jirl	$ra, $a3, 0
.Ltmp595:                               # EH_LABEL
.LBB0_200:                              # %_ZNSt14_Function_baseD2Ev.exit654
	ld.d	$a3, $sp, 608
	beqz	$a3, .LBB0_202
# %bb.201:                              # %if.then.i657
.Ltmp597:                               # EH_LABEL
	addi.d	$a0, $sp, 592
	addi.d	$a1, $sp, 592
	ori	$a2, $zero, 3
	jirl	$ra, $a3, 0
.Ltmp598:                               # EH_LABEL
.LBB0_202:                              # %_ZNSt14_Function_baseD2Ev.exit660
	vld	$vr0, $sp, 32                   # 16-byte Folded Reload
	vst	$vr0, $sp, 528
	ld.d	$a0, $sp, 24                    # 8-byte Folded Reload
	st.d	$a0, $sp, 552
	ld.d	$a0, $sp, 16                    # 8-byte Folded Reload
	st.d	$a0, $sp, 544
	vst	$vr0, $sp, 496
	st.d	$s5, $sp, 520
	st.d	$s6, $sp, 512
.Ltmp600:                               # EH_LABEL
	pcalau12i	$a0, %pc_hi20(.L.str.40)
	addi.d	$a3, $a0, %pc_lo12(.L.str.40)
	addi.d	$a0, $sp, 528
	addi.d	$a1, $sp, 496
	ori	$a2, $zero, 50
	pcaddu18i	$ra, %call36(_ZL44checkOverlappingMemoryTwoRuntimeChecksNestedIjEvSt8functionIFvPT_S2_jjEES4_iiPKc)
	jirl	$ra, $ra, 0
.Ltmp601:                               # EH_LABEL
# %bb.203:                              # %invoke.cont278
	ld.d	$a3, $sp, 512
	beqz	$a3, .LBB0_205
# %bb.204:                              # %if.then.i667
.Ltmp609:                               # EH_LABEL
	addi.d	$a0, $sp, 496
	addi.d	$a1, $sp, 496
	ori	$a2, $zero, 3
	jirl	$ra, $a3, 0
.Ltmp610:                               # EH_LABEL
.LBB0_205:                              # %_ZNSt14_Function_baseD2Ev.exit670
	ld.d	$a3, $sp, 544
	beqz	$a3, .LBB0_207
# %bb.206:                              # %if.then.i673
.Ltmp612:                               # EH_LABEL
	addi.d	$a0, $sp, 528
	addi.d	$a1, $sp, 528
	ori	$a2, $zero, 3
	jirl	$ra, $a3, 0
.Ltmp613:                               # EH_LABEL
.LBB0_207:                              # %_ZNSt14_Function_baseD2Ev.exit676
	vld	$vr0, $sp, 32                   # 16-byte Folded Reload
	vst	$vr0, $sp, 464
	st.d	$s7, $sp, 488
	st.d	$s8, $sp, 480
	vst	$vr0, $sp, 432
	st.d	$s3, $sp, 456
	st.d	$s4, $sp, 448
.Ltmp615:                               # EH_LABEL
	pcalau12i	$a0, %pc_hi20(.L.str.41)
	addi.d	$a3, $a0, %pc_lo12(.L.str.41)
	addi.d	$a0, $sp, 464
	addi.d	$a1, $sp, 432
	ori	$a2, $zero, 50
	pcaddu18i	$ra, %call36(_ZL44checkOverlappingMemoryTwoRuntimeChecksNestedImEvSt8functionIFvPT_S2_jjEES4_iiPKc)
	jirl	$ra, $ra, 0
.Ltmp616:                               # EH_LABEL
# %bb.208:                              # %invoke.cont284
	ld.d	$a3, $sp, 448
	beqz	$a3, .LBB0_210
# %bb.209:                              # %if.then.i683
.Ltmp624:                               # EH_LABEL
	addi.d	$a0, $sp, 432
	addi.d	$a1, $sp, 432
	ori	$a2, $zero, 3
	jirl	$ra, $a3, 0
.Ltmp625:                               # EH_LABEL
.LBB0_210:                              # %_ZNSt14_Function_baseD2Ev.exit686
	ld.d	$a3, $sp, 480
	beqz	$a3, .LBB0_212
# %bb.211:                              # %if.then.i689
.Ltmp627:                               # EH_LABEL
	addi.d	$a0, $sp, 464
	addi.d	$a1, $sp, 464
	ori	$a2, $zero, 3
	jirl	$ra, $a3, 0
.Ltmp628:                               # EH_LABEL
.LBB0_212:                              # %_ZNSt14_Function_baseD2Ev.exit692
	vld	$vr0, $sp, 32                   # 16-byte Folded Reload
	vst	$vr0, $sp, 400
	pcalau12i	$a0, %pc_hi20(_ZNSt17_Function_handlerIFvPhS0_jjEZ4mainE4$_24E9_M_invokeERKSt9_Any_dataOS0_S7_OjS8_)
	addi.d	$a0, $a0, %pc_lo12(_ZNSt17_Function_handlerIFvPhS0_jjEZ4mainE4$_24E9_M_invokeERKSt9_Any_dataOS0_S7_OjS8_)
	st.d	$a0, $sp, 424
	pcalau12i	$a0, %pc_hi20(_ZNSt17_Function_handlerIFvPhS0_jjEZ4mainE4$_24E10_M_managerERSt9_Any_dataRKS4_St18_Manager_operation)
	addi.d	$a0, $a0, %pc_lo12(_ZNSt17_Function_handlerIFvPhS0_jjEZ4mainE4$_24E10_M_managerERSt9_Any_dataRKS4_St18_Manager_operation)
	st.d	$a0, $sp, 416
	vst	$vr0, $sp, 368
	pcalau12i	$a0, %pc_hi20(_ZNSt17_Function_handlerIFvPhS0_jjEZ4mainE4$_25E9_M_invokeERKSt9_Any_dataOS0_S7_OjS8_)
	addi.d	$a0, $a0, %pc_lo12(_ZNSt17_Function_handlerIFvPhS0_jjEZ4mainE4$_25E9_M_invokeERKSt9_Any_dataOS0_S7_OjS8_)
	st.d	$a0, $sp, 392
	pcalau12i	$a0, %pc_hi20(_ZNSt17_Function_handlerIFvPhS0_jjEZ4mainE4$_25E10_M_managerERSt9_Any_dataRKS4_St18_Manager_operation)
	addi.d	$a0, $a0, %pc_lo12(_ZNSt17_Function_handlerIFvPhS0_jjEZ4mainE4$_25E10_M_managerERSt9_Any_dataRKS4_St18_Manager_operation)
	st.d	$a0, $sp, 384
.Ltmp630:                               # EH_LABEL
	pcalau12i	$a0, %pc_hi20(.L.str.42)
	addi.d	$a3, $a0, %pc_lo12(.L.str.42)
	addi.d	$a0, $sp, 400
	addi.d	$a1, $sp, 368
	ori	$a2, $zero, 100
	pcaddu18i	$ra, %call36(_ZL44checkOverlappingMemoryTwoRuntimeChecksNestedIhEvSt8functionIFvPT_S2_jjEES4_iiPKc)
	jirl	$ra, $ra, 0
.Ltmp631:                               # EH_LABEL
# %bb.213:                              # %invoke.cont294
	ld.d	$a3, $sp, 384
	beqz	$a3, .LBB0_215
# %bb.214:                              # %if.then.i699
.Ltmp639:                               # EH_LABEL
	addi.d	$a0, $sp, 368
	addi.d	$a1, $sp, 368
	ori	$a2, $zero, 3
	jirl	$ra, $a3, 0
.Ltmp640:                               # EH_LABEL
.LBB0_215:                              # %_ZNSt14_Function_baseD2Ev.exit702
	ld.d	$a3, $sp, 416
	beqz	$a3, .LBB0_217
# %bb.216:                              # %if.then.i705
.Ltmp642:                               # EH_LABEL
	addi.d	$a0, $sp, 400
	addi.d	$a1, $sp, 400
	ori	$a2, $zero, 3
	jirl	$ra, $a3, 0
.Ltmp643:                               # EH_LABEL
.LBB0_217:                              # %_ZNSt14_Function_baseD2Ev.exit708
	vld	$vr0, $sp, 32                   # 16-byte Folded Reload
	vst	$vr0, $sp, 336
	pcalau12i	$a0, %pc_hi20(_ZNSt17_Function_handlerIFvPjS0_jjEZ4mainE4$_24E9_M_invokeERKSt9_Any_dataOS0_S7_OjS8_)
	addi.d	$a0, $a0, %pc_lo12(_ZNSt17_Function_handlerIFvPjS0_jjEZ4mainE4$_24E9_M_invokeERKSt9_Any_dataOS0_S7_OjS8_)
	st.d	$a0, $sp, 360
	pcalau12i	$a0, %pc_hi20(_ZNSt17_Function_handlerIFvPjS0_jjEZ4mainE4$_24E10_M_managerERSt9_Any_dataRKS4_St18_Manager_operation)
	addi.d	$a0, $a0, %pc_lo12(_ZNSt17_Function_handlerIFvPjS0_jjEZ4mainE4$_24E10_M_managerERSt9_Any_dataRKS4_St18_Manager_operation)
	st.d	$a0, $sp, 352
	vst	$vr0, $sp, 304
	pcalau12i	$a0, %pc_hi20(_ZNSt17_Function_handlerIFvPjS0_jjEZ4mainE4$_25E9_M_invokeERKSt9_Any_dataOS0_S7_OjS8_)
	addi.d	$a0, $a0, %pc_lo12(_ZNSt17_Function_handlerIFvPjS0_jjEZ4mainE4$_25E9_M_invokeERKSt9_Any_dataOS0_S7_OjS8_)
	st.d	$a0, $sp, 328
	pcalau12i	$a0, %pc_hi20(_ZNSt17_Function_handlerIFvPjS0_jjEZ4mainE4$_25E10_M_managerERSt9_Any_dataRKS4_St18_Manager_operation)
	addi.d	$a0, $a0, %pc_lo12(_ZNSt17_Function_handlerIFvPjS0_jjEZ4mainE4$_25E10_M_managerERSt9_Any_dataRKS4_St18_Manager_operation)
	st.d	$a0, $sp, 320
.Ltmp645:                               # EH_LABEL
	pcalau12i	$a0, %pc_hi20(.L.str.43)
	addi.d	$a3, $a0, %pc_lo12(.L.str.43)
	addi.d	$a0, $sp, 336
	addi.d	$a1, $sp, 304
	ori	$a2, $zero, 100
	pcaddu18i	$ra, %call36(_ZL44checkOverlappingMemoryTwoRuntimeChecksNestedIjEvSt8functionIFvPT_S2_jjEES4_iiPKc)
	jirl	$ra, $ra, 0
.Ltmp646:                               # EH_LABEL
# %bb.218:                              # %invoke.cont300
	ld.d	$a3, $sp, 320
	beqz	$a3, .LBB0_220
# %bb.219:                              # %if.then.i715
.Ltmp654:                               # EH_LABEL
	addi.d	$a0, $sp, 304
	addi.d	$a1, $sp, 304
	ori	$a2, $zero, 3
	jirl	$ra, $a3, 0
.Ltmp655:                               # EH_LABEL
.LBB0_220:                              # %_ZNSt14_Function_baseD2Ev.exit718
	ld.d	$a3, $sp, 352
	beqz	$a3, .LBB0_222
# %bb.221:                              # %if.then.i721
.Ltmp657:                               # EH_LABEL
	addi.d	$a0, $sp, 336
	addi.d	$a1, $sp, 336
	ori	$a2, $zero, 3
	jirl	$ra, $a3, 0
.Ltmp658:                               # EH_LABEL
.LBB0_222:                              # %_ZNSt14_Function_baseD2Ev.exit724
	vld	$vr0, $sp, 32                   # 16-byte Folded Reload
	vst	$vr0, $sp, 272
	pcalau12i	$a0, %pc_hi20(_ZNSt17_Function_handlerIFvPmS0_jjEZ4mainE4$_24E9_M_invokeERKSt9_Any_dataOS0_S7_OjS8_)
	addi.d	$a0, $a0, %pc_lo12(_ZNSt17_Function_handlerIFvPmS0_jjEZ4mainE4$_24E9_M_invokeERKSt9_Any_dataOS0_S7_OjS8_)
	st.d	$a0, $sp, 296
	pcalau12i	$a0, %pc_hi20(_ZNSt17_Function_handlerIFvPmS0_jjEZ4mainE4$_24E10_M_managerERSt9_Any_dataRKS4_St18_Manager_operation)
	addi.d	$a0, $a0, %pc_lo12(_ZNSt17_Function_handlerIFvPmS0_jjEZ4mainE4$_24E10_M_managerERSt9_Any_dataRKS4_St18_Manager_operation)
	st.d	$a0, $sp, 288
	vst	$vr0, $sp, 240
	pcalau12i	$a0, %pc_hi20(_ZNSt17_Function_handlerIFvPmS0_jjEZ4mainE4$_25E9_M_invokeERKSt9_Any_dataOS0_S7_OjS8_)
	addi.d	$a0, $a0, %pc_lo12(_ZNSt17_Function_handlerIFvPmS0_jjEZ4mainE4$_25E9_M_invokeERKSt9_Any_dataOS0_S7_OjS8_)
	st.d	$a0, $sp, 264
	pcalau12i	$a0, %pc_hi20(_ZNSt17_Function_handlerIFvPmS0_jjEZ4mainE4$_25E10_M_managerERSt9_Any_dataRKS4_St18_Manager_operation)
	addi.d	$a0, $a0, %pc_lo12(_ZNSt17_Function_handlerIFvPmS0_jjEZ4mainE4$_25E10_M_managerERSt9_Any_dataRKS4_St18_Manager_operation)
	st.d	$a0, $sp, 256
.Ltmp660:                               # EH_LABEL
	pcalau12i	$a0, %pc_hi20(.L.str.44)
	addi.d	$a3, $a0, %pc_lo12(.L.str.44)
	addi.d	$a0, $sp, 272
	addi.d	$a1, $sp, 240
	ori	$a2, $zero, 100
	pcaddu18i	$ra, %call36(_ZL44checkOverlappingMemoryTwoRuntimeChecksNestedImEvSt8functionIFvPT_S2_jjEES4_iiPKc)
	jirl	$ra, $ra, 0
.Ltmp661:                               # EH_LABEL
# %bb.223:                              # %invoke.cont306
	ld.d	$a3, $sp, 256
	beqz	$a3, .LBB0_225
# %bb.224:                              # %if.then.i731
.Ltmp669:                               # EH_LABEL
	addi.d	$a0, $sp, 240
	addi.d	$a1, $sp, 240
	ori	$a2, $zero, 3
	jirl	$ra, $a3, 0
.Ltmp670:                               # EH_LABEL
.LBB0_225:                              # %_ZNSt14_Function_baseD2Ev.exit734
	ld.d	$a3, $sp, 288
	beqz	$a3, .LBB0_227
# %bb.226:                              # %if.then.i737
.Ltmp672:                               # EH_LABEL
	addi.d	$a0, $sp, 272
	addi.d	$a1, $sp, 272
	ori	$a2, $zero, 3
	jirl	$ra, $a3, 0
.Ltmp673:                               # EH_LABEL
.LBB0_227:                              # %_ZNSt14_Function_baseD2Ev.exit740
	vld	$vr0, $sp, 32                   # 16-byte Folded Reload
	vst	$vr0, $sp, 208
	pcalau12i	$a0, %pc_hi20(_ZNSt17_Function_handlerIFvPhS0_jjEZ4mainE4$_26E9_M_invokeERKSt9_Any_dataOS0_S7_OjS8_)
	addi.d	$a0, $a0, %pc_lo12(_ZNSt17_Function_handlerIFvPhS0_jjEZ4mainE4$_26E9_M_invokeERKSt9_Any_dataOS0_S7_OjS8_)
	st.d	$a0, $sp, 232
	pcalau12i	$a0, %pc_hi20(_ZNSt17_Function_handlerIFvPhS0_jjEZ4mainE4$_26E10_M_managerERSt9_Any_dataRKS4_St18_Manager_operation)
	addi.d	$a0, $a0, %pc_lo12(_ZNSt17_Function_handlerIFvPhS0_jjEZ4mainE4$_26E10_M_managerERSt9_Any_dataRKS4_St18_Manager_operation)
	st.d	$a0, $sp, 224
	vst	$vr0, $sp, 176
	pcalau12i	$a0, %pc_hi20(_ZNSt17_Function_handlerIFvPhS0_jjEZ4mainE4$_27E9_M_invokeERKSt9_Any_dataOS0_S7_OjS8_)
	addi.d	$a0, $a0, %pc_lo12(_ZNSt17_Function_handlerIFvPhS0_jjEZ4mainE4$_27E9_M_invokeERKSt9_Any_dataOS0_S7_OjS8_)
	st.d	$a0, $sp, 200
	pcalau12i	$a0, %pc_hi20(_ZNSt17_Function_handlerIFvPhS0_jjEZ4mainE4$_27E10_M_managerERSt9_Any_dataRKS4_St18_Manager_operation)
	addi.d	$a0, $a0, %pc_lo12(_ZNSt17_Function_handlerIFvPhS0_jjEZ4mainE4$_27E10_M_managerERSt9_Any_dataRKS4_St18_Manager_operation)
	st.d	$a0, $sp, 192
.Ltmp675:                               # EH_LABEL
	pcalau12i	$a0, %pc_hi20(.L.str.45)
	addi.d	$a3, $a0, %pc_lo12(.L.str.45)
	addi.d	$a0, $sp, 208
	addi.d	$a1, $sp, 176
	ori	$a2, $zero, 100
	pcaddu18i	$ra, %call36(_ZL44checkOverlappingMemoryTwoRuntimeChecksNestedIhEvSt8functionIFvPT_S2_jjEES4_iiPKc)
	jirl	$ra, $ra, 0
.Ltmp676:                               # EH_LABEL
# %bb.228:                              # %invoke.cont316
	ld.d	$a3, $sp, 192
	beqz	$a3, .LBB0_230
# %bb.229:                              # %if.then.i747
.Ltmp684:                               # EH_LABEL
	addi.d	$a0, $sp, 176
	addi.d	$a1, $sp, 176
	ori	$a2, $zero, 3
	jirl	$ra, $a3, 0
.Ltmp685:                               # EH_LABEL
.LBB0_230:                              # %_ZNSt14_Function_baseD2Ev.exit750
	ld.d	$a3, $sp, 224
	beqz	$a3, .LBB0_232
# %bb.231:                              # %if.then.i753
.Ltmp687:                               # EH_LABEL
	addi.d	$a0, $sp, 208
	addi.d	$a1, $sp, 208
	ori	$a2, $zero, 3
	jirl	$ra, $a3, 0
.Ltmp688:                               # EH_LABEL
.LBB0_232:                              # %_ZNSt14_Function_baseD2Ev.exit756
	vld	$vr0, $sp, 32                   # 16-byte Folded Reload
	vst	$vr0, $sp, 144
	pcalau12i	$a0, %pc_hi20(_ZNSt17_Function_handlerIFvPjS0_jjEZ4mainE4$_26E9_M_invokeERKSt9_Any_dataOS0_S7_OjS8_)
	addi.d	$a0, $a0, %pc_lo12(_ZNSt17_Function_handlerIFvPjS0_jjEZ4mainE4$_26E9_M_invokeERKSt9_Any_dataOS0_S7_OjS8_)
	st.d	$a0, $sp, 168
	pcalau12i	$a0, %pc_hi20(_ZNSt17_Function_handlerIFvPjS0_jjEZ4mainE4$_26E10_M_managerERSt9_Any_dataRKS4_St18_Manager_operation)
	addi.d	$a0, $a0, %pc_lo12(_ZNSt17_Function_handlerIFvPjS0_jjEZ4mainE4$_26E10_M_managerERSt9_Any_dataRKS4_St18_Manager_operation)
	st.d	$a0, $sp, 160
	vst	$vr0, $sp, 112
	pcalau12i	$a0, %pc_hi20(_ZNSt17_Function_handlerIFvPjS0_jjEZ4mainE4$_27E9_M_invokeERKSt9_Any_dataOS0_S7_OjS8_)
	addi.d	$a0, $a0, %pc_lo12(_ZNSt17_Function_handlerIFvPjS0_jjEZ4mainE4$_27E9_M_invokeERKSt9_Any_dataOS0_S7_OjS8_)
	st.d	$a0, $sp, 136
	pcalau12i	$a0, %pc_hi20(_ZNSt17_Function_handlerIFvPjS0_jjEZ4mainE4$_27E10_M_managerERSt9_Any_dataRKS4_St18_Manager_operation)
	addi.d	$a0, $a0, %pc_lo12(_ZNSt17_Function_handlerIFvPjS0_jjEZ4mainE4$_27E10_M_managerERSt9_Any_dataRKS4_St18_Manager_operation)
	st.d	$a0, $sp, 128
.Ltmp690:                               # EH_LABEL
	pcalau12i	$a0, %pc_hi20(.L.str.46)
	addi.d	$a3, $a0, %pc_lo12(.L.str.46)
	addi.d	$a0, $sp, 144
	addi.d	$a1, $sp, 112
	ori	$a2, $zero, 100
	pcaddu18i	$ra, %call36(_ZL44checkOverlappingMemoryTwoRuntimeChecksNestedIjEvSt8functionIFvPT_S2_jjEES4_iiPKc)
	jirl	$ra, $ra, 0
.Ltmp691:                               # EH_LABEL
# %bb.233:                              # %invoke.cont322
	ld.d	$a3, $sp, 128
	beqz	$a3, .LBB0_235
# %bb.234:                              # %if.then.i763
.Ltmp699:                               # EH_LABEL
	addi.d	$a0, $sp, 112
	addi.d	$a1, $sp, 112
	ori	$a2, $zero, 3
	jirl	$ra, $a3, 0
.Ltmp700:                               # EH_LABEL
.LBB0_235:                              # %_ZNSt14_Function_baseD2Ev.exit766
	ld.d	$a3, $sp, 160
	beqz	$a3, .LBB0_237
# %bb.236:                              # %if.then.i769
.Ltmp702:                               # EH_LABEL
	addi.d	$a0, $sp, 144
	addi.d	$a1, $sp, 144
	ori	$a2, $zero, 3
	jirl	$ra, $a3, 0
.Ltmp703:                               # EH_LABEL
.LBB0_237:                              # %_ZNSt14_Function_baseD2Ev.exit772
	vld	$vr0, $sp, 32                   # 16-byte Folded Reload
	vst	$vr0, $sp, 80
	pcalau12i	$a0, %pc_hi20(_ZNSt17_Function_handlerIFvPmS0_jjEZ4mainE4$_26E9_M_invokeERKSt9_Any_dataOS0_S7_OjS8_)
	addi.d	$a0, $a0, %pc_lo12(_ZNSt17_Function_handlerIFvPmS0_jjEZ4mainE4$_26E9_M_invokeERKSt9_Any_dataOS0_S7_OjS8_)
	st.d	$a0, $sp, 104
	pcalau12i	$a0, %pc_hi20(_ZNSt17_Function_handlerIFvPmS0_jjEZ4mainE4$_26E10_M_managerERSt9_Any_dataRKS4_St18_Manager_operation)
	addi.d	$a0, $a0, %pc_lo12(_ZNSt17_Function_handlerIFvPmS0_jjEZ4mainE4$_26E10_M_managerERSt9_Any_dataRKS4_St18_Manager_operation)
	st.d	$a0, $sp, 96
	vst	$vr0, $sp, 48
	pcalau12i	$a0, %pc_hi20(_ZNSt17_Function_handlerIFvPmS0_jjEZ4mainE4$_27E9_M_invokeERKSt9_Any_dataOS0_S7_OjS8_)
	addi.d	$a0, $a0, %pc_lo12(_ZNSt17_Function_handlerIFvPmS0_jjEZ4mainE4$_27E9_M_invokeERKSt9_Any_dataOS0_S7_OjS8_)
	st.d	$a0, $sp, 72
	pcalau12i	$a0, %pc_hi20(_ZNSt17_Function_handlerIFvPmS0_jjEZ4mainE4$_27E10_M_managerERSt9_Any_dataRKS4_St18_Manager_operation)
	addi.d	$a0, $a0, %pc_lo12(_ZNSt17_Function_handlerIFvPmS0_jjEZ4mainE4$_27E10_M_managerERSt9_Any_dataRKS4_St18_Manager_operation)
	st.d	$a0, $sp, 64
.Ltmp705:                               # EH_LABEL
	pcalau12i	$a0, %pc_hi20(.L.str.47)
	addi.d	$a3, $a0, %pc_lo12(.L.str.47)
	addi.d	$a0, $sp, 80
	addi.d	$a1, $sp, 48
	ori	$a2, $zero, 100
	pcaddu18i	$ra, %call36(_ZL44checkOverlappingMemoryTwoRuntimeChecksNestedImEvSt8functionIFvPT_S2_jjEES4_iiPKc)
	jirl	$ra, $ra, 0
.Ltmp706:                               # EH_LABEL
# %bb.238:                              # %invoke.cont328
	ld.d	$a3, $sp, 64
	beqz	$a3, .LBB0_240
# %bb.239:                              # %if.then.i779
.Ltmp714:                               # EH_LABEL
	addi.d	$a0, $sp, 48
	addi.d	$a1, $sp, 48
	ori	$a2, $zero, 3
	jirl	$ra, $a3, 0
.Ltmp715:                               # EH_LABEL
.LBB0_240:                              # %_ZNSt14_Function_baseD2Ev.exit782
	ld.d	$a3, $sp, 96
	beqz	$a3, .LBB0_242
# %bb.241:                              # %if.then.i785
.Ltmp717:                               # EH_LABEL
	addi.d	$a0, $sp, 80
	addi.d	$a1, $sp, 80
	ori	$a2, $zero, 3
	jirl	$ra, $a3, 0
.Ltmp718:                               # EH_LABEL
.LBB0_242:                              # %_ZNSt14_Function_baseD2Ev.exit788
	move	$a0, $zero
	lu12i.w	$a1, 1
	ori	$a1, $a1, 2080
	add.d	$sp, $sp, $a1
	ld.d	$s8, $sp, 1944                  # 8-byte Folded Reload
	ld.d	$s7, $sp, 1952                  # 8-byte Folded Reload
	ld.d	$s6, $sp, 1960                  # 8-byte Folded Reload
	ld.d	$s5, $sp, 1968                  # 8-byte Folded Reload
	ld.d	$s4, $sp, 1976                  # 8-byte Folded Reload
	ld.d	$s3, $sp, 1984                  # 8-byte Folded Reload
	ld.d	$s2, $sp, 1992                  # 8-byte Folded Reload
	ld.d	$s1, $sp, 2000                  # 8-byte Folded Reload
	ld.d	$s0, $sp, 2008                  # 8-byte Folded Reload
	ld.d	$fp, $sp, 2016                  # 8-byte Folded Reload
	ld.d	$ra, $sp, 2024                  # 8-byte Folded Reload
	addi.d	$sp, $sp, 2032
	ret
.LBB0_243:                              # %terminate.lpad.i787
.Ltmp719:                               # EH_LABEL
	pcaddu18i	$ra, %call36(__clang_call_terminate)
	jirl	$ra, $ra, 0
.LBB0_244:                              # %terminate.lpad.i781
.Ltmp716:                               # EH_LABEL
	pcaddu18i	$ra, %call36(__clang_call_terminate)
	jirl	$ra, $ra, 0
.LBB0_245:                              # %terminate.lpad.i771
.Ltmp704:                               # EH_LABEL
	pcaddu18i	$ra, %call36(__clang_call_terminate)
	jirl	$ra, $ra, 0
.LBB0_246:                              # %terminate.lpad.i765
.Ltmp701:                               # EH_LABEL
	pcaddu18i	$ra, %call36(__clang_call_terminate)
	jirl	$ra, $ra, 0
.LBB0_247:                              # %terminate.lpad.i755
.Ltmp689:                               # EH_LABEL
	pcaddu18i	$ra, %call36(__clang_call_terminate)
	jirl	$ra, $ra, 0
.LBB0_248:                              # %terminate.lpad.i749
.Ltmp686:                               # EH_LABEL
	pcaddu18i	$ra, %call36(__clang_call_terminate)
	jirl	$ra, $ra, 0
.LBB0_249:                              # %terminate.lpad.i739
.Ltmp674:                               # EH_LABEL
	pcaddu18i	$ra, %call36(__clang_call_terminate)
	jirl	$ra, $ra, 0
.LBB0_250:                              # %terminate.lpad.i733
.Ltmp671:                               # EH_LABEL
	pcaddu18i	$ra, %call36(__clang_call_terminate)
	jirl	$ra, $ra, 0
.LBB0_251:                              # %terminate.lpad.i723
.Ltmp659:                               # EH_LABEL
	pcaddu18i	$ra, %call36(__clang_call_terminate)
	jirl	$ra, $ra, 0
.LBB0_252:                              # %terminate.lpad.i717
.Ltmp656:                               # EH_LABEL
	pcaddu18i	$ra, %call36(__clang_call_terminate)
	jirl	$ra, $ra, 0
.LBB0_253:                              # %terminate.lpad.i707
.Ltmp644:                               # EH_LABEL
	pcaddu18i	$ra, %call36(__clang_call_terminate)
	jirl	$ra, $ra, 0
.LBB0_254:                              # %terminate.lpad.i701
.Ltmp641:                               # EH_LABEL
	pcaddu18i	$ra, %call36(__clang_call_terminate)
	jirl	$ra, $ra, 0
.LBB0_255:                              # %terminate.lpad.i691
.Ltmp629:                               # EH_LABEL
	pcaddu18i	$ra, %call36(__clang_call_terminate)
	jirl	$ra, $ra, 0
.LBB0_256:                              # %terminate.lpad.i685
.Ltmp626:                               # EH_LABEL
	pcaddu18i	$ra, %call36(__clang_call_terminate)
	jirl	$ra, $ra, 0
.LBB0_257:                              # %terminate.lpad.i675
.Ltmp614:                               # EH_LABEL
	pcaddu18i	$ra, %call36(__clang_call_terminate)
	jirl	$ra, $ra, 0
.LBB0_258:                              # %terminate.lpad.i669
.Ltmp611:                               # EH_LABEL
	pcaddu18i	$ra, %call36(__clang_call_terminate)
	jirl	$ra, $ra, 0
.LBB0_259:                              # %terminate.lpad.i659
.Ltmp599:                               # EH_LABEL
	pcaddu18i	$ra, %call36(__clang_call_terminate)
	jirl	$ra, $ra, 0
.LBB0_260:                              # %terminate.lpad.i653
.Ltmp596:                               # EH_LABEL
	pcaddu18i	$ra, %call36(__clang_call_terminate)
	jirl	$ra, $ra, 0
.LBB0_261:                              # %terminate.lpad.i643
.Ltmp584:                               # EH_LABEL
	pcaddu18i	$ra, %call36(__clang_call_terminate)
	jirl	$ra, $ra, 0
.LBB0_262:                              # %terminate.lpad.i637
.Ltmp581:                               # EH_LABEL
	pcaddu18i	$ra, %call36(__clang_call_terminate)
	jirl	$ra, $ra, 0
.LBB0_263:                              # %terminate.lpad.i627
.Ltmp569:                               # EH_LABEL
	pcaddu18i	$ra, %call36(__clang_call_terminate)
	jirl	$ra, $ra, 0
.LBB0_264:                              # %terminate.lpad.i621
.Ltmp566:                               # EH_LABEL
	pcaddu18i	$ra, %call36(__clang_call_terminate)
	jirl	$ra, $ra, 0
.LBB0_265:                              # %terminate.lpad.i611
.Ltmp554:                               # EH_LABEL
	pcaddu18i	$ra, %call36(__clang_call_terminate)
	jirl	$ra, $ra, 0
.LBB0_266:                              # %terminate.lpad.i605
.Ltmp551:                               # EH_LABEL
	pcaddu18i	$ra, %call36(__clang_call_terminate)
	jirl	$ra, $ra, 0
.LBB0_267:                              # %terminate.lpad.i595
.Ltmp539:                               # EH_LABEL
	pcaddu18i	$ra, %call36(__clang_call_terminate)
	jirl	$ra, $ra, 0
.LBB0_268:                              # %terminate.lpad.i589
.Ltmp536:                               # EH_LABEL
	pcaddu18i	$ra, %call36(__clang_call_terminate)
	jirl	$ra, $ra, 0
.LBB0_269:                              # %terminate.lpad.i579
.Ltmp524:                               # EH_LABEL
	pcaddu18i	$ra, %call36(__clang_call_terminate)
	jirl	$ra, $ra, 0
.LBB0_270:                              # %terminate.lpad.i573
.Ltmp521:                               # EH_LABEL
	pcaddu18i	$ra, %call36(__clang_call_terminate)
	jirl	$ra, $ra, 0
.LBB0_271:                              # %terminate.lpad.i563
.Ltmp509:                               # EH_LABEL
	pcaddu18i	$ra, %call36(__clang_call_terminate)
	jirl	$ra, $ra, 0
.LBB0_272:                              # %terminate.lpad.i557
.Ltmp506:                               # EH_LABEL
	pcaddu18i	$ra, %call36(__clang_call_terminate)
	jirl	$ra, $ra, 0
.LBB0_273:                              # %terminate.lpad.i547
.Ltmp494:                               # EH_LABEL
	pcaddu18i	$ra, %call36(__clang_call_terminate)
	jirl	$ra, $ra, 0
.LBB0_274:                              # %terminate.lpad.i541
.Ltmp491:                               # EH_LABEL
	pcaddu18i	$ra, %call36(__clang_call_terminate)
	jirl	$ra, $ra, 0
.LBB0_275:                              # %terminate.lpad.i531
.Ltmp479:                               # EH_LABEL
	pcaddu18i	$ra, %call36(__clang_call_terminate)
	jirl	$ra, $ra, 0
.LBB0_276:                              # %terminate.lpad.i525
.Ltmp476:                               # EH_LABEL
	pcaddu18i	$ra, %call36(__clang_call_terminate)
	jirl	$ra, $ra, 0
.LBB0_277:                              # %terminate.lpad.i515
.Ltmp464:                               # EH_LABEL
	pcaddu18i	$ra, %call36(__clang_call_terminate)
	jirl	$ra, $ra, 0
.LBB0_278:                              # %terminate.lpad.i509
.Ltmp461:                               # EH_LABEL
	pcaddu18i	$ra, %call36(__clang_call_terminate)
	jirl	$ra, $ra, 0
.LBB0_279:                              # %terminate.lpad.i499
.Ltmp449:                               # EH_LABEL
	pcaddu18i	$ra, %call36(__clang_call_terminate)
	jirl	$ra, $ra, 0
.LBB0_280:                              # %terminate.lpad.i493
.Ltmp446:                               # EH_LABEL
	pcaddu18i	$ra, %call36(__clang_call_terminate)
	jirl	$ra, $ra, 0
.LBB0_281:                              # %terminate.lpad.i483
.Ltmp434:                               # EH_LABEL
	pcaddu18i	$ra, %call36(__clang_call_terminate)
	jirl	$ra, $ra, 0
.LBB0_282:                              # %terminate.lpad.i477
.Ltmp431:                               # EH_LABEL
	pcaddu18i	$ra, %call36(__clang_call_terminate)
	jirl	$ra, $ra, 0
.LBB0_283:                              # %terminate.lpad.i467
.Ltmp419:                               # EH_LABEL
	pcaddu18i	$ra, %call36(__clang_call_terminate)
	jirl	$ra, $ra, 0
.LBB0_284:                              # %terminate.lpad.i461
.Ltmp416:                               # EH_LABEL
	pcaddu18i	$ra, %call36(__clang_call_terminate)
	jirl	$ra, $ra, 0
.LBB0_285:                              # %terminate.lpad.i451
.Ltmp404:                               # EH_LABEL
	pcaddu18i	$ra, %call36(__clang_call_terminate)
	jirl	$ra, $ra, 0
.LBB0_286:                              # %terminate.lpad.i445
.Ltmp401:                               # EH_LABEL
	pcaddu18i	$ra, %call36(__clang_call_terminate)
	jirl	$ra, $ra, 0
.LBB0_287:                              # %terminate.lpad.i435
.Ltmp389:                               # EH_LABEL
	pcaddu18i	$ra, %call36(__clang_call_terminate)
	jirl	$ra, $ra, 0
.LBB0_288:                              # %terminate.lpad.i429
.Ltmp386:                               # EH_LABEL
	pcaddu18i	$ra, %call36(__clang_call_terminate)
	jirl	$ra, $ra, 0
.LBB0_289:                              # %terminate.lpad.i419
.Ltmp374:                               # EH_LABEL
	pcaddu18i	$ra, %call36(__clang_call_terminate)
	jirl	$ra, $ra, 0
.LBB0_290:                              # %terminate.lpad.i413
.Ltmp371:                               # EH_LABEL
	pcaddu18i	$ra, %call36(__clang_call_terminate)
	jirl	$ra, $ra, 0
.LBB0_291:                              # %terminate.lpad.i403
.Ltmp359:                               # EH_LABEL
	pcaddu18i	$ra, %call36(__clang_call_terminate)
	jirl	$ra, $ra, 0
.LBB0_292:                              # %terminate.lpad.i397
.Ltmp356:                               # EH_LABEL
	pcaddu18i	$ra, %call36(__clang_call_terminate)
	jirl	$ra, $ra, 0
.LBB0_293:                              # %terminate.lpad.i387
.Ltmp344:                               # EH_LABEL
	pcaddu18i	$ra, %call36(__clang_call_terminate)
	jirl	$ra, $ra, 0
.LBB0_294:                              # %terminate.lpad.i381
.Ltmp341:                               # EH_LABEL
	pcaddu18i	$ra, %call36(__clang_call_terminate)
	jirl	$ra, $ra, 0
.LBB0_295:                              # %terminate.lpad.i371
.Ltmp329:                               # EH_LABEL
	pcaddu18i	$ra, %call36(__clang_call_terminate)
	jirl	$ra, $ra, 0
.LBB0_296:                              # %terminate.lpad.i365
.Ltmp326:                               # EH_LABEL
	pcaddu18i	$ra, %call36(__clang_call_terminate)
	jirl	$ra, $ra, 0
.LBB0_297:                              # %terminate.lpad.i355
.Ltmp314:                               # EH_LABEL
	pcaddu18i	$ra, %call36(__clang_call_terminate)
	jirl	$ra, $ra, 0
.LBB0_298:                              # %terminate.lpad.i349
.Ltmp311:                               # EH_LABEL
	pcaddu18i	$ra, %call36(__clang_call_terminate)
	jirl	$ra, $ra, 0
.LBB0_299:                              # %terminate.lpad.i339
.Ltmp299:                               # EH_LABEL
	pcaddu18i	$ra, %call36(__clang_call_terminate)
	jirl	$ra, $ra, 0
.LBB0_300:                              # %terminate.lpad.i333
.Ltmp296:                               # EH_LABEL
	pcaddu18i	$ra, %call36(__clang_call_terminate)
	jirl	$ra, $ra, 0
.LBB0_301:                              # %terminate.lpad.i323
.Ltmp284:                               # EH_LABEL
	pcaddu18i	$ra, %call36(__clang_call_terminate)
	jirl	$ra, $ra, 0
.LBB0_302:                              # %terminate.lpad.i317
.Ltmp281:                               # EH_LABEL
	pcaddu18i	$ra, %call36(__clang_call_terminate)
	jirl	$ra, $ra, 0
.LBB0_303:                              # %terminate.lpad.i307
.Ltmp269:                               # EH_LABEL
	pcaddu18i	$ra, %call36(__clang_call_terminate)
	jirl	$ra, $ra, 0
.LBB0_304:                              # %terminate.lpad.i301
.Ltmp266:                               # EH_LABEL
	pcaddu18i	$ra, %call36(__clang_call_terminate)
	jirl	$ra, $ra, 0
.LBB0_305:                              # %terminate.lpad.i291
.Ltmp254:                               # EH_LABEL
	pcaddu18i	$ra, %call36(__clang_call_terminate)
	jirl	$ra, $ra, 0
.LBB0_306:                              # %terminate.lpad.i285
.Ltmp251:                               # EH_LABEL
	pcaddu18i	$ra, %call36(__clang_call_terminate)
	jirl	$ra, $ra, 0
.LBB0_307:                              # %terminate.lpad.i275
.Ltmp239:                               # EH_LABEL
	pcaddu18i	$ra, %call36(__clang_call_terminate)
	jirl	$ra, $ra, 0
.LBB0_308:                              # %terminate.lpad.i269
.Ltmp236:                               # EH_LABEL
	pcaddu18i	$ra, %call36(__clang_call_terminate)
	jirl	$ra, $ra, 0
.LBB0_309:                              # %terminate.lpad.i259
.Ltmp224:                               # EH_LABEL
	pcaddu18i	$ra, %call36(__clang_call_terminate)
	jirl	$ra, $ra, 0
.LBB0_310:                              # %terminate.lpad.i253
.Ltmp221:                               # EH_LABEL
	pcaddu18i	$ra, %call36(__clang_call_terminate)
	jirl	$ra, $ra, 0
.LBB0_311:                              # %terminate.lpad.i243
.Ltmp209:                               # EH_LABEL
	pcaddu18i	$ra, %call36(__clang_call_terminate)
	jirl	$ra, $ra, 0
.LBB0_312:                              # %terminate.lpad.i237
.Ltmp206:                               # EH_LABEL
	pcaddu18i	$ra, %call36(__clang_call_terminate)
	jirl	$ra, $ra, 0
.LBB0_313:                              # %terminate.lpad.i227
.Ltmp194:                               # EH_LABEL
	pcaddu18i	$ra, %call36(__clang_call_terminate)
	jirl	$ra, $ra, 0
.LBB0_314:                              # %terminate.lpad.i221
.Ltmp191:                               # EH_LABEL
	pcaddu18i	$ra, %call36(__clang_call_terminate)
	jirl	$ra, $ra, 0
.LBB0_315:                              # %terminate.lpad.i211
.Ltmp179:                               # EH_LABEL
	pcaddu18i	$ra, %call36(__clang_call_terminate)
	jirl	$ra, $ra, 0
.LBB0_316:                              # %terminate.lpad.i205
.Ltmp176:                               # EH_LABEL
	pcaddu18i	$ra, %call36(__clang_call_terminate)
	jirl	$ra, $ra, 0
.LBB0_317:                              # %terminate.lpad.i195
.Ltmp164:                               # EH_LABEL
	pcaddu18i	$ra, %call36(__clang_call_terminate)
	jirl	$ra, $ra, 0
.LBB0_318:                              # %terminate.lpad.i189
.Ltmp161:                               # EH_LABEL
	pcaddu18i	$ra, %call36(__clang_call_terminate)
	jirl	$ra, $ra, 0
.LBB0_319:                              # %terminate.lpad.i179
.Ltmp149:                               # EH_LABEL
	pcaddu18i	$ra, %call36(__clang_call_terminate)
	jirl	$ra, $ra, 0
.LBB0_320:                              # %terminate.lpad.i173
.Ltmp146:                               # EH_LABEL
	pcaddu18i	$ra, %call36(__clang_call_terminate)
	jirl	$ra, $ra, 0
.LBB0_321:                              # %terminate.lpad.i163
.Ltmp134:                               # EH_LABEL
	pcaddu18i	$ra, %call36(__clang_call_terminate)
	jirl	$ra, $ra, 0
.LBB0_322:                              # %terminate.lpad.i157
.Ltmp131:                               # EH_LABEL
	pcaddu18i	$ra, %call36(__clang_call_terminate)
	jirl	$ra, $ra, 0
.LBB0_323:                              # %terminate.lpad.i147
.Ltmp119:                               # EH_LABEL
	pcaddu18i	$ra, %call36(__clang_call_terminate)
	jirl	$ra, $ra, 0
.LBB0_324:                              # %terminate.lpad.i141
.Ltmp116:                               # EH_LABEL
	pcaddu18i	$ra, %call36(__clang_call_terminate)
	jirl	$ra, $ra, 0
.LBB0_325:                              # %terminate.lpad.i131
.Ltmp104:                               # EH_LABEL
	pcaddu18i	$ra, %call36(__clang_call_terminate)
	jirl	$ra, $ra, 0
.LBB0_326:                              # %terminate.lpad.i125
.Ltmp101:                               # EH_LABEL
	pcaddu18i	$ra, %call36(__clang_call_terminate)
	jirl	$ra, $ra, 0
.LBB0_327:                              # %terminate.lpad.i115
.Ltmp89:                                # EH_LABEL
	pcaddu18i	$ra, %call36(__clang_call_terminate)
	jirl	$ra, $ra, 0
.LBB0_328:                              # %terminate.lpad.i109
.Ltmp86:                                # EH_LABEL
	pcaddu18i	$ra, %call36(__clang_call_terminate)
	jirl	$ra, $ra, 0
.LBB0_329:                              # %terminate.lpad.i99
.Ltmp74:                                # EH_LABEL
	pcaddu18i	$ra, %call36(__clang_call_terminate)
	jirl	$ra, $ra, 0
.LBB0_330:                              # %terminate.lpad.i93
.Ltmp71:                                # EH_LABEL
	pcaddu18i	$ra, %call36(__clang_call_terminate)
	jirl	$ra, $ra, 0
.LBB0_331:                              # %terminate.lpad.i83
.Ltmp59:                                # EH_LABEL
	pcaddu18i	$ra, %call36(__clang_call_terminate)
	jirl	$ra, $ra, 0
.LBB0_332:                              # %terminate.lpad.i77
.Ltmp56:                                # EH_LABEL
	pcaddu18i	$ra, %call36(__clang_call_terminate)
	jirl	$ra, $ra, 0
.LBB0_333:                              # %terminate.lpad.i67
.Ltmp44:                                # EH_LABEL
	pcaddu18i	$ra, %call36(__clang_call_terminate)
	jirl	$ra, $ra, 0
.LBB0_334:                              # %terminate.lpad.i61
.Ltmp41:                                # EH_LABEL
	pcaddu18i	$ra, %call36(__clang_call_terminate)
	jirl	$ra, $ra, 0
.LBB0_335:                              # %terminate.lpad.i51
.Ltmp29:                                # EH_LABEL
	pcaddu18i	$ra, %call36(__clang_call_terminate)
	jirl	$ra, $ra, 0
.LBB0_336:                              # %terminate.lpad.i45
.Ltmp26:                                # EH_LABEL
	pcaddu18i	$ra, %call36(__clang_call_terminate)
	jirl	$ra, $ra, 0
.LBB0_337:                              # %terminate.lpad.i35
.Ltmp14:                                # EH_LABEL
	pcaddu18i	$ra, %call36(__clang_call_terminate)
	jirl	$ra, $ra, 0
.LBB0_338:                              # %terminate.lpad.i
.Ltmp11:                                # EH_LABEL
	pcaddu18i	$ra, %call36(__clang_call_terminate)
	jirl	$ra, $ra, 0
.LBB0_339:                              # %lpad327
.Ltmp707:                               # EH_LABEL
	ld.d	$a3, $sp, 64
	move	$fp, $a0
	beqz	$a3, .LBB0_341
# %bb.340:                              # %if.then.i1355
.Ltmp708:                               # EH_LABEL
	addi.d	$a0, $sp, 48
	addi.d	$a1, $sp, 48
	ori	$a2, $zero, 3
	jirl	$ra, $a3, 0
.Ltmp709:                               # EH_LABEL
.LBB0_341:                              # %_ZNSt14_Function_baseD2Ev.exit1358
	ld.d	$a3, $sp, 96
	beqz	$a3, .LBB0_625
# %bb.342:                              # %if.then.i1361
.Ltmp711:                               # EH_LABEL
	addi.d	$a0, $sp, 80
	addi.d	$a1, $sp, 80
	ori	$a2, $zero, 3
	jirl	$ra, $a3, 0
.Ltmp712:                               # EH_LABEL
	b	.LBB0_625
.LBB0_343:                              # %terminate.lpad.i1363
.Ltmp713:                               # EH_LABEL
	pcaddu18i	$ra, %call36(__clang_call_terminate)
	jirl	$ra, $ra, 0
.LBB0_344:                              # %terminate.lpad.i1357
.Ltmp710:                               # EH_LABEL
	pcaddu18i	$ra, %call36(__clang_call_terminate)
	jirl	$ra, $ra, 0
.LBB0_345:                              # %lpad321
.Ltmp692:                               # EH_LABEL
	ld.d	$a3, $sp, 128
	move	$fp, $a0
	beqz	$a3, .LBB0_347
# %bb.346:                              # %if.then.i1343
.Ltmp693:                               # EH_LABEL
	addi.d	$a0, $sp, 112
	addi.d	$a1, $sp, 112
	ori	$a2, $zero, 3
	jirl	$ra, $a3, 0
.Ltmp694:                               # EH_LABEL
.LBB0_347:                              # %_ZNSt14_Function_baseD2Ev.exit1346
	ld.d	$a3, $sp, 160
	beqz	$a3, .LBB0_625
# %bb.348:                              # %if.then.i1349
.Ltmp696:                               # EH_LABEL
	addi.d	$a0, $sp, 144
	addi.d	$a1, $sp, 144
	ori	$a2, $zero, 3
	jirl	$ra, $a3, 0
.Ltmp697:                               # EH_LABEL
	b	.LBB0_625
.LBB0_349:                              # %terminate.lpad.i1351
.Ltmp698:                               # EH_LABEL
	pcaddu18i	$ra, %call36(__clang_call_terminate)
	jirl	$ra, $ra, 0
.LBB0_350:                              # %terminate.lpad.i1345
.Ltmp695:                               # EH_LABEL
	pcaddu18i	$ra, %call36(__clang_call_terminate)
	jirl	$ra, $ra, 0
.LBB0_351:                              # %lpad315
.Ltmp677:                               # EH_LABEL
	ld.d	$a3, $sp, 192
	move	$fp, $a0
	beqz	$a3, .LBB0_353
# %bb.352:                              # %if.then.i1331
.Ltmp678:                               # EH_LABEL
	addi.d	$a0, $sp, 176
	addi.d	$a1, $sp, 176
	ori	$a2, $zero, 3
	jirl	$ra, $a3, 0
.Ltmp679:                               # EH_LABEL
.LBB0_353:                              # %_ZNSt14_Function_baseD2Ev.exit1334
	ld.d	$a3, $sp, 224
	beqz	$a3, .LBB0_625
# %bb.354:                              # %if.then.i1337
.Ltmp681:                               # EH_LABEL
	addi.d	$a0, $sp, 208
	addi.d	$a1, $sp, 208
	ori	$a2, $zero, 3
	jirl	$ra, $a3, 0
.Ltmp682:                               # EH_LABEL
	b	.LBB0_625
.LBB0_355:                              # %terminate.lpad.i1339
.Ltmp683:                               # EH_LABEL
	pcaddu18i	$ra, %call36(__clang_call_terminate)
	jirl	$ra, $ra, 0
.LBB0_356:                              # %terminate.lpad.i1333
.Ltmp680:                               # EH_LABEL
	pcaddu18i	$ra, %call36(__clang_call_terminate)
	jirl	$ra, $ra, 0
.LBB0_357:                              # %lpad305
.Ltmp662:                               # EH_LABEL
	ld.d	$a3, $sp, 256
	move	$fp, $a0
	beqz	$a3, .LBB0_359
# %bb.358:                              # %if.then.i1319
.Ltmp663:                               # EH_LABEL
	addi.d	$a0, $sp, 240
	addi.d	$a1, $sp, 240
	ori	$a2, $zero, 3
	jirl	$ra, $a3, 0
.Ltmp664:                               # EH_LABEL
.LBB0_359:                              # %_ZNSt14_Function_baseD2Ev.exit1322
	ld.d	$a3, $sp, 288
	beqz	$a3, .LBB0_625
# %bb.360:                              # %if.then.i1325
.Ltmp666:                               # EH_LABEL
	addi.d	$a0, $sp, 272
	addi.d	$a1, $sp, 272
	ori	$a2, $zero, 3
	jirl	$ra, $a3, 0
.Ltmp667:                               # EH_LABEL
	b	.LBB0_625
.LBB0_361:                              # %terminate.lpad.i1327
.Ltmp668:                               # EH_LABEL
	pcaddu18i	$ra, %call36(__clang_call_terminate)
	jirl	$ra, $ra, 0
.LBB0_362:                              # %terminate.lpad.i1321
.Ltmp665:                               # EH_LABEL
	pcaddu18i	$ra, %call36(__clang_call_terminate)
	jirl	$ra, $ra, 0
.LBB0_363:                              # %lpad299
.Ltmp647:                               # EH_LABEL
	ld.d	$a3, $sp, 320
	move	$fp, $a0
	beqz	$a3, .LBB0_365
# %bb.364:                              # %if.then.i1307
.Ltmp648:                               # EH_LABEL
	addi.d	$a0, $sp, 304
	addi.d	$a1, $sp, 304
	ori	$a2, $zero, 3
	jirl	$ra, $a3, 0
.Ltmp649:                               # EH_LABEL
.LBB0_365:                              # %_ZNSt14_Function_baseD2Ev.exit1310
	ld.d	$a3, $sp, 352
	beqz	$a3, .LBB0_625
# %bb.366:                              # %if.then.i1313
.Ltmp651:                               # EH_LABEL
	addi.d	$a0, $sp, 336
	addi.d	$a1, $sp, 336
	ori	$a2, $zero, 3
	jirl	$ra, $a3, 0
.Ltmp652:                               # EH_LABEL
	b	.LBB0_625
.LBB0_367:                              # %terminate.lpad.i1315
.Ltmp653:                               # EH_LABEL
	pcaddu18i	$ra, %call36(__clang_call_terminate)
	jirl	$ra, $ra, 0
.LBB0_368:                              # %terminate.lpad.i1309
.Ltmp650:                               # EH_LABEL
	pcaddu18i	$ra, %call36(__clang_call_terminate)
	jirl	$ra, $ra, 0
.LBB0_369:                              # %lpad293
.Ltmp632:                               # EH_LABEL
	ld.d	$a3, $sp, 384
	move	$fp, $a0
	beqz	$a3, .LBB0_371
# %bb.370:                              # %if.then.i1295
.Ltmp633:                               # EH_LABEL
	addi.d	$a0, $sp, 368
	addi.d	$a1, $sp, 368
	ori	$a2, $zero, 3
	jirl	$ra, $a3, 0
.Ltmp634:                               # EH_LABEL
.LBB0_371:                              # %_ZNSt14_Function_baseD2Ev.exit1298
	ld.d	$a3, $sp, 416
	beqz	$a3, .LBB0_625
# %bb.372:                              # %if.then.i1301
.Ltmp636:                               # EH_LABEL
	addi.d	$a0, $sp, 400
	addi.d	$a1, $sp, 400
	ori	$a2, $zero, 3
	jirl	$ra, $a3, 0
.Ltmp637:                               # EH_LABEL
	b	.LBB0_625
.LBB0_373:                              # %terminate.lpad.i1303
.Ltmp638:                               # EH_LABEL
	pcaddu18i	$ra, %call36(__clang_call_terminate)
	jirl	$ra, $ra, 0
.LBB0_374:                              # %terminate.lpad.i1297
.Ltmp635:                               # EH_LABEL
	pcaddu18i	$ra, %call36(__clang_call_terminate)
	jirl	$ra, $ra, 0
.LBB0_375:                              # %lpad283
.Ltmp617:                               # EH_LABEL
	ld.d	$a3, $sp, 448
	move	$fp, $a0
	beqz	$a3, .LBB0_377
# %bb.376:                              # %if.then.i1283
.Ltmp618:                               # EH_LABEL
	addi.d	$a0, $sp, 432
	addi.d	$a1, $sp, 432
	ori	$a2, $zero, 3
	jirl	$ra, $a3, 0
.Ltmp619:                               # EH_LABEL
.LBB0_377:                              # %_ZNSt14_Function_baseD2Ev.exit1286
	ld.d	$a3, $sp, 480
	beqz	$a3, .LBB0_625
# %bb.378:                              # %if.then.i1289
.Ltmp621:                               # EH_LABEL
	addi.d	$a0, $sp, 464
	addi.d	$a1, $sp, 464
	ori	$a2, $zero, 3
	jirl	$ra, $a3, 0
.Ltmp622:                               # EH_LABEL
	b	.LBB0_625
.LBB0_379:                              # %terminate.lpad.i1291
.Ltmp623:                               # EH_LABEL
	pcaddu18i	$ra, %call36(__clang_call_terminate)
	jirl	$ra, $ra, 0
.LBB0_380:                              # %terminate.lpad.i1285
.Ltmp620:                               # EH_LABEL
	pcaddu18i	$ra, %call36(__clang_call_terminate)
	jirl	$ra, $ra, 0
.LBB0_381:                              # %lpad277
.Ltmp602:                               # EH_LABEL
	ld.d	$a3, $sp, 512
	move	$fp, $a0
	beqz	$a3, .LBB0_383
# %bb.382:                              # %if.then.i1271
.Ltmp603:                               # EH_LABEL
	addi.d	$a0, $sp, 496
	addi.d	$a1, $sp, 496
	ori	$a2, $zero, 3
	jirl	$ra, $a3, 0
.Ltmp604:                               # EH_LABEL
.LBB0_383:                              # %_ZNSt14_Function_baseD2Ev.exit1274
	ld.d	$a3, $sp, 544
	beqz	$a3, .LBB0_625
# %bb.384:                              # %if.then.i1277
.Ltmp606:                               # EH_LABEL
	addi.d	$a0, $sp, 528
	addi.d	$a1, $sp, 528
	ori	$a2, $zero, 3
	jirl	$ra, $a3, 0
.Ltmp607:                               # EH_LABEL
	b	.LBB0_625
.LBB0_385:                              # %terminate.lpad.i1279
.Ltmp608:                               # EH_LABEL
	pcaddu18i	$ra, %call36(__clang_call_terminate)
	jirl	$ra, $ra, 0
.LBB0_386:                              # %terminate.lpad.i1273
.Ltmp605:                               # EH_LABEL
	pcaddu18i	$ra, %call36(__clang_call_terminate)
	jirl	$ra, $ra, 0
.LBB0_387:                              # %lpad271
.Ltmp587:                               # EH_LABEL
	ld.d	$a3, $sp, 576
	move	$fp, $a0
	beqz	$a3, .LBB0_389
# %bb.388:                              # %if.then.i1259
.Ltmp588:                               # EH_LABEL
	addi.d	$a0, $sp, 560
	addi.d	$a1, $sp, 560
	ori	$a2, $zero, 3
	jirl	$ra, $a3, 0
.Ltmp589:                               # EH_LABEL
.LBB0_389:                              # %_ZNSt14_Function_baseD2Ev.exit1262
	ld.d	$a3, $sp, 608
	beqz	$a3, .LBB0_625
# %bb.390:                              # %if.then.i1265
.Ltmp591:                               # EH_LABEL
	addi.d	$a0, $sp, 592
	addi.d	$a1, $sp, 592
	ori	$a2, $zero, 3
	jirl	$ra, $a3, 0
.Ltmp592:                               # EH_LABEL
	b	.LBB0_625
.LBB0_391:                              # %terminate.lpad.i1267
.Ltmp593:                               # EH_LABEL
	pcaddu18i	$ra, %call36(__clang_call_terminate)
	jirl	$ra, $ra, 0
.LBB0_392:                              # %terminate.lpad.i1261
.Ltmp590:                               # EH_LABEL
	pcaddu18i	$ra, %call36(__clang_call_terminate)
	jirl	$ra, $ra, 0
.LBB0_393:                              # %lpad265
.Ltmp572:                               # EH_LABEL
	ld.d	$a3, $sp, 640
	move	$fp, $a0
	beqz	$a3, .LBB0_395
# %bb.394:                              # %if.then.i1247
.Ltmp573:                               # EH_LABEL
	addi.d	$a0, $sp, 624
	addi.d	$a1, $sp, 624
	ori	$a2, $zero, 3
	jirl	$ra, $a3, 0
.Ltmp574:                               # EH_LABEL
.LBB0_395:                              # %_ZNSt14_Function_baseD2Ev.exit1250
	ld.d	$a3, $sp, 672
	beqz	$a3, .LBB0_625
# %bb.396:                              # %if.then.i1253
.Ltmp576:                               # EH_LABEL
	addi.d	$a0, $sp, 656
	addi.d	$a1, $sp, 656
	ori	$a2, $zero, 3
	jirl	$ra, $a3, 0
.Ltmp577:                               # EH_LABEL
	b	.LBB0_625
.LBB0_397:                              # %terminate.lpad.i1255
.Ltmp578:                               # EH_LABEL
	pcaddu18i	$ra, %call36(__clang_call_terminate)
	jirl	$ra, $ra, 0
.LBB0_398:                              # %terminate.lpad.i1249
.Ltmp575:                               # EH_LABEL
	pcaddu18i	$ra, %call36(__clang_call_terminate)
	jirl	$ra, $ra, 0
.LBB0_399:                              # %lpad259
.Ltmp557:                               # EH_LABEL
	ld.d	$a3, $sp, 704
	move	$fp, $a0
	beqz	$a3, .LBB0_401
# %bb.400:                              # %if.then.i1235
.Ltmp558:                               # EH_LABEL
	addi.d	$a0, $sp, 688
	addi.d	$a1, $sp, 688
	ori	$a2, $zero, 3
	jirl	$ra, $a3, 0
.Ltmp559:                               # EH_LABEL
.LBB0_401:                              # %_ZNSt14_Function_baseD2Ev.exit1238
	ld.d	$a3, $sp, 736
	beqz	$a3, .LBB0_625
# %bb.402:                              # %if.then.i1241
.Ltmp561:                               # EH_LABEL
	addi.d	$a0, $sp, 720
	addi.d	$a1, $sp, 720
	ori	$a2, $zero, 3
	jirl	$ra, $a3, 0
.Ltmp562:                               # EH_LABEL
	b	.LBB0_625
.LBB0_403:                              # %terminate.lpad.i1243
.Ltmp563:                               # EH_LABEL
	pcaddu18i	$ra, %call36(__clang_call_terminate)
	jirl	$ra, $ra, 0
.LBB0_404:                              # %terminate.lpad.i1237
.Ltmp560:                               # EH_LABEL
	pcaddu18i	$ra, %call36(__clang_call_terminate)
	jirl	$ra, $ra, 0
.LBB0_405:                              # %lpad253
.Ltmp542:                               # EH_LABEL
	ld.d	$a3, $sp, 768
	move	$fp, $a0
	beqz	$a3, .LBB0_407
# %bb.406:                              # %if.then.i1223
.Ltmp543:                               # EH_LABEL
	addi.d	$a0, $sp, 752
	addi.d	$a1, $sp, 752
	ori	$a2, $zero, 3
	jirl	$ra, $a3, 0
.Ltmp544:                               # EH_LABEL
.LBB0_407:                              # %_ZNSt14_Function_baseD2Ev.exit1226
	ld.d	$a3, $sp, 800
	beqz	$a3, .LBB0_625
# %bb.408:                              # %if.then.i1229
.Ltmp546:                               # EH_LABEL
	addi.d	$a0, $sp, 784
	addi.d	$a1, $sp, 784
	ori	$a2, $zero, 3
	jirl	$ra, $a3, 0
.Ltmp547:                               # EH_LABEL
	b	.LBB0_625
.LBB0_409:                              # %terminate.lpad.i1231
.Ltmp548:                               # EH_LABEL
	pcaddu18i	$ra, %call36(__clang_call_terminate)
	jirl	$ra, $ra, 0
.LBB0_410:                              # %terminate.lpad.i1225
.Ltmp545:                               # EH_LABEL
	pcaddu18i	$ra, %call36(__clang_call_terminate)
	jirl	$ra, $ra, 0
.LBB0_411:                              # %lpad243
.Ltmp527:                               # EH_LABEL
	ld.d	$a3, $sp, 832
	move	$fp, $a0
	beqz	$a3, .LBB0_413
# %bb.412:                              # %if.then.i1211
.Ltmp528:                               # EH_LABEL
	addi.d	$a0, $sp, 816
	addi.d	$a1, $sp, 816
	ori	$a2, $zero, 3
	jirl	$ra, $a3, 0
.Ltmp529:                               # EH_LABEL
.LBB0_413:                              # %_ZNSt14_Function_baseD2Ev.exit1214
	ld.d	$a3, $sp, 864
	beqz	$a3, .LBB0_625
# %bb.414:                              # %if.then.i1217
.Ltmp531:                               # EH_LABEL
	addi.d	$a0, $sp, 848
	addi.d	$a1, $sp, 848
	ori	$a2, $zero, 3
	jirl	$ra, $a3, 0
.Ltmp532:                               # EH_LABEL
	b	.LBB0_625
.LBB0_415:                              # %terminate.lpad.i1219
.Ltmp533:                               # EH_LABEL
	pcaddu18i	$ra, %call36(__clang_call_terminate)
	jirl	$ra, $ra, 0
.LBB0_416:                              # %terminate.lpad.i1213
.Ltmp530:                               # EH_LABEL
	pcaddu18i	$ra, %call36(__clang_call_terminate)
	jirl	$ra, $ra, 0
.LBB0_417:                              # %lpad237
.Ltmp512:                               # EH_LABEL
	ld.d	$a3, $sp, 896
	move	$fp, $a0
	beqz	$a3, .LBB0_419
# %bb.418:                              # %if.then.i1199
.Ltmp513:                               # EH_LABEL
	addi.d	$a0, $sp, 880
	addi.d	$a1, $sp, 880
	ori	$a2, $zero, 3
	jirl	$ra, $a3, 0
.Ltmp514:                               # EH_LABEL
.LBB0_419:                              # %_ZNSt14_Function_baseD2Ev.exit1202
	ld.d	$a3, $sp, 928
	beqz	$a3, .LBB0_625
# %bb.420:                              # %if.then.i1205
.Ltmp516:                               # EH_LABEL
	addi.d	$a0, $sp, 912
	addi.d	$a1, $sp, 912
	ori	$a2, $zero, 3
	jirl	$ra, $a3, 0
.Ltmp517:                               # EH_LABEL
	b	.LBB0_625
.LBB0_421:                              # %terminate.lpad.i1207
.Ltmp518:                               # EH_LABEL
	pcaddu18i	$ra, %call36(__clang_call_terminate)
	jirl	$ra, $ra, 0
.LBB0_422:                              # %terminate.lpad.i1201
.Ltmp515:                               # EH_LABEL
	pcaddu18i	$ra, %call36(__clang_call_terminate)
	jirl	$ra, $ra, 0
.LBB0_423:                              # %lpad231
.Ltmp497:                               # EH_LABEL
	ld.d	$a3, $sp, 960
	move	$fp, $a0
	beqz	$a3, .LBB0_425
# %bb.424:                              # %if.then.i1187
.Ltmp498:                               # EH_LABEL
	addi.d	$a0, $sp, 944
	addi.d	$a1, $sp, 944
	ori	$a2, $zero, 3
	jirl	$ra, $a3, 0
.Ltmp499:                               # EH_LABEL
.LBB0_425:                              # %_ZNSt14_Function_baseD2Ev.exit1190
	ld.d	$a3, $sp, 992
	beqz	$a3, .LBB0_625
# %bb.426:                              # %if.then.i1193
.Ltmp501:                               # EH_LABEL
	addi.d	$a0, $sp, 976
	addi.d	$a1, $sp, 976
	ori	$a2, $zero, 3
	jirl	$ra, $a3, 0
.Ltmp502:                               # EH_LABEL
	b	.LBB0_625
.LBB0_427:                              # %terminate.lpad.i1195
.Ltmp503:                               # EH_LABEL
	pcaddu18i	$ra, %call36(__clang_call_terminate)
	jirl	$ra, $ra, 0
.LBB0_428:                              # %terminate.lpad.i1189
.Ltmp500:                               # EH_LABEL
	pcaddu18i	$ra, %call36(__clang_call_terminate)
	jirl	$ra, $ra, 0
.LBB0_429:                              # %lpad225
.Ltmp482:                               # EH_LABEL
	ld.d	$a3, $sp, 1024
	move	$fp, $a0
	beqz	$a3, .LBB0_431
# %bb.430:                              # %if.then.i1175
.Ltmp483:                               # EH_LABEL
	addi.d	$a0, $sp, 1008
	addi.d	$a1, $sp, 1008
	ori	$a2, $zero, 3
	jirl	$ra, $a3, 0
.Ltmp484:                               # EH_LABEL
.LBB0_431:                              # %_ZNSt14_Function_baseD2Ev.exit1178
	ld.d	$a3, $sp, 1056
	beqz	$a3, .LBB0_625
# %bb.432:                              # %if.then.i1181
.Ltmp486:                               # EH_LABEL
	addi.d	$a0, $sp, 1040
	addi.d	$a1, $sp, 1040
	ori	$a2, $zero, 3
	jirl	$ra, $a3, 0
.Ltmp487:                               # EH_LABEL
	b	.LBB0_625
.LBB0_433:                              # %terminate.lpad.i1183
.Ltmp488:                               # EH_LABEL
	pcaddu18i	$ra, %call36(__clang_call_terminate)
	jirl	$ra, $ra, 0
.LBB0_434:                              # %terminate.lpad.i1177
.Ltmp485:                               # EH_LABEL
	pcaddu18i	$ra, %call36(__clang_call_terminate)
	jirl	$ra, $ra, 0
.LBB0_435:                              # %lpad219
.Ltmp467:                               # EH_LABEL
	ld.d	$a3, $sp, 1088
	move	$fp, $a0
	beqz	$a3, .LBB0_437
# %bb.436:                              # %if.then.i1163
.Ltmp468:                               # EH_LABEL
	addi.d	$a0, $sp, 1072
	addi.d	$a1, $sp, 1072
	ori	$a2, $zero, 3
	jirl	$ra, $a3, 0
.Ltmp469:                               # EH_LABEL
.LBB0_437:                              # %_ZNSt14_Function_baseD2Ev.exit1166
	ld.d	$a3, $sp, 1120
	beqz	$a3, .LBB0_625
# %bb.438:                              # %if.then.i1169
.Ltmp471:                               # EH_LABEL
	addi.d	$a0, $sp, 1104
	addi.d	$a1, $sp, 1104
	ori	$a2, $zero, 3
	jirl	$ra, $a3, 0
.Ltmp472:                               # EH_LABEL
	b	.LBB0_625
.LBB0_439:                              # %terminate.lpad.i1171
.Ltmp473:                               # EH_LABEL
	pcaddu18i	$ra, %call36(__clang_call_terminate)
	jirl	$ra, $ra, 0
.LBB0_440:                              # %terminate.lpad.i1165
.Ltmp470:                               # EH_LABEL
	pcaddu18i	$ra, %call36(__clang_call_terminate)
	jirl	$ra, $ra, 0
.LBB0_441:                              # %lpad213
.Ltmp452:                               # EH_LABEL
	ld.d	$a3, $sp, 1152
	move	$fp, $a0
	beqz	$a3, .LBB0_443
# %bb.442:                              # %if.then.i1151
.Ltmp453:                               # EH_LABEL
	addi.d	$a0, $sp, 1136
	addi.d	$a1, $sp, 1136
	ori	$a2, $zero, 3
	jirl	$ra, $a3, 0
.Ltmp454:                               # EH_LABEL
.LBB0_443:                              # %_ZNSt14_Function_baseD2Ev.exit1154
	ld.d	$a3, $sp, 1184
	beqz	$a3, .LBB0_625
# %bb.444:                              # %if.then.i1157
.Ltmp456:                               # EH_LABEL
	addi.d	$a0, $sp, 1168
	addi.d	$a1, $sp, 1168
	ori	$a2, $zero, 3
	jirl	$ra, $a3, 0
.Ltmp457:                               # EH_LABEL
	b	.LBB0_625
.LBB0_445:                              # %terminate.lpad.i1159
.Ltmp458:                               # EH_LABEL
	pcaddu18i	$ra, %call36(__clang_call_terminate)
	jirl	$ra, $ra, 0
.LBB0_446:                              # %terminate.lpad.i1153
.Ltmp455:                               # EH_LABEL
	pcaddu18i	$ra, %call36(__clang_call_terminate)
	jirl	$ra, $ra, 0
.LBB0_447:                              # %lpad203
.Ltmp437:                               # EH_LABEL
	ld.d	$a3, $sp, 1216
	move	$fp, $a0
	beqz	$a3, .LBB0_449
# %bb.448:                              # %if.then.i1139
.Ltmp438:                               # EH_LABEL
	addi.d	$a0, $sp, 1200
	addi.d	$a1, $sp, 1200
	ori	$a2, $zero, 3
	jirl	$ra, $a3, 0
.Ltmp439:                               # EH_LABEL
.LBB0_449:                              # %_ZNSt14_Function_baseD2Ev.exit1142
	ld.d	$a3, $sp, 1248
	beqz	$a3, .LBB0_625
# %bb.450:                              # %if.then.i1145
.Ltmp441:                               # EH_LABEL
	addi.d	$a0, $sp, 1232
	addi.d	$a1, $sp, 1232
	ori	$a2, $zero, 3
	jirl	$ra, $a3, 0
.Ltmp442:                               # EH_LABEL
	b	.LBB0_625
.LBB0_451:                              # %terminate.lpad.i1147
.Ltmp443:                               # EH_LABEL
	pcaddu18i	$ra, %call36(__clang_call_terminate)
	jirl	$ra, $ra, 0
.LBB0_452:                              # %terminate.lpad.i1141
.Ltmp440:                               # EH_LABEL
	pcaddu18i	$ra, %call36(__clang_call_terminate)
	jirl	$ra, $ra, 0
.LBB0_453:                              # %lpad197
.Ltmp422:                               # EH_LABEL
	ld.d	$a3, $sp, 1280
	move	$fp, $a0
	beqz	$a3, .LBB0_455
# %bb.454:                              # %if.then.i1127
.Ltmp423:                               # EH_LABEL
	addi.d	$a0, $sp, 1264
	addi.d	$a1, $sp, 1264
	ori	$a2, $zero, 3
	jirl	$ra, $a3, 0
.Ltmp424:                               # EH_LABEL
.LBB0_455:                              # %_ZNSt14_Function_baseD2Ev.exit1130
	ld.d	$a3, $sp, 1312
	beqz	$a3, .LBB0_625
# %bb.456:                              # %if.then.i1133
.Ltmp426:                               # EH_LABEL
	addi.d	$a0, $sp, 1296
	addi.d	$a1, $sp, 1296
	ori	$a2, $zero, 3
	jirl	$ra, $a3, 0
.Ltmp427:                               # EH_LABEL
	b	.LBB0_625
.LBB0_457:                              # %terminate.lpad.i1135
.Ltmp428:                               # EH_LABEL
	pcaddu18i	$ra, %call36(__clang_call_terminate)
	jirl	$ra, $ra, 0
.LBB0_458:                              # %terminate.lpad.i1129
.Ltmp425:                               # EH_LABEL
	pcaddu18i	$ra, %call36(__clang_call_terminate)
	jirl	$ra, $ra, 0
.LBB0_459:                              # %lpad191
.Ltmp407:                               # EH_LABEL
	ld.d	$a3, $sp, 1344
	move	$fp, $a0
	beqz	$a3, .LBB0_461
# %bb.460:                              # %if.then.i1115
.Ltmp408:                               # EH_LABEL
	addi.d	$a0, $sp, 1328
	addi.d	$a1, $sp, 1328
	ori	$a2, $zero, 3
	jirl	$ra, $a3, 0
.Ltmp409:                               # EH_LABEL
.LBB0_461:                              # %_ZNSt14_Function_baseD2Ev.exit1118
	ld.d	$a3, $sp, 1376
	beqz	$a3, .LBB0_625
# %bb.462:                              # %if.then.i1121
.Ltmp411:                               # EH_LABEL
	addi.d	$a0, $sp, 1360
	addi.d	$a1, $sp, 1360
	ori	$a2, $zero, 3
	jirl	$ra, $a3, 0
.Ltmp412:                               # EH_LABEL
	b	.LBB0_625
.LBB0_463:                              # %terminate.lpad.i1123
.Ltmp413:                               # EH_LABEL
	pcaddu18i	$ra, %call36(__clang_call_terminate)
	jirl	$ra, $ra, 0
.LBB0_464:                              # %terminate.lpad.i1117
.Ltmp410:                               # EH_LABEL
	pcaddu18i	$ra, %call36(__clang_call_terminate)
	jirl	$ra, $ra, 0
.LBB0_465:                              # %lpad181
.Ltmp392:                               # EH_LABEL
	ld.d	$a3, $sp, 1408
	move	$fp, $a0
	beqz	$a3, .LBB0_467
# %bb.466:                              # %if.then.i1103
.Ltmp393:                               # EH_LABEL
	addi.d	$a0, $sp, 1392
	addi.d	$a1, $sp, 1392
	ori	$a2, $zero, 3
	jirl	$ra, $a3, 0
.Ltmp394:                               # EH_LABEL
.LBB0_467:                              # %_ZNSt14_Function_baseD2Ev.exit1106
	ld.d	$a3, $sp, 1440
	beqz	$a3, .LBB0_625
# %bb.468:                              # %if.then.i1109
.Ltmp396:                               # EH_LABEL
	addi.d	$a0, $sp, 1424
	addi.d	$a1, $sp, 1424
	ori	$a2, $zero, 3
	jirl	$ra, $a3, 0
.Ltmp397:                               # EH_LABEL
	b	.LBB0_625
.LBB0_469:                              # %terminate.lpad.i1111
.Ltmp398:                               # EH_LABEL
	pcaddu18i	$ra, %call36(__clang_call_terminate)
	jirl	$ra, $ra, 0
.LBB0_470:                              # %terminate.lpad.i1105
.Ltmp395:                               # EH_LABEL
	pcaddu18i	$ra, %call36(__clang_call_terminate)
	jirl	$ra, $ra, 0
.LBB0_471:                              # %lpad175
.Ltmp377:                               # EH_LABEL
	ld.d	$a3, $sp, 1472
	move	$fp, $a0
	beqz	$a3, .LBB0_473
# %bb.472:                              # %if.then.i1091
.Ltmp378:                               # EH_LABEL
	addi.d	$a0, $sp, 1456
	addi.d	$a1, $sp, 1456
	ori	$a2, $zero, 3
	jirl	$ra, $a3, 0
.Ltmp379:                               # EH_LABEL
.LBB0_473:                              # %_ZNSt14_Function_baseD2Ev.exit1094
	ld.d	$a3, $sp, 1504
	beqz	$a3, .LBB0_625
# %bb.474:                              # %if.then.i1097
.Ltmp381:                               # EH_LABEL
	addi.d	$a0, $sp, 1488
	addi.d	$a1, $sp, 1488
	ori	$a2, $zero, 3
	jirl	$ra, $a3, 0
.Ltmp382:                               # EH_LABEL
	b	.LBB0_625
.LBB0_475:                              # %terminate.lpad.i1099
.Ltmp383:                               # EH_LABEL
	pcaddu18i	$ra, %call36(__clang_call_terminate)
	jirl	$ra, $ra, 0
.LBB0_476:                              # %terminate.lpad.i1093
.Ltmp380:                               # EH_LABEL
	pcaddu18i	$ra, %call36(__clang_call_terminate)
	jirl	$ra, $ra, 0
.LBB0_477:                              # %lpad169
.Ltmp362:                               # EH_LABEL
	ld.d	$a3, $sp, 1536
	move	$fp, $a0
	beqz	$a3, .LBB0_479
# %bb.478:                              # %if.then.i1079
.Ltmp363:                               # EH_LABEL
	addi.d	$a0, $sp, 1520
	addi.d	$a1, $sp, 1520
	ori	$a2, $zero, 3
	jirl	$ra, $a3, 0
.Ltmp364:                               # EH_LABEL
.LBB0_479:                              # %_ZNSt14_Function_baseD2Ev.exit1082
	ld.d	$a3, $sp, 1568
	beqz	$a3, .LBB0_625
# %bb.480:                              # %if.then.i1085
.Ltmp366:                               # EH_LABEL
	addi.d	$a0, $sp, 1552
	addi.d	$a1, $sp, 1552
	ori	$a2, $zero, 3
	jirl	$ra, $a3, 0
.Ltmp367:                               # EH_LABEL
	b	.LBB0_625
.LBB0_481:                              # %terminate.lpad.i1087
.Ltmp368:                               # EH_LABEL
	pcaddu18i	$ra, %call36(__clang_call_terminate)
	jirl	$ra, $ra, 0
.LBB0_482:                              # %terminate.lpad.i1081
.Ltmp365:                               # EH_LABEL
	pcaddu18i	$ra, %call36(__clang_call_terminate)
	jirl	$ra, $ra, 0
.LBB0_483:                              # %lpad159
.Ltmp347:                               # EH_LABEL
	ld.d	$a3, $sp, 1600
	move	$fp, $a0
	beqz	$a3, .LBB0_485
# %bb.484:                              # %if.then.i1067
.Ltmp348:                               # EH_LABEL
	addi.d	$a0, $sp, 1584
	addi.d	$a1, $sp, 1584
	ori	$a2, $zero, 3
	jirl	$ra, $a3, 0
.Ltmp349:                               # EH_LABEL
.LBB0_485:                              # %_ZNSt14_Function_baseD2Ev.exit1070
	ld.d	$a3, $sp, 1632
	beqz	$a3, .LBB0_625
# %bb.486:                              # %if.then.i1073
.Ltmp351:                               # EH_LABEL
	addi.d	$a0, $sp, 1616
	addi.d	$a1, $sp, 1616
	ori	$a2, $zero, 3
	jirl	$ra, $a3, 0
.Ltmp352:                               # EH_LABEL
	b	.LBB0_625
.LBB0_487:                              # %terminate.lpad.i1075
.Ltmp353:                               # EH_LABEL
	pcaddu18i	$ra, %call36(__clang_call_terminate)
	jirl	$ra, $ra, 0
.LBB0_488:                              # %terminate.lpad.i1069
.Ltmp350:                               # EH_LABEL
	pcaddu18i	$ra, %call36(__clang_call_terminate)
	jirl	$ra, $ra, 0
.LBB0_489:                              # %lpad153
.Ltmp332:                               # EH_LABEL
	ld.d	$a3, $sp, 1664
	move	$fp, $a0
	beqz	$a3, .LBB0_491
# %bb.490:                              # %if.then.i1055
.Ltmp333:                               # EH_LABEL
	addi.d	$a0, $sp, 1648
	addi.d	$a1, $sp, 1648
	ori	$a2, $zero, 3
	jirl	$ra, $a3, 0
.Ltmp334:                               # EH_LABEL
.LBB0_491:                              # %_ZNSt14_Function_baseD2Ev.exit1058
	ld.d	$a3, $sp, 1696
	beqz	$a3, .LBB0_625
# %bb.492:                              # %if.then.i1061
.Ltmp336:                               # EH_LABEL
	addi.d	$a0, $sp, 1680
	addi.d	$a1, $sp, 1680
	ori	$a2, $zero, 3
	jirl	$ra, $a3, 0
.Ltmp337:                               # EH_LABEL
	b	.LBB0_625
.LBB0_493:                              # %terminate.lpad.i1063
.Ltmp338:                               # EH_LABEL
	pcaddu18i	$ra, %call36(__clang_call_terminate)
	jirl	$ra, $ra, 0
.LBB0_494:                              # %terminate.lpad.i1057
.Ltmp335:                               # EH_LABEL
	pcaddu18i	$ra, %call36(__clang_call_terminate)
	jirl	$ra, $ra, 0
.LBB0_495:                              # %lpad147
.Ltmp317:                               # EH_LABEL
	ld.d	$a3, $sp, 1728
	move	$fp, $a0
	beqz	$a3, .LBB0_497
# %bb.496:                              # %if.then.i1043
.Ltmp318:                               # EH_LABEL
	addi.d	$a0, $sp, 1712
	addi.d	$a1, $sp, 1712
	ori	$a2, $zero, 3
	jirl	$ra, $a3, 0
.Ltmp319:                               # EH_LABEL
.LBB0_497:                              # %_ZNSt14_Function_baseD2Ev.exit1046
	ld.d	$a3, $sp, 1760
	beqz	$a3, .LBB0_625
# %bb.498:                              # %if.then.i1049
.Ltmp321:                               # EH_LABEL
	addi.d	$a0, $sp, 1744
	addi.d	$a1, $sp, 1744
	ori	$a2, $zero, 3
	jirl	$ra, $a3, 0
.Ltmp322:                               # EH_LABEL
	b	.LBB0_625
.LBB0_499:                              # %terminate.lpad.i1051
.Ltmp323:                               # EH_LABEL
	pcaddu18i	$ra, %call36(__clang_call_terminate)
	jirl	$ra, $ra, 0
.LBB0_500:                              # %terminate.lpad.i1045
.Ltmp320:                               # EH_LABEL
	pcaddu18i	$ra, %call36(__clang_call_terminate)
	jirl	$ra, $ra, 0
.LBB0_501:                              # %lpad137
.Ltmp302:                               # EH_LABEL
	ld.d	$a3, $sp, 1792
	move	$fp, $a0
	beqz	$a3, .LBB0_503
# %bb.502:                              # %if.then.i1031
.Ltmp303:                               # EH_LABEL
	addi.d	$a0, $sp, 1776
	addi.d	$a1, $sp, 1776
	ori	$a2, $zero, 3
	jirl	$ra, $a3, 0
.Ltmp304:                               # EH_LABEL
.LBB0_503:                              # %_ZNSt14_Function_baseD2Ev.exit1034
	ld.d	$a3, $sp, 1824
	beqz	$a3, .LBB0_625
# %bb.504:                              # %if.then.i1037
.Ltmp306:                               # EH_LABEL
	addi.d	$a0, $sp, 1808
	addi.d	$a1, $sp, 1808
	ori	$a2, $zero, 3
	jirl	$ra, $a3, 0
.Ltmp307:                               # EH_LABEL
	b	.LBB0_625
.LBB0_505:                              # %terminate.lpad.i1039
.Ltmp308:                               # EH_LABEL
	pcaddu18i	$ra, %call36(__clang_call_terminate)
	jirl	$ra, $ra, 0
.LBB0_506:                              # %terminate.lpad.i1033
.Ltmp305:                               # EH_LABEL
	pcaddu18i	$ra, %call36(__clang_call_terminate)
	jirl	$ra, $ra, 0
.LBB0_507:                              # %lpad131
.Ltmp287:                               # EH_LABEL
	ld.d	$a3, $sp, 1856
	move	$fp, $a0
	beqz	$a3, .LBB0_509
# %bb.508:                              # %if.then.i1019
.Ltmp288:                               # EH_LABEL
	addi.d	$a0, $sp, 1840
	addi.d	$a1, $sp, 1840
	ori	$a2, $zero, 3
	jirl	$ra, $a3, 0
.Ltmp289:                               # EH_LABEL
.LBB0_509:                              # %_ZNSt14_Function_baseD2Ev.exit1022
	ld.d	$a3, $sp, 1888
	beqz	$a3, .LBB0_625
# %bb.510:                              # %if.then.i1025
.Ltmp291:                               # EH_LABEL
	addi.d	$a0, $sp, 1872
	addi.d	$a1, $sp, 1872
	ori	$a2, $zero, 3
	jirl	$ra, $a3, 0
.Ltmp292:                               # EH_LABEL
	b	.LBB0_625
.LBB0_511:                              # %terminate.lpad.i1027
.Ltmp293:                               # EH_LABEL
	pcaddu18i	$ra, %call36(__clang_call_terminate)
	jirl	$ra, $ra, 0
.LBB0_512:                              # %terminate.lpad.i1021
.Ltmp290:                               # EH_LABEL
	pcaddu18i	$ra, %call36(__clang_call_terminate)
	jirl	$ra, $ra, 0
.LBB0_513:                              # %lpad125
.Ltmp272:                               # EH_LABEL
	ld.d	$a3, $sp, 1920
	move	$fp, $a0
	beqz	$a3, .LBB0_515
# %bb.514:                              # %if.then.i1007
.Ltmp273:                               # EH_LABEL
	addi.d	$a0, $sp, 1904
	addi.d	$a1, $sp, 1904
	ori	$a2, $zero, 3
	jirl	$ra, $a3, 0
.Ltmp274:                               # EH_LABEL
.LBB0_515:                              # %_ZNSt14_Function_baseD2Ev.exit1010
	ld.d	$a3, $sp, 1952
	beqz	$a3, .LBB0_625
# %bb.516:                              # %if.then.i1013
.Ltmp276:                               # EH_LABEL
	addi.d	$a0, $sp, 1936
	addi.d	$a1, $sp, 1936
	ori	$a2, $zero, 3
	jirl	$ra, $a3, 0
.Ltmp277:                               # EH_LABEL
	b	.LBB0_625
.LBB0_517:                              # %terminate.lpad.i1015
.Ltmp278:                               # EH_LABEL
	pcaddu18i	$ra, %call36(__clang_call_terminate)
	jirl	$ra, $ra, 0
.LBB0_518:                              # %terminate.lpad.i1009
.Ltmp275:                               # EH_LABEL
	pcaddu18i	$ra, %call36(__clang_call_terminate)
	jirl	$ra, $ra, 0
.LBB0_519:                              # %lpad115
.Ltmp257:                               # EH_LABEL
	ld.d	$a3, $sp, 1984
	move	$fp, $a0
	beqz	$a3, .LBB0_521
# %bb.520:                              # %if.then.i995
.Ltmp258:                               # EH_LABEL
	addi.d	$a0, $sp, 1968
	addi.d	$a1, $sp, 1968
	ori	$a2, $zero, 3
	jirl	$ra, $a3, 0
.Ltmp259:                               # EH_LABEL
.LBB0_521:                              # %_ZNSt14_Function_baseD2Ev.exit998
	ld.d	$a3, $sp, 2016
	beqz	$a3, .LBB0_625
# %bb.522:                              # %if.then.i1001
.Ltmp261:                               # EH_LABEL
	addi.d	$a0, $sp, 2000
	addi.d	$a1, $sp, 2000
	ori	$a2, $zero, 3
	jirl	$ra, $a3, 0
.Ltmp262:                               # EH_LABEL
	b	.LBB0_625
.LBB0_523:                              # %terminate.lpad.i1003
.Ltmp263:                               # EH_LABEL
	pcaddu18i	$ra, %call36(__clang_call_terminate)
	jirl	$ra, $ra, 0
.LBB0_524:                              # %terminate.lpad.i997
.Ltmp260:                               # EH_LABEL
	pcaddu18i	$ra, %call36(__clang_call_terminate)
	jirl	$ra, $ra, 0
.LBB0_525:                              # %lpad109
.Ltmp242:                               # EH_LABEL
	ori	$a1, $zero, 2048
	add.d	$a1, $sp, $a1
	ld.d	$a3, $a1, 0
	move	$fp, $a0
	beqz	$a3, .LBB0_527
# %bb.526:                              # %if.then.i983
.Ltmp243:                               # EH_LABEL
	addi.d	$a0, $sp, 2032
	addi.d	$a1, $sp, 2032
	ori	$a2, $zero, 3
	jirl	$ra, $a3, 0
.Ltmp244:                               # EH_LABEL
.LBB0_527:                              # %_ZNSt14_Function_baseD2Ev.exit986
	ori	$a0, $zero, 2080
	add.d	$a0, $sp, $a0
	ld.d	$a3, $a0, 0
	beqz	$a3, .LBB0_625
# %bb.528:                              # %if.then.i989
.Ltmp246:                               # EH_LABEL
	ori	$a0, $zero, 2064
	add.d	$a0, $sp, $a0
	ori	$a1, $zero, 2064
	add.d	$a1, $sp, $a1
	ori	$a2, $zero, 3
	jirl	$ra, $a3, 0
.Ltmp247:                               # EH_LABEL
	b	.LBB0_625
.LBB0_529:                              # %terminate.lpad.i991
.Ltmp248:                               # EH_LABEL
	pcaddu18i	$ra, %call36(__clang_call_terminate)
	jirl	$ra, $ra, 0
.LBB0_530:                              # %terminate.lpad.i985
.Ltmp245:                               # EH_LABEL
	pcaddu18i	$ra, %call36(__clang_call_terminate)
	jirl	$ra, $ra, 0
.LBB0_531:                              # %lpad103
.Ltmp227:                               # EH_LABEL
	ori	$a1, $zero, 2112
	add.d	$a1, $sp, $a1
	ld.d	$a3, $a1, 0
	move	$fp, $a0
	beqz	$a3, .LBB0_533
# %bb.532:                              # %if.then.i971
.Ltmp228:                               # EH_LABEL
	ori	$a0, $zero, 2096
	add.d	$a0, $sp, $a0
	ori	$a1, $zero, 2096
	add.d	$a1, $sp, $a1
	ori	$a2, $zero, 3
	jirl	$ra, $a3, 0
.Ltmp229:                               # EH_LABEL
.LBB0_533:                              # %_ZNSt14_Function_baseD2Ev.exit974
	ori	$a0, $zero, 2144
	add.d	$a0, $sp, $a0
	ld.d	$a3, $a0, 0
	beqz	$a3, .LBB0_625
# %bb.534:                              # %if.then.i977
.Ltmp231:                               # EH_LABEL
	ori	$a0, $zero, 2128
	add.d	$a0, $sp, $a0
	ori	$a1, $zero, 2128
	add.d	$a1, $sp, $a1
	ori	$a2, $zero, 3
	jirl	$ra, $a3, 0
.Ltmp232:                               # EH_LABEL
	b	.LBB0_625
.LBB0_535:                              # %terminate.lpad.i979
.Ltmp233:                               # EH_LABEL
	pcaddu18i	$ra, %call36(__clang_call_terminate)
	jirl	$ra, $ra, 0
.LBB0_536:                              # %terminate.lpad.i973
.Ltmp230:                               # EH_LABEL
	pcaddu18i	$ra, %call36(__clang_call_terminate)
	jirl	$ra, $ra, 0
.LBB0_537:                              # %lpad93
.Ltmp212:                               # EH_LABEL
	ori	$a1, $zero, 2176
	add.d	$a1, $sp, $a1
	ld.d	$a3, $a1, 0
	move	$fp, $a0
	beqz	$a3, .LBB0_539
# %bb.538:                              # %if.then.i959
.Ltmp213:                               # EH_LABEL
	ori	$a0, $zero, 2160
	add.d	$a0, $sp, $a0
	ori	$a1, $zero, 2160
	add.d	$a1, $sp, $a1
	ori	$a2, $zero, 3
	jirl	$ra, $a3, 0
.Ltmp214:                               # EH_LABEL
.LBB0_539:                              # %_ZNSt14_Function_baseD2Ev.exit962
	ori	$a0, $zero, 2208
	add.d	$a0, $sp, $a0
	ld.d	$a3, $a0, 0
	beqz	$a3, .LBB0_625
# %bb.540:                              # %if.then.i965
.Ltmp216:                               # EH_LABEL
	ori	$a0, $zero, 2192
	add.d	$a0, $sp, $a0
	ori	$a1, $zero, 2192
	add.d	$a1, $sp, $a1
	ori	$a2, $zero, 3
	jirl	$ra, $a3, 0
.Ltmp217:                               # EH_LABEL
	b	.LBB0_625
.LBB0_541:                              # %terminate.lpad.i967
.Ltmp218:                               # EH_LABEL
	pcaddu18i	$ra, %call36(__clang_call_terminate)
	jirl	$ra, $ra, 0
.LBB0_542:                              # %terminate.lpad.i961
.Ltmp215:                               # EH_LABEL
	pcaddu18i	$ra, %call36(__clang_call_terminate)
	jirl	$ra, $ra, 0
.LBB0_543:                              # %lpad87
.Ltmp197:                               # EH_LABEL
	ori	$a1, $zero, 2240
	add.d	$a1, $sp, $a1
	ld.d	$a3, $a1, 0
	move	$fp, $a0
	beqz	$a3, .LBB0_545
# %bb.544:                              # %if.then.i947
.Ltmp198:                               # EH_LABEL
	ori	$a0, $zero, 2224
	add.d	$a0, $sp, $a0
	ori	$a1, $zero, 2224
	add.d	$a1, $sp, $a1
	ori	$a2, $zero, 3
	jirl	$ra, $a3, 0
.Ltmp199:                               # EH_LABEL
.LBB0_545:                              # %_ZNSt14_Function_baseD2Ev.exit950
	ori	$a0, $zero, 2272
	add.d	$a0, $sp, $a0
	ld.d	$a3, $a0, 0
	beqz	$a3, .LBB0_625
# %bb.546:                              # %if.then.i953
.Ltmp201:                               # EH_LABEL
	ori	$a0, $zero, 2256
	add.d	$a0, $sp, $a0
	ori	$a1, $zero, 2256
	add.d	$a1, $sp, $a1
	ori	$a2, $zero, 3
	jirl	$ra, $a3, 0
.Ltmp202:                               # EH_LABEL
	b	.LBB0_625
.LBB0_547:                              # %terminate.lpad.i955
.Ltmp203:                               # EH_LABEL
	pcaddu18i	$ra, %call36(__clang_call_terminate)
	jirl	$ra, $ra, 0
.LBB0_548:                              # %terminate.lpad.i949
.Ltmp200:                               # EH_LABEL
	pcaddu18i	$ra, %call36(__clang_call_terminate)
	jirl	$ra, $ra, 0
.LBB0_549:                              # %lpad81
.Ltmp182:                               # EH_LABEL
	ori	$a1, $zero, 2304
	add.d	$a1, $sp, $a1
	ld.d	$a3, $a1, 0
	move	$fp, $a0
	beqz	$a3, .LBB0_551
# %bb.550:                              # %if.then.i935
.Ltmp183:                               # EH_LABEL
	ori	$a0, $zero, 2288
	add.d	$a0, $sp, $a0
	ori	$a1, $zero, 2288
	add.d	$a1, $sp, $a1
	ori	$a2, $zero, 3
	jirl	$ra, $a3, 0
.Ltmp184:                               # EH_LABEL
.LBB0_551:                              # %_ZNSt14_Function_baseD2Ev.exit938
	ori	$a0, $zero, 2336
	add.d	$a0, $sp, $a0
	ld.d	$a3, $a0, 0
	beqz	$a3, .LBB0_625
# %bb.552:                              # %if.then.i941
.Ltmp186:                               # EH_LABEL
	ori	$a0, $zero, 2320
	add.d	$a0, $sp, $a0
	ori	$a1, $zero, 2320
	add.d	$a1, $sp, $a1
	ori	$a2, $zero, 3
	jirl	$ra, $a3, 0
.Ltmp187:                               # EH_LABEL
	b	.LBB0_625
.LBB0_553:                              # %terminate.lpad.i943
.Ltmp188:                               # EH_LABEL
	pcaddu18i	$ra, %call36(__clang_call_terminate)
	jirl	$ra, $ra, 0
.LBB0_554:                              # %terminate.lpad.i937
.Ltmp185:                               # EH_LABEL
	pcaddu18i	$ra, %call36(__clang_call_terminate)
	jirl	$ra, $ra, 0
.LBB0_555:                              # %lpad71
.Ltmp167:                               # EH_LABEL
	ori	$a1, $zero, 2368
	add.d	$a1, $sp, $a1
	ld.d	$a3, $a1, 0
	move	$fp, $a0
	beqz	$a3, .LBB0_557
# %bb.556:                              # %if.then.i923
.Ltmp168:                               # EH_LABEL
	ori	$a0, $zero, 2352
	add.d	$a0, $sp, $a0
	ori	$a1, $zero, 2352
	add.d	$a1, $sp, $a1
	ori	$a2, $zero, 3
	jirl	$ra, $a3, 0
.Ltmp169:                               # EH_LABEL
.LBB0_557:                              # %_ZNSt14_Function_baseD2Ev.exit926
	ori	$a0, $zero, 2400
	add.d	$a0, $sp, $a0
	ld.d	$a3, $a0, 0
	beqz	$a3, .LBB0_625
# %bb.558:                              # %if.then.i929
.Ltmp171:                               # EH_LABEL
	ori	$a0, $zero, 2384
	add.d	$a0, $sp, $a0
	ori	$a1, $zero, 2384
	add.d	$a1, $sp, $a1
	ori	$a2, $zero, 3
	jirl	$ra, $a3, 0
.Ltmp172:                               # EH_LABEL
	b	.LBB0_625
.LBB0_559:                              # %terminate.lpad.i931
.Ltmp173:                               # EH_LABEL
	pcaddu18i	$ra, %call36(__clang_call_terminate)
	jirl	$ra, $ra, 0
.LBB0_560:                              # %terminate.lpad.i925
.Ltmp170:                               # EH_LABEL
	pcaddu18i	$ra, %call36(__clang_call_terminate)
	jirl	$ra, $ra, 0
.LBB0_561:                              # %lpad65
.Ltmp152:                               # EH_LABEL
	ori	$a1, $zero, 2432
	add.d	$a1, $sp, $a1
	ld.d	$a3, $a1, 0
	move	$fp, $a0
	beqz	$a3, .LBB0_563
# %bb.562:                              # %if.then.i911
.Ltmp153:                               # EH_LABEL
	ori	$a0, $zero, 2416
	add.d	$a0, $sp, $a0
	ori	$a1, $zero, 2416
	add.d	$a1, $sp, $a1
	ori	$a2, $zero, 3
	jirl	$ra, $a3, 0
.Ltmp154:                               # EH_LABEL
.LBB0_563:                              # %_ZNSt14_Function_baseD2Ev.exit914
	ori	$a0, $zero, 2464
	add.d	$a0, $sp, $a0
	ld.d	$a3, $a0, 0
	beqz	$a3, .LBB0_625
# %bb.564:                              # %if.then.i917
.Ltmp156:                               # EH_LABEL
	ori	$a0, $zero, 2448
	add.d	$a0, $sp, $a0
	ori	$a1, $zero, 2448
	add.d	$a1, $sp, $a1
	ori	$a2, $zero, 3
	jirl	$ra, $a3, 0
.Ltmp157:                               # EH_LABEL
	b	.LBB0_625
.LBB0_565:                              # %terminate.lpad.i919
.Ltmp158:                               # EH_LABEL
	pcaddu18i	$ra, %call36(__clang_call_terminate)
	jirl	$ra, $ra, 0
.LBB0_566:                              # %terminate.lpad.i913
.Ltmp155:                               # EH_LABEL
	pcaddu18i	$ra, %call36(__clang_call_terminate)
	jirl	$ra, $ra, 0
.LBB0_567:                              # %lpad59
.Ltmp137:                               # EH_LABEL
	ori	$a1, $zero, 2496
	add.d	$a1, $sp, $a1
	ld.d	$a3, $a1, 0
	move	$fp, $a0
	beqz	$a3, .LBB0_569
# %bb.568:                              # %if.then.i899
.Ltmp138:                               # EH_LABEL
	ori	$a0, $zero, 2480
	add.d	$a0, $sp, $a0
	ori	$a1, $zero, 2480
	add.d	$a1, $sp, $a1
	ori	$a2, $zero, 3
	jirl	$ra, $a3, 0
.Ltmp139:                               # EH_LABEL
.LBB0_569:                              # %_ZNSt14_Function_baseD2Ev.exit902
	ori	$a0, $zero, 2528
	add.d	$a0, $sp, $a0
	ld.d	$a3, $a0, 0
	beqz	$a3, .LBB0_625
# %bb.570:                              # %if.then.i905
.Ltmp141:                               # EH_LABEL
	ori	$a0, $zero, 2512
	add.d	$a0, $sp, $a0
	ori	$a1, $zero, 2512
	add.d	$a1, $sp, $a1
	ori	$a2, $zero, 3
	jirl	$ra, $a3, 0
.Ltmp142:                               # EH_LABEL
	b	.LBB0_625
.LBB0_571:                              # %terminate.lpad.i907
.Ltmp143:                               # EH_LABEL
	pcaddu18i	$ra, %call36(__clang_call_terminate)
	jirl	$ra, $ra, 0
.LBB0_572:                              # %terminate.lpad.i901
.Ltmp140:                               # EH_LABEL
	pcaddu18i	$ra, %call36(__clang_call_terminate)
	jirl	$ra, $ra, 0
.LBB0_573:                              # %lpad49
.Ltmp122:                               # EH_LABEL
	ori	$a1, $zero, 2560
	add.d	$a1, $sp, $a1
	ld.d	$a3, $a1, 0
	move	$fp, $a0
	beqz	$a3, .LBB0_575
# %bb.574:                              # %if.then.i887
.Ltmp123:                               # EH_LABEL
	ori	$a0, $zero, 2544
	add.d	$a0, $sp, $a0
	ori	$a1, $zero, 2544
	add.d	$a1, $sp, $a1
	ori	$a2, $zero, 3
	jirl	$ra, $a3, 0
.Ltmp124:                               # EH_LABEL
.LBB0_575:                              # %_ZNSt14_Function_baseD2Ev.exit890
	ori	$a0, $zero, 2592
	add.d	$a0, $sp, $a0
	ld.d	$a3, $a0, 0
	beqz	$a3, .LBB0_625
# %bb.576:                              # %if.then.i893
.Ltmp126:                               # EH_LABEL
	ori	$a0, $zero, 2576
	add.d	$a0, $sp, $a0
	ori	$a1, $zero, 2576
	add.d	$a1, $sp, $a1
	ori	$a2, $zero, 3
	jirl	$ra, $a3, 0
.Ltmp127:                               # EH_LABEL
	b	.LBB0_625
.LBB0_577:                              # %terminate.lpad.i895
.Ltmp128:                               # EH_LABEL
	pcaddu18i	$ra, %call36(__clang_call_terminate)
	jirl	$ra, $ra, 0
.LBB0_578:                              # %terminate.lpad.i889
.Ltmp125:                               # EH_LABEL
	pcaddu18i	$ra, %call36(__clang_call_terminate)
	jirl	$ra, $ra, 0
.LBB0_579:                              # %lpad43
.Ltmp107:                               # EH_LABEL
	ori	$a1, $zero, 2624
	add.d	$a1, $sp, $a1
	ld.d	$a3, $a1, 0
	move	$fp, $a0
	beqz	$a3, .LBB0_581
# %bb.580:                              # %if.then.i875
.Ltmp108:                               # EH_LABEL
	ori	$a0, $zero, 2608
	add.d	$a0, $sp, $a0
	ori	$a1, $zero, 2608
	add.d	$a1, $sp, $a1
	ori	$a2, $zero, 3
	jirl	$ra, $a3, 0
.Ltmp109:                               # EH_LABEL
.LBB0_581:                              # %_ZNSt14_Function_baseD2Ev.exit878
	ori	$a0, $zero, 2656
	add.d	$a0, $sp, $a0
	ld.d	$a3, $a0, 0
	beqz	$a3, .LBB0_625
# %bb.582:                              # %if.then.i881
.Ltmp111:                               # EH_LABEL
	ori	$a0, $zero, 2640
	add.d	$a0, $sp, $a0
	ori	$a1, $zero, 2640
	add.d	$a1, $sp, $a1
	ori	$a2, $zero, 3
	jirl	$ra, $a3, 0
.Ltmp112:                               # EH_LABEL
	b	.LBB0_625
.LBB0_583:                              # %terminate.lpad.i883
.Ltmp113:                               # EH_LABEL
	pcaddu18i	$ra, %call36(__clang_call_terminate)
	jirl	$ra, $ra, 0
.LBB0_584:                              # %terminate.lpad.i877
.Ltmp110:                               # EH_LABEL
	pcaddu18i	$ra, %call36(__clang_call_terminate)
	jirl	$ra, $ra, 0
.LBB0_585:                              # %lpad37
.Ltmp92:                                # EH_LABEL
	ori	$a1, $zero, 2688
	add.d	$a1, $sp, $a1
	ld.d	$a3, $a1, 0
	move	$fp, $a0
	beqz	$a3, .LBB0_587
# %bb.586:                              # %if.then.i863
.Ltmp93:                                # EH_LABEL
	ori	$a0, $zero, 2672
	add.d	$a0, $sp, $a0
	ori	$a1, $zero, 2672
	add.d	$a1, $sp, $a1
	ori	$a2, $zero, 3
	jirl	$ra, $a3, 0
.Ltmp94:                                # EH_LABEL
.LBB0_587:                              # %_ZNSt14_Function_baseD2Ev.exit866
	ori	$a0, $zero, 2720
	add.d	$a0, $sp, $a0
	ld.d	$a3, $a0, 0
	beqz	$a3, .LBB0_625
# %bb.588:                              # %if.then.i869
.Ltmp96:                                # EH_LABEL
	ori	$a0, $zero, 2704
	add.d	$a0, $sp, $a0
	ori	$a1, $zero, 2704
	add.d	$a1, $sp, $a1
	ori	$a2, $zero, 3
	jirl	$ra, $a3, 0
.Ltmp97:                                # EH_LABEL
	b	.LBB0_625
.LBB0_589:                              # %terminate.lpad.i871
.Ltmp98:                                # EH_LABEL
	pcaddu18i	$ra, %call36(__clang_call_terminate)
	jirl	$ra, $ra, 0
.LBB0_590:                              # %terminate.lpad.i865
.Ltmp95:                                # EH_LABEL
	pcaddu18i	$ra, %call36(__clang_call_terminate)
	jirl	$ra, $ra, 0
.LBB0_591:                              # %lpad27
.Ltmp77:                                # EH_LABEL
	ori	$a1, $zero, 2752
	add.d	$a1, $sp, $a1
	ld.d	$a3, $a1, 0
	move	$fp, $a0
	beqz	$a3, .LBB0_593
# %bb.592:                              # %if.then.i851
.Ltmp78:                                # EH_LABEL
	ori	$a0, $zero, 2736
	add.d	$a0, $sp, $a0
	ori	$a1, $zero, 2736
	add.d	$a1, $sp, $a1
	ori	$a2, $zero, 3
	jirl	$ra, $a3, 0
.Ltmp79:                                # EH_LABEL
.LBB0_593:                              # %_ZNSt14_Function_baseD2Ev.exit854
	ori	$a0, $zero, 2784
	add.d	$a0, $sp, $a0
	ld.d	$a3, $a0, 0
	beqz	$a3, .LBB0_625
# %bb.594:                              # %if.then.i857
.Ltmp81:                                # EH_LABEL
	ori	$a0, $zero, 2768
	add.d	$a0, $sp, $a0
	ori	$a1, $zero, 2768
	add.d	$a1, $sp, $a1
	ori	$a2, $zero, 3
	jirl	$ra, $a3, 0
.Ltmp82:                                # EH_LABEL
	b	.LBB0_625
.LBB0_595:                              # %terminate.lpad.i859
.Ltmp83:                                # EH_LABEL
	pcaddu18i	$ra, %call36(__clang_call_terminate)
	jirl	$ra, $ra, 0
.LBB0_596:                              # %terminate.lpad.i853
.Ltmp80:                                # EH_LABEL
	pcaddu18i	$ra, %call36(__clang_call_terminate)
	jirl	$ra, $ra, 0
.LBB0_597:                              # %lpad21
.Ltmp62:                                # EH_LABEL
	ori	$a1, $zero, 2816
	add.d	$a1, $sp, $a1
	ld.d	$a3, $a1, 0
	move	$fp, $a0
	beqz	$a3, .LBB0_599
# %bb.598:                              # %if.then.i839
.Ltmp63:                                # EH_LABEL
	ori	$a0, $zero, 2800
	add.d	$a0, $sp, $a0
	ori	$a1, $zero, 2800
	add.d	$a1, $sp, $a1
	ori	$a2, $zero, 3
	jirl	$ra, $a3, 0
.Ltmp64:                                # EH_LABEL
.LBB0_599:                              # %_ZNSt14_Function_baseD2Ev.exit842
	ori	$a0, $zero, 2848
	add.d	$a0, $sp, $a0
	ld.d	$a3, $a0, 0
	beqz	$a3, .LBB0_625
# %bb.600:                              # %if.then.i845
.Ltmp66:                                # EH_LABEL
	ori	$a0, $zero, 2832
	add.d	$a0, $sp, $a0
	ori	$a1, $zero, 2832
	add.d	$a1, $sp, $a1
	ori	$a2, $zero, 3
	jirl	$ra, $a3, 0
.Ltmp67:                                # EH_LABEL
	b	.LBB0_625
.LBB0_601:                              # %terminate.lpad.i847
.Ltmp68:                                # EH_LABEL
	pcaddu18i	$ra, %call36(__clang_call_terminate)
	jirl	$ra, $ra, 0
.LBB0_602:                              # %terminate.lpad.i841
.Ltmp65:                                # EH_LABEL
	pcaddu18i	$ra, %call36(__clang_call_terminate)
	jirl	$ra, $ra, 0
.LBB0_603:                              # %lpad15
.Ltmp47:                                # EH_LABEL
	ori	$a1, $zero, 2880
	add.d	$a1, $sp, $a1
	ld.d	$a3, $a1, 0
	move	$fp, $a0
	beqz	$a3, .LBB0_605
# %bb.604:                              # %if.then.i827
.Ltmp48:                                # EH_LABEL
	ori	$a0, $zero, 2864
	add.d	$a0, $sp, $a0
	ori	$a1, $zero, 2864
	add.d	$a1, $sp, $a1
	ori	$a2, $zero, 3
	jirl	$ra, $a3, 0
.Ltmp49:                                # EH_LABEL
.LBB0_605:                              # %_ZNSt14_Function_baseD2Ev.exit830
	ori	$a0, $zero, 2912
	add.d	$a0, $sp, $a0
	ld.d	$a3, $a0, 0
	beqz	$a3, .LBB0_625
# %bb.606:                              # %if.then.i833
.Ltmp51:                                # EH_LABEL
	ori	$a0, $zero, 2896
	add.d	$a0, $sp, $a0
	ori	$a1, $zero, 2896
	add.d	$a1, $sp, $a1
	ori	$a2, $zero, 3
	jirl	$ra, $a3, 0
.Ltmp52:                                # EH_LABEL
	b	.LBB0_625
.LBB0_607:                              # %terminate.lpad.i835
.Ltmp53:                                # EH_LABEL
	pcaddu18i	$ra, %call36(__clang_call_terminate)
	jirl	$ra, $ra, 0
.LBB0_608:                              # %terminate.lpad.i829
.Ltmp50:                                # EH_LABEL
	pcaddu18i	$ra, %call36(__clang_call_terminate)
	jirl	$ra, $ra, 0
.LBB0_609:                              # %lpad8
.Ltmp32:                                # EH_LABEL
	ori	$a1, $zero, 2944
	add.d	$a1, $sp, $a1
	ld.d	$a3, $a1, 0
	move	$fp, $a0
	beqz	$a3, .LBB0_611
# %bb.610:                              # %if.then.i815
.Ltmp33:                                # EH_LABEL
	ori	$a0, $zero, 2928
	add.d	$a0, $sp, $a0
	ori	$a1, $zero, 2928
	add.d	$a1, $sp, $a1
	ori	$a2, $zero, 3
	jirl	$ra, $a3, 0
.Ltmp34:                                # EH_LABEL
.LBB0_611:                              # %_ZNSt14_Function_baseD2Ev.exit818
	ori	$a0, $zero, 2976
	add.d	$a0, $sp, $a0
	ld.d	$a3, $a0, 0
	beqz	$a3, .LBB0_625
# %bb.612:                              # %if.then.i821
.Ltmp36:                                # EH_LABEL
	ori	$a0, $zero, 2960
	add.d	$a0, $sp, $a0
	ori	$a1, $zero, 2960
	add.d	$a1, $sp, $a1
	ori	$a2, $zero, 3
	jirl	$ra, $a3, 0
.Ltmp37:                                # EH_LABEL
	b	.LBB0_625
.LBB0_613:                              # %terminate.lpad.i823
.Ltmp38:                                # EH_LABEL
	pcaddu18i	$ra, %call36(__clang_call_terminate)
	jirl	$ra, $ra, 0
.LBB0_614:                              # %terminate.lpad.i817
.Ltmp35:                                # EH_LABEL
	pcaddu18i	$ra, %call36(__clang_call_terminate)
	jirl	$ra, $ra, 0
.LBB0_615:                              # %lpad4
.Ltmp17:                                # EH_LABEL
	ori	$a1, $zero, 3008
	add.d	$a1, $sp, $a1
	ld.d	$a3, $a1, 0
	move	$fp, $a0
	beqz	$a3, .LBB0_617
# %bb.616:                              # %if.then.i803
.Ltmp18:                                # EH_LABEL
	ori	$a0, $zero, 2992
	add.d	$a0, $sp, $a0
	ori	$a1, $zero, 2992
	add.d	$a1, $sp, $a1
	ori	$a2, $zero, 3
	jirl	$ra, $a3, 0
.Ltmp19:                                # EH_LABEL
.LBB0_617:                              # %_ZNSt14_Function_baseD2Ev.exit806
	ori	$a0, $zero, 3040
	add.d	$a0, $sp, $a0
	ld.d	$a3, $a0, 0
	beqz	$a3, .LBB0_625
# %bb.618:                              # %if.then.i809
.Ltmp21:                                # EH_LABEL
	ori	$a0, $zero, 3024
	add.d	$a0, $sp, $a0
	ori	$a1, $zero, 3024
	add.d	$a1, $sp, $a1
	ori	$a2, $zero, 3
	jirl	$ra, $a3, 0
.Ltmp22:                                # EH_LABEL
	b	.LBB0_625
.LBB0_619:                              # %terminate.lpad.i811
.Ltmp23:                                # EH_LABEL
	pcaddu18i	$ra, %call36(__clang_call_terminate)
	jirl	$ra, $ra, 0
.LBB0_620:                              # %terminate.lpad.i805
.Ltmp20:                                # EH_LABEL
	pcaddu18i	$ra, %call36(__clang_call_terminate)
	jirl	$ra, $ra, 0
.LBB0_621:                              # %lpad
.Ltmp2:                                 # EH_LABEL
	ori	$a1, $zero, 3072
	add.d	$a1, $sp, $a1
	ld.d	$a3, $a1, 0
	move	$fp, $a0
	beqz	$a3, .LBB0_623
# %bb.622:                              # %if.then.i791
.Ltmp3:                                 # EH_LABEL
	ori	$a0, $zero, 3056
	add.d	$a0, $sp, $a0
	ori	$a1, $zero, 3056
	add.d	$a1, $sp, $a1
	ori	$a2, $zero, 3
	jirl	$ra, $a3, 0
.Ltmp4:                                 # EH_LABEL
.LBB0_623:                              # %_ZNSt14_Function_baseD2Ev.exit794
	ori	$a0, $zero, 3104
	add.d	$a0, $sp, $a0
	ld.d	$a3, $a0, 0
	beqz	$a3, .LBB0_625
# %bb.624:                              # %if.then.i797
.Ltmp6:                                 # EH_LABEL
	ori	$a0, $zero, 3088
	add.d	$a0, $sp, $a0
	ori	$a1, $zero, 3088
	add.d	$a1, $sp, $a1
	ori	$a2, $zero, 3
	jirl	$ra, $a3, 0
.Ltmp7:                                 # EH_LABEL
.LBB0_625:                              # %eh.resume
	move	$a0, $fp
	pcaddu18i	$ra, %call36(_Unwind_Resume)
	jirl	$ra, $ra, 0
.LBB0_626:                              # %terminate.lpad.i799
.Ltmp8:                                 # EH_LABEL
	pcaddu18i	$ra, %call36(__clang_call_terminate)
	jirl	$ra, $ra, 0
.LBB0_627:                              # %terminate.lpad.i793
.Ltmp5:                                 # EH_LABEL
	pcaddu18i	$ra, %call36(__clang_call_terminate)
	jirl	$ra, $ra, 0
.Lfunc_end0:
	.size	main, .Lfunc_end0-main
	.cfi_endproc
	.section	.gcc_except_table,"a",@progbits
	.p2align	2, 0x0
GCC_except_table0:
.Lexception0:
	.byte	255                             # @LPStart Encoding = omit
	.byte	155                             # @TType Encoding = indirect pcrel sdata4
	.uleb128 .Lttbase0-.Lttbaseref0
.Lttbaseref0:
	.byte	1                               # Call site Encoding = uleb128
	.uleb128 .Lcst_end0-.Lcst_begin0
.Lcst_begin0:
	.uleb128 .Lfunc_begin0-.Lfunc_begin0    # >> Call Site 1 <<
	.uleb128 .Ltmp0-.Lfunc_begin0           #   Call between .Lfunc_begin0 and .Ltmp0
	.byte	0                               #     has no landing pad
	.byte	0                               #   On action: cleanup
	.uleb128 .Ltmp0-.Lfunc_begin0           # >> Call Site 2 <<
	.uleb128 .Ltmp1-.Ltmp0                  #   Call between .Ltmp0 and .Ltmp1
	.uleb128 .Ltmp2-.Lfunc_begin0           #     jumps to .Ltmp2
	.byte	0                               #   On action: cleanup
	.uleb128 .Ltmp9-.Lfunc_begin0           # >> Call Site 3 <<
	.uleb128 .Ltmp10-.Ltmp9                 #   Call between .Ltmp9 and .Ltmp10
	.uleb128 .Ltmp11-.Lfunc_begin0          #     jumps to .Ltmp11
	.byte	1                               #   On action: 1
	.uleb128 .Ltmp12-.Lfunc_begin0          # >> Call Site 4 <<
	.uleb128 .Ltmp13-.Ltmp12                #   Call between .Ltmp12 and .Ltmp13
	.uleb128 .Ltmp14-.Lfunc_begin0          #     jumps to .Ltmp14
	.byte	1                               #   On action: 1
	.uleb128 .Ltmp15-.Lfunc_begin0          # >> Call Site 5 <<
	.uleb128 .Ltmp16-.Ltmp15                #   Call between .Ltmp15 and .Ltmp16
	.uleb128 .Ltmp17-.Lfunc_begin0          #     jumps to .Ltmp17
	.byte	0                               #   On action: cleanup
	.uleb128 .Ltmp24-.Lfunc_begin0          # >> Call Site 6 <<
	.uleb128 .Ltmp25-.Ltmp24                #   Call between .Ltmp24 and .Ltmp25
	.uleb128 .Ltmp26-.Lfunc_begin0          #     jumps to .Ltmp26
	.byte	1                               #   On action: 1
	.uleb128 .Ltmp27-.Lfunc_begin0          # >> Call Site 7 <<
	.uleb128 .Ltmp28-.Ltmp27                #   Call between .Ltmp27 and .Ltmp28
	.uleb128 .Ltmp29-.Lfunc_begin0          #     jumps to .Ltmp29
	.byte	1                               #   On action: 1
	.uleb128 .Ltmp30-.Lfunc_begin0          # >> Call Site 8 <<
	.uleb128 .Ltmp31-.Ltmp30                #   Call between .Ltmp30 and .Ltmp31
	.uleb128 .Ltmp32-.Lfunc_begin0          #     jumps to .Ltmp32
	.byte	0                               #   On action: cleanup
	.uleb128 .Ltmp39-.Lfunc_begin0          # >> Call Site 9 <<
	.uleb128 .Ltmp40-.Ltmp39                #   Call between .Ltmp39 and .Ltmp40
	.uleb128 .Ltmp41-.Lfunc_begin0          #     jumps to .Ltmp41
	.byte	1                               #   On action: 1
	.uleb128 .Ltmp42-.Lfunc_begin0          # >> Call Site 10 <<
	.uleb128 .Ltmp43-.Ltmp42                #   Call between .Ltmp42 and .Ltmp43
	.uleb128 .Ltmp44-.Lfunc_begin0          #     jumps to .Ltmp44
	.byte	1                               #   On action: 1
	.uleb128 .Ltmp45-.Lfunc_begin0          # >> Call Site 11 <<
	.uleb128 .Ltmp46-.Ltmp45                #   Call between .Ltmp45 and .Ltmp46
	.uleb128 .Ltmp47-.Lfunc_begin0          #     jumps to .Ltmp47
	.byte	0                               #   On action: cleanup
	.uleb128 .Ltmp54-.Lfunc_begin0          # >> Call Site 12 <<
	.uleb128 .Ltmp55-.Ltmp54                #   Call between .Ltmp54 and .Ltmp55
	.uleb128 .Ltmp56-.Lfunc_begin0          #     jumps to .Ltmp56
	.byte	1                               #   On action: 1
	.uleb128 .Ltmp57-.Lfunc_begin0          # >> Call Site 13 <<
	.uleb128 .Ltmp58-.Ltmp57                #   Call between .Ltmp57 and .Ltmp58
	.uleb128 .Ltmp59-.Lfunc_begin0          #     jumps to .Ltmp59
	.byte	1                               #   On action: 1
	.uleb128 .Ltmp60-.Lfunc_begin0          # >> Call Site 14 <<
	.uleb128 .Ltmp61-.Ltmp60                #   Call between .Ltmp60 and .Ltmp61
	.uleb128 .Ltmp62-.Lfunc_begin0          #     jumps to .Ltmp62
	.byte	0                               #   On action: cleanup
	.uleb128 .Ltmp69-.Lfunc_begin0          # >> Call Site 15 <<
	.uleb128 .Ltmp70-.Ltmp69                #   Call between .Ltmp69 and .Ltmp70
	.uleb128 .Ltmp71-.Lfunc_begin0          #     jumps to .Ltmp71
	.byte	1                               #   On action: 1
	.uleb128 .Ltmp72-.Lfunc_begin0          # >> Call Site 16 <<
	.uleb128 .Ltmp73-.Ltmp72                #   Call between .Ltmp72 and .Ltmp73
	.uleb128 .Ltmp74-.Lfunc_begin0          #     jumps to .Ltmp74
	.byte	1                               #   On action: 1
	.uleb128 .Ltmp75-.Lfunc_begin0          # >> Call Site 17 <<
	.uleb128 .Ltmp76-.Ltmp75                #   Call between .Ltmp75 and .Ltmp76
	.uleb128 .Ltmp77-.Lfunc_begin0          #     jumps to .Ltmp77
	.byte	0                               #   On action: cleanup
	.uleb128 .Ltmp84-.Lfunc_begin0          # >> Call Site 18 <<
	.uleb128 .Ltmp85-.Ltmp84                #   Call between .Ltmp84 and .Ltmp85
	.uleb128 .Ltmp86-.Lfunc_begin0          #     jumps to .Ltmp86
	.byte	1                               #   On action: 1
	.uleb128 .Ltmp87-.Lfunc_begin0          # >> Call Site 19 <<
	.uleb128 .Ltmp88-.Ltmp87                #   Call between .Ltmp87 and .Ltmp88
	.uleb128 .Ltmp89-.Lfunc_begin0          #     jumps to .Ltmp89
	.byte	1                               #   On action: 1
	.uleb128 .Ltmp90-.Lfunc_begin0          # >> Call Site 20 <<
	.uleb128 .Ltmp91-.Ltmp90                #   Call between .Ltmp90 and .Ltmp91
	.uleb128 .Ltmp92-.Lfunc_begin0          #     jumps to .Ltmp92
	.byte	0                               #   On action: cleanup
	.uleb128 .Ltmp99-.Lfunc_begin0          # >> Call Site 21 <<
	.uleb128 .Ltmp100-.Ltmp99               #   Call between .Ltmp99 and .Ltmp100
	.uleb128 .Ltmp101-.Lfunc_begin0         #     jumps to .Ltmp101
	.byte	1                               #   On action: 1
	.uleb128 .Ltmp102-.Lfunc_begin0         # >> Call Site 22 <<
	.uleb128 .Ltmp103-.Ltmp102              #   Call between .Ltmp102 and .Ltmp103
	.uleb128 .Ltmp104-.Lfunc_begin0         #     jumps to .Ltmp104
	.byte	1                               #   On action: 1
	.uleb128 .Ltmp105-.Lfunc_begin0         # >> Call Site 23 <<
	.uleb128 .Ltmp106-.Ltmp105              #   Call between .Ltmp105 and .Ltmp106
	.uleb128 .Ltmp107-.Lfunc_begin0         #     jumps to .Ltmp107
	.byte	0                               #   On action: cleanup
	.uleb128 .Ltmp114-.Lfunc_begin0         # >> Call Site 24 <<
	.uleb128 .Ltmp115-.Ltmp114              #   Call between .Ltmp114 and .Ltmp115
	.uleb128 .Ltmp116-.Lfunc_begin0         #     jumps to .Ltmp116
	.byte	1                               #   On action: 1
	.uleb128 .Ltmp117-.Lfunc_begin0         # >> Call Site 25 <<
	.uleb128 .Ltmp118-.Ltmp117              #   Call between .Ltmp117 and .Ltmp118
	.uleb128 .Ltmp119-.Lfunc_begin0         #     jumps to .Ltmp119
	.byte	1                               #   On action: 1
	.uleb128 .Ltmp120-.Lfunc_begin0         # >> Call Site 26 <<
	.uleb128 .Ltmp121-.Ltmp120              #   Call between .Ltmp120 and .Ltmp121
	.uleb128 .Ltmp122-.Lfunc_begin0         #     jumps to .Ltmp122
	.byte	0                               #   On action: cleanup
	.uleb128 .Ltmp129-.Lfunc_begin0         # >> Call Site 27 <<
	.uleb128 .Ltmp130-.Ltmp129              #   Call between .Ltmp129 and .Ltmp130
	.uleb128 .Ltmp131-.Lfunc_begin0         #     jumps to .Ltmp131
	.byte	1                               #   On action: 1
	.uleb128 .Ltmp132-.Lfunc_begin0         # >> Call Site 28 <<
	.uleb128 .Ltmp133-.Ltmp132              #   Call between .Ltmp132 and .Ltmp133
	.uleb128 .Ltmp134-.Lfunc_begin0         #     jumps to .Ltmp134
	.byte	1                               #   On action: 1
	.uleb128 .Ltmp135-.Lfunc_begin0         # >> Call Site 29 <<
	.uleb128 .Ltmp136-.Ltmp135              #   Call between .Ltmp135 and .Ltmp136
	.uleb128 .Ltmp137-.Lfunc_begin0         #     jumps to .Ltmp137
	.byte	0                               #   On action: cleanup
	.uleb128 .Ltmp144-.Lfunc_begin0         # >> Call Site 30 <<
	.uleb128 .Ltmp145-.Ltmp144              #   Call between .Ltmp144 and .Ltmp145
	.uleb128 .Ltmp146-.Lfunc_begin0         #     jumps to .Ltmp146
	.byte	1                               #   On action: 1
	.uleb128 .Ltmp147-.Lfunc_begin0         # >> Call Site 31 <<
	.uleb128 .Ltmp148-.Ltmp147              #   Call between .Ltmp147 and .Ltmp148
	.uleb128 .Ltmp149-.Lfunc_begin0         #     jumps to .Ltmp149
	.byte	1                               #   On action: 1
	.uleb128 .Ltmp150-.Lfunc_begin0         # >> Call Site 32 <<
	.uleb128 .Ltmp151-.Ltmp150              #   Call between .Ltmp150 and .Ltmp151
	.uleb128 .Ltmp152-.Lfunc_begin0         #     jumps to .Ltmp152
	.byte	0                               #   On action: cleanup
	.uleb128 .Ltmp159-.Lfunc_begin0         # >> Call Site 33 <<
	.uleb128 .Ltmp160-.Ltmp159              #   Call between .Ltmp159 and .Ltmp160
	.uleb128 .Ltmp161-.Lfunc_begin0         #     jumps to .Ltmp161
	.byte	1                               #   On action: 1
	.uleb128 .Ltmp162-.Lfunc_begin0         # >> Call Site 34 <<
	.uleb128 .Ltmp163-.Ltmp162              #   Call between .Ltmp162 and .Ltmp163
	.uleb128 .Ltmp164-.Lfunc_begin0         #     jumps to .Ltmp164
	.byte	1                               #   On action: 1
	.uleb128 .Ltmp165-.Lfunc_begin0         # >> Call Site 35 <<
	.uleb128 .Ltmp166-.Ltmp165              #   Call between .Ltmp165 and .Ltmp166
	.uleb128 .Ltmp167-.Lfunc_begin0         #     jumps to .Ltmp167
	.byte	0                               #   On action: cleanup
	.uleb128 .Ltmp174-.Lfunc_begin0         # >> Call Site 36 <<
	.uleb128 .Ltmp175-.Ltmp174              #   Call between .Ltmp174 and .Ltmp175
	.uleb128 .Ltmp176-.Lfunc_begin0         #     jumps to .Ltmp176
	.byte	1                               #   On action: 1
	.uleb128 .Ltmp177-.Lfunc_begin0         # >> Call Site 37 <<
	.uleb128 .Ltmp178-.Ltmp177              #   Call between .Ltmp177 and .Ltmp178
	.uleb128 .Ltmp179-.Lfunc_begin0         #     jumps to .Ltmp179
	.byte	1                               #   On action: 1
	.uleb128 .Ltmp180-.Lfunc_begin0         # >> Call Site 38 <<
	.uleb128 .Ltmp181-.Ltmp180              #   Call between .Ltmp180 and .Ltmp181
	.uleb128 .Ltmp182-.Lfunc_begin0         #     jumps to .Ltmp182
	.byte	0                               #   On action: cleanup
	.uleb128 .Ltmp189-.Lfunc_begin0         # >> Call Site 39 <<
	.uleb128 .Ltmp190-.Ltmp189              #   Call between .Ltmp189 and .Ltmp190
	.uleb128 .Ltmp191-.Lfunc_begin0         #     jumps to .Ltmp191
	.byte	1                               #   On action: 1
	.uleb128 .Ltmp192-.Lfunc_begin0         # >> Call Site 40 <<
	.uleb128 .Ltmp193-.Ltmp192              #   Call between .Ltmp192 and .Ltmp193
	.uleb128 .Ltmp194-.Lfunc_begin0         #     jumps to .Ltmp194
	.byte	1                               #   On action: 1
	.uleb128 .Ltmp195-.Lfunc_begin0         # >> Call Site 41 <<
	.uleb128 .Ltmp196-.Ltmp195              #   Call between .Ltmp195 and .Ltmp196
	.uleb128 .Ltmp197-.Lfunc_begin0         #     jumps to .Ltmp197
	.byte	0                               #   On action: cleanup
	.uleb128 .Ltmp204-.Lfunc_begin0         # >> Call Site 42 <<
	.uleb128 .Ltmp205-.Ltmp204              #   Call between .Ltmp204 and .Ltmp205
	.uleb128 .Ltmp206-.Lfunc_begin0         #     jumps to .Ltmp206
	.byte	1                               #   On action: 1
	.uleb128 .Ltmp207-.Lfunc_begin0         # >> Call Site 43 <<
	.uleb128 .Ltmp208-.Ltmp207              #   Call between .Ltmp207 and .Ltmp208
	.uleb128 .Ltmp209-.Lfunc_begin0         #     jumps to .Ltmp209
	.byte	1                               #   On action: 1
	.uleb128 .Ltmp210-.Lfunc_begin0         # >> Call Site 44 <<
	.uleb128 .Ltmp211-.Ltmp210              #   Call between .Ltmp210 and .Ltmp211
	.uleb128 .Ltmp212-.Lfunc_begin0         #     jumps to .Ltmp212
	.byte	0                               #   On action: cleanup
	.uleb128 .Ltmp219-.Lfunc_begin0         # >> Call Site 45 <<
	.uleb128 .Ltmp220-.Ltmp219              #   Call between .Ltmp219 and .Ltmp220
	.uleb128 .Ltmp221-.Lfunc_begin0         #     jumps to .Ltmp221
	.byte	1                               #   On action: 1
	.uleb128 .Ltmp222-.Lfunc_begin0         # >> Call Site 46 <<
	.uleb128 .Ltmp223-.Ltmp222              #   Call between .Ltmp222 and .Ltmp223
	.uleb128 .Ltmp224-.Lfunc_begin0         #     jumps to .Ltmp224
	.byte	1                               #   On action: 1
	.uleb128 .Ltmp225-.Lfunc_begin0         # >> Call Site 47 <<
	.uleb128 .Ltmp226-.Ltmp225              #   Call between .Ltmp225 and .Ltmp226
	.uleb128 .Ltmp227-.Lfunc_begin0         #     jumps to .Ltmp227
	.byte	0                               #   On action: cleanup
	.uleb128 .Ltmp234-.Lfunc_begin0         # >> Call Site 48 <<
	.uleb128 .Ltmp235-.Ltmp234              #   Call between .Ltmp234 and .Ltmp235
	.uleb128 .Ltmp236-.Lfunc_begin0         #     jumps to .Ltmp236
	.byte	1                               #   On action: 1
	.uleb128 .Ltmp237-.Lfunc_begin0         # >> Call Site 49 <<
	.uleb128 .Ltmp238-.Ltmp237              #   Call between .Ltmp237 and .Ltmp238
	.uleb128 .Ltmp239-.Lfunc_begin0         #     jumps to .Ltmp239
	.byte	1                               #   On action: 1
	.uleb128 .Ltmp240-.Lfunc_begin0         # >> Call Site 50 <<
	.uleb128 .Ltmp241-.Ltmp240              #   Call between .Ltmp240 and .Ltmp241
	.uleb128 .Ltmp242-.Lfunc_begin0         #     jumps to .Ltmp242
	.byte	0                               #   On action: cleanup
	.uleb128 .Ltmp249-.Lfunc_begin0         # >> Call Site 51 <<
	.uleb128 .Ltmp250-.Ltmp249              #   Call between .Ltmp249 and .Ltmp250
	.uleb128 .Ltmp251-.Lfunc_begin0         #     jumps to .Ltmp251
	.byte	1                               #   On action: 1
	.uleb128 .Ltmp252-.Lfunc_begin0         # >> Call Site 52 <<
	.uleb128 .Ltmp253-.Ltmp252              #   Call between .Ltmp252 and .Ltmp253
	.uleb128 .Ltmp254-.Lfunc_begin0         #     jumps to .Ltmp254
	.byte	1                               #   On action: 1
	.uleb128 .Ltmp255-.Lfunc_begin0         # >> Call Site 53 <<
	.uleb128 .Ltmp256-.Ltmp255              #   Call between .Ltmp255 and .Ltmp256
	.uleb128 .Ltmp257-.Lfunc_begin0         #     jumps to .Ltmp257
	.byte	0                               #   On action: cleanup
	.uleb128 .Ltmp264-.Lfunc_begin0         # >> Call Site 54 <<
	.uleb128 .Ltmp265-.Ltmp264              #   Call between .Ltmp264 and .Ltmp265
	.uleb128 .Ltmp266-.Lfunc_begin0         #     jumps to .Ltmp266
	.byte	1                               #   On action: 1
	.uleb128 .Ltmp267-.Lfunc_begin0         # >> Call Site 55 <<
	.uleb128 .Ltmp268-.Ltmp267              #   Call between .Ltmp267 and .Ltmp268
	.uleb128 .Ltmp269-.Lfunc_begin0         #     jumps to .Ltmp269
	.byte	1                               #   On action: 1
	.uleb128 .Ltmp270-.Lfunc_begin0         # >> Call Site 56 <<
	.uleb128 .Ltmp271-.Ltmp270              #   Call between .Ltmp270 and .Ltmp271
	.uleb128 .Ltmp272-.Lfunc_begin0         #     jumps to .Ltmp272
	.byte	0                               #   On action: cleanup
	.uleb128 .Ltmp279-.Lfunc_begin0         # >> Call Site 57 <<
	.uleb128 .Ltmp280-.Ltmp279              #   Call between .Ltmp279 and .Ltmp280
	.uleb128 .Ltmp281-.Lfunc_begin0         #     jumps to .Ltmp281
	.byte	1                               #   On action: 1
	.uleb128 .Ltmp282-.Lfunc_begin0         # >> Call Site 58 <<
	.uleb128 .Ltmp283-.Ltmp282              #   Call between .Ltmp282 and .Ltmp283
	.uleb128 .Ltmp284-.Lfunc_begin0         #     jumps to .Ltmp284
	.byte	1                               #   On action: 1
	.uleb128 .Ltmp285-.Lfunc_begin0         # >> Call Site 59 <<
	.uleb128 .Ltmp286-.Ltmp285              #   Call between .Ltmp285 and .Ltmp286
	.uleb128 .Ltmp287-.Lfunc_begin0         #     jumps to .Ltmp287
	.byte	0                               #   On action: cleanup
	.uleb128 .Ltmp294-.Lfunc_begin0         # >> Call Site 60 <<
	.uleb128 .Ltmp295-.Ltmp294              #   Call between .Ltmp294 and .Ltmp295
	.uleb128 .Ltmp296-.Lfunc_begin0         #     jumps to .Ltmp296
	.byte	1                               #   On action: 1
	.uleb128 .Ltmp297-.Lfunc_begin0         # >> Call Site 61 <<
	.uleb128 .Ltmp298-.Ltmp297              #   Call between .Ltmp297 and .Ltmp298
	.uleb128 .Ltmp299-.Lfunc_begin0         #     jumps to .Ltmp299
	.byte	1                               #   On action: 1
	.uleb128 .Ltmp300-.Lfunc_begin0         # >> Call Site 62 <<
	.uleb128 .Ltmp301-.Ltmp300              #   Call between .Ltmp300 and .Ltmp301
	.uleb128 .Ltmp302-.Lfunc_begin0         #     jumps to .Ltmp302
	.byte	0                               #   On action: cleanup
	.uleb128 .Ltmp309-.Lfunc_begin0         # >> Call Site 63 <<
	.uleb128 .Ltmp310-.Ltmp309              #   Call between .Ltmp309 and .Ltmp310
	.uleb128 .Ltmp311-.Lfunc_begin0         #     jumps to .Ltmp311
	.byte	1                               #   On action: 1
	.uleb128 .Ltmp312-.Lfunc_begin0         # >> Call Site 64 <<
	.uleb128 .Ltmp313-.Ltmp312              #   Call between .Ltmp312 and .Ltmp313
	.uleb128 .Ltmp314-.Lfunc_begin0         #     jumps to .Ltmp314
	.byte	1                               #   On action: 1
	.uleb128 .Ltmp315-.Lfunc_begin0         # >> Call Site 65 <<
	.uleb128 .Ltmp316-.Ltmp315              #   Call between .Ltmp315 and .Ltmp316
	.uleb128 .Ltmp317-.Lfunc_begin0         #     jumps to .Ltmp317
	.byte	0                               #   On action: cleanup
	.uleb128 .Ltmp324-.Lfunc_begin0         # >> Call Site 66 <<
	.uleb128 .Ltmp325-.Ltmp324              #   Call between .Ltmp324 and .Ltmp325
	.uleb128 .Ltmp326-.Lfunc_begin0         #     jumps to .Ltmp326
	.byte	1                               #   On action: 1
	.uleb128 .Ltmp327-.Lfunc_begin0         # >> Call Site 67 <<
	.uleb128 .Ltmp328-.Ltmp327              #   Call between .Ltmp327 and .Ltmp328
	.uleb128 .Ltmp329-.Lfunc_begin0         #     jumps to .Ltmp329
	.byte	1                               #   On action: 1
	.uleb128 .Ltmp330-.Lfunc_begin0         # >> Call Site 68 <<
	.uleb128 .Ltmp331-.Ltmp330              #   Call between .Ltmp330 and .Ltmp331
	.uleb128 .Ltmp332-.Lfunc_begin0         #     jumps to .Ltmp332
	.byte	0                               #   On action: cleanup
	.uleb128 .Ltmp339-.Lfunc_begin0         # >> Call Site 69 <<
	.uleb128 .Ltmp340-.Ltmp339              #   Call between .Ltmp339 and .Ltmp340
	.uleb128 .Ltmp341-.Lfunc_begin0         #     jumps to .Ltmp341
	.byte	1                               #   On action: 1
	.uleb128 .Ltmp342-.Lfunc_begin0         # >> Call Site 70 <<
	.uleb128 .Ltmp343-.Ltmp342              #   Call between .Ltmp342 and .Ltmp343
	.uleb128 .Ltmp344-.Lfunc_begin0         #     jumps to .Ltmp344
	.byte	1                               #   On action: 1
	.uleb128 .Ltmp345-.Lfunc_begin0         # >> Call Site 71 <<
	.uleb128 .Ltmp346-.Ltmp345              #   Call between .Ltmp345 and .Ltmp346
	.uleb128 .Ltmp347-.Lfunc_begin0         #     jumps to .Ltmp347
	.byte	0                               #   On action: cleanup
	.uleb128 .Ltmp354-.Lfunc_begin0         # >> Call Site 72 <<
	.uleb128 .Ltmp355-.Ltmp354              #   Call between .Ltmp354 and .Ltmp355
	.uleb128 .Ltmp356-.Lfunc_begin0         #     jumps to .Ltmp356
	.byte	1                               #   On action: 1
	.uleb128 .Ltmp357-.Lfunc_begin0         # >> Call Site 73 <<
	.uleb128 .Ltmp358-.Ltmp357              #   Call between .Ltmp357 and .Ltmp358
	.uleb128 .Ltmp359-.Lfunc_begin0         #     jumps to .Ltmp359
	.byte	1                               #   On action: 1
	.uleb128 .Ltmp360-.Lfunc_begin0         # >> Call Site 74 <<
	.uleb128 .Ltmp361-.Ltmp360              #   Call between .Ltmp360 and .Ltmp361
	.uleb128 .Ltmp362-.Lfunc_begin0         #     jumps to .Ltmp362
	.byte	0                               #   On action: cleanup
	.uleb128 .Ltmp369-.Lfunc_begin0         # >> Call Site 75 <<
	.uleb128 .Ltmp370-.Ltmp369              #   Call between .Ltmp369 and .Ltmp370
	.uleb128 .Ltmp371-.Lfunc_begin0         #     jumps to .Ltmp371
	.byte	1                               #   On action: 1
	.uleb128 .Ltmp372-.Lfunc_begin0         # >> Call Site 76 <<
	.uleb128 .Ltmp373-.Ltmp372              #   Call between .Ltmp372 and .Ltmp373
	.uleb128 .Ltmp374-.Lfunc_begin0         #     jumps to .Ltmp374
	.byte	1                               #   On action: 1
	.uleb128 .Ltmp375-.Lfunc_begin0         # >> Call Site 77 <<
	.uleb128 .Ltmp376-.Ltmp375              #   Call between .Ltmp375 and .Ltmp376
	.uleb128 .Ltmp377-.Lfunc_begin0         #     jumps to .Ltmp377
	.byte	0                               #   On action: cleanup
	.uleb128 .Ltmp384-.Lfunc_begin0         # >> Call Site 78 <<
	.uleb128 .Ltmp385-.Ltmp384              #   Call between .Ltmp384 and .Ltmp385
	.uleb128 .Ltmp386-.Lfunc_begin0         #     jumps to .Ltmp386
	.byte	1                               #   On action: 1
	.uleb128 .Ltmp387-.Lfunc_begin0         # >> Call Site 79 <<
	.uleb128 .Ltmp388-.Ltmp387              #   Call between .Ltmp387 and .Ltmp388
	.uleb128 .Ltmp389-.Lfunc_begin0         #     jumps to .Ltmp389
	.byte	1                               #   On action: 1
	.uleb128 .Ltmp390-.Lfunc_begin0         # >> Call Site 80 <<
	.uleb128 .Ltmp391-.Ltmp390              #   Call between .Ltmp390 and .Ltmp391
	.uleb128 .Ltmp392-.Lfunc_begin0         #     jumps to .Ltmp392
	.byte	0                               #   On action: cleanup
	.uleb128 .Ltmp399-.Lfunc_begin0         # >> Call Site 81 <<
	.uleb128 .Ltmp400-.Ltmp399              #   Call between .Ltmp399 and .Ltmp400
	.uleb128 .Ltmp401-.Lfunc_begin0         #     jumps to .Ltmp401
	.byte	1                               #   On action: 1
	.uleb128 .Ltmp402-.Lfunc_begin0         # >> Call Site 82 <<
	.uleb128 .Ltmp403-.Ltmp402              #   Call between .Ltmp402 and .Ltmp403
	.uleb128 .Ltmp404-.Lfunc_begin0         #     jumps to .Ltmp404
	.byte	1                               #   On action: 1
	.uleb128 .Ltmp405-.Lfunc_begin0         # >> Call Site 83 <<
	.uleb128 .Ltmp406-.Ltmp405              #   Call between .Ltmp405 and .Ltmp406
	.uleb128 .Ltmp407-.Lfunc_begin0         #     jumps to .Ltmp407
	.byte	0                               #   On action: cleanup
	.uleb128 .Ltmp414-.Lfunc_begin0         # >> Call Site 84 <<
	.uleb128 .Ltmp415-.Ltmp414              #   Call between .Ltmp414 and .Ltmp415
	.uleb128 .Ltmp416-.Lfunc_begin0         #     jumps to .Ltmp416
	.byte	1                               #   On action: 1
	.uleb128 .Ltmp417-.Lfunc_begin0         # >> Call Site 85 <<
	.uleb128 .Ltmp418-.Ltmp417              #   Call between .Ltmp417 and .Ltmp418
	.uleb128 .Ltmp419-.Lfunc_begin0         #     jumps to .Ltmp419
	.byte	1                               #   On action: 1
	.uleb128 .Ltmp420-.Lfunc_begin0         # >> Call Site 86 <<
	.uleb128 .Ltmp421-.Ltmp420              #   Call between .Ltmp420 and .Ltmp421
	.uleb128 .Ltmp422-.Lfunc_begin0         #     jumps to .Ltmp422
	.byte	0                               #   On action: cleanup
	.uleb128 .Ltmp429-.Lfunc_begin0         # >> Call Site 87 <<
	.uleb128 .Ltmp430-.Ltmp429              #   Call between .Ltmp429 and .Ltmp430
	.uleb128 .Ltmp431-.Lfunc_begin0         #     jumps to .Ltmp431
	.byte	1                               #   On action: 1
	.uleb128 .Ltmp432-.Lfunc_begin0         # >> Call Site 88 <<
	.uleb128 .Ltmp433-.Ltmp432              #   Call between .Ltmp432 and .Ltmp433
	.uleb128 .Ltmp434-.Lfunc_begin0         #     jumps to .Ltmp434
	.byte	1                               #   On action: 1
	.uleb128 .Ltmp435-.Lfunc_begin0         # >> Call Site 89 <<
	.uleb128 .Ltmp436-.Ltmp435              #   Call between .Ltmp435 and .Ltmp436
	.uleb128 .Ltmp437-.Lfunc_begin0         #     jumps to .Ltmp437
	.byte	0                               #   On action: cleanup
	.uleb128 .Ltmp444-.Lfunc_begin0         # >> Call Site 90 <<
	.uleb128 .Ltmp445-.Ltmp444              #   Call between .Ltmp444 and .Ltmp445
	.uleb128 .Ltmp446-.Lfunc_begin0         #     jumps to .Ltmp446
	.byte	1                               #   On action: 1
	.uleb128 .Ltmp447-.Lfunc_begin0         # >> Call Site 91 <<
	.uleb128 .Ltmp448-.Ltmp447              #   Call between .Ltmp447 and .Ltmp448
	.uleb128 .Ltmp449-.Lfunc_begin0         #     jumps to .Ltmp449
	.byte	1                               #   On action: 1
	.uleb128 .Ltmp450-.Lfunc_begin0         # >> Call Site 92 <<
	.uleb128 .Ltmp451-.Ltmp450              #   Call between .Ltmp450 and .Ltmp451
	.uleb128 .Ltmp452-.Lfunc_begin0         #     jumps to .Ltmp452
	.byte	0                               #   On action: cleanup
	.uleb128 .Ltmp459-.Lfunc_begin0         # >> Call Site 93 <<
	.uleb128 .Ltmp460-.Ltmp459              #   Call between .Ltmp459 and .Ltmp460
	.uleb128 .Ltmp461-.Lfunc_begin0         #     jumps to .Ltmp461
	.byte	1                               #   On action: 1
	.uleb128 .Ltmp462-.Lfunc_begin0         # >> Call Site 94 <<
	.uleb128 .Ltmp463-.Ltmp462              #   Call between .Ltmp462 and .Ltmp463
	.uleb128 .Ltmp464-.Lfunc_begin0         #     jumps to .Ltmp464
	.byte	1                               #   On action: 1
	.uleb128 .Ltmp465-.Lfunc_begin0         # >> Call Site 95 <<
	.uleb128 .Ltmp466-.Ltmp465              #   Call between .Ltmp465 and .Ltmp466
	.uleb128 .Ltmp467-.Lfunc_begin0         #     jumps to .Ltmp467
	.byte	0                               #   On action: cleanup
	.uleb128 .Ltmp474-.Lfunc_begin0         # >> Call Site 96 <<
	.uleb128 .Ltmp475-.Ltmp474              #   Call between .Ltmp474 and .Ltmp475
	.uleb128 .Ltmp476-.Lfunc_begin0         #     jumps to .Ltmp476
	.byte	1                               #   On action: 1
	.uleb128 .Ltmp477-.Lfunc_begin0         # >> Call Site 97 <<
	.uleb128 .Ltmp478-.Ltmp477              #   Call between .Ltmp477 and .Ltmp478
	.uleb128 .Ltmp479-.Lfunc_begin0         #     jumps to .Ltmp479
	.byte	1                               #   On action: 1
	.uleb128 .Ltmp480-.Lfunc_begin0         # >> Call Site 98 <<
	.uleb128 .Ltmp481-.Ltmp480              #   Call between .Ltmp480 and .Ltmp481
	.uleb128 .Ltmp482-.Lfunc_begin0         #     jumps to .Ltmp482
	.byte	0                               #   On action: cleanup
	.uleb128 .Ltmp489-.Lfunc_begin0         # >> Call Site 99 <<
	.uleb128 .Ltmp490-.Ltmp489              #   Call between .Ltmp489 and .Ltmp490
	.uleb128 .Ltmp491-.Lfunc_begin0         #     jumps to .Ltmp491
	.byte	1                               #   On action: 1
	.uleb128 .Ltmp492-.Lfunc_begin0         # >> Call Site 100 <<
	.uleb128 .Ltmp493-.Ltmp492              #   Call between .Ltmp492 and .Ltmp493
	.uleb128 .Ltmp494-.Lfunc_begin0         #     jumps to .Ltmp494
	.byte	1                               #   On action: 1
	.uleb128 .Ltmp495-.Lfunc_begin0         # >> Call Site 101 <<
	.uleb128 .Ltmp496-.Ltmp495              #   Call between .Ltmp495 and .Ltmp496
	.uleb128 .Ltmp497-.Lfunc_begin0         #     jumps to .Ltmp497
	.byte	0                               #   On action: cleanup
	.uleb128 .Ltmp504-.Lfunc_begin0         # >> Call Site 102 <<
	.uleb128 .Ltmp505-.Ltmp504              #   Call between .Ltmp504 and .Ltmp505
	.uleb128 .Ltmp506-.Lfunc_begin0         #     jumps to .Ltmp506
	.byte	1                               #   On action: 1
	.uleb128 .Ltmp507-.Lfunc_begin0         # >> Call Site 103 <<
	.uleb128 .Ltmp508-.Ltmp507              #   Call between .Ltmp507 and .Ltmp508
	.uleb128 .Ltmp509-.Lfunc_begin0         #     jumps to .Ltmp509
	.byte	1                               #   On action: 1
	.uleb128 .Ltmp510-.Lfunc_begin0         # >> Call Site 104 <<
	.uleb128 .Ltmp511-.Ltmp510              #   Call between .Ltmp510 and .Ltmp511
	.uleb128 .Ltmp512-.Lfunc_begin0         #     jumps to .Ltmp512
	.byte	0                               #   On action: cleanup
	.uleb128 .Ltmp519-.Lfunc_begin0         # >> Call Site 105 <<
	.uleb128 .Ltmp520-.Ltmp519              #   Call between .Ltmp519 and .Ltmp520
	.uleb128 .Ltmp521-.Lfunc_begin0         #     jumps to .Ltmp521
	.byte	1                               #   On action: 1
	.uleb128 .Ltmp522-.Lfunc_begin0         # >> Call Site 106 <<
	.uleb128 .Ltmp523-.Ltmp522              #   Call between .Ltmp522 and .Ltmp523
	.uleb128 .Ltmp524-.Lfunc_begin0         #     jumps to .Ltmp524
	.byte	1                               #   On action: 1
	.uleb128 .Ltmp525-.Lfunc_begin0         # >> Call Site 107 <<
	.uleb128 .Ltmp526-.Ltmp525              #   Call between .Ltmp525 and .Ltmp526
	.uleb128 .Ltmp527-.Lfunc_begin0         #     jumps to .Ltmp527
	.byte	0                               #   On action: cleanup
	.uleb128 .Ltmp534-.Lfunc_begin0         # >> Call Site 108 <<
	.uleb128 .Ltmp535-.Ltmp534              #   Call between .Ltmp534 and .Ltmp535
	.uleb128 .Ltmp536-.Lfunc_begin0         #     jumps to .Ltmp536
	.byte	1                               #   On action: 1
	.uleb128 .Ltmp537-.Lfunc_begin0         # >> Call Site 109 <<
	.uleb128 .Ltmp538-.Ltmp537              #   Call between .Ltmp537 and .Ltmp538
	.uleb128 .Ltmp539-.Lfunc_begin0         #     jumps to .Ltmp539
	.byte	1                               #   On action: 1
	.uleb128 .Ltmp540-.Lfunc_begin0         # >> Call Site 110 <<
	.uleb128 .Ltmp541-.Ltmp540              #   Call between .Ltmp540 and .Ltmp541
	.uleb128 .Ltmp542-.Lfunc_begin0         #     jumps to .Ltmp542
	.byte	0                               #   On action: cleanup
	.uleb128 .Ltmp549-.Lfunc_begin0         # >> Call Site 111 <<
	.uleb128 .Ltmp550-.Ltmp549              #   Call between .Ltmp549 and .Ltmp550
	.uleb128 .Ltmp551-.Lfunc_begin0         #     jumps to .Ltmp551
	.byte	1                               #   On action: 1
	.uleb128 .Ltmp552-.Lfunc_begin0         # >> Call Site 112 <<
	.uleb128 .Ltmp553-.Ltmp552              #   Call between .Ltmp552 and .Ltmp553
	.uleb128 .Ltmp554-.Lfunc_begin0         #     jumps to .Ltmp554
	.byte	1                               #   On action: 1
	.uleb128 .Ltmp555-.Lfunc_begin0         # >> Call Site 113 <<
	.uleb128 .Ltmp556-.Ltmp555              #   Call between .Ltmp555 and .Ltmp556
	.uleb128 .Ltmp557-.Lfunc_begin0         #     jumps to .Ltmp557
	.byte	0                               #   On action: cleanup
	.uleb128 .Ltmp564-.Lfunc_begin0         # >> Call Site 114 <<
	.uleb128 .Ltmp565-.Ltmp564              #   Call between .Ltmp564 and .Ltmp565
	.uleb128 .Ltmp566-.Lfunc_begin0         #     jumps to .Ltmp566
	.byte	1                               #   On action: 1
	.uleb128 .Ltmp567-.Lfunc_begin0         # >> Call Site 115 <<
	.uleb128 .Ltmp568-.Ltmp567              #   Call between .Ltmp567 and .Ltmp568
	.uleb128 .Ltmp569-.Lfunc_begin0         #     jumps to .Ltmp569
	.byte	1                               #   On action: 1
	.uleb128 .Ltmp570-.Lfunc_begin0         # >> Call Site 116 <<
	.uleb128 .Ltmp571-.Ltmp570              #   Call between .Ltmp570 and .Ltmp571
	.uleb128 .Ltmp572-.Lfunc_begin0         #     jumps to .Ltmp572
	.byte	0                               #   On action: cleanup
	.uleb128 .Ltmp579-.Lfunc_begin0         # >> Call Site 117 <<
	.uleb128 .Ltmp580-.Ltmp579              #   Call between .Ltmp579 and .Ltmp580
	.uleb128 .Ltmp581-.Lfunc_begin0         #     jumps to .Ltmp581
	.byte	1                               #   On action: 1
	.uleb128 .Ltmp582-.Lfunc_begin0         # >> Call Site 118 <<
	.uleb128 .Ltmp583-.Ltmp582              #   Call between .Ltmp582 and .Ltmp583
	.uleb128 .Ltmp584-.Lfunc_begin0         #     jumps to .Ltmp584
	.byte	1                               #   On action: 1
	.uleb128 .Ltmp585-.Lfunc_begin0         # >> Call Site 119 <<
	.uleb128 .Ltmp586-.Ltmp585              #   Call between .Ltmp585 and .Ltmp586
	.uleb128 .Ltmp587-.Lfunc_begin0         #     jumps to .Ltmp587
	.byte	0                               #   On action: cleanup
	.uleb128 .Ltmp594-.Lfunc_begin0         # >> Call Site 120 <<
	.uleb128 .Ltmp595-.Ltmp594              #   Call between .Ltmp594 and .Ltmp595
	.uleb128 .Ltmp596-.Lfunc_begin0         #     jumps to .Ltmp596
	.byte	1                               #   On action: 1
	.uleb128 .Ltmp597-.Lfunc_begin0         # >> Call Site 121 <<
	.uleb128 .Ltmp598-.Ltmp597              #   Call between .Ltmp597 and .Ltmp598
	.uleb128 .Ltmp599-.Lfunc_begin0         #     jumps to .Ltmp599
	.byte	1                               #   On action: 1
	.uleb128 .Ltmp600-.Lfunc_begin0         # >> Call Site 122 <<
	.uleb128 .Ltmp601-.Ltmp600              #   Call between .Ltmp600 and .Ltmp601
	.uleb128 .Ltmp602-.Lfunc_begin0         #     jumps to .Ltmp602
	.byte	0                               #   On action: cleanup
	.uleb128 .Ltmp609-.Lfunc_begin0         # >> Call Site 123 <<
	.uleb128 .Ltmp610-.Ltmp609              #   Call between .Ltmp609 and .Ltmp610
	.uleb128 .Ltmp611-.Lfunc_begin0         #     jumps to .Ltmp611
	.byte	1                               #   On action: 1
	.uleb128 .Ltmp612-.Lfunc_begin0         # >> Call Site 124 <<
	.uleb128 .Ltmp613-.Ltmp612              #   Call between .Ltmp612 and .Ltmp613
	.uleb128 .Ltmp614-.Lfunc_begin0         #     jumps to .Ltmp614
	.byte	1                               #   On action: 1
	.uleb128 .Ltmp615-.Lfunc_begin0         # >> Call Site 125 <<
	.uleb128 .Ltmp616-.Ltmp615              #   Call between .Ltmp615 and .Ltmp616
	.uleb128 .Ltmp617-.Lfunc_begin0         #     jumps to .Ltmp617
	.byte	0                               #   On action: cleanup
	.uleb128 .Ltmp624-.Lfunc_begin0         # >> Call Site 126 <<
	.uleb128 .Ltmp625-.Ltmp624              #   Call between .Ltmp624 and .Ltmp625
	.uleb128 .Ltmp626-.Lfunc_begin0         #     jumps to .Ltmp626
	.byte	1                               #   On action: 1
	.uleb128 .Ltmp627-.Lfunc_begin0         # >> Call Site 127 <<
	.uleb128 .Ltmp628-.Ltmp627              #   Call between .Ltmp627 and .Ltmp628
	.uleb128 .Ltmp629-.Lfunc_begin0         #     jumps to .Ltmp629
	.byte	1                               #   On action: 1
	.uleb128 .Ltmp630-.Lfunc_begin0         # >> Call Site 128 <<
	.uleb128 .Ltmp631-.Ltmp630              #   Call between .Ltmp630 and .Ltmp631
	.uleb128 .Ltmp632-.Lfunc_begin0         #     jumps to .Ltmp632
	.byte	0                               #   On action: cleanup
	.uleb128 .Ltmp639-.Lfunc_begin0         # >> Call Site 129 <<
	.uleb128 .Ltmp640-.Ltmp639              #   Call between .Ltmp639 and .Ltmp640
	.uleb128 .Ltmp641-.Lfunc_begin0         #     jumps to .Ltmp641
	.byte	1                               #   On action: 1
	.uleb128 .Ltmp642-.Lfunc_begin0         # >> Call Site 130 <<
	.uleb128 .Ltmp643-.Ltmp642              #   Call between .Ltmp642 and .Ltmp643
	.uleb128 .Ltmp644-.Lfunc_begin0         #     jumps to .Ltmp644
	.byte	1                               #   On action: 1
	.uleb128 .Ltmp645-.Lfunc_begin0         # >> Call Site 131 <<
	.uleb128 .Ltmp646-.Ltmp645              #   Call between .Ltmp645 and .Ltmp646
	.uleb128 .Ltmp647-.Lfunc_begin0         #     jumps to .Ltmp647
	.byte	0                               #   On action: cleanup
	.uleb128 .Ltmp654-.Lfunc_begin0         # >> Call Site 132 <<
	.uleb128 .Ltmp655-.Ltmp654              #   Call between .Ltmp654 and .Ltmp655
	.uleb128 .Ltmp656-.Lfunc_begin0         #     jumps to .Ltmp656
	.byte	1                               #   On action: 1
	.uleb128 .Ltmp657-.Lfunc_begin0         # >> Call Site 133 <<
	.uleb128 .Ltmp658-.Ltmp657              #   Call between .Ltmp657 and .Ltmp658
	.uleb128 .Ltmp659-.Lfunc_begin0         #     jumps to .Ltmp659
	.byte	1                               #   On action: 1
	.uleb128 .Ltmp660-.Lfunc_begin0         # >> Call Site 134 <<
	.uleb128 .Ltmp661-.Ltmp660              #   Call between .Ltmp660 and .Ltmp661
	.uleb128 .Ltmp662-.Lfunc_begin0         #     jumps to .Ltmp662
	.byte	0                               #   On action: cleanup
	.uleb128 .Ltmp669-.Lfunc_begin0         # >> Call Site 135 <<
	.uleb128 .Ltmp670-.Ltmp669              #   Call between .Ltmp669 and .Ltmp670
	.uleb128 .Ltmp671-.Lfunc_begin0         #     jumps to .Ltmp671
	.byte	1                               #   On action: 1
	.uleb128 .Ltmp672-.Lfunc_begin0         # >> Call Site 136 <<
	.uleb128 .Ltmp673-.Ltmp672              #   Call between .Ltmp672 and .Ltmp673
	.uleb128 .Ltmp674-.Lfunc_begin0         #     jumps to .Ltmp674
	.byte	1                               #   On action: 1
	.uleb128 .Ltmp675-.Lfunc_begin0         # >> Call Site 137 <<
	.uleb128 .Ltmp676-.Ltmp675              #   Call between .Ltmp675 and .Ltmp676
	.uleb128 .Ltmp677-.Lfunc_begin0         #     jumps to .Ltmp677
	.byte	0                               #   On action: cleanup
	.uleb128 .Ltmp684-.Lfunc_begin0         # >> Call Site 138 <<
	.uleb128 .Ltmp685-.Ltmp684              #   Call between .Ltmp684 and .Ltmp685
	.uleb128 .Ltmp686-.Lfunc_begin0         #     jumps to .Ltmp686
	.byte	1                               #   On action: 1
	.uleb128 .Ltmp687-.Lfunc_begin0         # >> Call Site 139 <<
	.uleb128 .Ltmp688-.Ltmp687              #   Call between .Ltmp687 and .Ltmp688
	.uleb128 .Ltmp689-.Lfunc_begin0         #     jumps to .Ltmp689
	.byte	1                               #   On action: 1
	.uleb128 .Ltmp690-.Lfunc_begin0         # >> Call Site 140 <<
	.uleb128 .Ltmp691-.Ltmp690              #   Call between .Ltmp690 and .Ltmp691
	.uleb128 .Ltmp692-.Lfunc_begin0         #     jumps to .Ltmp692
	.byte	0                               #   On action: cleanup
	.uleb128 .Ltmp699-.Lfunc_begin0         # >> Call Site 141 <<
	.uleb128 .Ltmp700-.Ltmp699              #   Call between .Ltmp699 and .Ltmp700
	.uleb128 .Ltmp701-.Lfunc_begin0         #     jumps to .Ltmp701
	.byte	1                               #   On action: 1
	.uleb128 .Ltmp702-.Lfunc_begin0         # >> Call Site 142 <<
	.uleb128 .Ltmp703-.Ltmp702              #   Call between .Ltmp702 and .Ltmp703
	.uleb128 .Ltmp704-.Lfunc_begin0         #     jumps to .Ltmp704
	.byte	1                               #   On action: 1
	.uleb128 .Ltmp705-.Lfunc_begin0         # >> Call Site 143 <<
	.uleb128 .Ltmp706-.Ltmp705              #   Call between .Ltmp705 and .Ltmp706
	.uleb128 .Ltmp707-.Lfunc_begin0         #     jumps to .Ltmp707
	.byte	0                               #   On action: cleanup
	.uleb128 .Ltmp714-.Lfunc_begin0         # >> Call Site 144 <<
	.uleb128 .Ltmp715-.Ltmp714              #   Call between .Ltmp714 and .Ltmp715
	.uleb128 .Ltmp716-.Lfunc_begin0         #     jumps to .Ltmp716
	.byte	1                               #   On action: 1
	.uleb128 .Ltmp717-.Lfunc_begin0         # >> Call Site 145 <<
	.uleb128 .Ltmp718-.Ltmp717              #   Call between .Ltmp717 and .Ltmp718
	.uleb128 .Ltmp719-.Lfunc_begin0         #     jumps to .Ltmp719
	.byte	1                               #   On action: 1
	.uleb128 .Ltmp718-.Lfunc_begin0         # >> Call Site 146 <<
	.uleb128 .Ltmp708-.Ltmp718              #   Call between .Ltmp718 and .Ltmp708
	.byte	0                               #     has no landing pad
	.byte	0                               #   On action: cleanup
	.uleb128 .Ltmp708-.Lfunc_begin0         # >> Call Site 147 <<
	.uleb128 .Ltmp709-.Ltmp708              #   Call between .Ltmp708 and .Ltmp709
	.uleb128 .Ltmp710-.Lfunc_begin0         #     jumps to .Ltmp710
	.byte	1                               #   On action: 1
	.uleb128 .Ltmp711-.Lfunc_begin0         # >> Call Site 148 <<
	.uleb128 .Ltmp712-.Ltmp711              #   Call between .Ltmp711 and .Ltmp712
	.uleb128 .Ltmp713-.Lfunc_begin0         #     jumps to .Ltmp713
	.byte	1                               #   On action: 1
	.uleb128 .Ltmp712-.Lfunc_begin0         # >> Call Site 149 <<
	.uleb128 .Ltmp693-.Ltmp712              #   Call between .Ltmp712 and .Ltmp693
	.byte	0                               #     has no landing pad
	.byte	0                               #   On action: cleanup
	.uleb128 .Ltmp693-.Lfunc_begin0         # >> Call Site 150 <<
	.uleb128 .Ltmp694-.Ltmp693              #   Call between .Ltmp693 and .Ltmp694
	.uleb128 .Ltmp695-.Lfunc_begin0         #     jumps to .Ltmp695
	.byte	1                               #   On action: 1
	.uleb128 .Ltmp696-.Lfunc_begin0         # >> Call Site 151 <<
	.uleb128 .Ltmp697-.Ltmp696              #   Call between .Ltmp696 and .Ltmp697
	.uleb128 .Ltmp698-.Lfunc_begin0         #     jumps to .Ltmp698
	.byte	1                               #   On action: 1
	.uleb128 .Ltmp697-.Lfunc_begin0         # >> Call Site 152 <<
	.uleb128 .Ltmp678-.Ltmp697              #   Call between .Ltmp697 and .Ltmp678
	.byte	0                               #     has no landing pad
	.byte	0                               #   On action: cleanup
	.uleb128 .Ltmp678-.Lfunc_begin0         # >> Call Site 153 <<
	.uleb128 .Ltmp679-.Ltmp678              #   Call between .Ltmp678 and .Ltmp679
	.uleb128 .Ltmp680-.Lfunc_begin0         #     jumps to .Ltmp680
	.byte	1                               #   On action: 1
	.uleb128 .Ltmp681-.Lfunc_begin0         # >> Call Site 154 <<
	.uleb128 .Ltmp682-.Ltmp681              #   Call between .Ltmp681 and .Ltmp682
	.uleb128 .Ltmp683-.Lfunc_begin0         #     jumps to .Ltmp683
	.byte	1                               #   On action: 1
	.uleb128 .Ltmp682-.Lfunc_begin0         # >> Call Site 155 <<
	.uleb128 .Ltmp663-.Ltmp682              #   Call between .Ltmp682 and .Ltmp663
	.byte	0                               #     has no landing pad
	.byte	0                               #   On action: cleanup
	.uleb128 .Ltmp663-.Lfunc_begin0         # >> Call Site 156 <<
	.uleb128 .Ltmp664-.Ltmp663              #   Call between .Ltmp663 and .Ltmp664
	.uleb128 .Ltmp665-.Lfunc_begin0         #     jumps to .Ltmp665
	.byte	1                               #   On action: 1
	.uleb128 .Ltmp666-.Lfunc_begin0         # >> Call Site 157 <<
	.uleb128 .Ltmp667-.Ltmp666              #   Call between .Ltmp666 and .Ltmp667
	.uleb128 .Ltmp668-.Lfunc_begin0         #     jumps to .Ltmp668
	.byte	1                               #   On action: 1
	.uleb128 .Ltmp667-.Lfunc_begin0         # >> Call Site 158 <<
	.uleb128 .Ltmp648-.Ltmp667              #   Call between .Ltmp667 and .Ltmp648
	.byte	0                               #     has no landing pad
	.byte	0                               #   On action: cleanup
	.uleb128 .Ltmp648-.Lfunc_begin0         # >> Call Site 159 <<
	.uleb128 .Ltmp649-.Ltmp648              #   Call between .Ltmp648 and .Ltmp649
	.uleb128 .Ltmp650-.Lfunc_begin0         #     jumps to .Ltmp650
	.byte	1                               #   On action: 1
	.uleb128 .Ltmp651-.Lfunc_begin0         # >> Call Site 160 <<
	.uleb128 .Ltmp652-.Ltmp651              #   Call between .Ltmp651 and .Ltmp652
	.uleb128 .Ltmp653-.Lfunc_begin0         #     jumps to .Ltmp653
	.byte	1                               #   On action: 1
	.uleb128 .Ltmp652-.Lfunc_begin0         # >> Call Site 161 <<
	.uleb128 .Ltmp633-.Ltmp652              #   Call between .Ltmp652 and .Ltmp633
	.byte	0                               #     has no landing pad
	.byte	0                               #   On action: cleanup
	.uleb128 .Ltmp633-.Lfunc_begin0         # >> Call Site 162 <<
	.uleb128 .Ltmp634-.Ltmp633              #   Call between .Ltmp633 and .Ltmp634
	.uleb128 .Ltmp635-.Lfunc_begin0         #     jumps to .Ltmp635
	.byte	1                               #   On action: 1
	.uleb128 .Ltmp636-.Lfunc_begin0         # >> Call Site 163 <<
	.uleb128 .Ltmp637-.Ltmp636              #   Call between .Ltmp636 and .Ltmp637
	.uleb128 .Ltmp638-.Lfunc_begin0         #     jumps to .Ltmp638
	.byte	1                               #   On action: 1
	.uleb128 .Ltmp637-.Lfunc_begin0         # >> Call Site 164 <<
	.uleb128 .Ltmp618-.Ltmp637              #   Call between .Ltmp637 and .Ltmp618
	.byte	0                               #     has no landing pad
	.byte	0                               #   On action: cleanup
	.uleb128 .Ltmp618-.Lfunc_begin0         # >> Call Site 165 <<
	.uleb128 .Ltmp619-.Ltmp618              #   Call between .Ltmp618 and .Ltmp619
	.uleb128 .Ltmp620-.Lfunc_begin0         #     jumps to .Ltmp620
	.byte	1                               #   On action: 1
	.uleb128 .Ltmp621-.Lfunc_begin0         # >> Call Site 166 <<
	.uleb128 .Ltmp622-.Ltmp621              #   Call between .Ltmp621 and .Ltmp622
	.uleb128 .Ltmp623-.Lfunc_begin0         #     jumps to .Ltmp623
	.byte	1                               #   On action: 1
	.uleb128 .Ltmp622-.Lfunc_begin0         # >> Call Site 167 <<
	.uleb128 .Ltmp603-.Ltmp622              #   Call between .Ltmp622 and .Ltmp603
	.byte	0                               #     has no landing pad
	.byte	0                               #   On action: cleanup
	.uleb128 .Ltmp603-.Lfunc_begin0         # >> Call Site 168 <<
	.uleb128 .Ltmp604-.Ltmp603              #   Call between .Ltmp603 and .Ltmp604
	.uleb128 .Ltmp605-.Lfunc_begin0         #     jumps to .Ltmp605
	.byte	1                               #   On action: 1
	.uleb128 .Ltmp606-.Lfunc_begin0         # >> Call Site 169 <<
	.uleb128 .Ltmp607-.Ltmp606              #   Call between .Ltmp606 and .Ltmp607
	.uleb128 .Ltmp608-.Lfunc_begin0         #     jumps to .Ltmp608
	.byte	1                               #   On action: 1
	.uleb128 .Ltmp607-.Lfunc_begin0         # >> Call Site 170 <<
	.uleb128 .Ltmp588-.Ltmp607              #   Call between .Ltmp607 and .Ltmp588
	.byte	0                               #     has no landing pad
	.byte	0                               #   On action: cleanup
	.uleb128 .Ltmp588-.Lfunc_begin0         # >> Call Site 171 <<
	.uleb128 .Ltmp589-.Ltmp588              #   Call between .Ltmp588 and .Ltmp589
	.uleb128 .Ltmp590-.Lfunc_begin0         #     jumps to .Ltmp590
	.byte	1                               #   On action: 1
	.uleb128 .Ltmp591-.Lfunc_begin0         # >> Call Site 172 <<
	.uleb128 .Ltmp592-.Ltmp591              #   Call between .Ltmp591 and .Ltmp592
	.uleb128 .Ltmp593-.Lfunc_begin0         #     jumps to .Ltmp593
	.byte	1                               #   On action: 1
	.uleb128 .Ltmp592-.Lfunc_begin0         # >> Call Site 173 <<
	.uleb128 .Ltmp573-.Ltmp592              #   Call between .Ltmp592 and .Ltmp573
	.byte	0                               #     has no landing pad
	.byte	0                               #   On action: cleanup
	.uleb128 .Ltmp573-.Lfunc_begin0         # >> Call Site 174 <<
	.uleb128 .Ltmp574-.Ltmp573              #   Call between .Ltmp573 and .Ltmp574
	.uleb128 .Ltmp575-.Lfunc_begin0         #     jumps to .Ltmp575
	.byte	1                               #   On action: 1
	.uleb128 .Ltmp576-.Lfunc_begin0         # >> Call Site 175 <<
	.uleb128 .Ltmp577-.Ltmp576              #   Call between .Ltmp576 and .Ltmp577
	.uleb128 .Ltmp578-.Lfunc_begin0         #     jumps to .Ltmp578
	.byte	1                               #   On action: 1
	.uleb128 .Ltmp577-.Lfunc_begin0         # >> Call Site 176 <<
	.uleb128 .Ltmp558-.Ltmp577              #   Call between .Ltmp577 and .Ltmp558
	.byte	0                               #     has no landing pad
	.byte	0                               #   On action: cleanup
	.uleb128 .Ltmp558-.Lfunc_begin0         # >> Call Site 177 <<
	.uleb128 .Ltmp559-.Ltmp558              #   Call between .Ltmp558 and .Ltmp559
	.uleb128 .Ltmp560-.Lfunc_begin0         #     jumps to .Ltmp560
	.byte	1                               #   On action: 1
	.uleb128 .Ltmp561-.Lfunc_begin0         # >> Call Site 178 <<
	.uleb128 .Ltmp562-.Ltmp561              #   Call between .Ltmp561 and .Ltmp562
	.uleb128 .Ltmp563-.Lfunc_begin0         #     jumps to .Ltmp563
	.byte	1                               #   On action: 1
	.uleb128 .Ltmp562-.Lfunc_begin0         # >> Call Site 179 <<
	.uleb128 .Ltmp543-.Ltmp562              #   Call between .Ltmp562 and .Ltmp543
	.byte	0                               #     has no landing pad
	.byte	0                               #   On action: cleanup
	.uleb128 .Ltmp543-.Lfunc_begin0         # >> Call Site 180 <<
	.uleb128 .Ltmp544-.Ltmp543              #   Call between .Ltmp543 and .Ltmp544
	.uleb128 .Ltmp545-.Lfunc_begin0         #     jumps to .Ltmp545
	.byte	1                               #   On action: 1
	.uleb128 .Ltmp546-.Lfunc_begin0         # >> Call Site 181 <<
	.uleb128 .Ltmp547-.Ltmp546              #   Call between .Ltmp546 and .Ltmp547
	.uleb128 .Ltmp548-.Lfunc_begin0         #     jumps to .Ltmp548
	.byte	1                               #   On action: 1
	.uleb128 .Ltmp547-.Lfunc_begin0         # >> Call Site 182 <<
	.uleb128 .Ltmp528-.Ltmp547              #   Call between .Ltmp547 and .Ltmp528
	.byte	0                               #     has no landing pad
	.byte	0                               #   On action: cleanup
	.uleb128 .Ltmp528-.Lfunc_begin0         # >> Call Site 183 <<
	.uleb128 .Ltmp529-.Ltmp528              #   Call between .Ltmp528 and .Ltmp529
	.uleb128 .Ltmp530-.Lfunc_begin0         #     jumps to .Ltmp530
	.byte	1                               #   On action: 1
	.uleb128 .Ltmp531-.Lfunc_begin0         # >> Call Site 184 <<
	.uleb128 .Ltmp532-.Ltmp531              #   Call between .Ltmp531 and .Ltmp532
	.uleb128 .Ltmp533-.Lfunc_begin0         #     jumps to .Ltmp533
	.byte	1                               #   On action: 1
	.uleb128 .Ltmp532-.Lfunc_begin0         # >> Call Site 185 <<
	.uleb128 .Ltmp513-.Ltmp532              #   Call between .Ltmp532 and .Ltmp513
	.byte	0                               #     has no landing pad
	.byte	0                               #   On action: cleanup
	.uleb128 .Ltmp513-.Lfunc_begin0         # >> Call Site 186 <<
	.uleb128 .Ltmp514-.Ltmp513              #   Call between .Ltmp513 and .Ltmp514
	.uleb128 .Ltmp515-.Lfunc_begin0         #     jumps to .Ltmp515
	.byte	1                               #   On action: 1
	.uleb128 .Ltmp516-.Lfunc_begin0         # >> Call Site 187 <<
	.uleb128 .Ltmp517-.Ltmp516              #   Call between .Ltmp516 and .Ltmp517
	.uleb128 .Ltmp518-.Lfunc_begin0         #     jumps to .Ltmp518
	.byte	1                               #   On action: 1
	.uleb128 .Ltmp517-.Lfunc_begin0         # >> Call Site 188 <<
	.uleb128 .Ltmp498-.Ltmp517              #   Call between .Ltmp517 and .Ltmp498
	.byte	0                               #     has no landing pad
	.byte	0                               #   On action: cleanup
	.uleb128 .Ltmp498-.Lfunc_begin0         # >> Call Site 189 <<
	.uleb128 .Ltmp499-.Ltmp498              #   Call between .Ltmp498 and .Ltmp499
	.uleb128 .Ltmp500-.Lfunc_begin0         #     jumps to .Ltmp500
	.byte	1                               #   On action: 1
	.uleb128 .Ltmp501-.Lfunc_begin0         # >> Call Site 190 <<
	.uleb128 .Ltmp502-.Ltmp501              #   Call between .Ltmp501 and .Ltmp502
	.uleb128 .Ltmp503-.Lfunc_begin0         #     jumps to .Ltmp503
	.byte	1                               #   On action: 1
	.uleb128 .Ltmp502-.Lfunc_begin0         # >> Call Site 191 <<
	.uleb128 .Ltmp483-.Ltmp502              #   Call between .Ltmp502 and .Ltmp483
	.byte	0                               #     has no landing pad
	.byte	0                               #   On action: cleanup
	.uleb128 .Ltmp483-.Lfunc_begin0         # >> Call Site 192 <<
	.uleb128 .Ltmp484-.Ltmp483              #   Call between .Ltmp483 and .Ltmp484
	.uleb128 .Ltmp485-.Lfunc_begin0         #     jumps to .Ltmp485
	.byte	1                               #   On action: 1
	.uleb128 .Ltmp486-.Lfunc_begin0         # >> Call Site 193 <<
	.uleb128 .Ltmp487-.Ltmp486              #   Call between .Ltmp486 and .Ltmp487
	.uleb128 .Ltmp488-.Lfunc_begin0         #     jumps to .Ltmp488
	.byte	1                               #   On action: 1
	.uleb128 .Ltmp487-.Lfunc_begin0         # >> Call Site 194 <<
	.uleb128 .Ltmp468-.Ltmp487              #   Call between .Ltmp487 and .Ltmp468
	.byte	0                               #     has no landing pad
	.byte	0                               #   On action: cleanup
	.uleb128 .Ltmp468-.Lfunc_begin0         # >> Call Site 195 <<
	.uleb128 .Ltmp469-.Ltmp468              #   Call between .Ltmp468 and .Ltmp469
	.uleb128 .Ltmp470-.Lfunc_begin0         #     jumps to .Ltmp470
	.byte	1                               #   On action: 1
	.uleb128 .Ltmp471-.Lfunc_begin0         # >> Call Site 196 <<
	.uleb128 .Ltmp472-.Ltmp471              #   Call between .Ltmp471 and .Ltmp472
	.uleb128 .Ltmp473-.Lfunc_begin0         #     jumps to .Ltmp473
	.byte	1                               #   On action: 1
	.uleb128 .Ltmp472-.Lfunc_begin0         # >> Call Site 197 <<
	.uleb128 .Ltmp453-.Ltmp472              #   Call between .Ltmp472 and .Ltmp453
	.byte	0                               #     has no landing pad
	.byte	0                               #   On action: cleanup
	.uleb128 .Ltmp453-.Lfunc_begin0         # >> Call Site 198 <<
	.uleb128 .Ltmp454-.Ltmp453              #   Call between .Ltmp453 and .Ltmp454
	.uleb128 .Ltmp455-.Lfunc_begin0         #     jumps to .Ltmp455
	.byte	1                               #   On action: 1
	.uleb128 .Ltmp456-.Lfunc_begin0         # >> Call Site 199 <<
	.uleb128 .Ltmp457-.Ltmp456              #   Call between .Ltmp456 and .Ltmp457
	.uleb128 .Ltmp458-.Lfunc_begin0         #     jumps to .Ltmp458
	.byte	1                               #   On action: 1
	.uleb128 .Ltmp457-.Lfunc_begin0         # >> Call Site 200 <<
	.uleb128 .Ltmp438-.Ltmp457              #   Call between .Ltmp457 and .Ltmp438
	.byte	0                               #     has no landing pad
	.byte	0                               #   On action: cleanup
	.uleb128 .Ltmp438-.Lfunc_begin0         # >> Call Site 201 <<
	.uleb128 .Ltmp439-.Ltmp438              #   Call between .Ltmp438 and .Ltmp439
	.uleb128 .Ltmp440-.Lfunc_begin0         #     jumps to .Ltmp440
	.byte	1                               #   On action: 1
	.uleb128 .Ltmp441-.Lfunc_begin0         # >> Call Site 202 <<
	.uleb128 .Ltmp442-.Ltmp441              #   Call between .Ltmp441 and .Ltmp442
	.uleb128 .Ltmp443-.Lfunc_begin0         #     jumps to .Ltmp443
	.byte	1                               #   On action: 1
	.uleb128 .Ltmp442-.Lfunc_begin0         # >> Call Site 203 <<
	.uleb128 .Ltmp423-.Ltmp442              #   Call between .Ltmp442 and .Ltmp423
	.byte	0                               #     has no landing pad
	.byte	0                               #   On action: cleanup
	.uleb128 .Ltmp423-.Lfunc_begin0         # >> Call Site 204 <<
	.uleb128 .Ltmp424-.Ltmp423              #   Call between .Ltmp423 and .Ltmp424
	.uleb128 .Ltmp425-.Lfunc_begin0         #     jumps to .Ltmp425
	.byte	1                               #   On action: 1
	.uleb128 .Ltmp426-.Lfunc_begin0         # >> Call Site 205 <<
	.uleb128 .Ltmp427-.Ltmp426              #   Call between .Ltmp426 and .Ltmp427
	.uleb128 .Ltmp428-.Lfunc_begin0         #     jumps to .Ltmp428
	.byte	1                               #   On action: 1
	.uleb128 .Ltmp427-.Lfunc_begin0         # >> Call Site 206 <<
	.uleb128 .Ltmp408-.Ltmp427              #   Call between .Ltmp427 and .Ltmp408
	.byte	0                               #     has no landing pad
	.byte	0                               #   On action: cleanup
	.uleb128 .Ltmp408-.Lfunc_begin0         # >> Call Site 207 <<
	.uleb128 .Ltmp409-.Ltmp408              #   Call between .Ltmp408 and .Ltmp409
	.uleb128 .Ltmp410-.Lfunc_begin0         #     jumps to .Ltmp410
	.byte	1                               #   On action: 1
	.uleb128 .Ltmp411-.Lfunc_begin0         # >> Call Site 208 <<
	.uleb128 .Ltmp412-.Ltmp411              #   Call between .Ltmp411 and .Ltmp412
	.uleb128 .Ltmp413-.Lfunc_begin0         #     jumps to .Ltmp413
	.byte	1                               #   On action: 1
	.uleb128 .Ltmp412-.Lfunc_begin0         # >> Call Site 209 <<
	.uleb128 .Ltmp393-.Ltmp412              #   Call between .Ltmp412 and .Ltmp393
	.byte	0                               #     has no landing pad
	.byte	0                               #   On action: cleanup
	.uleb128 .Ltmp393-.Lfunc_begin0         # >> Call Site 210 <<
	.uleb128 .Ltmp394-.Ltmp393              #   Call between .Ltmp393 and .Ltmp394
	.uleb128 .Ltmp395-.Lfunc_begin0         #     jumps to .Ltmp395
	.byte	1                               #   On action: 1
	.uleb128 .Ltmp396-.Lfunc_begin0         # >> Call Site 211 <<
	.uleb128 .Ltmp397-.Ltmp396              #   Call between .Ltmp396 and .Ltmp397
	.uleb128 .Ltmp398-.Lfunc_begin0         #     jumps to .Ltmp398
	.byte	1                               #   On action: 1
	.uleb128 .Ltmp397-.Lfunc_begin0         # >> Call Site 212 <<
	.uleb128 .Ltmp378-.Ltmp397              #   Call between .Ltmp397 and .Ltmp378
	.byte	0                               #     has no landing pad
	.byte	0                               #   On action: cleanup
	.uleb128 .Ltmp378-.Lfunc_begin0         # >> Call Site 213 <<
	.uleb128 .Ltmp379-.Ltmp378              #   Call between .Ltmp378 and .Ltmp379
	.uleb128 .Ltmp380-.Lfunc_begin0         #     jumps to .Ltmp380
	.byte	1                               #   On action: 1
	.uleb128 .Ltmp381-.Lfunc_begin0         # >> Call Site 214 <<
	.uleb128 .Ltmp382-.Ltmp381              #   Call between .Ltmp381 and .Ltmp382
	.uleb128 .Ltmp383-.Lfunc_begin0         #     jumps to .Ltmp383
	.byte	1                               #   On action: 1
	.uleb128 .Ltmp382-.Lfunc_begin0         # >> Call Site 215 <<
	.uleb128 .Ltmp363-.Ltmp382              #   Call between .Ltmp382 and .Ltmp363
	.byte	0                               #     has no landing pad
	.byte	0                               #   On action: cleanup
	.uleb128 .Ltmp363-.Lfunc_begin0         # >> Call Site 216 <<
	.uleb128 .Ltmp364-.Ltmp363              #   Call between .Ltmp363 and .Ltmp364
	.uleb128 .Ltmp365-.Lfunc_begin0         #     jumps to .Ltmp365
	.byte	1                               #   On action: 1
	.uleb128 .Ltmp366-.Lfunc_begin0         # >> Call Site 217 <<
	.uleb128 .Ltmp367-.Ltmp366              #   Call between .Ltmp366 and .Ltmp367
	.uleb128 .Ltmp368-.Lfunc_begin0         #     jumps to .Ltmp368
	.byte	1                               #   On action: 1
	.uleb128 .Ltmp367-.Lfunc_begin0         # >> Call Site 218 <<
	.uleb128 .Ltmp348-.Ltmp367              #   Call between .Ltmp367 and .Ltmp348
	.byte	0                               #     has no landing pad
	.byte	0                               #   On action: cleanup
	.uleb128 .Ltmp348-.Lfunc_begin0         # >> Call Site 219 <<
	.uleb128 .Ltmp349-.Ltmp348              #   Call between .Ltmp348 and .Ltmp349
	.uleb128 .Ltmp350-.Lfunc_begin0         #     jumps to .Ltmp350
	.byte	1                               #   On action: 1
	.uleb128 .Ltmp351-.Lfunc_begin0         # >> Call Site 220 <<
	.uleb128 .Ltmp352-.Ltmp351              #   Call between .Ltmp351 and .Ltmp352
	.uleb128 .Ltmp353-.Lfunc_begin0         #     jumps to .Ltmp353
	.byte	1                               #   On action: 1
	.uleb128 .Ltmp352-.Lfunc_begin0         # >> Call Site 221 <<
	.uleb128 .Ltmp333-.Ltmp352              #   Call between .Ltmp352 and .Ltmp333
	.byte	0                               #     has no landing pad
	.byte	0                               #   On action: cleanup
	.uleb128 .Ltmp333-.Lfunc_begin0         # >> Call Site 222 <<
	.uleb128 .Ltmp334-.Ltmp333              #   Call between .Ltmp333 and .Ltmp334
	.uleb128 .Ltmp335-.Lfunc_begin0         #     jumps to .Ltmp335
	.byte	1                               #   On action: 1
	.uleb128 .Ltmp336-.Lfunc_begin0         # >> Call Site 223 <<
	.uleb128 .Ltmp337-.Ltmp336              #   Call between .Ltmp336 and .Ltmp337
	.uleb128 .Ltmp338-.Lfunc_begin0         #     jumps to .Ltmp338
	.byte	1                               #   On action: 1
	.uleb128 .Ltmp337-.Lfunc_begin0         # >> Call Site 224 <<
	.uleb128 .Ltmp318-.Ltmp337              #   Call between .Ltmp337 and .Ltmp318
	.byte	0                               #     has no landing pad
	.byte	0                               #   On action: cleanup
	.uleb128 .Ltmp318-.Lfunc_begin0         # >> Call Site 225 <<
	.uleb128 .Ltmp319-.Ltmp318              #   Call between .Ltmp318 and .Ltmp319
	.uleb128 .Ltmp320-.Lfunc_begin0         #     jumps to .Ltmp320
	.byte	1                               #   On action: 1
	.uleb128 .Ltmp321-.Lfunc_begin0         # >> Call Site 226 <<
	.uleb128 .Ltmp322-.Ltmp321              #   Call between .Ltmp321 and .Ltmp322
	.uleb128 .Ltmp323-.Lfunc_begin0         #     jumps to .Ltmp323
	.byte	1                               #   On action: 1
	.uleb128 .Ltmp322-.Lfunc_begin0         # >> Call Site 227 <<
	.uleb128 .Ltmp303-.Ltmp322              #   Call between .Ltmp322 and .Ltmp303
	.byte	0                               #     has no landing pad
	.byte	0                               #   On action: cleanup
	.uleb128 .Ltmp303-.Lfunc_begin0         # >> Call Site 228 <<
	.uleb128 .Ltmp304-.Ltmp303              #   Call between .Ltmp303 and .Ltmp304
	.uleb128 .Ltmp305-.Lfunc_begin0         #     jumps to .Ltmp305
	.byte	1                               #   On action: 1
	.uleb128 .Ltmp306-.Lfunc_begin0         # >> Call Site 229 <<
	.uleb128 .Ltmp307-.Ltmp306              #   Call between .Ltmp306 and .Ltmp307
	.uleb128 .Ltmp308-.Lfunc_begin0         #     jumps to .Ltmp308
