	.file	"loop_unroll.cpp"
	.text
	.globl	_Z13record_resultdPKc           # -- Begin function _Z13record_resultdPKc
	.p2align	5
	.type	_Z13record_resultdPKc,@function
_Z13record_resultdPKc:                  # @_Z13record_resultdPKc
# %bb.0:                                # %entry
	addi.d	$sp, $sp, -48
	st.d	$ra, $sp, 40                    # 8-byte Folded Spill
	st.d	$fp, $sp, 32                    # 8-byte Folded Spill
	st.d	$s0, $sp, 24                    # 8-byte Folded Spill
	st.d	$s1, $sp, 16                    # 8-byte Folded Spill
	st.d	$s2, $sp, 8                     # 8-byte Folded Spill
	fst.d	$fs0, $sp, 0                    # 8-byte Folded Spill
	pcalau12i	$s2, %pc_hi20(results)
	ld.d	$a2, $s2, %pc_lo12(results)
	pcalau12i	$s1, %pc_hi20(allocated_results)
	ld.w	$a1, $s1, %pc_lo12(allocated_results)
	move	$fp, $a0
	fmov.d	$fs0, $fa0
	pcalau12i	$s0, %pc_hi20(current_test)
	beqz	$a2, .LBB0_2
# %bb.1:                                # %entry
	ld.w	$a0, $s0, %pc_lo12(current_test)
	blt	$a0, $a1, .LBB0_4
.LBB0_2:                                # %if.then
	addi.w	$a0, $a1, 10
	st.w	$a0, $s1, %pc_lo12(allocated_results)
	slli.d	$a1, $a0, 4
	move	$a0, $a2
	pcaddu18i	$ra, %call36(realloc)
	jirl	$ra, $ra, 0
	st.d	$a0, $s2, %pc_lo12(results)
	beqz	$a0, .LBB0_5
# %bb.3:                                # %if.then.if.end5_crit_edge
	move	$a2, $a0
	ld.w	$a0, $s0, %pc_lo12(current_test)
.LBB0_4:                                # %if.end5
	alsl.d	$a1, $a0, $a2, 4
	slli.d	$a3, $a0, 4
	fstx.d	$fs0, $a2, $a3
	st.d	$fp, $a1, 8
	addi.d	$a0, $a0, 1
	st.w	$a0, $s0, %pc_lo12(current_test)
	fld.d	$fs0, $sp, 0                    # 8-byte Folded Reload
	ld.d	$s2, $sp, 8                     # 8-byte Folded Reload
	ld.d	$s1, $sp, 16                    # 8-byte Folded Reload
	ld.d	$s0, $sp, 24                    # 8-byte Folded Reload
	ld.d	$fp, $sp, 32                    # 8-byte Folded Reload
	ld.d	$ra, $sp, 40                    # 8-byte Folded Reload
	addi.d	$sp, $sp, 48
	ret
.LBB0_5:                                # %if.then3
	ld.w	$a1, $s1, %pc_lo12(allocated_results)
	pcalau12i	$a0, %pc_hi20(.L.str)
	addi.d	$a0, $a0, %pc_lo12(.L.str)
	pcaddu18i	$ra, %call36(printf)
	jirl	$ra, $ra, 0
	addi.w	$a0, $zero, -1
	pcaddu18i	$ra, %call36(exit)
	jirl	$ra, $ra, 0
.Lfunc_end0:
	.size	_Z13record_resultdPKc, .Lfunc_end0-_Z13record_resultdPKc
                                        # -- End function
	.section	.rodata.cst8,"aM",@progbits,8
	.p2align	3, 0x0                          # -- Begin function _Z9summarizePKciiii
.LCPI1_0:
	.dword	0x412e848000000000              # double 1.0E+6
	.text
	.globl	_Z9summarizePKciiii
	.p2align	5
	.type	_Z9summarizePKciiii,@function
_Z9summarizePKciiii:                    # @_Z9summarizePKciiii
# %bb.0:                                # %entry
	addi.d	$sp, $sp, -128
	st.d	$ra, $sp, 120                   # 8-byte Folded Spill
	st.d	$fp, $sp, 112                   # 8-byte Folded Spill
	st.d	$s0, $sp, 104                   # 8-byte Folded Spill
	st.d	$s1, $sp, 96                    # 8-byte Folded Spill
	st.d	$s2, $sp, 88                    # 8-byte Folded Spill
	st.d	$s3, $sp, 80                    # 8-byte Folded Spill
	st.d	$s4, $sp, 72                    # 8-byte Folded Spill
	st.d	$s5, $sp, 64                    # 8-byte Folded Spill
	st.d	$s6, $sp, 56                    # 8-byte Folded Spill
	st.d	$s7, $sp, 48                    # 8-byte Folded Spill
	st.d	$s8, $sp, 40                    # 8-byte Folded Spill
	fst.d	$fs0, $sp, 32                   # 8-byte Folded Spill
	fst.d	$fs1, $sp, 24                   # 8-byte Folded Spill
	pcalau12i	$s6, %pc_hi20(current_test)
	ld.w	$fp, $s6, %pc_lo12(current_test)
	move	$s0, $a4
	move	$s2, $a2
	move	$s3, $a1
	move	$s5, $a0
	pcalau12i	$s7, %pc_hi20(results)
	blez	$fp, .LBB1_3
# %bb.1:                                # %for.body.lr.ph
	ld.d	$a0, $s7, %pc_lo12(results)
	addi.d	$s4, $a0, 8
	ori	$s1, $zero, 12
	.p2align	4, , 16
.LBB1_2:                                # %for.body
                                        # =>This Inner Loop Header: Depth=1
	ld.d	$a0, $s4, 0
	pcaddu18i	$ra, %call36(strlen)
	jirl	$ra, $ra, 0
	addi.w	$a0, $a0, 0
	slt	$a1, $a0, $s1
	masknez	$a0, $a0, $a1
	maskeqz	$a1, $s1, $a1
	or	$s1, $a1, $a0
	addi.d	$fp, $fp, -1
	addi.d	$s4, $s4, 16
	bnez	$fp, .LBB1_2
	b	.LBB1_4
.LBB1_3:
	ori	$s1, $zero, 12
.LBB1_4:                                # %for.end
	addi.w	$a1, $s1, -12
	pcalau12i	$a0, %pc_hi20(.L.str.1)
	addi.d	$a0, $a0, %pc_lo12(.L.str.1)
	pcalau12i	$a2, %pc_hi20(.L.str.2)
	addi.d	$s4, $a2, %pc_lo12(.L.str.2)
	move	$a2, $s4
	pcaddu18i	$ra, %call36(printf)
	jirl	$ra, $ra, 0
	pcalau12i	$a0, %pc_hi20(.L.str.3)
	addi.d	$a0, $a0, %pc_lo12(.L.str.3)
	move	$a1, $s1
	move	$a2, $s4
	pcaddu18i	$ra, %call36(printf)
	jirl	$ra, $ra, 0
	ld.w	$a0, $s6, %pc_lo12(current_test)
	movgr2fr.d	$fs0, $zero
	blez	$a0, .LBB1_10
# %bb.5:                                # %for.body8.preheader
	st.d	$s0, $sp, 8                     # 8-byte Folded Spill
	st.d	$s5, $sp, 16                    # 8-byte Folded Spill
	movgr2fr.w	$fa0, $s3
	movgr2fr.w	$fa1, $s2
	pcalau12i	$a0, %pc_hi20(.LCPI1_0)
	fld.d	$fa2, $a0, %pc_lo12(.LCPI1_0)
	ffint.d.w	$fa0, $fa0
	ffint.d.w	$fa1, $fa1
	fmul.d	$fa0, $fa0, $fa1
	fdiv.d	$fs1, $fa0, $fa2
	pcalau12i	$a0, %pc_hi20(.L.str.4)
	addi.d	$s2, $a0, %pc_lo12(.L.str.4)
	pcalau12i	$a0, %pc_hi20(.L.str.5)
	addi.d	$s3, $a0, %pc_lo12(.L.str.5)
	move	$s8, $zero
	move	$s4, $zero
	move	$fp, $zero
	.p2align	4, , 16
.LBB1_6:                                # %for.body8
                                        # =>This Inner Loop Header: Depth=1
	ld.d	$s0, $s7, %pc_lo12(results)
	add.d	$a0, $s0, $s8
	ld.d	$s5, $a0, 8
	move	$a0, $s5
	pcaddu18i	$ra, %call36(strlen)
	jirl	$ra, $ra, 0
	fldx.d	$fa0, $s0, $s8
	fld.d	$fa1, $s0, 0
	sub.w	$a2, $s1, $a0
	fdiv.d	$fa2, $fs1, $fa0
	fdiv.d	$fa1, $fa0, $fa1
	movfr2gr.d	$a5, $fa0
	movfr2gr.d	$a6, $fa2
	movfr2gr.d	$a7, $fa1
	move	$a0, $s2
	move	$a1, $s4
	move	$a3, $s3
	move	$a4, $s5
	pcaddu18i	$ra, %call36(printf)
	jirl	$ra, $ra, 0
	ld.w	$a0, $s6, %pc_lo12(current_test)
	addi.d	$fp, $fp, 1
	addi.w	$s4, $s4, 1
	addi.d	$s8, $s8, 16
	blt	$fp, $a0, .LBB1_6
# %bb.7:                                # %for.cond35.preheader
	ld.d	$s5, $sp, 16                    # 8-byte Folded Reload
	ld.d	$s0, $sp, 8                     # 8-byte Folded Reload
	blez	$a0, .LBB1_10
# %bb.8:                                # %for.body37.lr.ph
	ld.d	$a1, $s7, %pc_lo12(results)
	movgr2fr.d	$fs0, $zero
	.p2align	4, , 16
.LBB1_9:                                # %for.body37
                                        # =>This Inner Loop Header: Depth=1
	fld.d	$fa0, $a1, 0
	fadd.d	$fs0, $fs0, $fa0
	addi.d	$a0, $a0, -1
	addi.d	$a1, $a1, 16
	bnez	$a0, .LBB1_9
.LBB1_10:                               # %for.end43
	movfr2gr.d	$a2, $fs0
	pcalau12i	$a0, %pc_hi20(.L.str.6)
	addi.d	$a0, $a0, %pc_lo12(.L.str.6)
	move	$a1, $s5
	pcaddu18i	$ra, %call36(printf)
	jirl	$ra, $ra, 0
	beqz	$s0, .LBB1_15
# %bb.11:                               # %for.end43
	ld.w	$a0, $s6, %pc_lo12(current_test)
	ori	$a1, $zero, 2
	blt	$a0, $a1, .LBB1_15
# %bb.12:                               # %for.body49.lr.ph
	ld.d	$a0, $s7, %pc_lo12(results)
	fld.d	$fs1, $a0, 0
	addi.d	$fp, $a0, 16
	movgr2fr.d	$fs0, $zero
	ori	$s0, $zero, 1
	.p2align	4, , 16
.LBB1_13:                               # %for.body49
                                        # =>This Inner Loop Header: Depth=1
	fld.d	$fa0, $fp, 0
	fdiv.d	$fa0, $fa0, $fs1
	pcaddu18i	$ra, %call36(log)
	jirl	$ra, $ra, 0
	ld.w	$a0, $s6, %pc_lo12(current_test)
	fadd.d	$fs0, $fs0, $fa0
	addi.d	$s0, $s0, 1
	addi.d	$fp, $fp, 16
	blt	$s0, $a0, .LBB1_13
# %bb.14:                               # %for.end60
	addi.d	$a0, $a0, -1
	movgr2fr.w	$fa0, $a0
	ffint.d.w	$fa0, $fa0
	fdiv.d	$fa0, $fs0, $fa0
	pcaddu18i	$ra, %call36(exp)
	jirl	$ra, $ra, 0
	movfr2gr.d	$a2, $fa0
	pcalau12i	$a0, %pc_hi20(.L.str.7)
	addi.d	$a0, $a0, %pc_lo12(.L.str.7)
	move	$a1, $s5
	pcaddu18i	$ra, %call36(printf)
	jirl	$ra, $ra, 0
.LBB1_15:                               # %if.end66
	st.w	$zero, $s6, %pc_lo12(current_test)
	fld.d	$fs1, $sp, 24                   # 8-byte Folded Reload
	fld.d	$fs0, $sp, 32                   # 8-byte Folded Reload
	ld.d	$s8, $sp, 40                    # 8-byte Folded Reload
	ld.d	$s7, $sp, 48                    # 8-byte Folded Reload
	ld.d	$s6, $sp, 56                    # 8-byte Folded Reload
	ld.d	$s5, $sp, 64                    # 8-byte Folded Reload
	ld.d	$s4, $sp, 72                    # 8-byte Folded Reload
	ld.d	$s3, $sp, 80                    # 8-byte Folded Reload
	ld.d	$s2, $sp, 88                    # 8-byte Folded Reload
	ld.d	$s1, $sp, 96                    # 8-byte Folded Reload
	ld.d	$s0, $sp, 104                   # 8-byte Folded Reload
	ld.d	$fp, $sp, 112                   # 8-byte Folded Reload
	ld.d	$ra, $sp, 120                   # 8-byte Folded Reload
	addi.d	$sp, $sp, 128
	ret
.Lfunc_end1:
	.size	_Z9summarizePKciiii, .Lfunc_end1-_Z9summarizePKciiii
                                        # -- End function
	.globl	_Z17summarize_simplefP8_IO_FILEPKc # -- Begin function _Z17summarize_simplefP8_IO_FILEPKc
	.p2align	5
	.type	_Z17summarize_simplefP8_IO_FILEPKc,@function
_Z17summarize_simplefP8_IO_FILEPKc:     # @_Z17summarize_simplefP8_IO_FILEPKc
# %bb.0:                                # %entry
	addi.d	$sp, $sp, -128
	st.d	$ra, $sp, 120                   # 8-byte Folded Spill
	st.d	$fp, $sp, 112                   # 8-byte Folded Spill
	st.d	$s0, $sp, 104                   # 8-byte Folded Spill
	st.d	$s1, $sp, 96                    # 8-byte Folded Spill
	st.d	$s2, $sp, 88                    # 8-byte Folded Spill
	st.d	$s3, $sp, 80                    # 8-byte Folded Spill
	st.d	$s4, $sp, 72                    # 8-byte Folded Spill
	st.d	$s5, $sp, 64                    # 8-byte Folded Spill
	st.d	$s6, $sp, 56                    # 8-byte Folded Spill
	st.d	$s7, $sp, 48                    # 8-byte Folded Spill
	st.d	$s8, $sp, 40                    # 8-byte Folded Spill
	fst.d	$fs0, $sp, 32                   # 8-byte Folded Spill
	pcalau12i	$s5, %pc_hi20(current_test)
	ld.w	$fp, $s5, %pc_lo12(current_test)
	move	$s0, $a1
	move	$s7, $a0
	pcalau12i	$s3, %pc_hi20(results)
	blez	$fp, .LBB2_3
# %bb.1:                                # %for.body.lr.ph
	ld.d	$a0, $s3, %pc_lo12(results)
	addi.d	$s2, $a0, 8
	ori	$s1, $zero, 12
	.p2align	4, , 16
.LBB2_2:                                # %for.body
                                        # =>This Inner Loop Header: Depth=1
	ld.d	$a0, $s2, 0
	pcaddu18i	$ra, %call36(strlen)
	jirl	$ra, $ra, 0
	addi.w	$a0, $a0, 0
	slt	$a1, $a0, $s1
	masknez	$a0, $a0, $a1
	maskeqz	$a1, $s1, $a1
	or	$s1, $a1, $a0
	addi.d	$fp, $fp, -1
	addi.d	$s2, $s2, 16
	bnez	$fp, .LBB2_2
	b	.LBB2_4
.LBB2_3:
	ori	$s1, $zero, 12
.LBB2_4:                                # %for.end
	addi.w	$a2, $s1, -12
	pcalau12i	$a0, %pc_hi20(.L.str.8)
	addi.d	$a1, $a0, %pc_lo12(.L.str.8)
	pcalau12i	$a0, %pc_hi20(.L.str.2)
	addi.d	$s2, $a0, %pc_lo12(.L.str.2)
	move	$a0, $s7
	move	$a3, $s2
	pcaddu18i	$ra, %call36(fprintf)
	jirl	$ra, $ra, 0
	pcalau12i	$a0, %pc_hi20(.L.str.9)
	addi.d	$a1, $a0, %pc_lo12(.L.str.9)
	move	$a0, $s7
	move	$a2, $s1
	move	$a3, $s2
	pcaddu18i	$ra, %call36(fprintf)
	jirl	$ra, $ra, 0
	ld.w	$a0, $s5, %pc_lo12(current_test)
	movgr2fr.d	$fs0, $zero
	blez	$a0, .LBB2_10
# %bb.5:                                # %for.body6.preheader
	st.d	$s0, $sp, 16                    # 8-byte Folded Spill
	pcalau12i	$a0, %pc_hi20(.L.str.10)
	addi.d	$a0, $a0, %pc_lo12(.L.str.10)
	st.d	$a0, $sp, 24                    # 8-byte Folded Spill
	pcalau12i	$a0, %pc_hi20(.L.str.5)
	addi.d	$s2, $a0, %pc_lo12(.L.str.5)
	move	$s8, $zero
	move	$s4, $zero
	move	$fp, $zero
	.p2align	4, , 16
.LBB2_6:                                # %for.body6
                                        # =>This Inner Loop Header: Depth=1
	ld.d	$s6, $s3, %pc_lo12(results)
	add.d	$a0, $s6, $s8
	move	$s0, $s5
	ld.d	$s5, $a0, 8
	move	$a0, $s5
	pcaddu18i	$ra, %call36(strlen)
	jirl	$ra, $ra, 0
	ldx.d	$a6, $s6, $s8
	sub.w	$a3, $s1, $a0
	move	$a0, $s7
	ld.d	$a1, $sp, 24                    # 8-byte Folded Reload
	move	$a2, $s4
	move	$a4, $s2
	move	$a5, $s5
	move	$s5, $s0
	pcaddu18i	$ra, %call36(fprintf)
	jirl	$ra, $ra, 0
	ld.w	$a0, $s0, %pc_lo12(current_test)
	addi.d	$fp, $fp, 1
	addi.w	$s4, $s4, 1
	addi.d	$s8, $s8, 16
	blt	$fp, $a0, .LBB2_6
# %bb.7:                                # %for.cond23.preheader
	ld.d	$s0, $sp, 16                    # 8-byte Folded Reload
	blez	$a0, .LBB2_10
# %bb.8:                                # %for.body25.lr.ph
	ld.d	$a1, $s3, %pc_lo12(results)
	movgr2fr.d	$fs0, $zero
	.p2align	4, , 16
.LBB2_9:                                # %for.body25
                                        # =>This Inner Loop Header: Depth=1
	fld.d	$fa0, $a1, 0
	fadd.d	$fs0, $fs0, $fa0
	addi.d	$a0, $a0, -1
	addi.d	$a1, $a1, 16
	bnez	$a0, .LBB2_9
.LBB2_10:                               # %for.end31
	movfr2gr.d	$a3, $fs0
	pcalau12i	$a0, %pc_hi20(.L.str.6)
	addi.d	$a1, $a0, %pc_lo12(.L.str.6)
	move	$a0, $s7
	move	$a2, $s0
	pcaddu18i	$ra, %call36(fprintf)
	jirl	$ra, $ra, 0
	st.w	$zero, $s5, %pc_lo12(current_test)
	fld.d	$fs0, $sp, 32                   # 8-byte Folded Reload
	ld.d	$s8, $sp, 40                    # 8-byte Folded Reload
	ld.d	$s7, $sp, 48                    # 8-byte Folded Reload
	ld.d	$s6, $sp, 56                    # 8-byte Folded Reload
	ld.d	$s5, $sp, 64                    # 8-byte Folded Reload
	ld.d	$s4, $sp, 72                    # 8-byte Folded Reload
	ld.d	$s3, $sp, 80                    # 8-byte Folded Reload
	ld.d	$s2, $sp, 88                    # 8-byte Folded Reload
	ld.d	$s1, $sp, 96                    # 8-byte Folded Reload
	ld.d	$s0, $sp, 104                   # 8-byte Folded Reload
	ld.d	$fp, $sp, 112                   # 8-byte Folded Reload
	ld.d	$ra, $sp, 120                   # 8-byte Folded Reload
	addi.d	$sp, $sp, 128
	ret
.Lfunc_end2:
	.size	_Z17summarize_simplefP8_IO_FILEPKc, .Lfunc_end2-_Z17summarize_simplefP8_IO_FILEPKc
                                        # -- End function
	.globl	_Z11start_timerv                # -- Begin function _Z11start_timerv
	.p2align	5
	.type	_Z11start_timerv,@function
_Z11start_timerv:                       # @_Z11start_timerv
# %bb.0:                                # %entry
	addi.d	$sp, $sp, -16
	st.d	$ra, $sp, 8                     # 8-byte Folded Spill
	pcaddu18i	$ra, %call36(clock)
	jirl	$ra, $ra, 0
	pcalau12i	$a1, %pc_hi20(start_time)
	st.d	$a0, $a1, %pc_lo12(start_time)
	ld.d	$ra, $sp, 8                     # 8-byte Folded Reload
	addi.d	$sp, $sp, 16
	ret
.Lfunc_end3:
	.size	_Z11start_timerv, .Lfunc_end3-_Z11start_timerv
                                        # -- End function
	.section	.rodata.cst8,"aM",@progbits,8
	.p2align	3, 0x0                          # -- Begin function _Z5timerv
.LCPI4_0:
	.dword	0x412e848000000000              # double 1.0E+6
	.text
	.globl	_Z5timerv
	.p2align	5
	.type	_Z5timerv,@function
_Z5timerv:                              # @_Z5timerv
# %bb.0:                                # %entry
	addi.d	$sp, $sp, -16
	st.d	$ra, $sp, 8                     # 8-byte Folded Spill
	pcaddu18i	$ra, %call36(clock)
	jirl	$ra, $ra, 0
	pcalau12i	$a1, %pc_hi20(start_time)
	ld.d	$a1, $a1, %pc_lo12(start_time)
	pcalau12i	$a2, %pc_hi20(end_time)
	pcalau12i	$a3, %pc_hi20(.LCPI4_0)
	fld.d	$fa0, $a3, %pc_lo12(.LCPI4_0)
	sub.d	$a1, $a0, $a1
	movgr2fr.d	$fa1, $a1
	ffint.d.l	$fa1, $fa1
	fdiv.d	$fa0, $fa1, $fa0
	st.d	$a0, $a2, %pc_lo12(end_time)
	ld.d	$ra, $sp, 8                     # 8-byte Folded Reload
	addi.d	$sp, $sp, 16
	ret
.Lfunc_end4:
	.size	_Z5timerv, .Lfunc_end4-_Z5timerv
                                        # -- End function
	.globl	main                            # -- Begin function main
	.p2align	5
	.type	main,@function
main:                                   # @main
	.cfi_startproc
# %bb.0:                                # %entry
	addi.d	$sp, $sp, -96
	.cfi_def_cfa_offset 96
	st.d	$ra, $sp, 88                    # 8-byte Folded Spill
	st.d	$fp, $sp, 80                    # 8-byte Folded Spill
	st.d	$s0, $sp, 72                    # 8-byte Folded Spill
	st.d	$s1, $sp, 64                    # 8-byte Folded Spill
	st.d	$s2, $sp, 56                    # 8-byte Folded Spill
	st.d	$s3, $sp, 48                    # 8-byte Folded Spill
	st.d	$s4, $sp, 40                    # 8-byte Folded Spill
	st.d	$s5, $sp, 32                    # 8-byte Folded Spill
	st.d	$s6, $sp, 24                    # 8-byte Folded Spill
	st.d	$s7, $sp, 16                    # 8-byte Folded Spill
	.cfi_offset 1, -8
	.cfi_offset 22, -16
	.cfi_offset 23, -24
	.cfi_offset 24, -32
	.cfi_offset 25, -40
	.cfi_offset 26, -48
	.cfi_offset 27, -56
	.cfi_offset 28, -64
	.cfi_offset 29, -72
	.cfi_offset 30, -80
	move	$s0, $a0
	ori	$s1, $zero, 2
	pcalau12i	$s6, %pc_hi20(iterations)
	pcalau12i	$a0, %pc_hi20(init_value)
	addi.d	$s5, $a0, %pc_lo12(init_value)
	blt	$s0, $s1, .LBB5_3
# %bb.1:                                # %if.end
	move	$fp, $a1
	ld.d	$a0, $a1, 8
	ori	$a2, $zero, 10
	move	$a1, $zero
	pcaddu18i	$ra, %call36(__isoc23_strtol)
	jirl	$ra, $ra, 0
	st.w	$a0, $s6, %pc_lo12(iterations)
	beq	$s0, $s1, .LBB5_3
# %bb.2:                                # %if.then2
	ld.d	$a0, $fp, 16
	move	$a1, $zero
	pcaddu18i	$ra, %call36(strtod)
	jirl	$ra, $ra, 0
	fst.d	$fa0, $s5, 0
.LBB5_3:                                # %vector.ph
	fld.d	$fa0, $s5, 0
	ftintrz.w.d	$fa0, $fa0
	movfr2gr.s	$a0, $fa0
	vreplgr2vr.w	$vr0, $a0
	lu12i.w	$a0, -8
	ori	$a0, $a0, 768
	pcalau12i	$a1, %pc_hi20(data32)
	addi.d	$a1, $a1, %pc_lo12(data32)
	lu12i.w	$a3, 7
	ori	$a2, $a3, 3328
	ori	$a3, $a3, 3344
	.p2align	4, , 16
.LBB5_4:                                # %vector.body
                                        # =>This Inner Loop Header: Depth=1
	add.d	$a4, $a1, $a0
	vstx	$vr0, $a4, $a2
	addi.d	$a0, $a0, 32
	vstx	$vr0, $a4, $a3
	bnez	$a0, .LBB5_4
# %bb.5:                                # %_Z4fillIPiiEvT_S1_T0_.exit
	pcalau12i	$a0, %pc_hi20(data32)
	addi.d	$s4, $a0, %pc_lo12(data32)
	pcalau12i	$a0, %pc_hi20(.L.str.11)
	addi.d	$a1, $a0, %pc_lo12(.L.str.11)
	move	$a0, $s4
	pcaddu18i	$ra, %call36(_ZN14for_loop_testsILi28EiE7do_testEPKiPKc)
	jirl	$ra, $ra, 0
	pcalau12i	$a0, %pc_hi20(temp_string+2047)
	addi.d	$s2, $a0, %pc_lo12(temp_string+2047)
	addi.d	$fp, $s2, 753
	lu12i.w	$s7, 1
	ori	$s3, $s7, 3904
	move	$a0, $s4
	move	$a1, $s3
	move	$a2, $fp
	pcaddu18i	$ra, %call36(_Z27test_for_loop_unroll_factorILi29EiEvPKT0_iPKc)
	jirl	$ra, $ra, 0
	addi.d	$s0, $s2, 853
	move	$a0, $s4
	move	$a1, $s3
	move	$a2, $s0
	pcaddu18i	$ra, %call36(_Z27test_for_loop_unroll_factorILi30EiEvPKT0_iPKc)
	jirl	$ra, $ra, 0
	addi.d	$s1, $s2, 953
	move	$a0, $s4
	move	$a1, $s3
	move	$a2, $s1
	pcaddu18i	$ra, %call36(_Z27test_for_loop_unroll_factorILi31EiEvPKT0_iPKc)
	jirl	$ra, $ra, 0
	addi.d	$s2, $s2, 1053
	move	$a0, $s4
	move	$a1, $s3
	move	$a2, $s2
	pcaddu18i	$ra, %call36(_Z27test_for_loop_unroll_factorILi32EiEvPKT0_iPKc)
	jirl	$ra, $ra, 0
	pcalau12i	$a0, %pc_hi20(.L.str.12)
	addi.d	$a1, $a0, %pc_lo12(.L.str.12)
	move	$a0, $s4
	pcaddu18i	$ra, %call36(_ZN16while_loop_testsILi28EiE7do_testEPKiPKc)
	jirl	$ra, $ra, 0
	move	$a0, $s4
	move	$a1, $s3
	move	$a2, $fp
	pcaddu18i	$ra, %call36(_Z29test_while_loop_unroll_factorILi29EiEvPKT0_iPKc)
	jirl	$ra, $ra, 0
	move	$a0, $s4
	move	$a1, $s3
	move	$a2, $s0
	pcaddu18i	$ra, %call36(_Z29test_while_loop_unroll_factorILi30EiEvPKT0_iPKc)
	jirl	$ra, $ra, 0
	move	$a0, $s4
	move	$a1, $s3
	move	$a2, $s1
	pcaddu18i	$ra, %call36(_Z29test_while_loop_unroll_factorILi31EiEvPKT0_iPKc)
	jirl	$ra, $ra, 0
	move	$a0, $s4
	move	$a1, $s3
	move	$a2, $s2
	pcaddu18i	$ra, %call36(_Z29test_while_loop_unroll_factorILi32EiEvPKT0_iPKc)
	jirl	$ra, $ra, 0
	pcalau12i	$a0, %pc_hi20(.L.str.13)
	addi.d	$a1, $a0, %pc_lo12(.L.str.13)
	move	$a0, $s4
	pcaddu18i	$ra, %call36(_ZN13do_loop_testsILi28EiE7do_testEPKiPKc)
	jirl	$ra, $ra, 0
	move	$a0, $s4
	move	$a1, $s3
	move	$a2, $fp
	pcaddu18i	$ra, %call36(_Z26test_do_loop_unroll_factorILi29EiEvPKT0_iPKc)
	jirl	$ra, $ra, 0
	move	$a0, $s4
	move	$a1, $s3
	move	$a2, $s0
	pcaddu18i	$ra, %call36(_Z26test_do_loop_unroll_factorILi30EiEvPKT0_iPKc)
	jirl	$ra, $ra, 0
	move	$a0, $s4
	move	$a1, $s3
	move	$a2, $s1
	pcaddu18i	$ra, %call36(_Z26test_do_loop_unroll_factorILi31EiEvPKT0_iPKc)
	jirl	$ra, $ra, 0
	move	$a0, $s4
	move	$a1, $s3
	move	$a2, $s2
	pcaddu18i	$ra, %call36(_Z26test_do_loop_unroll_factorILi32EiEvPKT0_iPKc)
	jirl	$ra, $ra, 0
	pcalau12i	$a0, %pc_hi20(.L.str.14)
	addi.d	$a1, $a0, %pc_lo12(.L.str.14)
	move	$a0, $s4
	pcaddu18i	$ra, %call36(_ZN15goto_loop_testsILi28EiE7do_testEPKiPKc)
	jirl	$ra, $ra, 0
	move	$a0, $s4
	move	$a1, $s3
	move	$a2, $fp
	pcaddu18i	$ra, %call36(_Z28test_goto_loop_unroll_factorILi29EiEvPKT0_iPKc)
	jirl	$ra, $ra, 0
	move	$a0, $s4
	move	$a1, $s3
	move	$a2, $s0
	pcaddu18i	$ra, %call36(_Z28test_goto_loop_unroll_factorILi30EiEvPKT0_iPKc)
	jirl	$ra, $ra, 0
	move	$a0, $s4
	move	$a1, $s3
	move	$a2, $s1
	pcaddu18i	$ra, %call36(_Z28test_goto_loop_unroll_factorILi31EiEvPKT0_iPKc)
	jirl	$ra, $ra, 0
	move	$a0, $s4
	move	$a1, $s3
	move	$a2, $s2
	pcaddu18i	$ra, %call36(_Z28test_goto_loop_unroll_factorILi32EiEvPKT0_iPKc)
	jirl	$ra, $ra, 0
	ld.w	$a0, $s6, %pc_lo12(iterations)
	bstrpick.d	$a1, $a0, 62, 61
	add.w	$a0, $a0, $a1
	srli.d	$a0, $a0, 2
	st.w	$a0, $s6, %pc_lo12(iterations)
	pcalau12i	$a0, %pc_hi20(dataDouble+16)
	addi.d	$a0, $a0, %pc_lo12(dataDouble+16)
	vldrepl.d	$vr0, $s5, 0
	.p2align	4, , 16
.LBB5_6:                                # %vector.body12
                                        # =>This Inner Loop Header: Depth=1
	vst	$vr0, $a0, -16
	vst	$vr0, $a0, 0
	addi.d	$s3, $s3, -4
	addi.d	$a0, $a0, 32
	bnez	$s3, .LBB5_6
# %bb.7:                                # %_Z4fillIPddEvT_S1_T0_.exit
	pcalau12i	$a0, %pc_hi20(dataDouble)
	addi.d	$s3, $a0, %pc_lo12(dataDouble)
	pcalau12i	$a0, %pc_hi20(.L.str.15)
	addi.d	$a1, $a0, %pc_lo12(.L.str.15)
	move	$a0, $s3
	pcaddu18i	$ra, %call36(_ZN14for_loop_testsILi28EdE7do_testEPKdPKc)
	jirl	$ra, $ra, 0
	ori	$s4, $s7, 3904
	move	$a0, $s3
	move	$a1, $s4
	move	$a2, $fp
	pcaddu18i	$ra, %call36(_Z27test_for_loop_unroll_factorILi29EdEvPKT0_iPKc)
	jirl	$ra, $ra, 0
	move	$a0, $s3
	move	$a1, $s4
	move	$a2, $s0
	pcaddu18i	$ra, %call36(_Z27test_for_loop_unroll_factorILi30EdEvPKT0_iPKc)
	jirl	$ra, $ra, 0
	move	$a0, $s3
	move	$a1, $s4
	move	$a2, $s1
	pcaddu18i	$ra, %call36(_Z27test_for_loop_unroll_factorILi31EdEvPKT0_iPKc)
	jirl	$ra, $ra, 0
	move	$a0, $s3
	move	$a1, $s4
	move	$a2, $s2
	pcaddu18i	$ra, %call36(_Z27test_for_loop_unroll_factorILi32EdEvPKT0_iPKc)
	jirl	$ra, $ra, 0
	pcalau12i	$a0, %pc_hi20(.L.str.16)
	addi.d	$a1, $a0, %pc_lo12(.L.str.16)
	move	$a0, $s3
	pcaddu18i	$ra, %call36(_ZN16while_loop_testsILi28EdE7do_testEPKdPKc)
	jirl	$ra, $ra, 0
	move	$a0, $s3
	move	$a1, $s4
	move	$a2, $fp
	pcaddu18i	$ra, %call36(_Z29test_while_loop_unroll_factorILi29EdEvPKT0_iPKc)
	jirl	$ra, $ra, 0
	move	$a0, $s3
	move	$a1, $s4
	move	$a2, $s0
	pcaddu18i	$ra, %call36(_Z29test_while_loop_unroll_factorILi30EdEvPKT0_iPKc)
	jirl	$ra, $ra, 0
	move	$a0, $s3
	move	$a1, $s4
	move	$a2, $s1
	pcaddu18i	$ra, %call36(_Z29test_while_loop_unroll_factorILi31EdEvPKT0_iPKc)
	jirl	$ra, $ra, 0
	move	$a0, $s3
	move	$a1, $s4
	move	$a2, $s2
	pcaddu18i	$ra, %call36(_Z29test_while_loop_unroll_factorILi32EdEvPKT0_iPKc)
	jirl	$ra, $ra, 0
	pcalau12i	$a0, %pc_hi20(.L.str.17)
	addi.d	$a1, $a0, %pc_lo12(.L.str.17)
	move	$a0, $s3
	pcaddu18i	$ra, %call36(_ZN13do_loop_testsILi28EdE7do_testEPKdPKc)
	jirl	$ra, $ra, 0
	move	$a0, $s3
	move	$a1, $s4
	move	$a2, $fp
	pcaddu18i	$ra, %call36(_Z26test_do_loop_unroll_factorILi29EdEvPKT0_iPKc)
	jirl	$ra, $ra, 0
	move	$a0, $s3
	move	$a1, $s4
	move	$a2, $s0
	pcaddu18i	$ra, %call36(_Z26test_do_loop_unroll_factorILi30EdEvPKT0_iPKc)
	jirl	$ra, $ra, 0
	move	$a0, $s3
	move	$a1, $s4
	move	$a2, $s1
	pcaddu18i	$ra, %call36(_Z26test_do_loop_unroll_factorILi31EdEvPKT0_iPKc)
	jirl	$ra, $ra, 0
	move	$a0, $s3
	move	$a1, $s4
	move	$a2, $s2
	pcaddu18i	$ra, %call36(_Z26test_do_loop_unroll_factorILi32EdEvPKT0_iPKc)
	jirl	$ra, $ra, 0
	pcalau12i	$a0, %pc_hi20(.L.str.18)
	addi.d	$a1, $a0, %pc_lo12(.L.str.18)
	move	$a0, $s3
	pcaddu18i	$ra, %call36(_ZN15goto_loop_testsILi28EdE7do_testEPKdPKc)
	jirl	$ra, $ra, 0
	move	$a0, $s3
	move	$a1, $s4
	move	$a2, $fp
	pcaddu18i	$ra, %call36(_Z28test_goto_loop_unroll_factorILi29EdEvPKT0_iPKc)
	jirl	$ra, $ra, 0
	move	$a0, $s3
	move	$a1, $s4
	move	$a2, $s0
	pcaddu18i	$ra, %call36(_Z28test_goto_loop_unroll_factorILi30EdEvPKT0_iPKc)
	jirl	$ra, $ra, 0
	move	$a0, $s3
	move	$a1, $s4
	move	$a2, $s1
	pcaddu18i	$ra, %call36(_Z28test_goto_loop_unroll_factorILi31EdEvPKT0_iPKc)
	jirl	$ra, $ra, 0
	move	$a0, $s3
	move	$a1, $s4
	move	$a2, $s2
	pcaddu18i	$ra, %call36(_Z28test_goto_loop_unroll_factorILi32EdEvPKT0_iPKc)
	jirl	$ra, $ra, 0
	move	$a0, $zero
	ld.d	$s7, $sp, 16                    # 8-byte Folded Reload
	ld.d	$s6, $sp, 24                    # 8-byte Folded Reload
	ld.d	$s5, $sp, 32                    # 8-byte Folded Reload
	ld.d	$s4, $sp, 40                    # 8-byte Folded Reload
	ld.d	$s3, $sp, 48                    # 8-byte Folded Reload
	ld.d	$s2, $sp, 56                    # 8-byte Folded Reload
	ld.d	$s1, $sp, 64                    # 8-byte Folded Reload
	ld.d	$s0, $sp, 72                    # 8-byte Folded Reload
	ld.d	$fp, $sp, 80                    # 8-byte Folded Reload
	ld.d	$ra, $sp, 88                    # 8-byte Folded Reload
	addi.d	$sp, $sp, 96
	ret
.Lfunc_end5:
	.size	main, .Lfunc_end5-main
	.cfi_endproc
                                        # -- End function
	.section	.rodata.cst8,"aM",@progbits,8
	.p2align	3, 0x0                          # -- Begin function _Z27test_for_loop_unroll_factorILi32EiEvPKT0_iPKc
.LCPI6_0:
	.dword	0x412e848000000000              # double 1.0E+6
	.section	.text._Z27test_for_loop_unroll_factorILi32EiEvPKT0_iPKc,"axG",@progbits,_Z27test_for_loop_unroll_factorILi32EiEvPKT0_iPKc,comdat
	.weak	_Z27test_for_loop_unroll_factorILi32EiEvPKT0_iPKc
	.p2align	5
	.type	_Z27test_for_loop_unroll_factorILi32EiEvPKT0_iPKc,@function
_Z27test_for_loop_unroll_factorILi32EiEvPKT0_iPKc: # @_Z27test_for_loop_unroll_factorILi32EiEvPKT0_iPKc
	.cfi_startproc
# %bb.0:                                # %entry
	addi.d	$sp, $sp, -208
	.cfi_def_cfa_offset 208
	st.d	$ra, $sp, 200                   # 8-byte Folded Spill
	st.d	$fp, $sp, 192                   # 8-byte Folded Spill
	st.d	$s0, $sp, 184                   # 8-byte Folded Spill
	st.d	$s1, $sp, 176                   # 8-byte Folded Spill
	st.d	$s2, $sp, 168                   # 8-byte Folded Spill
	st.d	$s3, $sp, 160                   # 8-byte Folded Spill
	st.d	$s4, $sp, 152                   # 8-byte Folded Spill
	st.d	$s5, $sp, 144                   # 8-byte Folded Spill
	st.d	$s6, $sp, 136                   # 8-byte Folded Spill
	st.d	$s7, $sp, 128                   # 8-byte Folded Spill
	st.d	$s8, $sp, 120                   # 8-byte Folded Spill
	.cfi_offset 1, -8
	.cfi_offset 22, -16
	.cfi_offset 23, -24
	.cfi_offset 24, -32
	.cfi_offset 25, -40
	.cfi_offset 26, -48
	.cfi_offset 27, -56
	.cfi_offset 28, -64
	.cfi_offset 29, -72
	.cfi_offset 30, -80
	.cfi_offset 31, -88
	st.d	$a2, $sp, 16                    # 8-byte Folded Spill
	move	$s0, $a1
	move	$s1, $a0
	pcaddu18i	$ra, %call36(clock)
	jirl	$ra, $ra, 0
	pcalau12i	$s5, %pc_hi20(iterations)
	ld.w	$a1, $s5, %pc_lo12(iterations)
	pcalau12i	$a2, %pc_hi20(start_time)
	st.d	$a2, $sp, 24                    # 8-byte Folded Spill
	st.d	$a0, $a2, %pc_lo12(start_time)
	pcalau12i	$a0, %pc_hi20(current_test)
	st.d	$a0, $sp, 112                   # 8-byte Folded Spill
	blez	$a1, .LBB6_31
# %bb.1:                                # %for.cond1.preheader.lr.ph
	ori	$a0, $zero, 32
	blt	$s0, $a0, .LBB6_15
# %bb.2:                                # %for.cond1.preheader.us.preheader
	move	$t5, $zero
	addi.d	$a1, $s0, -31
	bstrpick.d	$s6, $a1, 31, 0
	sltu	$a1, $a0, $s6
	masknez	$a0, $a0, $a1
	maskeqz	$a1, $s6, $a1
	or	$a0, $a1, $a0
	addi.d	$a0, $a0, -1
	bstrins.d	$a0, $zero, 4, 0
	addi.d	$a1, $a0, 33
	sltu	$a2, $s0, $a1
	maskeqz	$a1, $a1, $a2
	masknez	$a2, $s0, $a2
	or	$a1, $a1, $a2
	addi.d	$a2, $a1, -32
	sub.d	$a3, $a2, $a0
	andi	$a1, $a1, 7
	st.d	$a3, $sp, 104                   # 8-byte Folded Spill
	sub.d	$a3, $a3, $a1
	st.d	$a3, $sp, 64                    # 8-byte Folded Spill
	addi.d	$t2, $s1, 144
	st.d	$a1, $sp, 80                    # 8-byte Folded Spill
	sub.d	$a1, $a2, $a1
	sub.d	$a0, $a1, $a0
	st.d	$a0, $sp, 48                    # 8-byte Folded Spill
	lu12i.w	$a0, 65881
	ori	$fp, $a0, 1957
	lu12i.w	$a0, -504557
	ori	$s8, $a0, 1792
	lu12i.w	$a0, -277912
	ori	$s4, $a0, 2488
	vrepli.b	$vr0, 0
	vst	$vr0, $sp, 32                   # 16-byte Folded Spill
	lu12i.w	$a0, -381906
	ori	$s3, $a0, 1088
	lu12i.w	$a0, -310021
	ori	$s2, $a0, 1536
	st.d	$s0, $sp, 96                    # 8-byte Folded Spill
	b	.LBB6_4
	.p2align	4, , 16
.LBB6_3:                                # %_Z9check_sumIiEvT_.exit.us
                                        #   in Loop: Header=BB6_4 Depth=1
	ld.w	$a0, $s5, %pc_lo12(iterations)
	addi.w	$t5, $t5, 1
	bge	$t5, $a0, .LBB6_31
.LBB6_4:                                # %for.cond1.preheader.us
                                        # =>This Loop Header: Depth=1
                                        #     Child Loop BB6_5 Depth 2
                                        #     Child Loop BB6_9 Depth 2
                                        #     Child Loop BB6_12 Depth 2
	move	$a1, $zero
	move	$a0, $zero
	ori	$a2, $zero, 32
	move	$a3, $t2
	.p2align	4, , 16
.LBB6_5:                                # %for.body3.us
                                        #   Parent Loop BB6_4 Depth=1
                                        # =>  This Inner Loop Header: Depth=2
	alsl.d	$a4, $a1, $s1, 2
	slli.d	$a5, $a1, 2
	ldx.w	$a5, $s1, $a5
	ld.w	$a6, $a4, 4
	ld.w	$a7, $a4, 8
	ld.w	$t0, $a4, 12
	add.d	$a5, $a6, $a5
	ld.w	$a6, $a4, 16
	add.d	$a5, $a5, $a7
	ld.w	$a7, $a4, 20
	add.d	$a5, $a5, $t0
	ld.w	$t0, $a4, 24
	add.d	$a5, $a5, $a6
	ld.w	$a6, $a4, 28
	add.d	$a5, $a5, $a7
	ld.w	$a7, $a4, 32
	add.d	$a5, $a5, $t0
	ld.w	$t0, $a4, 36
	add.d	$a5, $a5, $a6
	ld.w	$a6, $a4, 40
	add.d	$a5, $a5, $a7
	ld.w	$a7, $a4, 44
	add.d	$a5, $a5, $t0
	ld.w	$t0, $a4, 48
	add.d	$a5, $a5, $a6
	ld.w	$a6, $a4, 52
	add.d	$a5, $a5, $a7
	ld.w	$a7, $a4, 56
	add.d	$a5, $a5, $t0
	ld.w	$t0, $a4, 60
	add.d	$a5, $a5, $a6
	ld.w	$a6, $a4, 64
	add.d	$a5, $a5, $a7
	ld.w	$a7, $a4, 68
	add.d	$a5, $a5, $t0
	ld.w	$t0, $a4, 72
	add.d	$a5, $a5, $a6
	ld.w	$a6, $a4, 76
	add.d	$a5, $a5, $a7
	ld.w	$a7, $a4, 80
	add.d	$a5, $a5, $t0
	ld.w	$t0, $a4, 84
	add.d	$a5, $a5, $a6
	ld.w	$a6, $a4, 88
	add.d	$a5, $a5, $a7
	ld.w	$a7, $a4, 92
	add.d	$a5, $a5, $t0
	ld.w	$t0, $a4, 96
	add.d	$a5, $a5, $a6
	ld.w	$a6, $a4, 100
	add.d	$a5, $a5, $a7
	ld.w	$a7, $a4, 104
	add.d	$a5, $a5, $t0
	ld.w	$t0, $a4, 108
	add.d	$a5, $a5, $a6
	ld.w	$a6, $a4, 112
	add.d	$a5, $a5, $a7
	ld.w	$a7, $a4, 116
	add.d	$a5, $a5, $t0
	ld.w	$t0, $a4, 120
	ld.w	$t1, $a4, 124
	add.d	$a4, $a5, $a6
	add.d	$a4, $a4, $a7
	add.d	$a6, $a4, $t0
	move	$a4, $a2
	move	$a5, $a3
	add.d	$a2, $a6, $t1
	mul.d	$a2, $a2, $fp
	add.d	$a0, $a0, $a2
	add.d	$a0, $a0, $s8
	addi.d	$a1, $a1, 32
	addi.d	$a2, $a4, 32
	addi.d	$a3, $a3, 128
	bltu	$a1, $s6, .LBB6_5
# %bb.6:                                # %for.cond1.for.cond4.preheader_crit_edge.us
                                        #   in Loop: Header=BB6_4 Depth=1
	addi.w	$a1, $a1, 0
	bge	$a1, $s0, .LBB6_13
# %bb.7:                                # %for.body6.us.preheader
                                        #   in Loop: Header=BB6_4 Depth=1
	ld.d	$a1, $sp, 104                   # 8-byte Folded Reload
	ori	$a2, $zero, 8
	bltu	$a1, $a2, .LBB6_11
# %bb.8:                                # %vector.ph140
                                        #   in Loop: Header=BB6_4 Depth=1
	ld.d	$a1, $sp, 64                    # 8-byte Folded Reload
	add.d	$a4, $a4, $a1
	vld	$vr1, $sp, 32                   # 16-byte Folded Reload
	vori.b	$vr0, $vr1, 0
	vinsgr2vr.w	$vr0, $a0, 0
	ld.d	$a0, $sp, 48                    # 8-byte Folded Reload
	.p2align	4, , 16
.LBB6_9:                                # %vector.body143
                                        #   Parent Loop BB6_4 Depth=1
                                        # =>  This Inner Loop Header: Depth=2
	vld	$vr2, $a5, -16
	vld	$vr3, $a5, 0
	vreplgr2vr.w	$vr4, $fp
	vmadd.w	$vr0, $vr2, $vr4
	vreplgr2vr.w	$vr2, $s4
	vmadd.w	$vr1, $vr3, $vr4
	vadd.w	$vr0, $vr0, $vr2
	vadd.w	$vr1, $vr1, $vr2
	addi.d	$a0, $a0, -8
	addi.d	$a5, $a5, 32
	bnez	$a0, .LBB6_9
# %bb.10:                               # %middle.block150
                                        #   in Loop: Header=BB6_4 Depth=1
	vadd.w	$vr0, $vr1, $vr0
	vhaddw.d.w	$vr0, $vr0, $vr0
	vhaddw.q.d	$vr0, $vr0, $vr0
	vpickve2gr.d	$a0, $vr0, 0
	ld.d	$a1, $sp, 80                    # 8-byte Folded Reload
	beqz	$a1, .LBB6_13
.LBB6_11:                               # %for.body6.us.preheader155
                                        #   in Loop: Header=BB6_4 Depth=1
	alsl.d	$a1, $a4, $s1, 2
	.p2align	4, , 16
.LBB6_12:                               # %for.body6.us
                                        #   Parent Loop BB6_4 Depth=1
                                        # =>  This Inner Loop Header: Depth=2
	ld.w	$a2, $a1, 0
	mul.d	$a2, $a2, $fp
	add.d	$a0, $a0, $a2
	add.d	$a0, $a0, $s4
	addi.d	$a4, $a4, 1
	addi.d	$a1, $a1, 4
	bltu	$a4, $s0, .LBB6_12
.LBB6_13:                               # %for.end9.us
                                        #   in Loop: Header=BB6_4 Depth=1
	pcalau12i	$a1, %pc_hi20(init_value)
	fld.d	$fa0, $a1, %pc_lo12(init_value)
	ftintrz.w.d	$fa0, $fa0
	movfr2gr.s	$a1, $fa0
	mul.d	$a1, $a1, $s3
	add.w	$a1, $a1, $s2
	addi.w	$a0, $a0, 0
	beq	$a0, $a1, .LBB6_3
# %bb.14:                               # %if.then.i.us
                                        #   in Loop: Header=BB6_4 Depth=1
	ld.d	$a0, $sp, 112                   # 8-byte Folded Reload
	ld.w	$a1, $a0, %pc_lo12(current_test)
	pcalau12i	$a0, %pc_hi20(.L.str.19)
	addi.d	$a0, $a0, %pc_lo12(.L.str.19)
	move	$s7, $s5
	move	$s5, $t2
	move	$s0, $t5
	pcaddu18i	$ra, %call36(printf)
	jirl	$ra, $ra, 0
	move	$t5, $s0
	ld.d	$s0, $sp, 96                    # 8-byte Folded Reload
	move	$t2, $s5
	move	$s5, $s7
	b	.LBB6_3
.LBB6_15:                               # %for.cond1.preheader.lr.ph.split
	blez	$s0, .LBB6_27
# %bb.16:                               # %for.cond1.preheader.us92.preheader
	bstrpick.d	$a0, $s0, 30, 3
	slli.d	$fp, $a0, 3
	ori	$a5, $zero, 8
	lu12i.w	$a0, 65881
	ori	$s6, $a0, 1957
	lu12i.w	$a0, -277912
	ori	$s7, $a0, 2488
	pcalau12i	$s8, %pc_hi20(init_value)
	lu12i.w	$a0, -381906
	ori	$s3, $a0, 1088
	lu12i.w	$a0, -310021
	ori	$s4, $a0, 1536
	pcalau12i	$a0, %pc_hi20(.L.str.19)
	addi.d	$a0, $a0, %pc_lo12(.L.str.19)
	st.d	$a0, $sp, 104                   # 8-byte Folded Spill
	move	$s2, $zero
	vrepli.b	$vr0, 0
	vst	$vr0, $sp, 80                   # 16-byte Folded Spill
	vreplgr2vr.w	$vr4, $s6
	vreplgr2vr.w	$vr5, $s7
	vst	$vr4, $sp, 64                   # 16-byte Folded Spill
	vst	$vr5, $sp, 48                   # 16-byte Folded Spill
	b	.LBB6_18
	.p2align	4, , 16
.LBB6_17:                               # %_Z9check_sumIiEvT_.exit.us101
                                        #   in Loop: Header=BB6_18 Depth=1
	addi.w	$s2, $s2, 1
	bge	$s2, $a1, .LBB6_31
.LBB6_18:                               # %for.cond1.preheader.us92
                                        # =>This Loop Header: Depth=1
                                        #     Child Loop BB6_21 Depth 2
                                        #     Child Loop BB6_24 Depth 2
	bgeu	$s0, $a5, .LBB6_20
# %bb.19:                               #   in Loop: Header=BB6_18 Depth=1
	move	$a3, $zero
	move	$a0, $zero
	b	.LBB6_23
	.p2align	4, , 16
.LBB6_20:                               # %vector.body.preheader
                                        #   in Loop: Header=BB6_18 Depth=1
	addi.d	$a0, $s1, 16
	move	$a2, $fp
	vld	$vr1, $sp, 80                   # 16-byte Folded Reload
	vori.b	$vr0, $vr1, 0
	.p2align	4, , 16
.LBB6_21:                               # %vector.body
                                        #   Parent Loop BB6_18 Depth=1
                                        # =>  This Inner Loop Header: Depth=2
	vld	$vr2, $a0, -16
	vld	$vr3, $a0, 0
	vmadd.w	$vr0, $vr2, $vr4
	vmadd.w	$vr1, $vr3, $vr4
	vadd.w	$vr0, $vr0, $vr5
	vadd.w	$vr1, $vr1, $vr5
	addi.d	$a2, $a2, -8
	addi.d	$a0, $a0, 32
	bnez	$a2, .LBB6_21
# %bb.22:                               # %middle.block
                                        #   in Loop: Header=BB6_18 Depth=1
	vadd.w	$vr0, $vr1, $vr0
	vhaddw.d.w	$vr0, $vr0, $vr0
	vhaddw.q.d	$vr0, $vr0, $vr0
	vpickve2gr.d	$a0, $vr0, 0
	move	$a3, $fp
	beq	$fp, $s0, .LBB6_25
.LBB6_23:                               # %for.body6.us104.preheader
                                        #   in Loop: Header=BB6_18 Depth=1
	alsl.d	$a2, $a3, $s1, 2
	sub.d	$a3, $s0, $a3
	.p2align	4, , 16
.LBB6_24:                               # %for.body6.us104
                                        #   Parent Loop BB6_18 Depth=1
                                        # =>  This Inner Loop Header: Depth=2
	ld.w	$a4, $a2, 0
	mul.d	$a4, $a4, $s6
	add.d	$a0, $a0, $a4
	add.d	$a0, $a0, $s7
	addi.d	$a3, $a3, -1
	addi.d	$a2, $a2, 4
	bnez	$a3, .LBB6_24
.LBB6_25:                               # %for.cond4.for.end9_crit_edge.us114
                                        #   in Loop: Header=BB6_18 Depth=1
	fld.d	$fa0, $s8, %pc_lo12(init_value)
	ftintrz.w.d	$fa0, $fa0
	movfr2gr.s	$a2, $fa0
	mul.d	$a2, $a2, $s3
	add.w	$a2, $a2, $s4
	addi.w	$a0, $a0, 0
	beq	$a0, $a2, .LBB6_17
# %bb.26:                               # %if.then.i.us99
                                        #   in Loop: Header=BB6_18 Depth=1
	ld.d	$a0, $sp, 112                   # 8-byte Folded Reload
	ld.w	$a1, $a0, %pc_lo12(current_test)
	ld.d	$a0, $sp, 104                   # 8-byte Folded Reload
	pcaddu18i	$ra, %call36(printf)
	jirl	$ra, $ra, 0
	vld	$vr5, $sp, 48                   # 16-byte Folded Reload
	vld	$vr4, $sp, 64                   # 16-byte Folded Reload
	ori	$a5, $zero, 8
	ld.w	$a1, $s5, %pc_lo12(iterations)
	b	.LBB6_17
.LBB6_27:                               # %for.cond1.preheader.preheader
	pcalau12i	$fp, %pc_hi20(init_value)
	fld.d	$fa0, $fp, %pc_lo12(init_value)
	lu12i.w	$a0, -381906
	ori	$s1, $a0, 1088
	lu12i.w	$a0, 310020
	ori	$s2, $a0, 2560
	pcalau12i	$a0, %pc_hi20(.L.str.19)
	addi.d	$s0, $a0, %pc_lo12(.L.str.19)
	move	$s3, $zero
	b	.LBB6_29
	.p2align	4, , 16
.LBB6_28:                               # %_Z9check_sumIiEvT_.exit
                                        #   in Loop: Header=BB6_29 Depth=1
	addi.w	$s3, $s3, 1
	bge	$s3, $a1, .LBB6_31
.LBB6_29:                               # %for.cond1.preheader
                                        # =>This Inner Loop Header: Depth=1
	ftintrz.w.d	$fa1, $fa0
	movfr2gr.s	$a0, $fa1
	mul.w	$a0, $a0, $s1
	beq	$a0, $s2, .LBB6_28
# %bb.30:                               # %if.then.i
                                        #   in Loop: Header=BB6_29 Depth=1
	ld.d	$a0, $sp, 112                   # 8-byte Folded Reload
	ld.w	$a1, $a0, %pc_lo12(current_test)
	move	$a0, $s0
	pcaddu18i	$ra, %call36(printf)
	jirl	$ra, $ra, 0
	fld.d	$fa0, $fp, %pc_lo12(init_value)
	ld.w	$a1, $s5, %pc_lo12(iterations)
	b	.LBB6_28
.LBB6_31:                               # %for.end12
	pcaddu18i	$ra, %call36(clock)
	jirl	$ra, $ra, 0
	ld.d	$a1, $sp, 24                    # 8-byte Folded Reload
	ld.d	$fp, $a1, %pc_lo12(start_time)
	pcalau12i	$s2, %pc_hi20(results)
	ld.d	$a2, $s2, %pc_lo12(results)
	pcalau12i	$s1, %pc_hi20(allocated_results)
	ld.w	$a1, $s1, %pc_lo12(allocated_results)
	move	$s0, $a0
	pcalau12i	$a0, %pc_hi20(end_time)
	st.d	$s0, $a0, %pc_lo12(end_time)
	ld.d	$s3, $sp, 112                   # 8-byte Folded Reload
	beqz	$a2, .LBB6_33
# %bb.32:                               # %for.end12
	ld.w	$a0, $s3, %pc_lo12(current_test)
	blt	$a0, $a1, .LBB6_35
.LBB6_33:                               # %if.then.i11
	addi.w	$a0, $a1, 10
	st.w	$a0, $s1, %pc_lo12(allocated_results)
	slli.d	$a1, $a0, 4
	move	$a0, $a2
	pcaddu18i	$ra, %call36(realloc)
	jirl	$ra, $ra, 0
	st.d	$a0, $s2, %pc_lo12(results)
	beqz	$a0, .LBB6_36
# %bb.34:                               # %if.then.if.end5_crit_edge.i
	move	$a2, $a0
	ld.w	$a0, $s3, %pc_lo12(current_test)
.LBB6_35:                               # %_Z13record_resultdPKc.exit
	pcalau12i	$a1, %pc_hi20(.LCPI6_0)
	fld.d	$fa0, $a1, %pc_lo12(.LCPI6_0)
	sub.d	$a1, $s0, $fp
	movgr2fr.d	$fa1, $a1
	ffint.d.l	$fa1, $fa1
	fdiv.d	$fa0, $fa1, $fa0
	alsl.d	$a1, $a0, $a2, 4
	slli.d	$a3, $a0, 4
	fstx.d	$fa0, $a2, $a3
	ld.d	$a2, $sp, 16                    # 8-byte Folded Reload
	st.d	$a2, $a1, 8
	addi.d	$a0, $a0, 1
	st.w	$a0, $s3, %pc_lo12(current_test)
	ld.d	$s8, $sp, 120                   # 8-byte Folded Reload
	ld.d	$s7, $sp, 128                   # 8-byte Folded Reload
	ld.d	$s6, $sp, 136                   # 8-byte Folded Reload
	ld.d	$s5, $sp, 144                   # 8-byte Folded Reload
	ld.d	$s4, $sp, 152                   # 8-byte Folded Reload
	ld.d	$s3, $sp, 160                   # 8-byte Folded Reload
	ld.d	$s2, $sp, 168                   # 8-byte Folded Reload
	ld.d	$s1, $sp, 176                   # 8-byte Folded Reload
	ld.d	$s0, $sp, 184                   # 8-byte Folded Reload
	ld.d	$fp, $sp, 192                   # 8-byte Folded Reload
	ld.d	$ra, $sp, 200                   # 8-byte Folded Reload
	addi.d	$sp, $sp, 208
	ret
.LBB6_36:                               # %if.then3.i
	ld.w	$a1, $s1, %pc_lo12(allocated_results)
	pcalau12i	$a0, %pc_hi20(.L.str)
	addi.d	$a0, $a0, %pc_lo12(.L.str)
	pcaddu18i	$ra, %call36(printf)
	jirl	$ra, $ra, 0
	addi.w	$a0, $zero, -1
	pcaddu18i	$ra, %call36(exit)
	jirl	$ra, $ra, 0
.Lfunc_end6:
	.size	_Z27test_for_loop_unroll_factorILi32EiEvPKT0_iPKc, .Lfunc_end6-_Z27test_for_loop_unroll_factorILi32EiEvPKT0_iPKc
	.cfi_endproc
                                        # -- End function
	.section	.rodata.cst8,"aM",@progbits,8
	.p2align	3, 0x0                          # -- Begin function _Z27test_for_loop_unroll_factorILi31EiEvPKT0_iPKc
.LCPI7_0:
	.dword	0x412e848000000000              # double 1.0E+6
	.section	.text._Z27test_for_loop_unroll_factorILi31EiEvPKT0_iPKc,"axG",@progbits,_Z27test_for_loop_unroll_factorILi31EiEvPKT0_iPKc,comdat
	.weak	_Z27test_for_loop_unroll_factorILi31EiEvPKT0_iPKc
	.p2align	5
	.type	_Z27test_for_loop_unroll_factorILi31EiEvPKT0_iPKc,@function
_Z27test_for_loop_unroll_factorILi31EiEvPKT0_iPKc: # @_Z27test_for_loop_unroll_factorILi31EiEvPKT0_iPKc
	.cfi_startproc
# %bb.0:                                # %entry
	addi.d	$sp, $sp, -208
	.cfi_def_cfa_offset 208
	st.d	$ra, $sp, 200                   # 8-byte Folded Spill
	st.d	$fp, $sp, 192                   # 8-byte Folded Spill
	st.d	$s0, $sp, 184                   # 8-byte Folded Spill
	st.d	$s1, $sp, 176                   # 8-byte Folded Spill
	st.d	$s2, $sp, 168                   # 8-byte Folded Spill
	st.d	$s3, $sp, 160                   # 8-byte Folded Spill
	st.d	$s4, $sp, 152                   # 8-byte Folded Spill
	st.d	$s5, $sp, 144                   # 8-byte Folded Spill
	st.d	$s6, $sp, 136                   # 8-byte Folded Spill
	st.d	$s7, $sp, 128                   # 8-byte Folded Spill
	st.d	$s8, $sp, 120                   # 8-byte Folded Spill
	.cfi_offset 1, -8
	.cfi_offset 22, -16
	.cfi_offset 23, -24
	.cfi_offset 24, -32
	.cfi_offset 25, -40
	.cfi_offset 26, -48
	.cfi_offset 27, -56
	.cfi_offset 28, -64
	.cfi_offset 29, -72
	.cfi_offset 30, -80
	.cfi_offset 31, -88
	st.d	$a2, $sp, 16                    # 8-byte Folded Spill
	move	$s0, $a1
	move	$s1, $a0
	pcaddu18i	$ra, %call36(clock)
	jirl	$ra, $ra, 0
	pcalau12i	$s5, %pc_hi20(iterations)
	ld.w	$a1, $s5, %pc_lo12(iterations)
	pcalau12i	$a2, %pc_hi20(start_time)
	st.d	$a2, $sp, 24                    # 8-byte Folded Spill
	st.d	$a0, $a2, %pc_lo12(start_time)
	pcalau12i	$a0, %pc_hi20(current_test)
	st.d	$a0, $sp, 112                   # 8-byte Folded Spill
	blez	$a1, .LBB7_31
# %bb.1:                                # %for.cond1.preheader.lr.ph
	ori	$a0, $zero, 31
	blt	$s0, $a0, .LBB7_15
# %bb.2:                                # %for.cond1.preheader.us.preheader
	addi.d	$a1, $s0, -30
	bstrpick.d	$s2, $a1, 31, 0
	sltu	$a1, $a0, $s2
	masknez	$a0, $a0, $a1
	maskeqz	$a1, $s2, $a1
	or	$a0, $a1, $a0
	addi.d	$a0, $a0, -1
	lu12i.w	$a1, 135300
	ori	$a1, $a1, 529
	lu32i.d	$a1, 135300
	lu52i.d	$a1, $a1, 132
	mulh.du	$a1, $a0, $a1
	sub.d	$a0, $a0, $a1
	srli.d	$a0, $a0, 1
	add.d	$a0, $a0, $a1
	srli.d	$a0, $a0, 4
	slli.d	$a1, $a0, 5
	sub.d	$a0, $a1, $a0
	addi.d	$a1, $a0, 32
	sltu	$a2, $s0, $a1
	maskeqz	$a1, $a1, $a2
	masknez	$a2, $s0, $a2
	or	$a1, $a1, $a2
	sub.d	$a0, $a1, $a0
	addi.d	$a0, $a0, -31
	move	$t5, $zero
	st.d	$a0, $sp, 104                   # 8-byte Folded Spill
	bstrins.d	$a0, $zero, 2, 0
	st.d	$a0, $sp, 80                    # 8-byte Folded Spill
	addi.d	$t2, $s1, 140
	lu12i.w	$a0, 65881
	ori	$s4, $a0, 1957
	lu12i.w	$a0, -226646
	ori	$fp, $a0, 3400
	lu12i.w	$a0, -277912
	ori	$s3, $a0, 2488
	vrepli.b	$vr0, 0
	vst	$vr0, $sp, 48                   # 16-byte Folded Spill
	lu12i.w	$a0, -381906
	ori	$s8, $a0, 1088
	lu12i.w	$a0, -310021
	ori	$s7, $a0, 1536
	st.d	$s0, $sp, 72                    # 8-byte Folded Spill
	b	.LBB7_4
	.p2align	4, , 16
.LBB7_3:                                # %_Z9check_sumIiEvT_.exit.us
                                        #   in Loop: Header=BB7_4 Depth=1
	ld.w	$a0, $s5, %pc_lo12(iterations)
	addi.w	$t5, $t5, 1
	bge	$t5, $a0, .LBB7_31
.LBB7_4:                                # %for.cond1.preheader.us
                                        # =>This Loop Header: Depth=1
                                        #     Child Loop BB7_5 Depth 2
                                        #     Child Loop BB7_9 Depth 2
                                        #     Child Loop BB7_12 Depth 2
	move	$a1, $zero
	move	$a0, $zero
	ori	$a2, $zero, 31
	move	$a3, $t2
	.p2align	4, , 16
.LBB7_5:                                # %for.body3.us
                                        #   Parent Loop BB7_4 Depth=1
                                        # =>  This Inner Loop Header: Depth=2
	alsl.d	$a4, $a1, $s1, 2
	slli.d	$a5, $a1, 2
	ldx.w	$a5, $s1, $a5
	ld.w	$a6, $a4, 4
	ld.w	$a7, $a4, 8
	ld.w	$t0, $a4, 12
	add.d	$a5, $a6, $a5
	ld.w	$a6, $a4, 16
	add.d	$a5, $a5, $a7
	ld.w	$a7, $a4, 20
	add.d	$a5, $a5, $t0
	ld.w	$t0, $a4, 24
	add.d	$a5, $a5, $a6
	ld.w	$a6, $a4, 28
	add.d	$a5, $a5, $a7
	ld.w	$a7, $a4, 32
	add.d	$a5, $a5, $t0
	ld.w	$t0, $a4, 36
	add.d	$a5, $a5, $a6
	ld.w	$a6, $a4, 40
	add.d	$a5, $a5, $a7
	ld.w	$a7, $a4, 44
	add.d	$a5, $a5, $t0
	ld.w	$t0, $a4, 48
	add.d	$a5, $a5, $a6
	ld.w	$a6, $a4, 52
	add.d	$a5, $a5, $a7
	ld.w	$a7, $a4, 56
	add.d	$a5, $a5, $t0
	ld.w	$t0, $a4, 60
	add.d	$a5, $a5, $a6
	ld.w	$a6, $a4, 64
	add.d	$a5, $a5, $a7
	ld.w	$a7, $a4, 68
	add.d	$a5, $a5, $t0
	ld.w	$t0, $a4, 72
	add.d	$a5, $a5, $a6
	ld.w	$a6, $a4, 76
	add.d	$a5, $a5, $a7
	ld.w	$a7, $a4, 80
	add.d	$a5, $a5, $t0
	ld.w	$t0, $a4, 84
	add.d	$a5, $a5, $a6
	ld.w	$a6, $a4, 88
	add.d	$a5, $a5, $a7
	ld.w	$a7, $a4, 92
	add.d	$a5, $a5, $t0
	ld.w	$t0, $a4, 96
	add.d	$a5, $a5, $a6
	ld.w	$a6, $a4, 100
	add.d	$a5, $a5, $a7
	ld.w	$a7, $a4, 104
	add.d	$a5, $a5, $t0
	ld.w	$t0, $a4, 108
	add.d	$a5, $a5, $a6
	ld.w	$a6, $a4, 112
	add.d	$a5, $a5, $a7
	ld.w	$a7, $a4, 116
	ld.w	$t1, $a4, 120
	add.d	$a4, $a5, $t0
	add.d	$a4, $a4, $a6
	add.d	$a6, $a4, $a7
	move	$a4, $a2
	move	$a5, $a3
	add.d	$a2, $a6, $t1
	mul.d	$a2, $a2, $s4
	add.d	$a0, $a0, $a2
	add.d	$a0, $a0, $fp
	addi.d	$a1, $a1, 31
	addi.d	$a2, $a4, 31
	addi.d	$a3, $a3, 124
	bltu	$a1, $s2, .LBB7_5
# %bb.6:                                # %for.cond1.for.cond4.preheader_crit_edge.us
                                        #   in Loop: Header=BB7_4 Depth=1
	addi.w	$a1, $a1, 0
	bge	$a1, $s0, .LBB7_13
# %bb.7:                                # %for.body6.us.preheader
                                        #   in Loop: Header=BB7_4 Depth=1
	ld.d	$a1, $sp, 104                   # 8-byte Folded Reload
	ori	$a2, $zero, 8
	bltu	$a1, $a2, .LBB7_11
# %bb.8:                                # %vector.ph136
                                        #   in Loop: Header=BB7_4 Depth=1
	ld.d	$a1, $sp, 80                    # 8-byte Folded Reload
	add.d	$a4, $a4, $a1
	vld	$vr1, $sp, 48                   # 16-byte Folded Reload
	vori.b	$vr0, $vr1, 0
	vinsgr2vr.w	$vr0, $a0, 0
	move	$a0, $a1
	.p2align	4, , 16
.LBB7_9:                                # %vector.body139
                                        #   Parent Loop BB7_4 Depth=1
                                        # =>  This Inner Loop Header: Depth=2
	vld	$vr2, $a5, -16
	vld	$vr3, $a5, 0
	vreplgr2vr.w	$vr4, $s4
	vmadd.w	$vr0, $vr2, $vr4
	vreplgr2vr.w	$vr2, $s3
	vmadd.w	$vr1, $vr3, $vr4
	vadd.w	$vr0, $vr0, $vr2
	vadd.w	$vr1, $vr1, $vr2
	addi.d	$a0, $a0, -8
	addi.d	$a5, $a5, 32
	bnez	$a0, .LBB7_9
# %bb.10:                               # %middle.block146
                                        #   in Loop: Header=BB7_4 Depth=1
	vadd.w	$vr0, $vr1, $vr0
	vhaddw.d.w	$vr0, $vr0, $vr0
	vhaddw.q.d	$vr0, $vr0, $vr0
	vpickve2gr.d	$a0, $vr0, 0
	ld.d	$a1, $sp, 104                   # 8-byte Folded Reload
	ld.d	$a2, $sp, 80                    # 8-byte Folded Reload
	beq	$a1, $a2, .LBB7_13
.LBB7_11:                               # %for.body6.us.preheader151
                                        #   in Loop: Header=BB7_4 Depth=1
	alsl.d	$a1, $a4, $s1, 2
	.p2align	4, , 16
.LBB7_12:                               # %for.body6.us
                                        #   Parent Loop BB7_4 Depth=1
                                        # =>  This Inner Loop Header: Depth=2
	ld.w	$a2, $a1, 0
	mul.d	$a2, $a2, $s4
	add.d	$a0, $a0, $a2
	add.d	$a0, $a0, $s3
	addi.d	$a4, $a4, 1
	addi.d	$a1, $a1, 4
	bltu	$a4, $s0, .LBB7_12
.LBB7_13:                               # %for.end9.us
                                        #   in Loop: Header=BB7_4 Depth=1
	pcalau12i	$a1, %pc_hi20(init_value)
	fld.d	$fa0, $a1, %pc_lo12(init_value)
	ftintrz.w.d	$fa0, $fa0
	movfr2gr.s	$a1, $fa0
	mul.d	$a1, $a1, $s8
	add.w	$a1, $a1, $s7
	addi.w	$a0, $a0, 0
	beq	$a0, $a1, .LBB7_3
# %bb.14:                               # %if.then.i.us
                                        #   in Loop: Header=BB7_4 Depth=1
	ld.d	$a0, $sp, 112                   # 8-byte Folded Reload
	ld.w	$a1, $a0, %pc_lo12(current_test)
	pcalau12i	$a0, %pc_hi20(.L.str.19)
	addi.d	$a0, $a0, %pc_lo12(.L.str.19)
	move	$s6, $s5
	move	$s5, $t2
	move	$s0, $t5
	pcaddu18i	$ra, %call36(printf)
	jirl	$ra, $ra, 0
	move	$t5, $s0
	ld.d	$s0, $sp, 72                    # 8-byte Folded Reload
	move	$t2, $s5
	move	$s5, $s6
	b	.LBB7_3
.LBB7_15:                               # %for.cond1.preheader.lr.ph.split
	blez	$s0, .LBB7_27
# %bb.16:                               # %for.cond1.preheader.us88.preheader
	bstrpick.d	$a0, $s0, 30, 3
	slli.d	$fp, $a0, 3
	ori	$a5, $zero, 8
	lu12i.w	$a0, 65881
	ori	$s6, $a0, 1957
	lu12i.w	$a0, -277912
	ori	$s7, $a0, 2488
	pcalau12i	$s8, %pc_hi20(init_value)
	lu12i.w	$a0, -381906
	ori	$s3, $a0, 1088
	lu12i.w	$a0, -310021
	ori	$s4, $a0, 1536
	pcalau12i	$a0, %pc_hi20(.L.str.19)
	addi.d	$a0, $a0, %pc_lo12(.L.str.19)
	st.d	$a0, $sp, 104                   # 8-byte Folded Spill
	move	$s2, $zero
	vrepli.b	$vr0, 0
	vst	$vr0, $sp, 80                   # 16-byte Folded Spill
	vreplgr2vr.w	$vr4, $s6
	vreplgr2vr.w	$vr5, $s7
	vst	$vr4, $sp, 48                   # 16-byte Folded Spill
	vst	$vr5, $sp, 32                   # 16-byte Folded Spill
	b	.LBB7_18
	.p2align	4, , 16
.LBB7_17:                               # %_Z9check_sumIiEvT_.exit.us97
                                        #   in Loop: Header=BB7_18 Depth=1
	addi.w	$s2, $s2, 1
	bge	$s2, $a1, .LBB7_31
.LBB7_18:                               # %for.cond1.preheader.us88
                                        # =>This Loop Header: Depth=1
                                        #     Child Loop BB7_21 Depth 2
                                        #     Child Loop BB7_24 Depth 2
	bgeu	$s0, $a5, .LBB7_20
# %bb.19:                               #   in Loop: Header=BB7_18 Depth=1
	move	$a3, $zero
	move	$a0, $zero
	b	.LBB7_23
	.p2align	4, , 16
.LBB7_20:                               # %vector.body.preheader
                                        #   in Loop: Header=BB7_18 Depth=1
	addi.d	$a0, $s1, 16
	move	$a2, $fp
	vld	$vr1, $sp, 80                   # 16-byte Folded Reload
	vori.b	$vr0, $vr1, 0
	.p2align	4, , 16
.LBB7_21:                               # %vector.body
                                        #   Parent Loop BB7_18 Depth=1
                                        # =>  This Inner Loop Header: Depth=2
	vld	$vr2, $a0, -16
	vld	$vr3, $a0, 0
	vmadd.w	$vr0, $vr2, $vr4
	vmadd.w	$vr1, $vr3, $vr4
	vadd.w	$vr0, $vr0, $vr5
	vadd.w	$vr1, $vr1, $vr5
	addi.d	$a2, $a2, -8
	addi.d	$a0, $a0, 32
	bnez	$a2, .LBB7_21
# %bb.22:                               # %middle.block
                                        #   in Loop: Header=BB7_18 Depth=1
	vadd.w	$vr0, $vr1, $vr0
	vhaddw.d.w	$vr0, $vr0, $vr0
	vhaddw.q.d	$vr0, $vr0, $vr0
	vpickve2gr.d	$a0, $vr0, 0
	move	$a3, $fp
	beq	$fp, $s0, .LBB7_25
.LBB7_23:                               # %for.body6.us100.preheader
                                        #   in Loop: Header=BB7_18 Depth=1
	alsl.d	$a2, $a3, $s1, 2
	sub.d	$a3, $s0, $a3
	.p2align	4, , 16
.LBB7_24:                               # %for.body6.us100
                                        #   Parent Loop BB7_18 Depth=1
                                        # =>  This Inner Loop Header: Depth=2
	ld.w	$a4, $a2, 0
	mul.d	$a4, $a4, $s6
	add.d	$a0, $a0, $a4
	add.d	$a0, $a0, $s7
	addi.d	$a3, $a3, -1
	addi.d	$a2, $a2, 4
	bnez	$a3, .LBB7_24
.LBB7_25:                               # %for.cond4.for.end9_crit_edge.us110
                                        #   in Loop: Header=BB7_18 Depth=1
	fld.d	$fa0, $s8, %pc_lo12(init_value)
	ftintrz.w.d	$fa0, $fa0
	movfr2gr.s	$a2, $fa0
	mul.d	$a2, $a2, $s3
	add.w	$a2, $a2, $s4
	addi.w	$a0, $a0, 0
	beq	$a0, $a2, .LBB7_17
# %bb.26:                               # %if.then.i.us95
                                        #   in Loop: Header=BB7_18 Depth=1
	ld.d	$a0, $sp, 112                   # 8-byte Folded Reload
	ld.w	$a1, $a0, %pc_lo12(current_test)
	ld.d	$a0, $sp, 104                   # 8-byte Folded Reload
	pcaddu18i	$ra, %call36(printf)
	jirl	$ra, $ra, 0
	vld	$vr5, $sp, 32                   # 16-byte Folded Reload
	vld	$vr4, $sp, 48                   # 16-byte Folded Reload
	ori	$a5, $zero, 8
	ld.w	$a1, $s5, %pc_lo12(iterations)
	b	.LBB7_17
.LBB7_27:                               # %for.cond1.preheader.preheader
	pcalau12i	$fp, %pc_hi20(init_value)
	fld.d	$fa0, $fp, %pc_lo12(init_value)
	lu12i.w	$a0, -381906
	ori	$s1, $a0, 1088
	lu12i.w	$a0, 310020
	ori	$s2, $a0, 2560
	pcalau12i	$a0, %pc_hi20(.L.str.19)
	addi.d	$s0, $a0, %pc_lo12(.L.str.19)
	move	$s3, $zero
	b	.LBB7_29
	.p2align	4, , 16
.LBB7_28:                               # %_Z9check_sumIiEvT_.exit
                                        #   in Loop: Header=BB7_29 Depth=1
	addi.w	$s3, $s3, 1
	bge	$s3, $a1, .LBB7_31
.LBB7_29:                               # %for.cond1.preheader
                                        # =>This Inner Loop Header: Depth=1
	ftintrz.w.d	$fa1, $fa0
	movfr2gr.s	$a0, $fa1
	mul.w	$a0, $a0, $s1
	beq	$a0, $s2, .LBB7_28
# %bb.30:                               # %if.then.i
                                        #   in Loop: Header=BB7_29 Depth=1
	ld.d	$a0, $sp, 112                   # 8-byte Folded Reload
	ld.w	$a1, $a0, %pc_lo12(current_test)
	move	$a0, $s0
	pcaddu18i	$ra, %call36(printf)
	jirl	$ra, $ra, 0
	fld.d	$fa0, $fp, %pc_lo12(init_value)
	ld.w	$a1, $s5, %pc_lo12(iterations)
	b	.LBB7_28
.LBB7_31:                               # %for.end12
	pcaddu18i	$ra, %call36(clock)
	jirl	$ra, $ra, 0
	ld.d	$a1, $sp, 24                    # 8-byte Folded Reload
	ld.d	$fp, $a1, %pc_lo12(start_time)
	pcalau12i	$s2, %pc_hi20(results)
	ld.d	$a2, $s2, %pc_lo12(results)
	pcalau12i	$s1, %pc_hi20(allocated_results)
	ld.w	$a1, $s1, %pc_lo12(allocated_results)
	move	$s0, $a0
	pcalau12i	$a0, %pc_hi20(end_time)
	st.d	$s0, $a0, %pc_lo12(end_time)
	ld.d	$s3, $sp, 112                   # 8-byte Folded Reload
	beqz	$a2, .LBB7_33
# %bb.32:                               # %for.end12
	ld.w	$a0, $s3, %pc_lo12(current_test)
	blt	$a0, $a1, .LBB7_35
.LBB7_33:                               # %if.then.i11
	addi.w	$a0, $a1, 10
	st.w	$a0, $s1, %pc_lo12(allocated_results)
	slli.d	$a1, $a0, 4
	move	$a0, $a2
	pcaddu18i	$ra, %call36(realloc)
	jirl	$ra, $ra, 0
	st.d	$a0, $s2, %pc_lo12(results)
	beqz	$a0, .LBB7_36
# %bb.34:                               # %if.then.if.end5_crit_edge.i
	move	$a2, $a0
	ld.w	$a0, $s3, %pc_lo12(current_test)
.LBB7_35:                               # %_Z13record_resultdPKc.exit
	pcalau12i	$a1, %pc_hi20(.LCPI7_0)
	fld.d	$fa0, $a1, %pc_lo12(.LCPI7_0)
	sub.d	$a1, $s0, $fp
	movgr2fr.d	$fa1, $a1
	ffint.d.l	$fa1, $fa1
	fdiv.d	$fa0, $fa1, $fa0
	alsl.d	$a1, $a0, $a2, 4
	slli.d	$a3, $a0, 4
	fstx.d	$fa0, $a2, $a3
	ld.d	$a2, $sp, 16                    # 8-byte Folded Reload
	st.d	$a2, $a1, 8
	addi.d	$a0, $a0, 1
	st.w	$a0, $s3, %pc_lo12(current_test)
	ld.d	$s8, $sp, 120                   # 8-byte Folded Reload
	ld.d	$s7, $sp, 128                   # 8-byte Folded Reload
	ld.d	$s6, $sp, 136                   # 8-byte Folded Reload
	ld.d	$s5, $sp, 144                   # 8-byte Folded Reload
	ld.d	$s4, $sp, 152                   # 8-byte Folded Reload
	ld.d	$s3, $sp, 160                   # 8-byte Folded Reload
	ld.d	$s2, $sp, 168                   # 8-byte Folded Reload
	ld.d	$s1, $sp, 176                   # 8-byte Folded Reload
	ld.d	$s0, $sp, 184                   # 8-byte Folded Reload
	ld.d	$fp, $sp, 192                   # 8-byte Folded Reload
	ld.d	$ra, $sp, 200                   # 8-byte Folded Reload
	addi.d	$sp, $sp, 208
	ret
.LBB7_36:                               # %if.then3.i
	ld.w	$a1, $s1, %pc_lo12(allocated_results)
	pcalau12i	$a0, %pc_hi20(.L.str)
	addi.d	$a0, $a0, %pc_lo12(.L.str)
	pcaddu18i	$ra, %call36(printf)
	jirl	$ra, $ra, 0
	addi.w	$a0, $zero, -1
	pcaddu18i	$ra, %call36(exit)
	jirl	$ra, $ra, 0
.Lfunc_end7:
	.size	_Z27test_for_loop_unroll_factorILi31EiEvPKT0_iPKc, .Lfunc_end7-_Z27test_for_loop_unroll_factorILi31EiEvPKT0_iPKc
	.cfi_endproc
                                        # -- End function
	.section	.rodata.cst8,"aM",@progbits,8
	.p2align	3, 0x0                          # -- Begin function _Z27test_for_loop_unroll_factorILi30EiEvPKT0_iPKc
.LCPI8_0:
	.dword	0x412e848000000000              # double 1.0E+6
	.section	.text._Z27test_for_loop_unroll_factorILi30EiEvPKT0_iPKc,"axG",@progbits,_Z27test_for_loop_unroll_factorILi30EiEvPKT0_iPKc,comdat
	.weak	_Z27test_for_loop_unroll_factorILi30EiEvPKT0_iPKc
	.p2align	5
	.type	_Z27test_for_loop_unroll_factorILi30EiEvPKT0_iPKc,@function
_Z27test_for_loop_unroll_factorILi30EiEvPKT0_iPKc: # @_Z27test_for_loop_unroll_factorILi30EiEvPKT0_iPKc
	.cfi_startproc
# %bb.0:                                # %entry
	addi.d	$sp, $sp, -192
	.cfi_def_cfa_offset 192
	st.d	$ra, $sp, 184                   # 8-byte Folded Spill
	st.d	$fp, $sp, 176                   # 8-byte Folded Spill
	st.d	$s0, $sp, 168                   # 8-byte Folded Spill
	st.d	$s1, $sp, 160                   # 8-byte Folded Spill
	st.d	$s2, $sp, 152                   # 8-byte Folded Spill
	st.d	$s3, $sp, 144                   # 8-byte Folded Spill
	st.d	$s4, $sp, 136                   # 8-byte Folded Spill
	st.d	$s5, $sp, 128                   # 8-byte Folded Spill
	st.d	$s6, $sp, 120                   # 8-byte Folded Spill
	st.d	$s7, $sp, 112                   # 8-byte Folded Spill
	st.d	$s8, $sp, 104                   # 8-byte Folded Spill
	.cfi_offset 1, -8
	.cfi_offset 22, -16
	.cfi_offset 23, -24
	.cfi_offset 24, -32
	.cfi_offset 25, -40
	.cfi_offset 26, -48
	.cfi_offset 27, -56
	.cfi_offset 28, -64
	.cfi_offset 29, -72
	.cfi_offset 30, -80
	.cfi_offset 31, -88
	st.d	$a2, $sp, 16                    # 8-byte Folded Spill
	move	$s0, $a1
	move	$s1, $a0
	pcaddu18i	$ra, %call36(clock)
	jirl	$ra, $ra, 0
	pcalau12i	$a1, %pc_hi20(iterations)
	st.d	$a1, $sp, 88                    # 8-byte Folded Spill
	ld.w	$a1, $a1, %pc_lo12(iterations)
	pcalau12i	$a2, %pc_hi20(start_time)
	st.d	$a2, $sp, 24                    # 8-byte Folded Spill
	st.d	$a0, $a2, %pc_lo12(start_time)
	pcalau12i	$a0, %pc_hi20(current_test)
	st.d	$a0, $sp, 96                    # 8-byte Folded Spill
	blez	$a1, .LBB8_31
# %bb.1:                                # %for.cond1.preheader.lr.ph
	ori	$a0, $zero, 30
	blt	$s0, $a0, .LBB8_15
# %bb.2:                                # %for.cond1.preheader.us.preheader
	addi.d	$a2, $s0, -29
	bstrpick.d	$s2, $a2, 31, 0
	sltu	$a2, $a0, $s2
	masknez	$a3, $a0, $a2
	maskeqz	$a2, $s2, $a2
	or	$a2, $a2, $a3
	addi.d	$a2, $a2, -1
	lu12i.w	$a3, -489336
	ori	$a3, $a3, 2185
	lu32i.d	$a3, -489336
	lu52i.d	$a3, $a3, -1912
	mulh.du	$a2, $a2, $a3
	srli.d	$a2, $a2, 4
	mul.d	$a0, $a2, $a0
	addi.d	$a2, $a0, 31
	sltu	$a3, $s0, $a2
	maskeqz	$a2, $a2, $a3
	masknez	$a3, $s0, $a3
	or	$a2, $a2, $a3
	sub.d	$a0, $a2, $a0
	addi.d	$s8, $a0, -30
	move	$s7, $zero
	st.d	$s8, $sp, 64                    # 8-byte Folded Spill
	bstrins.d	$s8, $zero, 2, 0
	st.d	$s8, $sp, 48                    # 8-byte Folded Spill
	addi.d	$s8, $s1, 136
	lu12i.w	$a0, 65881
	ori	$s4, $a0, 1957
	lu12i.w	$a0, 51266
	ori	$fp, $a0, 912
	lu12i.w	$a0, -277912
	ori	$s3, $a0, 2488
	vrepli.b	$vr0, 0
	vst	$vr0, $sp, 32                   # 16-byte Folded Spill
	lu12i.w	$a0, -381906
	ori	$s5, $a0, 1088
	lu12i.w	$a0, -310021
	ori	$s6, $a0, 1536
	b	.LBB8_4
	.p2align	4, , 16
.LBB8_3:                                # %_Z9check_sumIiEvT_.exit.us
                                        #   in Loop: Header=BB8_4 Depth=1
	addi.w	$s7, $s7, 1
	bge	$s7, $a1, .LBB8_31
.LBB8_4:                                # %for.cond1.preheader.us
                                        # =>This Loop Header: Depth=1
                                        #     Child Loop BB8_5 Depth 2
                                        #     Child Loop BB8_9 Depth 2
                                        #     Child Loop BB8_12 Depth 2
	move	$a2, $zero
	move	$a0, $zero
	ori	$a3, $zero, 30
	move	$a4, $s8
	.p2align	4, , 16
.LBB8_5:                                # %for.body3.us
                                        #   Parent Loop BB8_4 Depth=1
                                        # =>  This Inner Loop Header: Depth=2
	alsl.d	$a5, $a2, $s1, 2
	slli.d	$a6, $a2, 2
	ldx.w	$a6, $s1, $a6
	ld.w	$a7, $a5, 4
	ld.w	$t0, $a5, 8
	ld.w	$t1, $a5, 12
	add.d	$a6, $a7, $a6
	ld.w	$a7, $a5, 16
	add.d	$a6, $a6, $t0
	ld.w	$t0, $a5, 20
	add.d	$a6, $a6, $t1
	ld.w	$t1, $a5, 24
	add.d	$a6, $a6, $a7
	ld.w	$a7, $a5, 28
	add.d	$a6, $a6, $t0
	ld.w	$t0, $a5, 32
	add.d	$a6, $a6, $t1
	ld.w	$t1, $a5, 36
	add.d	$a6, $a6, $a7
	ld.w	$a7, $a5, 40
	add.d	$a6, $a6, $t0
	ld.w	$t0, $a5, 44
	add.d	$a6, $a6, $t1
	ld.w	$t1, $a5, 48
	add.d	$a6, $a6, $a7
	ld.w	$a7, $a5, 52
	add.d	$a6, $a6, $t0
	ld.w	$t0, $a5, 56
	add.d	$a6, $a6, $t1
	ld.w	$t1, $a5, 60
	add.d	$a6, $a6, $a7
	ld.w	$a7, $a5, 64
	add.d	$a6, $a6, $t0
	ld.w	$t0, $a5, 68
	add.d	$a6, $a6, $t1
	ld.w	$t1, $a5, 72
	add.d	$a6, $a6, $a7
	ld.w	$a7, $a5, 76
	add.d	$a6, $a6, $t0
	ld.w	$t0, $a5, 80
	add.d	$a6, $a6, $t1
	ld.w	$t1, $a5, 84
	add.d	$a6, $a6, $a7
	ld.w	$a7, $a5, 88
	add.d	$a6, $a6, $t0
	ld.w	$t0, $a5, 92
	add.d	$a6, $a6, $t1
	ld.w	$t1, $a5, 96
	add.d	$a6, $a6, $a7
	ld.w	$a7, $a5, 100
	add.d	$a6, $a6, $t0
	ld.w	$t0, $a5, 104
	add.d	$a6, $a6, $t1
	ld.w	$t1, $a5, 108
	add.d	$a6, $a6, $a7
	ld.w	$a7, $a5, 112
	ld.w	$t2, $a5, 116
	add.d	$a5, $a6, $t0
	add.d	$a5, $a5, $t1
	add.d	$a7, $a5, $a7
	move	$a5, $a3
	move	$a6, $a4
	add.d	$a3, $a7, $t2
	mul.d	$a3, $a3, $s4
	add.d	$a0, $a0, $a3
	add.d	$a0, $a0, $fp
	addi.d	$a2, $a2, 30
	addi.d	$a3, $a5, 30
	addi.d	$a4, $a4, 120
	bltu	$a2, $s2, .LBB8_5
# %bb.6:                                # %for.cond1.for.cond4.preheader_crit_edge.us
                                        #   in Loop: Header=BB8_4 Depth=1
	addi.w	$a2, $a2, 0
	bge	$a2, $s0, .LBB8_13
# %bb.7:                                # %for.body6.us.preheader
                                        #   in Loop: Header=BB8_4 Depth=1
	ld.d	$a2, $sp, 64                    # 8-byte Folded Reload
	ori	$a3, $zero, 8
	bltu	$a2, $a3, .LBB8_11
# %bb.8:                                # %vector.ph134
                                        #   in Loop: Header=BB8_4 Depth=1
	ld.d	$a2, $sp, 48                    # 8-byte Folded Reload
	add.d	$a5, $a5, $a2
	vld	$vr1, $sp, 32                   # 16-byte Folded Reload
	vori.b	$vr0, $vr1, 0
	vinsgr2vr.w	$vr0, $a0, 0
	move	$a0, $a2
	.p2align	4, , 16
.LBB8_9:                                # %vector.body137
                                        #   Parent Loop BB8_4 Depth=1
                                        # =>  This Inner Loop Header: Depth=2
	vld	$vr2, $a6, -16
	vld	$vr3, $a6, 0
	vreplgr2vr.w	$vr4, $s4
	vmadd.w	$vr0, $vr2, $vr4
	vreplgr2vr.w	$vr2, $s3
	vmadd.w	$vr1, $vr3, $vr4
	vadd.w	$vr0, $vr0, $vr2
	vadd.w	$vr1, $vr1, $vr2
	addi.d	$a0, $a0, -8
	addi.d	$a6, $a6, 32
	bnez	$a0, .LBB8_9
# %bb.10:                               # %middle.block144
                                        #   in Loop: Header=BB8_4 Depth=1
	vadd.w	$vr0, $vr1, $vr0
	vhaddw.d.w	$vr0, $vr0, $vr0
	vhaddw.q.d	$vr0, $vr0, $vr0
	vpickve2gr.d	$a0, $vr0, 0
	ld.d	$a2, $sp, 64                    # 8-byte Folded Reload
	ld.d	$a3, $sp, 48                    # 8-byte Folded Reload
	beq	$a2, $a3, .LBB8_13
.LBB8_11:                               # %for.body6.us.preheader149
                                        #   in Loop: Header=BB8_4 Depth=1
	alsl.d	$a2, $a5, $s1, 2
	.p2align	4, , 16
.LBB8_12:                               # %for.body6.us
                                        #   Parent Loop BB8_4 Depth=1
                                        # =>  This Inner Loop Header: Depth=2
	ld.w	$a3, $a2, 0
	mul.d	$a3, $a3, $s4
	add.d	$a0, $a0, $a3
	add.d	$a0, $a0, $s3
	addi.d	$a5, $a5, 1
	addi.d	$a2, $a2, 4
	bltu	$a5, $s0, .LBB8_12
.LBB8_13:                               # %for.end9.us
                                        #   in Loop: Header=BB8_4 Depth=1
	pcalau12i	$a2, %pc_hi20(init_value)
	fld.d	$fa0, $a2, %pc_lo12(init_value)
	ftintrz.w.d	$fa0, $fa0
	movfr2gr.s	$a2, $fa0
	mul.d	$a2, $a2, $s5
	add.w	$a2, $a2, $s6
	addi.w	$a0, $a0, 0
	beq	$a0, $a2, .LBB8_3
# %bb.14:                               # %if.then.i.us
                                        #   in Loop: Header=BB8_4 Depth=1
	ld.d	$a0, $sp, 96                    # 8-byte Folded Reload
	ld.w	$a1, $a0, %pc_lo12(current_test)
	pcalau12i	$a0, %pc_hi20(.L.str.19)
	addi.d	$a0, $a0, %pc_lo12(.L.str.19)
	pcaddu18i	$ra, %call36(printf)
	jirl	$ra, $ra, 0
	ld.d	$a0, $sp, 88                    # 8-byte Folded Reload
	ld.w	$a1, $a0, %pc_lo12(iterations)
	b	.LBB8_3
.LBB8_15:                               # %for.cond1.preheader.lr.ph.split
	blez	$s0, .LBB8_27
# %bb.16:                               # %for.cond1.preheader.us84.preheader
	bstrpick.d	$a0, $s0, 30, 3
	slli.d	$fp, $a0, 3
	ori	$a5, $zero, 8
	lu12i.w	$a0, 65881
	ori	$s5, $a0, 1957
	lu12i.w	$a0, -277912
	ori	$s6, $a0, 2488
	pcalau12i	$s7, %pc_hi20(init_value)
	lu12i.w	$a0, -381906
	ori	$s8, $a0, 1088
	lu12i.w	$a0, -310021
	ori	$s3, $a0, 1536
	pcalau12i	$a0, %pc_hi20(.L.str.19)
	addi.d	$s2, $a0, %pc_lo12(.L.str.19)
	move	$s4, $zero
	vrepli.b	$vr0, 0
	vst	$vr0, $sp, 64                   # 16-byte Folded Spill
	vreplgr2vr.w	$vr4, $s5
	vreplgr2vr.w	$vr5, $s6
	vst	$vr4, $sp, 48                   # 16-byte Folded Spill
	vst	$vr5, $sp, 32                   # 16-byte Folded Spill
	b	.LBB8_18
	.p2align	4, , 16
.LBB8_17:                               # %_Z9check_sumIiEvT_.exit.us93
                                        #   in Loop: Header=BB8_18 Depth=1
	addi.w	$s4, $s4, 1
	bge	$s4, $a1, .LBB8_31
.LBB8_18:                               # %for.cond1.preheader.us84
                                        # =>This Loop Header: Depth=1
                                        #     Child Loop BB8_21 Depth 2
                                        #     Child Loop BB8_24 Depth 2
	bgeu	$s0, $a5, .LBB8_20
# %bb.19:                               #   in Loop: Header=BB8_18 Depth=1
	move	$a3, $zero
	move	$a0, $zero
	b	.LBB8_23
	.p2align	4, , 16
.LBB8_20:                               # %vector.body.preheader
                                        #   in Loop: Header=BB8_18 Depth=1
	addi.d	$a0, $s1, 16
	move	$a2, $fp
	vld	$vr1, $sp, 64                   # 16-byte Folded Reload
	vori.b	$vr0, $vr1, 0
	.p2align	4, , 16
.LBB8_21:                               # %vector.body
                                        #   Parent Loop BB8_18 Depth=1
                                        # =>  This Inner Loop Header: Depth=2
	vld	$vr2, $a0, -16
	vld	$vr3, $a0, 0
	vmadd.w	$vr0, $vr2, $vr4
	vmadd.w	$vr1, $vr3, $vr4
	vadd.w	$vr0, $vr0, $vr5
	vadd.w	$vr1, $vr1, $vr5
	addi.d	$a2, $a2, -8
	addi.d	$a0, $a0, 32
	bnez	$a2, .LBB8_21
# %bb.22:                               # %middle.block
                                        #   in Loop: Header=BB8_18 Depth=1
	vadd.w	$vr0, $vr1, $vr0
	vhaddw.d.w	$vr0, $vr0, $vr0
	vhaddw.q.d	$vr0, $vr0, $vr0
	vpickve2gr.d	$a0, $vr0, 0
	move	$a3, $fp
	beq	$fp, $s0, .LBB8_25
.LBB8_23:                               # %for.body6.us96.preheader
                                        #   in Loop: Header=BB8_18 Depth=1
	alsl.d	$a2, $a3, $s1, 2
	sub.d	$a3, $s0, $a3
	.p2align	4, , 16
.LBB8_24:                               # %for.body6.us96
                                        #   Parent Loop BB8_18 Depth=1
                                        # =>  This Inner Loop Header: Depth=2
	ld.w	$a4, $a2, 0
	mul.d	$a4, $a4, $s5
	add.d	$a0, $a0, $a4
	add.d	$a0, $a0, $s6
	addi.d	$a3, $a3, -1
	addi.d	$a2, $a2, 4
	bnez	$a3, .LBB8_24
.LBB8_25:                               # %for.cond4.for.end9_crit_edge.us106
                                        #   in Loop: Header=BB8_18 Depth=1
	fld.d	$fa0, $s7, %pc_lo12(init_value)
	ftintrz.w.d	$fa0, $fa0
	movfr2gr.s	$a2, $fa0
	mul.d	$a2, $a2, $s8
	add.w	$a2, $a2, $s3
	addi.w	$a0, $a0, 0
	beq	$a0, $a2, .LBB8_17
# %bb.26:                               # %if.then.i.us91
                                        #   in Loop: Header=BB8_18 Depth=1
	ld.d	$a0, $sp, 96                    # 8-byte Folded Reload
	ld.w	$a1, $a0, %pc_lo12(current_test)
	move	$a0, $s2
	pcaddu18i	$ra, %call36(printf)
	jirl	$ra, $ra, 0
	vld	$vr5, $sp, 32                   # 16-byte Folded Reload
	vld	$vr4, $sp, 48                   # 16-byte Folded Reload
	ori	$a5, $zero, 8
	ld.d	$a0, $sp, 88                    # 8-byte Folded Reload
	ld.w	$a1, $a0, %pc_lo12(iterations)
	b	.LBB8_17
.LBB8_27:                               # %for.cond1.preheader.preheader
	pcalau12i	$fp, %pc_hi20(init_value)
	fld.d	$fa0, $fp, %pc_lo12(init_value)
	lu12i.w	$a0, -381906
	ori	$s1, $a0, 1088
	lu12i.w	$a0, 310020
	ori	$s2, $a0, 2560
	pcalau12i	$a0, %pc_hi20(.L.str.19)
	addi.d	$s0, $a0, %pc_lo12(.L.str.19)
	move	$s3, $zero
	b	.LBB8_29
	.p2align	4, , 16
.LBB8_28:                               # %_Z9check_sumIiEvT_.exit
                                        #   in Loop: Header=BB8_29 Depth=1
	addi.w	$s3, $s3, 1
	bge	$s3, $a1, .LBB8_31
.LBB8_29:                               # %for.cond1.preheader
                                        # =>This Inner Loop Header: Depth=1
	ftintrz.w.d	$fa1, $fa0
	movfr2gr.s	$a0, $fa1
	mul.w	$a0, $a0, $s1
	beq	$a0, $s2, .LBB8_28
# %bb.30:                               # %if.then.i
                                        #   in Loop: Header=BB8_29 Depth=1
	ld.d	$a0, $sp, 96                    # 8-byte Folded Reload
	ld.w	$a1, $a0, %pc_lo12(current_test)
	move	$a0, $s0
	pcaddu18i	$ra, %call36(printf)
	jirl	$ra, $ra, 0
	fld.d	$fa0, $fp, %pc_lo12(init_value)
	ld.d	$a0, $sp, 88                    # 8-byte Folded Reload
	ld.w	$a1, $a0, %pc_lo12(iterations)
	b	.LBB8_28
.LBB8_31:                               # %for.end12
	pcaddu18i	$ra, %call36(clock)
	jirl	$ra, $ra, 0
	ld.d	$a1, $sp, 24                    # 8-byte Folded Reload
	ld.d	$fp, $a1, %pc_lo12(start_time)
	pcalau12i	$s2, %pc_hi20(results)
	ld.d	$a2, $s2, %pc_lo12(results)
	pcalau12i	$s1, %pc_hi20(allocated_results)
	ld.w	$a1, $s1, %pc_lo12(allocated_results)
	move	$s0, $a0
	pcalau12i	$a0, %pc_hi20(end_time)
	st.d	$s0, $a0, %pc_lo12(end_time)
	ld.d	$s3, $sp, 96                    # 8-byte Folded Reload
	beqz	$a2, .LBB8_33
# %bb.32:                               # %for.end12
	ld.w	$a0, $s3, %pc_lo12(current_test)
	blt	$a0, $a1, .LBB8_35
.LBB8_33:                               # %if.then.i11
	addi.w	$a0, $a1, 10
	st.w	$a0, $s1, %pc_lo12(allocated_results)
	slli.d	$a1, $a0, 4
	move	$a0, $a2
	pcaddu18i	$ra, %call36(realloc)
	jirl	$ra, $ra, 0
	st.d	$a0, $s2, %pc_lo12(results)
	beqz	$a0, .LBB8_36
# %bb.34:                               # %if.then.if.end5_crit_edge.i
	move	$a2, $a0
	ld.w	$a0, $s3, %pc_lo12(current_test)
.LBB8_35:                               # %_Z13record_resultdPKc.exit
	pcalau12i	$a1, %pc_hi20(.LCPI8_0)
	fld.d	$fa0, $a1, %pc_lo12(.LCPI8_0)
	sub.d	$a1, $s0, $fp
	movgr2fr.d	$fa1, $a1
	ffint.d.l	$fa1, $fa1
	fdiv.d	$fa0, $fa1, $fa0
	alsl.d	$a1, $a0, $a2, 4
	slli.d	$a3, $a0, 4
	fstx.d	$fa0, $a2, $a3
	ld.d	$a2, $sp, 16                    # 8-byte Folded Reload
	st.d	$a2, $a1, 8
	addi.d	$a0, $a0, 1
	st.w	$a0, $s3, %pc_lo12(current_test)
	ld.d	$s8, $sp, 104                   # 8-byte Folded Reload
	ld.d	$s7, $sp, 112                   # 8-byte Folded Reload
	ld.d	$s6, $sp, 120                   # 8-byte Folded Reload
	ld.d	$s5, $sp, 128                   # 8-byte Folded Reload
	ld.d	$s4, $sp, 136                   # 8-byte Folded Reload
	ld.d	$s3, $sp, 144                   # 8-byte Folded Reload
	ld.d	$s2, $sp, 152                   # 8-byte Folded Reload
	ld.d	$s1, $sp, 160                   # 8-byte Folded Reload
	ld.d	$s0, $sp, 168                   # 8-byte Folded Reload
	ld.d	$fp, $sp, 176                   # 8-byte Folded Reload
	ld.d	$ra, $sp, 184                   # 8-byte Folded Reload
	addi.d	$sp, $sp, 192
	ret
.LBB8_36:                               # %if.then3.i
	ld.w	$a1, $s1, %pc_lo12(allocated_results)
	pcalau12i	$a0, %pc_hi20(.L.str)
	addi.d	$a0, $a0, %pc_lo12(.L.str)
	pcaddu18i	$ra, %call36(printf)
	jirl	$ra, $ra, 0
	addi.w	$a0, $zero, -1
	pcaddu18i	$ra, %call36(exit)
	jirl	$ra, $ra, 0
.Lfunc_end8:
	.size	_Z27test_for_loop_unroll_factorILi30EiEvPKT0_iPKc, .Lfunc_end8-_Z27test_for_loop_unroll_factorILi30EiEvPKT0_iPKc
	.cfi_endproc
                                        # -- End function
	.section	.text._ZN14for_loop_testsILi28EiE7do_testEPKiPKc,"axG",@progbits,_ZN14for_loop_testsILi28EiE7do_testEPKiPKc,comdat
	.weak	_ZN14for_loop_testsILi28EiE7do_testEPKiPKc # -- Begin function _ZN14for_loop_testsILi28EiE7do_testEPKiPKc
	.p2align	5
	.type	_ZN14for_loop_testsILi28EiE7do_testEPKiPKc,@function
_ZN14for_loop_testsILi28EiE7do_testEPKiPKc: # @_ZN14for_loop_testsILi28EiE7do_testEPKiPKc
	.cfi_startproc
# %bb.0:                                # %entry
	addi.d	$sp, $sp, -32
	.cfi_def_cfa_offset 32
	st.d	$ra, $sp, 24                    # 8-byte Folded Spill
	st.d	$fp, $sp, 16                    # 8-byte Folded Spill
	st.d	$s0, $sp, 8                     # 8-byte Folded Spill
	st.d	$s1, $sp, 0                     # 8-byte Folded Spill
	.cfi_offset 1, -8
	.cfi_offset 22, -16
	.cfi_offset 23, -24
	.cfi_offset 24, -32
	move	$fp, $a0
	pcaddu18i	$ra, %call36(_ZN14for_loop_testsILi19EiE7do_testEPKiPKc)
	jirl	$ra, $ra, 0
	pcalau12i	$a0, %pc_hi20(temp_string)
	addi.d	$s1, $a0, %pc_lo12(temp_string)
	addi.d	$a2, $s1, 1900
	lu12i.w	$a0, 1
	ori	$s0, $a0, 3904
	move	$a0, $fp
	move	$a1, $s0
	pcaddu18i	$ra, %call36(_Z27test_for_loop_unroll_factorILi20EiEvPKT0_iPKc)
	jirl	$ra, $ra, 0
	addi.d	$a2, $s1, 2000
	move	$a0, $fp
	move	$a1, $s0
	pcaddu18i	$ra, %call36(_Z27test_for_loop_unroll_factorILi21EiEvPKT0_iPKc)
	jirl	$ra, $ra, 0
	addi.d	$s1, $s1, 2047
	addi.d	$a2, $s1, 53
	move	$a0, $fp
	move	$a1, $s0
	pcaddu18i	$ra, %call36(_Z27test_for_loop_unroll_factorILi22EiEvPKT0_iPKc)
	jirl	$ra, $ra, 0
	addi.d	$a2, $s1, 153
	move	$a0, $fp
	move	$a1, $s0
	pcaddu18i	$ra, %call36(_Z27test_for_loop_unroll_factorILi23EiEvPKT0_iPKc)
	jirl	$ra, $ra, 0
	addi.d	$a2, $s1, 253
	move	$a0, $fp
	move	$a1, $s0
	pcaddu18i	$ra, %call36(_Z27test_for_loop_unroll_factorILi24EiEvPKT0_iPKc)
	jirl	$ra, $ra, 0
	addi.d	$a2, $s1, 353
	move	$a0, $fp
	move	$a1, $s0
	pcaddu18i	$ra, %call36(_Z27test_for_loop_unroll_factorILi25EiEvPKT0_iPKc)
	jirl	$ra, $ra, 0
	addi.d	$a2, $s1, 453
	move	$a0, $fp
	move	$a1, $s0
	pcaddu18i	$ra, %call36(_Z27test_for_loop_unroll_factorILi26EiEvPKT0_iPKc)
	jirl	$ra, $ra, 0
	addi.d	$a2, $s1, 553
	move	$a0, $fp
	move	$a1, $s0
	pcaddu18i	$ra, %call36(_Z27test_for_loop_unroll_factorILi27EiEvPKT0_iPKc)
	jirl	$ra, $ra, 0
	addi.d	$a2, $s1, 653
	move	$a0, $fp
	move	$a1, $s0
	ld.d	$s1, $sp, 0                     # 8-byte Folded Reload
	ld.d	$s0, $sp, 8                     # 8-byte Folded Reload
	ld.d	$fp, $sp, 16                    # 8-byte Folded Reload
	ld.d	$ra, $sp, 24                    # 8-byte Folded Reload
	addi.d	$sp, $sp, 32
	pcaddu18i	$t8, %call36(_Z27test_for_loop_unroll_factorILi28EiEvPKT0_iPKc)
	jr	$t8
.Lfunc_end9:
	.size	_ZN14for_loop_testsILi28EiE7do_testEPKiPKc, .Lfunc_end9-_ZN14for_loop_testsILi28EiE7do_testEPKiPKc
	.cfi_endproc
                                        # -- End function
	.section	.rodata.cst8,"aM",@progbits,8
	.p2align	3, 0x0                          # -- Begin function _Z27test_for_loop_unroll_factorILi29EiEvPKT0_iPKc
.LCPI10_0:
	.dword	0x412e848000000000              # double 1.0E+6
	.section	.text._Z27test_for_loop_unroll_factorILi29EiEvPKT0_iPKc,"axG",@progbits,_Z27test_for_loop_unroll_factorILi29EiEvPKT0_iPKc,comdat
	.weak	_Z27test_for_loop_unroll_factorILi29EiEvPKT0_iPKc
	.p2align	5
	.type	_Z27test_for_loop_unroll_factorILi29EiEvPKT0_iPKc,@function
_Z27test_for_loop_unroll_factorILi29EiEvPKT0_iPKc: # @_Z27test_for_loop_unroll_factorILi29EiEvPKT0_iPKc
	.cfi_startproc
# %bb.0:                                # %entry
	addi.d	$sp, $sp, -192
	.cfi_def_cfa_offset 192
	st.d	$ra, $sp, 184                   # 8-byte Folded Spill
	st.d	$fp, $sp, 176                   # 8-byte Folded Spill
	st.d	$s0, $sp, 168                   # 8-byte Folded Spill
	st.d	$s1, $sp, 160                   # 8-byte Folded Spill
	st.d	$s2, $sp, 152                   # 8-byte Folded Spill
	st.d	$s3, $sp, 144                   # 8-byte Folded Spill
	st.d	$s4, $sp, 136                   # 8-byte Folded Spill
	st.d	$s5, $sp, 128                   # 8-byte Folded Spill
	st.d	$s6, $sp, 120                   # 8-byte Folded Spill
	st.d	$s7, $sp, 112                   # 8-byte Folded Spill
	st.d	$s8, $sp, 104                   # 8-byte Folded Spill
	.cfi_offset 1, -8
	.cfi_offset 22, -16
	.cfi_offset 23, -24
	.cfi_offset 24, -32
	.cfi_offset 25, -40
	.cfi_offset 26, -48
	.cfi_offset 27, -56
	.cfi_offset 28, -64
	.cfi_offset 29, -72
	.cfi_offset 30, -80
	.cfi_offset 31, -88
	st.d	$a2, $sp, 16                    # 8-byte Folded Spill
	move	$s0, $a1
	move	$s1, $a0
	pcaddu18i	$ra, %call36(clock)
	jirl	$ra, $ra, 0
	pcalau12i	$a1, %pc_hi20(iterations)
	st.d	$a1, $sp, 88                    # 8-byte Folded Spill
	ld.w	$a1, $a1, %pc_lo12(iterations)
	pcalau12i	$a2, %pc_hi20(start_time)
	st.d	$a2, $sp, 24                    # 8-byte Folded Spill
	st.d	$a0, $a2, %pc_lo12(start_time)
	pcalau12i	$a0, %pc_hi20(current_test)
	st.d	$a0, $sp, 96                    # 8-byte Folded Spill
	blez	$a1, .LBB10_31
# %bb.1:                                # %for.cond1.preheader.lr.ph
	ori	$a0, $zero, 29
	blt	$s0, $a0, .LBB10_15
# %bb.2:                                # %for.cond1.preheader.us.preheader
	addi.d	$a2, $s0, -28
	bstrpick.d	$s2, $a2, 31, 0
	sltu	$a2, $a0, $s2
	masknez	$a3, $a0, $a2
	maskeqz	$a2, $s2, $a2
	or	$a2, $a2, $a3
	addi.d	$a2, $a2, -1
	lu12i.w	$a3, -361578
	ori	$a3, $a3, 283
	lu32i.d	$a3, -289263
	lu52i.d	$a3, $a3, 423
	mulh.du	$a3, $a2, $a3
	sub.d	$a2, $a2, $a3
	srli.d	$a2, $a2, 1
	add.d	$a2, $a2, $a3
	srli.d	$a2, $a2, 4
	mul.d	$a0, $a2, $a0
	addi.d	$a2, $a0, 30
	sltu	$a3, $s0, $a2
	maskeqz	$a2, $a2, $a3
	masknez	$a3, $s0, $a3
	or	$a2, $a2, $a3
	sub.d	$a0, $a2, $a0
	addi.d	$s8, $a0, -29
	move	$s7, $zero
	st.d	$s8, $sp, 64                    # 8-byte Folded Spill
	bstrins.d	$s8, $zero, 2, 0
	st.d	$s8, $sp, 48                    # 8-byte Folded Spill
	addi.d	$s8, $s1, 132
	lu12i.w	$a0, 65881
	ori	$s4, $a0, 1957
	lu12i.w	$a0, 329177
	ori	$fp, $a0, 2520
	lu12i.w	$a0, -277912
	ori	$s3, $a0, 2488
	vrepli.b	$vr0, 0
	vst	$vr0, $sp, 32                   # 16-byte Folded Spill
	lu12i.w	$a0, -381906
	ori	$s5, $a0, 1088
	lu12i.w	$a0, -310021
	ori	$s6, $a0, 1536
	b	.LBB10_4
	.p2align	4, , 16
.LBB10_3:                               # %_Z9check_sumIiEvT_.exit.us
                                        #   in Loop: Header=BB10_4 Depth=1
	addi.w	$s7, $s7, 1
	bge	$s7, $a1, .LBB10_31
.LBB10_4:                               # %for.cond1.preheader.us
                                        # =>This Loop Header: Depth=1
                                        #     Child Loop BB10_5 Depth 2
                                        #     Child Loop BB10_9 Depth 2
                                        #     Child Loop BB10_12 Depth 2
	move	$a2, $zero
	move	$a0, $zero
	ori	$a3, $zero, 29
	move	$a4, $s8
	.p2align	4, , 16
.LBB10_5:                               # %for.body3.us
                                        #   Parent Loop BB10_4 Depth=1
                                        # =>  This Inner Loop Header: Depth=2
	alsl.d	$a5, $a2, $s1, 2
	slli.d	$a6, $a2, 2
	ldx.w	$a6, $s1, $a6
	ld.w	$a7, $a5, 4
	ld.w	$t0, $a5, 8
	ld.w	$t1, $a5, 12
	add.d	$a6, $a7, $a6
	ld.w	$a7, $a5, 16
	add.d	$a6, $a6, $t0
	ld.w	$t0, $a5, 20
	add.d	$a6, $a6, $t1
	ld.w	$t1, $a5, 24
	add.d	$a6, $a6, $a7
	ld.w	$a7, $a5, 28
	add.d	$a6, $a6, $t0
	ld.w	$t0, $a5, 32
	add.d	$a6, $a6, $t1
	ld.w	$t1, $a5, 36
	add.d	$a6, $a6, $a7
	ld.w	$a7, $a5, 40
	add.d	$a6, $a6, $t0
	ld.w	$t0, $a5, 44
	add.d	$a6, $a6, $t1
	ld.w	$t1, $a5, 48
	add.d	$a6, $a6, $a7
	ld.w	$a7, $a5, 52
	add.d	$a6, $a6, $t0
	ld.w	$t0, $a5, 56
	add.d	$a6, $a6, $t1
	ld.w	$t1, $a5, 60
	add.d	$a6, $a6, $a7
	ld.w	$a7, $a5, 64
	add.d	$a6, $a6, $t0
	ld.w	$t0, $a5, 68
	add.d	$a6, $a6, $t1
	ld.w	$t1, $a5, 72
	add.d	$a6, $a6, $a7
	ld.w	$a7, $a5, 76
	add.d	$a6, $a6, $t0
	ld.w	$t0, $a5, 80
	add.d	$a6, $a6, $t1
	ld.w	$t1, $a5, 84
	add.d	$a6, $a6, $a7
	ld.w	$a7, $a5, 88
	add.d	$a6, $a6, $t0
	ld.w	$t0, $a5, 92
	add.d	$a6, $a6, $t1
	ld.w	$t1, $a5, 96
	add.d	$a6, $a6, $a7
	ld.w	$a7, $a5, 100
	add.d	$a6, $a6, $t0
	ld.w	$t0, $a5, 104
	add.d	$a6, $a6, $t1
	ld.w	$t1, $a5, 108
	ld.w	$t2, $a5, 112
	add.d	$a5, $a6, $a7
	add.d	$a5, $a5, $t0
	add.d	$a7, $a5, $t1
	move	$a5, $a3
	move	$a6, $a4
	add.d	$a3, $a7, $t2
	mul.d	$a3, $a3, $s4
	add.d	$a0, $a0, $a3
	add.d	$a0, $a0, $fp
	addi.d	$a2, $a2, 29
	addi.d	$a3, $a5, 29
	addi.d	$a4, $a4, 116
	bltu	$a2, $s2, .LBB10_5
# %bb.6:                                # %for.cond1.for.cond4.preheader_crit_edge.us
                                        #   in Loop: Header=BB10_4 Depth=1
	addi.w	$a2, $a2, 0
	bge	$a2, $s0, .LBB10_13
# %bb.7:                                # %for.body6.us.preheader
                                        #   in Loop: Header=BB10_4 Depth=1
	ld.d	$a2, $sp, 64                    # 8-byte Folded Reload
	ori	$a3, $zero, 8
	bltu	$a2, $a3, .LBB10_11
# %bb.8:                                # %vector.ph130
                                        #   in Loop: Header=BB10_4 Depth=1
	ld.d	$a2, $sp, 48                    # 8-byte Folded Reload
	add.d	$a5, $a5, $a2
	vld	$vr1, $sp, 32                   # 16-byte Folded Reload
	vori.b	$vr0, $vr1, 0
	vinsgr2vr.w	$vr0, $a0, 0
	move	$a0, $a2
	.p2align	4, , 16
.LBB10_9:                               # %vector.body133
                                        #   Parent Loop BB10_4 Depth=1
                                        # =>  This Inner Loop Header: Depth=2
	vld	$vr2, $a6, -16
	vld	$vr3, $a6, 0
	vreplgr2vr.w	$vr4, $s4
	vmadd.w	$vr0, $vr2, $vr4
	vreplgr2vr.w	$vr2, $s3
	vmadd.w	$vr1, $vr3, $vr4
	vadd.w	$vr0, $vr0, $vr2
	vadd.w	$vr1, $vr1, $vr2
	addi.d	$a0, $a0, -8
	addi.d	$a6, $a6, 32
	bnez	$a0, .LBB10_9
# %bb.10:                               # %middle.block140
                                        #   in Loop: Header=BB10_4 Depth=1
	vadd.w	$vr0, $vr1, $vr0
	vhaddw.d.w	$vr0, $vr0, $vr0
	vhaddw.q.d	$vr0, $vr0, $vr0
	vpickve2gr.d	$a0, $vr0, 0
	ld.d	$a2, $sp, 64                    # 8-byte Folded Reload
	ld.d	$a3, $sp, 48                    # 8-byte Folded Reload
	beq	$a2, $a3, .LBB10_13
.LBB10_11:                              # %for.body6.us.preheader145
                                        #   in Loop: Header=BB10_4 Depth=1
	alsl.d	$a2, $a5, $s1, 2
	.p2align	4, , 16
.LBB10_12:                              # %for.body6.us
                                        #   Parent Loop BB10_4 Depth=1
                                        # =>  This Inner Loop Header: Depth=2
	ld.w	$a3, $a2, 0
	mul.d	$a3, $a3, $s4
	add.d	$a0, $a0, $a3
	add.d	$a0, $a0, $s3
	addi.d	$a5, $a5, 1
	addi.d	$a2, $a2, 4
	bltu	$a5, $s0, .LBB10_12
.LBB10_13:                              # %for.end9.us
                                        #   in Loop: Header=BB10_4 Depth=1
	pcalau12i	$a2, %pc_hi20(init_value)
	fld.d	$fa0, $a2, %pc_lo12(init_value)
	ftintrz.w.d	$fa0, $fa0
	movfr2gr.s	$a2, $fa0
	mul.d	$a2, $a2, $s5
	add.w	$a2, $a2, $s6
	addi.w	$a0, $a0, 0
	beq	$a0, $a2, .LBB10_3
# %bb.14:                               # %if.then.i.us
                                        #   in Loop: Header=BB10_4 Depth=1
	ld.d	$a0, $sp, 96                    # 8-byte Folded Reload
	ld.w	$a1, $a0, %pc_lo12(current_test)
	pcalau12i	$a0, %pc_hi20(.L.str.19)
	addi.d	$a0, $a0, %pc_lo12(.L.str.19)
	pcaddu18i	$ra, %call36(printf)
	jirl	$ra, $ra, 0
	ld.d	$a0, $sp, 88                    # 8-byte Folded Reload
	ld.w	$a1, $a0, %pc_lo12(iterations)
	b	.LBB10_3
.LBB10_15:                              # %for.cond1.preheader.lr.ph.split
	blez	$s0, .LBB10_27
# %bb.16:                               # %for.cond1.preheader.us80.preheader
	bstrpick.d	$a0, $s0, 30, 3
	slli.d	$fp, $a0, 3
	ori	$a5, $zero, 8
	lu12i.w	$a0, 65881
	ori	$s5, $a0, 1957
	lu12i.w	$a0, -277912
	ori	$s6, $a0, 2488
	pcalau12i	$s7, %pc_hi20(init_value)
	lu12i.w	$a0, -381906
	ori	$s8, $a0, 1088
	lu12i.w	$a0, -310021
	ori	$s3, $a0, 1536
	pcalau12i	$a0, %pc_hi20(.L.str.19)
	addi.d	$s2, $a0, %pc_lo12(.L.str.19)
	move	$s4, $zero
	vrepli.b	$vr0, 0
	vst	$vr0, $sp, 64                   # 16-byte Folded Spill
	vreplgr2vr.w	$vr4, $s5
	vreplgr2vr.w	$vr5, $s6
	vst	$vr4, $sp, 48                   # 16-byte Folded Spill
	vst	$vr5, $sp, 32                   # 16-byte Folded Spill
	b	.LBB10_18
	.p2align	4, , 16
.LBB10_17:                              # %_Z9check_sumIiEvT_.exit.us89
                                        #   in Loop: Header=BB10_18 Depth=1
	addi.w	$s4, $s4, 1
	bge	$s4, $a1, .LBB10_31
.LBB10_18:                              # %for.cond1.preheader.us80
                                        # =>This Loop Header: Depth=1
                                        #     Child Loop BB10_21 Depth 2
                                        #     Child Loop BB10_24 Depth 2
	bgeu	$s0, $a5, .LBB10_20
# %bb.19:                               #   in Loop: Header=BB10_18 Depth=1
	move	$a3, $zero
	move	$a0, $zero
	b	.LBB10_23
	.p2align	4, , 16
.LBB10_20:                              # %vector.body.preheader
                                        #   in Loop: Header=BB10_18 Depth=1
	addi.d	$a0, $s1, 16
	move	$a2, $fp
	vld	$vr1, $sp, 64                   # 16-byte Folded Reload
	vori.b	$vr0, $vr1, 0
	.p2align	4, , 16
.LBB10_21:                              # %vector.body
                                        #   Parent Loop BB10_18 Depth=1
                                        # =>  This Inner Loop Header: Depth=2
	vld	$vr2, $a0, -16
	vld	$vr3, $a0, 0
	vmadd.w	$vr0, $vr2, $vr4
	vmadd.w	$vr1, $vr3, $vr4
	vadd.w	$vr0, $vr0, $vr5
	vadd.w	$vr1, $vr1, $vr5
	addi.d	$a2, $a2, -8
	addi.d	$a0, $a0, 32
	bnez	$a2, .LBB10_21
# %bb.22:                               # %middle.block
                                        #   in Loop: Header=BB10_18 Depth=1
	vadd.w	$vr0, $vr1, $vr0
	vhaddw.d.w	$vr0, $vr0, $vr0
	vhaddw.q.d	$vr0, $vr0, $vr0
	vpickve2gr.d	$a0, $vr0, 0
	move	$a3, $fp
	beq	$fp, $s0, .LBB10_25
.LBB10_23:                              # %for.body6.us92.preheader
                                        #   in Loop: Header=BB10_18 Depth=1
	alsl.d	$a2, $a3, $s1, 2
	sub.d	$a3, $s0, $a3
	.p2align	4, , 16
.LBB10_24:                              # %for.body6.us92
                                        #   Parent Loop BB10_18 Depth=1
                                        # =>  This Inner Loop Header: Depth=2
	ld.w	$a4, $a2, 0
	mul.d	$a4, $a4, $s5
	add.d	$a0, $a0, $a4
	add.d	$a0, $a0, $s6
	addi.d	$a3, $a3, -1
	addi.d	$a2, $a2, 4
	bnez	$a3, .LBB10_24
.LBB10_25:                              # %for.cond4.for.end9_crit_edge.us102
                                        #   in Loop: Header=BB10_18 Depth=1
	fld.d	$fa0, $s7, %pc_lo12(init_value)
	ftintrz.w.d	$fa0, $fa0
	movfr2gr.s	$a2, $fa0
	mul.d	$a2, $a2, $s8
	add.w	$a2, $a2, $s3
	addi.w	$a0, $a0, 0
	beq	$a0, $a2, .LBB10_17
# %bb.26:                               # %if.then.i.us87
                                        #   in Loop: Header=BB10_18 Depth=1
	ld.d	$a0, $sp, 96                    # 8-byte Folded Reload
	ld.w	$a1, $a0, %pc_lo12(current_test)
	move	$a0, $s2
	pcaddu18i	$ra, %call36(printf)
	jirl	$ra, $ra, 0
	vld	$vr5, $sp, 32                   # 16-byte Folded Reload
	vld	$vr4, $sp, 48                   # 16-byte Folded Reload
	ori	$a5, $zero, 8
	ld.d	$a0, $sp, 88                    # 8-byte Folded Reload
	ld.w	$a1, $a0, %pc_lo12(iterations)
	b	.LBB10_17
.LBB10_27:                              # %for.cond1.preheader.preheader
	pcalau12i	$fp, %pc_hi20(init_value)
	fld.d	$fa0, $fp, %pc_lo12(init_value)
	lu12i.w	$a0, -381906
	ori	$s1, $a0, 1088
	lu12i.w	$a0, 310020
	ori	$s2, $a0, 2560
	pcalau12i	$a0, %pc_hi20(.L.str.19)
	addi.d	$s0, $a0, %pc_lo12(.L.str.19)
	move	$s3, $zero
	b	.LBB10_29
	.p2align	4, , 16
.LBB10_28:                              # %_Z9check_sumIiEvT_.exit
                                        #   in Loop: Header=BB10_29 Depth=1
	addi.w	$s3, $s3, 1
	bge	$s3, $a1, .LBB10_31
.LBB10_29:                              # %for.cond1.preheader
                                        # =>This Inner Loop Header: Depth=1
	ftintrz.w.d	$fa1, $fa0
	movfr2gr.s	$a0, $fa1
	mul.w	$a0, $a0, $s1
	beq	$a0, $s2, .LBB10_28
# %bb.30:                               # %if.then.i
                                        #   in Loop: Header=BB10_29 Depth=1
	ld.d	$a0, $sp, 96                    # 8-byte Folded Reload
	ld.w	$a1, $a0, %pc_lo12(current_test)
	move	$a0, $s0
	pcaddu18i	$ra, %call36(printf)
	jirl	$ra, $ra, 0
	fld.d	$fa0, $fp, %pc_lo12(init_value)
	ld.d	$a0, $sp, 88                    # 8-byte Folded Reload
	ld.w	$a1, $a0, %pc_lo12(iterations)
	b	.LBB10_28
.LBB10_31:                              # %for.end12
	pcaddu18i	$ra, %call36(clock)
	jirl	$ra, $ra, 0
	ld.d	$a1, $sp, 24                    # 8-byte Folded Reload
	ld.d	$fp, $a1, %pc_lo12(start_time)
	pcalau12i	$s2, %pc_hi20(results)
	ld.d	$a2, $s2, %pc_lo12(results)
	pcalau12i	$s1, %pc_hi20(allocated_results)
	ld.w	$a1, $s1, %pc_lo12(allocated_results)
	move	$s0, $a0
	pcalau12i	$a0, %pc_hi20(end_time)
	st.d	$s0, $a0, %pc_lo12(end_time)
	ld.d	$s3, $sp, 96                    # 8-byte Folded Reload
	beqz	$a2, .LBB10_33
# %bb.32:                               # %for.end12
	ld.w	$a0, $s3, %pc_lo12(current_test)
	blt	$a0, $a1, .LBB10_35
.LBB10_33:                              # %if.then.i11
	addi.w	$a0, $a1, 10
	st.w	$a0, $s1, %pc_lo12(allocated_results)
	slli.d	$a1, $a0, 4
	move	$a0, $a2
	pcaddu18i	$ra, %call36(realloc)
	jirl	$ra, $ra, 0
	st.d	$a0, $s2, %pc_lo12(results)
	beqz	$a0, .LBB10_36
# %bb.34:                               # %if.then.if.end5_crit_edge.i
	move	$a2, $a0
	ld.w	$a0, $s3, %pc_lo12(current_test)
.LBB10_35:                              # %_Z13record_resultdPKc.exit
	pcalau12i	$a1, %pc_hi20(.LCPI10_0)
	fld.d	$fa0, $a1, %pc_lo12(.LCPI10_0)
	sub.d	$a1, $s0, $fp
	movgr2fr.d	$fa1, $a1
	ffint.d.l	$fa1, $fa1
	fdiv.d	$fa0, $fa1, $fa0
	alsl.d	$a1, $a0, $a2, 4
	slli.d	$a3, $a0, 4
	fstx.d	$fa0, $a2, $a3
	ld.d	$a2, $sp, 16                    # 8-byte Folded Reload
	st.d	$a2, $a1, 8
	addi.d	$a0, $a0, 1
	st.w	$a0, $s3, %pc_lo12(current_test)
	ld.d	$s8, $sp, 104                   # 8-byte Folded Reload
	ld.d	$s7, $sp, 112                   # 8-byte Folded Reload
	ld.d	$s6, $sp, 120                   # 8-byte Folded Reload
	ld.d	$s5, $sp, 128                   # 8-byte Folded Reload
	ld.d	$s4, $sp, 136                   # 8-byte Folded Reload
	ld.d	$s3, $sp, 144                   # 8-byte Folded Reload
	ld.d	$s2, $sp, 152                   # 8-byte Folded Reload
	ld.d	$s1, $sp, 160                   # 8-byte Folded Reload
	ld.d	$s0, $sp, 168                   # 8-byte Folded Reload
	ld.d	$fp, $sp, 176                   # 8-byte Folded Reload
	ld.d	$ra, $sp, 184                   # 8-byte Folded Reload
	addi.d	$sp, $sp, 192
	ret
.LBB10_36:                              # %if.then3.i
	ld.w	$a1, $s1, %pc_lo12(allocated_results)
	pcalau12i	$a0, %pc_hi20(.L.str)
	addi.d	$a0, $a0, %pc_lo12(.L.str)
	pcaddu18i	$ra, %call36(printf)
	jirl	$ra, $ra, 0
	addi.w	$a0, $zero, -1
	pcaddu18i	$ra, %call36(exit)
	jirl	$ra, $ra, 0
.Lfunc_end10:
	.size	_Z27test_for_loop_unroll_factorILi29EiEvPKT0_iPKc, .Lfunc_end10-_Z27test_for_loop_unroll_factorILi29EiEvPKT0_iPKc
	.cfi_endproc
                                        # -- End function
	.section	.rodata.cst8,"aM",@progbits,8
	.p2align	3, 0x0                          # -- Begin function _Z27test_for_loop_unroll_factorILi28EiEvPKT0_iPKc
.LCPI11_0:
	.dword	0x412e848000000000              # double 1.0E+6
	.section	.text._Z27test_for_loop_unroll_factorILi28EiEvPKT0_iPKc,"axG",@progbits,_Z27test_for_loop_unroll_factorILi28EiEvPKT0_iPKc,comdat
	.weak	_Z27test_for_loop_unroll_factorILi28EiEvPKT0_iPKc
	.p2align	5
	.type	_Z27test_for_loop_unroll_factorILi28EiEvPKT0_iPKc,@function
_Z27test_for_loop_unroll_factorILi28EiEvPKT0_iPKc: # @_Z27test_for_loop_unroll_factorILi28EiEvPKT0_iPKc
	.cfi_startproc
# %bb.0:                                # %entry
	addi.d	$sp, $sp, -192
	.cfi_def_cfa_offset 192
	st.d	$ra, $sp, 184                   # 8-byte Folded Spill
	st.d	$fp, $sp, 176                   # 8-byte Folded Spill
	st.d	$s0, $sp, 168                   # 8-byte Folded Spill
	st.d	$s1, $sp, 160                   # 8-byte Folded Spill
	st.d	$s2, $sp, 152                   # 8-byte Folded Spill
	st.d	$s3, $sp, 144                   # 8-byte Folded Spill
	st.d	$s4, $sp, 136                   # 8-byte Folded Spill
	st.d	$s5, $sp, 128                   # 8-byte Folded Spill
	st.d	$s6, $sp, 120                   # 8-byte Folded Spill
	st.d	$s7, $sp, 112                   # 8-byte Folded Spill
	st.d	$s8, $sp, 104                   # 8-byte Folded Spill
	.cfi_offset 1, -8
	.cfi_offset 22, -16
	.cfi_offset 23, -24
	.cfi_offset 24, -32
	.cfi_offset 25, -40
	.cfi_offset 26, -48
	.cfi_offset 27, -56
	.cfi_offset 28, -64
	.cfi_offset 29, -72
	.cfi_offset 30, -80
	.cfi_offset 31, -88
	st.d	$a2, $sp, 16                    # 8-byte Folded Spill
	move	$s0, $a1
	move	$s1, $a0
	pcaddu18i	$ra, %call36(clock)
	jirl	$ra, $ra, 0
	pcalau12i	$a1, %pc_hi20(iterations)
	st.d	$a1, $sp, 88                    # 8-byte Folded Spill
	ld.w	$a1, $a1, %pc_lo12(iterations)
	pcalau12i	$a2, %pc_hi20(start_time)
	st.d	$a2, $sp, 24                    # 8-byte Folded Spill
	st.d	$a0, $a2, %pc_lo12(start_time)
	pcalau12i	$a0, %pc_hi20(current_test)
	st.d	$a0, $sp, 96                    # 8-byte Folded Spill
	blez	$a1, .LBB11_31
# %bb.1:                                # %for.cond1.preheader.lr.ph
	ori	$a0, $zero, 28
	blt	$s0, $a0, .LBB11_15
# %bb.2:                                # %for.cond1.preheader.us.preheader
	addi.d	$a2, $s0, -27
	bstrpick.d	$s2, $a2, 31, 0
	sltu	$a2, $a0, $s2
	masknez	$a3, $a0, $a2
	maskeqz	$a2, $s2, $a2
	or	$a2, $a2, $a3
	addi.d	$a2, $a2, -1
	srli.d	$a2, $a2, 2
	lu12i.w	$a3, 149796
	ori	$a3, $a3, 2341
	lu32i.d	$a3, 299593
	lu52i.d	$a3, $a3, 1170
	mulh.du	$a2, $a2, $a3
	srli.d	$a2, $a2, 1
	mul.d	$a0, $a2, $a0
	addi.d	$a2, $a0, 29
	sltu	$a3, $s0, $a2
	maskeqz	$a2, $a2, $a3
	masknez	$a3, $s0, $a3
	or	$a2, $a2, $a3
	sub.d	$a0, $a2, $a0
	addi.d	$s8, $a0, -28
	move	$s7, $zero
	st.d	$s8, $sp, 64                    # 8-byte Folded Spill
	bstrins.d	$s8, $zero, 2, 0
	st.d	$s8, $sp, 48                    # 8-byte Folded Spill
	addi.d	$s8, $s1, 128
	lu12i.w	$a0, 65881
	ori	$s4, $a0, 1957
	lu12i.w	$a0, -441487
	ori	$fp, $a0, 32
	lu12i.w	$a0, -277912
	ori	$s3, $a0, 2488
	vrepli.b	$vr0, 0
	vst	$vr0, $sp, 32                   # 16-byte Folded Spill
	lu12i.w	$a0, -381906
	ori	$s5, $a0, 1088
	lu12i.w	$a0, -310021
	ori	$s6, $a0, 1536
	b	.LBB11_4
	.p2align	4, , 16
.LBB11_3:                               # %_Z9check_sumIiEvT_.exit.us
                                        #   in Loop: Header=BB11_4 Depth=1
	addi.w	$s7, $s7, 1
	bge	$s7, $a1, .LBB11_31
.LBB11_4:                               # %for.cond1.preheader.us
                                        # =>This Loop Header: Depth=1
                                        #     Child Loop BB11_5 Depth 2
                                        #     Child Loop BB11_9 Depth 2
                                        #     Child Loop BB11_12 Depth 2
	move	$a2, $zero
	move	$a0, $zero
	ori	$a3, $zero, 28
	move	$a4, $s8
	.p2align	4, , 16
.LBB11_5:                               # %for.body3.us
                                        #   Parent Loop BB11_4 Depth=1
                                        # =>  This Inner Loop Header: Depth=2
	alsl.d	$a5, $a2, $s1, 2
	slli.d	$a6, $a2, 2
	ldx.w	$a6, $s1, $a6
	ld.w	$a7, $a5, 4
	ld.w	$t0, $a5, 8
	ld.w	$t1, $a5, 12
	add.d	$a6, $a7, $a6
	ld.w	$a7, $a5, 16
	add.d	$a6, $a6, $t0
	ld.w	$t0, $a5, 20
	add.d	$a6, $a6, $t1
	ld.w	$t1, $a5, 24
	add.d	$a6, $a6, $a7
	ld.w	$a7, $a5, 28
	add.d	$a6, $a6, $t0
	ld.w	$t0, $a5, 32
	add.d	$a6, $a6, $t1
	ld.w	$t1, $a5, 36
	add.d	$a6, $a6, $a7
	ld.w	$a7, $a5, 40
	add.d	$a6, $a6, $t0
	ld.w	$t0, $a5, 44
	add.d	$a6, $a6, $t1
	ld.w	$t1, $a5, 48
	add.d	$a6, $a6, $a7
	ld.w	$a7, $a5, 52
	add.d	$a6, $a6, $t0
	ld.w	$t0, $a5, 56
	add.d	$a6, $a6, $t1
	ld.w	$t1, $a5, 60
	add.d	$a6, $a6, $a7
	ld.w	$a7, $a5, 64
	add.d	$a6, $a6, $t0
	ld.w	$t0, $a5, 68
	add.d	$a6, $a6, $t1
	ld.w	$t1, $a5, 72
	add.d	$a6, $a6, $a7
	ld.w	$a7, $a5, 76
	add.d	$a6, $a6, $t0
	ld.w	$t0, $a5, 80
	add.d	$a6, $a6, $t1
	ld.w	$t1, $a5, 84
	add.d	$a6, $a6, $a7
	ld.w	$a7, $a5, 88
	add.d	$a6, $a6, $t0
	ld.w	$t0, $a5, 92
	add.d	$a6, $a6, $t1
	ld.w	$t1, $a5, 96
	add.d	$a6, $a6, $a7
	ld.w	$a7, $a5, 100
	add.d	$a6, $a6, $t0
	ld.w	$t0, $a5, 104
	ld.w	$t2, $a5, 108
	add.d	$a5, $a6, $t1
	add.d	$a5, $a5, $a7
	add.d	$a7, $a5, $t0
	move	$a5, $a3
	move	$a6, $a4
	add.d	$a3, $a7, $t2
	mul.d	$a3, $a3, $s4
	add.d	$a0, $a0, $a3
	add.d	$a0, $a0, $fp
	addi.d	$a2, $a2, 28
	addi.d	$a3, $a5, 28
	addi.d	$a4, $a4, 112
	bltu	$a2, $s2, .LBB11_5
# %bb.6:                                # %for.cond1.for.cond4.preheader_crit_edge.us
                                        #   in Loop: Header=BB11_4 Depth=1
	addi.w	$a2, $a2, 0
	bge	$a2, $s0, .LBB11_13
# %bb.7:                                # %for.body6.us.preheader
                                        #   in Loop: Header=BB11_4 Depth=1
	ld.d	$a2, $sp, 64                    # 8-byte Folded Reload
	ori	$a3, $zero, 8
	bltu	$a2, $a3, .LBB11_11
# %bb.8:                                # %vector.ph126
                                        #   in Loop: Header=BB11_4 Depth=1
	ld.d	$a2, $sp, 48                    # 8-byte Folded Reload
	add.d	$a5, $a5, $a2
	vld	$vr1, $sp, 32                   # 16-byte Folded Reload
	vori.b	$vr0, $vr1, 0
	vinsgr2vr.w	$vr0, $a0, 0
	move	$a0, $a2
	.p2align	4, , 16
.LBB11_9:                               # %vector.body129
                                        #   Parent Loop BB11_4 Depth=1
                                        # =>  This Inner Loop Header: Depth=2
	vld	$vr2, $a6, -16
	vld	$vr3, $a6, 0
	vreplgr2vr.w	$vr4, $s4
	vmadd.w	$vr0, $vr2, $vr4
	vreplgr2vr.w	$vr2, $s3
	vmadd.w	$vr1, $vr3, $vr4
	vadd.w	$vr0, $vr0, $vr2
	vadd.w	$vr1, $vr1, $vr2
	addi.d	$a0, $a0, -8
	addi.d	$a6, $a6, 32
	bnez	$a0, .LBB11_9
# %bb.10:                               # %middle.block136
                                        #   in Loop: Header=BB11_4 Depth=1
	vadd.w	$vr0, $vr1, $vr0
	vhaddw.d.w	$vr0, $vr0, $vr0
	vhaddw.q.d	$vr0, $vr0, $vr0
	vpickve2gr.d	$a0, $vr0, 0
	ld.d	$a2, $sp, 64                    # 8-byte Folded Reload
	ld.d	$a3, $sp, 48                    # 8-byte Folded Reload
	beq	$a2, $a3, .LBB11_13
.LBB11_11:                              # %for.body6.us.preheader141
                                        #   in Loop: Header=BB11_4 Depth=1
	alsl.d	$a2, $a5, $s1, 2
	.p2align	4, , 16
.LBB11_12:                              # %for.body6.us
                                        #   Parent Loop BB11_4 Depth=1
                                        # =>  This Inner Loop Header: Depth=2
	ld.w	$a3, $a2, 0
	mul.d	$a3, $a3, $s4
	add.d	$a0, $a0, $a3
	add.d	$a0, $a0, $s3
	addi.d	$a5, $a5, 1
	addi.d	$a2, $a2, 4
	bltu	$a5, $s0, .LBB11_12
.LBB11_13:                              # %for.end9.us
                                        #   in Loop: Header=BB11_4 Depth=1
	pcalau12i	$a2, %pc_hi20(init_value)
	fld.d	$fa0, $a2, %pc_lo12(init_value)
	ftintrz.w.d	$fa0, $fa0
	movfr2gr.s	$a2, $fa0
	mul.d	$a2, $a2, $s5
	add.w	$a2, $a2, $s6
	addi.w	$a0, $a0, 0
	beq	$a0, $a2, .LBB11_3
# %bb.14:                               # %if.then.i.us
                                        #   in Loop: Header=BB11_4 Depth=1
	ld.d	$a0, $sp, 96                    # 8-byte Folded Reload
	ld.w	$a1, $a0, %pc_lo12(current_test)
	pcalau12i	$a0, %pc_hi20(.L.str.19)
	addi.d	$a0, $a0, %pc_lo12(.L.str.19)
	pcaddu18i	$ra, %call36(printf)
	jirl	$ra, $ra, 0
	ld.d	$a0, $sp, 88                    # 8-byte Folded Reload
	ld.w	$a1, $a0, %pc_lo12(iterations)
	b	.LBB11_3
.LBB11_15:                              # %for.cond1.preheader.lr.ph.split
	blez	$s0, .LBB11_27
# %bb.16:                               # %for.cond1.preheader.us76.preheader
	bstrpick.d	$a0, $s0, 30, 3
	slli.d	$fp, $a0, 3
	ori	$a5, $zero, 8
	lu12i.w	$a0, 65881
	ori	$s5, $a0, 1957
	lu12i.w	$a0, -277912
	ori	$s6, $a0, 2488
	pcalau12i	$s7, %pc_hi20(init_value)
	lu12i.w	$a0, -381906
	ori	$s8, $a0, 1088
	lu12i.w	$a0, -310021
	ori	$s3, $a0, 1536
	pcalau12i	$a0, %pc_hi20(.L.str.19)
	addi.d	$s2, $a0, %pc_lo12(.L.str.19)
	move	$s4, $zero
	vrepli.b	$vr0, 0
	vst	$vr0, $sp, 64                   # 16-byte Folded Spill
	vreplgr2vr.w	$vr4, $s5
	vreplgr2vr.w	$vr5, $s6
	vst	$vr4, $sp, 48                   # 16-byte Folded Spill
	vst	$vr5, $sp, 32                   # 16-byte Folded Spill
	b	.LBB11_18
	.p2align	4, , 16
.LBB11_17:                              # %_Z9check_sumIiEvT_.exit.us85
                                        #   in Loop: Header=BB11_18 Depth=1
	addi.w	$s4, $s4, 1
	bge	$s4, $a1, .LBB11_31
.LBB11_18:                              # %for.cond1.preheader.us76
                                        # =>This Loop Header: Depth=1
                                        #     Child Loop BB11_21 Depth 2
                                        #     Child Loop BB11_24 Depth 2
	bgeu	$s0, $a5, .LBB11_20
# %bb.19:                               #   in Loop: Header=BB11_18 Depth=1
	move	$a3, $zero
	move	$a0, $zero
	b	.LBB11_23
	.p2align	4, , 16
.LBB11_20:                              # %vector.body.preheader
                                        #   in Loop: Header=BB11_18 Depth=1
	addi.d	$a0, $s1, 16
	move	$a2, $fp
	vld	$vr1, $sp, 64                   # 16-byte Folded Reload
	vori.b	$vr0, $vr1, 0
	.p2align	4, , 16
.LBB11_21:                              # %vector.body
                                        #   Parent Loop BB11_18 Depth=1
                                        # =>  This Inner Loop Header: Depth=2
	vld	$vr2, $a0, -16
	vld	$vr3, $a0, 0
	vmadd.w	$vr0, $vr2, $vr4
	vmadd.w	$vr1, $vr3, $vr4
	vadd.w	$vr0, $vr0, $vr5
	vadd.w	$vr1, $vr1, $vr5
	addi.d	$a2, $a2, -8
	addi.d	$a0, $a0, 32
	bnez	$a2, .LBB11_21
# %bb.22:                               # %middle.block
                                        #   in Loop: Header=BB11_18 Depth=1
	vadd.w	$vr0, $vr1, $vr0
	vhaddw.d.w	$vr0, $vr0, $vr0
	vhaddw.q.d	$vr0, $vr0, $vr0
	vpickve2gr.d	$a0, $vr0, 0
	move	$a3, $fp
	beq	$fp, $s0, .LBB11_25
.LBB11_23:                              # %for.body6.us88.preheader
                                        #   in Loop: Header=BB11_18 Depth=1
	alsl.d	$a2, $a3, $s1, 2
	sub.d	$a3, $s0, $a3
	.p2align	4, , 16
.LBB11_24:                              # %for.body6.us88
                                        #   Parent Loop BB11_18 Depth=1
                                        # =>  This Inner Loop Header: Depth=2
	ld.w	$a4, $a2, 0
	mul.d	$a4, $a4, $s5
	add.d	$a0, $a0, $a4
	add.d	$a0, $a0, $s6
	addi.d	$a3, $a3, -1
	addi.d	$a2, $a2, 4
	bnez	$a3, .LBB11_24
.LBB11_25:                              # %for.cond4.for.end9_crit_edge.us98
                                        #   in Loop: Header=BB11_18 Depth=1
	fld.d	$fa0, $s7, %pc_lo12(init_value)
	ftintrz.w.d	$fa0, $fa0
	movfr2gr.s	$a2, $fa0
	mul.d	$a2, $a2, $s8
	add.w	$a2, $a2, $s3
	addi.w	$a0, $a0, 0
	beq	$a0, $a2, .LBB11_17
# %bb.26:                               # %if.then.i.us83
                                        #   in Loop: Header=BB11_18 Depth=1
	ld.d	$a0, $sp, 96                    # 8-byte Folded Reload
	ld.w	$a1, $a0, %pc_lo12(current_test)
	move	$a0, $s2
	pcaddu18i	$ra, %call36(printf)
	jirl	$ra, $ra, 0
	vld	$vr5, $sp, 32                   # 16-byte Folded Reload
	vld	$vr4, $sp, 48                   # 16-byte Folded Reload
	ori	$a5, $zero, 8
	ld.d	$a0, $sp, 88                    # 8-byte Folded Reload
	ld.w	$a1, $a0, %pc_lo12(iterations)
	b	.LBB11_17
.LBB11_27:                              # %for.cond1.preheader.preheader
	pcalau12i	$fp, %pc_hi20(init_value)
	fld.d	$fa0, $fp, %pc_lo12(init_value)
	lu12i.w	$a0, -381906
	ori	$s1, $a0, 1088
	lu12i.w	$a0, 310020
	ori	$s2, $a0, 2560
	pcalau12i	$a0, %pc_hi20(.L.str.19)
	addi.d	$s0, $a0, %pc_lo12(.L.str.19)
	move	$s3, $zero
	b	.LBB11_29
	.p2align	4, , 16
.LBB11_28:                              # %_Z9check_sumIiEvT_.exit
                                        #   in Loop: Header=BB11_29 Depth=1
	addi.w	$s3, $s3, 1
	bge	$s3, $a1, .LBB11_31
.LBB11_29:                              # %for.cond1.preheader
                                        # =>This Inner Loop Header: Depth=1
	ftintrz.w.d	$fa1, $fa0
	movfr2gr.s	$a0, $fa1
	mul.w	$a0, $a0, $s1
	beq	$a0, $s2, .LBB11_28
# %bb.30:                               # %if.then.i
                                        #   in Loop: Header=BB11_29 Depth=1
	ld.d	$a0, $sp, 96                    # 8-byte Folded Reload
	ld.w	$a1, $a0, %pc_lo12(current_test)
	move	$a0, $s0
	pcaddu18i	$ra, %call36(printf)
	jirl	$ra, $ra, 0
	fld.d	$fa0, $fp, %pc_lo12(init_value)
	ld.d	$a0, $sp, 88                    # 8-byte Folded Reload
	ld.w	$a1, $a0, %pc_lo12(iterations)
	b	.LBB11_28
.LBB11_31:                              # %for.end12
	pcaddu18i	$ra, %call36(clock)
	jirl	$ra, $ra, 0
	ld.d	$a1, $sp, 24                    # 8-byte Folded Reload
	ld.d	$fp, $a1, %pc_lo12(start_time)
	pcalau12i	$s2, %pc_hi20(results)
	ld.d	$a2, $s2, %pc_lo12(results)
	pcalau12i	$s1, %pc_hi20(allocated_results)
	ld.w	$a1, $s1, %pc_lo12(allocated_results)
	move	$s0, $a0
	pcalau12i	$a0, %pc_hi20(end_time)
	st.d	$s0, $a0, %pc_lo12(end_time)
	ld.d	$s3, $sp, 96                    # 8-byte Folded Reload
	beqz	$a2, .LBB11_33
# %bb.32:                               # %for.end12
	ld.w	$a0, $s3, %pc_lo12(current_test)
	blt	$a0, $a1, .LBB11_35
.LBB11_33:                              # %if.then.i11
	addi.w	$a0, $a1, 10
	st.w	$a0, $s1, %pc_lo12(allocated_results)
	slli.d	$a1, $a0, 4
	move	$a0, $a2
	pcaddu18i	$ra, %call36(realloc)
	jirl	$ra, $ra, 0
	st.d	$a0, $s2, %pc_lo12(results)
	beqz	$a0, .LBB11_36
# %bb.34:                               # %if.then.if.end5_crit_edge.i
	move	$a2, $a0
	ld.w	$a0, $s3, %pc_lo12(current_test)
.LBB11_35:                              # %_Z13record_resultdPKc.exit
	pcalau12i	$a1, %pc_hi20(.LCPI11_0)
	fld.d	$fa0, $a1, %pc_lo12(.LCPI11_0)
	sub.d	$a1, $s0, $fp
	movgr2fr.d	$fa1, $a1
	ffint.d.l	$fa1, $fa1
	fdiv.d	$fa0, $fa1, $fa0
	alsl.d	$a1, $a0, $a2, 4
	slli.d	$a3, $a0, 4
	fstx.d	$fa0, $a2, $a3
	ld.d	$a2, $sp, 16                    # 8-byte Folded Reload
	st.d	$a2, $a1, 8
	addi.d	$a0, $a0, 1
	st.w	$a0, $s3, %pc_lo12(current_test)
	ld.d	$s8, $sp, 104                   # 8-byte Folded Reload
	ld.d	$s7, $sp, 112                   # 8-byte Folded Reload
	ld.d	$s6, $sp, 120                   # 8-byte Folded Reload
	ld.d	$s5, $sp, 128                   # 8-byte Folded Reload
	ld.d	$s4, $sp, 136                   # 8-byte Folded Reload
	ld.d	$s3, $sp, 144                   # 8-byte Folded Reload
	ld.d	$s2, $sp, 152                   # 8-byte Folded Reload
	ld.d	$s1, $sp, 160                   # 8-byte Folded Reload
	ld.d	$s0, $sp, 168                   # 8-byte Folded Reload
	ld.d	$fp, $sp, 176                   # 8-byte Folded Reload
	ld.d	$ra, $sp, 184                   # 8-byte Folded Reload
	addi.d	$sp, $sp, 192
	ret
.LBB11_36:                              # %if.then3.i
	ld.w	$a1, $s1, %pc_lo12(allocated_results)
	pcalau12i	$a0, %pc_hi20(.L.str)
	addi.d	$a0, $a0, %pc_lo12(.L.str)
	pcaddu18i	$ra, %call36(printf)
	jirl	$ra, $ra, 0
	addi.w	$a0, $zero, -1
	pcaddu18i	$ra, %call36(exit)
	jirl	$ra, $ra, 0
.Lfunc_end11:
	.size	_Z27test_for_loop_unroll_factorILi28EiEvPKT0_iPKc, .Lfunc_end11-_Z27test_for_loop_unroll_factorILi28EiEvPKT0_iPKc
	.cfi_endproc
                                        # -- End function
	.section	.rodata.cst8,"aM",@progbits,8
	.p2align	3, 0x0                          # -- Begin function _Z27test_for_loop_unroll_factorILi27EiEvPKT0_iPKc
.LCPI12_0:
	.dword	0x412e848000000000              # double 1.0E+6
	.section	.text._Z27test_for_loop_unroll_factorILi27EiEvPKT0_iPKc,"axG",@progbits,_Z27test_for_loop_unroll_factorILi27EiEvPKT0_iPKc,comdat
	.weak	_Z27test_for_loop_unroll_factorILi27EiEvPKT0_iPKc
	.p2align	5
	.type	_Z27test_for_loop_unroll_factorILi27EiEvPKT0_iPKc,@function
_Z27test_for_loop_unroll_factorILi27EiEvPKT0_iPKc: # @_Z27test_for_loop_unroll_factorILi27EiEvPKT0_iPKc
	.cfi_startproc
# %bb.0:                                # %entry
	addi.d	$sp, $sp, -192
	.cfi_def_cfa_offset 192
	st.d	$ra, $sp, 184                   # 8-byte Folded Spill
	st.d	$fp, $sp, 176                   # 8-byte Folded Spill
	st.d	$s0, $sp, 168                   # 8-byte Folded Spill
	st.d	$s1, $sp, 160                   # 8-byte Folded Spill
	st.d	$s2, $sp, 152                   # 8-byte Folded Spill
	st.d	$s3, $sp, 144                   # 8-byte Folded Spill
	st.d	$s4, $sp, 136                   # 8-byte Folded Spill
	st.d	$s5, $sp, 128                   # 8-byte Folded Spill
	st.d	$s6, $sp, 120                   # 8-byte Folded Spill
	st.d	$s7, $sp, 112                   # 8-byte Folded Spill
	st.d	$s8, $sp, 104                   # 8-byte Folded Spill
	.cfi_offset 1, -8
	.cfi_offset 22, -16
	.cfi_offset 23, -24
	.cfi_offset 24, -32
	.cfi_offset 25, -40
	.cfi_offset 26, -48
	.cfi_offset 27, -56
	.cfi_offset 28, -64
	.cfi_offset 29, -72
	.cfi_offset 30, -80
	.cfi_offset 31, -88
	st.d	$a2, $sp, 16                    # 8-byte Folded Spill
	move	$s0, $a1
	move	$s1, $a0
	pcaddu18i	$ra, %call36(clock)
	jirl	$ra, $ra, 0
	pcalau12i	$a1, %pc_hi20(iterations)
	st.d	$a1, $sp, 88                    # 8-byte Folded Spill
	ld.w	$a1, $a1, %pc_lo12(iterations)
	pcalau12i	$a2, %pc_hi20(start_time)
	st.d	$a2, $sp, 24                    # 8-byte Folded Spill
	st.d	$a0, $a2, %pc_lo12(start_time)
	pcalau12i	$a0, %pc_hi20(current_test)
	st.d	$a0, $sp, 96                    # 8-byte Folded Spill
	blez	$a1, .LBB12_31
# %bb.1:                                # %for.cond1.preheader.lr.ph
	ori	$a0, $zero, 27
	blt	$s0, $a0, .LBB12_15
# %bb.2:                                # %for.cond1.preheader.us.preheader
	addi.d	$a2, $s0, -26
	bstrpick.d	$s2, $a2, 31, 0
	sltu	$a2, $a0, $s2
	masknez	$a3, $a0, $a2
	maskeqz	$a2, $s2, $a2
	or	$a2, $a2, $a3
	addi.d	$a2, $a2, -1
	lu12i.w	$a3, 38836
	ori	$a3, $a3, 607
	lu32i.d	$a3, 271853
	lu52i.d	$a3, $a3, -1669
	mulh.du	$a2, $a2, $a3
	srli.d	$a2, $a2, 4
	mul.d	$a0, $a2, $a0
	addi.d	$a2, $a0, 28
	sltu	$a3, $s0, $a2
	maskeqz	$a2, $a2, $a3
	masknez	$a3, $s0, $a3
	or	$a2, $a2, $a3
	sub.d	$a0, $a2, $a0
	addi.d	$s8, $a0, -27
	move	$s7, $zero
	st.d	$s8, $sp, 64                    # 8-byte Folded Spill
	bstrins.d	$s8, $zero, 2, 0
	st.d	$s8, $sp, 48                    # 8-byte Folded Spill
	addi.d	$s8, $s1, 124
	lu12i.w	$a0, 65881
	ori	$s4, $a0, 1957
	lu12i.w	$a0, -163576
	ori	$fp, $a0, 1640
	lu12i.w	$a0, -277912
	ori	$s3, $a0, 2488
	vrepli.b	$vr0, 0
	vst	$vr0, $sp, 32                   # 16-byte Folded Spill
	lu12i.w	$a0, -381906
	ori	$s5, $a0, 1088
	lu12i.w	$a0, -310021
	ori	$s6, $a0, 1536
	b	.LBB12_4
	.p2align	4, , 16
.LBB12_3:                               # %_Z9check_sumIiEvT_.exit.us
                                        #   in Loop: Header=BB12_4 Depth=1
	addi.w	$s7, $s7, 1
	bge	$s7, $a1, .LBB12_31
.LBB12_4:                               # %for.cond1.preheader.us
                                        # =>This Loop Header: Depth=1
                                        #     Child Loop BB12_5 Depth 2
                                        #     Child Loop BB12_9 Depth 2
                                        #     Child Loop BB12_12 Depth 2
	move	$a2, $zero
	move	$a0, $zero
	ori	$a3, $zero, 27
	move	$a4, $s8
	.p2align	4, , 16
.LBB12_5:                               # %for.body3.us
                                        #   Parent Loop BB12_4 Depth=1
                                        # =>  This Inner Loop Header: Depth=2
	alsl.d	$a5, $a2, $s1, 2
	slli.d	$a6, $a2, 2
	ldx.w	$a6, $s1, $a6
	ld.w	$a7, $a5, 4
	ld.w	$t0, $a5, 8
	ld.w	$t1, $a5, 12
	add.d	$a6, $a7, $a6
	ld.w	$a7, $a5, 16
	add.d	$a6, $a6, $t0
	ld.w	$t0, $a5, 20
	add.d	$a6, $a6, $t1
	ld.w	$t1, $a5, 24
	add.d	$a6, $a6, $a7
	ld.w	$a7, $a5, 28
	add.d	$a6, $a6, $t0
	ld.w	$t0, $a5, 32
	add.d	$a6, $a6, $t1
	ld.w	$t1, $a5, 36
	add.d	$a6, $a6, $a7
	ld.w	$a7, $a5, 40
	add.d	$a6, $a6, $t0
	ld.w	$t0, $a5, 44
	add.d	$a6, $a6, $t1
	ld.w	$t1, $a5, 48
	add.d	$a6, $a6, $a7
	ld.w	$a7, $a5, 52
	add.d	$a6, $a6, $t0
	ld.w	$t0, $a5, 56
	add.d	$a6, $a6, $t1
	ld.w	$t1, $a5, 60
	add.d	$a6, $a6, $a7
	ld.w	$a7, $a5, 64
	add.d	$a6, $a6, $t0
	ld.w	$t0, $a5, 68
	add.d	$a6, $a6, $t1
	ld.w	$t1, $a5, 72
	add.d	$a6, $a6, $a7
	ld.w	$a7, $a5, 76
	add.d	$a6, $a6, $t0
	ld.w	$t0, $a5, 80
	add.d	$a6, $a6, $t1
	ld.w	$t1, $a5, 84
	add.d	$a6, $a6, $a7
	ld.w	$a7, $a5, 88
	add.d	$a6, $a6, $t0
	ld.w	$t0, $a5, 92
	add.d	$a6, $a6, $t1
	ld.w	$t1, $a5, 96
	add.d	$a6, $a6, $a7
	ld.w	$a7, $a5, 100
	ld.w	$t2, $a5, 104
	add.d	$a5, $a6, $t0
	add.d	$a5, $a5, $t1
	add.d	$a7, $a5, $a7
	move	$a5, $a3
	move	$a6, $a4
	add.d	$a3, $a7, $t2
	mul.d	$a3, $a3, $s4
	add.d	$a0, $a0, $a3
	add.d	$a0, $a0, $fp
	addi.d	$a2, $a2, 27
	addi.d	$a3, $a5, 27
	addi.d	$a4, $a4, 108
	bltu	$a2, $s2, .LBB12_5
# %bb.6:                                # %for.cond1.for.cond4.preheader_crit_edge.us
                                        #   in Loop: Header=BB12_4 Depth=1
	addi.w	$a2, $a2, 0
	bge	$a2, $s0, .LBB12_13
# %bb.7:                                # %for.body6.us.preheader
                                        #   in Loop: Header=BB12_4 Depth=1
	ld.d	$a2, $sp, 64                    # 8-byte Folded Reload
	ori	$a3, $zero, 8
	bltu	$a2, $a3, .LBB12_11
# %bb.8:                                # %vector.ph122
                                        #   in Loop: Header=BB12_4 Depth=1
	ld.d	$a2, $sp, 48                    # 8-byte Folded Reload
	add.d	$a5, $a5, $a2
	vld	$vr1, $sp, 32                   # 16-byte Folded Reload
	vori.b	$vr0, $vr1, 0
	vinsgr2vr.w	$vr0, $a0, 0
	move	$a0, $a2
	.p2align	4, , 16
.LBB12_9:                               # %vector.body125
                                        #   Parent Loop BB12_4 Depth=1
                                        # =>  This Inner Loop Header: Depth=2
	vld	$vr2, $a6, -16
	vld	$vr3, $a6, 0
	vreplgr2vr.w	$vr4, $s4
	vmadd.w	$vr0, $vr2, $vr4
	vreplgr2vr.w	$vr2, $s3
	vmadd.w	$vr1, $vr3, $vr4
	vadd.w	$vr0, $vr0, $vr2
	vadd.w	$vr1, $vr1, $vr2
	addi.d	$a0, $a0, -8
	addi.d	$a6, $a6, 32
	bnez	$a0, .LBB12_9
# %bb.10:                               # %middle.block132
                                        #   in Loop: Header=BB12_4 Depth=1
	vadd.w	$vr0, $vr1, $vr0
	vhaddw.d.w	$vr0, $vr0, $vr0
	vhaddw.q.d	$vr0, $vr0, $vr0
	vpickve2gr.d	$a0, $vr0, 0
	ld.d	$a2, $sp, 64                    # 8-byte Folded Reload
	ld.d	$a3, $sp, 48                    # 8-byte Folded Reload
	beq	$a2, $a3, .LBB12_13
.LBB12_11:                              # %for.body6.us.preheader137
                                        #   in Loop: Header=BB12_4 Depth=1
	alsl.d	$a2, $a5, $s1, 2
	.p2align	4, , 16
.LBB12_12:                              # %for.body6.us
                                        #   Parent Loop BB12_4 Depth=1
                                        # =>  This Inner Loop Header: Depth=2
	ld.w	$a3, $a2, 0
	mul.d	$a3, $a3, $s4
	add.d	$a0, $a0, $a3
	add.d	$a0, $a0, $s3
	addi.d	$a5, $a5, 1
	addi.d	$a2, $a2, 4
	bltu	$a5, $s0, .LBB12_12
.LBB12_13:                              # %for.end9.us
                                        #   in Loop: Header=BB12_4 Depth=1
	pcalau12i	$a2, %pc_hi20(init_value)
	fld.d	$fa0, $a2, %pc_lo12(init_value)
	ftintrz.w.d	$fa0, $fa0
	movfr2gr.s	$a2, $fa0
	mul.d	$a2, $a2, $s5
	add.w	$a2, $a2, $s6
	addi.w	$a0, $a0, 0
	beq	$a0, $a2, .LBB12_3
# %bb.14:                               # %if.then.i.us
                                        #   in Loop: Header=BB12_4 Depth=1
	ld.d	$a0, $sp, 96                    # 8-byte Folded Reload
	ld.w	$a1, $a0, %pc_lo12(current_test)
	pcalau12i	$a0, %pc_hi20(.L.str.19)
	addi.d	$a0, $a0, %pc_lo12(.L.str.19)
	pcaddu18i	$ra, %call36(printf)
	jirl	$ra, $ra, 0
	ld.d	$a0, $sp, 88                    # 8-byte Folded Reload
	ld.w	$a1, $a0, %pc_lo12(iterations)
	b	.LBB12_3
.LBB12_15:                              # %for.cond1.preheader.lr.ph.split
	blez	$s0, .LBB12_27
# %bb.16:                               # %for.cond1.preheader.us72.preheader
	bstrpick.d	$a0, $s0, 30, 3
	slli.d	$fp, $a0, 3
	ori	$a5, $zero, 8
	lu12i.w	$a0, 65881
	ori	$s5, $a0, 1957
	lu12i.w	$a0, -277912
	ori	$s6, $a0, 2488
	pcalau12i	$s7, %pc_hi20(init_value)
	lu12i.w	$a0, -381906
	ori	$s8, $a0, 1088
	lu12i.w	$a0, -310021
	ori	$s3, $a0, 1536
	pcalau12i	$a0, %pc_hi20(.L.str.19)
	addi.d	$s2, $a0, %pc_lo12(.L.str.19)
	move	$s4, $zero
	vrepli.b	$vr0, 0
	vst	$vr0, $sp, 64                   # 16-byte Folded Spill
	vreplgr2vr.w	$vr4, $s5
	vreplgr2vr.w	$vr5, $s6
	vst	$vr4, $sp, 48                   # 16-byte Folded Spill
	vst	$vr5, $sp, 32                   # 16-byte Folded Spill
	b	.LBB12_18
	.p2align	4, , 16
.LBB12_17:                              # %_Z9check_sumIiEvT_.exit.us81
                                        #   in Loop: Header=BB12_18 Depth=1
	addi.w	$s4, $s4, 1
	bge	$s4, $a1, .LBB12_31
.LBB12_18:                              # %for.cond1.preheader.us72
                                        # =>This Loop Header: Depth=1
                                        #     Child Loop BB12_21 Depth 2
                                        #     Child Loop BB12_24 Depth 2
	bgeu	$s0, $a5, .LBB12_20
# %bb.19:                               #   in Loop: Header=BB12_18 Depth=1
	move	$a3, $zero
	move	$a0, $zero
	b	.LBB12_23
	.p2align	4, , 16
.LBB12_20:                              # %vector.body.preheader
                                        #   in Loop: Header=BB12_18 Depth=1
	addi.d	$a0, $s1, 16
	move	$a2, $fp
	vld	$vr1, $sp, 64                   # 16-byte Folded Reload
	vori.b	$vr0, $vr1, 0
	.p2align	4, , 16
.LBB12_21:                              # %vector.body
                                        #   Parent Loop BB12_18 Depth=1
                                        # =>  This Inner Loop Header: Depth=2
	vld	$vr2, $a0, -16
	vld	$vr3, $a0, 0
	vmadd.w	$vr0, $vr2, $vr4
	vmadd.w	$vr1, $vr3, $vr4
	vadd.w	$vr0, $vr0, $vr5
	vadd.w	$vr1, $vr1, $vr5
	addi.d	$a2, $a2, -8
	addi.d	$a0, $a0, 32
	bnez	$a2, .LBB12_21
# %bb.22:                               # %middle.block
                                        #   in Loop: Header=BB12_18 Depth=1
	vadd.w	$vr0, $vr1, $vr0
	vhaddw.d.w	$vr0, $vr0, $vr0
	vhaddw.q.d	$vr0, $vr0, $vr0
	vpickve2gr.d	$a0, $vr0, 0
	move	$a3, $fp
	beq	$fp, $s0, .LBB12_25
.LBB12_23:                              # %for.body6.us84.preheader
                                        #   in Loop: Header=BB12_18 Depth=1
	alsl.d	$a2, $a3, $s1, 2
	sub.d	$a3, $s0, $a3
	.p2align	4, , 16
.LBB12_24:                              # %for.body6.us84
                                        #   Parent Loop BB12_18 Depth=1
                                        # =>  This Inner Loop Header: Depth=2
	ld.w	$a4, $a2, 0
	mul.d	$a4, $a4, $s5
	add.d	$a0, $a0, $a4
	add.d	$a0, $a0, $s6
	addi.d	$a3, $a3, -1
	addi.d	$a2, $a2, 4
	bnez	$a3, .LBB12_24
.LBB12_25:                              # %for.cond4.for.end9_crit_edge.us94
                                        #   in Loop: Header=BB12_18 Depth=1
	fld.d	$fa0, $s7, %pc_lo12(init_value)
	ftintrz.w.d	$fa0, $fa0
	movfr2gr.s	$a2, $fa0
	mul.d	$a2, $a2, $s8
	add.w	$a2, $a2, $s3
	addi.w	$a0, $a0, 0
	beq	$a0, $a2, .LBB12_17
# %bb.26:                               # %if.then.i.us79
                                        #   in Loop: Header=BB12_18 Depth=1
	ld.d	$a0, $sp, 96                    # 8-byte Folded Reload
	ld.w	$a1, $a0, %pc_lo12(current_test)
	move	$a0, $s2
	pcaddu18i	$ra, %call36(printf)
	jirl	$ra, $ra, 0
	vld	$vr5, $sp, 32                   # 16-byte Folded Reload
	vld	$vr4, $sp, 48                   # 16-byte Folded Reload
	ori	$a5, $zero, 8
	ld.d	$a0, $sp, 88                    # 8-byte Folded Reload
	ld.w	$a1, $a0, %pc_lo12(iterations)
	b	.LBB12_17
.LBB12_27:                              # %for.cond1.preheader.preheader
	pcalau12i	$fp, %pc_hi20(init_value)
	fld.d	$fa0, $fp, %pc_lo12(init_value)
	lu12i.w	$a0, -381906
	ori	$s1, $a0, 1088
	lu12i.w	$a0, 310020
	ori	$s2, $a0, 2560
	pcalau12i	$a0, %pc_hi20(.L.str.19)
	addi.d	$s0, $a0, %pc_lo12(.L.str.19)
	move	$s3, $zero
	b	.LBB12_29
	.p2align	4, , 16
.LBB12_28:                              # %_Z9check_sumIiEvT_.exit
                                        #   in Loop: Header=BB12_29 Depth=1
	addi.w	$s3, $s3, 1
	bge	$s3, $a1, .LBB12_31
.LBB12_29:                              # %for.cond1.preheader
                                        # =>This Inner Loop Header: Depth=1
	ftintrz.w.d	$fa1, $fa0
	movfr2gr.s	$a0, $fa1
	mul.w	$a0, $a0, $s1
	beq	$a0, $s2, .LBB12_28
# %bb.30:                               # %if.then.i
                                        #   in Loop: Header=BB12_29 Depth=1
	ld.d	$a0, $sp, 96                    # 8-byte Folded Reload
	ld.w	$a1, $a0, %pc_lo12(current_test)
	move	$a0, $s0
	pcaddu18i	$ra, %call36(printf)
	jirl	$ra, $ra, 0
	fld.d	$fa0, $fp, %pc_lo12(init_value)
	ld.d	$a0, $sp, 88                    # 8-byte Folded Reload
	ld.w	$a1, $a0, %pc_lo12(iterations)
	b	.LBB12_28
.LBB12_31:                              # %for.end12
	pcaddu18i	$ra, %call36(clock)
	jirl	$ra, $ra, 0
	ld.d	$a1, $sp, 24                    # 8-byte Folded Reload
	ld.d	$fp, $a1, %pc_lo12(start_time)
	pcalau12i	$s2, %pc_hi20(results)
	ld.d	$a2, $s2, %pc_lo12(results)
	pcalau12i	$s1, %pc_hi20(allocated_results)
	ld.w	$a1, $s1, %pc_lo12(allocated_results)
	move	$s0, $a0
	pcalau12i	$a0, %pc_hi20(end_time)
	st.d	$s0, $a0, %pc_lo12(end_time)
	ld.d	$s3, $sp, 96                    # 8-byte Folded Reload
	beqz	$a2, .LBB12_33
# %bb.32:                               # %for.end12
	ld.w	$a0, $s3, %pc_lo12(current_test)
	blt	$a0, $a1, .LBB12_35
.LBB12_33:                              # %if.then.i11
	addi.w	$a0, $a1, 10
	st.w	$a0, $s1, %pc_lo12(allocated_results)
	slli.d	$a1, $a0, 4
	move	$a0, $a2
	pcaddu18i	$ra, %call36(realloc)
	jirl	$ra, $ra, 0
	st.d	$a0, $s2, %pc_lo12(results)
	beqz	$a0, .LBB12_36
# %bb.34:                               # %if.then.if.end5_crit_edge.i
	move	$a2, $a0
	ld.w	$a0, $s3, %pc_lo12(current_test)
.LBB12_35:                              # %_Z13record_resultdPKc.exit
	pcalau12i	$a1, %pc_hi20(.LCPI12_0)
	fld.d	$fa0, $a1, %pc_lo12(.LCPI12_0)
	sub.d	$a1, $s0, $fp
	movgr2fr.d	$fa1, $a1
	ffint.d.l	$fa1, $fa1
	fdiv.d	$fa0, $fa1, $fa0
	alsl.d	$a1, $a0, $a2, 4
	slli.d	$a3, $a0, 4
	fstx.d	$fa0, $a2, $a3
	ld.d	$a2, $sp, 16                    # 8-byte Folded Reload
	st.d	$a2, $a1, 8
	addi.d	$a0, $a0, 1
	st.w	$a0, $s3, %pc_lo12(current_test)
	ld.d	$s8, $sp, 104                   # 8-byte Folded Reload
	ld.d	$s7, $sp, 112                   # 8-byte Folded Reload
	ld.d	$s6, $sp, 120                   # 8-byte Folded Reload
	ld.d	$s5, $sp, 128                   # 8-byte Folded Reload
	ld.d	$s4, $sp, 136                   # 8-byte Folded Reload
	ld.d	$s3, $sp, 144                   # 8-byte Folded Reload
	ld.d	$s2, $sp, 152                   # 8-byte Folded Reload
	ld.d	$s1, $sp, 160                   # 8-byte Folded Reload
	ld.d	$s0, $sp, 168                   # 8-byte Folded Reload
	ld.d	$fp, $sp, 176                   # 8-byte Folded Reload
	ld.d	$ra, $sp, 184                   # 8-byte Folded Reload
	addi.d	$sp, $sp, 192
	ret
.LBB12_36:                              # %if.then3.i
	ld.w	$a1, $s1, %pc_lo12(allocated_results)
	pcalau12i	$a0, %pc_hi20(.L.str)
	addi.d	$a0, $a0, %pc_lo12(.L.str)
	pcaddu18i	$ra, %call36(printf)
	jirl	$ra, $ra, 0
	addi.w	$a0, $zero, -1
	pcaddu18i	$ra, %call36(exit)
	jirl	$ra, $ra, 0
.Lfunc_end12:
	.size	_Z27test_for_loop_unroll_factorILi27EiEvPKT0_iPKc, .Lfunc_end12-_Z27test_for_loop_unroll_factorILi27EiEvPKT0_iPKc
	.cfi_endproc
                                        # -- End function
	.section	.rodata.cst8,"aM",@progbits,8
	.p2align	3, 0x0                          # -- Begin function _Z27test_for_loop_unroll_factorILi26EiEvPKT0_iPKc
.LCPI13_0:
	.dword	0x412e848000000000              # double 1.0E+6
	.section	.text._Z27test_for_loop_unroll_factorILi26EiEvPKT0_iPKc,"axG",@progbits,_Z27test_for_loop_unroll_factorILi26EiEvPKT0_iPKc,comdat
	.weak	_Z27test_for_loop_unroll_factorILi26EiEvPKT0_iPKc
	.p2align	5
	.type	_Z27test_for_loop_unroll_factorILi26EiEvPKT0_iPKc,@function
_Z27test_for_loop_unroll_factorILi26EiEvPKT0_iPKc: # @_Z27test_for_loop_unroll_factorILi26EiEvPKT0_iPKc
	.cfi_startproc
# %bb.0:                                # %entry
	addi.d	$sp, $sp, -192
	.cfi_def_cfa_offset 192
	st.d	$ra, $sp, 184                   # 8-byte Folded Spill
	st.d	$fp, $sp, 176                   # 8-byte Folded Spill
	st.d	$s0, $sp, 168                   # 8-byte Folded Spill
	st.d	$s1, $sp, 160                   # 8-byte Folded Spill
	st.d	$s2, $sp, 152                   # 8-byte Folded Spill
	st.d	$s3, $sp, 144                   # 8-byte Folded Spill
	st.d	$s4, $sp, 136                   # 8-byte Folded Spill
	st.d	$s5, $sp, 128                   # 8-byte Folded Spill
	st.d	$s6, $sp, 120                   # 8-byte Folded Spill
	st.d	$s7, $sp, 112                   # 8-byte Folded Spill
	st.d	$s8, $sp, 104                   # 8-byte Folded Spill
	.cfi_offset 1, -8
	.cfi_offset 22, -16
	.cfi_offset 23, -24
	.cfi_offset 24, -32
	.cfi_offset 25, -40
	.cfi_offset 26, -48
	.cfi_offset 27, -56
	.cfi_offset 28, -64
	.cfi_offset 29, -72
	.cfi_offset 30, -80
	.cfi_offset 31, -88
	st.d	$a2, $sp, 16                    # 8-byte Folded Spill
	move	$s0, $a1
	move	$s1, $a0
	pcaddu18i	$ra, %call36(clock)
	jirl	$ra, $ra, 0
	pcalau12i	$a1, %pc_hi20(iterations)
	st.d	$a1, $sp, 88                    # 8-byte Folded Spill
	ld.w	$a1, $a1, %pc_lo12(iterations)
	pcalau12i	$a2, %pc_hi20(start_time)
	st.d	$a2, $sp, 24                    # 8-byte Folded Spill
	st.d	$a0, $a2, %pc_lo12(start_time)
	pcalau12i	$a0, %pc_hi20(current_test)
	st.d	$a0, $sp, 96                    # 8-byte Folded Spill
	blez	$a1, .LBB13_31
# %bb.1:                                # %for.cond1.preheader.lr.ph
	ori	$a0, $zero, 26
	blt	$s0, $a0, .LBB13_15
# %bb.2:                                # %for.cond1.preheader.us.preheader
	addi.d	$a2, $s0, -25
	bstrpick.d	$s2, $a2, 31, 0
	sltu	$a2, $a0, $s2
	masknez	$a3, $a0, $a2
	maskeqz	$a2, $s2, $a2
	or	$a2, $a2, $a3
	addi.d	$a2, $a2, -1
	lu12i.w	$a3, -241980
	ori	$a3, $a3, 3781
	lu32i.d	$a3, 322638
	lu52i.d	$a3, $a3, 1260
	mulh.du	$a2, $a2, $a3
	srli.d	$a2, $a2, 3
	mul.d	$a0, $a2, $a0
	addi.d	$a2, $a0, 27
	sltu	$a3, $s0, $a2
	maskeqz	$a2, $a2, $a3
	masknez	$a3, $s0, $a3
	or	$a2, $a2, $a3
	sub.d	$a0, $a2, $a0
	addi.d	$s8, $a0, -26
	move	$s7, $zero
	st.d	$s8, $sp, 64                    # 8-byte Folded Spill
	bstrins.d	$s8, $zero, 2, 0
	addi.d	$s6, $s1, 120
	lu12i.w	$a0, 65881
	ori	$s4, $a0, 1957
	lu12i.w	$a0, -277912
	ori	$fp, $a0, 2488
	vrepli.b	$vr0, 0
	vst	$vr0, $sp, 48                   # 16-byte Folded Spill
	lu12i.w	$a0, -381906
	ori	$s3, $a0, 1088
	lu12i.w	$a0, -310021
	ori	$s5, $a0, 1536
	b	.LBB13_4
	.p2align	4, , 16
.LBB13_3:                               # %_Z9check_sumIiEvT_.exit.us
                                        #   in Loop: Header=BB13_4 Depth=1
	addi.w	$s7, $s7, 1
	bge	$s7, $a1, .LBB13_31
.LBB13_4:                               # %for.cond1.preheader.us
                                        # =>This Loop Header: Depth=1
                                        #     Child Loop BB13_5 Depth 2
                                        #     Child Loop BB13_9 Depth 2
                                        #     Child Loop BB13_12 Depth 2
	move	$a2, $zero
	move	$a0, $zero
	ori	$a4, $zero, 26
	move	$a5, $s6
	.p2align	4, , 16
.LBB13_5:                               # %for.body3.us
                                        #   Parent Loop BB13_4 Depth=1
                                        # =>  This Inner Loop Header: Depth=2
	alsl.d	$a3, $a2, $s1, 2
	slli.d	$a6, $a2, 2
	ldx.w	$a6, $s1, $a6
	ld.w	$a7, $a3, 4
	ld.w	$t0, $a3, 8
	ld.w	$t1, $a3, 12
	add.d	$a6, $a7, $a6
	ld.w	$a7, $a3, 16
	add.d	$a6, $a6, $t0
	ld.w	$t0, $a3, 20
	add.d	$a6, $a6, $t1
	ld.w	$t1, $a3, 24
	add.d	$a6, $a6, $a7
	ld.w	$a7, $a3, 28
	add.d	$a6, $a6, $t0
	ld.w	$t0, $a3, 32
	add.d	$a6, $a6, $t1
	ld.w	$t1, $a3, 36
	add.d	$a6, $a6, $a7
	ld.w	$a7, $a3, 40
	add.d	$a6, $a6, $t0
	ld.w	$t0, $a3, 44
	add.d	$a6, $a6, $t1
	ld.w	$t1, $a3, 48
	add.d	$a6, $a6, $a7
	ld.w	$a7, $a3, 52
	add.d	$a6, $a6, $t0
	ld.w	$t0, $a3, 56
	add.d	$a6, $a6, $t1
	ld.w	$t1, $a3, 60
	add.d	$a6, $a6, $a7
	ld.w	$a7, $a3, 64
	add.d	$a6, $a6, $t0
	ld.w	$t0, $a3, 68
	add.d	$a6, $a6, $t1
	ld.w	$t1, $a3, 72
	add.d	$a6, $a6, $a7
	ld.w	$a7, $a3, 76
	add.d	$a6, $a6, $t0
	ld.w	$t0, $a3, 80
	add.d	$a6, $a6, $t1
	ld.w	$t1, $a3, 84
	add.d	$a6, $a6, $a7
	ld.w	$a7, $a3, 88
	add.d	$a6, $a6, $t0
	ld.w	$t0, $a3, 92
	add.d	$a6, $a6, $t1
	ld.w	$t1, $a3, 96
	ld.w	$t2, $a3, 100
	add.d	$a3, $a6, $a7
	add.w	$a3, $a3, $t0
	add.d	$a7, $a3, $t1
	move	$a3, $a4
	move	$a6, $a5
	add.d	$a4, $a7, $t2
	mul.d	$a4, $a4, $s4
	add.d	$a0, $a0, $a4
	addu16i.d	$a0, $a0, 7146
	addi.w	$a0, $a0, -848
	addi.d	$a2, $a2, 26
	addi.d	$a4, $a3, 26
	addi.d	$a5, $a5, 104
	bltu	$a2, $s2, .LBB13_5
# %bb.6:                                # %for.cond1.for.cond4.preheader_crit_edge.us
                                        #   in Loop: Header=BB13_4 Depth=1
	addi.w	$a2, $a2, 0
	bge	$a2, $s0, .LBB13_13
# %bb.7:                                # %for.body6.us.preheader
                                        #   in Loop: Header=BB13_4 Depth=1
	ld.d	$a2, $sp, 64                    # 8-byte Folded Reload
	ori	$a4, $zero, 8
	bltu	$a2, $a4, .LBB13_11
# %bb.8:                                # %vector.ph118
                                        #   in Loop: Header=BB13_4 Depth=1
	add.d	$a3, $a3, $s8
	vld	$vr1, $sp, 48                   # 16-byte Folded Reload
	vori.b	$vr0, $vr1, 0
	vinsgr2vr.w	$vr0, $a0, 0
	move	$a0, $s8
	.p2align	4, , 16
.LBB13_9:                               # %vector.body121
                                        #   Parent Loop BB13_4 Depth=1
                                        # =>  This Inner Loop Header: Depth=2
	vld	$vr2, $a6, -16
	vld	$vr3, $a6, 0
	vreplgr2vr.w	$vr4, $s4
	vmadd.w	$vr0, $vr2, $vr4
	vreplgr2vr.w	$vr2, $fp
	vmadd.w	$vr1, $vr3, $vr4
	vadd.w	$vr0, $vr0, $vr2
	vadd.w	$vr1, $vr1, $vr2
	addi.d	$a0, $a0, -8
	addi.d	$a6, $a6, 32
	bnez	$a0, .LBB13_9
# %bb.10:                               # %middle.block128
                                        #   in Loop: Header=BB13_4 Depth=1
	vadd.w	$vr0, $vr1, $vr0
	vhaddw.d.w	$vr0, $vr0, $vr0
	vhaddw.q.d	$vr0, $vr0, $vr0
	vpickve2gr.d	$a0, $vr0, 0
	ld.d	$a2, $sp, 64                    # 8-byte Folded Reload
	beq	$a2, $s8, .LBB13_13
.LBB13_11:                              # %for.body6.us.preheader133
                                        #   in Loop: Header=BB13_4 Depth=1
	alsl.d	$a2, $a3, $s1, 2
	.p2align	4, , 16
.LBB13_12:                              # %for.body6.us
                                        #   Parent Loop BB13_4 Depth=1
                                        # =>  This Inner Loop Header: Depth=2
	ld.w	$a4, $a2, 0
	mul.d	$a4, $a4, $s4
	add.d	$a0, $a0, $a4
	add.d	$a0, $a0, $fp
	addi.d	$a3, $a3, 1
	addi.d	$a2, $a2, 4
	bltu	$a3, $s0, .LBB13_12
.LBB13_13:                              # %for.end9.us
                                        #   in Loop: Header=BB13_4 Depth=1
	pcalau12i	$a2, %pc_hi20(init_value)
	fld.d	$fa0, $a2, %pc_lo12(init_value)
	ftintrz.w.d	$fa0, $fa0
	movfr2gr.s	$a2, $fa0
	mul.d	$a2, $a2, $s3
	add.w	$a2, $a2, $s5
	addi.w	$a0, $a0, 0
	beq	$a0, $a2, .LBB13_3
# %bb.14:                               # %if.then.i.us
                                        #   in Loop: Header=BB13_4 Depth=1
	ld.d	$a0, $sp, 96                    # 8-byte Folded Reload
	ld.w	$a1, $a0, %pc_lo12(current_test)
	pcalau12i	$a0, %pc_hi20(.L.str.19)
	addi.d	$a0, $a0, %pc_lo12(.L.str.19)
	pcaddu18i	$ra, %call36(printf)
	jirl	$ra, $ra, 0
	ld.d	$a0, $sp, 88                    # 8-byte Folded Reload
	ld.w	$a1, $a0, %pc_lo12(iterations)
	b	.LBB13_3
.LBB13_15:                              # %for.cond1.preheader.lr.ph.split
	blez	$s0, .LBB13_27
# %bb.16:                               # %for.cond1.preheader.us68.preheader
	bstrpick.d	$a0, $s0, 30, 3
	slli.d	$fp, $a0, 3
	ori	$a5, $zero, 8
	lu12i.w	$a0, 65881
	ori	$s5, $a0, 1957
	lu12i.w	$a0, -277912
	ori	$s6, $a0, 2488
	pcalau12i	$s7, %pc_hi20(init_value)
	lu12i.w	$a0, -381906
	ori	$s8, $a0, 1088
	lu12i.w	$a0, -310021
	ori	$s3, $a0, 1536
	pcalau12i	$a0, %pc_hi20(.L.str.19)
	addi.d	$s2, $a0, %pc_lo12(.L.str.19)
	move	$s4, $zero
	vrepli.b	$vr0, 0
	vst	$vr0, $sp, 64                   # 16-byte Folded Spill
	vreplgr2vr.w	$vr4, $s5
	vreplgr2vr.w	$vr5, $s6
	vst	$vr4, $sp, 48                   # 16-byte Folded Spill
	vst	$vr5, $sp, 32                   # 16-byte Folded Spill
	b	.LBB13_18
	.p2align	4, , 16
.LBB13_17:                              # %_Z9check_sumIiEvT_.exit.us77
                                        #   in Loop: Header=BB13_18 Depth=1
	addi.w	$s4, $s4, 1
	bge	$s4, $a1, .LBB13_31
.LBB13_18:                              # %for.cond1.preheader.us68
                                        # =>This Loop Header: Depth=1
                                        #     Child Loop BB13_21 Depth 2
                                        #     Child Loop BB13_24 Depth 2
	bgeu	$s0, $a5, .LBB13_20
# %bb.19:                               #   in Loop: Header=BB13_18 Depth=1
	move	$a3, $zero
	move	$a0, $zero
	b	.LBB13_23
	.p2align	4, , 16
.LBB13_20:                              # %vector.body.preheader
                                        #   in Loop: Header=BB13_18 Depth=1
	addi.d	$a0, $s1, 16
	move	$a2, $fp
	vld	$vr1, $sp, 64                   # 16-byte Folded Reload
	vori.b	$vr0, $vr1, 0
	.p2align	4, , 16
.LBB13_21:                              # %vector.body
                                        #   Parent Loop BB13_18 Depth=1
                                        # =>  This Inner Loop Header: Depth=2
	vld	$vr2, $a0, -16
	vld	$vr3, $a0, 0
	vmadd.w	$vr0, $vr2, $vr4
	vmadd.w	$vr1, $vr3, $vr4
	vadd.w	$vr0, $vr0, $vr5
	vadd.w	$vr1, $vr1, $vr5
	addi.d	$a2, $a2, -8
	addi.d	$a0, $a0, 32
	bnez	$a2, .LBB13_21
# %bb.22:                               # %middle.block
                                        #   in Loop: Header=BB13_18 Depth=1
	vadd.w	$vr0, $vr1, $vr0
	vhaddw.d.w	$vr0, $vr0, $vr0
	vhaddw.q.d	$vr0, $vr0, $vr0
	vpickve2gr.d	$a0, $vr0, 0
	move	$a3, $fp
	beq	$fp, $s0, .LBB13_25
.LBB13_23:                              # %for.body6.us80.preheader
                                        #   in Loop: Header=BB13_18 Depth=1
	alsl.d	$a2, $a3, $s1, 2
	sub.d	$a3, $s0, $a3
	.p2align	4, , 16
.LBB13_24:                              # %for.body6.us80
                                        #   Parent Loop BB13_18 Depth=1
                                        # =>  This Inner Loop Header: Depth=2
	ld.w	$a4, $a2, 0
	mul.d	$a4, $a4, $s5
	add.d	$a0, $a0, $a4
	add.d	$a0, $a0, $s6
	addi.d	$a3, $a3, -1
	addi.d	$a2, $a2, 4
	bnez	$a3, .LBB13_24
.LBB13_25:                              # %for.cond4.for.end9_crit_edge.us90
                                        #   in Loop: Header=BB13_18 Depth=1
	fld.d	$fa0, $s7, %pc_lo12(init_value)
	ftintrz.w.d	$fa0, $fa0
	movfr2gr.s	$a2, $fa0
	mul.d	$a2, $a2, $s8
	add.w	$a2, $a2, $s3
	addi.w	$a0, $a0, 0
	beq	$a0, $a2, .LBB13_17
# %bb.26:                               # %if.then.i.us75
                                        #   in Loop: Header=BB13_18 Depth=1
	ld.d	$a0, $sp, 96                    # 8-byte Folded Reload
	ld.w	$a1, $a0, %pc_lo12(current_test)
	move	$a0, $s2
	pcaddu18i	$ra, %call36(printf)
	jirl	$ra, $ra, 0
	vld	$vr5, $sp, 32                   # 16-byte Folded Reload
	vld	$vr4, $sp, 48                   # 16-byte Folded Reload
	ori	$a5, $zero, 8
	ld.d	$a0, $sp, 88                    # 8-byte Folded Reload
	ld.w	$a1, $a0, %pc_lo12(iterations)
	b	.LBB13_17
.LBB13_27:                              # %for.cond1.preheader.preheader
	pcalau12i	$fp, %pc_hi20(init_value)
	fld.d	$fa0, $fp, %pc_lo12(init_value)
	lu12i.w	$a0, -381906
	ori	$s1, $a0, 1088
	lu12i.w	$a0, 310020
	ori	$s2, $a0, 2560
	pcalau12i	$a0, %pc_hi20(.L.str.19)
	addi.d	$s0, $a0, %pc_lo12(.L.str.19)
	move	$s3, $zero
	b	.LBB13_29
	.p2align	4, , 16
.LBB13_28:                              # %_Z9check_sumIiEvT_.exit
                                        #   in Loop: Header=BB13_29 Depth=1
	addi.w	$s3, $s3, 1
	bge	$s3, $a1, .LBB13_31
.LBB13_29:                              # %for.cond1.preheader
                                        # =>This Inner Loop Header: Depth=1
	ftintrz.w.d	$fa1, $fa0
	movfr2gr.s	$a0, $fa1
	mul.w	$a0, $a0, $s1
	beq	$a0, $s2, .LBB13_28
# %bb.30:                               # %if.then.i
                                        #   in Loop: Header=BB13_29 Depth=1
	ld.d	$a0, $sp, 96                    # 8-byte Folded Reload
	ld.w	$a1, $a0, %pc_lo12(current_test)
	move	$a0, $s0
	pcaddu18i	$ra, %call36(printf)
	jirl	$ra, $ra, 0
	fld.d	$fa0, $fp, %pc_lo12(init_value)
	ld.d	$a0, $sp, 88                    # 8-byte Folded Reload
	ld.w	$a1, $a0, %pc_lo12(iterations)
	b	.LBB13_28
.LBB13_31:                              # %for.end12
	pcaddu18i	$ra, %call36(clock)
	jirl	$ra, $ra, 0
	ld.d	$a1, $sp, 24                    # 8-byte Folded Reload
	ld.d	$fp, $a1, %pc_lo12(start_time)
	pcalau12i	$s2, %pc_hi20(results)
	ld.d	$a2, $s2, %pc_lo12(results)
	pcalau12i	$s1, %pc_hi20(allocated_results)
	ld.w	$a1, $s1, %pc_lo12(allocated_results)
	move	$s0, $a0
	pcalau12i	$a0, %pc_hi20(end_time)
	st.d	$s0, $a0, %pc_lo12(end_time)
	ld.d	$s3, $sp, 96                    # 8-byte Folded Reload
	beqz	$a2, .LBB13_33
# %bb.32:                               # %for.end12
	ld.w	$a0, $s3, %pc_lo12(current_test)
	blt	$a0, $a1, .LBB13_35
.LBB13_33:                              # %if.then.i11
	addi.w	$a0, $a1, 10
	st.w	$a0, $s1, %pc_lo12(allocated_results)
	slli.d	$a1, $a0, 4
	move	$a0, $a2
	pcaddu18i	$ra, %call36(realloc)
	jirl	$ra, $ra, 0
	st.d	$a0, $s2, %pc_lo12(results)
	beqz	$a0, .LBB13_36
# %bb.34:                               # %if.then.if.end5_crit_edge.i
	move	$a2, $a0
	ld.w	$a0, $s3, %pc_lo12(current_test)
.LBB13_35:                              # %_Z13record_resultdPKc.exit
	pcalau12i	$a1, %pc_hi20(.LCPI13_0)
	fld.d	$fa0, $a1, %pc_lo12(.LCPI13_0)
	sub.d	$a1, $s0, $fp
	movgr2fr.d	$fa1, $a1
	ffint.d.l	$fa1, $fa1
	fdiv.d	$fa0, $fa1, $fa0
	alsl.d	$a1, $a0, $a2, 4
	slli.d	$a3, $a0, 4
	fstx.d	$fa0, $a2, $a3
	ld.d	$a2, $sp, 16                    # 8-byte Folded Reload
	st.d	$a2, $a1, 8
	addi.d	$a0, $a0, 1
	st.w	$a0, $s3, %pc_lo12(current_test)
	ld.d	$s8, $sp, 104                   # 8-byte Folded Reload
	ld.d	$s7, $sp, 112                   # 8-byte Folded Reload
	ld.d	$s6, $sp, 120                   # 8-byte Folded Reload
	ld.d	$s5, $sp, 128                   # 8-byte Folded Reload
	ld.d	$s4, $sp, 136                   # 8-byte Folded Reload
	ld.d	$s3, $sp, 144                   # 8-byte Folded Reload
	ld.d	$s2, $sp, 152                   # 8-byte Folded Reload
	ld.d	$s1, $sp, 160                   # 8-byte Folded Reload
	ld.d	$s0, $sp, 168                   # 8-byte Folded Reload
	ld.d	$fp, $sp, 176                   # 8-byte Folded Reload
	ld.d	$ra, $sp, 184                   # 8-byte Folded Reload
	addi.d	$sp, $sp, 192
	ret
.LBB13_36:                              # %if.then3.i
	ld.w	$a1, $s1, %pc_lo12(allocated_results)
	pcalau12i	$a0, %pc_hi20(.L.str)
	addi.d	$a0, $a0, %pc_lo12(.L.str)
	pcaddu18i	$ra, %call36(printf)
	jirl	$ra, $ra, 0
	addi.w	$a0, $zero, -1
	pcaddu18i	$ra, %call36(exit)
	jirl	$ra, $ra, 0
.Lfunc_end13:
	.size	_Z27test_for_loop_unroll_factorILi26EiEvPKT0_iPKc, .Lfunc_end13-_Z27test_for_loop_unroll_factorILi26EiEvPKT0_iPKc
	.cfi_endproc
                                        # -- End function
	.section	.rodata.cst8,"aM",@progbits,8
	.p2align	3, 0x0                          # -- Begin function _Z27test_for_loop_unroll_factorILi25EiEvPKT0_iPKc
.LCPI14_0:
	.dword	0x412e848000000000              # double 1.0E+6
	.section	.text._Z27test_for_loop_unroll_factorILi25EiEvPKT0_iPKc,"axG",@progbits,_Z27test_for_loop_unroll_factorILi25EiEvPKT0_iPKc,comdat
	.weak	_Z27test_for_loop_unroll_factorILi25EiEvPKT0_iPKc
	.p2align	5
	.type	_Z27test_for_loop_unroll_factorILi25EiEvPKT0_iPKc,@function
_Z27test_for_loop_unroll_factorILi25EiEvPKT0_iPKc: # @_Z27test_for_loop_unroll_factorILi25EiEvPKT0_iPKc
	.cfi_startproc
# %bb.0:                                # %entry
	addi.d	$sp, $sp, -192
	.cfi_def_cfa_offset 192
	st.d	$ra, $sp, 184                   # 8-byte Folded Spill
	st.d	$fp, $sp, 176                   # 8-byte Folded Spill
	st.d	$s0, $sp, 168                   # 8-byte Folded Spill
	st.d	$s1, $sp, 160                   # 8-byte Folded Spill
	st.d	$s2, $sp, 152                   # 8-byte Folded Spill
	st.d	$s3, $sp, 144                   # 8-byte Folded Spill
	st.d	$s4, $sp, 136                   # 8-byte Folded Spill
	st.d	$s5, $sp, 128                   # 8-byte Folded Spill
	st.d	$s6, $sp, 120                   # 8-byte Folded Spill
	st.d	$s7, $sp, 112                   # 8-byte Folded Spill
	st.d	$s8, $sp, 104                   # 8-byte Folded Spill
	.cfi_offset 1, -8
	.cfi_offset 22, -16
	.cfi_offset 23, -24
	.cfi_offset 24, -32
	.cfi_offset 25, -40
	.cfi_offset 26, -48
	.cfi_offset 27, -56
	.cfi_offset 28, -64
	.cfi_offset 29, -72
	.cfi_offset 30, -80
	.cfi_offset 31, -88
	st.d	$a2, $sp, 16                    # 8-byte Folded Spill
	move	$s0, $a1
	move	$s1, $a0
	pcaddu18i	$ra, %call36(clock)
	jirl	$ra, $ra, 0
	pcalau12i	$a1, %pc_hi20(iterations)
	st.d	$a1, $sp, 88                    # 8-byte Folded Spill
	ld.w	$a1, $a1, %pc_lo12(iterations)
	pcalau12i	$a2, %pc_hi20(start_time)
	st.d	$a2, $sp, 24                    # 8-byte Folded Spill
	st.d	$a0, $a2, %pc_lo12(start_time)
	pcalau12i	$a0, %pc_hi20(current_test)
	st.d	$a0, $sp, 96                    # 8-byte Folded Spill
	blez	$a1, .LBB14_31
# %bb.1:                                # %for.cond1.preheader.lr.ph
	ori	$a0, $zero, 25
	blt	$s0, $a0, .LBB14_15
# %bb.2:                                # %for.cond1.preheader.us.preheader
	addi.d	$a2, $s0, -24
	bstrpick.d	$s2, $a2, 31, 0
	sltu	$a2, $a0, $s2
	masknez	$a3, $a0, $a2
	maskeqz	$a2, $s2, $a2
	or	$a2, $a2, $a3
	addi.d	$a2, $a2, -1
	lu12i.w	$a3, -125830
	ori	$a3, $a3, 3605
	lu32i.d	$a3, -125830
	lu52i.d	$a3, $a3, 1146
	mulh.du	$a3, $a2, $a3
	sub.d	$a2, $a2, $a3
	srli.d	$a2, $a2, 1
	add.d	$a2, $a2, $a3
	srli.d	$a2, $a2, 4
	mul.d	$a0, $a2, $a0
	addi.d	$a2, $a0, 26
	sltu	$a3, $s0, $a2
	maskeqz	$a2, $a2, $a3
	masknez	$a3, $s0, $a3
	or	$a2, $a2, $a3
	sub.d	$a0, $a2, $a0
	addi.d	$s8, $a0, -25
	move	$s7, $zero
	st.d	$s8, $sp, 64                    # 8-byte Folded Spill
	bstrins.d	$s8, $zero, 2, 0
	st.d	$s8, $sp, 48                    # 8-byte Folded Spill
	addi.d	$s8, $s1, 116
	lu12i.w	$a0, 65881
	ori	$s4, $a0, 1957
	lu12i.w	$a0, 392247
	ori	$fp, $a0, 760
	lu12i.w	$a0, -277912
	ori	$s3, $a0, 2488
	vrepli.b	$vr0, 0
	vst	$vr0, $sp, 32                   # 16-byte Folded Spill
	lu12i.w	$a0, -381906
	ori	$s5, $a0, 1088
	lu12i.w	$a0, -310021
	ori	$s6, $a0, 1536
	b	.LBB14_4
	.p2align	4, , 16
.LBB14_3:                               # %_Z9check_sumIiEvT_.exit.us
                                        #   in Loop: Header=BB14_4 Depth=1
	addi.w	$s7, $s7, 1
	bge	$s7, $a1, .LBB14_31
.LBB14_4:                               # %for.cond1.preheader.us
                                        # =>This Loop Header: Depth=1
                                        #     Child Loop BB14_5 Depth 2
                                        #     Child Loop BB14_9 Depth 2
                                        #     Child Loop BB14_12 Depth 2
	move	$a2, $zero
	move	$a0, $zero
	ori	$a4, $zero, 25
	move	$a5, $s8
	.p2align	4, , 16
.LBB14_5:                               # %for.body3.us
                                        #   Parent Loop BB14_4 Depth=1
                                        # =>  This Inner Loop Header: Depth=2
	alsl.d	$a3, $a2, $s1, 2
	slli.d	$a6, $a2, 2
	ldx.w	$a6, $s1, $a6
	ld.w	$a7, $a3, 4
	ld.w	$t0, $a3, 8
	ld.w	$t1, $a3, 12
	add.d	$a6, $a7, $a6
	ld.w	$a7, $a3, 16
	add.d	$a6, $a6, $t0
	ld.w	$t0, $a3, 20
	add.d	$a6, $a6, $t1
	ld.w	$t1, $a3, 24
	add.d	$a6, $a6, $a7
	ld.w	$a7, $a3, 28
	add.d	$a6, $a6, $t0
	ld.w	$t0, $a3, 32
	add.d	$a6, $a6, $t1
	ld.w	$t1, $a3, 36
	add.d	$a6, $a6, $a7
	ld.w	$a7, $a3, 40
	add.d	$a6, $a6, $t0
	ld.w	$t0, $a3, 44
	add.d	$a6, $a6, $t1
	ld.w	$t1, $a3, 48
	add.d	$a6, $a6, $a7
	ld.w	$a7, $a3, 52
	add.d	$a6, $a6, $t0
	ld.w	$t0, $a3, 56
	add.d	$a6, $a6, $t1
	ld.w	$t1, $a3, 60
	add.d	$a6, $a6, $a7
	ld.w	$a7, $a3, 64
	add.d	$a6, $a6, $t0
	ld.w	$t0, $a3, 68
	add.d	$a6, $a6, $t1
	ld.w	$t1, $a3, 72
	add.d	$a6, $a6, $a7
	ld.w	$a7, $a3, 76
	add.d	$a6, $a6, $t0
	ld.w	$t0, $a3, 80
	add.d	$a6, $a6, $t1
	ld.w	$t1, $a3, 84
	add.d	$a6, $a6, $a7
	ld.w	$a7, $a3, 88
	add.d	$a6, $a6, $t0
	ld.w	$t0, $a3, 92
	ld.w	$t2, $a3, 96
	add.d	$a3, $a6, $t1
	add.d	$a3, $a3, $a7
	add.d	$a7, $a3, $t0
	move	$a3, $a4
	move	$a6, $a5
	add.d	$a4, $a7, $t2
	mul.d	$a4, $a4, $s4
	add.d	$a0, $a0, $a4
	add.d	$a0, $a0, $fp
	addi.d	$a2, $a2, 25
	addi.d	$a4, $a3, 25
	addi.d	$a5, $a5, 100
	bltu	$a2, $s2, .LBB14_5
# %bb.6:                                # %for.cond1.for.cond4.preheader_crit_edge.us
                                        #   in Loop: Header=BB14_4 Depth=1
	addi.w	$a2, $a2, 0
	bge	$a2, $s0, .LBB14_13
# %bb.7:                                # %for.body6.us.preheader
                                        #   in Loop: Header=BB14_4 Depth=1
	ld.d	$a2, $sp, 64                    # 8-byte Folded Reload
	ori	$a4, $zero, 8
	bltu	$a2, $a4, .LBB14_11
# %bb.8:                                # %vector.ph114
                                        #   in Loop: Header=BB14_4 Depth=1
	ld.d	$a2, $sp, 48                    # 8-byte Folded Reload
	add.d	$a3, $a3, $a2
	vld	$vr1, $sp, 32                   # 16-byte Folded Reload
	vori.b	$vr0, $vr1, 0
	vinsgr2vr.w	$vr0, $a0, 0
	move	$a0, $a2
	.p2align	4, , 16
.LBB14_9:                               # %vector.body117
                                        #   Parent Loop BB14_4 Depth=1
                                        # =>  This Inner Loop Header: Depth=2
	vld	$vr2, $a6, -16
	vld	$vr3, $a6, 0
	vreplgr2vr.w	$vr4, $s4
	vmadd.w	$vr0, $vr2, $vr4
	vreplgr2vr.w	$vr2, $s3
	vmadd.w	$vr1, $vr3, $vr4
	vadd.w	$vr0, $vr0, $vr2
	vadd.w	$vr1, $vr1, $vr2
	addi.d	$a0, $a0, -8
	addi.d	$a6, $a6, 32
	bnez	$a0, .LBB14_9
# %bb.10:                               # %middle.block124
                                        #   in Loop: Header=BB14_4 Depth=1
	vadd.w	$vr0, $vr1, $vr0
	vhaddw.d.w	$vr0, $vr0, $vr0
	vhaddw.q.d	$vr0, $vr0, $vr0
	vpickve2gr.d	$a0, $vr0, 0
	ld.d	$a2, $sp, 64                    # 8-byte Folded Reload
	ld.d	$a4, $sp, 48                    # 8-byte Folded Reload
	beq	$a2, $a4, .LBB14_13
.LBB14_11:                              # %for.body6.us.preheader129
                                        #   in Loop: Header=BB14_4 Depth=1
	alsl.d	$a2, $a3, $s1, 2
	.p2align	4, , 16
.LBB14_12:                              # %for.body6.us
                                        #   Parent Loop BB14_4 Depth=1
                                        # =>  This Inner Loop Header: Depth=2
	ld.w	$a4, $a2, 0
	mul.d	$a4, $a4, $s4
	add.d	$a0, $a0, $a4
	add.d	$a0, $a0, $s3
	addi.d	$a3, $a3, 1
	addi.d	$a2, $a2, 4
	bltu	$a3, $s0, .LBB14_12
.LBB14_13:                              # %for.end9.us
                                        #   in Loop: Header=BB14_4 Depth=1
	pcalau12i	$a2, %pc_hi20(init_value)
	fld.d	$fa0, $a2, %pc_lo12(init_value)
	ftintrz.w.d	$fa0, $fa0
	movfr2gr.s	$a2, $fa0
	mul.d	$a2, $a2, $s5
	add.w	$a2, $a2, $s6
	addi.w	$a0, $a0, 0
	beq	$a0, $a2, .LBB14_3
# %bb.14:                               # %if.then.i.us
                                        #   in Loop: Header=BB14_4 Depth=1
	ld.d	$a0, $sp, 96                    # 8-byte Folded Reload
	ld.w	$a1, $a0, %pc_lo12(current_test)
	pcalau12i	$a0, %pc_hi20(.L.str.19)
	addi.d	$a0, $a0, %pc_lo12(.L.str.19)
	pcaddu18i	$ra, %call36(printf)
	jirl	$ra, $ra, 0
	ld.d	$a0, $sp, 88                    # 8-byte Folded Reload
	ld.w	$a1, $a0, %pc_lo12(iterations)
	b	.LBB14_3
.LBB14_15:                              # %for.cond1.preheader.lr.ph.split
	blez	$s0, .LBB14_27
# %bb.16:                               # %for.cond1.preheader.us64.preheader
	bstrpick.d	$a0, $s0, 30, 3
	slli.d	$fp, $a0, 3
	ori	$a5, $zero, 8
	lu12i.w	$a0, 65881
	ori	$s5, $a0, 1957
	lu12i.w	$a0, -277912
	ori	$s6, $a0, 2488
	pcalau12i	$s7, %pc_hi20(init_value)
	lu12i.w	$a0, -381906
	ori	$s8, $a0, 1088
	lu12i.w	$a0, -310021
	ori	$s3, $a0, 1536
	pcalau12i	$a0, %pc_hi20(.L.str.19)
	addi.d	$s2, $a0, %pc_lo12(.L.str.19)
	move	$s4, $zero
	vrepli.b	$vr0, 0
	vst	$vr0, $sp, 64                   # 16-byte Folded Spill
	vreplgr2vr.w	$vr4, $s5
	vreplgr2vr.w	$vr5, $s6
	vst	$vr4, $sp, 48                   # 16-byte Folded Spill
	vst	$vr5, $sp, 32                   # 16-byte Folded Spill
	b	.LBB14_18
	.p2align	4, , 16
.LBB14_17:                              # %_Z9check_sumIiEvT_.exit.us73
                                        #   in Loop: Header=BB14_18 Depth=1
	addi.w	$s4, $s4, 1
	bge	$s4, $a1, .LBB14_31
.LBB14_18:                              # %for.cond1.preheader.us64
                                        # =>This Loop Header: Depth=1
                                        #     Child Loop BB14_21 Depth 2
                                        #     Child Loop BB14_24 Depth 2
	bgeu	$s0, $a5, .LBB14_20
# %bb.19:                               #   in Loop: Header=BB14_18 Depth=1
	move	$a3, $zero
	move	$a0, $zero
	b	.LBB14_23
	.p2align	4, , 16
.LBB14_20:                              # %vector.body.preheader
                                        #   in Loop: Header=BB14_18 Depth=1
	addi.d	$a0, $s1, 16
	move	$a2, $fp
	vld	$vr1, $sp, 64                   # 16-byte Folded Reload
	vori.b	$vr0, $vr1, 0
	.p2align	4, , 16
.LBB14_21:                              # %vector.body
                                        #   Parent Loop BB14_18 Depth=1
                                        # =>  This Inner Loop Header: Depth=2
	vld	$vr2, $a0, -16
	vld	$vr3, $a0, 0
	vmadd.w	$vr0, $vr2, $vr4
	vmadd.w	$vr1, $vr3, $vr4
	vadd.w	$vr0, $vr0, $vr5
	vadd.w	$vr1, $vr1, $vr5
	addi.d	$a2, $a2, -8
	addi.d	$a0, $a0, 32
	bnez	$a2, .LBB14_21
# %bb.22:                               # %middle.block
                                        #   in Loop: Header=BB14_18 Depth=1
	vadd.w	$vr0, $vr1, $vr0
	vhaddw.d.w	$vr0, $vr0, $vr0
	vhaddw.q.d	$vr0, $vr0, $vr0
	vpickve2gr.d	$a0, $vr0, 0
	move	$a3, $fp
	beq	$fp, $s0, .LBB14_25
.LBB14_23:                              # %for.body6.us76.preheader
                                        #   in Loop: Header=BB14_18 Depth=1
	alsl.d	$a2, $a3, $s1, 2
	sub.d	$a3, $s0, $a3
	.p2align	4, , 16
.LBB14_24:                              # %for.body6.us76
                                        #   Parent Loop BB14_18 Depth=1
                                        # =>  This Inner Loop Header: Depth=2
	ld.w	$a4, $a2, 0
	mul.d	$a4, $a4, $s5
	add.d	$a0, $a0, $a4
	add.d	$a0, $a0, $s6
	addi.d	$a3, $a3, -1
	addi.d	$a2, $a2, 4
	bnez	$a3, .LBB14_24
.LBB14_25:                              # %for.cond4.for.end9_crit_edge.us86
                                        #   in Loop: Header=BB14_18 Depth=1
	fld.d	$fa0, $s7, %pc_lo12(init_value)
	ftintrz.w.d	$fa0, $fa0
	movfr2gr.s	$a2, $fa0
	mul.d	$a2, $a2, $s8
	add.w	$a2, $a2, $s3
	addi.w	$a0, $a0, 0
	beq	$a0, $a2, .LBB14_17
# %bb.26:                               # %if.then.i.us71
                                        #   in Loop: Header=BB14_18 Depth=1
	ld.d	$a0, $sp, 96                    # 8-byte Folded Reload
	ld.w	$a1, $a0, %pc_lo12(current_test)
	move	$a0, $s2
	pcaddu18i	$ra, %call36(printf)
	jirl	$ra, $ra, 0
	vld	$vr5, $sp, 32                   # 16-byte Folded Reload
	vld	$vr4, $sp, 48                   # 16-byte Folded Reload
	ori	$a5, $zero, 8
	ld.d	$a0, $sp, 88                    # 8-byte Folded Reload
	ld.w	$a1, $a0, %pc_lo12(iterations)
	b	.LBB14_17
.LBB14_27:                              # %for.cond1.preheader.preheader
	pcalau12i	$fp, %pc_hi20(init_value)
	fld.d	$fa0, $fp, %pc_lo12(init_value)
	lu12i.w	$a0, -381906
	ori	$s1, $a0, 1088
	lu12i.w	$a0, 310020
	ori	$s2, $a0, 2560
	pcalau12i	$a0, %pc_hi20(.L.str.19)
	addi.d	$s0, $a0, %pc_lo12(.L.str.19)
	move	$s3, $zero
	b	.LBB14_29
	.p2align	4, , 16
.LBB14_28:                              # %_Z9check_sumIiEvT_.exit
                                        #   in Loop: Header=BB14_29 Depth=1
	addi.w	$s3, $s3, 1
	bge	$s3, $a1, .LBB14_31
.LBB14_29:                              # %for.cond1.preheader
                                        # =>This Inner Loop Header: Depth=1
	ftintrz.w.d	$fa1, $fa0
	movfr2gr.s	$a0, $fa1
	mul.w	$a0, $a0, $s1
	beq	$a0, $s2, .LBB14_28
# %bb.30:                               # %if.then.i
                                        #   in Loop: Header=BB14_29 Depth=1
	ld.d	$a0, $sp, 96                    # 8-byte Folded Reload
	ld.w	$a1, $a0, %pc_lo12(current_test)
	move	$a0, $s0
	pcaddu18i	$ra, %call36(printf)
	jirl	$ra, $ra, 0
	fld.d	$fa0, $fp, %pc_lo12(init_value)
	ld.d	$a0, $sp, 88                    # 8-byte Folded Reload
	ld.w	$a1, $a0, %pc_lo12(iterations)
	b	.LBB14_28
.LBB14_31:                              # %for.end12
	pcaddu18i	$ra, %call36(clock)
	jirl	$ra, $ra, 0
	ld.d	$a1, $sp, 24                    # 8-byte Folded Reload
	ld.d	$fp, $a1, %pc_lo12(start_time)
	pcalau12i	$s2, %pc_hi20(results)
	ld.d	$a2, $s2, %pc_lo12(results)
	pcalau12i	$s1, %pc_hi20(allocated_results)
	ld.w	$a1, $s1, %pc_lo12(allocated_results)
	move	$s0, $a0
	pcalau12i	$a0, %pc_hi20(end_time)
	st.d	$s0, $a0, %pc_lo12(end_time)
	ld.d	$s3, $sp, 96                    # 8-byte Folded Reload
	beqz	$a2, .LBB14_33
# %bb.32:                               # %for.end12
	ld.w	$a0, $s3, %pc_lo12(current_test)
	blt	$a0, $a1, .LBB14_35
.LBB14_33:                              # %if.then.i11
	addi.w	$a0, $a1, 10
	st.w	$a0, $s1, %pc_lo12(allocated_results)
	slli.d	$a1, $a0, 4
	move	$a0, $a2
	pcaddu18i	$ra, %call36(realloc)
	jirl	$ra, $ra, 0
	st.d	$a0, $s2, %pc_lo12(results)
	beqz	$a0, .LBB14_36
# %bb.34:                               # %if.then.if.end5_crit_edge.i
	move	$a2, $a0
	ld.w	$a0, $s3, %pc_lo12(current_test)
.LBB14_35:                              # %_Z13record_resultdPKc.exit
	pcalau12i	$a1, %pc_hi20(.LCPI14_0)
	fld.d	$fa0, $a1, %pc_lo12(.LCPI14_0)
	sub.d	$a1, $s0, $fp
	movgr2fr.d	$fa1, $a1
	ffint.d.l	$fa1, $fa1
	fdiv.d	$fa0, $fa1, $fa0
	alsl.d	$a1, $a0, $a2, 4
	slli.d	$a3, $a0, 4
	fstx.d	$fa0, $a2, $a3
	ld.d	$a2, $sp, 16                    # 8-byte Folded Reload
	st.d	$a2, $a1, 8
	addi.d	$a0, $a0, 1
	st.w	$a0, $s3, %pc_lo12(current_test)
	ld.d	$s8, $sp, 104                   # 8-byte Folded Reload
	ld.d	$s7, $sp, 112                   # 8-byte Folded Reload
	ld.d	$s6, $sp, 120                   # 8-byte Folded Reload
	ld.d	$s5, $sp, 128                   # 8-byte Folded Reload
	ld.d	$s4, $sp, 136                   # 8-byte Folded Reload
	ld.d	$s3, $sp, 144                   # 8-byte Folded Reload
	ld.d	$s2, $sp, 152                   # 8-byte Folded Reload
	ld.d	$s1, $sp, 160                   # 8-byte Folded Reload
	ld.d	$s0, $sp, 168                   # 8-byte Folded Reload
	ld.d	$fp, $sp, 176                   # 8-byte Folded Reload
	ld.d	$ra, $sp, 184                   # 8-byte Folded Reload
	addi.d	$sp, $sp, 192
	ret
.LBB14_36:                              # %if.then3.i
	ld.w	$a1, $s1, %pc_lo12(allocated_results)
	pcalau12i	$a0, %pc_hi20(.L.str)
	addi.d	$a0, $a0, %pc_lo12(.L.str)
	pcaddu18i	$ra, %call36(printf)
	jirl	$ra, $ra, 0
	addi.w	$a0, $zero, -1
	pcaddu18i	$ra, %call36(exit)
	jirl	$ra, $ra, 0
.Lfunc_end14:
	.size	_Z27test_for_loop_unroll_factorILi25EiEvPKT0_iPKc, .Lfunc_end14-_Z27test_for_loop_unroll_factorILi25EiEvPKT0_iPKc
	.cfi_endproc
                                        # -- End function
	.section	.rodata.cst8,"aM",@progbits,8
	.p2align	3, 0x0                          # -- Begin function _Z27test_for_loop_unroll_factorILi24EiEvPKT0_iPKc
.LCPI15_0:
	.dword	0x412e848000000000              # double 1.0E+6
	.section	.text._Z27test_for_loop_unroll_factorILi24EiEvPKT0_iPKc,"axG",@progbits,_Z27test_for_loop_unroll_factorILi24EiEvPKT0_iPKc,comdat
	.weak	_Z27test_for_loop_unroll_factorILi24EiEvPKT0_iPKc
	.p2align	5
	.type	_Z27test_for_loop_unroll_factorILi24EiEvPKT0_iPKc,@function
_Z27test_for_loop_unroll_factorILi24EiEvPKT0_iPKc: # @_Z27test_for_loop_unroll_factorILi24EiEvPKT0_iPKc
	.cfi_startproc
# %bb.0:                                # %entry
	addi.d	$sp, $sp, -192
	.cfi_def_cfa_offset 192
	st.d	$ra, $sp, 184                   # 8-byte Folded Spill
	st.d	$fp, $sp, 176                   # 8-byte Folded Spill
	st.d	$s0, $sp, 168                   # 8-byte Folded Spill
	st.d	$s1, $sp, 160                   # 8-byte Folded Spill
	st.d	$s2, $sp, 152                   # 8-byte Folded Spill
	st.d	$s3, $sp, 144                   # 8-byte Folded Spill
	st.d	$s4, $sp, 136                   # 8-byte Folded Spill
	st.d	$s5, $sp, 128                   # 8-byte Folded Spill
	st.d	$s6, $sp, 120                   # 8-byte Folded Spill
	st.d	$s7, $sp, 112                   # 8-byte Folded Spill
	st.d	$s8, $sp, 104                   # 8-byte Folded Spill
	.cfi_offset 1, -8
	.cfi_offset 22, -16
	.cfi_offset 23, -24
	.cfi_offset 24, -32
	.cfi_offset 25, -40
	.cfi_offset 26, -48
	.cfi_offset 27, -56
	.cfi_offset 28, -64
	.cfi_offset 29, -72
	.cfi_offset 30, -80
	.cfi_offset 31, -88
	st.d	$a2, $sp, 16                    # 8-byte Folded Spill
	move	$s0, $a1
	move	$s1, $a0
	pcaddu18i	$ra, %call36(clock)
	jirl	$ra, $ra, 0
	pcalau12i	$a1, %pc_hi20(iterations)
	st.d	$a1, $sp, 88                    # 8-byte Folded Spill
	ld.w	$a1, $a1, %pc_lo12(iterations)
	pcalau12i	$a2, %pc_hi20(start_time)
	st.d	$a2, $sp, 24                    # 8-byte Folded Spill
	st.d	$a0, $a2, %pc_lo12(start_time)
	pcalau12i	$a0, %pc_hi20(current_test)
	st.d	$a0, $sp, 96                    # 8-byte Folded Spill
	blez	$a1, .LBB15_31
# %bb.1:                                # %for.cond1.preheader.lr.ph
	ori	$a0, $zero, 24
	blt	$s0, $a0, .LBB15_15
# %bb.2:                                # %for.cond1.preheader.us.preheader
	addi.d	$a2, $s0, -23
	bstrpick.d	$s2, $a2, 31, 0
	sltu	$a2, $a0, $s2
	masknez	$a3, $a0, $a2
	maskeqz	$a2, $s2, $a2
	or	$a2, $a2, $a3
	addi.d	$a2, $a2, -1
	lu12i.w	$a3, -349526
	ori	$a3, $a3, 2731
	lu32i.d	$a3, -349526
	lu52i.d	$a3, $a3, -1366
	mulh.du	$a2, $a2, $a3
	srli.d	$a2, $a2, 4
	mul.d	$a0, $a2, $a0
	addi.d	$a2, $a0, 25
	sltu	$a3, $s0, $a2
	maskeqz	$a2, $a2, $a3
	masknez	$a3, $s0, $a3
	or	$a2, $a2, $a3
	sub.d	$a0, $a2, $a0
	addi.d	$s8, $a0, -24
	move	$s7, $zero
	st.d	$s8, $sp, 64                    # 8-byte Folded Spill
	bstrins.d	$s8, $zero, 2, 0
	st.d	$s8, $sp, 48                    # 8-byte Folded Spill
	addi.d	$s8, $s1, 112
	lu12i.w	$a0, 65881
	ori	$s4, $a0, 1957
	lu12i.w	$a0, -378418
	ori	$fp, $a0, 2368
	lu12i.w	$a0, -277912
	ori	$s3, $a0, 2488
	vrepli.b	$vr0, 0
	vst	$vr0, $sp, 32                   # 16-byte Folded Spill
	lu12i.w	$a0, -381906
	ori	$s5, $a0, 1088
	lu12i.w	$a0, -310021
	ori	$s6, $a0, 1536
	b	.LBB15_4
	.p2align	4, , 16
.LBB15_3:                               # %_Z9check_sumIiEvT_.exit.us
                                        #   in Loop: Header=BB15_4 Depth=1
	addi.w	$s7, $s7, 1
	bge	$s7, $a1, .LBB15_31
.LBB15_4:                               # %for.cond1.preheader.us
                                        # =>This Loop Header: Depth=1
                                        #     Child Loop BB15_5 Depth 2
                                        #     Child Loop BB15_9 Depth 2
                                        #     Child Loop BB15_12 Depth 2
	move	$a2, $zero
	move	$a0, $zero
	ori	$a4, $zero, 24
	move	$a5, $s8
	.p2align	4, , 16
.LBB15_5:                               # %for.body3.us
                                        #   Parent Loop BB15_4 Depth=1
                                        # =>  This Inner Loop Header: Depth=2
	alsl.d	$a3, $a2, $s1, 2
	slli.d	$a6, $a2, 2
	ldx.w	$a6, $s1, $a6
	ld.w	$a7, $a3, 4
	ld.w	$t0, $a3, 8
	ld.w	$t1, $a3, 12
	add.d	$a6, $a7, $a6
	ld.w	$a7, $a3, 16
	add.d	$a6, $a6, $t0
	ld.w	$t0, $a3, 20
	add.d	$a6, $a6, $t1
	ld.w	$t1, $a3, 24
	add.d	$a6, $a6, $a7
	ld.w	$a7, $a3, 28
	add.d	$a6, $a6, $t0
	ld.w	$t0, $a3, 32
	add.d	$a6, $a6, $t1
	ld.w	$t1, $a3, 36
	add.d	$a6, $a6, $a7
	ld.w	$a7, $a3, 40
	add.d	$a6, $a6, $t0
	ld.w	$t0, $a3, 44
	add.d	$a6, $a6, $t1
	ld.w	$t1, $a3, 48
	add.d	$a6, $a6, $a7
	ld.w	$a7, $a3, 52
	add.d	$a6, $a6, $t0
	ld.w	$t0, $a3, 56
	add.d	$a6, $a6, $t1
	ld.w	$t1, $a3, 60
	add.d	$a6, $a6, $a7
	ld.w	$a7, $a3, 64
	add.d	$a6, $a6, $t0
	ld.w	$t0, $a3, 68
	add.d	$a6, $a6, $t1
	ld.w	$t1, $a3, 72
	add.d	$a6, $a6, $a7
	ld.w	$a7, $a3, 76
	add.d	$a6, $a6, $t0
	ld.w	$t0, $a3, 80
	add.d	$a6, $a6, $t1
	ld.w	$t1, $a3, 84
	add.d	$a6, $a6, $a7
	ld.w	$a7, $a3, 88
	ld.w	$t2, $a3, 92
	add.d	$a3, $a6, $t0
	add.d	$a3, $a3, $t1
	add.d	$a7, $a3, $a7
	move	$a3, $a4
	move	$a6, $a5
	add.d	$a4, $a7, $t2
	mul.d	$a4, $a4, $s4
	add.d	$a0, $a0, $a4
	add.d	$a0, $a0, $fp
	addi.d	$a2, $a2, 24
	addi.d	$a4, $a3, 24
	addi.d	$a5, $a5, 96
	bltu	$a2, $s2, .LBB15_5
# %bb.6:                                # %for.cond1.for.cond4.preheader_crit_edge.us
                                        #   in Loop: Header=BB15_4 Depth=1
	addi.w	$a2, $a2, 0
	bge	$a2, $s0, .LBB15_13
# %bb.7:                                # %for.body6.us.preheader
                                        #   in Loop: Header=BB15_4 Depth=1
	ld.d	$a2, $sp, 64                    # 8-byte Folded Reload
	ori	$a4, $zero, 8
	bltu	$a2, $a4, .LBB15_11
# %bb.8:                                # %vector.ph110
                                        #   in Loop: Header=BB15_4 Depth=1
	ld.d	$a2, $sp, 48                    # 8-byte Folded Reload
	add.d	$a3, $a3, $a2
	vld	$vr1, $sp, 32                   # 16-byte Folded Reload
	vori.b	$vr0, $vr1, 0
	vinsgr2vr.w	$vr0, $a0, 0
	move	$a0, $a2
	.p2align	4, , 16
.LBB15_9:                               # %vector.body113
                                        #   Parent Loop BB15_4 Depth=1
                                        # =>  This Inner Loop Header: Depth=2
	vld	$vr2, $a6, -16
	vld	$vr3, $a6, 0
	vreplgr2vr.w	$vr4, $s4
	vmadd.w	$vr0, $vr2, $vr4
	vreplgr2vr.w	$vr2, $s3
	vmadd.w	$vr1, $vr3, $vr4
	vadd.w	$vr0, $vr0, $vr2
	vadd.w	$vr1, $vr1, $vr2
	addi.d	$a0, $a0, -8
	addi.d	$a6, $a6, 32
	bnez	$a0, .LBB15_9
# %bb.10:                               # %middle.block120
                                        #   in Loop: Header=BB15_4 Depth=1
	vadd.w	$vr0, $vr1, $vr0
	vhaddw.d.w	$vr0, $vr0, $vr0
	vhaddw.q.d	$vr0, $vr0, $vr0
	vpickve2gr.d	$a0, $vr0, 0
	ld.d	$a2, $sp, 64                    # 8-byte Folded Reload
	ld.d	$a4, $sp, 48                    # 8-byte Folded Reload
	beq	$a2, $a4, .LBB15_13
.LBB15_11:                              # %for.body6.us.preheader125
                                        #   in Loop: Header=BB15_4 Depth=1
	alsl.d	$a2, $a3, $s1, 2
	.p2align	4, , 16
.LBB15_12:                              # %for.body6.us
                                        #   Parent Loop BB15_4 Depth=1
                                        # =>  This Inner Loop Header: Depth=2
	ld.w	$a4, $a2, 0
	mul.d	$a4, $a4, $s4
	add.d	$a0, $a0, $a4
	add.d	$a0, $a0, $s3
	addi.d	$a3, $a3, 1
	addi.d	$a2, $a2, 4
	bltu	$a3, $s0, .LBB15_12
.LBB15_13:                              # %for.end9.us
                                        #   in Loop: Header=BB15_4 Depth=1
	pcalau12i	$a2, %pc_hi20(init_value)
	fld.d	$fa0, $a2, %pc_lo12(init_value)
	ftintrz.w.d	$fa0, $fa0
	movfr2gr.s	$a2, $fa0
	mul.d	$a2, $a2, $s5
	add.w	$a2, $a2, $s6
	addi.w	$a0, $a0, 0
	beq	$a0, $a2, .LBB15_3
# %bb.14:                               # %if.then.i.us
                                        #   in Loop: Header=BB15_4 Depth=1
	ld.d	$a0, $sp, 96                    # 8-byte Folded Reload
	ld.w	$a1, $a0, %pc_lo12(current_test)
	pcalau12i	$a0, %pc_hi20(.L.str.19)
	addi.d	$a0, $a0, %pc_lo12(.L.str.19)
	pcaddu18i	$ra, %call36(printf)
	jirl	$ra, $ra, 0
	ld.d	$a0, $sp, 88                    # 8-byte Folded Reload
	ld.w	$a1, $a0, %pc_lo12(iterations)
	b	.LBB15_3
.LBB15_15:                              # %for.cond1.preheader.lr.ph.split
	blez	$s0, .LBB15_27
# %bb.16:                               # %for.cond1.preheader.us60.preheader
	bstrpick.d	$a0, $s0, 30, 3
	slli.d	$fp, $a0, 3
	ori	$a5, $zero, 8
	lu12i.w	$a0, 65881
	ori	$s5, $a0, 1957
	lu12i.w	$a0, -277912
	ori	$s6, $a0, 2488
	pcalau12i	$s7, %pc_hi20(init_value)
	lu12i.w	$a0, -381906
	ori	$s8, $a0, 1088
	lu12i.w	$a0, -310021
	ori	$s3, $a0, 1536
	pcalau12i	$a0, %pc_hi20(.L.str.19)
	addi.d	$s2, $a0, %pc_lo12(.L.str.19)
	move	$s4, $zero
	vrepli.b	$vr0, 0
	vst	$vr0, $sp, 64                   # 16-byte Folded Spill
	vreplgr2vr.w	$vr4, $s5
	vreplgr2vr.w	$vr5, $s6
	vst	$vr4, $sp, 48                   # 16-byte Folded Spill
	vst	$vr5, $sp, 32                   # 16-byte Folded Spill
	b	.LBB15_18
	.p2align	4, , 16
.LBB15_17:                              # %_Z9check_sumIiEvT_.exit.us69
                                        #   in Loop: Header=BB15_18 Depth=1
	addi.w	$s4, $s4, 1
	bge	$s4, $a1, .LBB15_31
.LBB15_18:                              # %for.cond1.preheader.us60
                                        # =>This Loop Header: Depth=1
                                        #     Child Loop BB15_21 Depth 2
                                        #     Child Loop BB15_24 Depth 2
	bgeu	$s0, $a5, .LBB15_20
# %bb.19:                               #   in Loop: Header=BB15_18 Depth=1
	move	$a3, $zero
	move	$a0, $zero
	b	.LBB15_23
	.p2align	4, , 16
.LBB15_20:                              # %vector.body.preheader
                                        #   in Loop: Header=BB15_18 Depth=1
	addi.d	$a0, $s1, 16
	move	$a2, $fp
	vld	$vr1, $sp, 64                   # 16-byte Folded Reload
	vori.b	$vr0, $vr1, 0
	.p2align	4, , 16
.LBB15_21:                              # %vector.body
                                        #   Parent Loop BB15_18 Depth=1
                                        # =>  This Inner Loop Header: Depth=2
	vld	$vr2, $a0, -16
	vld	$vr3, $a0, 0
	vmadd.w	$vr0, $vr2, $vr4
	vmadd.w	$vr1, $vr3, $vr4
	vadd.w	$vr0, $vr0, $vr5
	vadd.w	$vr1, $vr1, $vr5
	addi.d	$a2, $a2, -8
	addi.d	$a0, $a0, 32
	bnez	$a2, .LBB15_21
# %bb.22:                               # %middle.block
                                        #   in Loop: Header=BB15_18 Depth=1
	vadd.w	$vr0, $vr1, $vr0
	vhaddw.d.w	$vr0, $vr0, $vr0
	vhaddw.q.d	$vr0, $vr0, $vr0
	vpickve2gr.d	$a0, $vr0, 0
	move	$a3, $fp
	beq	$fp, $s0, .LBB15_25
.LBB15_23:                              # %for.body6.us72.preheader
                                        #   in Loop: Header=BB15_18 Depth=1
	alsl.d	$a2, $a3, $s1, 2
	sub.d	$a3, $s0, $a3
	.p2align	4, , 16
.LBB15_24:                              # %for.body6.us72
                                        #   Parent Loop BB15_18 Depth=1
                                        # =>  This Inner Loop Header: Depth=2
	ld.w	$a4, $a2, 0
	mul.d	$a4, $a4, $s5
	add.d	$a0, $a0, $a4
	add.d	$a0, $a0, $s6
	addi.d	$a3, $a3, -1
	addi.d	$a2, $a2, 4
	bnez	$a3, .LBB15_24
.LBB15_25:                              # %for.cond4.for.end9_crit_edge.us82
                                        #   in Loop: Header=BB15_18 Depth=1
	fld.d	$fa0, $s7, %pc_lo12(init_value)
	ftintrz.w.d	$fa0, $fa0
	movfr2gr.s	$a2, $fa0
	mul.d	$a2, $a2, $s8
	add.w	$a2, $a2, $s3
	addi.w	$a0, $a0, 0
	beq	$a0, $a2, .LBB15_17
# %bb.26:                               # %if.then.i.us67
                                        #   in Loop: Header=BB15_18 Depth=1
	ld.d	$a0, $sp, 96                    # 8-byte Folded Reload
	ld.w	$a1, $a0, %pc_lo12(current_test)
	move	$a0, $s2
	pcaddu18i	$ra, %call36(printf)
	jirl	$ra, $ra, 0
	vld	$vr5, $sp, 32                   # 16-byte Folded Reload
	vld	$vr4, $sp, 48                   # 16-byte Folded Reload
	ori	$a5, $zero, 8
	ld.d	$a0, $sp, 88                    # 8-byte Folded Reload
	ld.w	$a1, $a0, %pc_lo12(iterations)
	b	.LBB15_17
.LBB15_27:                              # %for.cond1.preheader.preheader
	pcalau12i	$fp, %pc_hi20(init_value)
	fld.d	$fa0, $fp, %pc_lo12(init_value)
	lu12i.w	$a0, -381906
	ori	$s1, $a0, 1088
	lu12i.w	$a0, 310020
	ori	$s2, $a0, 2560
	pcalau12i	$a0, %pc_hi20(.L.str.19)
	addi.d	$s0, $a0, %pc_lo12(.L.str.19)
	move	$s3, $zero
	b	.LBB15_29
	.p2align	4, , 16
.LBB15_28:                              # %_Z9check_sumIiEvT_.exit
                                        #   in Loop: Header=BB15_29 Depth=1
	addi.w	$s3, $s3, 1
	bge	$s3, $a1, .LBB15_31
.LBB15_29:                              # %for.cond1.preheader
                                        # =>This Inner Loop Header: Depth=1
	ftintrz.w.d	$fa1, $fa0
	movfr2gr.s	$a0, $fa1
	mul.w	$a0, $a0, $s1
	beq	$a0, $s2, .LBB15_28
# %bb.30:                               # %if.then.i
                                        #   in Loop: Header=BB15_29 Depth=1
	ld.d	$a0, $sp, 96                    # 8-byte Folded Reload
	ld.w	$a1, $a0, %pc_lo12(current_test)
	move	$a0, $s0
	pcaddu18i	$ra, %call36(printf)
	jirl	$ra, $ra, 0
	fld.d	$fa0, $fp, %pc_lo12(init_value)
	ld.d	$a0, $sp, 88                    # 8-byte Folded Reload
	ld.w	$a1, $a0, %pc_lo12(iterations)
	b	.LBB15_28
.LBB15_31:                              # %for.end12
	pcaddu18i	$ra, %call36(clock)
	jirl	$ra, $ra, 0
	ld.d	$a1, $sp, 24                    # 8-byte Folded Reload
	ld.d	$fp, $a1, %pc_lo12(start_time)
	pcalau12i	$s2, %pc_hi20(results)
	ld.d	$a2, $s2, %pc_lo12(results)
	pcalau12i	$s1, %pc_hi20(allocated_results)
	ld.w	$a1, $s1, %pc_lo12(allocated_results)
	move	$s0, $a0
	pcalau12i	$a0, %pc_hi20(end_time)
	st.d	$s0, $a0, %pc_lo12(end_time)
	ld.d	$s3, $sp, 96                    # 8-byte Folded Reload
	beqz	$a2, .LBB15_33
# %bb.32:                               # %for.end12
	ld.w	$a0, $s3, %pc_lo12(current_test)
	blt	$a0, $a1, .LBB15_35
.LBB15_33:                              # %if.then.i11
	addi.w	$a0, $a1, 10
	st.w	$a0, $s1, %pc_lo12(allocated_results)
	slli.d	$a1, $a0, 4
	move	$a0, $a2
	pcaddu18i	$ra, %call36(realloc)
	jirl	$ra, $ra, 0
	st.d	$a0, $s2, %pc_lo12(results)
	beqz	$a0, .LBB15_36
# %bb.34:                               # %if.then.if.end5_crit_edge.i
	move	$a2, $a0
	ld.w	$a0, $s3, %pc_lo12(current_test)
.LBB15_35:                              # %_Z13record_resultdPKc.exit
	pcalau12i	$a1, %pc_hi20(.LCPI15_0)
	fld.d	$fa0, $a1, %pc_lo12(.LCPI15_0)
	sub.d	$a1, $s0, $fp
	movgr2fr.d	$fa1, $a1
	ffint.d.l	$fa1, $fa1
	fdiv.d	$fa0, $fa1, $fa0
	alsl.d	$a1, $a0, $a2, 4
	slli.d	$a3, $a0, 4
	fstx.d	$fa0, $a2, $a3
	ld.d	$a2, $sp, 16                    # 8-byte Folded Reload
	st.d	$a2, $a1, 8
	addi.d	$a0, $a0, 1
	st.w	$a0, $s3, %pc_lo12(current_test)
	ld.d	$s8, $sp, 104                   # 8-byte Folded Reload
	ld.d	$s7, $sp, 112                   # 8-byte Folded Reload
	ld.d	$s6, $sp, 120                   # 8-byte Folded Reload
	ld.d	$s5, $sp, 128                   # 8-byte Folded Reload
	ld.d	$s4, $sp, 136                   # 8-byte Folded Reload
	ld.d	$s3, $sp, 144                   # 8-byte Folded Reload
	ld.d	$s2, $sp, 152                   # 8-byte Folded Reload
	ld.d	$s1, $sp, 160                   # 8-byte Folded Reload
	ld.d	$s0, $sp, 168                   # 8-byte Folded Reload
	ld.d	$fp, $sp, 176                   # 8-byte Folded Reload
	ld.d	$ra, $sp, 184                   # 8-byte Folded Reload
	addi.d	$sp, $sp, 192
	ret
.LBB15_36:                              # %if.then3.i
	ld.w	$a1, $s1, %pc_lo12(allocated_results)
	pcalau12i	$a0, %pc_hi20(.L.str)
	addi.d	$a0, $a0, %pc_lo12(.L.str)
	pcaddu18i	$ra, %call36(printf)
	jirl	$ra, $ra, 0
	addi.w	$a0, $zero, -1
	pcaddu18i	$ra, %call36(exit)
	jirl	$ra, $ra, 0
.Lfunc_end15:
	.size	_Z27test_for_loop_unroll_factorILi24EiEvPKT0_iPKc, .Lfunc_end15-_Z27test_for_loop_unroll_factorILi24EiEvPKT0_iPKc
	.cfi_endproc
                                        # -- End function
	.section	.rodata.cst8,"aM",@progbits,8
	.p2align	3, 0x0                          # -- Begin function _Z27test_for_loop_unroll_factorILi23EiEvPKT0_iPKc
.LCPI16_0:
	.dword	0x412e848000000000              # double 1.0E+6
	.section	.text._Z27test_for_loop_unroll_factorILi23EiEvPKT0_iPKc,"axG",@progbits,_Z27test_for_loop_unroll_factorILi23EiEvPKT0_iPKc,comdat
	.weak	_Z27test_for_loop_unroll_factorILi23EiEvPKT0_iPKc
	.p2align	5
	.type	_Z27test_for_loop_unroll_factorILi23EiEvPKT0_iPKc,@function
_Z27test_for_loop_unroll_factorILi23EiEvPKT0_iPKc: # @_Z27test_for_loop_unroll_factorILi23EiEvPKT0_iPKc
	.cfi_startproc
# %bb.0:                                # %entry
	addi.d	$sp, $sp, -192
	.cfi_def_cfa_offset 192
	st.d	$ra, $sp, 184                   # 8-byte Folded Spill
	st.d	$fp, $sp, 176                   # 8-byte Folded Spill
	st.d	$s0, $sp, 168                   # 8-byte Folded Spill
	st.d	$s1, $sp, 160                   # 8-byte Folded Spill
	st.d	$s2, $sp, 152                   # 8-byte Folded Spill
	st.d	$s3, $sp, 144                   # 8-byte Folded Spill
	st.d	$s4, $sp, 136                   # 8-byte Folded Spill
	st.d	$s5, $sp, 128                   # 8-byte Folded Spill
	st.d	$s6, $sp, 120                   # 8-byte Folded Spill
	st.d	$s7, $sp, 112                   # 8-byte Folded Spill
	st.d	$s8, $sp, 104                   # 8-byte Folded Spill
	.cfi_offset 1, -8
	.cfi_offset 22, -16
	.cfi_offset 23, -24
	.cfi_offset 24, -32
	.cfi_offset 25, -40
	.cfi_offset 26, -48
	.cfi_offset 27, -56
	.cfi_offset 28, -64
	.cfi_offset 29, -72
	.cfi_offset 30, -80
	.cfi_offset 31, -88
	st.d	$a2, $sp, 16                    # 8-byte Folded Spill
	move	$s0, $a1
	move	$s1, $a0
	pcaddu18i	$ra, %call36(clock)
	jirl	$ra, $ra, 0
	pcalau12i	$a1, %pc_hi20(iterations)
	st.d	$a1, $sp, 88                    # 8-byte Folded Spill
	ld.w	$a1, $a1, %pc_lo12(iterations)
	pcalau12i	$a2, %pc_hi20(start_time)
	st.d	$a2, $sp, 24                    # 8-byte Folded Spill
	st.d	$a0, $a2, %pc_lo12(start_time)
	pcalau12i	$a0, %pc_hi20(current_test)
	st.d	$a0, $sp, 96                    # 8-byte Folded Spill
	blez	$a1, .LBB16_31
# %bb.1:                                # %for.cond1.preheader.lr.ph
	ori	$a0, $zero, 23
	blt	$s0, $a0, .LBB16_15
# %bb.2:                                # %for.cond1.preheader.us.preheader
	addi.d	$a2, $s0, -22
	bstrpick.d	$s2, $a2, 31, 0
	sltu	$a2, $a0, $s2
	masknez	$a3, $a0, $a2
	maskeqz	$a2, $s2, $a2
	or	$a2, $a2, $a3
	addi.d	$a2, $a2, -1
	lu12i.w	$a3, -319132
	ori	$a3, $a3, 713
	lu32i.d	$a3, -227952
	lu52i.d	$a3, $a3, 1602
	mulh.du	$a3, $a2, $a3
	sub.d	$a2, $a2, $a3
	srli.d	$a2, $a2, 1
	add.d	$a2, $a2, $a3
	srli.d	$a2, $a2, 4
	mul.d	$a0, $a2, $a0
	addi.d	$a2, $a0, 24
	sltu	$a3, $s0, $a2
	maskeqz	$a2, $a2, $a3
	masknez	$a3, $s0, $a3
	or	$a2, $a2, $a3
	sub.d	$a0, $a2, $a0
	addi.d	$s8, $a0, -23
	move	$s7, $zero
	st.d	$s8, $sp, 64                    # 8-byte Folded Spill
	bstrins.d	$s8, $zero, 2, 0
	st.d	$s8, $sp, 48                    # 8-byte Folded Spill
	addi.d	$s8, $s1, 108
	lu12i.w	$a0, 65881
	ori	$s4, $a0, 1957
	lu12i.w	$a0, -100507
	ori	$fp, $a0, 3976
	lu12i.w	$a0, -277912
	ori	$s3, $a0, 2488
	vrepli.b	$vr0, 0
	vst	$vr0, $sp, 32                   # 16-byte Folded Spill
	lu12i.w	$a0, -381906
	ori	$s5, $a0, 1088
	lu12i.w	$a0, -310021
	ori	$s6, $a0, 1536
	b	.LBB16_4
	.p2align	4, , 16
.LBB16_3:                               # %_Z9check_sumIiEvT_.exit.us
                                        #   in Loop: Header=BB16_4 Depth=1
	addi.w	$s7, $s7, 1
	bge	$s7, $a1, .LBB16_31
.LBB16_4:                               # %for.cond1.preheader.us
                                        # =>This Loop Header: Depth=1
                                        #     Child Loop BB16_5 Depth 2
                                        #     Child Loop BB16_9 Depth 2
                                        #     Child Loop BB16_12 Depth 2
	move	$a2, $zero
	move	$a0, $zero
	ori	$a4, $zero, 23
	move	$a5, $s8
	.p2align	4, , 16
.LBB16_5:                               # %for.body3.us
                                        #   Parent Loop BB16_4 Depth=1
                                        # =>  This Inner Loop Header: Depth=2
	alsl.d	$a3, $a2, $s1, 2
	slli.d	$a6, $a2, 2
	ldx.w	$a6, $s1, $a6
	ld.w	$a7, $a3, 4
	ld.w	$t0, $a3, 8
	ld.w	$t1, $a3, 12
	add.d	$a6, $a7, $a6
	ld.w	$a7, $a3, 16
	add.d	$a6, $a6, $t0
	ld.w	$t0, $a3, 20
	add.d	$a6, $a6, $t1
	ld.w	$t1, $a3, 24
	add.d	$a6, $a6, $a7
	ld.w	$a7, $a3, 28
	add.d	$a6, $a6, $t0
	ld.w	$t0, $a3, 32
	add.d	$a6, $a6, $t1
	ld.w	$t1, $a3, 36
	add.d	$a6, $a6, $a7
	ld.w	$a7, $a3, 40
	add.d	$a6, $a6, $t0
	ld.w	$t0, $a3, 44
	add.d	$a6, $a6, $t1
	ld.w	$t1, $a3, 48
	add.d	$a6, $a6, $a7
	ld.w	$a7, $a3, 52
	add.d	$a6, $a6, $t0
	ld.w	$t0, $a3, 56
	add.d	$a6, $a6, $t1
	ld.w	$t1, $a3, 60
	add.d	$a6, $a6, $a7
	ld.w	$a7, $a3, 64
	add.d	$a6, $a6, $t0
	ld.w	$t0, $a3, 68
	add.d	$a6, $a6, $t1
	ld.w	$t1, $a3, 72
	add.d	$a6, $a6, $a7
	ld.w	$a7, $a3, 76
	add.d	$a6, $a6, $t0
	ld.w	$t0, $a3, 80
	add.d	$a6, $a6, $t1
	ld.w	$t1, $a3, 84
	ld.w	$t2, $a3, 88
	add.d	$a3, $a6, $a7
	add.d	$a3, $a3, $t0
	add.d	$a7, $a3, $t1
	move	$a3, $a4
	move	$a6, $a5
	add.d	$a4, $a7, $t2
	mul.d	$a4, $a4, $s4
	add.d	$a0, $a0, $a4
	add.d	$a0, $a0, $fp
	addi.d	$a2, $a2, 23
	addi.d	$a4, $a3, 23
	addi.d	$a5, $a5, 92
	bltu	$a2, $s2, .LBB16_5
# %bb.6:                                # %for.cond1.for.cond4.preheader_crit_edge.us
                                        #   in Loop: Header=BB16_4 Depth=1
	addi.w	$a2, $a2, 0
	bge	$a2, $s0, .LBB16_13
# %bb.7:                                # %for.body6.us.preheader
                                        #   in Loop: Header=BB16_4 Depth=1
	ld.d	$a2, $sp, 64                    # 8-byte Folded Reload
	ori	$a4, $zero, 8
	bltu	$a2, $a4, .LBB16_11
# %bb.8:                                # %vector.ph106
                                        #   in Loop: Header=BB16_4 Depth=1
	ld.d	$a2, $sp, 48                    # 8-byte Folded Reload
	add.d	$a3, $a3, $a2
	vld	$vr1, $sp, 32                   # 16-byte Folded Reload
	vori.b	$vr0, $vr1, 0
	vinsgr2vr.w	$vr0, $a0, 0
	move	$a0, $a2
	.p2align	4, , 16
.LBB16_9:                               # %vector.body109
                                        #   Parent Loop BB16_4 Depth=1
                                        # =>  This Inner Loop Header: Depth=2
	vld	$vr2, $a6, -16
	vld	$vr3, $a6, 0
	vreplgr2vr.w	$vr4, $s4
	vmadd.w	$vr0, $vr2, $vr4
	vreplgr2vr.w	$vr2, $s3
	vmadd.w	$vr1, $vr3, $vr4
	vadd.w	$vr0, $vr0, $vr2
	vadd.w	$vr1, $vr1, $vr2
	addi.d	$a0, $a0, -8
	addi.d	$a6, $a6, 32
	bnez	$a0, .LBB16_9
# %bb.10:                               # %middle.block116
                                        #   in Loop: Header=BB16_4 Depth=1
	vadd.w	$vr0, $vr1, $vr0
	vhaddw.d.w	$vr0, $vr0, $vr0
	vhaddw.q.d	$vr0, $vr0, $vr0
	vpickve2gr.d	$a0, $vr0, 0
	ld.d	$a2, $sp, 64                    # 8-byte Folded Reload
	ld.d	$a4, $sp, 48                    # 8-byte Folded Reload
	beq	$a2, $a4, .LBB16_13
.LBB16_11:                              # %for.body6.us.preheader121
                                        #   in Loop: Header=BB16_4 Depth=1
	alsl.d	$a2, $a3, $s1, 2
	.p2align	4, , 16
.LBB16_12:                              # %for.body6.us
                                        #   Parent Loop BB16_4 Depth=1
                                        # =>  This Inner Loop Header: Depth=2
	ld.w	$a4, $a2, 0
	mul.d	$a4, $a4, $s4
	add.d	$a0, $a0, $a4
	add.d	$a0, $a0, $s3
	addi.d	$a3, $a3, 1
	addi.d	$a2, $a2, 4
	bltu	$a3, $s0, .LBB16_12
.LBB16_13:                              # %for.end9.us
                                        #   in Loop: Header=BB16_4 Depth=1
	pcalau12i	$a2, %pc_hi20(init_value)
	fld.d	$fa0, $a2, %pc_lo12(init_value)
	ftintrz.w.d	$fa0, $fa0
	movfr2gr.s	$a2, $fa0
	mul.d	$a2, $a2, $s5
	add.w	$a2, $a2, $s6
	addi.w	$a0, $a0, 0
	beq	$a0, $a2, .LBB16_3
# %bb.14:                               # %if.then.i.us
                                        #   in Loop: Header=BB16_4 Depth=1
	ld.d	$a0, $sp, 96                    # 8-byte Folded Reload
	ld.w	$a1, $a0, %pc_lo12(current_test)
	pcalau12i	$a0, %pc_hi20(.L.str.19)
	addi.d	$a0, $a0, %pc_lo12(.L.str.19)
	pcaddu18i	$ra, %call36(printf)
	jirl	$ra, $ra, 0
	ld.d	$a0, $sp, 88                    # 8-byte Folded Reload
	ld.w	$a1, $a0, %pc_lo12(iterations)
	b	.LBB16_3
.LBB16_15:                              # %for.cond1.preheader.lr.ph.split
	blez	$s0, .LBB16_27
# %bb.16:                               # %for.cond1.preheader.us56.preheader
	bstrpick.d	$a0, $s0, 30, 3
	slli.d	$fp, $a0, 3
	ori	$a5, $zero, 8
	lu12i.w	$a0, 65881
	ori	$s5, $a0, 1957
	lu12i.w	$a0, -277912
	ori	$s6, $a0, 2488
	pcalau12i	$s7, %pc_hi20(init_value)
	lu12i.w	$a0, -381906
	ori	$s8, $a0, 1088
	lu12i.w	$a0, -310021
	ori	$s3, $a0, 1536
	pcalau12i	$a0, %pc_hi20(.L.str.19)
	addi.d	$s2, $a0, %pc_lo12(.L.str.19)
	move	$s4, $zero
	vrepli.b	$vr0, 0
	vst	$vr0, $sp, 64                   # 16-byte Folded Spill
	vreplgr2vr.w	$vr4, $s5
	vreplgr2vr.w	$vr5, $s6
	vst	$vr4, $sp, 48                   # 16-byte Folded Spill
	vst	$vr5, $sp, 32                   # 16-byte Folded Spill
	b	.LBB16_18
	.p2align	4, , 16
.LBB16_17:                              # %_Z9check_sumIiEvT_.exit.us65
                                        #   in Loop: Header=BB16_18 Depth=1
	addi.w	$s4, $s4, 1
	bge	$s4, $a1, .LBB16_31
.LBB16_18:                              # %for.cond1.preheader.us56
                                        # =>This Loop Header: Depth=1
                                        #     Child Loop BB16_21 Depth 2
                                        #     Child Loop BB16_24 Depth 2
	bgeu	$s0, $a5, .LBB16_20
# %bb.19:                               #   in Loop: Header=BB16_18 Depth=1
	move	$a3, $zero
	move	$a0, $zero
	b	.LBB16_23
	.p2align	4, , 16
.LBB16_20:                              # %vector.body.preheader
                                        #   in Loop: Header=BB16_18 Depth=1
	addi.d	$a0, $s1, 16
	move	$a2, $fp
	vld	$vr1, $sp, 64                   # 16-byte Folded Reload
	vori.b	$vr0, $vr1, 0
	.p2align	4, , 16
.LBB16_21:                              # %vector.body
                                        #   Parent Loop BB16_18 Depth=1
                                        # =>  This Inner Loop Header: Depth=2
	vld	$vr2, $a0, -16
	vld	$vr3, $a0, 0
	vmadd.w	$vr0, $vr2, $vr4
	vmadd.w	$vr1, $vr3, $vr4
	vadd.w	$vr0, $vr0, $vr5
	vadd.w	$vr1, $vr1, $vr5
	addi.d	$a2, $a2, -8
	addi.d	$a0, $a0, 32
	bnez	$a2, .LBB16_21
# %bb.22:                               # %middle.block
                                        #   in Loop: Header=BB16_18 Depth=1
	vadd.w	$vr0, $vr1, $vr0
	vhaddw.d.w	$vr0, $vr0, $vr0
	vhaddw.q.d	$vr0, $vr0, $vr0
	vpickve2gr.d	$a0, $vr0, 0
	move	$a3, $fp
	beq	$fp, $s0, .LBB16_25
.LBB16_23:                              # %for.body6.us68.preheader
                                        #   in Loop: Header=BB16_18 Depth=1
	alsl.d	$a2, $a3, $s1, 2
	sub.d	$a3, $s0, $a3
	.p2align	4, , 16
.LBB16_24:                              # %for.body6.us68
                                        #   Parent Loop BB16_18 Depth=1
                                        # =>  This Inner Loop Header: Depth=2
	ld.w	$a4, $a2, 0
	mul.d	$a4, $a4, $s5
	add.d	$a0, $a0, $a4
	add.d	$a0, $a0, $s6
	addi.d	$a3, $a3, -1
	addi.d	$a2, $a2, 4
	bnez	$a3, .LBB16_24
.LBB16_25:                              # %for.cond4.for.end9_crit_edge.us78
                                        #   in Loop: Header=BB16_18 Depth=1
	fld.d	$fa0, $s7, %pc_lo12(init_value)
	ftintrz.w.d	$fa0, $fa0
	movfr2gr.s	$a2, $fa0
	mul.d	$a2, $a2, $s8
	add.w	$a2, $a2, $s3
	addi.w	$a0, $a0, 0
	beq	$a0, $a2, .LBB16_17
# %bb.26:                               # %if.then.i.us63
                                        #   in Loop: Header=BB16_18 Depth=1
	ld.d	$a0, $sp, 96                    # 8-byte Folded Reload
	ld.w	$a1, $a0, %pc_lo12(current_test)
	move	$a0, $s2
	pcaddu18i	$ra, %call36(printf)
	jirl	$ra, $ra, 0
	vld	$vr5, $sp, 32                   # 16-byte Folded Reload
	vld	$vr4, $sp, 48                   # 16-byte Folded Reload
	ori	$a5, $zero, 8
	ld.d	$a0, $sp, 88                    # 8-byte Folded Reload
	ld.w	$a1, $a0, %pc_lo12(iterations)
	b	.LBB16_17
.LBB16_27:                              # %for.cond1.preheader.preheader
	pcalau12i	$fp, %pc_hi20(init_value)
	fld.d	$fa0, $fp, %pc_lo12(init_value)
	lu12i.w	$a0, -381906
	ori	$s1, $a0, 1088
	lu12i.w	$a0, 310020
	ori	$s2, $a0, 2560
	pcalau12i	$a0, %pc_hi20(.L.str.19)
	addi.d	$s0, $a0, %pc_lo12(.L.str.19)
	move	$s3, $zero
	b	.LBB16_29
	.p2align	4, , 16
.LBB16_28:                              # %_Z9check_sumIiEvT_.exit
                                        #   in Loop: Header=BB16_29 Depth=1
	addi.w	$s3, $s3, 1
	bge	$s3, $a1, .LBB16_31
.LBB16_29:                              # %for.cond1.preheader
                                        # =>This Inner Loop Header: Depth=1
	ftintrz.w.d	$fa1, $fa0
	movfr2gr.s	$a0, $fa1
	mul.w	$a0, $a0, $s1
	beq	$a0, $s2, .LBB16_28
# %bb.30:                               # %if.then.i
                                        #   in Loop: Header=BB16_29 Depth=1
	ld.d	$a0, $sp, 96                    # 8-byte Folded Reload
	ld.w	$a1, $a0, %pc_lo12(current_test)
	move	$a0, $s0
	pcaddu18i	$ra, %call36(printf)
	jirl	$ra, $ra, 0
	fld.d	$fa0, $fp, %pc_lo12(init_value)
	ld.d	$a0, $sp, 88                    # 8-byte Folded Reload
	ld.w	$a1, $a0, %pc_lo12(iterations)
	b	.LBB16_28
.LBB16_31:                              # %for.end12
	pcaddu18i	$ra, %call36(clock)
	jirl	$ra, $ra, 0
	ld.d	$a1, $sp, 24                    # 8-byte Folded Reload
	ld.d	$fp, $a1, %pc_lo12(start_time)
	pcalau12i	$s2, %pc_hi20(results)
	ld.d	$a2, $s2, %pc_lo12(results)
	pcalau12i	$s1, %pc_hi20(allocated_results)
	ld.w	$a1, $s1, %pc_lo12(allocated_results)
	move	$s0, $a0
	pcalau12i	$a0, %pc_hi20(end_time)
	st.d	$s0, $a0, %pc_lo12(end_time)
	ld.d	$s3, $sp, 96                    # 8-byte Folded Reload
	beqz	$a2, .LBB16_33
# %bb.32:                               # %for.end12
	ld.w	$a0, $s3, %pc_lo12(current_test)
	blt	$a0, $a1, .LBB16_35
.LBB16_33:                              # %if.then.i11
	addi.w	$a0, $a1, 10
	st.w	$a0, $s1, %pc_lo12(allocated_results)
	slli.d	$a1, $a0, 4
	move	$a0, $a2
	pcaddu18i	$ra, %call36(realloc)
	jirl	$ra, $ra, 0
	st.d	$a0, $s2, %pc_lo12(results)
	beqz	$a0, .LBB16_36
# %bb.34:                               # %if.then.if.end5_crit_edge.i
	move	$a2, $a0
	ld.w	$a0, $s3, %pc_lo12(current_test)
.LBB16_35:                              # %_Z13record_resultdPKc.exit
	pcalau12i	$a1, %pc_hi20(.LCPI16_0)
	fld.d	$fa0, $a1, %pc_lo12(.LCPI16_0)
	sub.d	$a1, $s0, $fp
	movgr2fr.d	$fa1, $a1
	ffint.d.l	$fa1, $fa1
	fdiv.d	$fa0, $fa1, $fa0
	alsl.d	$a1, $a0, $a2, 4
	slli.d	$a3, $a0, 4
	fstx.d	$fa0, $a2, $a3
	ld.d	$a2, $sp, 16                    # 8-byte Folded Reload
	st.d	$a2, $a1, 8
	addi.d	$a0, $a0, 1
	st.w	$a0, $s3, %pc_lo12(current_test)
	ld.d	$s8, $sp, 104                   # 8-byte Folded Reload
	ld.d	$s7, $sp, 112                   # 8-byte Folded Reload
	ld.d	$s6, $sp, 120                   # 8-byte Folded Reload
	ld.d	$s5, $sp, 128                   # 8-byte Folded Reload
	ld.d	$s4, $sp, 136                   # 8-byte Folded Reload
	ld.d	$s3, $sp, 144                   # 8-byte Folded Reload
	ld.d	$s2, $sp, 152                   # 8-byte Folded Reload
	ld.d	$s1, $sp, 160                   # 8-byte Folded Reload
	ld.d	$s0, $sp, 168                   # 8-byte Folded Reload
	ld.d	$fp, $sp, 176                   # 8-byte Folded Reload
	ld.d	$ra, $sp, 184                   # 8-byte Folded Reload
	addi.d	$sp, $sp, 192
	ret
.LBB16_36:                              # %if.then3.i
	ld.w	$a1, $s1, %pc_lo12(allocated_results)
	pcalau12i	$a0, %pc_hi20(.L.str)
	addi.d	$a0, $a0, %pc_lo12(.L.str)
	pcaddu18i	$ra, %call36(printf)
	jirl	$ra, $ra, 0
	addi.w	$a0, $zero, -1
	pcaddu18i	$ra, %call36(exit)
	jirl	$ra, $ra, 0
.Lfunc_end16:
	.size	_Z27test_for_loop_unroll_factorILi23EiEvPKT0_iPKc, .Lfunc_end16-_Z27test_for_loop_unroll_factorILi23EiEvPKT0_iPKc
	.cfi_endproc
                                        # -- End function
	.section	.rodata.cst8,"aM",@progbits,8
	.p2align	3, 0x0                          # -- Begin function _Z27test_for_loop_unroll_factorILi22EiEvPKT0_iPKc
.LCPI17_0:
	.dword	0x412e848000000000              # double 1.0E+6
	.section	.text._Z27test_for_loop_unroll_factorILi22EiEvPKT0_iPKc,"axG",@progbits,_Z27test_for_loop_unroll_factorILi22EiEvPKT0_iPKc,comdat
	.weak	_Z27test_for_loop_unroll_factorILi22EiEvPKT0_iPKc
	.p2align	5
	.type	_Z27test_for_loop_unroll_factorILi22EiEvPKT0_iPKc,@function
_Z27test_for_loop_unroll_factorILi22EiEvPKT0_iPKc: # @_Z27test_for_loop_unroll_factorILi22EiEvPKT0_iPKc
	.cfi_startproc
# %bb.0:                                # %entry
	addi.d	$sp, $sp, -192
	.cfi_def_cfa_offset 192
	st.d	$ra, $sp, 184                   # 8-byte Folded Spill
	st.d	$fp, $sp, 176                   # 8-byte Folded Spill
	st.d	$s0, $sp, 168                   # 8-byte Folded Spill
	st.d	$s1, $sp, 160                   # 8-byte Folded Spill
	st.d	$s2, $sp, 152                   # 8-byte Folded Spill
	st.d	$s3, $sp, 144                   # 8-byte Folded Spill
	st.d	$s4, $sp, 136                   # 8-byte Folded Spill
	st.d	$s5, $sp, 128                   # 8-byte Folded Spill
	st.d	$s6, $sp, 120                   # 8-byte Folded Spill
	st.d	$s7, $sp, 112                   # 8-byte Folded Spill
	st.d	$s8, $sp, 104                   # 8-byte Folded Spill
	.cfi_offset 1, -8
	.cfi_offset 22, -16
	.cfi_offset 23, -24
	.cfi_offset 24, -32
	.cfi_offset 25, -40
	.cfi_offset 26, -48
	.cfi_offset 27, -56
	.cfi_offset 28, -64
	.cfi_offset 29, -72
	.cfi_offset 30, -80
	.cfi_offset 31, -88
	st.d	$a2, $sp, 16                    # 8-byte Folded Spill
	move	$s0, $a1
	move	$s1, $a0
	pcaddu18i	$ra, %call36(clock)
	jirl	$ra, $ra, 0
	pcalau12i	$a1, %pc_hi20(iterations)
	st.d	$a1, $sp, 88                    # 8-byte Folded Spill
	ld.w	$a1, $a1, %pc_lo12(iterations)
	pcalau12i	$a2, %pc_hi20(start_time)
	st.d	$a2, $sp, 24                    # 8-byte Folded Spill
	st.d	$a0, $a2, %pc_lo12(start_time)
	pcalau12i	$a0, %pc_hi20(current_test)
	st.d	$a0, $sp, 96                    # 8-byte Folded Spill
	blez	$a1, .LBB17_31
# %bb.1:                                # %for.cond1.preheader.lr.ph
	ori	$a0, $zero, 22
	blt	$s0, $a0, .LBB17_15
# %bb.2:                                # %for.cond1.preheader.us.preheader
	addi.d	$a2, $s0, -21
	bstrpick.d	$s2, $a2, 31, 0
	sltu	$a2, $a0, $s2
	masknez	$a3, $a0, $a2
	maskeqz	$a2, $s2, $a2
	or	$a2, $a2, $a3
	addi.d	$a2, $a2, -1
	lu12i.w	$a3, -285976
	ori	$a3, $a3, 2979
	lu32i.d	$a3, -285976
	lu52i.d	$a3, $a3, 744
	mulh.du	$a2, $a2, $a3
	srli.d	$a2, $a2, 2
	mul.d	$a0, $a2, $a0
	addi.d	$a2, $a0, 23
	sltu	$a3, $s0, $a2
	maskeqz	$a2, $a2, $a3
	masknez	$a3, $s0, $a3
	or	$a2, $a2, $a3
	sub.d	$a0, $a2, $a0
	addi.d	$s8, $a0, -22
	move	$s7, $zero
	st.d	$s8, $sp, 64                    # 8-byte Folded Spill
	bstrins.d	$s8, $zero, 2, 0
	st.d	$s8, $sp, 48                    # 8-byte Folded Spill
	addi.d	$s8, $s1, 104
	lu12i.w	$a0, 65881
	ori	$s4, $a0, 1957
	lu12i.w	$a0, 177405
	ori	$fp, $a0, 1488
	lu12i.w	$a0, -277912
	ori	$s3, $a0, 2488
	vrepli.b	$vr0, 0
	vst	$vr0, $sp, 32                   # 16-byte Folded Spill
	lu12i.w	$a0, -381906
	ori	$s5, $a0, 1088
	lu12i.w	$a0, -310021
	ori	$s6, $a0, 1536
	b	.LBB17_4
	.p2align	4, , 16
.LBB17_3:                               # %_Z9check_sumIiEvT_.exit.us
                                        #   in Loop: Header=BB17_4 Depth=1
	addi.w	$s7, $s7, 1
	bge	$s7, $a1, .LBB17_31
.LBB17_4:                               # %for.cond1.preheader.us
                                        # =>This Loop Header: Depth=1
                                        #     Child Loop BB17_5 Depth 2
                                        #     Child Loop BB17_9 Depth 2
                                        #     Child Loop BB17_12 Depth 2
	move	$a3, $zero
	move	$a0, $zero
	ori	$a4, $zero, 22
	move	$a5, $s8
	.p2align	4, , 16
.LBB17_5:                               # %for.body3.us
                                        #   Parent Loop BB17_4 Depth=1
                                        # =>  This Inner Loop Header: Depth=2
	alsl.d	$a2, $a3, $s1, 2
	slli.d	$a6, $a3, 2
	ldx.w	$a6, $s1, $a6
	ld.w	$a7, $a2, 4
	ld.w	$t0, $a2, 8
	ld.w	$t1, $a2, 12
	add.d	$a6, $a7, $a6
	ld.w	$a7, $a2, 16
	add.d	$a6, $a6, $t0
	ld.w	$t0, $a2, 20
	add.d	$a6, $a6, $t1
	ld.w	$t1, $a2, 24
	add.d	$a6, $a6, $a7
	ld.w	$a7, $a2, 28
	add.d	$a6, $a6, $t0
	ld.w	$t0, $a2, 32
	add.d	$a6, $a6, $t1
	ld.w	$t1, $a2, 36
	add.d	$a6, $a6, $a7
	ld.w	$a7, $a2, 40
	add.d	$a6, $a6, $t0
	ld.w	$t0, $a2, 44
	add.d	$a6, $a6, $t1
	ld.w	$t1, $a2, 48
	add.d	$a6, $a6, $a7
	ld.w	$a7, $a2, 52
	add.d	$a6, $a6, $t0
	ld.w	$t0, $a2, 56
	add.d	$a6, $a6, $t1
	ld.w	$t1, $a2, 60
	add.d	$a6, $a6, $a7
	ld.w	$a7, $a2, 64
	add.d	$a6, $a6, $t0
	ld.w	$t0, $a2, 68
	add.d	$a6, $a6, $t1
	ld.w	$t1, $a2, 72
	add.d	$a6, $a6, $a7
	ld.w	$a7, $a2, 76
	add.d	$a6, $a6, $t0
	ld.w	$t0, $a2, 80
	ld.w	$t2, $a2, 84
	add.d	$a2, $a6, $t1
	add.d	$a2, $a2, $a7
	add.d	$a7, $a2, $t0
	move	$a2, $a4
	move	$a6, $a5
	add.d	$a4, $a7, $t2
	mul.d	$a4, $a4, $s4
	add.d	$a0, $a0, $a4
	add.d	$a0, $a0, $fp
	addi.d	$a3, $a3, 22
	addi.d	$a4, $a2, 22
	addi.d	$a5, $a5, 88
	bltu	$a3, $s2, .LBB17_5
# %bb.6:                                # %for.cond1.for.cond4.preheader_crit_edge.us
                                        #   in Loop: Header=BB17_4 Depth=1
	addi.w	$a3, $a3, 0
	bge	$a3, $s0, .LBB17_13
# %bb.7:                                # %for.body6.us.preheader
                                        #   in Loop: Header=BB17_4 Depth=1
	ld.d	$a3, $sp, 64                    # 8-byte Folded Reload
	ori	$a4, $zero, 8
	bltu	$a3, $a4, .LBB17_11
# %bb.8:                                # %vector.ph102
                                        #   in Loop: Header=BB17_4 Depth=1
	ld.d	$a3, $sp, 48                    # 8-byte Folded Reload
	add.d	$a2, $a2, $a3
	vld	$vr1, $sp, 32                   # 16-byte Folded Reload
	vori.b	$vr0, $vr1, 0
	vinsgr2vr.w	$vr0, $a0, 0
	move	$a0, $a3
	.p2align	4, , 16
.LBB17_9:                               # %vector.body105
                                        #   Parent Loop BB17_4 Depth=1
                                        # =>  This Inner Loop Header: Depth=2
	vld	$vr2, $a6, -16
	vld	$vr3, $a6, 0
	vreplgr2vr.w	$vr4, $s4
	vmadd.w	$vr0, $vr2, $vr4
	vreplgr2vr.w	$vr2, $s3
	vmadd.w	$vr1, $vr3, $vr4
	vadd.w	$vr0, $vr0, $vr2
	vadd.w	$vr1, $vr1, $vr2
	addi.d	$a0, $a0, -8
	addi.d	$a6, $a6, 32
	bnez	$a0, .LBB17_9
# %bb.10:                               # %middle.block112
                                        #   in Loop: Header=BB17_4 Depth=1
	vadd.w	$vr0, $vr1, $vr0
	vhaddw.d.w	$vr0, $vr0, $vr0
	vhaddw.q.d	$vr0, $vr0, $vr0
	vpickve2gr.d	$a0, $vr0, 0
	ld.d	$a3, $sp, 64                    # 8-byte Folded Reload
	ld.d	$a4, $sp, 48                    # 8-byte Folded Reload
	beq	$a3, $a4, .LBB17_13
.LBB17_11:                              # %for.body6.us.preheader117
                                        #   in Loop: Header=BB17_4 Depth=1
	alsl.d	$a3, $a2, $s1, 2
	.p2align	4, , 16
.LBB17_12:                              # %for.body6.us
                                        #   Parent Loop BB17_4 Depth=1
                                        # =>  This Inner Loop Header: Depth=2
	ld.w	$a4, $a3, 0
	mul.d	$a4, $a4, $s4
	add.d	$a0, $a0, $a4
	add.d	$a0, $a0, $s3
	addi.d	$a2, $a2, 1
	addi.d	$a3, $a3, 4
	bltu	$a2, $s0, .LBB17_12
.LBB17_13:                              # %for.end9.us
                                        #   in Loop: Header=BB17_4 Depth=1
	pcalau12i	$a2, %pc_hi20(init_value)
	fld.d	$fa0, $a2, %pc_lo12(init_value)
	ftintrz.w.d	$fa0, $fa0
	movfr2gr.s	$a2, $fa0
	mul.d	$a2, $a2, $s5
	add.w	$a2, $a2, $s6
	addi.w	$a0, $a0, 0
	beq	$a0, $a2, .LBB17_3
# %bb.14:                               # %if.then.i.us
                                        #   in Loop: Header=BB17_4 Depth=1
	ld.d	$a0, $sp, 96                    # 8-byte Folded Reload
	ld.w	$a1, $a0, %pc_lo12(current_test)
	pcalau12i	$a0, %pc_hi20(.L.str.19)
	addi.d	$a0, $a0, %pc_lo12(.L.str.19)
	pcaddu18i	$ra, %call36(printf)
	jirl	$ra, $ra, 0
	ld.d	$a0, $sp, 88                    # 8-byte Folded Reload
	ld.w	$a1, $a0, %pc_lo12(iterations)
	b	.LBB17_3
.LBB17_15:                              # %for.cond1.preheader.lr.ph.split
	blez	$s0, .LBB17_27
# %bb.16:                               # %for.cond1.preheader.us52.preheader
	bstrpick.d	$a0, $s0, 30, 3
	slli.d	$fp, $a0, 3
	ori	$a5, $zero, 8
	lu12i.w	$a0, 65881
	ori	$s5, $a0, 1957
	lu12i.w	$a0, -277912
	ori	$s6, $a0, 2488
	pcalau12i	$s7, %pc_hi20(init_value)
	lu12i.w	$a0, -381906
	ori	$s8, $a0, 1088
	lu12i.w	$a0, -310021
	ori	$s3, $a0, 1536
	pcalau12i	$a0, %pc_hi20(.L.str.19)
	addi.d	$s2, $a0, %pc_lo12(.L.str.19)
	move	$s4, $zero
	vrepli.b	$vr0, 0
	vst	$vr0, $sp, 64                   # 16-byte Folded Spill
	vreplgr2vr.w	$vr4, $s5
	vreplgr2vr.w	$vr5, $s6
	vst	$vr4, $sp, 48                   # 16-byte Folded Spill
	vst	$vr5, $sp, 32                   # 16-byte Folded Spill
	b	.LBB17_18
	.p2align	4, , 16
.LBB17_17:                              # %_Z9check_sumIiEvT_.exit.us61
                                        #   in Loop: Header=BB17_18 Depth=1
	addi.w	$s4, $s4, 1
	bge	$s4, $a1, .LBB17_31
.LBB17_18:                              # %for.cond1.preheader.us52
                                        # =>This Loop Header: Depth=1
                                        #     Child Loop BB17_21 Depth 2
                                        #     Child Loop BB17_24 Depth 2
	bgeu	$s0, $a5, .LBB17_20
# %bb.19:                               #   in Loop: Header=BB17_18 Depth=1
	move	$a3, $zero
	move	$a0, $zero
	b	.LBB17_23
	.p2align	4, , 16
.LBB17_20:                              # %vector.body.preheader
                                        #   in Loop: Header=BB17_18 Depth=1
	addi.d	$a0, $s1, 16
	move	$a2, $fp
	vld	$vr1, $sp, 64                   # 16-byte Folded Reload
	vori.b	$vr0, $vr1, 0
	.p2align	4, , 16
.LBB17_21:                              # %vector.body
                                        #   Parent Loop BB17_18 Depth=1
                                        # =>  This Inner Loop Header: Depth=2
	vld	$vr2, $a0, -16
	vld	$vr3, $a0, 0
	vmadd.w	$vr0, $vr2, $vr4
	vmadd.w	$vr1, $vr3, $vr4
	vadd.w	$vr0, $vr0, $vr5
	vadd.w	$vr1, $vr1, $vr5
	addi.d	$a2, $a2, -8
	addi.d	$a0, $a0, 32
	bnez	$a2, .LBB17_21
# %bb.22:                               # %middle.block
                                        #   in Loop: Header=BB17_18 Depth=1
	vadd.w	$vr0, $vr1, $vr0
	vhaddw.d.w	$vr0, $vr0, $vr0
	vhaddw.q.d	$vr0, $vr0, $vr0
	vpickve2gr.d	$a0, $vr0, 0
	move	$a3, $fp
	beq	$fp, $s0, .LBB17_25
.LBB17_23:                              # %for.body6.us64.preheader
                                        #   in Loop: Header=BB17_18 Depth=1
	alsl.d	$a2, $a3, $s1, 2
	sub.d	$a3, $s0, $a3
	.p2align	4, , 16
.LBB17_24:                              # %for.body6.us64
                                        #   Parent Loop BB17_18 Depth=1
                                        # =>  This Inner Loop Header: Depth=2
	ld.w	$a4, $a2, 0
	mul.d	$a4, $a4, $s5
	add.d	$a0, $a0, $a4
	add.d	$a0, $a0, $s6
	addi.d	$a3, $a3, -1
	addi.d	$a2, $a2, 4
	bnez	$a3, .LBB17_24
.LBB17_25:                              # %for.cond4.for.end9_crit_edge.us74
                                        #   in Loop: Header=BB17_18 Depth=1
	fld.d	$fa0, $s7, %pc_lo12(init_value)
	ftintrz.w.d	$fa0, $fa0
	movfr2gr.s	$a2, $fa0
	mul.d	$a2, $a2, $s8
	add.w	$a2, $a2, $s3
	addi.w	$a0, $a0, 0
	beq	$a0, $a2, .LBB17_17
# %bb.26:                               # %if.then.i.us59
                                        #   in Loop: Header=BB17_18 Depth=1
	ld.d	$a0, $sp, 96                    # 8-byte Folded Reload
	ld.w	$a1, $a0, %pc_lo12(current_test)
	move	$a0, $s2
	pcaddu18i	$ra, %call36(printf)
	jirl	$ra, $ra, 0
	vld	$vr5, $sp, 32                   # 16-byte Folded Reload
	vld	$vr4, $sp, 48                   # 16-byte Folded Reload
	ori	$a5, $zero, 8
	ld.d	$a0, $sp, 88                    # 8-byte Folded Reload
	ld.w	$a1, $a0, %pc_lo12(iterations)
	b	.LBB17_17
.LBB17_27:                              # %for.cond1.preheader.preheader
	pcalau12i	$fp, %pc_hi20(init_value)
	fld.d	$fa0, $fp, %pc_lo12(init_value)
	lu12i.w	$a0, -381906
	ori	$s1, $a0, 1088
	lu12i.w	$a0, 310020
	ori	$s2, $a0, 2560
	pcalau12i	$a0, %pc_hi20(.L.str.19)
	addi.d	$s0, $a0, %pc_lo12(.L.str.19)
	move	$s3, $zero
	b	.LBB17_29
	.p2align	4, , 16
.LBB17_28:                              # %_Z9check_sumIiEvT_.exit
                                        #   in Loop: Header=BB17_29 Depth=1
	addi.w	$s3, $s3, 1
	bge	$s3, $a1, .LBB17_31
.LBB17_29:                              # %for.cond1.preheader
                                        # =>This Inner Loop Header: Depth=1
	ftintrz.w.d	$fa1, $fa0
	movfr2gr.s	$a0, $fa1
	mul.w	$a0, $a0, $s1
	beq	$a0, $s2, .LBB17_28
# %bb.30:                               # %if.then.i
                                        #   in Loop: Header=BB17_29 Depth=1
	ld.d	$a0, $sp, 96                    # 8-byte Folded Reload
	ld.w	$a1, $a0, %pc_lo12(current_test)
	move	$a0, $s0
	pcaddu18i	$ra, %call36(printf)
	jirl	$ra, $ra, 0
	fld.d	$fa0, $fp, %pc_lo12(init_value)
	ld.d	$a0, $sp, 88                    # 8-byte Folded Reload
	ld.w	$a1, $a0, %pc_lo12(iterations)
	b	.LBB17_28
.LBB17_31:                              # %for.end12
	pcaddu18i	$ra, %call36(clock)
	jirl	$ra, $ra, 0
	ld.d	$a1, $sp, 24                    # 8-byte Folded Reload
	ld.d	$fp, $a1, %pc_lo12(start_time)
	pcalau12i	$s2, %pc_hi20(results)
	ld.d	$a2, $s2, %pc_lo12(results)
	pcalau12i	$s1, %pc_hi20(allocated_results)
	ld.w	$a1, $s1, %pc_lo12(allocated_results)
	move	$s0, $a0
	pcalau12i	$a0, %pc_hi20(end_time)
	st.d	$s0, $a0, %pc_lo12(end_time)
	ld.d	$s3, $sp, 96                    # 8-byte Folded Reload
	beqz	$a2, .LBB17_33
# %bb.32:                               # %for.end12
	ld.w	$a0, $s3, %pc_lo12(current_test)
	blt	$a0, $a1, .LBB17_35
.LBB17_33:                              # %if.then.i11
	addi.w	$a0, $a1, 10
	st.w	$a0, $s1, %pc_lo12(allocated_results)
	slli.d	$a1, $a0, 4
	move	$a0, $a2
	pcaddu18i	$ra, %call36(realloc)
	jirl	$ra, $ra, 0
	st.d	$a0, $s2, %pc_lo12(results)
	beqz	$a0, .LBB17_36
# %bb.34:                               # %if.then.if.end5_crit_edge.i
	move	$a2, $a0
	ld.w	$a0, $s3, %pc_lo12(current_test)
.LBB17_35:                              # %_Z13record_resultdPKc.exit
	pcalau12i	$a1, %pc_hi20(.LCPI17_0)
	fld.d	$fa0, $a1, %pc_lo12(.LCPI17_0)
	sub.d	$a1, $s0, $fp
	movgr2fr.d	$fa1, $a1
	ffint.d.l	$fa1, $fa1
	fdiv.d	$fa0, $fa1, $fa0
	alsl.d	$a1, $a0, $a2, 4
	slli.d	$a3, $a0, 4
	fstx.d	$fa0, $a2, $a3
	ld.d	$a2, $sp, 16                    # 8-byte Folded Reload
	st.d	$a2, $a1, 8
	addi.d	$a0, $a0, 1
	st.w	$a0, $s3, %pc_lo12(current_test)
	ld.d	$s8, $sp, 104                   # 8-byte Folded Reload
	ld.d	$s7, $sp, 112                   # 8-byte Folded Reload
	ld.d	$s6, $sp, 120                   # 8-byte Folded Reload
	ld.d	$s5, $sp, 128                   # 8-byte Folded Reload
	ld.d	$s4, $sp, 136                   # 8-byte Folded Reload
	ld.d	$s3, $sp, 144                   # 8-byte Folded Reload
	ld.d	$s2, $sp, 152                   # 8-byte Folded Reload
	ld.d	$s1, $sp, 160                   # 8-byte Folded Reload
	ld.d	$s0, $sp, 168                   # 8-byte Folded Reload
	ld.d	$fp, $sp, 176                   # 8-byte Folded Reload
	ld.d	$ra, $sp, 184                   # 8-byte Folded Reload
	addi.d	$sp, $sp, 192
	ret
.LBB17_36:                              # %if.then3.i
	ld.w	$a1, $s1, %pc_lo12(allocated_results)
	pcalau12i	$a0, %pc_hi20(.L.str)
	addi.d	$a0, $a0, %pc_lo12(.L.str)
	pcaddu18i	$ra, %call36(printf)
	jirl	$ra, $ra, 0
	addi.w	$a0, $zero, -1
	pcaddu18i	$ra, %call36(exit)
	jirl	$ra, $ra, 0
.Lfunc_end17:
	.size	_Z27test_for_loop_unroll_factorILi22EiEvPKT0_iPKc, .Lfunc_end17-_Z27test_for_loop_unroll_factorILi22EiEvPKT0_iPKc
	.cfi_endproc
                                        # -- End function
	.section	.rodata.cst8,"aM",@progbits,8
	.p2align	3, 0x0                          # -- Begin function _Z27test_for_loop_unroll_factorILi21EiEvPKT0_iPKc
.LCPI18_0:
	.dword	0x412e848000000000              # double 1.0E+6
	.section	.text._Z27test_for_loop_unroll_factorILi21EiEvPKT0_iPKc,"axG",@progbits,_Z27test_for_loop_unroll_factorILi21EiEvPKT0_iPKc,comdat
	.weak	_Z27test_for_loop_unroll_factorILi21EiEvPKT0_iPKc
	.p2align	5
	.type	_Z27test_for_loop_unroll_factorILi21EiEvPKT0_iPKc,@function
_Z27test_for_loop_unroll_factorILi21EiEvPKT0_iPKc: # @_Z27test_for_loop_unroll_factorILi21EiEvPKT0_iPKc
	.cfi_startproc
# %bb.0:                                # %entry
	addi.d	$sp, $sp, -192
	.cfi_def_cfa_offset 192
	st.d	$ra, $sp, 184                   # 8-byte Folded Spill
	st.d	$fp, $sp, 176                   # 8-byte Folded Spill
	st.d	$s0, $sp, 168                   # 8-byte Folded Spill
	st.d	$s1, $sp, 160                   # 8-byte Folded Spill
	st.d	$s2, $sp, 152                   # 8-byte Folded Spill
	st.d	$s3, $sp, 144                   # 8-byte Folded Spill
	st.d	$s4, $sp, 136                   # 8-byte Folded Spill
	st.d	$s5, $sp, 128                   # 8-byte Folded Spill
	st.d	$s6, $sp, 120                   # 8-byte Folded Spill
	st.d	$s7, $sp, 112                   # 8-byte Folded Spill
	st.d	$s8, $sp, 104                   # 8-byte Folded Spill
	.cfi_offset 1, -8
	.cfi_offset 22, -16
	.cfi_offset 23, -24
	.cfi_offset 24, -32
	.cfi_offset 25, -40
	.cfi_offset 26, -48
	.cfi_offset 27, -56
	.cfi_offset 28, -64
	.cfi_offset 29, -72
	.cfi_offset 30, -80
	.cfi_offset 31, -88
	st.d	$a2, $sp, 16                    # 8-byte Folded Spill
	move	$s0, $a1
	move	$s1, $a0
	pcaddu18i	$ra, %call36(clock)
	jirl	$ra, $ra, 0
	pcalau12i	$a1, %pc_hi20(iterations)
	st.d	$a1, $sp, 88                    # 8-byte Folded Spill
	ld.w	$a1, $a1, %pc_lo12(iterations)
	pcalau12i	$a2, %pc_hi20(start_time)
	st.d	$a2, $sp, 24                    # 8-byte Folded Spill
	st.d	$a0, $a2, %pc_lo12(start_time)
	pcalau12i	$a0, %pc_hi20(current_test)
	st.d	$a0, $sp, 96                    # 8-byte Folded Spill
	blez	$a1, .LBB18_31
# %bb.1:                                # %for.cond1.preheader.lr.ph
	ori	$a0, $zero, 21
	blt	$s0, $a0, .LBB18_15
# %bb.2:                                # %for.cond1.preheader.us.preheader
	addi.d	$a2, $s0, -20
	bstrpick.d	$s2, $a2, 31, 0
	sltu	$a2, $a0, $s2
	masknez	$a3, $a0, $a2
	maskeqz	$a2, $s2, $a2
	or	$a2, $a2, $a3
	addi.d	$a2, $a2, -1
	lu12i.w	$a3, 99864
	ori	$a3, $a3, 1561
	lu32i.d	$a3, -499322
	lu52i.d	$a3, $a3, -1951
	mulh.du	$a3, $a2, $a3
	sub.d	$a2, $a2, $a3
	srli.d	$a2, $a2, 1
	add.d	$a2, $a2, $a3
	srli.d	$a2, $a2, 4
	mul.d	$a0, $a2, $a0
	addi.d	$a2, $a0, 22
	sltu	$a3, $s0, $a2
	maskeqz	$a2, $a2, $a3
	masknez	$a3, $s0, $a3
	or	$a2, $a2, $a3
	sub.d	$a0, $a2, $a0
	addi.d	$s8, $a0, -21
	move	$s7, $zero
	st.d	$s8, $sp, 64                    # 8-byte Folded Spill
	bstrins.d	$s8, $zero, 2, 0
	st.d	$s8, $sp, 48                    # 8-byte Folded Spill
	addi.d	$s8, $s1, 100
	lu12i.w	$a0, 65881
	ori	$s4, $a0, 1957
	lu12i.w	$a0, 455316
	ori	$fp, $a0, 3096
	lu12i.w	$a0, -277912
	ori	$s3, $a0, 2488
	vrepli.b	$vr0, 0
	vst	$vr0, $sp, 32                   # 16-byte Folded Spill
	lu12i.w	$a0, -381906
	ori	$s5, $a0, 1088
	lu12i.w	$a0, -310021
	ori	$s6, $a0, 1536
	b	.LBB18_4
	.p2align	4, , 16
.LBB18_3:                               # %_Z9check_sumIiEvT_.exit.us
                                        #   in Loop: Header=BB18_4 Depth=1
	addi.w	$s7, $s7, 1
	bge	$s7, $a1, .LBB18_31
.LBB18_4:                               # %for.cond1.preheader.us
                                        # =>This Loop Header: Depth=1
                                        #     Child Loop BB18_5 Depth 2
                                        #     Child Loop BB18_9 Depth 2
                                        #     Child Loop BB18_12 Depth 2
	move	$a3, $zero
	move	$a0, $zero
	ori	$a4, $zero, 21
	move	$a5, $s8
	.p2align	4, , 16
.LBB18_5:                               # %for.body3.us
                                        #   Parent Loop BB18_4 Depth=1
                                        # =>  This Inner Loop Header: Depth=2
	alsl.d	$a2, $a3, $s1, 2
	slli.d	$a6, $a3, 2
	ldx.w	$a6, $s1, $a6
	ld.w	$a7, $a2, 4
	ld.w	$t0, $a2, 8
	ld.w	$t1, $a2, 12
	add.d	$a6, $a7, $a6
	ld.w	$a7, $a2, 16
	add.d	$a6, $a6, $t0
	ld.w	$t0, $a2, 20
	add.d	$a6, $a6, $t1
	ld.w	$t1, $a2, 24
	add.d	$a6, $a6, $a7
	ld.w	$a7, $a2, 28
	add.d	$a6, $a6, $t0
	ld.w	$t0, $a2, 32
	add.d	$a6, $a6, $t1
	ld.w	$t1, $a2, 36
	add.d	$a6, $a6, $a7
	ld.w	$a7, $a2, 40
	add.d	$a6, $a6, $t0
	ld.w	$t0, $a2, 44
	add.d	$a6, $a6, $t1
	ld.w	$t1, $a2, 48
	add.d	$a6, $a6, $a7
	ld.w	$a7, $a2, 52
	add.d	$a6, $a6, $t0
	ld.w	$t0, $a2, 56
	add.d	$a6, $a6, $t1
	ld.w	$t1, $a2, 60
	add.d	$a6, $a6, $a7
	ld.w	$a7, $a2, 64
	add.d	$a6, $a6, $t0
	ld.w	$t0, $a2, 68
	add.d	$a6, $a6, $t1
	ld.w	$t1, $a2, 72
	add.d	$a6, $a6, $a7
	ld.w	$a7, $a2, 76
	ld.w	$t2, $a2, 80
	add.d	$a2, $a6, $t0
	add.d	$a2, $a2, $t1
	add.d	$a7, $a2, $a7
	move	$a2, $a4
	move	$a6, $a5
	add.d	$a4, $a7, $t2
	mul.d	$a4, $a4, $s4
	add.d	$a0, $a0, $a4
	add.d	$a0, $a0, $fp
	addi.d	$a3, $a3, 21
	addi.d	$a4, $a2, 21
	addi.d	$a5, $a5, 84
	bltu	$a3, $s2, .LBB18_5
# %bb.6:                                # %for.cond1.for.cond4.preheader_crit_edge.us
                                        #   in Loop: Header=BB18_4 Depth=1
	addi.w	$a3, $a3, 0
	bge	$a3, $s0, .LBB18_13
# %bb.7:                                # %for.body6.us.preheader
                                        #   in Loop: Header=BB18_4 Depth=1
	ld.d	$a3, $sp, 64                    # 8-byte Folded Reload
	ori	$a4, $zero, 8
	bltu	$a3, $a4, .LBB18_11
# %bb.8:                                # %vector.ph97
                                        #   in Loop: Header=BB18_4 Depth=1
	ld.d	$a3, $sp, 48                    # 8-byte Folded Reload
	add.d	$a2, $a2, $a3
	vld	$vr1, $sp, 32                   # 16-byte Folded Reload
	vori.b	$vr0, $vr1, 0
	vinsgr2vr.w	$vr0, $a0, 0
	move	$a0, $a3
	.p2align	4, , 16
.LBB18_9:                               # %vector.body100
                                        #   Parent Loop BB18_4 Depth=1
                                        # =>  This Inner Loop Header: Depth=2
	vld	$vr2, $a6, -16
	vld	$vr3, $a6, 0
	vreplgr2vr.w	$vr4, $s4
	vmadd.w	$vr0, $vr2, $vr4
	vreplgr2vr.w	$vr2, $s3
	vmadd.w	$vr1, $vr3, $vr4
	vadd.w	$vr0, $vr0, $vr2
	vadd.w	$vr1, $vr1, $vr2
	addi.d	$a0, $a0, -8
	addi.d	$a6, $a6, 32
	bnez	$a0, .LBB18_9
# %bb.10:                               # %middle.block107
                                        #   in Loop: Header=BB18_4 Depth=1
	vadd.w	$vr0, $vr1, $vr0
	vhaddw.d.w	$vr0, $vr0, $vr0
	vhaddw.q.d	$vr0, $vr0, $vr0
	vpickve2gr.d	$a0, $vr0, 0
	ld.d	$a3, $sp, 64                    # 8-byte Folded Reload
	ld.d	$a4, $sp, 48                    # 8-byte Folded Reload
	beq	$a3, $a4, .LBB18_13
.LBB18_11:                              # %for.body6.us.preheader112
                                        #   in Loop: Header=BB18_4 Depth=1
	alsl.d	$a3, $a2, $s1, 2
	.p2align	4, , 16
.LBB18_12:                              # %for.body6.us
                                        #   Parent Loop BB18_4 Depth=1
                                        # =>  This Inner Loop Header: Depth=2
	ld.w	$a4, $a3, 0
	mul.d	$a4, $a4, $s4
	add.d	$a0, $a0, $a4
	add.d	$a0, $a0, $s3
	addi.d	$a2, $a2, 1
	addi.d	$a3, $a3, 4
	bltu	$a2, $s0, .LBB18_12
.LBB18_13:                              # %for.end9.us
                                        #   in Loop: Header=BB18_4 Depth=1
	pcalau12i	$a2, %pc_hi20(init_value)
	fld.d	$fa0, $a2, %pc_lo12(init_value)
	ftintrz.w.d	$fa0, $fa0
	movfr2gr.s	$a2, $fa0
	mul.d	$a2, $a2, $s5
	add.w	$a2, $a2, $s6
	addi.w	$a0, $a0, 0
	beq	$a0, $a2, .LBB18_3
# %bb.14:                               # %if.then.i.us
                                        #   in Loop: Header=BB18_4 Depth=1
	ld.d	$a0, $sp, 96                    # 8-byte Folded Reload
	ld.w	$a1, $a0, %pc_lo12(current_test)
	pcalau12i	$a0, %pc_hi20(.L.str.19)
	addi.d	$a0, $a0, %pc_lo12(.L.str.19)
	pcaddu18i	$ra, %call36(printf)
	jirl	$ra, $ra, 0
	ld.d	$a0, $sp, 88                    # 8-byte Folded Reload
	ld.w	$a1, $a0, %pc_lo12(iterations)
	b	.LBB18_3
.LBB18_15:                              # %for.cond1.preheader.lr.ph.split
	blez	$s0, .LBB18_27
# %bb.16:                               # %for.cond1.preheader.us47.preheader
	bstrpick.d	$a0, $s0, 30, 3
	slli.d	$fp, $a0, 3
	ori	$a5, $zero, 8
	lu12i.w	$a0, 65881
	ori	$s5, $a0, 1957
	lu12i.w	$a0, -277912
	ori	$s6, $a0, 2488
	pcalau12i	$s7, %pc_hi20(init_value)
	lu12i.w	$a0, -381906
	ori	$s8, $a0, 1088
	lu12i.w	$a0, -310021
	ori	$s3, $a0, 1536
	pcalau12i	$a0, %pc_hi20(.L.str.19)
	addi.d	$s2, $a0, %pc_lo12(.L.str.19)
	move	$s4, $zero
	vrepli.b	$vr0, 0
	vst	$vr0, $sp, 64                   # 16-byte Folded Spill
	vreplgr2vr.w	$vr4, $s5
	vreplgr2vr.w	$vr5, $s6
	vst	$vr4, $sp, 48                   # 16-byte Folded Spill
	vst	$vr5, $sp, 32                   # 16-byte Folded Spill
	b	.LBB18_18
	.p2align	4, , 16
.LBB18_17:                              # %_Z9check_sumIiEvT_.exit.us56
                                        #   in Loop: Header=BB18_18 Depth=1
	addi.w	$s4, $s4, 1
	bge	$s4, $a1, .LBB18_31
.LBB18_18:                              # %for.cond1.preheader.us47
                                        # =>This Loop Header: Depth=1
                                        #     Child Loop BB18_21 Depth 2
                                        #     Child Loop BB18_24 Depth 2
	bgeu	$s0, $a5, .LBB18_20
# %bb.19:                               #   in Loop: Header=BB18_18 Depth=1
	move	$a3, $zero
	move	$a0, $zero
	b	.LBB18_23
	.p2align	4, , 16
.LBB18_20:                              # %vector.body.preheader
                                        #   in Loop: Header=BB18_18 Depth=1
	addi.d	$a0, $s1, 16
	move	$a2, $fp
	vld	$vr1, $sp, 64                   # 16-byte Folded Reload
	vori.b	$vr0, $vr1, 0
	.p2align	4, , 16
.LBB18_21:                              # %vector.body
                                        #   Parent Loop BB18_18 Depth=1
                                        # =>  This Inner Loop Header: Depth=2
	vld	$vr2, $a0, -16
	vld	$vr3, $a0, 0
	vmadd.w	$vr0, $vr2, $vr4
	vmadd.w	$vr1, $vr3, $vr4
	vadd.w	$vr0, $vr0, $vr5
	vadd.w	$vr1, $vr1, $vr5
	addi.d	$a2, $a2, -8
	addi.d	$a0, $a0, 32
	bnez	$a2, .LBB18_21
# %bb.22:                               # %middle.block
                                        #   in Loop: Header=BB18_18 Depth=1
	vadd.w	$vr0, $vr1, $vr0
	vhaddw.d.w	$vr0, $vr0, $vr0
	vhaddw.q.d	$vr0, $vr0, $vr0
	vpickve2gr.d	$a0, $vr0, 0
	move	$a3, $fp
	beq	$fp, $s0, .LBB18_25
.LBB18_23:                              # %for.body6.us59.preheader
                                        #   in Loop: Header=BB18_18 Depth=1
	alsl.d	$a2, $a3, $s1, 2
	sub.d	$a3, $s0, $a3
	.p2align	4, , 16
.LBB18_24:                              # %for.body6.us59
                                        #   Parent Loop BB18_18 Depth=1
                                        # =>  This Inner Loop Header: Depth=2
	ld.w	$a4, $a2, 0
	mul.d	$a4, $a4, $s5
	add.d	$a0, $a0, $a4
	add.d	$a0, $a0, $s6
	addi.d	$a3, $a3, -1
	addi.d	$a2, $a2, 4
	bnez	$a3, .LBB18_24
.LBB18_25:                              # %for.cond4.for.end9_crit_edge.us69
                                        #   in Loop: Header=BB18_18 Depth=1
	fld.d	$fa0, $s7, %pc_lo12(init_value)
	ftintrz.w.d	$fa0, $fa0
	movfr2gr.s	$a2, $fa0
	mul.d	$a2, $a2, $s8
	add.w	$a2, $a2, $s3
	addi.w	$a0, $a0, 0
	beq	$a0, $a2, .LBB18_17
# %bb.26:                               # %if.then.i.us54
                                        #   in Loop: Header=BB18_18 Depth=1
	ld.d	$a0, $sp, 96                    # 8-byte Folded Reload
	ld.w	$a1, $a0, %pc_lo12(current_test)
	move	$a0, $s2
	pcaddu18i	$ra, %call36(printf)
	jirl	$ra, $ra, 0
	vld	$vr5, $sp, 32                   # 16-byte Folded Reload
	vld	$vr4, $sp, 48                   # 16-byte Folded Reload
	ori	$a5, $zero, 8
	ld.d	$a0, $sp, 88                    # 8-byte Folded Reload
	ld.w	$a1, $a0, %pc_lo12(iterations)
	b	.LBB18_17
.LBB18_27:                              # %for.cond1.preheader.preheader
	pcalau12i	$fp, %pc_hi20(init_value)
	fld.d	$fa0, $fp, %pc_lo12(init_value)
	lu12i.w	$a0, -381906
	ori	$s1, $a0, 1088
	lu12i.w	$a0, 310020
	ori	$s2, $a0, 2560
	pcalau12i	$a0, %pc_hi20(.L.str.19)
	addi.d	$s0, $a0, %pc_lo12(.L.str.19)
	move	$s3, $zero
	b	.LBB18_29
	.p2align	4, , 16
.LBB18_28:                              # %_Z9check_sumIiEvT_.exit
                                        #   in Loop: Header=BB18_29 Depth=1
	addi.w	$s3, $s3, 1
	bge	$s3, $a1, .LBB18_31
.LBB18_29:                              # %for.cond1.preheader
                                        # =>This Inner Loop Header: Depth=1
	ftintrz.w.d	$fa1, $fa0
	movfr2gr.s	$a0, $fa1
	mul.w	$a0, $a0, $s1
	beq	$a0, $s2, .LBB18_28
# %bb.30:                               # %if.then.i
                                        #   in Loop: Header=BB18_29 Depth=1
	ld.d	$a0, $sp, 96                    # 8-byte Folded Reload
	ld.w	$a1, $a0, %pc_lo12(current_test)
	move	$a0, $s0
	pcaddu18i	$ra, %call36(printf)
	jirl	$ra, $ra, 0
	fld.d	$fa0, $fp, %pc_lo12(init_value)
	ld.d	$a0, $sp, 88                    # 8-byte Folded Reload
	ld.w	$a1, $a0, %pc_lo12(iterations)
	b	.LBB18_28
.LBB18_31:                              # %for.end12
	pcaddu18i	$ra, %call36(clock)
	jirl	$ra, $ra, 0
	ld.d	$a1, $sp, 24                    # 8-byte Folded Reload
	ld.d	$fp, $a1, %pc_lo12(start_time)
	pcalau12i	$s2, %pc_hi20(results)
	ld.d	$a2, $s2, %pc_lo12(results)
	pcalau12i	$s1, %pc_hi20(allocated_results)
	ld.w	$a1, $s1, %pc_lo12(allocated_results)
	move	$s0, $a0
	pcalau12i	$a0, %pc_hi20(end_time)
	st.d	$s0, $a0, %pc_lo12(end_time)
	ld.d	$s3, $sp, 96                    # 8-byte Folded Reload
	beqz	$a2, .LBB18_33
# %bb.32:                               # %for.end12
	ld.w	$a0, $s3, %pc_lo12(current_test)
	blt	$a0, $a1, .LBB18_35
.LBB18_33:                              # %if.then.i11
	addi.w	$a0, $a1, 10
	st.w	$a0, $s1, %pc_lo12(allocated_results)
	slli.d	$a1, $a0, 4
	move	$a0, $a2
	pcaddu18i	$ra, %call36(realloc)
	jirl	$ra, $ra, 0
	st.d	$a0, $s2, %pc_lo12(results)
	beqz	$a0, .LBB18_36
# %bb.34:                               # %if.then.if.end5_crit_edge.i
	move	$a2, $a0
	ld.w	$a0, $s3, %pc_lo12(current_test)
.LBB18_35:                              # %_Z13record_resultdPKc.exit
	pcalau12i	$a1, %pc_hi20(.LCPI18_0)
	fld.d	$fa0, $a1, %pc_lo12(.LCPI18_0)
	sub.d	$a1, $s0, $fp
	movgr2fr.d	$fa1, $a1
	ffint.d.l	$fa1, $fa1
	fdiv.d	$fa0, $fa1, $fa0
	alsl.d	$a1, $a0, $a2, 4
	slli.d	$a3, $a0, 4
	fstx.d	$fa0, $a2, $a3
	ld.d	$a2, $sp, 16                    # 8-byte Folded Reload
	st.d	$a2, $a1, 8
	addi.d	$a0, $a0, 1
	st.w	$a0, $s3, %pc_lo12(current_test)
	ld.d	$s8, $sp, 104                   # 8-byte Folded Reload
	ld.d	$s7, $sp, 112                   # 8-byte Folded Reload
	ld.d	$s6, $sp, 120                   # 8-byte Folded Reload
	ld.d	$s5, $sp, 128                   # 8-byte Folded Reload
	ld.d	$s4, $sp, 136                   # 8-byte Folded Reload
	ld.d	$s3, $sp, 144                   # 8-byte Folded Reload
	ld.d	$s2, $sp, 152                   # 8-byte Folded Reload
	ld.d	$s1, $sp, 160                   # 8-byte Folded Reload
	ld.d	$s0, $sp, 168                   # 8-byte Folded Reload
	ld.d	$fp, $sp, 176                   # 8-byte Folded Reload
	ld.d	$ra, $sp, 184                   # 8-byte Folded Reload
	addi.d	$sp, $sp, 192
	ret
.LBB18_36:                              # %if.then3.i
	ld.w	$a1, $s1, %pc_lo12(allocated_results)
	pcalau12i	$a0, %pc_hi20(.L.str)
	addi.d	$a0, $a0, %pc_lo12(.L.str)
	pcaddu18i	$ra, %call36(printf)
	jirl	$ra, $ra, 0
	addi.w	$a0, $zero, -1
	pcaddu18i	$ra, %call36(exit)
	jirl	$ra, $ra, 0
.Lfunc_end18:
	.size	_Z27test_for_loop_unroll_factorILi21EiEvPKT0_iPKc, .Lfunc_end18-_Z27test_for_loop_unroll_factorILi21EiEvPKT0_iPKc
	.cfi_endproc
                                        # -- End function
	.section	.text._ZN14for_loop_testsILi19EiE7do_testEPKiPKc,"axG",@progbits,_ZN14for_loop_testsILi19EiE7do_testEPKiPKc,comdat
	.weak	_ZN14for_loop_testsILi19EiE7do_testEPKiPKc # -- Begin function _ZN14for_loop_testsILi19EiE7do_testEPKiPKc
	.p2align	5
	.type	_ZN14for_loop_testsILi19EiE7do_testEPKiPKc,@function
_ZN14for_loop_testsILi19EiE7do_testEPKiPKc: # @_ZN14for_loop_testsILi19EiE7do_testEPKiPKc
	.cfi_startproc
# %bb.0:                                # %entry
	addi.d	$sp, $sp, -32
	.cfi_def_cfa_offset 32
	st.d	$ra, $sp, 24                    # 8-byte Folded Spill
	st.d	$fp, $sp, 16                    # 8-byte Folded Spill
	st.d	$s0, $sp, 8                     # 8-byte Folded Spill
	st.d	$s1, $sp, 0                     # 8-byte Folded Spill
	.cfi_offset 1, -8
	.cfi_offset 22, -16
	.cfi_offset 23, -24
	.cfi_offset 24, -32
	move	$fp, $a0
	pcaddu18i	$ra, %call36(_ZN14for_loop_testsILi10EiE7do_testEPKiPKc)
	jirl	$ra, $ra, 0
	pcalau12i	$a0, %pc_hi20(temp_string)
	addi.d	$s1, $a0, %pc_lo12(temp_string)
	addi.d	$a2, $s1, 1000
	lu12i.w	$a0, 1
	ori	$s0, $a0, 3904
	move	$a0, $fp
	move	$a1, $s0
	pcaddu18i	$ra, %call36(_Z27test_for_loop_unroll_factorILi11EiEvPKT0_iPKc)
	jirl	$ra, $ra, 0
	addi.d	$a2, $s1, 1100
	move	$a0, $fp
	move	$a1, $s0
	pcaddu18i	$ra, %call36(_Z27test_for_loop_unroll_factorILi12EiEvPKT0_iPKc)
	jirl	$ra, $ra, 0
	addi.d	$a2, $s1, 1200
	move	$a0, $fp
	move	$a1, $s0
	pcaddu18i	$ra, %call36(_Z27test_for_loop_unroll_factorILi13EiEvPKT0_iPKc)
	jirl	$ra, $ra, 0
	addi.d	$a2, $s1, 1300
	move	$a0, $fp
	move	$a1, $s0
	pcaddu18i	$ra, %call36(_Z27test_for_loop_unroll_factorILi14EiEvPKT0_iPKc)
	jirl	$ra, $ra, 0
	addi.d	$a2, $s1, 1400
	move	$a0, $fp
	move	$a1, $s0
	pcaddu18i	$ra, %call36(_Z27test_for_loop_unroll_factorILi15EiEvPKT0_iPKc)
	jirl	$ra, $ra, 0
	addi.d	$a2, $s1, 1500
	move	$a0, $fp
	move	$a1, $s0
	pcaddu18i	$ra, %call36(_Z27test_for_loop_unroll_factorILi16EiEvPKT0_iPKc)
	jirl	$ra, $ra, 0
	addi.d	$a2, $s1, 1600
	move	$a0, $fp
	move	$a1, $s0
	pcaddu18i	$ra, %call36(_Z27test_for_loop_unroll_factorILi17EiEvPKT0_iPKc)
	jirl	$ra, $ra, 0
	addi.d	$a2, $s1, 1700
	move	$a0, $fp
	move	$a1, $s0
	pcaddu18i	$ra, %call36(_Z27test_for_loop_unroll_factorILi18EiEvPKT0_iPKc)
	jirl	$ra, $ra, 0
	addi.d	$a2, $s1, 1800
	move	$a0, $fp
	move	$a1, $s0
	ld.d	$s1, $sp, 0                     # 8-byte Folded Reload
	ld.d	$s0, $sp, 8                     # 8-byte Folded Reload
	ld.d	$fp, $sp, 16                    # 8-byte Folded Reload
	ld.d	$ra, $sp, 24                    # 8-byte Folded Reload
	addi.d	$sp, $sp, 32
	pcaddu18i	$t8, %call36(_Z27test_for_loop_unroll_factorILi19EiEvPKT0_iPKc)
	jr	$t8
.Lfunc_end19:
	.size	_ZN14for_loop_testsILi19EiE7do_testEPKiPKc, .Lfunc_end19-_ZN14for_loop_testsILi19EiE7do_testEPKiPKc
	.cfi_endproc
                                        # -- End function
	.section	.rodata.cst8,"aM",@progbits,8
	.p2align	3, 0x0                          # -- Begin function _Z27test_for_loop_unroll_factorILi20EiEvPKT0_iPKc
.LCPI20_0:
	.dword	0x412e848000000000              # double 1.0E+6
	.section	.text._Z27test_for_loop_unroll_factorILi20EiEvPKT0_iPKc,"axG",@progbits,_Z27test_for_loop_unroll_factorILi20EiEvPKT0_iPKc,comdat
	.weak	_Z27test_for_loop_unroll_factorILi20EiEvPKT0_iPKc
	.p2align	5
	.type	_Z27test_for_loop_unroll_factorILi20EiEvPKT0_iPKc,@function
_Z27test_for_loop_unroll_factorILi20EiEvPKT0_iPKc: # @_Z27test_for_loop_unroll_factorILi20EiEvPKT0_iPKc
	.cfi_startproc
# %bb.0:                                # %entry
	addi.d	$sp, $sp, -256
	.cfi_def_cfa_offset 256
	st.d	$ra, $sp, 248                   # 8-byte Folded Spill
	st.d	$fp, $sp, 240                   # 8-byte Folded Spill
	st.d	$s0, $sp, 232                   # 8-byte Folded Spill
	st.d	$s1, $sp, 224                   # 8-byte Folded Spill
	st.d	$s2, $sp, 216                   # 8-byte Folded Spill
	st.d	$s3, $sp, 208                   # 8-byte Folded Spill
	st.d	$s4, $sp, 200                   # 8-byte Folded Spill
	st.d	$s5, $sp, 192                   # 8-byte Folded Spill
	st.d	$s6, $sp, 184                   # 8-byte Folded Spill
	st.d	$s7, $sp, 176                   # 8-byte Folded Spill
	st.d	$s8, $sp, 168                   # 8-byte Folded Spill
	.cfi_offset 1, -8
	.cfi_offset 22, -16
	.cfi_offset 23, -24
	.cfi_offset 24, -32
	.cfi_offset 25, -40
	.cfi_offset 26, -48
	.cfi_offset 27, -56
	.cfi_offset 28, -64
	.cfi_offset 29, -72
	.cfi_offset 30, -80
	.cfi_offset 31, -88
	st.d	$a2, $sp, 16                    # 8-byte Folded Spill
	move	$s0, $a1
	move	$s1, $a0
	pcaddu18i	$ra, %call36(clock)
	jirl	$ra, $ra, 0
	pcalau12i	$a1, %pc_hi20(iterations)
	st.d	$a1, $sp, 112                   # 8-byte Folded Spill
	ld.w	$a4, $a1, %pc_lo12(iterations)
	pcalau12i	$a1, %pc_hi20(start_time)
	st.d	$a1, $sp, 24                    # 8-byte Folded Spill
	st.d	$a0, $a1, %pc_lo12(start_time)
	pcalau12i	$a0, %pc_hi20(current_test)
	st.d	$a0, $sp, 120                   # 8-byte Folded Spill
	blez	$a4, .LBB20_31
# %bb.1:                                # %for.cond1.preheader.lr.ph
	ori	$a0, $zero, 20
	blt	$s0, $a0, .LBB20_15
# %bb.2:                                # %for.cond1.preheader.us.preheader
	addi.d	$a2, $s0, -19
	bstrpick.d	$s2, $a2, 31, 0
	sltu	$a2, $a0, $s2
	masknez	$a3, $a0, $a2
	maskeqz	$a2, $s2, $a2
	or	$a2, $a2, $a3
	addi.d	$a2, $a2, -1
	lu12i.w	$a3, -209716
	ori	$a3, $a3, 3277
	lu32i.d	$a3, -209716
	lu52i.d	$a3, $a3, -820
	mulh.du	$a2, $a2, $a3
	srli.d	$a2, $a2, 4
	mul.d	$a0, $a2, $a0
	addi.d	$a2, $a0, 21
	sltu	$a3, $s0, $a2
	maskeqz	$a2, $a2, $a3
	masknez	$a3, $s0, $a3
	or	$a2, $a2, $a3
	sub.d	$a0, $a2, $a0
	addi.d	$a0, $a0, -20
	move	$a1, $zero
	st.d	$a0, $sp, 64                    # 8-byte Folded Spill
	bstrins.d	$a0, $zero, 2, 0
	st.d	$a0, $sp, 56                    # 8-byte Folded Spill
	lu12i.w	$a0, 65881
	ori	$s4, $a0, 1957
	lu12i.w	$a0, -315348
	ori	$fp, $a0, 608
	lu12i.w	$a0, -277912
	ori	$s5, $a0, 2488
	vrepli.b	$vr0, 0
	vst	$vr0, $sp, 32                   # 16-byte Folded Spill
	lu12i.w	$a0, -381906
	ori	$a0, $a0, 1088
	st.d	$a0, $sp, 80                    # 8-byte Folded Spill
	lu12i.w	$a0, -310021
	ori	$a0, $a0, 1536
	st.d	$a0, $sp, 72                    # 8-byte Folded Spill
	st.d	$s0, $sp, 104                   # 8-byte Folded Spill
	st.d	$s5, $sp, 48                    # 8-byte Folded Spill
	b	.LBB20_4
	.p2align	4, , 16
.LBB20_3:                               # %_Z9check_sumIiEvT_.exit.us
                                        #   in Loop: Header=BB20_4 Depth=1
	addi.w	$a1, $s3, 1
	bge	$a1, $a4, .LBB20_31
.LBB20_4:                               # %for.cond1.preheader.us
                                        # =>This Loop Header: Depth=1
                                        #     Child Loop BB20_5 Depth 2
                                        #     Child Loop BB20_9 Depth 2
                                        #     Child Loop BB20_12 Depth 2
	st.d	$a1, $sp, 128                   # 8-byte Folded Spill
	st.d	$a4, $sp, 144                   # 8-byte Folded Spill
	move	$a4, $zero
	move	$a2, $zero
	ori	$a5, $zero, 20
	addi.d	$a6, $s1, 96
	.p2align	4, , 16
.LBB20_5:                               # %for.body3.us
                                        #   Parent Loop BB20_4 Depth=1
                                        # =>  This Inner Loop Header: Depth=2
	move	$a0, $a5
	move	$a3, $a6
	alsl.d	$a5, $a4, $s1, 2
	slli.d	$a6, $a4, 2
	ldx.w	$a6, $s1, $a6
	ld.w	$a7, $a5, 4
	ld.w	$t0, $a5, 8
	ld.w	$t1, $a5, 12
	ld.w	$t2, $a5, 16
	ld.w	$t3, $a5, 20
	ld.w	$t4, $a5, 24
	ld.w	$t5, $a5, 28
	ld.w	$t6, $a5, 32
	ld.w	$t7, $a5, 36
	ld.w	$t8, $a5, 40
	ld.w	$ra, $a5, 44
	ld.w	$s8, $a5, 48
	ld.w	$s5, $a5, 52
	ld.w	$s6, $a5, 56
	ld.w	$a1, $a5, 60
	ld.w	$s7, $a5, 64
	ld.w	$s0, $a5, 68
	ld.w	$s3, $a5, 72
	ld.w	$a5, $a5, 76
	add.d	$a6, $a7, $a6
	add.d	$a6, $a6, $t0
	add.d	$a6, $a6, $t1
	add.d	$a6, $a6, $t2
	add.d	$a6, $a6, $t3
	add.d	$a6, $a6, $t4
	add.d	$a6, $a6, $t5
	add.d	$a6, $a6, $t6
	add.d	$a6, $a6, $t7
	add.d	$a6, $a6, $t8
	add.d	$a6, $a6, $ra
	add.d	$a6, $a6, $s8
	add.d	$a6, $a6, $s5
	add.d	$a6, $a6, $s6
	add.d	$a1, $a6, $a1
	add.d	$a1, $a1, $s7
	add.d	$a1, $a1, $s0
	add.d	$a1, $a1, $s3
	add.d	$a1, $a1, $a5
	mul.d	$a1, $a1, $s4
	add.d	$a1, $a2, $a1
	add.d	$a2, $a1, $fp
	addi.d	$a4, $a4, 20
	addi.d	$a5, $a0, 20
	addi.d	$a6, $a3, 80
	bltu	$a4, $s2, .LBB20_5
# %bb.6:                                # %for.cond1.for.cond4.preheader_crit_edge.us
                                        #   in Loop: Header=BB20_4 Depth=1
	addi.w	$a1, $a4, 0
	ld.d	$s0, $sp, 104                   # 8-byte Folded Reload
	bge	$a1, $s0, .LBB20_13
# %bb.7:                                # %for.body6.us.preheader
                                        #   in Loop: Header=BB20_4 Depth=1
	ld.d	$a1, $sp, 64                    # 8-byte Folded Reload
	ori	$a4, $zero, 8
	ld.d	$s5, $sp, 48                    # 8-byte Folded Reload
	bltu	$a1, $a4, .LBB20_11
# %bb.8:                                # %vector.ph96
                                        #   in Loop: Header=BB20_4 Depth=1
	ld.d	$a1, $sp, 56                    # 8-byte Folded Reload
	add.d	$a0, $a0, $a1
	vld	$vr1, $sp, 32                   # 16-byte Folded Reload
	vori.b	$vr0, $vr1, 0
	vinsgr2vr.w	$vr0, $a2, 0
	move	$a2, $a1
	.p2align	4, , 16
.LBB20_9:                               # %vector.body99
                                        #   Parent Loop BB20_4 Depth=1
                                        # =>  This Inner Loop Header: Depth=2
	vld	$vr2, $a3, -16
	vld	$vr3, $a3, 0
	vreplgr2vr.w	$vr4, $s4
	vmadd.w	$vr0, $vr2, $vr4
	vreplgr2vr.w	$vr2, $s5
	vmadd.w	$vr1, $vr3, $vr4
	vadd.w	$vr0, $vr0, $vr2
	vadd.w	$vr1, $vr1, $vr2
	addi.d	$a2, $a2, -8
	addi.d	$a3, $a3, 32
	bnez	$a2, .LBB20_9
# %bb.10:                               # %middle.block106
                                        #   in Loop: Header=BB20_4 Depth=1
	vadd.w	$vr0, $vr1, $vr0
	vhaddw.d.w	$vr0, $vr0, $vr0
	vhaddw.q.d	$vr0, $vr0, $vr0
	vpickve2gr.d	$a2, $vr0, 0
	ld.d	$a1, $sp, 64                    # 8-byte Folded Reload
	ld.d	$a3, $sp, 56                    # 8-byte Folded Reload
	beq	$a1, $a3, .LBB20_13
.LBB20_11:                              # %for.body6.us.preheader111
                                        #   in Loop: Header=BB20_4 Depth=1
	alsl.d	$a3, $a0, $s1, 2
	.p2align	4, , 16
.LBB20_12:                              # %for.body6.us
                                        #   Parent Loop BB20_4 Depth=1
                                        # =>  This Inner Loop Header: Depth=2
	ld.w	$a4, $a3, 0
	mul.d	$a4, $a4, $s4
	add.d	$a2, $a2, $a4
	add.d	$a2, $a2, $s5
	addi.d	$a0, $a0, 1
	addi.d	$a3, $a3, 4
	bltu	$a0, $s0, .LBB20_12
.LBB20_13:                              # %for.end9.us
                                        #   in Loop: Header=BB20_4 Depth=1
	pcalau12i	$a0, %pc_hi20(init_value)
	fld.d	$fa0, $a0, %pc_lo12(init_value)
	ftintrz.w.d	$fa0, $fa0
	movfr2gr.s	$a0, $fa0
	ld.d	$a1, $sp, 80                    # 8-byte Folded Reload
	mul.d	$a0, $a0, $a1
	ld.d	$a1, $sp, 72                    # 8-byte Folded Reload
	add.w	$a0, $a0, $a1
	addi.w	$a2, $a2, 0
	ld.d	$a4, $sp, 144                   # 8-byte Folded Reload
	ld.d	$s3, $sp, 128                   # 8-byte Folded Reload
	beq	$a2, $a0, .LBB20_3
# %bb.14:                               # %if.then.i.us
                                        #   in Loop: Header=BB20_4 Depth=1
	ld.d	$a0, $sp, 120                   # 8-byte Folded Reload
	ld.w	$a1, $a0, %pc_lo12(current_test)
	pcalau12i	$a0, %pc_hi20(.L.str.19)
	addi.d	$a0, $a0, %pc_lo12(.L.str.19)
	pcaddu18i	$ra, %call36(printf)
	jirl	$ra, $ra, 0
	ld.d	$a0, $sp, 112                   # 8-byte Folded Reload
	ld.w	$a4, $a0, %pc_lo12(iterations)
	b	.LBB20_3
.LBB20_15:                              # %for.cond1.preheader.lr.ph.split
	blez	$s0, .LBB20_27
# %bb.16:                               # %for.cond1.preheader.us46.preheader
	bstrpick.d	$a0, $s0, 30, 3
	slli.d	$fp, $a0, 3
	ori	$a5, $zero, 8
	lu12i.w	$a0, 65881
	ori	$s5, $a0, 1957
	lu12i.w	$a0, -277912
	ori	$s6, $a0, 2488
	pcalau12i	$s7, %pc_hi20(init_value)
	lu12i.w	$a0, -381906
	ori	$s8, $a0, 1088
	lu12i.w	$a0, -310021
	ori	$s3, $a0, 1536
	pcalau12i	$a0, %pc_hi20(.L.str.19)
	addi.d	$s2, $a0, %pc_lo12(.L.str.19)
	move	$s4, $zero
	vrepli.b	$vr0, 0
	vst	$vr0, $sp, 144                  # 16-byte Folded Spill
	vreplgr2vr.w	$vr4, $s5
	vreplgr2vr.w	$vr5, $s6
	vst	$vr4, $sp, 128                  # 16-byte Folded Spill
	vst	$vr5, $sp, 80                   # 16-byte Folded Spill
	b	.LBB20_18
	.p2align	4, , 16
.LBB20_17:                              # %_Z9check_sumIiEvT_.exit.us55
                                        #   in Loop: Header=BB20_18 Depth=1
	addi.w	$s4, $s4, 1
	bge	$s4, $a4, .LBB20_31
.LBB20_18:                              # %for.cond1.preheader.us46
                                        # =>This Loop Header: Depth=1
                                        #     Child Loop BB20_21 Depth 2
                                        #     Child Loop BB20_24 Depth 2
	bgeu	$s0, $a5, .LBB20_20
# %bb.19:                               #   in Loop: Header=BB20_18 Depth=1
	move	$a3, $zero
	move	$a0, $zero
	b	.LBB20_23
	.p2align	4, , 16
.LBB20_20:                              # %vector.body.preheader
                                        #   in Loop: Header=BB20_18 Depth=1
	addi.d	$a0, $s1, 16
	move	$a2, $fp
	vld	$vr1, $sp, 144                  # 16-byte Folded Reload
	vori.b	$vr0, $vr1, 0
	.p2align	4, , 16
.LBB20_21:                              # %vector.body
                                        #   Parent Loop BB20_18 Depth=1
                                        # =>  This Inner Loop Header: Depth=2
	vld	$vr2, $a0, -16
	vld	$vr3, $a0, 0
	vmadd.w	$vr0, $vr2, $vr4
	vmadd.w	$vr1, $vr3, $vr4
	vadd.w	$vr0, $vr0, $vr5
	vadd.w	$vr1, $vr1, $vr5
	addi.d	$a2, $a2, -8
	addi.d	$a0, $a0, 32
	bnez	$a2, .LBB20_21
# %bb.22:                               # %middle.block
                                        #   in Loop: Header=BB20_18 Depth=1
	vadd.w	$vr0, $vr1, $vr0
	vhaddw.d.w	$vr0, $vr0, $vr0
	vhaddw.q.d	$vr0, $vr0, $vr0
	vpickve2gr.d	$a0, $vr0, 0
	move	$a3, $fp
	beq	$fp, $s0, .LBB20_25
.LBB20_23:                              # %for.body6.us58.preheader
                                        #   in Loop: Header=BB20_18 Depth=1
	alsl.d	$a2, $a3, $s1, 2
	sub.d	$a3, $s0, $a3
	.p2align	4, , 16
.LBB20_24:                              # %for.body6.us58
                                        #   Parent Loop BB20_18 Depth=1
                                        # =>  This Inner Loop Header: Depth=2
	ld.w	$a1, $a2, 0
	mul.d	$a1, $a1, $s5
	add.d	$a0, $a0, $a1
	add.d	$a0, $a0, $s6
	addi.d	$a3, $a3, -1
	addi.d	$a2, $a2, 4
	bnez	$a3, .LBB20_24
.LBB20_25:                              # %for.cond4.for.end9_crit_edge.us68
                                        #   in Loop: Header=BB20_18 Depth=1
	fld.d	$fa0, $s7, %pc_lo12(init_value)
	ftintrz.w.d	$fa0, $fa0
	movfr2gr.s	$a1, $fa0
	mul.d	$a1, $a1, $s8
	add.w	$a1, $a1, $s3
	addi.w	$a0, $a0, 0
	beq	$a0, $a1, .LBB20_17
# %bb.26:                               # %if.then.i.us53
                                        #   in Loop: Header=BB20_18 Depth=1
	ld.d	$a0, $sp, 120                   # 8-byte Folded Reload
	ld.w	$a1, $a0, %pc_lo12(current_test)
	move	$a0, $s2
	pcaddu18i	$ra, %call36(printf)
	jirl	$ra, $ra, 0
	vld	$vr5, $sp, 80                   # 16-byte Folded Reload
	vld	$vr4, $sp, 128                  # 16-byte Folded Reload
	ori	$a5, $zero, 8
	ld.d	$a0, $sp, 112                   # 8-byte Folded Reload
	ld.w	$a4, $a0, %pc_lo12(iterations)
	b	.LBB20_17
.LBB20_27:                              # %for.cond1.preheader.preheader
	pcalau12i	$fp, %pc_hi20(init_value)
	fld.d	$fa0, $fp, %pc_lo12(init_value)
	lu12i.w	$a0, -381906
	ori	$s1, $a0, 1088
	lu12i.w	$a0, 310020
	ori	$s2, $a0, 2560
	pcalau12i	$a0, %pc_hi20(.L.str.19)
	addi.d	$s0, $a0, %pc_lo12(.L.str.19)
	move	$s3, $zero
	b	.LBB20_29
	.p2align	4, , 16
.LBB20_28:                              # %_Z9check_sumIiEvT_.exit
                                        #   in Loop: Header=BB20_29 Depth=1
	addi.w	$s3, $s3, 1
	bge	$s3, $a4, .LBB20_31
.LBB20_29:                              # %for.cond1.preheader
                                        # =>This Inner Loop Header: Depth=1
	ftintrz.w.d	$fa1, $fa0
	movfr2gr.s	$a0, $fa1
	mul.w	$a0, $a0, $s1
	beq	$a0, $s2, .LBB20_28
# %bb.30:                               # %if.then.i
                                        #   in Loop: Header=BB20_29 Depth=1
	ld.d	$a0, $sp, 120                   # 8-byte Folded Reload
	ld.w	$a1, $a0, %pc_lo12(current_test)
	move	$a0, $s0
	pcaddu18i	$ra, %call36(printf)
	jirl	$ra, $ra, 0
	fld.d	$fa0, $fp, %pc_lo12(init_value)
	ld.d	$a0, $sp, 112                   # 8-byte Folded Reload
	ld.w	$a4, $a0, %pc_lo12(iterations)
	b	.LBB20_28
.LBB20_31:                              # %for.end12
	pcaddu18i	$ra, %call36(clock)
	jirl	$ra, $ra, 0
	ld.d	$a1, $sp, 24                    # 8-byte Folded Reload
	ld.d	$fp, $a1, %pc_lo12(start_time)
	pcalau12i	$s2, %pc_hi20(results)
	ld.d	$a2, $s2, %pc_lo12(results)
	pcalau12i	$s1, %pc_hi20(allocated_results)
	ld.w	$a1, $s1, %pc_lo12(allocated_results)
	move	$s0, $a0
	pcalau12i	$a0, %pc_hi20(end_time)
	st.d	$s0, $a0, %pc_lo12(end_time)
	ld.d	$s3, $sp, 120                   # 8-byte Folded Reload
	beqz	$a2, .LBB20_33
# %bb.32:                               # %for.end12
	ld.w	$a0, $s3, %pc_lo12(current_test)
	blt	$a0, $a1, .LBB20_35
.LBB20_33:                              # %if.then.i11
	addi.w	$a0, $a1, 10
	st.w	$a0, $s1, %pc_lo12(allocated_results)
	slli.d	$a1, $a0, 4
	move	$a0, $a2
	pcaddu18i	$ra, %call36(realloc)
	jirl	$ra, $ra, 0
	st.d	$a0, $s2, %pc_lo12(results)
	beqz	$a0, .LBB20_36
# %bb.34:                               # %if.then.if.end5_crit_edge.i
	move	$a2, $a0
	ld.w	$a0, $s3, %pc_lo12(current_test)
.LBB20_35:                              # %_Z13record_resultdPKc.exit
	pcalau12i	$a1, %pc_hi20(.LCPI20_0)
	fld.d	$fa0, $a1, %pc_lo12(.LCPI20_0)
	sub.d	$a1, $s0, $fp
	movgr2fr.d	$fa1, $a1
	ffint.d.l	$fa1, $fa1
	fdiv.d	$fa0, $fa1, $fa0
	alsl.d	$a1, $a0, $a2, 4
	slli.d	$a3, $a0, 4
	fstx.d	$fa0, $a2, $a3
	ld.d	$a2, $sp, 16                    # 8-byte Folded Reload
	st.d	$a2, $a1, 8
	addi.d	$a0, $a0, 1
	st.w	$a0, $s3, %pc_lo12(current_test)
	ld.d	$s8, $sp, 168                   # 8-byte Folded Reload
	ld.d	$s7, $sp, 176                   # 8-byte Folded Reload
	ld.d	$s6, $sp, 184                   # 8-byte Folded Reload
	ld.d	$s5, $sp, 192                   # 8-byte Folded Reload
	ld.d	$s4, $sp, 200                   # 8-byte Folded Reload
	ld.d	$s3, $sp, 208                   # 8-byte Folded Reload
	ld.d	$s2, $sp, 216                   # 8-byte Folded Reload
	ld.d	$s1, $sp, 224                   # 8-byte Folded Reload
	ld.d	$s0, $sp, 232                   # 8-byte Folded Reload
	ld.d	$fp, $sp, 240                   # 8-byte Folded Reload
	ld.d	$ra, $sp, 248                   # 8-byte Folded Reload
	addi.d	$sp, $sp, 256
	ret
.LBB20_36:                              # %if.then3.i
	ld.w	$a1, $s1, %pc_lo12(allocated_results)
	pcalau12i	$a0, %pc_hi20(.L.str)
	addi.d	$a0, $a0, %pc_lo12(.L.str)
	pcaddu18i	$ra, %call36(printf)
	jirl	$ra, $ra, 0
	addi.w	$a0, $zero, -1
	pcaddu18i	$ra, %call36(exit)
	jirl	$ra, $ra, 0
.Lfunc_end20:
	.size	_Z27test_for_loop_unroll_factorILi20EiEvPKT0_iPKc, .Lfunc_end20-_Z27test_for_loop_unroll_factorILi20EiEvPKT0_iPKc
	.cfi_endproc
                                        # -- End function
	.section	.rodata.cst8,"aM",@progbits,8
	.p2align	3, 0x0                          # -- Begin function _Z27test_for_loop_unroll_factorILi19EiEvPKT0_iPKc
.LCPI21_0:
	.dword	0x412e848000000000              # double 1.0E+6
	.section	.text._Z27test_for_loop_unroll_factorILi19EiEvPKT0_iPKc,"axG",@progbits,_Z27test_for_loop_unroll_factorILi19EiEvPKT0_iPKc,comdat
	.weak	_Z27test_for_loop_unroll_factorILi19EiEvPKT0_iPKc
	.p2align	5
	.type	_Z27test_for_loop_unroll_factorILi19EiEvPKT0_iPKc,@function
_Z27test_for_loop_unroll_factorILi19EiEvPKT0_iPKc: # @_Z27test_for_loop_unroll_factorILi19EiEvPKT0_iPKc
	.cfi_startproc
# %bb.0:                                # %entry
	addi.d	$sp, $sp, -256
	.cfi_def_cfa_offset 256
	st.d	$ra, $sp, 248                   # 8-byte Folded Spill
	st.d	$fp, $sp, 240                   # 8-byte Folded Spill
	st.d	$s0, $sp, 232                   # 8-byte Folded Spill
	st.d	$s1, $sp, 224                   # 8-byte Folded Spill
	st.d	$s2, $sp, 216                   # 8-byte Folded Spill
	st.d	$s3, $sp, 208                   # 8-byte Folded Spill
	st.d	$s4, $sp, 200                   # 8-byte Folded Spill
	st.d	$s5, $sp, 192                   # 8-byte Folded Spill
	st.d	$s6, $sp, 184                   # 8-byte Folded Spill
	st.d	$s7, $sp, 176                   # 8-byte Folded Spill
	st.d	$s8, $sp, 168                   # 8-byte Folded Spill
	.cfi_offset 1, -8
	.cfi_offset 22, -16
	.cfi_offset 23, -24
	.cfi_offset 24, -32
	.cfi_offset 25, -40
	.cfi_offset 26, -48
	.cfi_offset 27, -56
	.cfi_offset 28, -64
	.cfi_offset 29, -72
	.cfi_offset 30, -80
	.cfi_offset 31, -88
	st.d	$a2, $sp, 16                    # 8-byte Folded Spill
	move	$s0, $a1
	move	$s1, $a0
	pcaddu18i	$ra, %call36(clock)
	jirl	$ra, $ra, 0
	pcalau12i	$a1, %pc_hi20(iterations)
	st.d	$a1, $sp, 112                   # 8-byte Folded Spill
	ld.w	$a4, $a1, %pc_lo12(iterations)
	pcalau12i	$a1, %pc_hi20(start_time)
	st.d	$a1, $sp, 24                    # 8-byte Folded Spill
	st.d	$a0, $a1, %pc_lo12(start_time)
	pcalau12i	$a0, %pc_hi20(current_test)
	st.d	$a0, $sp, 120                   # 8-byte Folded Spill
	blez	$a4, .LBB21_31
# %bb.1:                                # %for.cond1.preheader.lr.ph
	ori	$a0, $zero, 19
	blt	$s0, $a0, .LBB21_15
# %bb.2:                                # %for.cond1.preheader.us.preheader
	addi.d	$a2, $s0, -18
	bstrpick.d	$s2, $a2, 31, 0
	sltu	$a2, $a0, $s2
	masknez	$a3, $a0, $a2
	maskeqz	$a2, $s2, $a2
	or	$a2, $a2, $a3
	addi.d	$a2, $a2, -1
	lu12i.w	$a3, 55188
	ori	$a3, $a3, 863
	lu32i.d	$a3, 275941
	lu52i.d	$a3, $a3, -647
	mulh.du	$a2, $a2, $a3
	srli.d	$a2, $a2, 4
	mul.d	$a0, $a2, $a0
	addi.d	$a2, $a0, 20
	sltu	$a3, $s0, $a2
	maskeqz	$a2, $a2, $a3
	masknez	$a3, $s0, $a3
	or	$a2, $a2, $a3
	sub.d	$a0, $a2, $a0
	addi.d	$a0, $a0, -19
	move	$a1, $zero
	st.d	$a0, $sp, 64                    # 8-byte Folded Spill
	bstrins.d	$a0, $zero, 2, 0
	st.d	$a0, $sp, 56                    # 8-byte Folded Spill
	lu12i.w	$a0, 65881
	ori	$s4, $a0, 1957
	lu12i.w	$a0, -37437
	ori	$fp, $a0, 2216
	lu12i.w	$a0, -277912
	ori	$s3, $a0, 2488
	vrepli.b	$vr0, 0
	vst	$vr0, $sp, 32                   # 16-byte Folded Spill
	lu12i.w	$a0, -381906
	ori	$a0, $a0, 1088
	st.d	$a0, $sp, 80                    # 8-byte Folded Spill
	lu12i.w	$a0, -310021
	ori	$a0, $a0, 1536
	st.d	$a0, $sp, 72                    # 8-byte Folded Spill
	st.d	$s0, $sp, 104                   # 8-byte Folded Spill
	b	.LBB21_4
	.p2align	4, , 16
.LBB21_3:                               # %_Z9check_sumIiEvT_.exit.us
                                        #   in Loop: Header=BB21_4 Depth=1
	addi.w	$a1, $s5, 1
	bge	$a1, $a4, .LBB21_31
.LBB21_4:                               # %for.cond1.preheader.us
                                        # =>This Loop Header: Depth=1
                                        #     Child Loop BB21_5 Depth 2
                                        #     Child Loop BB21_9 Depth 2
                                        #     Child Loop BB21_12 Depth 2
	st.d	$a1, $sp, 128                   # 8-byte Folded Spill
	st.d	$a4, $sp, 144                   # 8-byte Folded Spill
	move	$a4, $zero
	move	$a2, $zero
	ori	$a5, $zero, 19
	addi.d	$a6, $s1, 92
	.p2align	4, , 16
.LBB21_5:                               # %for.body3.us
                                        #   Parent Loop BB21_4 Depth=1
                                        # =>  This Inner Loop Header: Depth=2
	move	$a0, $a5
	move	$a3, $a6
	alsl.d	$a5, $a4, $s1, 2
	slli.d	$a6, $a4, 2
	ldx.w	$a6, $s1, $a6
	ld.w	$a7, $a5, 4
	ld.w	$t0, $a5, 8
	ld.w	$t1, $a5, 12
	ld.w	$t2, $a5, 16
	ld.w	$t3, $a5, 20
	ld.w	$t4, $a5, 24
	ld.w	$t5, $a5, 28
	ld.w	$t6, $a5, 32
	ld.w	$t7, $a5, 36
	ld.w	$t8, $a5, 40
	ld.w	$ra, $a5, 44
	ld.w	$s8, $a5, 48
	ld.w	$s5, $a5, 52
	ld.w	$s6, $a5, 56
	ld.w	$a1, $a5, 60
	ld.w	$s7, $a5, 64
	ld.w	$s0, $a5, 68
	ld.w	$a5, $a5, 72
	add.d	$a6, $a7, $a6
	add.d	$a6, $a6, $t0
	add.d	$a6, $a6, $t1
	add.d	$a6, $a6, $t2
	add.d	$a6, $a6, $t3
	add.d	$a6, $a6, $t4
	add.d	$a6, $a6, $t5
	add.d	$a6, $a6, $t6
	add.d	$a6, $a6, $t7
	add.d	$a6, $a6, $t8
	add.d	$a6, $a6, $ra
	add.d	$a6, $a6, $s8
	add.d	$a6, $a6, $s5
	add.d	$a6, $a6, $s6
	add.d	$a1, $a6, $a1
	add.d	$a1, $a1, $s7
	add.d	$a1, $a1, $s0
	add.d	$a1, $a1, $a5
	mul.d	$a1, $a1, $s4
	add.d	$a1, $a2, $a1
	add.d	$a2, $a1, $fp
	addi.d	$a4, $a4, 19
	addi.d	$a5, $a0, 19
	addi.d	$a6, $a3, 76
	bltu	$a4, $s2, .LBB21_5
# %bb.6:                                # %for.cond1.for.cond4.preheader_crit_edge.us
                                        #   in Loop: Header=BB21_4 Depth=1
	addi.w	$a1, $a4, 0
	ld.d	$s0, $sp, 104                   # 8-byte Folded Reload
	bge	$a1, $s0, .LBB21_13
# %bb.7:                                # %for.body6.us.preheader
                                        #   in Loop: Header=BB21_4 Depth=1
	ld.d	$a1, $sp, 64                    # 8-byte Folded Reload
	ori	$a4, $zero, 8
	bltu	$a1, $a4, .LBB21_11
# %bb.8:                                # %vector.ph95
                                        #   in Loop: Header=BB21_4 Depth=1
	ld.d	$a1, $sp, 56                    # 8-byte Folded Reload
	add.d	$a0, $a0, $a1
	vld	$vr1, $sp, 32                   # 16-byte Folded Reload
	vori.b	$vr0, $vr1, 0
	vinsgr2vr.w	$vr0, $a2, 0
	move	$a2, $a1
	.p2align	4, , 16
.LBB21_9:                               # %vector.body98
                                        #   Parent Loop BB21_4 Depth=1
                                        # =>  This Inner Loop Header: Depth=2
	vld	$vr2, $a3, -16
	vld	$vr3, $a3, 0
	vreplgr2vr.w	$vr4, $s4
	vmadd.w	$vr0, $vr2, $vr4
	vreplgr2vr.w	$vr2, $s3
	vmadd.w	$vr1, $vr3, $vr4
	vadd.w	$vr0, $vr0, $vr2
	vadd.w	$vr1, $vr1, $vr2
	addi.d	$a2, $a2, -8
	addi.d	$a3, $a3, 32
	bnez	$a2, .LBB21_9
# %bb.10:                               # %middle.block105
                                        #   in Loop: Header=BB21_4 Depth=1
	vadd.w	$vr0, $vr1, $vr0
	vhaddw.d.w	$vr0, $vr0, $vr0
	vhaddw.q.d	$vr0, $vr0, $vr0
	vpickve2gr.d	$a2, $vr0, 0
	ld.d	$a1, $sp, 64                    # 8-byte Folded Reload
	ld.d	$a3, $sp, 56                    # 8-byte Folded Reload
	beq	$a1, $a3, .LBB21_13
.LBB21_11:                              # %for.body6.us.preheader110
                                        #   in Loop: Header=BB21_4 Depth=1
	alsl.d	$a3, $a0, $s1, 2
	.p2align	4, , 16
.LBB21_12:                              # %for.body6.us
                                        #   Parent Loop BB21_4 Depth=1
                                        # =>  This Inner Loop Header: Depth=2
	ld.w	$a4, $a3, 0
	mul.d	$a4, $a4, $s4
	add.d	$a2, $a2, $a4
	add.d	$a2, $a2, $s3
	addi.d	$a0, $a0, 1
	addi.d	$a3, $a3, 4
	bltu	$a0, $s0, .LBB21_12
.LBB21_13:                              # %for.end9.us
                                        #   in Loop: Header=BB21_4 Depth=1
	pcalau12i	$a0, %pc_hi20(init_value)
	fld.d	$fa0, $a0, %pc_lo12(init_value)
	ftintrz.w.d	$fa0, $fa0
	movfr2gr.s	$a0, $fa0
	ld.d	$a1, $sp, 80                    # 8-byte Folded Reload
	mul.d	$a0, $a0, $a1
	ld.d	$a1, $sp, 72                    # 8-byte Folded Reload
	add.w	$a0, $a0, $a1
	addi.w	$a2, $a2, 0
	ld.d	$a4, $sp, 144                   # 8-byte Folded Reload
	ld.d	$s5, $sp, 128                   # 8-byte Folded Reload
	beq	$a2, $a0, .LBB21_3
# %bb.14:                               # %if.then.i.us
                                        #   in Loop: Header=BB21_4 Depth=1
	ld.d	$a0, $sp, 120                   # 8-byte Folded Reload
	ld.w	$a1, $a0, %pc_lo12(current_test)
	pcalau12i	$a0, %pc_hi20(.L.str.19)
	addi.d	$a0, $a0, %pc_lo12(.L.str.19)
	pcaddu18i	$ra, %call36(printf)
	jirl	$ra, $ra, 0
	ld.d	$a0, $sp, 112                   # 8-byte Folded Reload
	ld.w	$a4, $a0, %pc_lo12(iterations)
	b	.LBB21_3
.LBB21_15:                              # %for.cond1.preheader.lr.ph.split
	blez	$s0, .LBB21_27
# %bb.16:                               # %for.cond1.preheader.us45.preheader
	bstrpick.d	$a0, $s0, 30, 3
