	.file	"simple_types_constant_folding.cpp"
	.text
	.globl	_Z13record_resultdPKc           # -- Begin function _Z13record_resultdPKc
	.p2align	5
	.type	_Z13record_resultdPKc,@function
_Z13record_resultdPKc:                  # @_Z13record_resultdPKc
# %bb.0:                                # %entry
	addi.d	$sp, $sp, -48
	st.d	$ra, $sp, 40                    # 8-byte Folded Spill
	st.d	$fp, $sp, 32                    # 8-byte Folded Spill
	st.d	$s0, $sp, 24                    # 8-byte Folded Spill
	st.d	$s1, $sp, 16                    # 8-byte Folded Spill
	st.d	$s2, $sp, 8                     # 8-byte Folded Spill
	fst.d	$fs0, $sp, 0                    # 8-byte Folded Spill
	pcalau12i	$s2, %pc_hi20(results)
	ld.d	$a2, $s2, %pc_lo12(results)
	pcalau12i	$s1, %pc_hi20(allocated_results)
	ld.w	$a1, $s1, %pc_lo12(allocated_results)
	move	$fp, $a0
	fmov.d	$fs0, $fa0
	pcalau12i	$s0, %pc_hi20(current_test)
	beqz	$a2, .LBB0_2
# %bb.1:                                # %entry
	ld.w	$a0, $s0, %pc_lo12(current_test)
	blt	$a0, $a1, .LBB0_4
.LBB0_2:                                # %if.then
	addi.w	$a0, $a1, 10
	st.w	$a0, $s1, %pc_lo12(allocated_results)
	slli.d	$a1, $a0, 4
	move	$a0, $a2
	pcaddu18i	$ra, %call36(realloc)
	jirl	$ra, $ra, 0
	st.d	$a0, $s2, %pc_lo12(results)
	beqz	$a0, .LBB0_5
# %bb.3:                                # %if.then.if.end5_crit_edge
	move	$a2, $a0
	ld.w	$a0, $s0, %pc_lo12(current_test)
.LBB0_4:                                # %if.end5
	alsl.d	$a1, $a0, $a2, 4
	slli.d	$a3, $a0, 4
	fstx.d	$fs0, $a2, $a3
	st.d	$fp, $a1, 8
	addi.d	$a0, $a0, 1
	st.w	$a0, $s0, %pc_lo12(current_test)
	fld.d	$fs0, $sp, 0                    # 8-byte Folded Reload
	ld.d	$s2, $sp, 8                     # 8-byte Folded Reload
	ld.d	$s1, $sp, 16                    # 8-byte Folded Reload
	ld.d	$s0, $sp, 24                    # 8-byte Folded Reload
	ld.d	$fp, $sp, 32                    # 8-byte Folded Reload
	ld.d	$ra, $sp, 40                    # 8-byte Folded Reload
	addi.d	$sp, $sp, 48
	ret
.LBB0_5:                                # %if.then3
	ld.w	$a1, $s1, %pc_lo12(allocated_results)
	pcalau12i	$a0, %pc_hi20(.L.str)
	addi.d	$a0, $a0, %pc_lo12(.L.str)
	pcaddu18i	$ra, %call36(printf)
	jirl	$ra, $ra, 0
	addi.w	$a0, $zero, -1
	pcaddu18i	$ra, %call36(exit)
	jirl	$ra, $ra, 0
.Lfunc_end0:
	.size	_Z13record_resultdPKc, .Lfunc_end0-_Z13record_resultdPKc
                                        # -- End function
	.section	.rodata.cst8,"aM",@progbits,8
	.p2align	3, 0x0                          # -- Begin function _Z9summarizePKciiii
.LCPI1_0:
	.dword	0x412e848000000000              # double 1.0E+6
	.text
	.globl	_Z9summarizePKciiii
	.p2align	5
	.type	_Z9summarizePKciiii,@function
_Z9summarizePKciiii:                    # @_Z9summarizePKciiii
# %bb.0:                                # %entry
	addi.d	$sp, $sp, -128
	st.d	$ra, $sp, 120                   # 8-byte Folded Spill
	st.d	$fp, $sp, 112                   # 8-byte Folded Spill
	st.d	$s0, $sp, 104                   # 8-byte Folded Spill
	st.d	$s1, $sp, 96                    # 8-byte Folded Spill
	st.d	$s2, $sp, 88                    # 8-byte Folded Spill
	st.d	$s3, $sp, 80                    # 8-byte Folded Spill
	st.d	$s4, $sp, 72                    # 8-byte Folded Spill
	st.d	$s5, $sp, 64                    # 8-byte Folded Spill
	st.d	$s6, $sp, 56                    # 8-byte Folded Spill
	st.d	$s7, $sp, 48                    # 8-byte Folded Spill
	st.d	$s8, $sp, 40                    # 8-byte Folded Spill
	fst.d	$fs0, $sp, 32                   # 8-byte Folded Spill
	fst.d	$fs1, $sp, 24                   # 8-byte Folded Spill
	pcalau12i	$s6, %pc_hi20(current_test)
	ld.w	$s0, $s6, %pc_lo12(current_test)
	move	$s8, $a4
	move	$s2, $a2
	move	$s3, $a1
	move	$fp, $a0
	ori	$s5, $zero, 1
	pcalau12i	$s7, %pc_hi20(results)
	blt	$s0, $s5, .LBB1_3
# %bb.1:                                # %for.body.lr.ph
	ld.d	$a0, $s7, %pc_lo12(results)
	addi.d	$s4, $a0, 8
	ori	$s1, $zero, 12
	.p2align	4, , 16
.LBB1_2:                                # %for.body
                                        # =>This Inner Loop Header: Depth=1
	ld.d	$a0, $s4, 0
	pcaddu18i	$ra, %call36(strlen)
	jirl	$ra, $ra, 0
	addi.w	$a0, $a0, 0
	slt	$a1, $a0, $s1
	masknez	$a0, $a0, $a1
	maskeqz	$a1, $s1, $a1
	or	$s1, $a1, $a0
	addi.d	$s0, $s0, -1
	addi.d	$s4, $s4, 16
	bnez	$s0, .LBB1_2
	b	.LBB1_4
.LBB1_3:
	ori	$s1, $zero, 12
.LBB1_4:                                # %for.end
	addi.w	$a1, $s1, -12
	pcalau12i	$a0, %pc_hi20(.L.str.1)
	addi.d	$a0, $a0, %pc_lo12(.L.str.1)
	pcalau12i	$a2, %pc_hi20(.L.str.2)
	addi.d	$s4, $a2, %pc_lo12(.L.str.2)
	move	$a2, $s4
	pcaddu18i	$ra, %call36(printf)
	jirl	$ra, $ra, 0
	pcalau12i	$a0, %pc_hi20(.L.str.3)
	addi.d	$a0, $a0, %pc_lo12(.L.str.3)
	move	$a1, $s1
	move	$a2, $s4
	pcaddu18i	$ra, %call36(printf)
	jirl	$ra, $ra, 0
	ld.w	$a0, $s6, %pc_lo12(current_test)
	movgr2fr.d	$fs0, $zero
	blt	$a0, $s5, .LBB1_10
# %bb.5:                                # %for.body8.preheader
	st.d	$s8, $sp, 8                     # 8-byte Folded Spill
	st.d	$fp, $sp, 16                    # 8-byte Folded Spill
	move	$s8, $zero
	move	$s4, $zero
	move	$s0, $zero
	movgr2fr.w	$fa0, $s3
	movgr2fr.w	$fa1, $s2
	pcalau12i	$a0, %pc_hi20(.LCPI1_0)
	fld.d	$fa2, $a0, %pc_lo12(.LCPI1_0)
	ffint.d.w	$fa0, $fa0
	ffint.d.w	$fa1, $fa1
	fmul.d	$fa0, $fa0, $fa1
	fdiv.d	$fs1, $fa0, $fa2
	pcalau12i	$a0, %pc_hi20(.L.str.4)
	addi.d	$s2, $a0, %pc_lo12(.L.str.4)
	pcalau12i	$a0, %pc_hi20(.L.str.5)
	addi.d	$s3, $a0, %pc_lo12(.L.str.5)
	.p2align	4, , 16
.LBB1_6:                                # %for.body8
                                        # =>This Inner Loop Header: Depth=1
	ld.d	$fp, $s7, %pc_lo12(results)
	add.d	$a0, $fp, $s8
	ld.d	$s5, $a0, 8
	move	$a0, $s5
	pcaddu18i	$ra, %call36(strlen)
	jirl	$ra, $ra, 0
	fldx.d	$fa0, $fp, $s8
	fld.d	$fa1, $fp, 0
	sub.w	$a2, $s1, $a0
	fdiv.d	$fa2, $fs1, $fa0
	fdiv.d	$fa1, $fa0, $fa1
	movfr2gr.d	$a5, $fa0
	movfr2gr.d	$a6, $fa2
	movfr2gr.d	$a7, $fa1
	move	$a0, $s2
	move	$a1, $s4
	move	$a3, $s3
	move	$a4, $s5
	pcaddu18i	$ra, %call36(printf)
	jirl	$ra, $ra, 0
	ld.w	$a0, $s6, %pc_lo12(current_test)
	addi.d	$s0, $s0, 1
	addi.w	$s4, $s4, 1
	addi.d	$s8, $s8, 16
	blt	$s0, $a0, .LBB1_6
# %bb.7:                                # %for.cond35.preheader
	ori	$a1, $zero, 1
	ld.d	$fp, $sp, 16                    # 8-byte Folded Reload
	ld.d	$s8, $sp, 8                     # 8-byte Folded Reload
	blt	$a0, $a1, .LBB1_10
# %bb.8:                                # %for.body37.lr.ph
	ld.d	$a1, $s7, %pc_lo12(results)
	movgr2fr.d	$fs0, $zero
	.p2align	4, , 16
.LBB1_9:                                # %for.body37
                                        # =>This Inner Loop Header: Depth=1
	fld.d	$fa0, $a1, 0
	fadd.d	$fs0, $fs0, $fa0
	addi.d	$a0, $a0, -1
	addi.d	$a1, $a1, 16
	bnez	$a0, .LBB1_9
.LBB1_10:                               # %for.end43
	movfr2gr.d	$a2, $fs0
	pcalau12i	$a0, %pc_hi20(.L.str.6)
	addi.d	$a0, $a0, %pc_lo12(.L.str.6)
	move	$a1, $fp
	pcaddu18i	$ra, %call36(printf)
	jirl	$ra, $ra, 0
	beqz	$s8, .LBB1_15
# %bb.11:                               # %for.end43
	ld.w	$a0, $s6, %pc_lo12(current_test)
	ori	$a1, $zero, 2
	blt	$a0, $a1, .LBB1_15
# %bb.12:                               # %for.body49.lr.ph
	ld.d	$a0, $s7, %pc_lo12(results)
	fld.d	$fs1, $a0, 0
	addi.d	$s0, $a0, 16
	movgr2fr.d	$fs0, $zero
	ori	$s1, $zero, 1
	.p2align	4, , 16
.LBB1_13:                               # %for.body49
                                        # =>This Inner Loop Header: Depth=1
	fld.d	$fa0, $s0, 0
	fdiv.d	$fa0, $fa0, $fs1
	pcaddu18i	$ra, %call36(log)
	jirl	$ra, $ra, 0
	ld.w	$a0, $s6, %pc_lo12(current_test)
	fadd.d	$fs0, $fs0, $fa0
	addi.d	$s1, $s1, 1
	addi.d	$s0, $s0, 16
	blt	$s1, $a0, .LBB1_13
# %bb.14:                               # %for.end60
	addi.d	$a0, $a0, -1
	movgr2fr.w	$fa0, $a0
	ffint.d.w	$fa0, $fa0
	fdiv.d	$fa0, $fs0, $fa0
	pcaddu18i	$ra, %call36(exp)
	jirl	$ra, $ra, 0
	movfr2gr.d	$a2, $fa0
	pcalau12i	$a0, %pc_hi20(.L.str.7)
	addi.d	$a0, $a0, %pc_lo12(.L.str.7)
	move	$a1, $fp
	pcaddu18i	$ra, %call36(printf)
	jirl	$ra, $ra, 0
.LBB1_15:                               # %if.end66
	st.w	$zero, $s6, %pc_lo12(current_test)
	fld.d	$fs1, $sp, 24                   # 8-byte Folded Reload
	fld.d	$fs0, $sp, 32                   # 8-byte Folded Reload
	ld.d	$s8, $sp, 40                    # 8-byte Folded Reload
	ld.d	$s7, $sp, 48                    # 8-byte Folded Reload
	ld.d	$s6, $sp, 56                    # 8-byte Folded Reload
	ld.d	$s5, $sp, 64                    # 8-byte Folded Reload
	ld.d	$s4, $sp, 72                    # 8-byte Folded Reload
	ld.d	$s3, $sp, 80                    # 8-byte Folded Reload
	ld.d	$s2, $sp, 88                    # 8-byte Folded Reload
	ld.d	$s1, $sp, 96                    # 8-byte Folded Reload
	ld.d	$s0, $sp, 104                   # 8-byte Folded Reload
	ld.d	$fp, $sp, 112                   # 8-byte Folded Reload
	ld.d	$ra, $sp, 120                   # 8-byte Folded Reload
	addi.d	$sp, $sp, 128
	ret
.Lfunc_end1:
	.size	_Z9summarizePKciiii, .Lfunc_end1-_Z9summarizePKciiii
                                        # -- End function
	.globl	_Z17summarize_simplefP8_IO_FILEPKc # -- Begin function _Z17summarize_simplefP8_IO_FILEPKc
	.p2align	5
	.type	_Z17summarize_simplefP8_IO_FILEPKc,@function
_Z17summarize_simplefP8_IO_FILEPKc:     # @_Z17summarize_simplefP8_IO_FILEPKc
# %bb.0:                                # %entry
	addi.d	$sp, $sp, -128
	st.d	$ra, $sp, 120                   # 8-byte Folded Spill
	st.d	$fp, $sp, 112                   # 8-byte Folded Spill
	st.d	$s0, $sp, 104                   # 8-byte Folded Spill
	st.d	$s1, $sp, 96                    # 8-byte Folded Spill
	st.d	$s2, $sp, 88                    # 8-byte Folded Spill
	st.d	$s3, $sp, 80                    # 8-byte Folded Spill
	st.d	$s4, $sp, 72                    # 8-byte Folded Spill
	st.d	$s5, $sp, 64                    # 8-byte Folded Spill
	st.d	$s6, $sp, 56                    # 8-byte Folded Spill
	st.d	$s7, $sp, 48                    # 8-byte Folded Spill
	st.d	$s8, $sp, 40                    # 8-byte Folded Spill
	fst.d	$fs0, $sp, 32                   # 8-byte Folded Spill
	pcalau12i	$s5, %pc_hi20(current_test)
	ld.w	$fp, $s5, %pc_lo12(current_test)
	move	$s0, $a1
	move	$s7, $a0
	ori	$s3, $zero, 1
	pcalau12i	$s4, %pc_hi20(results)
	blt	$fp, $s3, .LBB2_3
# %bb.1:                                # %for.body.lr.ph
	ld.d	$a0, $s4, %pc_lo12(results)
	addi.d	$s2, $a0, 8
	ori	$s1, $zero, 12
	.p2align	4, , 16
.LBB2_2:                                # %for.body
                                        # =>This Inner Loop Header: Depth=1
	ld.d	$a0, $s2, 0
	pcaddu18i	$ra, %call36(strlen)
	jirl	$ra, $ra, 0
	addi.w	$a0, $a0, 0
	slt	$a1, $a0, $s1
	masknez	$a0, $a0, $a1
	maskeqz	$a1, $s1, $a1
	or	$s1, $a1, $a0
	addi.d	$fp, $fp, -1
	addi.d	$s2, $s2, 16
	bnez	$fp, .LBB2_2
	b	.LBB2_4
.LBB2_3:
	ori	$s1, $zero, 12
.LBB2_4:                                # %for.end
	addi.w	$a2, $s1, -12
	pcalau12i	$a0, %pc_hi20(.L.str.8)
	addi.d	$a1, $a0, %pc_lo12(.L.str.8)
	pcalau12i	$a0, %pc_hi20(.L.str.2)
	addi.d	$s2, $a0, %pc_lo12(.L.str.2)
	move	$a0, $s7
	move	$a3, $s2
	pcaddu18i	$ra, %call36(fprintf)
	jirl	$ra, $ra, 0
	pcalau12i	$a0, %pc_hi20(.L.str.9)
	addi.d	$a1, $a0, %pc_lo12(.L.str.9)
	move	$a0, $s7
	move	$a2, $s1
	move	$a3, $s2
	pcaddu18i	$ra, %call36(fprintf)
	jirl	$ra, $ra, 0
	ld.w	$a0, $s5, %pc_lo12(current_test)
	movgr2fr.d	$fs0, $zero
	blt	$a0, $s3, .LBB2_10
# %bb.5:                                # %for.body6.preheader
	st.d	$s0, $sp, 16                    # 8-byte Folded Spill
	move	$s8, $zero
	move	$s2, $zero
	move	$fp, $zero
	pcalau12i	$a0, %pc_hi20(.L.str.10)
	addi.d	$a0, $a0, %pc_lo12(.L.str.10)
	st.d	$a0, $sp, 24                    # 8-byte Folded Spill
	pcalau12i	$a0, %pc_hi20(.L.str.5)
	addi.d	$s3, $a0, %pc_lo12(.L.str.5)
	.p2align	4, , 16
.LBB2_6:                                # %for.body6
                                        # =>This Inner Loop Header: Depth=1
	ld.d	$s6, $s4, %pc_lo12(results)
	add.d	$a0, $s6, $s8
	move	$s0, $s5
	ld.d	$s5, $a0, 8
	move	$a0, $s5
	pcaddu18i	$ra, %call36(strlen)
	jirl	$ra, $ra, 0
	ldx.d	$a6, $s6, $s8
	sub.w	$a3, $s1, $a0
	move	$a0, $s7
	ld.d	$a1, $sp, 24                    # 8-byte Folded Reload
	move	$a2, $s2
	move	$a4, $s3
	move	$a5, $s5
	move	$s5, $s0
	pcaddu18i	$ra, %call36(fprintf)
	jirl	$ra, $ra, 0
	ld.w	$a0, $s0, %pc_lo12(current_test)
	addi.d	$fp, $fp, 1
	addi.w	$s2, $s2, 1
	addi.d	$s8, $s8, 16
	blt	$fp, $a0, .LBB2_6
# %bb.7:                                # %for.cond23.preheader
	ori	$a1, $zero, 1
	ld.d	$s0, $sp, 16                    # 8-byte Folded Reload
	blt	$a0, $a1, .LBB2_10
# %bb.8:                                # %for.body25.lr.ph
	ld.d	$a1, $s4, %pc_lo12(results)
	movgr2fr.d	$fs0, $zero
	.p2align	4, , 16
.LBB2_9:                                # %for.body25
                                        # =>This Inner Loop Header: Depth=1
	fld.d	$fa0, $a1, 0
	fadd.d	$fs0, $fs0, $fa0
	addi.d	$a0, $a0, -1
	addi.d	$a1, $a1, 16
	bnez	$a0, .LBB2_9
.LBB2_10:                               # %for.end31
	movfr2gr.d	$a3, $fs0
	pcalau12i	$a0, %pc_hi20(.L.str.6)
	addi.d	$a1, $a0, %pc_lo12(.L.str.6)
	move	$a0, $s7
	move	$a2, $s0
	pcaddu18i	$ra, %call36(fprintf)
	jirl	$ra, $ra, 0
	st.w	$zero, $s5, %pc_lo12(current_test)
	fld.d	$fs0, $sp, 32                   # 8-byte Folded Reload
	ld.d	$s8, $sp, 40                    # 8-byte Folded Reload
	ld.d	$s7, $sp, 48                    # 8-byte Folded Reload
	ld.d	$s6, $sp, 56                    # 8-byte Folded Reload
	ld.d	$s5, $sp, 64                    # 8-byte Folded Reload
	ld.d	$s4, $sp, 72                    # 8-byte Folded Reload
	ld.d	$s3, $sp, 80                    # 8-byte Folded Reload
	ld.d	$s2, $sp, 88                    # 8-byte Folded Reload
	ld.d	$s1, $sp, 96                    # 8-byte Folded Reload
	ld.d	$s0, $sp, 104                   # 8-byte Folded Reload
	ld.d	$fp, $sp, 112                   # 8-byte Folded Reload
	ld.d	$ra, $sp, 120                   # 8-byte Folded Reload
	addi.d	$sp, $sp, 128
	ret
.Lfunc_end2:
	.size	_Z17summarize_simplefP8_IO_FILEPKc, .Lfunc_end2-_Z17summarize_simplefP8_IO_FILEPKc
                                        # -- End function
	.globl	_Z11start_timerv                # -- Begin function _Z11start_timerv
	.p2align	5
	.type	_Z11start_timerv,@function
_Z11start_timerv:                       # @_Z11start_timerv
# %bb.0:                                # %entry
	addi.d	$sp, $sp, -16
	st.d	$ra, $sp, 8                     # 8-byte Folded Spill
	pcaddu18i	$ra, %call36(clock)
	jirl	$ra, $ra, 0
	pcalau12i	$a1, %pc_hi20(start_time)
	st.d	$a0, $a1, %pc_lo12(start_time)
	ld.d	$ra, $sp, 8                     # 8-byte Folded Reload
	addi.d	$sp, $sp, 16
	ret
.Lfunc_end3:
	.size	_Z11start_timerv, .Lfunc_end3-_Z11start_timerv
                                        # -- End function
	.section	.rodata.cst8,"aM",@progbits,8
	.p2align	3, 0x0                          # -- Begin function _Z5timerv
.LCPI4_0:
	.dword	0x412e848000000000              # double 1.0E+6
	.text
	.globl	_Z5timerv
	.p2align	5
	.type	_Z5timerv,@function
_Z5timerv:                              # @_Z5timerv
# %bb.0:                                # %entry
	addi.d	$sp, $sp, -16
	st.d	$ra, $sp, 8                     # 8-byte Folded Spill
	pcaddu18i	$ra, %call36(clock)
	jirl	$ra, $ra, 0
	pcalau12i	$a1, %pc_hi20(start_time)
	ld.d	$a1, $a1, %pc_lo12(start_time)
	pcalau12i	$a2, %pc_hi20(end_time)
	pcalau12i	$a3, %pc_hi20(.LCPI4_0)
	fld.d	$fa0, $a3, %pc_lo12(.LCPI4_0)
	sub.d	$a1, $a0, $a1
	movgr2fr.d	$fa1, $a1
	ffint.d.l	$fa1, $fa1
	fdiv.d	$fa0, $fa1, $fa0
	st.d	$a0, $a2, %pc_lo12(end_time)
	ld.d	$ra, $sp, 8                     # 8-byte Folded Reload
	addi.d	$sp, $sp, 16
	ret
.Lfunc_end4:
	.size	_Z5timerv, .Lfunc_end4-_Z5timerv
                                        # -- End function
	.section	.rodata.cst8,"aM",@progbits,8
	.p2align	3, 0x0                          # -- Begin function main
.LCPI5_0:
	.dword	0x43e0000000000000              # double 9.2233720368547758E+18
	.text
	.globl	main
	.p2align	5
	.type	main,@function
main:                                   # @main
	.cfi_startproc
# %bb.0:                                # %entry
	addi.d	$sp, $sp, -80
	.cfi_def_cfa_offset 80
	st.d	$ra, $sp, 72                    # 8-byte Folded Spill
	st.d	$fp, $sp, 64                    # 8-byte Folded Spill
	st.d	$s0, $sp, 56                    # 8-byte Folded Spill
	st.d	$s1, $sp, 48                    # 8-byte Folded Spill
	st.d	$s2, $sp, 40                    # 8-byte Folded Spill
	st.d	$s3, $sp, 32                    # 8-byte Folded Spill
	st.d	$s4, $sp, 24                    # 8-byte Folded Spill
	st.d	$s5, $sp, 16                    # 8-byte Folded Spill
	.cfi_offset 1, -8
	.cfi_offset 22, -16
	.cfi_offset 23, -24
	.cfi_offset 24, -32
	.cfi_offset 25, -40
	.cfi_offset 26, -48
	.cfi_offset 27, -56
	.cfi_offset 28, -64
	move	$s0, $a0
	ori	$s2, $zero, 2
	pcalau12i	$s1, %pc_hi20(base_iterations)
	pcalau12i	$a0, %pc_hi20(init_value)
	addi.d	$s3, $a0, %pc_lo12(init_value)
	blt	$s0, $s2, .LBB5_3
# %bb.1:                                # %if.end
	move	$fp, $a1
	ld.d	$a0, $a1, 8
	ori	$a2, $zero, 10
	move	$a1, $zero
	pcaddu18i	$ra, %call36(__isoc23_strtol)
	jirl	$ra, $ra, 0
	st.w	$a0, $s1, %pc_lo12(base_iterations)
	beq	$s0, $s2, .LBB5_3
# %bb.2:                                # %if.then2
	ld.d	$a0, $fp, 16
	move	$a1, $zero
	pcaddu18i	$ra, %call36(strtod)
	jirl	$ra, $ra, 0
	fst.d	$fa0, $s3, 0
.LBB5_3:                                # %if.end5
	fld.d	$fa0, $s3, 0
	ftintrz.l.d	$fa0, $fa0
	movfr2gr.d	$a1, $fa0
	pcalau12i	$a0, %pc_hi20(data8)
	addi.d	$s0, $a0, %pc_lo12(data8)
	lu12i.w	$s4, 1
	ori	$fp, $s4, 3904
	move	$a0, $s0
	move	$a2, $fp
	pcaddu18i	$ra, %call36(memset)
	jirl	$ra, $ra, 0
	ld.w	$a0, $s1, %pc_lo12(base_iterations)
	pcalau12i	$s2, %pc_hi20(iterations)
	st.w	$a0, $s2, %pc_lo12(iterations)
	pcalau12i	$a0, %pc_hi20(.L.str.11)
	addi.d	$a2, $a0, %pc_lo12(.L.str.11)
	move	$a0, $s0
	move	$a1, $fp
	pcaddu18i	$ra, %call36(_Z13test_constantIa10custom_twoIaEEvPT_iPKc)
	jirl	$ra, $ra, 0
	pcalau12i	$a0, %pc_hi20(.L.str.12)
	addi.d	$a2, $a0, %pc_lo12(.L.str.12)
	move	$a0, $s0
	move	$a1, $fp
	pcaddu18i	$ra, %call36(_Z13test_constantIa20custom_add_constantsIaEEvPT_iPKc)
	jirl	$ra, $ra, 0
	pcalau12i	$a0, %pc_hi20(.L.str.13)
	addi.d	$a2, $a0, %pc_lo12(.L.str.13)
	move	$a0, $s0
	move	$a1, $fp
	pcaddu18i	$ra, %call36(_Z13test_constantIa20custom_sub_constantsIaEEvPT_iPKc)
	jirl	$ra, $ra, 0
	pcalau12i	$a0, %pc_hi20(.L.str.14)
	addi.d	$a2, $a0, %pc_lo12(.L.str.14)
	move	$a0, $s0
	move	$a1, $fp
	pcaddu18i	$ra, %call36(_Z13test_constantIa25custom_multiply_constantsIaEEvPT_iPKc)
	jirl	$ra, $ra, 0
	pcalau12i	$a0, %pc_hi20(.L.str.15)
	addi.d	$a2, $a0, %pc_lo12(.L.str.15)
	move	$a0, $s0
	move	$a1, $fp
	pcaddu18i	$ra, %call36(_Z13test_constantIa23custom_divide_constantsIaEEvPT_iPKc)
	jirl	$ra, $ra, 0
	pcalau12i	$a0, %pc_hi20(.L.str.16)
	addi.d	$a2, $a0, %pc_lo12(.L.str.16)
	move	$a0, $s0
	move	$a1, $fp
	pcaddu18i	$ra, %call36(_Z13test_constantIa20custom_mod_constantsIaEEvPT_iPKc)
	jirl	$ra, $ra, 0
	pcalau12i	$a0, %pc_hi20(.L.str.17)
	addi.d	$a2, $a0, %pc_lo12(.L.str.17)
	move	$a0, $s0
	move	$a1, $fp
	pcaddu18i	$ra, %call36(_Z13test_constantIa22custom_equal_constantsIaEEvPT_iPKc)
	jirl	$ra, $ra, 0
	pcalau12i	$a0, %pc_hi20(.L.str.18)
	addi.d	$a2, $a0, %pc_lo12(.L.str.18)
	move	$a0, $s0
	move	$a1, $fp
	pcaddu18i	$ra, %call36(_Z13test_constantIa25custom_notequal_constantsIaEEvPT_iPKc)
	jirl	$ra, $ra, 0
	pcalau12i	$a0, %pc_hi20(.L.str.19)
	addi.d	$a2, $a0, %pc_lo12(.L.str.19)
	move	$a0, $s0
	move	$a1, $fp
	pcaddu18i	$ra, %call36(_Z13test_constantIa28custom_greaterthan_constantsIaEEvPT_iPKc)
	jirl	$ra, $ra, 0
	pcalau12i	$a0, %pc_hi20(.L.str.20)
	addi.d	$a2, $a0, %pc_lo12(.L.str.20)
	move	$a0, $s0
	move	$a1, $fp
	pcaddu18i	$ra, %call36(_Z13test_constantIa25custom_lessthan_constantsIaEEvPT_iPKc)
	jirl	$ra, $ra, 0
	pcalau12i	$a0, %pc_hi20(.L.str.21)
	addi.d	$a2, $a0, %pc_lo12(.L.str.21)
	move	$a0, $s0
	move	$a1, $fp
	pcaddu18i	$ra, %call36(_Z13test_constantIa33custom_greaterthanequal_constantsIaEEvPT_iPKc)
	jirl	$ra, $ra, 0
	pcalau12i	$a0, %pc_hi20(.L.str.22)
	addi.d	$a2, $a0, %pc_lo12(.L.str.22)
	move	$a0, $s0
	move	$a1, $fp
	pcaddu18i	$ra, %call36(_Z13test_constantIa30custom_lessthanequal_constantsIaEEvPT_iPKc)
	jirl	$ra, $ra, 0
	pcalau12i	$a0, %pc_hi20(.L.str.23)
	addi.d	$a2, $a0, %pc_lo12(.L.str.23)
	move	$a0, $s0
	move	$a1, $fp
	pcaddu18i	$ra, %call36(_Z13test_constantIa20custom_and_constantsIaEEvPT_iPKc)
	jirl	$ra, $ra, 0
	pcalau12i	$a0, %pc_hi20(.L.str.24)
	addi.d	$a2, $a0, %pc_lo12(.L.str.24)
	move	$a0, $s0
	move	$a1, $fp
	pcaddu18i	$ra, %call36(_Z13test_constantIa19custom_or_constantsIaEEvPT_iPKc)
	jirl	$ra, $ra, 0
	pcalau12i	$a0, %pc_hi20(.L.str.25)
	addi.d	$a2, $a0, %pc_lo12(.L.str.25)
	move	$a0, $s0
	move	$a1, $fp
	pcaddu18i	$ra, %call36(_Z13test_constantIa20custom_xor_constantsIaEEvPT_iPKc)
	jirl	$ra, $ra, 0
	ld.w	$a0, $s1, %pc_lo12(base_iterations)
	lu12i.w	$a1, 419430
	ori	$s5, $a1, 1639
	mul.d	$a0, $a0, $s5
	srli.d	$a1, $a0, 63
	srai.d	$a0, $a0, 34
	add.d	$a0, $a0, $a1
	st.w	$a0, $s2, %pc_lo12(iterations)
	pcalau12i	$a0, %pc_hi20(.L.str.26)
	addi.d	$a2, $a0, %pc_lo12(.L.str.26)
	move	$a0, $s0
	move	$a1, $fp
	pcaddu18i	$ra, %call36(_Z13test_constantIa19custom_constant_addIaEEvPT_iPKc)
	jirl	$ra, $ra, 0
	pcalau12i	$a0, %pc_hi20(.L.str.27)
	addi.d	$a2, $a0, %pc_lo12(.L.str.27)
	move	$a0, $s0
	move	$a1, $fp
	pcaddu18i	$ra, %call36(_Z13test_constantIa28custom_multiple_constant_addIaEEvPT_iPKc)
	jirl	$ra, $ra, 0
	pcalau12i	$a0, %pc_hi20(.L.str.28)
	addi.d	$a2, $a0, %pc_lo12(.L.str.28)
	move	$a0, $s0
	move	$a1, $fp
	pcaddu18i	$ra, %call36(_Z13test_constantIa19custom_constant_subIaEEvPT_iPKc)
	jirl	$ra, $ra, 0
	pcalau12i	$a0, %pc_hi20(.L.str.29)
	addi.d	$a2, $a0, %pc_lo12(.L.str.29)
	move	$a0, $s0
	move	$a1, $fp
	pcaddu18i	$ra, %call36(_Z13test_constantIa28custom_multiple_constant_subIaEEvPT_iPKc)
	jirl	$ra, $ra, 0
	pcalau12i	$a0, %pc_hi20(.L.str.30)
	addi.d	$a2, $a0, %pc_lo12(.L.str.30)
	move	$a0, $s0
	move	$a1, $fp
	pcaddu18i	$ra, %call36(_Z13test_constantIa24custom_constant_multiplyIaEEvPT_iPKc)
	jirl	$ra, $ra, 0
	pcalau12i	$a0, %pc_hi20(.L.str.31)
	addi.d	$a2, $a0, %pc_lo12(.L.str.31)
	move	$a0, $s0
	move	$a1, $fp
	pcaddu18i	$ra, %call36(_Z13test_constantIa33custom_multiple_constant_multiplyIaEEvPT_iPKc)
	jirl	$ra, $ra, 0
	pcalau12i	$a0, %pc_hi20(.L.str.32)
	addi.d	$a2, $a0, %pc_lo12(.L.str.32)
	move	$a0, $s0
	move	$a1, $fp
	pcaddu18i	$ra, %call36(_Z13test_constantIa34custom_multiple_constant_multiply2IaEEvPT_iPKc)
	jirl	$ra, $ra, 0
	pcalau12i	$a0, %pc_hi20(.L.str.33)
	addi.d	$a2, $a0, %pc_lo12(.L.str.33)
	move	$a0, $s0
	move	$a1, $fp
	pcaddu18i	$ra, %call36(_Z13test_constantIa22custom_constant_divideIaEEvPT_iPKc)
	jirl	$ra, $ra, 0
	pcalau12i	$a0, %pc_hi20(.L.str.34)
	addi.d	$a2, $a0, %pc_lo12(.L.str.34)
	move	$a0, $s0
	move	$a1, $fp
	pcaddu18i	$ra, %call36(_Z13test_constantIa31custom_multiple_constant_divideIaEEvPT_iPKc)
	jirl	$ra, $ra, 0
	pcalau12i	$a0, %pc_hi20(.L.str.35)
	addi.d	$a2, $a0, %pc_lo12(.L.str.35)
	move	$a0, $s0
	move	$a1, $fp
	pcaddu18i	$ra, %call36(_Z13test_constantIa32custom_multiple_constant_divide2IaEEvPT_iPKc)
	jirl	$ra, $ra, 0
	pcalau12i	$a0, %pc_hi20(.L.str.36)
	addi.d	$a2, $a0, %pc_lo12(.L.str.36)
	move	$a0, $s0
	move	$a1, $fp
	pcaddu18i	$ra, %call36(_Z13test_constantIa30custom_multiple_constant_mixedIaEEvPT_iPKc)
	jirl	$ra, $ra, 0
	pcalau12i	$a0, %pc_hi20(.L.str.37)
	addi.d	$a2, $a0, %pc_lo12(.L.str.37)
	move	$a0, $s0
	move	$a1, $fp
	pcaddu18i	$ra, %call36(_Z13test_constantIa19custom_constant_andIaEEvPT_iPKc)
	jirl	$ra, $ra, 0
	pcalau12i	$a0, %pc_hi20(.L.str.38)
	addi.d	$a2, $a0, %pc_lo12(.L.str.38)
	move	$a0, $s0
	move	$a1, $fp
	pcaddu18i	$ra, %call36(_Z13test_constantIa28custom_multiple_constant_andIaEEvPT_iPKc)
	jirl	$ra, $ra, 0
	pcalau12i	$a0, %pc_hi20(.L.str.39)
	addi.d	$a2, $a0, %pc_lo12(.L.str.39)
	move	$a0, $s0
	move	$a1, $fp
	pcaddu18i	$ra, %call36(_Z13test_constantIa18custom_constant_orIaEEvPT_iPKc)
	jirl	$ra, $ra, 0
	pcalau12i	$a0, %pc_hi20(.L.str.40)
	addi.d	$a2, $a0, %pc_lo12(.L.str.40)
	move	$a0, $s0
	move	$a1, $fp
	pcaddu18i	$ra, %call36(_Z13test_constantIa27custom_multiple_constant_orIaEEvPT_iPKc)
	jirl	$ra, $ra, 0
	pcalau12i	$a0, %pc_hi20(.L.str.41)
	addi.d	$a2, $a0, %pc_lo12(.L.str.41)
	move	$a0, $s0
	move	$a1, $fp
	pcaddu18i	$ra, %call36(_Z13test_constantIa19custom_constant_xorIaEEvPT_iPKc)
	jirl	$ra, $ra, 0
	pcalau12i	$a0, %pc_hi20(.L.str.42)
	addi.d	$a2, $a0, %pc_lo12(.L.str.42)
	move	$a0, $s0
	move	$a1, $fp
	pcaddu18i	$ra, %call36(_Z13test_constantIa28custom_multiple_constant_xorIaEEvPT_iPKc)
	jirl	$ra, $ra, 0
	fld.d	$fa0, $s3, 0
	ftintrz.l.d	$fa0, $fa0
	movfr2gr.d	$a1, $fa0
	pcalau12i	$a0, %pc_hi20(data8unsigned)
	addi.d	$s0, $a0, %pc_lo12(data8unsigned)
	move	$a0, $s0
	move	$a2, $fp
	pcaddu18i	$ra, %call36(memset)
	jirl	$ra, $ra, 0
	ld.w	$a0, $s1, %pc_lo12(base_iterations)
	st.w	$a0, $s2, %pc_lo12(iterations)
	pcalau12i	$a0, %pc_hi20(.L.str.43)
	addi.d	$a2, $a0, %pc_lo12(.L.str.43)
	move	$a0, $s0
	move	$a1, $fp
	pcaddu18i	$ra, %call36(_Z13test_constantIh10custom_twoIhEEvPT_iPKc)
	jirl	$ra, $ra, 0
	pcalau12i	$a0, %pc_hi20(.L.str.44)
	addi.d	$a2, $a0, %pc_lo12(.L.str.44)
	move	$a0, $s0
	move	$a1, $fp
	pcaddu18i	$ra, %call36(_Z13test_constantIh20custom_add_constantsIhEEvPT_iPKc)
	jirl	$ra, $ra, 0
	pcalau12i	$a0, %pc_hi20(.L.str.45)
	addi.d	$a2, $a0, %pc_lo12(.L.str.45)
	move	$a0, $s0
	move	$a1, $fp
	pcaddu18i	$ra, %call36(_Z13test_constantIh20custom_sub_constantsIhEEvPT_iPKc)
	jirl	$ra, $ra, 0
	pcalau12i	$a0, %pc_hi20(.L.str.46)
	addi.d	$a2, $a0, %pc_lo12(.L.str.46)
	move	$a0, $s0
	move	$a1, $fp
	pcaddu18i	$ra, %call36(_Z13test_constantIh25custom_multiply_constantsIhEEvPT_iPKc)
	jirl	$ra, $ra, 0
	pcalau12i	$a0, %pc_hi20(.L.str.47)
	addi.d	$a2, $a0, %pc_lo12(.L.str.47)
	move	$a0, $s0
	move	$a1, $fp
	pcaddu18i	$ra, %call36(_Z13test_constantIh23custom_divide_constantsIhEEvPT_iPKc)
	jirl	$ra, $ra, 0
	pcalau12i	$a0, %pc_hi20(.L.str.48)
	addi.d	$a2, $a0, %pc_lo12(.L.str.48)
	move	$a0, $s0
	move	$a1, $fp
	pcaddu18i	$ra, %call36(_Z13test_constantIh20custom_mod_constantsIhEEvPT_iPKc)
	jirl	$ra, $ra, 0
	pcalau12i	$a0, %pc_hi20(.L.str.49)
	addi.d	$a2, $a0, %pc_lo12(.L.str.49)
	move	$a0, $s0
	move	$a1, $fp
	pcaddu18i	$ra, %call36(_Z13test_constantIh22custom_equal_constantsIhEEvPT_iPKc)
	jirl	$ra, $ra, 0
	pcalau12i	$a0, %pc_hi20(.L.str.50)
	addi.d	$a2, $a0, %pc_lo12(.L.str.50)
	move	$a0, $s0
	move	$a1, $fp
	pcaddu18i	$ra, %call36(_Z13test_constantIh25custom_notequal_constantsIhEEvPT_iPKc)
	jirl	$ra, $ra, 0
	pcalau12i	$a0, %pc_hi20(.L.str.51)
	addi.d	$a2, $a0, %pc_lo12(.L.str.51)
	move	$a0, $s0
	move	$a1, $fp
	pcaddu18i	$ra, %call36(_Z13test_constantIh28custom_greaterthan_constantsIhEEvPT_iPKc)
	jirl	$ra, $ra, 0
	pcalau12i	$a0, %pc_hi20(.L.str.52)
	addi.d	$a2, $a0, %pc_lo12(.L.str.52)
	move	$a0, $s0
	move	$a1, $fp
	pcaddu18i	$ra, %call36(_Z13test_constantIh25custom_lessthan_constantsIhEEvPT_iPKc)
	jirl	$ra, $ra, 0
	pcalau12i	$a0, %pc_hi20(.L.str.53)
	addi.d	$a2, $a0, %pc_lo12(.L.str.53)
	move	$a0, $s0
	move	$a1, $fp
	pcaddu18i	$ra, %call36(_Z13test_constantIh33custom_greaterthanequal_constantsIhEEvPT_iPKc)
	jirl	$ra, $ra, 0
	pcalau12i	$a0, %pc_hi20(.L.str.54)
	addi.d	$a2, $a0, %pc_lo12(.L.str.54)
	move	$a0, $s0
	move	$a1, $fp
	pcaddu18i	$ra, %call36(_Z13test_constantIh30custom_lessthanequal_constantsIhEEvPT_iPKc)
	jirl	$ra, $ra, 0
	pcalau12i	$a0, %pc_hi20(.L.str.55)
	addi.d	$a2, $a0, %pc_lo12(.L.str.55)
	move	$a0, $s0
	move	$a1, $fp
	pcaddu18i	$ra, %call36(_Z13test_constantIh20custom_and_constantsIhEEvPT_iPKc)
	jirl	$ra, $ra, 0
	pcalau12i	$a0, %pc_hi20(.L.str.56)
	addi.d	$a2, $a0, %pc_lo12(.L.str.56)
	move	$a0, $s0
	move	$a1, $fp
	pcaddu18i	$ra, %call36(_Z13test_constantIh19custom_or_constantsIhEEvPT_iPKc)
	jirl	$ra, $ra, 0
	pcalau12i	$a0, %pc_hi20(.L.str.57)
	addi.d	$a2, $a0, %pc_lo12(.L.str.57)
	move	$a0, $s0
	move	$a1, $fp
	pcaddu18i	$ra, %call36(_Z13test_constantIh20custom_xor_constantsIhEEvPT_iPKc)
	jirl	$ra, $ra, 0
	ld.w	$a0, $s1, %pc_lo12(base_iterations)
	mul.d	$a0, $a0, $s5
	srli.d	$a1, $a0, 63
	srai.d	$a0, $a0, 34
	add.d	$a0, $a0, $a1
	st.w	$a0, $s2, %pc_lo12(iterations)
	pcalau12i	$a0, %pc_hi20(.L.str.58)
	addi.d	$a2, $a0, %pc_lo12(.L.str.58)
	move	$a0, $s0
	move	$a1, $fp
	pcaddu18i	$ra, %call36(_Z13test_constantIh19custom_constant_addIhEEvPT_iPKc)
	jirl	$ra, $ra, 0
	pcalau12i	$a0, %pc_hi20(.L.str.59)
	addi.d	$a2, $a0, %pc_lo12(.L.str.59)
	move	$a0, $s0
	move	$a1, $fp
	pcaddu18i	$ra, %call36(_Z13test_constantIh28custom_multiple_constant_addIhEEvPT_iPKc)
	jirl	$ra, $ra, 0
	pcalau12i	$a0, %pc_hi20(.L.str.60)
	addi.d	$a2, $a0, %pc_lo12(.L.str.60)
	move	$a0, $s0
	move	$a1, $fp
	pcaddu18i	$ra, %call36(_Z13test_constantIh19custom_constant_subIhEEvPT_iPKc)
	jirl	$ra, $ra, 0
	pcalau12i	$a0, %pc_hi20(.L.str.61)
	addi.d	$a2, $a0, %pc_lo12(.L.str.61)
	move	$a0, $s0
	move	$a1, $fp
	pcaddu18i	$ra, %call36(_Z13test_constantIh28custom_multiple_constant_subIhEEvPT_iPKc)
	jirl	$ra, $ra, 0
	pcalau12i	$a0, %pc_hi20(.L.str.62)
	addi.d	$a2, $a0, %pc_lo12(.L.str.62)
	move	$a0, $s0
	move	$a1, $fp
	pcaddu18i	$ra, %call36(_Z13test_constantIh24custom_constant_multiplyIhEEvPT_iPKc)
	jirl	$ra, $ra, 0
	pcalau12i	$a0, %pc_hi20(.L.str.63)
	addi.d	$a2, $a0, %pc_lo12(.L.str.63)
	move	$a0, $s0
	move	$a1, $fp
	pcaddu18i	$ra, %call36(_Z13test_constantIh33custom_multiple_constant_multiplyIhEEvPT_iPKc)
	jirl	$ra, $ra, 0
	pcalau12i	$a0, %pc_hi20(.L.str.64)
	addi.d	$a2, $a0, %pc_lo12(.L.str.64)
	move	$a0, $s0
	move	$a1, $fp
	pcaddu18i	$ra, %call36(_Z13test_constantIh34custom_multiple_constant_multiply2IhEEvPT_iPKc)
	jirl	$ra, $ra, 0
	pcalau12i	$a0, %pc_hi20(.L.str.65)
	addi.d	$a2, $a0, %pc_lo12(.L.str.65)
	move	$a0, $s0
	move	$a1, $fp
	pcaddu18i	$ra, %call36(_Z13test_constantIh22custom_constant_divideIhEEvPT_iPKc)
	jirl	$ra, $ra, 0
	pcalau12i	$a0, %pc_hi20(.L.str.66)
	addi.d	$a2, $a0, %pc_lo12(.L.str.66)
	move	$a0, $s0
	move	$a1, $fp
	pcaddu18i	$ra, %call36(_Z13test_constantIh31custom_multiple_constant_divideIhEEvPT_iPKc)
	jirl	$ra, $ra, 0
	pcalau12i	$a0, %pc_hi20(.L.str.67)
	addi.d	$a2, $a0, %pc_lo12(.L.str.67)
	move	$a0, $s0
	move	$a1, $fp
	pcaddu18i	$ra, %call36(_Z13test_constantIh32custom_multiple_constant_divide2IhEEvPT_iPKc)
	jirl	$ra, $ra, 0
	pcalau12i	$a0, %pc_hi20(.L.str.68)
	addi.d	$a2, $a0, %pc_lo12(.L.str.68)
	move	$a0, $s0
	move	$a1, $fp
	pcaddu18i	$ra, %call36(_Z13test_constantIh30custom_multiple_constant_mixedIhEEvPT_iPKc)
	jirl	$ra, $ra, 0
	pcalau12i	$a0, %pc_hi20(.L.str.69)
	addi.d	$a2, $a0, %pc_lo12(.L.str.69)
	move	$a0, $s0
	move	$a1, $fp
	pcaddu18i	$ra, %call36(_Z13test_constantIh19custom_constant_andIhEEvPT_iPKc)
	jirl	$ra, $ra, 0
	pcalau12i	$a0, %pc_hi20(.L.str.70)
	addi.d	$a2, $a0, %pc_lo12(.L.str.70)
	move	$a0, $s0
	move	$a1, $fp
	pcaddu18i	$ra, %call36(_Z13test_constantIh28custom_multiple_constant_andIhEEvPT_iPKc)
	jirl	$ra, $ra, 0
	pcalau12i	$a0, %pc_hi20(.L.str.71)
	addi.d	$a2, $a0, %pc_lo12(.L.str.71)
	move	$a0, $s0
	move	$a1, $fp
	pcaddu18i	$ra, %call36(_Z13test_constantIh18custom_constant_orIhEEvPT_iPKc)
	jirl	$ra, $ra, 0
	pcalau12i	$a0, %pc_hi20(.L.str.72)
	addi.d	$a2, $a0, %pc_lo12(.L.str.72)
	move	$a0, $s0
	move	$a1, $fp
	pcaddu18i	$ra, %call36(_Z13test_constantIh27custom_multiple_constant_orIhEEvPT_iPKc)
	jirl	$ra, $ra, 0
	pcalau12i	$a0, %pc_hi20(.L.str.73)
	addi.d	$a2, $a0, %pc_lo12(.L.str.73)
	move	$a0, $s0
	move	$a1, $fp
	pcaddu18i	$ra, %call36(_Z13test_constantIh19custom_constant_xorIhEEvPT_iPKc)
	jirl	$ra, $ra, 0
	pcalau12i	$a0, %pc_hi20(.L.str.74)
	addi.d	$a2, $a0, %pc_lo12(.L.str.74)
	move	$a0, $s0
	move	$a1, $fp
	pcaddu18i	$ra, %call36(_Z13test_constantIh28custom_multiple_constant_xorIhEEvPT_iPKc)
	jirl	$ra, $ra, 0
	fld.d	$fa0, $s3, 0
	ftintrz.l.d	$fa0, $fa0
	movfr2gr.d	$a1, $fa0
	pcalau12i	$a0, %pc_hi20(data16+32)
	addi.d	$a0, $a0, %pc_lo12(data16+32)
	xvreplgr2vr.h	$xr0, $a1
	.p2align	4, , 16
.LBB5_4:                                # %vector.body
                                        # =>This Inner Loop Header: Depth=1
	xvst	$xr0, $a0, -32
	xvst	$xr0, $a0, 0
	addi.d	$fp, $fp, -32
	addi.d	$a0, $a0, 64
	bnez	$fp, .LBB5_4
# %bb.5:                                # %_Z4fillIPssEvT_S1_T0_.exit
	ld.w	$a0, $s1, %pc_lo12(base_iterations)
	st.w	$a0, $s2, %pc_lo12(iterations)
	pcalau12i	$a0, %pc_hi20(data16)
	addi.d	$s0, $a0, %pc_lo12(data16)
	pcalau12i	$a0, %pc_hi20(.L.str.75)
	addi.d	$a2, $a0, %pc_lo12(.L.str.75)
	ori	$fp, $s4, 3904
	move	$a0, $s0
	move	$a1, $fp
	pcaddu18i	$ra, %call36(_Z13test_constantIs10custom_twoIsEEvPT_iPKc)
	jirl	$ra, $ra, 0
	pcalau12i	$a0, %pc_hi20(.L.str.76)
	addi.d	$a2, $a0, %pc_lo12(.L.str.76)
	move	$a0, $s0
	move	$a1, $fp
	pcaddu18i	$ra, %call36(_Z13test_constantIs20custom_add_constantsIsEEvPT_iPKc)
	jirl	$ra, $ra, 0
	pcalau12i	$a0, %pc_hi20(.L.str.77)
	addi.d	$a2, $a0, %pc_lo12(.L.str.77)
	move	$a0, $s0
	move	$a1, $fp
	pcaddu18i	$ra, %call36(_Z13test_constantIs20custom_sub_constantsIsEEvPT_iPKc)
	jirl	$ra, $ra, 0
	pcalau12i	$a0, %pc_hi20(.L.str.78)
	addi.d	$a2, $a0, %pc_lo12(.L.str.78)
	move	$a0, $s0
	move	$a1, $fp
	pcaddu18i	$ra, %call36(_Z13test_constantIs25custom_multiply_constantsIsEEvPT_iPKc)
	jirl	$ra, $ra, 0
	pcalau12i	$a0, %pc_hi20(.L.str.79)
	addi.d	$a2, $a0, %pc_lo12(.L.str.79)
	move	$a0, $s0
	move	$a1, $fp
	pcaddu18i	$ra, %call36(_Z13test_constantIs23custom_divide_constantsIsEEvPT_iPKc)
	jirl	$ra, $ra, 0
	pcalau12i	$a0, %pc_hi20(.L.str.80)
	addi.d	$a2, $a0, %pc_lo12(.L.str.80)
	move	$a0, $s0
	move	$a1, $fp
	pcaddu18i	$ra, %call36(_Z13test_constantIs20custom_mod_constantsIsEEvPT_iPKc)
	jirl	$ra, $ra, 0
	pcalau12i	$a0, %pc_hi20(.L.str.81)
	addi.d	$a2, $a0, %pc_lo12(.L.str.81)
	move	$a0, $s0
	move	$a1, $fp
	pcaddu18i	$ra, %call36(_Z13test_constantIs22custom_equal_constantsIsEEvPT_iPKc)
	jirl	$ra, $ra, 0
	pcalau12i	$a0, %pc_hi20(.L.str.82)
	addi.d	$a2, $a0, %pc_lo12(.L.str.82)
	move	$a0, $s0
	move	$a1, $fp
	pcaddu18i	$ra, %call36(_Z13test_constantIs25custom_notequal_constantsIsEEvPT_iPKc)
	jirl	$ra, $ra, 0
	pcalau12i	$a0, %pc_hi20(.L.str.83)
	addi.d	$a2, $a0, %pc_lo12(.L.str.83)
	move	$a0, $s0
	move	$a1, $fp
	pcaddu18i	$ra, %call36(_Z13test_constantIs28custom_greaterthan_constantsIsEEvPT_iPKc)
	jirl	$ra, $ra, 0
	pcalau12i	$a0, %pc_hi20(.L.str.84)
	addi.d	$a2, $a0, %pc_lo12(.L.str.84)
	move	$a0, $s0
	move	$a1, $fp
	pcaddu18i	$ra, %call36(_Z13test_constantIs25custom_lessthan_constantsIsEEvPT_iPKc)
	jirl	$ra, $ra, 0
	pcalau12i	$a0, %pc_hi20(.L.str.85)
	addi.d	$a2, $a0, %pc_lo12(.L.str.85)
	move	$a0, $s0
	move	$a1, $fp
	pcaddu18i	$ra, %call36(_Z13test_constantIs33custom_greaterthanequal_constantsIsEEvPT_iPKc)
	jirl	$ra, $ra, 0
	pcalau12i	$a0, %pc_hi20(.L.str.86)
	addi.d	$a2, $a0, %pc_lo12(.L.str.86)
	move	$a0, $s0
	move	$a1, $fp
	pcaddu18i	$ra, %call36(_Z13test_constantIs30custom_lessthanequal_constantsIsEEvPT_iPKc)
	jirl	$ra, $ra, 0
	pcalau12i	$a0, %pc_hi20(.L.str.87)
	addi.d	$a2, $a0, %pc_lo12(.L.str.87)
	move	$a0, $s0
	move	$a1, $fp
	pcaddu18i	$ra, %call36(_Z13test_constantIs20custom_and_constantsIsEEvPT_iPKc)
	jirl	$ra, $ra, 0
	pcalau12i	$a0, %pc_hi20(.L.str.88)
	addi.d	$a2, $a0, %pc_lo12(.L.str.88)
	move	$a0, $s0
	move	$a1, $fp
	pcaddu18i	$ra, %call36(_Z13test_constantIs19custom_or_constantsIsEEvPT_iPKc)
	jirl	$ra, $ra, 0
	pcalau12i	$a0, %pc_hi20(.L.str.89)
	addi.d	$a2, $a0, %pc_lo12(.L.str.89)
	move	$a0, $s0
	move	$a1, $fp
	pcaddu18i	$ra, %call36(_Z13test_constantIs20custom_xor_constantsIsEEvPT_iPKc)
	jirl	$ra, $ra, 0
	ld.w	$a0, $s1, %pc_lo12(base_iterations)
	mul.d	$a0, $a0, $s5
	srli.d	$a1, $a0, 63
	srai.d	$a0, $a0, 34
	add.d	$a0, $a0, $a1
	st.w	$a0, $s2, %pc_lo12(iterations)
	pcalau12i	$a0, %pc_hi20(.L.str.90)
	addi.d	$a2, $a0, %pc_lo12(.L.str.90)
	move	$a0, $s0
	move	$a1, $fp
	pcaddu18i	$ra, %call36(_Z13test_constantIs19custom_constant_addIsEEvPT_iPKc)
	jirl	$ra, $ra, 0
	pcalau12i	$a0, %pc_hi20(.L.str.91)
	addi.d	$a2, $a0, %pc_lo12(.L.str.91)
	move	$a0, $s0
	move	$a1, $fp
	pcaddu18i	$ra, %call36(_Z13test_constantIs28custom_multiple_constant_addIsEEvPT_iPKc)
	jirl	$ra, $ra, 0
	pcalau12i	$a0, %pc_hi20(.L.str.92)
	addi.d	$a2, $a0, %pc_lo12(.L.str.92)
	move	$a0, $s0
	move	$a1, $fp
	pcaddu18i	$ra, %call36(_Z13test_constantIs19custom_constant_subIsEEvPT_iPKc)
	jirl	$ra, $ra, 0
	pcalau12i	$a0, %pc_hi20(.L.str.93)
	addi.d	$a2, $a0, %pc_lo12(.L.str.93)
	move	$a0, $s0
	move	$a1, $fp
	pcaddu18i	$ra, %call36(_Z13test_constantIs28custom_multiple_constant_subIsEEvPT_iPKc)
	jirl	$ra, $ra, 0
	pcalau12i	$a0, %pc_hi20(.L.str.94)
	addi.d	$a2, $a0, %pc_lo12(.L.str.94)
	move	$a0, $s0
	move	$a1, $fp
	pcaddu18i	$ra, %call36(_Z13test_constantIs24custom_constant_multiplyIsEEvPT_iPKc)
	jirl	$ra, $ra, 0
	pcalau12i	$a0, %pc_hi20(.L.str.95)
	addi.d	$a2, $a0, %pc_lo12(.L.str.95)
	move	$a0, $s0
	move	$a1, $fp
	pcaddu18i	$ra, %call36(_Z13test_constantIs33custom_multiple_constant_multiplyIsEEvPT_iPKc)
	jirl	$ra, $ra, 0
	pcalau12i	$a0, %pc_hi20(.L.str.96)
	addi.d	$a2, $a0, %pc_lo12(.L.str.96)
	move	$a0, $s0
	move	$a1, $fp
	pcaddu18i	$ra, %call36(_Z13test_constantIs34custom_multiple_constant_multiply2IsEEvPT_iPKc)
	jirl	$ra, $ra, 0
	pcalau12i	$a0, %pc_hi20(.L.str.97)
	addi.d	$a2, $a0, %pc_lo12(.L.str.97)
	move	$a0, $s0
	move	$a1, $fp
	pcaddu18i	$ra, %call36(_Z13test_constantIs22custom_constant_divideIsEEvPT_iPKc)
	jirl	$ra, $ra, 0
	pcalau12i	$a0, %pc_hi20(.L.str.98)
	addi.d	$a2, $a0, %pc_lo12(.L.str.98)
	move	$a0, $s0
	move	$a1, $fp
	pcaddu18i	$ra, %call36(_Z13test_constantIs31custom_multiple_constant_divideIsEEvPT_iPKc)
	jirl	$ra, $ra, 0
	pcalau12i	$a0, %pc_hi20(.L.str.99)
	addi.d	$a2, $a0, %pc_lo12(.L.str.99)
	move	$a0, $s0
	move	$a1, $fp
	pcaddu18i	$ra, %call36(_Z13test_constantIs32custom_multiple_constant_divide2IsEEvPT_iPKc)
	jirl	$ra, $ra, 0
	pcalau12i	$a0, %pc_hi20(.L.str.100)
	addi.d	$a2, $a0, %pc_lo12(.L.str.100)
	move	$a0, $s0
	move	$a1, $fp
	pcaddu18i	$ra, %call36(_Z13test_constantIs30custom_multiple_constant_mixedIsEEvPT_iPKc)
	jirl	$ra, $ra, 0
	pcalau12i	$a0, %pc_hi20(.L.str.101)
	addi.d	$a2, $a0, %pc_lo12(.L.str.101)
	move	$a0, $s0
	move	$a1, $fp
	pcaddu18i	$ra, %call36(_Z13test_constantIs19custom_constant_andIsEEvPT_iPKc)
	jirl	$ra, $ra, 0
	pcalau12i	$a0, %pc_hi20(.L.str.102)
	addi.d	$a2, $a0, %pc_lo12(.L.str.102)
	move	$a0, $s0
	move	$a1, $fp
	pcaddu18i	$ra, %call36(_Z13test_constantIs28custom_multiple_constant_andIsEEvPT_iPKc)
	jirl	$ra, $ra, 0
	pcalau12i	$a0, %pc_hi20(.L.str.103)
	addi.d	$a2, $a0, %pc_lo12(.L.str.103)
	move	$a0, $s0
	move	$a1, $fp
	pcaddu18i	$ra, %call36(_Z13test_constantIs18custom_constant_orIsEEvPT_iPKc)
	jirl	$ra, $ra, 0
	pcalau12i	$a0, %pc_hi20(.L.str.104)
	addi.d	$a2, $a0, %pc_lo12(.L.str.104)
	move	$a0, $s0
	move	$a1, $fp
	pcaddu18i	$ra, %call36(_Z13test_constantIs27custom_multiple_constant_orIsEEvPT_iPKc)
	jirl	$ra, $ra, 0
	pcalau12i	$a0, %pc_hi20(.L.str.105)
	addi.d	$a2, $a0, %pc_lo12(.L.str.105)
	move	$a0, $s0
	move	$a1, $fp
	pcaddu18i	$ra, %call36(_Z13test_constantIs19custom_constant_xorIsEEvPT_iPKc)
	jirl	$ra, $ra, 0
	pcalau12i	$a0, %pc_hi20(.L.str.106)
	addi.d	$a2, $a0, %pc_lo12(.L.str.106)
	move	$a0, $s0
	move	$a1, $fp
	pcaddu18i	$ra, %call36(_Z13test_constantIs28custom_multiple_constant_xorIsEEvPT_iPKc)
	jirl	$ra, $ra, 0
	fld.d	$fa0, $s3, 0
	ftintrz.l.d	$fa0, $fa0
	movfr2gr.d	$a1, $fa0
	pcalau12i	$a0, %pc_hi20(data16unsigned+32)
	addi.d	$a0, $a0, %pc_lo12(data16unsigned+32)
	xvreplgr2vr.h	$xr0, $a1
	.p2align	4, , 16
.LBB5_6:                                # %vector.body37
                                        # =>This Inner Loop Header: Depth=1
	xvst	$xr0, $a0, -32
	xvst	$xr0, $a0, 0
	addi.d	$fp, $fp, -32
	addi.d	$a0, $a0, 64
	bnez	$fp, .LBB5_6
# %bb.7:                                # %_Z4fillIPttEvT_S1_T0_.exit
	ld.w	$a0, $s1, %pc_lo12(base_iterations)
	st.w	$a0, $s2, %pc_lo12(iterations)
	pcalau12i	$a0, %pc_hi20(data16unsigned)
	addi.d	$s0, $a0, %pc_lo12(data16unsigned)
	pcalau12i	$a0, %pc_hi20(.L.str.107)
	addi.d	$a2, $a0, %pc_lo12(.L.str.107)
	ori	$fp, $s4, 3904
	move	$a0, $s0
	move	$a1, $fp
	pcaddu18i	$ra, %call36(_Z13test_constantIt10custom_twoItEEvPT_iPKc)
	jirl	$ra, $ra, 0
	pcalau12i	$a0, %pc_hi20(.L.str.108)
	addi.d	$a2, $a0, %pc_lo12(.L.str.108)
	move	$a0, $s0
	move	$a1, $fp
	pcaddu18i	$ra, %call36(_Z13test_constantIt20custom_add_constantsItEEvPT_iPKc)
	jirl	$ra, $ra, 0
	pcalau12i	$a0, %pc_hi20(.L.str.109)
	addi.d	$a2, $a0, %pc_lo12(.L.str.109)
	move	$a0, $s0
	move	$a1, $fp
	pcaddu18i	$ra, %call36(_Z13test_constantIt20custom_sub_constantsItEEvPT_iPKc)
	jirl	$ra, $ra, 0
	pcalau12i	$a0, %pc_hi20(.L.str.110)
	addi.d	$a2, $a0, %pc_lo12(.L.str.110)
	move	$a0, $s0
	move	$a1, $fp
	pcaddu18i	$ra, %call36(_Z13test_constantIt25custom_multiply_constantsItEEvPT_iPKc)
	jirl	$ra, $ra, 0
	pcalau12i	$a0, %pc_hi20(.L.str.111)
	addi.d	$a2, $a0, %pc_lo12(.L.str.111)
	move	$a0, $s0
	move	$a1, $fp
	pcaddu18i	$ra, %call36(_Z13test_constantIt23custom_divide_constantsItEEvPT_iPKc)
	jirl	$ra, $ra, 0
	pcalau12i	$a0, %pc_hi20(.L.str.112)
	addi.d	$a2, $a0, %pc_lo12(.L.str.112)
	move	$a0, $s0
	move	$a1, $fp
	pcaddu18i	$ra, %call36(_Z13test_constantIt20custom_mod_constantsItEEvPT_iPKc)
	jirl	$ra, $ra, 0
	pcalau12i	$a0, %pc_hi20(.L.str.113)
	addi.d	$a2, $a0, %pc_lo12(.L.str.113)
	move	$a0, $s0
	move	$a1, $fp
	pcaddu18i	$ra, %call36(_Z13test_constantIt22custom_equal_constantsItEEvPT_iPKc)
	jirl	$ra, $ra, 0
	pcalau12i	$a0, %pc_hi20(.L.str.114)
	addi.d	$a2, $a0, %pc_lo12(.L.str.114)
	move	$a0, $s0
	move	$a1, $fp
	pcaddu18i	$ra, %call36(_Z13test_constantIt25custom_notequal_constantsItEEvPT_iPKc)
	jirl	$ra, $ra, 0
	pcalau12i	$a0, %pc_hi20(.L.str.115)
	addi.d	$a2, $a0, %pc_lo12(.L.str.115)
	move	$a0, $s0
	move	$a1, $fp
	pcaddu18i	$ra, %call36(_Z13test_constantIt28custom_greaterthan_constantsItEEvPT_iPKc)
	jirl	$ra, $ra, 0
	pcalau12i	$a0, %pc_hi20(.L.str.116)
	addi.d	$a2, $a0, %pc_lo12(.L.str.116)
	move	$a0, $s0
	move	$a1, $fp
	pcaddu18i	$ra, %call36(_Z13test_constantIt25custom_lessthan_constantsItEEvPT_iPKc)
	jirl	$ra, $ra, 0
	pcalau12i	$a0, %pc_hi20(.L.str.117)
	addi.d	$a2, $a0, %pc_lo12(.L.str.117)
	move	$a0, $s0
	move	$a1, $fp
	pcaddu18i	$ra, %call36(_Z13test_constantIt33custom_greaterthanequal_constantsItEEvPT_iPKc)
	jirl	$ra, $ra, 0
	pcalau12i	$a0, %pc_hi20(.L.str.118)
	addi.d	$a2, $a0, %pc_lo12(.L.str.118)
	move	$a0, $s0
	move	$a1, $fp
	pcaddu18i	$ra, %call36(_Z13test_constantIt30custom_lessthanequal_constantsItEEvPT_iPKc)
	jirl	$ra, $ra, 0
	pcalau12i	$a0, %pc_hi20(.L.str.119)
	addi.d	$a2, $a0, %pc_lo12(.L.str.119)
	move	$a0, $s0
	move	$a1, $fp
	pcaddu18i	$ra, %call36(_Z13test_constantIt20custom_and_constantsItEEvPT_iPKc)
	jirl	$ra, $ra, 0
	pcalau12i	$a0, %pc_hi20(.L.str.120)
	addi.d	$a2, $a0, %pc_lo12(.L.str.120)
	move	$a0, $s0
	move	$a1, $fp
	pcaddu18i	$ra, %call36(_Z13test_constantIt19custom_or_constantsItEEvPT_iPKc)
	jirl	$ra, $ra, 0
	pcalau12i	$a0, %pc_hi20(.L.str.121)
	addi.d	$a2, $a0, %pc_lo12(.L.str.121)
	move	$a0, $s0
	move	$a1, $fp
	pcaddu18i	$ra, %call36(_Z13test_constantIt20custom_xor_constantsItEEvPT_iPKc)
	jirl	$ra, $ra, 0
	ld.w	$a0, $s1, %pc_lo12(base_iterations)
	mul.d	$a0, $a0, $s5
	srli.d	$a1, $a0, 63
	srai.d	$a0, $a0, 34
	add.d	$a0, $a0, $a1
	st.w	$a0, $s2, %pc_lo12(iterations)
	pcalau12i	$a0, %pc_hi20(.L.str.122)
	addi.d	$a2, $a0, %pc_lo12(.L.str.122)
	move	$a0, $s0
	move	$a1, $fp
	pcaddu18i	$ra, %call36(_Z13test_constantIt19custom_constant_addItEEvPT_iPKc)
	jirl	$ra, $ra, 0
	pcalau12i	$a0, %pc_hi20(.L.str.123)
	addi.d	$a2, $a0, %pc_lo12(.L.str.123)
	move	$a0, $s0
	move	$a1, $fp
	pcaddu18i	$ra, %call36(_Z13test_constantIt28custom_multiple_constant_addItEEvPT_iPKc)
	jirl	$ra, $ra, 0
	pcalau12i	$a0, %pc_hi20(.L.str.124)
	addi.d	$a2, $a0, %pc_lo12(.L.str.124)
	move	$a0, $s0
	move	$a1, $fp
	pcaddu18i	$ra, %call36(_Z13test_constantIt19custom_constant_subItEEvPT_iPKc)
	jirl	$ra, $ra, 0
	pcalau12i	$a0, %pc_hi20(.L.str.125)
	addi.d	$a2, $a0, %pc_lo12(.L.str.125)
	move	$a0, $s0
	move	$a1, $fp
	pcaddu18i	$ra, %call36(_Z13test_constantIt28custom_multiple_constant_subItEEvPT_iPKc)
	jirl	$ra, $ra, 0
	pcalau12i	$a0, %pc_hi20(.L.str.126)
	addi.d	$a2, $a0, %pc_lo12(.L.str.126)
	move	$a0, $s0
	move	$a1, $fp
	pcaddu18i	$ra, %call36(_Z13test_constantIt24custom_constant_multiplyItEEvPT_iPKc)
	jirl	$ra, $ra, 0
	pcalau12i	$a0, %pc_hi20(.L.str.127)
	addi.d	$a2, $a0, %pc_lo12(.L.str.127)
	move	$a0, $s0
	move	$a1, $fp
	pcaddu18i	$ra, %call36(_Z13test_constantIt33custom_multiple_constant_multiplyItEEvPT_iPKc)
	jirl	$ra, $ra, 0
	pcalau12i	$a0, %pc_hi20(.L.str.128)
	addi.d	$a2, $a0, %pc_lo12(.L.str.128)
	move	$a0, $s0
	move	$a1, $fp
	pcaddu18i	$ra, %call36(_Z13test_constantIt34custom_multiple_constant_multiply2ItEEvPT_iPKc)
	jirl	$ra, $ra, 0
	pcalau12i	$a0, %pc_hi20(.L.str.129)
	addi.d	$a2, $a0, %pc_lo12(.L.str.129)
	move	$a0, $s0
	move	$a1, $fp
	pcaddu18i	$ra, %call36(_Z13test_constantIt22custom_constant_divideItEEvPT_iPKc)
	jirl	$ra, $ra, 0
	pcalau12i	$a0, %pc_hi20(.L.str.130)
	addi.d	$a2, $a0, %pc_lo12(.L.str.130)
	move	$a0, $s0
	move	$a1, $fp
	pcaddu18i	$ra, %call36(_Z13test_constantIt31custom_multiple_constant_divideItEEvPT_iPKc)
	jirl	$ra, $ra, 0
	pcalau12i	$a0, %pc_hi20(.L.str.131)
	addi.d	$a2, $a0, %pc_lo12(.L.str.131)
	move	$a0, $s0
	move	$a1, $fp
	pcaddu18i	$ra, %call36(_Z13test_constantIt32custom_multiple_constant_divide2ItEEvPT_iPKc)
	jirl	$ra, $ra, 0
	pcalau12i	$a0, %pc_hi20(.L.str.132)
	addi.d	$a2, $a0, %pc_lo12(.L.str.132)
	move	$a0, $s0
	move	$a1, $fp
	pcaddu18i	$ra, %call36(_Z13test_constantIt30custom_multiple_constant_mixedItEEvPT_iPKc)
	jirl	$ra, $ra, 0
	pcalau12i	$a0, %pc_hi20(.L.str.133)
	addi.d	$a2, $a0, %pc_lo12(.L.str.133)
	move	$a0, $s0
	move	$a1, $fp
	pcaddu18i	$ra, %call36(_Z13test_constantIt19custom_constant_andItEEvPT_iPKc)
	jirl	$ra, $ra, 0
	pcalau12i	$a0, %pc_hi20(.L.str.134)
	addi.d	$a2, $a0, %pc_lo12(.L.str.134)
	move	$a0, $s0
	move	$a1, $fp
	pcaddu18i	$ra, %call36(_Z13test_constantIt28custom_multiple_constant_andItEEvPT_iPKc)
	jirl	$ra, $ra, 0
	pcalau12i	$a0, %pc_hi20(.L.str.135)
	addi.d	$a2, $a0, %pc_lo12(.L.str.135)
	move	$a0, $s0
	move	$a1, $fp
	pcaddu18i	$ra, %call36(_Z13test_constantIt18custom_constant_orItEEvPT_iPKc)
	jirl	$ra, $ra, 0
	pcalau12i	$a0, %pc_hi20(.L.str.136)
	addi.d	$a2, $a0, %pc_lo12(.L.str.136)
	move	$a0, $s0
	move	$a1, $fp
	pcaddu18i	$ra, %call36(_Z13test_constantIt27custom_multiple_constant_orItEEvPT_iPKc)
	jirl	$ra, $ra, 0
	pcalau12i	$a0, %pc_hi20(.L.str.137)
	addi.d	$a2, $a0, %pc_lo12(.L.str.137)
	move	$a0, $s0
	move	$a1, $fp
	pcaddu18i	$ra, %call36(_Z13test_constantIt19custom_constant_xorItEEvPT_iPKc)
	jirl	$ra, $ra, 0
	pcalau12i	$a0, %pc_hi20(.L.str.138)
	addi.d	$a2, $a0, %pc_lo12(.L.str.138)
	move	$a0, $s0
	move	$a1, $fp
	pcaddu18i	$ra, %call36(_Z13test_constantIt28custom_multiple_constant_xorItEEvPT_iPKc)
	jirl	$ra, $ra, 0
	fld.d	$fa0, $s3, 0
	ftintrz.w.d	$fa0, $fa0
	movfr2gr.s	$a1, $fa0
	pcalau12i	$a0, %pc_hi20(data32+32)
	addi.d	$a0, $a0, %pc_lo12(data32+32)
	xvreplgr2vr.w	$xr0, $a1
	.p2align	4, , 16
.LBB5_8:                                # %vector.body47
                                        # =>This Inner Loop Header: Depth=1
	xvst	$xr0, $a0, -32
	xvst	$xr0, $a0, 0
	addi.d	$fp, $fp, -16
	addi.d	$a0, $a0, 64
	bnez	$fp, .LBB5_8
# %bb.9:                                # %_Z4fillIPiiEvT_S1_T0_.exit
	ld.w	$a0, $s1, %pc_lo12(base_iterations)
	st.w	$a0, $s2, %pc_lo12(iterations)
	pcalau12i	$a0, %pc_hi20(data32)
	addi.d	$s0, $a0, %pc_lo12(data32)
	pcalau12i	$a0, %pc_hi20(.L.str.139)
	addi.d	$a2, $a0, %pc_lo12(.L.str.139)
	ori	$fp, $s4, 3904
	move	$a0, $s0
	move	$a1, $fp
	pcaddu18i	$ra, %call36(_Z13test_constantIi10custom_twoIiEEvPT_iPKc)
	jirl	$ra, $ra, 0
	pcalau12i	$a0, %pc_hi20(.L.str.140)
	addi.d	$a2, $a0, %pc_lo12(.L.str.140)
	move	$a0, $s0
	move	$a1, $fp
	pcaddu18i	$ra, %call36(_Z13test_constantIi20custom_add_constantsIiEEvPT_iPKc)
	jirl	$ra, $ra, 0
	pcalau12i	$a0, %pc_hi20(.L.str.141)
	addi.d	$a2, $a0, %pc_lo12(.L.str.141)
	move	$a0, $s0
	move	$a1, $fp
	pcaddu18i	$ra, %call36(_Z13test_constantIi20custom_sub_constantsIiEEvPT_iPKc)
	jirl	$ra, $ra, 0
	pcalau12i	$a0, %pc_hi20(.L.str.142)
	addi.d	$a2, $a0, %pc_lo12(.L.str.142)
	move	$a0, $s0
	move	$a1, $fp
	pcaddu18i	$ra, %call36(_Z13test_constantIi25custom_multiply_constantsIiEEvPT_iPKc)
	jirl	$ra, $ra, 0
	pcalau12i	$a0, %pc_hi20(.L.str.143)
	addi.d	$a2, $a0, %pc_lo12(.L.str.143)
	move	$a0, $s0
	move	$a1, $fp
	pcaddu18i	$ra, %call36(_Z13test_constantIi23custom_divide_constantsIiEEvPT_iPKc)
	jirl	$ra, $ra, 0
	pcalau12i	$a0, %pc_hi20(.L.str.144)
	addi.d	$a2, $a0, %pc_lo12(.L.str.144)
	move	$a0, $s0
	move	$a1, $fp
	pcaddu18i	$ra, %call36(_Z13test_constantIi20custom_mod_constantsIiEEvPT_iPKc)
	jirl	$ra, $ra, 0
	pcalau12i	$a0, %pc_hi20(.L.str.145)
	addi.d	$a2, $a0, %pc_lo12(.L.str.145)
	move	$a0, $s0
	move	$a1, $fp
	pcaddu18i	$ra, %call36(_Z13test_constantIi22custom_equal_constantsIiEEvPT_iPKc)
	jirl	$ra, $ra, 0
	pcalau12i	$a0, %pc_hi20(.L.str.146)
	addi.d	$a2, $a0, %pc_lo12(.L.str.146)
	move	$a0, $s0
	move	$a1, $fp
	pcaddu18i	$ra, %call36(_Z13test_constantIi25custom_notequal_constantsIiEEvPT_iPKc)
	jirl	$ra, $ra, 0
	pcalau12i	$a0, %pc_hi20(.L.str.147)
	addi.d	$a2, $a0, %pc_lo12(.L.str.147)
	move	$a0, $s0
	move	$a1, $fp
	pcaddu18i	$ra, %call36(_Z13test_constantIi28custom_greaterthan_constantsIiEEvPT_iPKc)
	jirl	$ra, $ra, 0
	pcalau12i	$a0, %pc_hi20(.L.str.148)
	addi.d	$a2, $a0, %pc_lo12(.L.str.148)
	move	$a0, $s0
	move	$a1, $fp
	pcaddu18i	$ra, %call36(_Z13test_constantIi25custom_lessthan_constantsIiEEvPT_iPKc)
	jirl	$ra, $ra, 0
	pcalau12i	$a0, %pc_hi20(.L.str.149)
	addi.d	$a2, $a0, %pc_lo12(.L.str.149)
	move	$a0, $s0
	move	$a1, $fp
	pcaddu18i	$ra, %call36(_Z13test_constantIi33custom_greaterthanequal_constantsIiEEvPT_iPKc)
	jirl	$ra, $ra, 0
	pcalau12i	$a0, %pc_hi20(.L.str.150)
	addi.d	$a2, $a0, %pc_lo12(.L.str.150)
	move	$a0, $s0
	move	$a1, $fp
	pcaddu18i	$ra, %call36(_Z13test_constantIi30custom_lessthanequal_constantsIiEEvPT_iPKc)
	jirl	$ra, $ra, 0
	pcalau12i	$a0, %pc_hi20(.L.str.151)
	addi.d	$a2, $a0, %pc_lo12(.L.str.151)
	move	$a0, $s0
	move	$a1, $fp
	pcaddu18i	$ra, %call36(_Z13test_constantIi20custom_and_constantsIiEEvPT_iPKc)
	jirl	$ra, $ra, 0
	pcalau12i	$a0, %pc_hi20(.L.str.152)
	addi.d	$a2, $a0, %pc_lo12(.L.str.152)
	move	$a0, $s0
	move	$a1, $fp
	pcaddu18i	$ra, %call36(_Z13test_constantIi19custom_or_constantsIiEEvPT_iPKc)
	jirl	$ra, $ra, 0
	pcalau12i	$a0, %pc_hi20(.L.str.153)
	addi.d	$a2, $a0, %pc_lo12(.L.str.153)
	move	$a0, $s0
	move	$a1, $fp
	pcaddu18i	$ra, %call36(_Z13test_constantIi20custom_xor_constantsIiEEvPT_iPKc)
	jirl	$ra, $ra, 0
	ld.w	$a0, $s1, %pc_lo12(base_iterations)
	mul.d	$a0, $a0, $s5
	srli.d	$a1, $a0, 63
	srai.d	$a0, $a0, 34
	add.d	$a0, $a0, $a1
	st.w	$a0, $s2, %pc_lo12(iterations)
	pcalau12i	$a0, %pc_hi20(.L.str.154)
	addi.d	$a2, $a0, %pc_lo12(.L.str.154)
	move	$a0, $s0
	move	$a1, $fp
	pcaddu18i	$ra, %call36(_Z13test_constantIi19custom_constant_addIiEEvPT_iPKc)
	jirl	$ra, $ra, 0
	pcalau12i	$a0, %pc_hi20(.L.str.155)
	addi.d	$a2, $a0, %pc_lo12(.L.str.155)
	move	$a0, $s0
	move	$a1, $fp
	pcaddu18i	$ra, %call36(_Z13test_constantIi28custom_multiple_constant_addIiEEvPT_iPKc)
	jirl	$ra, $ra, 0
	pcalau12i	$a0, %pc_hi20(.L.str.156)
	addi.d	$a2, $a0, %pc_lo12(.L.str.156)
	move	$a0, $s0
	move	$a1, $fp
	pcaddu18i	$ra, %call36(_Z13test_constantIi19custom_constant_subIiEEvPT_iPKc)
	jirl	$ra, $ra, 0
	pcalau12i	$a0, %pc_hi20(.L.str.157)
	addi.d	$a2, $a0, %pc_lo12(.L.str.157)
	move	$a0, $s0
	move	$a1, $fp
	pcaddu18i	$ra, %call36(_Z13test_constantIi28custom_multiple_constant_subIiEEvPT_iPKc)
	jirl	$ra, $ra, 0
	pcalau12i	$a0, %pc_hi20(.L.str.158)
	addi.d	$a2, $a0, %pc_lo12(.L.str.158)
	move	$a0, $s0
	move	$a1, $fp
	pcaddu18i	$ra, %call36(_Z13test_constantIi24custom_constant_multiplyIiEEvPT_iPKc)
	jirl	$ra, $ra, 0
	pcalau12i	$a0, %pc_hi20(.L.str.159)
	addi.d	$a2, $a0, %pc_lo12(.L.str.159)
	move	$a0, $s0
	move	$a1, $fp
	pcaddu18i	$ra, %call36(_Z13test_constantIi33custom_multiple_constant_multiplyIiEEvPT_iPKc)
	jirl	$ra, $ra, 0
	pcalau12i	$a0, %pc_hi20(.L.str.160)
	addi.d	$a2, $a0, %pc_lo12(.L.str.160)
	move	$a0, $s0
	move	$a1, $fp
	pcaddu18i	$ra, %call36(_Z13test_constantIi34custom_multiple_constant_multiply2IiEEvPT_iPKc)
	jirl	$ra, $ra, 0
	pcalau12i	$a0, %pc_hi20(.L.str.161)
	addi.d	$a2, $a0, %pc_lo12(.L.str.161)
	move	$a0, $s0
	move	$a1, $fp
	pcaddu18i	$ra, %call36(_Z13test_constantIi22custom_constant_divideIiEEvPT_iPKc)
	jirl	$ra, $ra, 0
	pcalau12i	$a0, %pc_hi20(.L.str.162)
	addi.d	$a2, $a0, %pc_lo12(.L.str.162)
	move	$a0, $s0
	move	$a1, $fp
	pcaddu18i	$ra, %call36(_Z13test_constantIi31custom_multiple_constant_divideIiEEvPT_iPKc)
	jirl	$ra, $ra, 0
	pcalau12i	$a0, %pc_hi20(.L.str.163)
	addi.d	$a2, $a0, %pc_lo12(.L.str.163)
	move	$a0, $s0
	move	$a1, $fp
	pcaddu18i	$ra, %call36(_Z13test_constantIi32custom_multiple_constant_divide2IiEEvPT_iPKc)
	jirl	$ra, $ra, 0
	pcalau12i	$a0, %pc_hi20(.L.str.164)
	addi.d	$a2, $a0, %pc_lo12(.L.str.164)
	move	$a0, $s0
	move	$a1, $fp
	pcaddu18i	$ra, %call36(_Z13test_constantIi30custom_multiple_constant_mixedIiEEvPT_iPKc)
	jirl	$ra, $ra, 0
	pcalau12i	$a0, %pc_hi20(.L.str.165)
	addi.d	$a2, $a0, %pc_lo12(.L.str.165)
	move	$a0, $s0
	move	$a1, $fp
	pcaddu18i	$ra, %call36(_Z13test_constantIi19custom_constant_andIiEEvPT_iPKc)
	jirl	$ra, $ra, 0
	pcalau12i	$a0, %pc_hi20(.L.str.166)
	addi.d	$a2, $a0, %pc_lo12(.L.str.166)
	move	$a0, $s0
	move	$a1, $fp
	pcaddu18i	$ra, %call36(_Z13test_constantIi28custom_multiple_constant_andIiEEvPT_iPKc)
	jirl	$ra, $ra, 0
	pcalau12i	$a0, %pc_hi20(.L.str.167)
	addi.d	$a2, $a0, %pc_lo12(.L.str.167)
	move	$a0, $s0
	move	$a1, $fp
	pcaddu18i	$ra, %call36(_Z13test_constantIi18custom_constant_orIiEEvPT_iPKc)
	jirl	$ra, $ra, 0
	pcalau12i	$a0, %pc_hi20(.L.str.168)
	addi.d	$a2, $a0, %pc_lo12(.L.str.168)
	move	$a0, $s0
	move	$a1, $fp
	pcaddu18i	$ra, %call36(_Z13test_constantIi27custom_multiple_constant_orIiEEvPT_iPKc)
	jirl	$ra, $ra, 0
	pcalau12i	$a0, %pc_hi20(.L.str.169)
	addi.d	$a2, $a0, %pc_lo12(.L.str.169)
	move	$a0, $s0
	move	$a1, $fp
	pcaddu18i	$ra, %call36(_Z13test_constantIi19custom_constant_xorIiEEvPT_iPKc)
	jirl	$ra, $ra, 0
	pcalau12i	$a0, %pc_hi20(.L.str.170)
	addi.d	$a2, $a0, %pc_lo12(.L.str.170)
	move	$a0, $s0
	move	$a1, $fp
	pcaddu18i	$ra, %call36(_Z13test_constantIi28custom_multiple_constant_xorIiEEvPT_iPKc)
	jirl	$ra, $ra, 0
	fld.d	$fa0, $s3, 0
	ftintrz.l.d	$fa0, $fa0
	movfr2gr.d	$a1, $fa0
	pcalau12i	$a0, %pc_hi20(data32unsigned+32)
	addi.d	$a0, $a0, %pc_lo12(data32unsigned+32)
	xvreplgr2vr.w	$xr0, $a1
	.p2align	4, , 16
.LBB5_10:                               # %vector.body57
                                        # =>This Inner Loop Header: Depth=1
	xvst	$xr0, $a0, -32
	xvst	$xr0, $a0, 0
	addi.d	$fp, $fp, -16
	addi.d	$a0, $a0, 64
	bnez	$fp, .LBB5_10
# %bb.11:                               # %_Z4fillIPjjEvT_S1_T0_.exit
	ld.w	$a0, $s1, %pc_lo12(base_iterations)
	st.w	$a0, $s2, %pc_lo12(iterations)
	pcalau12i	$a0, %pc_hi20(data32unsigned)
	addi.d	$s0, $a0, %pc_lo12(data32unsigned)
	pcalau12i	$a0, %pc_hi20(.L.str.171)
	addi.d	$a2, $a0, %pc_lo12(.L.str.171)
	ori	$fp, $s4, 3904
	move	$a0, $s0
	move	$a1, $fp
	pcaddu18i	$ra, %call36(_Z13test_constantIj10custom_twoIjEEvPT_iPKc)
	jirl	$ra, $ra, 0
	pcalau12i	$a0, %pc_hi20(.L.str.172)
	addi.d	$a2, $a0, %pc_lo12(.L.str.172)
	move	$a0, $s0
	move	$a1, $fp
	pcaddu18i	$ra, %call36(_Z13test_constantIj20custom_add_constantsIjEEvPT_iPKc)
	jirl	$ra, $ra, 0
	pcalau12i	$a0, %pc_hi20(.L.str.173)
	addi.d	$a2, $a0, %pc_lo12(.L.str.173)
	move	$a0, $s0
	move	$a1, $fp
	pcaddu18i	$ra, %call36(_Z13test_constantIj20custom_sub_constantsIjEEvPT_iPKc)
	jirl	$ra, $ra, 0
	pcalau12i	$a0, %pc_hi20(.L.str.174)
	addi.d	$a2, $a0, %pc_lo12(.L.str.174)
	move	$a0, $s0
	move	$a1, $fp
	pcaddu18i	$ra, %call36(_Z13test_constantIj25custom_multiply_constantsIjEEvPT_iPKc)
	jirl	$ra, $ra, 0
	pcalau12i	$a0, %pc_hi20(.L.str.175)
	addi.d	$a2, $a0, %pc_lo12(.L.str.175)
	move	$a0, $s0
	move	$a1, $fp
	pcaddu18i	$ra, %call36(_Z13test_constantIj23custom_divide_constantsIjEEvPT_iPKc)
	jirl	$ra, $ra, 0
	pcalau12i	$a0, %pc_hi20(.L.str.176)
	addi.d	$a2, $a0, %pc_lo12(.L.str.176)
	move	$a0, $s0
	move	$a1, $fp
	pcaddu18i	$ra, %call36(_Z13test_constantIj20custom_mod_constantsIjEEvPT_iPKc)
	jirl	$ra, $ra, 0
	pcalau12i	$a0, %pc_hi20(.L.str.177)
	addi.d	$a2, $a0, %pc_lo12(.L.str.177)
	move	$a0, $s0
	move	$a1, $fp
	pcaddu18i	$ra, %call36(_Z13test_constantIj22custom_equal_constantsIjEEvPT_iPKc)
	jirl	$ra, $ra, 0
	pcalau12i	$a0, %pc_hi20(.L.str.178)
	addi.d	$a2, $a0, %pc_lo12(.L.str.178)
	move	$a0, $s0
	move	$a1, $fp
	pcaddu18i	$ra, %call36(_Z13test_constantIj25custom_notequal_constantsIjEEvPT_iPKc)
	jirl	$ra, $ra, 0
	pcalau12i	$a0, %pc_hi20(.L.str.179)
	addi.d	$a2, $a0, %pc_lo12(.L.str.179)
	move	$a0, $s0
	move	$a1, $fp
	pcaddu18i	$ra, %call36(_Z13test_constantIj28custom_greaterthan_constantsIjEEvPT_iPKc)
	jirl	$ra, $ra, 0
	pcalau12i	$a0, %pc_hi20(.L.str.180)
	addi.d	$a2, $a0, %pc_lo12(.L.str.180)
	move	$a0, $s0
	move	$a1, $fp
	pcaddu18i	$ra, %call36(_Z13test_constantIj25custom_lessthan_constantsIjEEvPT_iPKc)
	jirl	$ra, $ra, 0
	pcalau12i	$a0, %pc_hi20(.L.str.181)
	addi.d	$a2, $a0, %pc_lo12(.L.str.181)
	move	$a0, $s0
	move	$a1, $fp
	pcaddu18i	$ra, %call36(_Z13test_constantIj33custom_greaterthanequal_constantsIjEEvPT_iPKc)
	jirl	$ra, $ra, 0
	pcalau12i	$a0, %pc_hi20(.L.str.182)
	addi.d	$a2, $a0, %pc_lo12(.L.str.182)
	move	$a0, $s0
	move	$a1, $fp
	pcaddu18i	$ra, %call36(_Z13test_constantIj30custom_lessthanequal_constantsIjEEvPT_iPKc)
	jirl	$ra, $ra, 0
	pcalau12i	$a0, %pc_hi20(.L.str.183)
	addi.d	$a2, $a0, %pc_lo12(.L.str.183)
	move	$a0, $s0
	move	$a1, $fp
	pcaddu18i	$ra, %call36(_Z13test_constantIj20custom_and_constantsIjEEvPT_iPKc)
	jirl	$ra, $ra, 0
	pcalau12i	$a0, %pc_hi20(.L.str.184)
	addi.d	$a2, $a0, %pc_lo12(.L.str.184)
	move	$a0, $s0
	move	$a1, $fp
	pcaddu18i	$ra, %call36(_Z13test_constantIj19custom_or_constantsIjEEvPT_iPKc)
	jirl	$ra, $ra, 0
	pcalau12i	$a0, %pc_hi20(.L.str.185)
	addi.d	$a2, $a0, %pc_lo12(.L.str.185)
	move	$a0, $s0
	move	$a1, $fp
	pcaddu18i	$ra, %call36(_Z13test_constantIj20custom_xor_constantsIjEEvPT_iPKc)
	jirl	$ra, $ra, 0
	ld.w	$a0, $s1, %pc_lo12(base_iterations)
	mul.d	$a0, $a0, $s5
	srli.d	$a1, $a0, 63
	srai.d	$a0, $a0, 34
	add.d	$a0, $a0, $a1
	st.w	$a0, $s2, %pc_lo12(iterations)
	pcalau12i	$a0, %pc_hi20(.L.str.186)
	addi.d	$a2, $a0, %pc_lo12(.L.str.186)
	move	$a0, $s0
	move	$a1, $fp
	pcaddu18i	$ra, %call36(_Z13test_constantIj19custom_constant_addIjEEvPT_iPKc)
	jirl	$ra, $ra, 0
	pcalau12i	$a0, %pc_hi20(.L.str.187)
	addi.d	$a2, $a0, %pc_lo12(.L.str.187)
	move	$a0, $s0
	move	$a1, $fp
	pcaddu18i	$ra, %call36(_Z13test_constantIj28custom_multiple_constant_addIjEEvPT_iPKc)
	jirl	$ra, $ra, 0
	pcalau12i	$a0, %pc_hi20(.L.str.188)
	addi.d	$a2, $a0, %pc_lo12(.L.str.188)
	move	$a0, $s0
	move	$a1, $fp
	pcaddu18i	$ra, %call36(_Z13test_constantIj19custom_constant_subIjEEvPT_iPKc)
	jirl	$ra, $ra, 0
	pcalau12i	$a0, %pc_hi20(.L.str.189)
	addi.d	$a2, $a0, %pc_lo12(.L.str.189)
	move	$a0, $s0
	move	$a1, $fp
	pcaddu18i	$ra, %call36(_Z13test_constantIj28custom_multiple_constant_subIjEEvPT_iPKc)
	jirl	$ra, $ra, 0
	pcalau12i	$a0, %pc_hi20(.L.str.190)
	addi.d	$a2, $a0, %pc_lo12(.L.str.190)
	move	$a0, $s0
	move	$a1, $fp
	pcaddu18i	$ra, %call36(_Z13test_constantIj24custom_constant_multiplyIjEEvPT_iPKc)
	jirl	$ra, $ra, 0
	pcalau12i	$a0, %pc_hi20(.L.str.191)
	addi.d	$a2, $a0, %pc_lo12(.L.str.191)
	move	$a0, $s0
	move	$a1, $fp
	pcaddu18i	$ra, %call36(_Z13test_constantIj33custom_multiple_constant_multiplyIjEEvPT_iPKc)
	jirl	$ra, $ra, 0
	pcalau12i	$a0, %pc_hi20(.L.str.192)
	addi.d	$a2, $a0, %pc_lo12(.L.str.192)
	move	$a0, $s0
	move	$a1, $fp
	pcaddu18i	$ra, %call36(_Z13test_constantIj34custom_multiple_constant_multiply2IjEEvPT_iPKc)
	jirl	$ra, $ra, 0
	pcalau12i	$a0, %pc_hi20(.L.str.193)
	addi.d	$a2, $a0, %pc_lo12(.L.str.193)
	move	$a0, $s0
	move	$a1, $fp
	pcaddu18i	$ra, %call36(_Z13test_constantIj22custom_constant_divideIjEEvPT_iPKc)
	jirl	$ra, $ra, 0
	pcalau12i	$a0, %pc_hi20(.L.str.194)
	addi.d	$a2, $a0, %pc_lo12(.L.str.194)
	move	$a0, $s0
	move	$a1, $fp
	pcaddu18i	$ra, %call36(_Z13test_constantIj31custom_multiple_constant_divideIjEEvPT_iPKc)
	jirl	$ra, $ra, 0
	pcalau12i	$a0, %pc_hi20(.L.str.195)
	addi.d	$a2, $a0, %pc_lo12(.L.str.195)
	move	$a0, $s0
	move	$a1, $fp
	pcaddu18i	$ra, %call36(_Z13test_constantIj32custom_multiple_constant_divide2IjEEvPT_iPKc)
	jirl	$ra, $ra, 0
	pcalau12i	$a0, %pc_hi20(.L.str.196)
	addi.d	$a2, $a0, %pc_lo12(.L.str.196)
	move	$a0, $s0
	move	$a1, $fp
	pcaddu18i	$ra, %call36(_Z13test_constantIj30custom_multiple_constant_mixedIjEEvPT_iPKc)
	jirl	$ra, $ra, 0
	pcalau12i	$a0, %pc_hi20(.L.str.197)
	addi.d	$a2, $a0, %pc_lo12(.L.str.197)
	move	$a0, $s0
	move	$a1, $fp
	pcaddu18i	$ra, %call36(_Z13test_constantIj19custom_constant_andIjEEvPT_iPKc)
	jirl	$ra, $ra, 0
	pcalau12i	$a0, %pc_hi20(.L.str.198)
	addi.d	$a2, $a0, %pc_lo12(.L.str.198)
	move	$a0, $s0
	move	$a1, $fp
	pcaddu18i	$ra, %call36(_Z13test_constantIj28custom_multiple_constant_andIjEEvPT_iPKc)
	jirl	$ra, $ra, 0
	pcalau12i	$a0, %pc_hi20(.L.str.199)
	addi.d	$a2, $a0, %pc_lo12(.L.str.199)
	move	$a0, $s0
	move	$a1, $fp
	pcaddu18i	$ra, %call36(_Z13test_constantIj18custom_constant_orIjEEvPT_iPKc)
	jirl	$ra, $ra, 0
	pcalau12i	$a0, %pc_hi20(.L.str.200)
	addi.d	$a2, $a0, %pc_lo12(.L.str.200)
	move	$a0, $s0
	move	$a1, $fp
	pcaddu18i	$ra, %call36(_Z13test_constantIj27custom_multiple_constant_orIjEEvPT_iPKc)
	jirl	$ra, $ra, 0
	pcalau12i	$a0, %pc_hi20(.L.str.201)
	addi.d	$a2, $a0, %pc_lo12(.L.str.201)
	move	$a0, $s0
	move	$a1, $fp
	pcaddu18i	$ra, %call36(_Z13test_constantIj19custom_constant_xorIjEEvPT_iPKc)
	jirl	$ra, $ra, 0
	pcalau12i	$a0, %pc_hi20(.L.str.202)
	addi.d	$a2, $a0, %pc_lo12(.L.str.202)
	move	$a0, $s0
	move	$a1, $fp
	pcaddu18i	$ra, %call36(_Z13test_constantIj28custom_multiple_constant_xorIjEEvPT_iPKc)
	jirl	$ra, $ra, 0
	fld.d	$fa0, $s3, 0
	ftintrz.l.d	$fa0, $fa0
	movfr2gr.d	$a1, $fa0
	pcalau12i	$a0, %pc_hi20(data64+32)
	addi.d	$a0, $a0, %pc_lo12(data64+32)
	xvreplgr2vr.d	$xr0, $a1
	.p2align	4, , 16
.LBB5_12:                               # %vector.body67
                                        # =>This Inner Loop Header: Depth=1
	xvst	$xr0, $a0, -32
	xvst	$xr0, $a0, 0
	addi.d	$fp, $fp, -8
	addi.d	$a0, $a0, 64
	bnez	$fp, .LBB5_12
# %bb.13:                               # %_Z4fillIPllEvT_S1_T0_.exit
	ld.w	$a0, $s1, %pc_lo12(base_iterations)
	st.w	$a0, $s2, %pc_lo12(iterations)
	pcalau12i	$a0, %pc_hi20(data64)
	addi.d	$s0, $a0, %pc_lo12(data64)
	pcalau12i	$a0, %pc_hi20(.L.str.203)
	addi.d	$a2, $a0, %pc_lo12(.L.str.203)
	ori	$fp, $s4, 3904
	move	$a0, $s0
	move	$a1, $fp
	pcaddu18i	$ra, %call36(_Z13test_constantIl10custom_twoIlEEvPT_iPKc)
	jirl	$ra, $ra, 0
	pcalau12i	$a0, %pc_hi20(.L.str.204)
	addi.d	$a2, $a0, %pc_lo12(.L.str.204)
	move	$a0, $s0
	move	$a1, $fp
	pcaddu18i	$ra, %call36(_Z13test_constantIl20custom_add_constantsIlEEvPT_iPKc)
	jirl	$ra, $ra, 0
	pcalau12i	$a0, %pc_hi20(.L.str.205)
	addi.d	$a2, $a0, %pc_lo12(.L.str.205)
	move	$a0, $s0
	move	$a1, $fp
	pcaddu18i	$ra, %call36(_Z13test_constantIl20custom_sub_constantsIlEEvPT_iPKc)
	jirl	$ra, $ra, 0
	pcalau12i	$a0, %pc_hi20(.L.str.206)
	addi.d	$a2, $a0, %pc_lo12(.L.str.206)
	move	$a0, $s0
	move	$a1, $fp
	pcaddu18i	$ra, %call36(_Z13test_constantIl25custom_multiply_constantsIlEEvPT_iPKc)
	jirl	$ra, $ra, 0
	pcalau12i	$a0, %pc_hi20(.L.str.207)
	addi.d	$a2, $a0, %pc_lo12(.L.str.207)
	move	$a0, $s0
	move	$a1, $fp
	pcaddu18i	$ra, %call36(_Z13test_constantIl23custom_divide_constantsIlEEvPT_iPKc)
	jirl	$ra, $ra, 0
	pcalau12i	$a0, %pc_hi20(.L.str.208)
	addi.d	$a2, $a0, %pc_lo12(.L.str.208)
	move	$a0, $s0
	move	$a1, $fp
	pcaddu18i	$ra, %call36(_Z13test_constantIl20custom_mod_constantsIlEEvPT_iPKc)
	jirl	$ra, $ra, 0
	pcalau12i	$a0, %pc_hi20(.L.str.209)
	addi.d	$a2, $a0, %pc_lo12(.L.str.209)
	move	$a0, $s0
	move	$a1, $fp
	pcaddu18i	$ra, %call36(_Z13test_constantIl22custom_equal_constantsIlEEvPT_iPKc)
	jirl	$ra, $ra, 0
	pcalau12i	$a0, %pc_hi20(.L.str.210)
	addi.d	$a2, $a0, %pc_lo12(.L.str.210)
	move	$a0, $s0
	move	$a1, $fp
	pcaddu18i	$ra, %call36(_Z13test_constantIl25custom_notequal_constantsIlEEvPT_iPKc)
	jirl	$ra, $ra, 0
	pcalau12i	$a0, %pc_hi20(.L.str.211)
	addi.d	$a2, $a0, %pc_lo12(.L.str.211)
	move	$a0, $s0
	move	$a1, $fp
	pcaddu18i	$ra, %call36(_Z13test_constantIl28custom_greaterthan_constantsIlEEvPT_iPKc)
	jirl	$ra, $ra, 0
	pcalau12i	$a0, %pc_hi20(.L.str.212)
	addi.d	$a2, $a0, %pc_lo12(.L.str.212)
	move	$a0, $s0
	move	$a1, $fp
	pcaddu18i	$ra, %call36(_Z13test_constantIl25custom_lessthan_constantsIlEEvPT_iPKc)
	jirl	$ra, $ra, 0
	pcalau12i	$a0, %pc_hi20(.L.str.213)
	addi.d	$a2, $a0, %pc_lo12(.L.str.213)
	move	$a0, $s0
	move	$a1, $fp
	pcaddu18i	$ra, %call36(_Z13test_constantIl33custom_greaterthanequal_constantsIlEEvPT_iPKc)
	jirl	$ra, $ra, 0
	pcalau12i	$a0, %pc_hi20(.L.str.214)
	addi.d	$a2, $a0, %pc_lo12(.L.str.214)
	move	$a0, $s0
	move	$a1, $fp
	pcaddu18i	$ra, %call36(_Z13test_constantIl30custom_lessthanequal_constantsIlEEvPT_iPKc)
	jirl	$ra, $ra, 0
	pcalau12i	$a0, %pc_hi20(.L.str.215)
	addi.d	$a2, $a0, %pc_lo12(.L.str.215)
	move	$a0, $s0
	move	$a1, $fp
	pcaddu18i	$ra, %call36(_Z13test_constantIl20custom_and_constantsIlEEvPT_iPKc)
	jirl	$ra, $ra, 0
	pcalau12i	$a0, %pc_hi20(.L.str.216)
	addi.d	$a2, $a0, %pc_lo12(.L.str.216)
	move	$a0, $s0
	move	$a1, $fp
	pcaddu18i	$ra, %call36(_Z13test_constantIl19custom_or_constantsIlEEvPT_iPKc)
	jirl	$ra, $ra, 0
	pcalau12i	$a0, %pc_hi20(.L.str.217)
	addi.d	$a2, $a0, %pc_lo12(.L.str.217)
	move	$a0, $s0
	move	$a1, $fp
	pcaddu18i	$ra, %call36(_Z13test_constantIl20custom_xor_constantsIlEEvPT_iPKc)
	jirl	$ra, $ra, 0
	ld.w	$a0, $s1, %pc_lo12(base_iterations)
	mul.d	$a0, $a0, $s5
	srli.d	$a1, $a0, 63
	srai.d	$a0, $a0, 34
	add.d	$a0, $a0, $a1
	st.w	$a0, $s2, %pc_lo12(iterations)
	pcalau12i	$a0, %pc_hi20(.L.str.218)
	addi.d	$a2, $a0, %pc_lo12(.L.str.218)
	move	$a0, $s0
	move	$a1, $fp
	pcaddu18i	$ra, %call36(_Z13test_constantIl19custom_constant_addIlEEvPT_iPKc)
	jirl	$ra, $ra, 0
	pcalau12i	$a0, %pc_hi20(.L.str.219)
	addi.d	$a2, $a0, %pc_lo12(.L.str.219)
	move	$a0, $s0
	move	$a1, $fp
	pcaddu18i	$ra, %call36(_Z13test_constantIl28custom_multiple_constant_addIlEEvPT_iPKc)
	jirl	$ra, $ra, 0
	pcalau12i	$a0, %pc_hi20(.L.str.220)
	addi.d	$a2, $a0, %pc_lo12(.L.str.220)
	move	$a0, $s0
	move	$a1, $fp
	pcaddu18i	$ra, %call36(_Z13test_constantIl19custom_constant_subIlEEvPT_iPKc)
	jirl	$ra, $ra, 0
	pcalau12i	$a0, %pc_hi20(.L.str.221)
	addi.d	$a2, $a0, %pc_lo12(.L.str.221)
	move	$a0, $s0
	move	$a1, $fp
	pcaddu18i	$ra, %call36(_Z13test_constantIl28custom_multiple_constant_subIlEEvPT_iPKc)
	jirl	$ra, $ra, 0
	pcalau12i	$a0, %pc_hi20(.L.str.222)
	addi.d	$a2, $a0, %pc_lo12(.L.str.222)
	move	$a0, $s0
	move	$a1, $fp
	pcaddu18i	$ra, %call36(_Z13test_constantIl24custom_constant_multiplyIlEEvPT_iPKc)
	jirl	$ra, $ra, 0
	pcalau12i	$a0, %pc_hi20(.L.str.223)
	addi.d	$a2, $a0, %pc_lo12(.L.str.223)
	move	$a0, $s0
	move	$a1, $fp
	pcaddu18i	$ra, %call36(_Z13test_constantIl33custom_multiple_constant_multiplyIlEEvPT_iPKc)
	jirl	$ra, $ra, 0
	pcalau12i	$a0, %pc_hi20(.L.str.224)
	addi.d	$a2, $a0, %pc_lo12(.L.str.224)
	move	$a0, $s0
	move	$a1, $fp
	pcaddu18i	$ra, %call36(_Z13test_constantIl34custom_multiple_constant_multiply2IlEEvPT_iPKc)
	jirl	$ra, $ra, 0
	pcalau12i	$a0, %pc_hi20(.L.str.225)
	addi.d	$a2, $a0, %pc_lo12(.L.str.225)
	move	$a0, $s0
	move	$a1, $fp
	pcaddu18i	$ra, %call36(_Z13test_constantIl22custom_constant_divideIlEEvPT_iPKc)
	jirl	$ra, $ra, 0
	pcalau12i	$a0, %pc_hi20(.L.str.226)
	addi.d	$a2, $a0, %pc_lo12(.L.str.226)
	move	$a0, $s0
	move	$a1, $fp
	pcaddu18i	$ra, %call36(_Z13test_constantIl31custom_multiple_constant_divideIlEEvPT_iPKc)
	jirl	$ra, $ra, 0
	pcalau12i	$a0, %pc_hi20(.L.str.227)
	addi.d	$a2, $a0, %pc_lo12(.L.str.227)
	move	$a0, $s0
	move	$a1, $fp
	pcaddu18i	$ra, %call36(_Z13test_constantIl32custom_multiple_constant_divide2IlEEvPT_iPKc)
	jirl	$ra, $ra, 0
	pcalau12i	$a0, %pc_hi20(.L.str.228)
	addi.d	$a2, $a0, %pc_lo12(.L.str.228)
	move	$a0, $s0
	move	$a1, $fp
	pcaddu18i	$ra, %call36(_Z13test_constantIl30custom_multiple_constant_mixedIlEEvPT_iPKc)
	jirl	$ra, $ra, 0
	pcalau12i	$a0, %pc_hi20(.L.str.229)
	addi.d	$a2, $a0, %pc_lo12(.L.str.229)
	move	$a0, $s0
	move	$a1, $fp
	pcaddu18i	$ra, %call36(_Z13test_constantIl19custom_constant_andIlEEvPT_iPKc)
	jirl	$ra, $ra, 0
	pcalau12i	$a0, %pc_hi20(.L.str.230)
	addi.d	$a2, $a0, %pc_lo12(.L.str.230)
	move	$a0, $s0
	move	$a1, $fp
	pcaddu18i	$ra, %call36(_Z13test_constantIl28custom_multiple_constant_andIlEEvPT_iPKc)
	jirl	$ra, $ra, 0
	pcalau12i	$a0, %pc_hi20(.L.str.231)
	addi.d	$a2, $a0, %pc_lo12(.L.str.231)
	move	$a0, $s0
	move	$a1, $fp
	pcaddu18i	$ra, %call36(_Z13test_constantIl18custom_constant_orIlEEvPT_iPKc)
	jirl	$ra, $ra, 0
	pcalau12i	$a0, %pc_hi20(.L.str.232)
	addi.d	$a2, $a0, %pc_lo12(.L.str.232)
	move	$a0, $s0
	move	$a1, $fp
	pcaddu18i	$ra, %call36(_Z13test_constantIl27custom_multiple_constant_orIlEEvPT_iPKc)
	jirl	$ra, $ra, 0
	pcalau12i	$a0, %pc_hi20(.L.str.233)
	addi.d	$a2, $a0, %pc_lo12(.L.str.233)
	move	$a0, $s0
	move	$a1, $fp
	pcaddu18i	$ra, %call36(_Z13test_constantIl19custom_constant_xorIlEEvPT_iPKc)
	jirl	$ra, $ra, 0
	pcalau12i	$a0, %pc_hi20(.L.str.234)
	addi.d	$a2, $a0, %pc_lo12(.L.str.234)
	move	$a0, $s0
	move	$a1, $fp
	pcaddu18i	$ra, %call36(_Z13test_constantIl28custom_multiple_constant_xorIlEEvPT_iPKc)
	jirl	$ra, $ra, 0
	fld.d	$fa0, $s3, 0
	pcalau12i	$a0, %pc_hi20(.LCPI5_0)
	fld.d	$fa1, $a0, %pc_lo12(.LCPI5_0)
	fcmp.clt.d	$fcc0, $fa0, $fa1
	fsub.d	$fa1, $fa0, $fa1
	ftintrz.l.d	$fa1, $fa1
	movfr2gr.d	$a0, $fa1
	lu52i.d	$a1, $zero, -2048
	xor	$a0, $a0, $a1
	movcf2gr	$a1, $fcc0
	masknez	$a0, $a0, $a1
	ftintrz.l.d	$fa0, $fa0
	movfr2gr.d	$a2, $fa0
	maskeqz	$a1, $a2, $a1
	or	$a0, $a1, $a0
	xvreplgr2vr.d	$xr0, $a0
	pcalau12i	$a0, %pc_hi20(data64unsigned+32)
	addi.d	$a0, $a0, %pc_lo12(data64unsigned+32)
	.p2align	4, , 16
.LBB5_14:                               # %vector.body77
                                        # =>This Inner Loop Header: Depth=1
	xvst	$xr0, $a0, -32
	xvst	$xr0, $a0, 0
	addi.d	$fp, $fp, -8
	addi.d	$a0, $a0, 64
	bnez	$fp, .LBB5_14
# %bb.15:                               # %_Z4fillIPmmEvT_S1_T0_.exit
	ld.w	$a0, $s1, %pc_lo12(base_iterations)
	st.w	$a0, $s2, %pc_lo12(iterations)
	pcalau12i	$a0, %pc_hi20(data64unsigned)
	addi.d	$s0, $a0, %pc_lo12(data64unsigned)
	pcalau12i	$a0, %pc_hi20(.L.str.235)
	addi.d	$a2, $a0, %pc_lo12(.L.str.235)
	ori	$fp, $s4, 3904
	move	$a0, $s0
	move	$a1, $fp
	pcaddu18i	$ra, %call36(_Z13test_constantIm10custom_twoImEEvPT_iPKc)
	jirl	$ra, $ra, 0
	pcalau12i	$a0, %pc_hi20(.L.str.236)
	addi.d	$a2, $a0, %pc_lo12(.L.str.236)
	move	$a0, $s0
	move	$a1, $fp
	pcaddu18i	$ra, %call36(_Z13test_constantIm20custom_add_constantsImEEvPT_iPKc)
	jirl	$ra, $ra, 0
	pcalau12i	$a0, %pc_hi20(.L.str.237)
	addi.d	$a2, $a0, %pc_lo12(.L.str.237)
	move	$a0, $s0
	move	$a1, $fp
	pcaddu18i	$ra, %call36(_Z13test_constantIm20custom_sub_constantsImEEvPT_iPKc)
	jirl	$ra, $ra, 0
	pcalau12i	$a0, %pc_hi20(.L.str.238)
	addi.d	$a2, $a0, %pc_lo12(.L.str.238)
	move	$a0, $s0
	move	$a1, $fp
	pcaddu18i	$ra, %call36(_Z13test_constantIm25custom_multiply_constantsImEEvPT_iPKc)
	jirl	$ra, $ra, 0
	pcalau12i	$a0, %pc_hi20(.L.str.239)
	addi.d	$a2, $a0, %pc_lo12(.L.str.239)
	move	$a0, $s0
	move	$a1, $fp
	pcaddu18i	$ra, %call36(_Z13test_constantIm23custom_divide_constantsImEEvPT_iPKc)
	jirl	$ra, $ra, 0
	pcalau12i	$a0, %pc_hi20(.L.str.240)
	addi.d	$a2, $a0, %pc_lo12(.L.str.240)
	move	$a0, $s0
	move	$a1, $fp
	pcaddu18i	$ra, %call36(_Z13test_constantIm20custom_mod_constantsImEEvPT_iPKc)
	jirl	$ra, $ra, 0
	pcalau12i	$a0, %pc_hi20(.L.str.241)
	addi.d	$a2, $a0, %pc_lo12(.L.str.241)
	move	$a0, $s0
	move	$a1, $fp
	pcaddu18i	$ra, %call36(_Z13test_constantIm22custom_equal_constantsImEEvPT_iPKc)
	jirl	$ra, $ra, 0
	pcalau12i	$a0, %pc_hi20(.L.str.242)
	addi.d	$a2, $a0, %pc_lo12(.L.str.242)
	move	$a0, $s0
	move	$a1, $fp
	pcaddu18i	$ra, %call36(_Z13test_constantIm25custom_notequal_constantsImEEvPT_iPKc)
	jirl	$ra, $ra, 0
	pcalau12i	$a0, %pc_hi20(.L.str.243)
	addi.d	$a2, $a0, %pc_lo12(.L.str.243)
	move	$a0, $s0
	move	$a1, $fp
	pcaddu18i	$ra, %call36(_Z13test_constantIm28custom_greaterthan_constantsImEEvPT_iPKc)
	jirl	$ra, $ra, 0
	pcalau12i	$a0, %pc_hi20(.L.str.244)
	addi.d	$a2, $a0, %pc_lo12(.L.str.244)
	move	$a0, $s0
	move	$a1, $fp
	pcaddu18i	$ra, %call36(_Z13test_constantIm25custom_lessthan_constantsImEEvPT_iPKc)
	jirl	$ra, $ra, 0
	pcalau12i	$a0, %pc_hi20(.L.str.245)
	addi.d	$a2, $a0, %pc_lo12(.L.str.245)
	move	$a0, $s0
	move	$a1, $fp
	pcaddu18i	$ra, %call36(_Z13test_constantIm33custom_greaterthanequal_constantsImEEvPT_iPKc)
	jirl	$ra, $ra, 0
	pcalau12i	$a0, %pc_hi20(.L.str.246)
	addi.d	$a2, $a0, %pc_lo12(.L.str.246)
	move	$a0, $s0
	move	$a1, $fp
	pcaddu18i	$ra, %call36(_Z13test_constantIm30custom_lessthanequal_constantsImEEvPT_iPKc)
	jirl	$ra, $ra, 0
	pcalau12i	$a0, %pc_hi20(.L.str.247)
	addi.d	$a2, $a0, %pc_lo12(.L.str.247)
	move	$a0, $s0
	move	$a1, $fp
	pcaddu18i	$ra, %call36(_Z13test_constantIm20custom_and_constantsImEEvPT_iPKc)
	jirl	$ra, $ra, 0
	pcalau12i	$a0, %pc_hi20(.L.str.248)
	addi.d	$a2, $a0, %pc_lo12(.L.str.248)
	move	$a0, $s0
	move	$a1, $fp
	pcaddu18i	$ra, %call36(_Z13test_constantIm19custom_or_constantsImEEvPT_iPKc)
	jirl	$ra, $ra, 0
	pcalau12i	$a0, %pc_hi20(.L.str.249)
	addi.d	$a2, $a0, %pc_lo12(.L.str.249)
	move	$a0, $s0
	move	$a1, $fp
	pcaddu18i	$ra, %call36(_Z13test_constantIm20custom_xor_constantsImEEvPT_iPKc)
	jirl	$ra, $ra, 0
	ld.w	$a0, $s1, %pc_lo12(base_iterations)
	mul.d	$a0, $a0, $s5
	srli.d	$a1, $a0, 63
	srai.d	$a0, $a0, 34
	add.d	$a0, $a0, $a1
	st.w	$a0, $s2, %pc_lo12(iterations)
	pcalau12i	$a0, %pc_hi20(.L.str.250)
	addi.d	$a2, $a0, %pc_lo12(.L.str.250)
	move	$a0, $s0
	move	$a1, $fp
	pcaddu18i	$ra, %call36(_Z13test_constantIm19custom_constant_addImEEvPT_iPKc)
	jirl	$ra, $ra, 0
	pcalau12i	$a0, %pc_hi20(.L.str.251)
	addi.d	$a2, $a0, %pc_lo12(.L.str.251)
	move	$a0, $s0
	move	$a1, $fp
	pcaddu18i	$ra, %call36(_Z13test_constantIm28custom_multiple_constant_addImEEvPT_iPKc)
	jirl	$ra, $ra, 0
	pcalau12i	$a0, %pc_hi20(.L.str.252)
	addi.d	$a2, $a0, %pc_lo12(.L.str.252)
	move	$a0, $s0
	move	$a1, $fp
	pcaddu18i	$ra, %call36(_Z13test_constantIm19custom_constant_subImEEvPT_iPKc)
	jirl	$ra, $ra, 0
	pcalau12i	$a0, %pc_hi20(.L.str.253)
	addi.d	$a2, $a0, %pc_lo12(.L.str.253)
	move	$a0, $s0
	move	$a1, $fp
	pcaddu18i	$ra, %call36(_Z13test_constantIm28custom_multiple_constant_subImEEvPT_iPKc)
	jirl	$ra, $ra, 0
	pcalau12i	$a0, %pc_hi20(.L.str.254)
	addi.d	$a2, $a0, %pc_lo12(.L.str.254)
	move	$a0, $s0
	move	$a1, $fp
	pcaddu18i	$ra, %call36(_Z13test_constantIm24custom_constant_multiplyImEEvPT_iPKc)
	jirl	$ra, $ra, 0
	pcalau12i	$a0, %pc_hi20(.L.str.255)
	addi.d	$a2, $a0, %pc_lo12(.L.str.255)
	move	$a0, $s0
	move	$a1, $fp
	pcaddu18i	$ra, %call36(_Z13test_constantIm33custom_multiple_constant_multiplyImEEvPT_iPKc)
	jirl	$ra, $ra, 0
	pcalau12i	$a0, %pc_hi20(.L.str.256)
	addi.d	$a2, $a0, %pc_lo12(.L.str.256)
	move	$a0, $s0
	move	$a1, $fp
	pcaddu18i	$ra, %call36(_Z13test_constantIm34custom_multiple_constant_multiply2ImEEvPT_iPKc)
	jirl	$ra, $ra, 0
	pcalau12i	$a0, %pc_hi20(.L.str.257)
	addi.d	$a2, $a0, %pc_lo12(.L.str.257)
	move	$a0, $s0
	move	$a1, $fp
	pcaddu18i	$ra, %call36(_Z13test_constantIm22custom_constant_divideImEEvPT_iPKc)
	jirl	$ra, $ra, 0
	pcalau12i	$a0, %pc_hi20(.L.str.258)
	addi.d	$a2, $a0, %pc_lo12(.L.str.258)
	move	$a0, $s0
	move	$a1, $fp
	pcaddu18i	$ra, %call36(_Z13test_constantIm31custom_multiple_constant_divideImEEvPT_iPKc)
	jirl	$ra, $ra, 0
	pcalau12i	$a0, %pc_hi20(.L.str.259)
	addi.d	$a2, $a0, %pc_lo12(.L.str.259)
	move	$a0, $s0
	move	$a1, $fp
	pcaddu18i	$ra, %call36(_Z13test_constantIm32custom_multiple_constant_divide2ImEEvPT_iPKc)
	jirl	$ra, $ra, 0
	pcalau12i	$a0, %pc_hi20(.L.str.260)
	addi.d	$a2, $a0, %pc_lo12(.L.str.260)
	move	$a0, $s0
	move	$a1, $fp
	pcaddu18i	$ra, %call36(_Z13test_constantIm30custom_multiple_constant_mixedImEEvPT_iPKc)
	jirl	$ra, $ra, 0
	pcalau12i	$a0, %pc_hi20(.L.str.261)
	addi.d	$a2, $a0, %pc_lo12(.L.str.261)
	move	$a0, $s0
	move	$a1, $fp
	pcaddu18i	$ra, %call36(_Z13test_constantIm19custom_constant_andImEEvPT_iPKc)
	jirl	$ra, $ra, 0
	pcalau12i	$a0, %pc_hi20(.L.str.262)
	addi.d	$a2, $a0, %pc_lo12(.L.str.262)
	move	$a0, $s0
	move	$a1, $fp
	pcaddu18i	$ra, %call36(_Z13test_constantIm28custom_multiple_constant_andImEEvPT_iPKc)
	jirl	$ra, $ra, 0
	pcalau12i	$a0, %pc_hi20(.L.str.263)
	addi.d	$a2, $a0, %pc_lo12(.L.str.263)
	move	$a0, $s0
	move	$a1, $fp
	pcaddu18i	$ra, %call36(_Z13test_constantIm18custom_constant_orImEEvPT_iPKc)
	jirl	$ra, $ra, 0
	pcalau12i	$a0, %pc_hi20(.L.str.264)
	addi.d	$a2, $a0, %pc_lo12(.L.str.264)
	move	$a0, $s0
	move	$a1, $fp
	pcaddu18i	$ra, %call36(_Z13test_constantIm27custom_multiple_constant_orImEEvPT_iPKc)
	jirl	$ra, $ra, 0
	pcalau12i	$a0, %pc_hi20(.L.str.265)
	addi.d	$a2, $a0, %pc_lo12(.L.str.265)
	move	$a0, $s0
	move	$a1, $fp
	pcaddu18i	$ra, %call36(_Z13test_constantIm19custom_constant_xorImEEvPT_iPKc)
	jirl	$ra, $ra, 0
	pcalau12i	$a0, %pc_hi20(.L.str.266)
	addi.d	$a2, $a0, %pc_lo12(.L.str.266)
	move	$a0, $s0
	move	$a1, $fp
	pcaddu18i	$ra, %call36(_Z13test_constantIm28custom_multiple_constant_xorImEEvPT_iPKc)
	jirl	$ra, $ra, 0
	fld.d	$fa0, $s3, 0
	fcvt.s.d	$fa0, $fa0
	pcalau12i	$a0, %pc_hi20(dataFloat+32)
	addi.d	$a0, $a0, %pc_lo12(dataFloat+32)
	xvreplve0.w	$xr0, $xr0
	.p2align	4, , 16
.LBB5_16:                               # %vector.body87
                                        # =>This Inner Loop Header: Depth=1
	xvst	$xr0, $a0, -32
	xvst	$xr0, $a0, 0
	addi.d	$fp, $fp, -16
	addi.d	$a0, $a0, 64
	bnez	$fp, .LBB5_16
# %bb.17:                               # %_Z4fillIPffEvT_S1_T0_.exit
	ld.w	$a0, $s1, %pc_lo12(base_iterations)
	st.w	$a0, $s2, %pc_lo12(iterations)
	pcalau12i	$a0, %pc_hi20(dataFloat)
	addi.d	$s0, $a0, %pc_lo12(dataFloat)
	pcalau12i	$a0, %pc_hi20(.L.str.267)
	addi.d	$a2, $a0, %pc_lo12(.L.str.267)
	ori	$fp, $s4, 3904
	move	$a0, $s0
	move	$a1, $fp
	pcaddu18i	$ra, %call36(_Z13test_constantIf10custom_twoIfEEvPT_iPKc)
	jirl	$ra, $ra, 0
	pcalau12i	$a0, %pc_hi20(.L.str.268)
	addi.d	$a2, $a0, %pc_lo12(.L.str.268)
	move	$a0, $s0
	move	$a1, $fp
	pcaddu18i	$ra, %call36(_Z13test_constantIf20custom_add_constantsIfEEvPT_iPKc)
	jirl	$ra, $ra, 0
	pcalau12i	$a0, %pc_hi20(.L.str.269)
	addi.d	$a2, $a0, %pc_lo12(.L.str.269)
	move	$a0, $s0
	move	$a1, $fp
	pcaddu18i	$ra, %call36(_Z13test_constantIf20custom_sub_constantsIfEEvPT_iPKc)
	jirl	$ra, $ra, 0
	pcalau12i	$a0, %pc_hi20(.L.str.270)
	addi.d	$a2, $a0, %pc_lo12(.L.str.270)
	move	$a0, $s0
	move	$a1, $fp
	pcaddu18i	$ra, %call36(_Z13test_constantIf25custom_multiply_constantsIfEEvPT_iPKc)
	jirl	$ra, $ra, 0
	pcalau12i	$a0, %pc_hi20(.L.str.271)
	addi.d	$a2, $a0, %pc_lo12(.L.str.271)
	move	$a0, $s0
	move	$a1, $fp
	pcaddu18i	$ra, %call36(_Z13test_constantIf23custom_divide_constantsIfEEvPT_iPKc)
	jirl	$ra, $ra, 0
	ld.w	$a0, $s1, %pc_lo12(base_iterations)
	mul.d	$a0, $a0, $s5
	srli.d	$a1, $a0, 63
	srai.d	$a0, $a0, 34
	add.d	$a0, $a0, $a1
	st.w	$a0, $s2, %pc_lo12(iterations)
	pcalau12i	$a0, %pc_hi20(.L.str.272)
	addi.d	$a2, $a0, %pc_lo12(.L.str.272)
	move	$a0, $s0
	move	$a1, $fp
	pcaddu18i	$ra, %call36(_Z13test_constantIf19custom_constant_addIfEEvPT_iPKc)
	jirl	$ra, $ra, 0
	pcalau12i	$a0, %pc_hi20(.L.str.273)
	addi.d	$a2, $a0, %pc_lo12(.L.str.273)
	move	$a0, $s0
	move	$a1, $fp
	pcaddu18i	$ra, %call36(_Z13test_constantIf28custom_multiple_constant_addIfEEvPT_iPKc)
	jirl	$ra, $ra, 0
	pcalau12i	$a0, %pc_hi20(.L.str.274)
	addi.d	$a2, $a0, %pc_lo12(.L.str.274)
	move	$a0, $s0
	move	$a1, $fp
	pcaddu18i	$ra, %call36(_Z13test_constantIf19custom_constant_subIfEEvPT_iPKc)
	jirl	$ra, $ra, 0
	pcalau12i	$a0, %pc_hi20(.L.str.275)
	addi.d	$a2, $a0, %pc_lo12(.L.str.275)
	move	$a0, $s0
	move	$a1, $fp
	pcaddu18i	$ra, %call36(_Z13test_constantIf28custom_multiple_constant_subIfEEvPT_iPKc)
	jirl	$ra, $ra, 0
	pcalau12i	$a0, %pc_hi20(.L.str.276)
	addi.d	$a2, $a0, %pc_lo12(.L.str.276)
	move	$a0, $s0
	move	$a1, $fp
	pcaddu18i	$ra, %call36(_Z13test_constantIf24custom_constant_multiplyIfEEvPT_iPKc)
	jirl	$ra, $ra, 0
	pcalau12i	$a0, %pc_hi20(.L.str.277)
	addi.d	$a2, $a0, %pc_lo12(.L.str.277)
	move	$a0, $s0
	move	$a1, $fp
	pcaddu18i	$ra, %call36(_Z13test_constantIf33custom_multiple_constant_multiplyIfEEvPT_iPKc)
	jirl	$ra, $ra, 0
	pcalau12i	$a0, %pc_hi20(.L.str.278)
	addi.d	$a2, $a0, %pc_lo12(.L.str.278)
	move	$a0, $s0
	move	$a1, $fp
	pcaddu18i	$ra, %call36(_Z13test_constantIf34custom_multiple_constant_multiply2IfEEvPT_iPKc)
	jirl	$ra, $ra, 0
	pcalau12i	$a0, %pc_hi20(.L.str.279)
	addi.d	$a2, $a0, %pc_lo12(.L.str.279)
	move	$a0, $s0
	move	$a1, $fp
	pcaddu18i	$ra, %call36(_Z13test_constantIf22custom_constant_divideIfEEvPT_iPKc)
	jirl	$ra, $ra, 0
	pcalau12i	$a0, %pc_hi20(.L.str.280)
	addi.d	$a2, $a0, %pc_lo12(.L.str.280)
	move	$a0, $s0
	move	$a1, $fp
	pcaddu18i	$ra, %call36(_Z13test_constantIf31custom_multiple_constant_divideIfEEvPT_iPKc)
	jirl	$ra, $ra, 0
	pcalau12i	$a0, %pc_hi20(.L.str.281)
	addi.d	$a2, $a0, %pc_lo12(.L.str.281)
	move	$a0, $s0
	move	$a1, $fp
	pcaddu18i	$ra, %call36(_Z13test_constantIf32custom_multiple_constant_divide2IfEEvPT_iPKc)
	jirl	$ra, $ra, 0
	pcalau12i	$a0, %pc_hi20(.L.str.282)
	addi.d	$a2, $a0, %pc_lo12(.L.str.282)
	move	$a0, $s0
	move	$a1, $fp
	pcaddu18i	$ra, %call36(_Z13test_constantIf30custom_multiple_constant_mixedIfEEvPT_iPKc)
	jirl	$ra, $ra, 0
	xvldrepl.d	$xr0, $s3, 0
	pcalau12i	$a0, %pc_hi20(dataDouble+32)
	addi.d	$a0, $a0, %pc_lo12(dataDouble+32)
	.p2align	4, , 16
.LBB5_18:                               # %vector.body97
                                        # =>This Inner Loop Header: Depth=1
	xvst	$xr0, $a0, -32
	xvst	$xr0, $a0, 0
	addi.d	$fp, $fp, -8
	addi.d	$a0, $a0, 64
	bnez	$fp, .LBB5_18
# %bb.19:                               # %_Z4fillIPddEvT_S1_T0_.exit
	ld.w	$a0, $s1, %pc_lo12(base_iterations)
	st.w	$a0, $s2, %pc_lo12(iterations)
	pcalau12i	$a0, %pc_hi20(dataDouble)
	addi.d	$fp, $a0, %pc_lo12(dataDouble)
	pcalau12i	$a0, %pc_hi20(.L.str.283)
	addi.d	$a2, $a0, %pc_lo12(.L.str.283)
	ori	$s0, $s4, 3904
	move	$a0, $fp
	move	$a1, $s0
	pcaddu18i	$ra, %call36(_Z13test_constantId10custom_twoIdEEvPT_iPKc)
	jirl	$ra, $ra, 0
	pcalau12i	$a0, %pc_hi20(.L.str.284)
	addi.d	$a2, $a0, %pc_lo12(.L.str.284)
	move	$a0, $fp
	move	$a1, $s0
	pcaddu18i	$ra, %call36(_Z13test_constantId20custom_add_constantsIdEEvPT_iPKc)
	jirl	$ra, $ra, 0
	pcalau12i	$a0, %pc_hi20(.L.str.285)
	addi.d	$a2, $a0, %pc_lo12(.L.str.285)
	move	$a0, $fp
	move	$a1, $s0
	pcaddu18i	$ra, %call36(_Z13test_constantId20custom_sub_constantsIdEEvPT_iPKc)
	jirl	$ra, $ra, 0
	pcalau12i	$a0, %pc_hi20(.L.str.286)
	addi.d	$a2, $a0, %pc_lo12(.L.str.286)
	move	$a0, $fp
	move	$a1, $s0
	pcaddu18i	$ra, %call36(_Z13test_constantId25custom_multiply_constantsIdEEvPT_iPKc)
	jirl	$ra, $ra, 0
	pcalau12i	$a0, %pc_hi20(.L.str.287)
	addi.d	$a2, $a0, %pc_lo12(.L.str.287)
	move	$a0, $fp
	move	$a1, $s0
	pcaddu18i	$ra, %call36(_Z13test_constantId23custom_divide_constantsIdEEvPT_iPKc)
	jirl	$ra, $ra, 0
	ld.w	$a0, $s1, %pc_lo12(base_iterations)
	mul.d	$a0, $a0, $s5
	srli.d	$a1, $a0, 63
	srai.d	$a0, $a0, 34
	add.d	$a0, $a0, $a1
	st.w	$a0, $s2, %pc_lo12(iterations)
	pcalau12i	$a0, %pc_hi20(.L.str.288)
	addi.d	$a2, $a0, %pc_lo12(.L.str.288)
	move	$a0, $fp
	move	$a1, $s0
	pcaddu18i	$ra, %call36(_Z13test_constantId19custom_constant_addIdEEvPT_iPKc)
	jirl	$ra, $ra, 0
	pcalau12i	$a0, %pc_hi20(.L.str.289)
	addi.d	$a2, $a0, %pc_lo12(.L.str.289)
	move	$a0, $fp
	move	$a1, $s0
	pcaddu18i	$ra, %call36(_Z13test_constantId28custom_multiple_constant_addIdEEvPT_iPKc)
	jirl	$ra, $ra, 0
	pcalau12i	$a0, %pc_hi20(.L.str.290)
	addi.d	$a2, $a0, %pc_lo12(.L.str.290)
	move	$a0, $fp
	move	$a1, $s0
	pcaddu18i	$ra, %call36(_Z13test_constantId19custom_constant_subIdEEvPT_iPKc)
	jirl	$ra, $ra, 0
	pcalau12i	$a0, %pc_hi20(.L.str.291)
	addi.d	$a2, $a0, %pc_lo12(.L.str.291)
	move	$a0, $fp
	move	$a1, $s0
	pcaddu18i	$ra, %call36(_Z13test_constantId28custom_multiple_constant_subIdEEvPT_iPKc)
	jirl	$ra, $ra, 0
	pcalau12i	$a0, %pc_hi20(.L.str.292)
	addi.d	$a2, $a0, %pc_lo12(.L.str.292)
	move	$a0, $fp
	move	$a1, $s0
	pcaddu18i	$ra, %call36(_Z13test_constantId24custom_constant_multiplyIdEEvPT_iPKc)
	jirl	$ra, $ra, 0
	pcalau12i	$a0, %pc_hi20(.L.str.293)
	addi.d	$a2, $a0, %pc_lo12(.L.str.293)
	move	$a0, $fp
	move	$a1, $s0
	pcaddu18i	$ra, %call36(_Z13test_constantId33custom_multiple_constant_multiplyIdEEvPT_iPKc)
	jirl	$ra, $ra, 0
	pcalau12i	$a0, %pc_hi20(.L.str.294)
	addi.d	$a2, $a0, %pc_lo12(.L.str.294)
	move	$a0, $fp
	move	$a1, $s0
	pcaddu18i	$ra, %call36(_Z13test_constantId34custom_multiple_constant_multiply2IdEEvPT_iPKc)
	jirl	$ra, $ra, 0
	pcalau12i	$a0, %pc_hi20(.L.str.295)
	addi.d	$a2, $a0, %pc_lo12(.L.str.295)
	move	$a0, $fp
	move	$a1, $s0
	pcaddu18i	$ra, %call36(_Z13test_constantId22custom_constant_divideIdEEvPT_iPKc)
	jirl	$ra, $ra, 0
	pcalau12i	$a0, %pc_hi20(.L.str.296)
	addi.d	$a2, $a0, %pc_lo12(.L.str.296)
	move	$a0, $fp
	move	$a1, $s0
	pcaddu18i	$ra, %call36(_Z13test_constantId31custom_multiple_constant_divideIdEEvPT_iPKc)
	jirl	$ra, $ra, 0
	pcalau12i	$a0, %pc_hi20(.L.str.297)
	addi.d	$a2, $a0, %pc_lo12(.L.str.297)
	move	$a0, $fp
	move	$a1, $s0
	pcaddu18i	$ra, %call36(_Z13test_constantId32custom_multiple_constant_divide2IdEEvPT_iPKc)
	jirl	$ra, $ra, 0
	pcalau12i	$a0, %pc_hi20(.L.str.298)
	addi.d	$a2, $a0, %pc_lo12(.L.str.298)
	move	$a0, $fp
	move	$a1, $s0
	pcaddu18i	$ra, %call36(_Z13test_constantId30custom_multiple_constant_mixedIdEEvPT_iPKc)
	jirl	$ra, $ra, 0
	move	$a0, $zero
	ld.d	$s5, $sp, 16                    # 8-byte Folded Reload
	ld.d	$s4, $sp, 24                    # 8-byte Folded Reload
	ld.d	$s3, $sp, 32                    # 8-byte Folded Reload
	ld.d	$s2, $sp, 40                    # 8-byte Folded Reload
	ld.d	$s1, $sp, 48                    # 8-byte Folded Reload
	ld.d	$s0, $sp, 56                    # 8-byte Folded Reload
	ld.d	$fp, $sp, 64                    # 8-byte Folded Reload
	ld.d	$ra, $sp, 72                    # 8-byte Folded Reload
	addi.d	$sp, $sp, 80
	ret
.Lfunc_end5:
	.size	main, .Lfunc_end5-main
	.cfi_endproc
                                        # -- End function
	.section	.rodata.cst8,"aM",@progbits,8
	.p2align	3, 0x0                          # -- Begin function _Z13test_constantIa10custom_twoIaEEvPT_iPKc
.LCPI6_0:
	.dword	0x412e848000000000              # double 1.0E+6
	.section	.text._Z13test_constantIa10custom_twoIaEEvPT_iPKc,"axG",@progbits,_Z13test_constantIa10custom_twoIaEEvPT_iPKc,comdat
	.weak	_Z13test_constantIa10custom_twoIaEEvPT_iPKc
	.p2align	5
	.type	_Z13test_constantIa10custom_twoIaEEvPT_iPKc,@function
_Z13test_constantIa10custom_twoIaEEvPT_iPKc: # @_Z13test_constantIa10custom_twoIaEEvPT_iPKc
	.cfi_startproc
# %bb.0:                                # %entry
	addi.d	$sp, $sp, -80
	.cfi_def_cfa_offset 80
	st.d	$ra, $sp, 72                    # 8-byte Folded Spill
	st.d	$fp, $sp, 64                    # 8-byte Folded Spill
	st.d	$s0, $sp, 56                    # 8-byte Folded Spill
	st.d	$s1, $sp, 48                    # 8-byte Folded Spill
	st.d	$s2, $sp, 40                    # 8-byte Folded Spill
	st.d	$s3, $sp, 32                    # 8-byte Folded Spill
	st.d	$s4, $sp, 24                    # 8-byte Folded Spill
	st.d	$s5, $sp, 16                    # 8-byte Folded Spill
	st.d	$s6, $sp, 8                     # 8-byte Folded Spill
	.cfi_offset 1, -8
	.cfi_offset 22, -16
	.cfi_offset 23, -24
	.cfi_offset 24, -32
	.cfi_offset 25, -40
	.cfi_offset 26, -48
	.cfi_offset 27, -56
	.cfi_offset 28, -64
	.cfi_offset 29, -72
	move	$fp, $a2
	move	$s0, $a1
	pcaddu18i	$ra, %call36(clock)
	jirl	$ra, $ra, 0
	pcalau12i	$s3, %pc_hi20(iterations)
	ld.w	$a1, $s3, %pc_lo12(iterations)
	pcalau12i	$s2, %pc_hi20(start_time)
	st.d	$a0, $s2, %pc_lo12(start_time)
	ori	$a0, $zero, 1
	pcalau12i	$s1, %pc_hi20(current_test)
	blt	$a1, $a0, .LBB6_8
# %bb.1:                                # %for.cond1.preheader.lr.ph
	move	$s4, $zero
	blez	$s0, .LBB6_6
# %bb.2:                                # %for.cond1.preheader.us.preheader
	andi	$s5, $s0, 127
	ori	$s6, $zero, 64
	pcalau12i	$a0, %pc_hi20(.L.str.299)
	addi.d	$s0, $a0, %pc_lo12(.L.str.299)
	b	.LBB6_4
	.p2align	4, , 16
.LBB6_3:                                # %_Z17check_shifted_sumIa10custom_twoIaEEvT_.exit.us
                                        #   in Loop: Header=BB6_4 Depth=1
	addi.w	$s4, $s4, 1
	bge	$s4, $a1, .LBB6_8
.LBB6_4:                                # %for.cond1.preheader.us
                                        # =>This Inner Loop Header: Depth=1
	beq	$s5, $s6, .LBB6_3
# %bb.5:                                # %if.then.i.us
                                        #   in Loop: Header=BB6_4 Depth=1
	ld.w	$a1, $s1, %pc_lo12(current_test)
	move	$a0, $s0
	pcaddu18i	$ra, %call36(printf)
	jirl	$ra, $ra, 0
	ld.w	$a1, $s3, %pc_lo12(iterations)
	b	.LBB6_3
.LBB6_6:                                # %for.cond1.preheader.preheader
	pcalau12i	$a0, %pc_hi20(.L.str.299)
	addi.d	$s0, $a0, %pc_lo12(.L.str.299)
	.p2align	4, , 16
.LBB6_7:                                # %for.cond1.preheader
                                        # =>This Inner Loop Header: Depth=1
	ld.w	$a1, $s1, %pc_lo12(current_test)
	move	$a0, $s0
	pcaddu18i	$ra, %call36(printf)
	jirl	$ra, $ra, 0
	ld.w	$a0, $s3, %pc_lo12(iterations)
	addi.w	$s4, $s4, 1
	blt	$s4, $a0, .LBB6_7
.LBB6_8:                                # %for.end8
	pcaddu18i	$ra, %call36(clock)
	jirl	$ra, $ra, 0
	ld.d	$s2, $s2, %pc_lo12(start_time)
	pcalau12i	$s4, %pc_hi20(results)
	ld.d	$a2, $s4, %pc_lo12(results)
	pcalau12i	$s3, %pc_hi20(allocated_results)
	ld.w	$a1, $s3, %pc_lo12(allocated_results)
	move	$s0, $a0
	pcalau12i	$a0, %pc_hi20(end_time)
	st.d	$s0, $a0, %pc_lo12(end_time)
	beqz	$a2, .LBB6_10
# %bb.9:                                # %for.end8
	ld.w	$a0, $s1, %pc_lo12(current_test)
	blt	$a0, $a1, .LBB6_12
.LBB6_10:                               # %if.then.i6
	addi.w	$a0, $a1, 10
	st.w	$a0, $s3, %pc_lo12(allocated_results)
	slli.d	$a1, $a0, 4
	move	$a0, $a2
	pcaddu18i	$ra, %call36(realloc)
	jirl	$ra, $ra, 0
	st.d	$a0, $s4, %pc_lo12(results)
	beqz	$a0, .LBB6_13
# %bb.11:                               # %if.then.if.end5_crit_edge.i
	move	$a2, $a0
	ld.w	$a0, $s1, %pc_lo12(current_test)
.LBB6_12:                               # %_Z13record_resultdPKc.exit
	pcalau12i	$a1, %pc_hi20(.LCPI6_0)
	fld.d	$fa0, $a1, %pc_lo12(.LCPI6_0)
	sub.d	$a1, $s0, $s2
	movgr2fr.d	$fa1, $a1
	ffint.d.l	$fa1, $fa1
	fdiv.d	$fa0, $fa1, $fa0
	alsl.d	$a1, $a0, $a2, 4
	slli.d	$a3, $a0, 4
	fstx.d	$fa0, $a2, $a3
	st.d	$fp, $a1, 8
	addi.d	$a0, $a0, 1
	st.w	$a0, $s1, %pc_lo12(current_test)
	ld.d	$s6, $sp, 8                     # 8-byte Folded Reload
	ld.d	$s5, $sp, 16                    # 8-byte Folded Reload
	ld.d	$s4, $sp, 24                    # 8-byte Folded Reload
	ld.d	$s3, $sp, 32                    # 8-byte Folded Reload
	ld.d	$s2, $sp, 40                    # 8-byte Folded Reload
	ld.d	$s1, $sp, 48                    # 8-byte Folded Reload
	ld.d	$s0, $sp, 56                    # 8-byte Folded Reload
	ld.d	$fp, $sp, 64                    # 8-byte Folded Reload
	ld.d	$ra, $sp, 72                    # 8-byte Folded Reload
	addi.d	$sp, $sp, 80
	ret
.LBB6_13:                               # %if.then3.i
	ld.w	$a1, $s3, %pc_lo12(allocated_results)
	pcalau12i	$a0, %pc_hi20(.L.str)
	addi.d	$a0, $a0, %pc_lo12(.L.str)
	pcaddu18i	$ra, %call36(printf)
	jirl	$ra, $ra, 0
	addi.w	$a0, $zero, -1
	pcaddu18i	$ra, %call36(exit)
	jirl	$ra, $ra, 0
.Lfunc_end6:
	.size	_Z13test_constantIa10custom_twoIaEEvPT_iPKc, .Lfunc_end6-_Z13test_constantIa10custom_twoIaEEvPT_iPKc
	.cfi_endproc
                                        # -- End function
	.section	.rodata.cst8,"aM",@progbits,8
	.p2align	3, 0x0                          # -- Begin function _Z13test_constantIa20custom_add_constantsIaEEvPT_iPKc
.LCPI7_0:
	.dword	0x412e848000000000              # double 1.0E+6
	.section	.text._Z13test_constantIa20custom_add_constantsIaEEvPT_iPKc,"axG",@progbits,_Z13test_constantIa20custom_add_constantsIaEEvPT_iPKc,comdat
	.weak	_Z13test_constantIa20custom_add_constantsIaEEvPT_iPKc
	.p2align	5
	.type	_Z13test_constantIa20custom_add_constantsIaEEvPT_iPKc,@function
_Z13test_constantIa20custom_add_constantsIaEEvPT_iPKc: # @_Z13test_constantIa20custom_add_constantsIaEEvPT_iPKc
	.cfi_startproc
# %bb.0:                                # %entry
	addi.d	$sp, $sp, -80
	.cfi_def_cfa_offset 80
	st.d	$ra, $sp, 72                    # 8-byte Folded Spill
	st.d	$fp, $sp, 64                    # 8-byte Folded Spill
	st.d	$s0, $sp, 56                    # 8-byte Folded Spill
	st.d	$s1, $sp, 48                    # 8-byte Folded Spill
	st.d	$s2, $sp, 40                    # 8-byte Folded Spill
	st.d	$s3, $sp, 32                    # 8-byte Folded Spill
	st.d	$s4, $sp, 24                    # 8-byte Folded Spill
	st.d	$s5, $sp, 16                    # 8-byte Folded Spill
	st.d	$s6, $sp, 8                     # 8-byte Folded Spill
	.cfi_offset 1, -8
	.cfi_offset 22, -16
	.cfi_offset 23, -24
	.cfi_offset 24, -32
	.cfi_offset 25, -40
	.cfi_offset 26, -48
	.cfi_offset 27, -56
	.cfi_offset 28, -64
	.cfi_offset 29, -72
	move	$fp, $a2
	move	$s0, $a1
	pcaddu18i	$ra, %call36(clock)
	jirl	$ra, $ra, 0
	pcalau12i	$s3, %pc_hi20(iterations)
	ld.w	$a1, $s3, %pc_lo12(iterations)
	pcalau12i	$s2, %pc_hi20(start_time)
	st.d	$a0, $s2, %pc_lo12(start_time)
	ori	$a0, $zero, 1
	pcalau12i	$s1, %pc_hi20(current_test)
	blt	$a1, $a0, .LBB7_8
# %bb.1:                                # %for.cond1.preheader.lr.ph
	move	$s4, $zero
	blez	$s0, .LBB7_6
# %bb.2:                                # %for.cond1.preheader.us.preheader
	andi	$s5, $s0, 255
	ori	$s6, $zero, 64
	pcalau12i	$a0, %pc_hi20(.L.str.299)
	addi.d	$s0, $a0, %pc_lo12(.L.str.299)
	b	.LBB7_4
	.p2align	4, , 16
.LBB7_3:                                # %_Z17check_shifted_sumIa20custom_add_constantsIaEEvT_.exit.us
                                        #   in Loop: Header=BB7_4 Depth=1
	addi.w	$s4, $s4, 1
	bge	$s4, $a1, .LBB7_8
.LBB7_4:                                # %for.cond1.preheader.us
                                        # =>This Inner Loop Header: Depth=1
	beq	$s5, $s6, .LBB7_3
# %bb.5:                                # %if.then.i.us
                                        #   in Loop: Header=BB7_4 Depth=1
	ld.w	$a1, $s1, %pc_lo12(current_test)
	move	$a0, $s0
	pcaddu18i	$ra, %call36(printf)
	jirl	$ra, $ra, 0
	ld.w	$a1, $s3, %pc_lo12(iterations)
	b	.LBB7_3
.LBB7_6:                                # %for.cond1.preheader.preheader
	pcalau12i	$a0, %pc_hi20(.L.str.299)
	addi.d	$s0, $a0, %pc_lo12(.L.str.299)
	.p2align	4, , 16
.LBB7_7:                                # %for.cond1.preheader
                                        # =>This Inner Loop Header: Depth=1
	ld.w	$a1, $s1, %pc_lo12(current_test)
	move	$a0, $s0
	pcaddu18i	$ra, %call36(printf)
	jirl	$ra, $ra, 0
	ld.w	$a0, $s3, %pc_lo12(iterations)
	addi.w	$s4, $s4, 1
	blt	$s4, $a0, .LBB7_7
.LBB7_8:                                # %for.end8
	pcaddu18i	$ra, %call36(clock)
	jirl	$ra, $ra, 0
	ld.d	$s2, $s2, %pc_lo12(start_time)
	pcalau12i	$s4, %pc_hi20(results)
	ld.d	$a2, $s4, %pc_lo12(results)
	pcalau12i	$s3, %pc_hi20(allocated_results)
	ld.w	$a1, $s3, %pc_lo12(allocated_results)
	move	$s0, $a0
	pcalau12i	$a0, %pc_hi20(end_time)
	st.d	$s0, $a0, %pc_lo12(end_time)
	beqz	$a2, .LBB7_10
# %bb.9:                                # %for.end8
	ld.w	$a0, $s1, %pc_lo12(current_test)
	blt	$a0, $a1, .LBB7_12
.LBB7_10:                               # %if.then.i6
	addi.w	$a0, $a1, 10
	st.w	$a0, $s3, %pc_lo12(allocated_results)
	slli.d	$a1, $a0, 4
	move	$a0, $a2
	pcaddu18i	$ra, %call36(realloc)
	jirl	$ra, $ra, 0
	st.d	$a0, $s4, %pc_lo12(results)
	beqz	$a0, .LBB7_13
# %bb.11:                               # %if.then.if.end5_crit_edge.i
	move	$a2, $a0
	ld.w	$a0, $s1, %pc_lo12(current_test)
.LBB7_12:                               # %_Z13record_resultdPKc.exit
	pcalau12i	$a1, %pc_hi20(.LCPI7_0)
	fld.d	$fa0, $a1, %pc_lo12(.LCPI7_0)
	sub.d	$a1, $s0, $s2
	movgr2fr.d	$fa1, $a1
	ffint.d.l	$fa1, $fa1
	fdiv.d	$fa0, $fa1, $fa0
	alsl.d	$a1, $a0, $a2, 4
	slli.d	$a3, $a0, 4
	fstx.d	$fa0, $a2, $a3
	st.d	$fp, $a1, 8
	addi.d	$a0, $a0, 1
	st.w	$a0, $s1, %pc_lo12(current_test)
	ld.d	$s6, $sp, 8                     # 8-byte Folded Reload
	ld.d	$s5, $sp, 16                    # 8-byte Folded Reload
	ld.d	$s4, $sp, 24                    # 8-byte Folded Reload
	ld.d	$s3, $sp, 32                    # 8-byte Folded Reload
	ld.d	$s2, $sp, 40                    # 8-byte Folded Reload
	ld.d	$s1, $sp, 48                    # 8-byte Folded Reload
	ld.d	$s0, $sp, 56                    # 8-byte Folded Reload
	ld.d	$fp, $sp, 64                    # 8-byte Folded Reload
	ld.d	$ra, $sp, 72                    # 8-byte Folded Reload
	addi.d	$sp, $sp, 80
	ret
.LBB7_13:                               # %if.then3.i
	ld.w	$a1, $s3, %pc_lo12(allocated_results)
	pcalau12i	$a0, %pc_hi20(.L.str)
	addi.d	$a0, $a0, %pc_lo12(.L.str)
	pcaddu18i	$ra, %call36(printf)
	jirl	$ra, $ra, 0
	addi.w	$a0, $zero, -1
	pcaddu18i	$ra, %call36(exit)
	jirl	$ra, $ra, 0
.Lfunc_end7:
	.size	_Z13test_constantIa20custom_add_constantsIaEEvPT_iPKc, .Lfunc_end7-_Z13test_constantIa20custom_add_constantsIaEEvPT_iPKc
	.cfi_endproc
                                        # -- End function
	.section	.rodata.cst8,"aM",@progbits,8
	.p2align	3, 0x0                          # -- Begin function _Z13test_constantIa20custom_sub_constantsIaEEvPT_iPKc
.LCPI8_0:
	.dword	0x412e848000000000              # double 1.0E+6
	.section	.text._Z13test_constantIa20custom_sub_constantsIaEEvPT_iPKc,"axG",@progbits,_Z13test_constantIa20custom_sub_constantsIaEEvPT_iPKc,comdat
	.weak	_Z13test_constantIa20custom_sub_constantsIaEEvPT_iPKc
	.p2align	5
	.type	_Z13test_constantIa20custom_sub_constantsIaEEvPT_iPKc,@function
_Z13test_constantIa20custom_sub_constantsIaEEvPT_iPKc: # @_Z13test_constantIa20custom_sub_constantsIaEEvPT_iPKc
	.cfi_startproc
# %bb.0:                                # %entry
	addi.d	$sp, $sp, -80
	.cfi_def_cfa_offset 80
	st.d	$ra, $sp, 72                    # 8-byte Folded Spill
	st.d	$fp, $sp, 64                    # 8-byte Folded Spill
	st.d	$s0, $sp, 56                    # 8-byte Folded Spill
	st.d	$s1, $sp, 48                    # 8-byte Folded Spill
	st.d	$s2, $sp, 40                    # 8-byte Folded Spill
	st.d	$s3, $sp, 32                    # 8-byte Folded Spill
	st.d	$s4, $sp, 24                    # 8-byte Folded Spill
	st.d	$s5, $sp, 16                    # 8-byte Folded Spill
	st.d	$s6, $sp, 8                     # 8-byte Folded Spill
	.cfi_offset 1, -8
	.cfi_offset 22, -16
	.cfi_offset 23, -24
	.cfi_offset 24, -32
	.cfi_offset 25, -40
	.cfi_offset 26, -48
	.cfi_offset 27, -56
	.cfi_offset 28, -64
	.cfi_offset 29, -72
	move	$fp, $a2
	move	$s0, $a1
	pcaddu18i	$ra, %call36(clock)
	jirl	$ra, $ra, 0
	pcalau12i	$s3, %pc_hi20(iterations)
	ld.w	$a1, $s3, %pc_lo12(iterations)
	pcalau12i	$s2, %pc_hi20(start_time)
	st.d	$a0, $s2, %pc_lo12(start_time)
	ori	$a0, $zero, 1
	pcalau12i	$s1, %pc_hi20(current_test)
	blt	$a1, $a0, .LBB8_8
# %bb.1:                                # %for.cond1.preheader.lr.ph
	move	$s4, $zero
	blez	$s0, .LBB8_6
# %bb.2:                                # %for.cond1.preheader.us.preheader
	andi	$s5, $s0, 255
	ori	$s6, $zero, 64
	pcalau12i	$a0, %pc_hi20(.L.str.299)
	addi.d	$s0, $a0, %pc_lo12(.L.str.299)
	b	.LBB8_4
	.p2align	4, , 16
.LBB8_3:                                # %_Z17check_shifted_sumIa20custom_sub_constantsIaEEvT_.exit.us
                                        #   in Loop: Header=BB8_4 Depth=1
	addi.w	$s4, $s4, 1
	bge	$s4, $a1, .LBB8_8
.LBB8_4:                                # %for.cond1.preheader.us
                                        # =>This Inner Loop Header: Depth=1
	beq	$s5, $s6, .LBB8_3
# %bb.5:                                # %if.then.i.us
                                        #   in Loop: Header=BB8_4 Depth=1
	ld.w	$a1, $s1, %pc_lo12(current_test)
	move	$a0, $s0
	pcaddu18i	$ra, %call36(printf)
	jirl	$ra, $ra, 0
	ld.w	$a1, $s3, %pc_lo12(iterations)
	b	.LBB8_3
.LBB8_6:                                # %for.cond1.preheader.preheader
	pcalau12i	$a0, %pc_hi20(.L.str.299)
	addi.d	$s0, $a0, %pc_lo12(.L.str.299)
	.p2align	4, , 16
.LBB8_7:                                # %for.cond1.preheader
                                        # =>This Inner Loop Header: Depth=1
	ld.w	$a1, $s1, %pc_lo12(current_test)
	move	$a0, $s0
	pcaddu18i	$ra, %call36(printf)
	jirl	$ra, $ra, 0
	ld.w	$a0, $s3, %pc_lo12(iterations)
	addi.w	$s4, $s4, 1
	blt	$s4, $a0, .LBB8_7
.LBB8_8:                                # %for.end8
	pcaddu18i	$ra, %call36(clock)
	jirl	$ra, $ra, 0
	ld.d	$s2, $s2, %pc_lo12(start_time)
	pcalau12i	$s4, %pc_hi20(results)
	ld.d	$a2, $s4, %pc_lo12(results)
	pcalau12i	$s3, %pc_hi20(allocated_results)
	ld.w	$a1, $s3, %pc_lo12(allocated_results)
	move	$s0, $a0
	pcalau12i	$a0, %pc_hi20(end_time)
	st.d	$s0, $a0, %pc_lo12(end_time)
	beqz	$a2, .LBB8_10
# %bb.9:                                # %for.end8
	ld.w	$a0, $s1, %pc_lo12(current_test)
	blt	$a0, $a1, .LBB8_12
.LBB8_10:                               # %if.then.i6
	addi.w	$a0, $a1, 10
	st.w	$a0, $s3, %pc_lo12(allocated_results)
	slli.d	$a1, $a0, 4
	move	$a0, $a2
	pcaddu18i	$ra, %call36(realloc)
	jirl	$ra, $ra, 0
	st.d	$a0, $s4, %pc_lo12(results)
	beqz	$a0, .LBB8_13
# %bb.11:                               # %if.then.if.end5_crit_edge.i
	move	$a2, $a0
	ld.w	$a0, $s1, %pc_lo12(current_test)
.LBB8_12:                               # %_Z13record_resultdPKc.exit
	pcalau12i	$a1, %pc_hi20(.LCPI8_0)
	fld.d	$fa0, $a1, %pc_lo12(.LCPI8_0)
	sub.d	$a1, $s0, $s2
	movgr2fr.d	$fa1, $a1
	ffint.d.l	$fa1, $fa1
	fdiv.d	$fa0, $fa1, $fa0
	alsl.d	$a1, $a0, $a2, 4
	slli.d	$a3, $a0, 4
	fstx.d	$fa0, $a2, $a3
	st.d	$fp, $a1, 8
	addi.d	$a0, $a0, 1
	st.w	$a0, $s1, %pc_lo12(current_test)
	ld.d	$s6, $sp, 8                     # 8-byte Folded Reload
	ld.d	$s5, $sp, 16                    # 8-byte Folded Reload
	ld.d	$s4, $sp, 24                    # 8-byte Folded Reload
	ld.d	$s3, $sp, 32                    # 8-byte Folded Reload
	ld.d	$s2, $sp, 40                    # 8-byte Folded Reload
	ld.d	$s1, $sp, 48                    # 8-byte Folded Reload
	ld.d	$s0, $sp, 56                    # 8-byte Folded Reload
	ld.d	$fp, $sp, 64                    # 8-byte Folded Reload
	ld.d	$ra, $sp, 72                    # 8-byte Folded Reload
	addi.d	$sp, $sp, 80
	ret
.LBB8_13:                               # %if.then3.i
	ld.w	$a1, $s3, %pc_lo12(allocated_results)
	pcalau12i	$a0, %pc_hi20(.L.str)
	addi.d	$a0, $a0, %pc_lo12(.L.str)
	pcaddu18i	$ra, %call36(printf)
	jirl	$ra, $ra, 0
	addi.w	$a0, $zero, -1
	pcaddu18i	$ra, %call36(exit)
	jirl	$ra, $ra, 0
.Lfunc_end8:
	.size	_Z13test_constantIa20custom_sub_constantsIaEEvPT_iPKc, .Lfunc_end8-_Z13test_constantIa20custom_sub_constantsIaEEvPT_iPKc
	.cfi_endproc
                                        # -- End function
	.section	.rodata.cst8,"aM",@progbits,8
	.p2align	3, 0x0                          # -- Begin function _Z13test_constantIa25custom_multiply_constantsIaEEvPT_iPKc
.LCPI9_0:
	.dword	0x412e848000000000              # double 1.0E+6
	.section	.text._Z13test_constantIa25custom_multiply_constantsIaEEvPT_iPKc,"axG",@progbits,_Z13test_constantIa25custom_multiply_constantsIaEEvPT_iPKc,comdat
	.weak	_Z13test_constantIa25custom_multiply_constantsIaEEvPT_iPKc
	.p2align	5
	.type	_Z13test_constantIa25custom_multiply_constantsIaEEvPT_iPKc,@function
_Z13test_constantIa25custom_multiply_constantsIaEEvPT_iPKc: # @_Z13test_constantIa25custom_multiply_constantsIaEEvPT_iPKc
	.cfi_startproc
# %bb.0:                                # %entry
	addi.d	$sp, $sp, -80
	.cfi_def_cfa_offset 80
	st.d	$ra, $sp, 72                    # 8-byte Folded Spill
	st.d	$fp, $sp, 64                    # 8-byte Folded Spill
	st.d	$s0, $sp, 56                    # 8-byte Folded Spill
	st.d	$s1, $sp, 48                    # 8-byte Folded Spill
	st.d	$s2, $sp, 40                    # 8-byte Folded Spill
	st.d	$s3, $sp, 32                    # 8-byte Folded Spill
	st.d	$s4, $sp, 24                    # 8-byte Folded Spill
	st.d	$s5, $sp, 16                    # 8-byte Folded Spill
	st.d	$s6, $sp, 8                     # 8-byte Folded Spill
	.cfi_offset 1, -8
	.cfi_offset 22, -16
	.cfi_offset 23, -24
	.cfi_offset 24, -32
	.cfi_offset 25, -40
	.cfi_offset 26, -48
	.cfi_offset 27, -56
	.cfi_offset 28, -64
	.cfi_offset 29, -72
	move	$fp, $a2
	move	$s0, $a1
	pcaddu18i	$ra, %call36(clock)
	jirl	$ra, $ra, 0
	pcalau12i	$s3, %pc_hi20(iterations)
	ld.w	$a1, $s3, %pc_lo12(iterations)
	pcalau12i	$s2, %pc_hi20(start_time)
	st.d	$a0, $s2, %pc_lo12(start_time)
	ori	$a0, $zero, 1
	pcalau12i	$s1, %pc_hi20(current_test)
	blt	$a1, $a0, .LBB9_8
# %bb.1:                                # %for.cond1.preheader.lr.ph
	move	$s4, $zero
	blez	$s0, .LBB9_6
# %bb.2:                                # %for.cond1.preheader.us.preheader
	slli.d	$a0, $s0, 2
	alsl.d	$a0, $s0, $a0, 1
	andi	$s5, $a0, 255
	ori	$s6, $zero, 128
	pcalau12i	$a0, %pc_hi20(.L.str.299)
	addi.d	$s0, $a0, %pc_lo12(.L.str.299)
	b	.LBB9_4
	.p2align	4, , 16
.LBB9_3:                                # %_Z17check_shifted_sumIa25custom_multiply_constantsIaEEvT_.exit.us
                                        #   in Loop: Header=BB9_4 Depth=1
	addi.w	$s4, $s4, 1
	bge	$s4, $a1, .LBB9_8
.LBB9_4:                                # %for.cond1.preheader.us
                                        # =>This Inner Loop Header: Depth=1
	beq	$s5, $s6, .LBB9_3
# %bb.5:                                # %if.then.i.us
                                        #   in Loop: Header=BB9_4 Depth=1
	ld.w	$a1, $s1, %pc_lo12(current_test)
	move	$a0, $s0
	pcaddu18i	$ra, %call36(printf)
	jirl	$ra, $ra, 0
	ld.w	$a1, $s3, %pc_lo12(iterations)
	b	.LBB9_3
.LBB9_6:                                # %for.cond1.preheader.preheader
	pcalau12i	$a0, %pc_hi20(.L.str.299)
	addi.d	$s0, $a0, %pc_lo12(.L.str.299)
	.p2align	4, , 16
.LBB9_7:                                # %for.cond1.preheader
                                        # =>This Inner Loop Header: Depth=1
	ld.w	$a1, $s1, %pc_lo12(current_test)
	move	$a0, $s0
	pcaddu18i	$ra, %call36(printf)
	jirl	$ra, $ra, 0
	ld.w	$a0, $s3, %pc_lo12(iterations)
	addi.w	$s4, $s4, 1
	blt	$s4, $a0, .LBB9_7
.LBB9_8:                                # %for.end8
	pcaddu18i	$ra, %call36(clock)
	jirl	$ra, $ra, 0
	ld.d	$s2, $s2, %pc_lo12(start_time)
	pcalau12i	$s4, %pc_hi20(results)
	ld.d	$a2, $s4, %pc_lo12(results)
	pcalau12i	$s3, %pc_hi20(allocated_results)
	ld.w	$a1, $s3, %pc_lo12(allocated_results)
	move	$s0, $a0
	pcalau12i	$a0, %pc_hi20(end_time)
	st.d	$s0, $a0, %pc_lo12(end_time)
	beqz	$a2, .LBB9_10
# %bb.9:                                # %for.end8
	ld.w	$a0, $s1, %pc_lo12(current_test)
	blt	$a0, $a1, .LBB9_12
.LBB9_10:                               # %if.then.i6
	addi.w	$a0, $a1, 10
	st.w	$a0, $s3, %pc_lo12(allocated_results)
	slli.d	$a1, $a0, 4
	move	$a0, $a2
	pcaddu18i	$ra, %call36(realloc)
	jirl	$ra, $ra, 0
	st.d	$a0, $s4, %pc_lo12(results)
	beqz	$a0, .LBB9_13
# %bb.11:                               # %if.then.if.end5_crit_edge.i
	move	$a2, $a0
	ld.w	$a0, $s1, %pc_lo12(current_test)
.LBB9_12:                               # %_Z13record_resultdPKc.exit
	pcalau12i	$a1, %pc_hi20(.LCPI9_0)
	fld.d	$fa0, $a1, %pc_lo12(.LCPI9_0)
	sub.d	$a1, $s0, $s2
	movgr2fr.d	$fa1, $a1
	ffint.d.l	$fa1, $fa1
	fdiv.d	$fa0, $fa1, $fa0
	alsl.d	$a1, $a0, $a2, 4
	slli.d	$a3, $a0, 4
	fstx.d	$fa0, $a2, $a3
	st.d	$fp, $a1, 8
	addi.d	$a0, $a0, 1
	st.w	$a0, $s1, %pc_lo12(current_test)
	ld.d	$s6, $sp, 8                     # 8-byte Folded Reload
	ld.d	$s5, $sp, 16                    # 8-byte Folded Reload
	ld.d	$s4, $sp, 24                    # 8-byte Folded Reload
	ld.d	$s3, $sp, 32                    # 8-byte Folded Reload
	ld.d	$s2, $sp, 40                    # 8-byte Folded Reload
	ld.d	$s1, $sp, 48                    # 8-byte Folded Reload
	ld.d	$s0, $sp, 56                    # 8-byte Folded Reload
	ld.d	$fp, $sp, 64                    # 8-byte Folded Reload
	ld.d	$ra, $sp, 72                    # 8-byte Folded Reload
	addi.d	$sp, $sp, 80
	ret
.LBB9_13:                               # %if.then3.i
	ld.w	$a1, $s3, %pc_lo12(allocated_results)
	pcalau12i	$a0, %pc_hi20(.L.str)
	addi.d	$a0, $a0, %pc_lo12(.L.str)
	pcaddu18i	$ra, %call36(printf)
	jirl	$ra, $ra, 0
	addi.w	$a0, $zero, -1
	pcaddu18i	$ra, %call36(exit)
	jirl	$ra, $ra, 0
.Lfunc_end9:
	.size	_Z13test_constantIa25custom_multiply_constantsIaEEvPT_iPKc, .Lfunc_end9-_Z13test_constantIa25custom_multiply_constantsIaEEvPT_iPKc
	.cfi_endproc
                                        # -- End function
	.section	.rodata.cst8,"aM",@progbits,8
	.p2align	3, 0x0                          # -- Begin function _Z13test_constantIa23custom_divide_constantsIaEEvPT_iPKc
.LCPI10_0:
	.dword	0x412e848000000000              # double 1.0E+6
	.section	.text._Z13test_constantIa23custom_divide_constantsIaEEvPT_iPKc,"axG",@progbits,_Z13test_constantIa23custom_divide_constantsIaEEvPT_iPKc,comdat
	.weak	_Z13test_constantIa23custom_divide_constantsIaEEvPT_iPKc
	.p2align	5
	.type	_Z13test_constantIa23custom_divide_constantsIaEEvPT_iPKc,@function
_Z13test_constantIa23custom_divide_constantsIaEEvPT_iPKc: # @_Z13test_constantIa23custom_divide_constantsIaEEvPT_iPKc
	.cfi_startproc
# %bb.0:                                # %entry
	addi.d	$sp, $sp, -80
	.cfi_def_cfa_offset 80
	st.d	$ra, $sp, 72                    # 8-byte Folded Spill
	st.d	$fp, $sp, 64                    # 8-byte Folded Spill
	st.d	$s0, $sp, 56                    # 8-byte Folded Spill
	st.d	$s1, $sp, 48                    # 8-byte Folded Spill
	st.d	$s2, $sp, 40                    # 8-byte Folded Spill
	st.d	$s3, $sp, 32                    # 8-byte Folded Spill
	st.d	$s4, $sp, 24                    # 8-byte Folded Spill
	st.d	$s5, $sp, 16                    # 8-byte Folded Spill
	st.d	$s6, $sp, 8                     # 8-byte Folded Spill
	.cfi_offset 1, -8
	.cfi_offset 22, -16
	.cfi_offset 23, -24
	.cfi_offset 24, -32
	.cfi_offset 25, -40
	.cfi_offset 26, -48
	.cfi_offset 27, -56
	.cfi_offset 28, -64
	.cfi_offset 29, -72
	move	$fp, $a2
	move	$s0, $a1
	pcaddu18i	$ra, %call36(clock)
	jirl	$ra, $ra, 0
	pcalau12i	$s3, %pc_hi20(iterations)
	ld.w	$a1, $s3, %pc_lo12(iterations)
	pcalau12i	$s2, %pc_hi20(start_time)
	st.d	$a0, $s2, %pc_lo12(start_time)
	ori	$a0, $zero, 1
	pcalau12i	$s1, %pc_hi20(current_test)
	blt	$a1, $a0, .LBB10_8
# %bb.1:                                # %for.cond1.preheader.lr.ph
	move	$s4, $zero
	blez	$s0, .LBB10_6
# %bb.2:                                # %for.cond1.preheader.us.preheader
	andi	$s5, $s0, 127
	ori	$s6, $zero, 64
	pcalau12i	$a0, %pc_hi20(.L.str.299)
	addi.d	$s0, $a0, %pc_lo12(.L.str.299)
	b	.LBB10_4
	.p2align	4, , 16
.LBB10_3:                               # %_Z17check_shifted_sumIa23custom_divide_constantsIaEEvT_.exit.us
                                        #   in Loop: Header=BB10_4 Depth=1
	addi.w	$s4, $s4, 1
	bge	$s4, $a1, .LBB10_8
.LBB10_4:                               # %for.cond1.preheader.us
                                        # =>This Inner Loop Header: Depth=1
	beq	$s5, $s6, .LBB10_3
# %bb.5:                                # %if.then.i.us
                                        #   in Loop: Header=BB10_4 Depth=1
	ld.w	$a1, $s1, %pc_lo12(current_test)
	move	$a0, $s0
	pcaddu18i	$ra, %call36(printf)
	jirl	$ra, $ra, 0
	ld.w	$a1, $s3, %pc_lo12(iterations)
	b	.LBB10_3
.LBB10_6:                               # %for.cond1.preheader.preheader
	pcalau12i	$a0, %pc_hi20(.L.str.299)
	addi.d	$s0, $a0, %pc_lo12(.L.str.299)
	.p2align	4, , 16
.LBB10_7:                               # %for.cond1.preheader
                                        # =>This Inner Loop Header: Depth=1
	ld.w	$a1, $s1, %pc_lo12(current_test)
	move	$a0, $s0
	pcaddu18i	$ra, %call36(printf)
	jirl	$ra, $ra, 0
	ld.w	$a0, $s3, %pc_lo12(iterations)
	addi.w	$s4, $s4, 1
	blt	$s4, $a0, .LBB10_7
.LBB10_8:                               # %for.end8
	pcaddu18i	$ra, %call36(clock)
	jirl	$ra, $ra, 0
	ld.d	$s2, $s2, %pc_lo12(start_time)
	pcalau12i	$s4, %pc_hi20(results)
	ld.d	$a2, $s4, %pc_lo12(results)
	pcalau12i	$s3, %pc_hi20(allocated_results)
	ld.w	$a1, $s3, %pc_lo12(allocated_results)
	move	$s0, $a0
	pcalau12i	$a0, %pc_hi20(end_time)
	st.d	$s0, $a0, %pc_lo12(end_time)
	beqz	$a2, .LBB10_10
# %bb.9:                                # %for.end8
	ld.w	$a0, $s1, %pc_lo12(current_test)
	blt	$a0, $a1, .LBB10_12
.LBB10_10:                              # %if.then.i6
	addi.w	$a0, $a1, 10
	st.w	$a0, $s3, %pc_lo12(allocated_results)
	slli.d	$a1, $a0, 4
	move	$a0, $a2
	pcaddu18i	$ra, %call36(realloc)
	jirl	$ra, $ra, 0
	st.d	$a0, $s4, %pc_lo12(results)
	beqz	$a0, .LBB10_13
# %bb.11:                               # %if.then.if.end5_crit_edge.i
	move	$a2, $a0
	ld.w	$a0, $s1, %pc_lo12(current_test)
.LBB10_12:                              # %_Z13record_resultdPKc.exit
	pcalau12i	$a1, %pc_hi20(.LCPI10_0)
	fld.d	$fa0, $a1, %pc_lo12(.LCPI10_0)
	sub.d	$a1, $s0, $s2
	movgr2fr.d	$fa1, $a1
	ffint.d.l	$fa1, $fa1
	fdiv.d	$fa0, $fa1, $fa0
	alsl.d	$a1, $a0, $a2, 4
	slli.d	$a3, $a0, 4
	fstx.d	$fa0, $a2, $a3
	st.d	$fp, $a1, 8
	addi.d	$a0, $a0, 1
	st.w	$a0, $s1, %pc_lo12(current_test)
	ld.d	$s6, $sp, 8                     # 8-byte Folded Reload
	ld.d	$s5, $sp, 16                    # 8-byte Folded Reload
	ld.d	$s4, $sp, 24                    # 8-byte Folded Reload
	ld.d	$s3, $sp, 32                    # 8-byte Folded Reload
	ld.d	$s2, $sp, 40                    # 8-byte Folded Reload
	ld.d	$s1, $sp, 48                    # 8-byte Folded Reload
	ld.d	$s0, $sp, 56                    # 8-byte Folded Reload
	ld.d	$fp, $sp, 64                    # 8-byte Folded Reload
	ld.d	$ra, $sp, 72                    # 8-byte Folded Reload
	addi.d	$sp, $sp, 80
	ret
.LBB10_13:                              # %if.then3.i
	ld.w	$a1, $s3, %pc_lo12(allocated_results)
	pcalau12i	$a0, %pc_hi20(.L.str)
	addi.d	$a0, $a0, %pc_lo12(.L.str)
	pcaddu18i	$ra, %call36(printf)
	jirl	$ra, $ra, 0
	addi.w	$a0, $zero, -1
	pcaddu18i	$ra, %call36(exit)
	jirl	$ra, $ra, 0
.Lfunc_end10:
	.size	_Z13test_constantIa23custom_divide_constantsIaEEvPT_iPKc, .Lfunc_end10-_Z13test_constantIa23custom_divide_constantsIaEEvPT_iPKc
	.cfi_endproc
                                        # -- End function
	.section	.rodata.cst8,"aM",@progbits,8
	.p2align	3, 0x0                          # -- Begin function _Z13test_constantIa20custom_mod_constantsIaEEvPT_iPKc
.LCPI11_0:
	.dword	0x412e848000000000              # double 1.0E+6
	.section	.text._Z13test_constantIa20custom_mod_constantsIaEEvPT_iPKc,"axG",@progbits,_Z13test_constantIa20custom_mod_constantsIaEEvPT_iPKc,comdat
	.weak	_Z13test_constantIa20custom_mod_constantsIaEEvPT_iPKc
	.p2align	5
	.type	_Z13test_constantIa20custom_mod_constantsIaEEvPT_iPKc,@function
_Z13test_constantIa20custom_mod_constantsIaEEvPT_iPKc: # @_Z13test_constantIa20custom_mod_constantsIaEEvPT_iPKc
	.cfi_startproc
# %bb.0:                                # %entry
	addi.d	$sp, $sp, -80
	.cfi_def_cfa_offset 80
	st.d	$ra, $sp, 72                    # 8-byte Folded Spill
	st.d	$fp, $sp, 64                    # 8-byte Folded Spill
	st.d	$s0, $sp, 56                    # 8-byte Folded Spill
	st.d	$s1, $sp, 48                    # 8-byte Folded Spill
	st.d	$s2, $sp, 40                    # 8-byte Folded Spill
	st.d	$s3, $sp, 32                    # 8-byte Folded Spill
	st.d	$s4, $sp, 24                    # 8-byte Folded Spill
	st.d	$s5, $sp, 16                    # 8-byte Folded Spill
	st.d	$s6, $sp, 8                     # 8-byte Folded Spill
	.cfi_offset 1, -8
	.cfi_offset 22, -16
	.cfi_offset 23, -24
	.cfi_offset 24, -32
	.cfi_offset 25, -40
	.cfi_offset 26, -48
	.cfi_offset 27, -56
	.cfi_offset 28, -64
	.cfi_offset 29, -72
	move	$fp, $a2
	move	$s0, $a1
	pcaddu18i	$ra, %call36(clock)
	jirl	$ra, $ra, 0
	pcalau12i	$s3, %pc_hi20(iterations)
	ld.w	$a1, $s3, %pc_lo12(iterations)
	pcalau12i	$s2, %pc_hi20(start_time)
	st.d	$a0, $s2, %pc_lo12(start_time)
	ori	$a0, $zero, 1
	pcalau12i	$s1, %pc_hi20(current_test)
	blt	$a1, $a0, .LBB11_8
# %bb.1:                                # %for.cond1.preheader.lr.ph
	move	$s4, $zero
	blez	$s0, .LBB11_6
# %bb.2:                                # %for.cond1.preheader.us.preheader
	andi	$s5, $s0, 255
	ori	$s6, $zero, 64
	pcalau12i	$a0, %pc_hi20(.L.str.299)
	addi.d	$s0, $a0, %pc_lo12(.L.str.299)
	b	.LBB11_4
	.p2align	4, , 16
.LBB11_3:                               # %_Z17check_shifted_sumIa20custom_mod_constantsIaEEvT_.exit.us
                                        #   in Loop: Header=BB11_4 Depth=1
	addi.w	$s4, $s4, 1
	bge	$s4, $a1, .LBB11_8
.LBB11_4:                               # %for.cond1.preheader.us
                                        # =>This Inner Loop Header: Depth=1
	beq	$s5, $s6, .LBB11_3
# %bb.5:                                # %if.then.i.us
                                        #   in Loop: Header=BB11_4 Depth=1
	ld.w	$a1, $s1, %pc_lo12(current_test)
	move	$a0, $s0
	pcaddu18i	$ra, %call36(printf)
	jirl	$ra, $ra, 0
	ld.w	$a1, $s3, %pc_lo12(iterations)
	b	.LBB11_3
.LBB11_6:                               # %for.cond1.preheader.preheader
	pcalau12i	$a0, %pc_hi20(.L.str.299)
	addi.d	$s0, $a0, %pc_lo12(.L.str.299)
	.p2align	4, , 16
.LBB11_7:                               # %for.cond1.preheader
                                        # =>This Inner Loop Header: Depth=1
	ld.w	$a1, $s1, %pc_lo12(current_test)
	move	$a0, $s0
	pcaddu18i	$ra, %call36(printf)
	jirl	$ra, $ra, 0
	ld.w	$a0, $s3, %pc_lo12(iterations)
	addi.w	$s4, $s4, 1
	blt	$s4, $a0, .LBB11_7
.LBB11_8:                               # %for.end8
	pcaddu18i	$ra, %call36(clock)
	jirl	$ra, $ra, 0
	ld.d	$s2, $s2, %pc_lo12(start_time)
	pcalau12i	$s4, %pc_hi20(results)
	ld.d	$a2, $s4, %pc_lo12(results)
	pcalau12i	$s3, %pc_hi20(allocated_results)
	ld.w	$a1, $s3, %pc_lo12(allocated_results)
	move	$s0, $a0
	pcalau12i	$a0, %pc_hi20(end_time)
	st.d	$s0, $a0, %pc_lo12(end_time)
	beqz	$a2, .LBB11_10
# %bb.9:                                # %for.end8
	ld.w	$a0, $s1, %pc_lo12(current_test)
	blt	$a0, $a1, .LBB11_12
.LBB11_10:                              # %if.then.i6
	addi.w	$a0, $a1, 10
	st.w	$a0, $s3, %pc_lo12(allocated_results)
	slli.d	$a1, $a0, 4
	move	$a0, $a2
	pcaddu18i	$ra, %call36(realloc)
	jirl	$ra, $ra, 0
	st.d	$a0, $s4, %pc_lo12(results)
	beqz	$a0, .LBB11_13
# %bb.11:                               # %if.then.if.end5_crit_edge.i
	move	$a2, $a0
	ld.w	$a0, $s1, %pc_lo12(current_test)
.LBB11_12:                              # %_Z13record_resultdPKc.exit
	pcalau12i	$a1, %pc_hi20(.LCPI11_0)
	fld.d	$fa0, $a1, %pc_lo12(.LCPI11_0)
	sub.d	$a1, $s0, $s2
	movgr2fr.d	$fa1, $a1
	ffint.d.l	$fa1, $fa1
	fdiv.d	$fa0, $fa1, $fa0
	alsl.d	$a1, $a0, $a2, 4
	slli.d	$a3, $a0, 4
	fstx.d	$fa0, $a2, $a3
	st.d	$fp, $a1, 8
	addi.d	$a0, $a0, 1
	st.w	$a0, $s1, %pc_lo12(current_test)
	ld.d	$s6, $sp, 8                     # 8-byte Folded Reload
	ld.d	$s5, $sp, 16                    # 8-byte Folded Reload
	ld.d	$s4, $sp, 24                    # 8-byte Folded Reload
	ld.d	$s3, $sp, 32                    # 8-byte Folded Reload
	ld.d	$s2, $sp, 40                    # 8-byte Folded Reload
	ld.d	$s1, $sp, 48                    # 8-byte Folded Reload
	ld.d	$s0, $sp, 56                    # 8-byte Folded Reload
	ld.d	$fp, $sp, 64                    # 8-byte Folded Reload
	ld.d	$ra, $sp, 72                    # 8-byte Folded Reload
	addi.d	$sp, $sp, 80
	ret
.LBB11_13:                              # %if.then3.i
	ld.w	$a1, $s3, %pc_lo12(allocated_results)
	pcalau12i	$a0, %pc_hi20(.L.str)
	addi.d	$a0, $a0, %pc_lo12(.L.str)
	pcaddu18i	$ra, %call36(printf)
	jirl	$ra, $ra, 0
	addi.w	$a0, $zero, -1
	pcaddu18i	$ra, %call36(exit)
	jirl	$ra, $ra, 0
.Lfunc_end11:
	.size	_Z13test_constantIa20custom_mod_constantsIaEEvPT_iPKc, .Lfunc_end11-_Z13test_constantIa20custom_mod_constantsIaEEvPT_iPKc
	.cfi_endproc
                                        # -- End function
	.section	.rodata.cst8,"aM",@progbits,8
	.p2align	3, 0x0                          # -- Begin function _Z13test_constantIa22custom_equal_constantsIaEEvPT_iPKc
.LCPI12_0:
	.dword	0x412e848000000000              # double 1.0E+6
	.section	.text._Z13test_constantIa22custom_equal_constantsIaEEvPT_iPKc,"axG",@progbits,_Z13test_constantIa22custom_equal_constantsIaEEvPT_iPKc,comdat
	.weak	_Z13test_constantIa22custom_equal_constantsIaEEvPT_iPKc
	.p2align	5
	.type	_Z13test_constantIa22custom_equal_constantsIaEEvPT_iPKc,@function
_Z13test_constantIa22custom_equal_constantsIaEEvPT_iPKc: # @_Z13test_constantIa22custom_equal_constantsIaEEvPT_iPKc
	.cfi_startproc
# %bb.0:                                # %entry
	addi.d	$sp, $sp, -64
	.cfi_def_cfa_offset 64
	st.d	$ra, $sp, 56                    # 8-byte Folded Spill
	st.d	$fp, $sp, 48                    # 8-byte Folded Spill
	st.d	$s0, $sp, 40                    # 8-byte Folded Spill
	st.d	$s1, $sp, 32                    # 8-byte Folded Spill
	st.d	$s2, $sp, 24                    # 8-byte Folded Spill
	st.d	$s3, $sp, 16                    # 8-byte Folded Spill
	st.d	$s4, $sp, 8                     # 8-byte Folded Spill
	.cfi_offset 1, -8
	.cfi_offset 22, -16
	.cfi_offset 23, -24
	.cfi_offset 24, -32
	.cfi_offset 25, -40
	.cfi_offset 26, -48
	.cfi_offset 27, -56
	move	$fp, $a2
	pcaddu18i	$ra, %call36(clock)
	jirl	$ra, $ra, 0
	pcalau12i	$s1, %pc_hi20(start_time)
	st.d	$a0, $s1, %pc_lo12(start_time)
	pcaddu18i	$ra, %call36(clock)
	jirl	$ra, $ra, 0
	move	$s0, $a0
	ld.d	$s2, $s1, %pc_lo12(start_time)
	pcalau12i	$s4, %pc_hi20(results)
	ld.d	$a0, $s4, %pc_lo12(results)
	pcalau12i	$s3, %pc_hi20(allocated_results)
	ld.w	$a2, $s3, %pc_lo12(allocated_results)
	pcalau12i	$a1, %pc_hi20(end_time)
	st.d	$s0, $a1, %pc_lo12(end_time)
	pcalau12i	$s1, %pc_hi20(current_test)
	beqz	$a0, .LBB12_2
# %bb.1:                                # %entry
	ld.w	$a1, $s1, %pc_lo12(current_test)
	blt	$a1, $a2, .LBB12_4
.LBB12_2:                               # %if.then.i6
	addi.w	$a1, $a2, 10
	st.w	$a1, $s3, %pc_lo12(allocated_results)
	slli.d	$a1, $a1, 4
	pcaddu18i	$ra, %call36(realloc)
	jirl	$ra, $ra, 0
	st.d	$a0, $s4, %pc_lo12(results)
	beqz	$a0, .LBB12_5
# %bb.3:                                # %if.then.if.end5_crit_edge.i
	ld.w	$a1, $s1, %pc_lo12(current_test)
.LBB12_4:                               # %_Z13record_resultdPKc.exit
	pcalau12i	$a2, %pc_hi20(.LCPI12_0)
	fld.d	$fa0, $a2, %pc_lo12(.LCPI12_0)
	sub.d	$a2, $s0, $s2
	movgr2fr.d	$fa1, $a2
	ffint.d.l	$fa1, $fa1
	fdiv.d	$fa0, $fa1, $fa0
	alsl.d	$a2, $a1, $a0, 4
	slli.d	$a3, $a1, 4
	fstx.d	$fa0, $a0, $a3
	st.d	$fp, $a2, 8
	addi.d	$a0, $a1, 1
	st.w	$a0, $s1, %pc_lo12(current_test)
	ld.d	$s4, $sp, 8                     # 8-byte Folded Reload
	ld.d	$s3, $sp, 16                    # 8-byte Folded Reload
	ld.d	$s2, $sp, 24                    # 8-byte Folded Reload
	ld.d	$s1, $sp, 32                    # 8-byte Folded Reload
	ld.d	$s0, $sp, 40                    # 8-byte Folded Reload
	ld.d	$fp, $sp, 48                    # 8-byte Folded Reload
	ld.d	$ra, $sp, 56                    # 8-byte Folded Reload
	addi.d	$sp, $sp, 64
	ret
.LBB12_5:                               # %if.then3.i
	ld.w	$a1, $s3, %pc_lo12(allocated_results)
	pcalau12i	$a0, %pc_hi20(.L.str)
	addi.d	$a0, $a0, %pc_lo12(.L.str)
	pcaddu18i	$ra, %call36(printf)
	jirl	$ra, $ra, 0
	addi.w	$a0, $zero, -1
	pcaddu18i	$ra, %call36(exit)
	jirl	$ra, $ra, 0
.Lfunc_end12:
	.size	_Z13test_constantIa22custom_equal_constantsIaEEvPT_iPKc, .Lfunc_end12-_Z13test_constantIa22custom_equal_constantsIaEEvPT_iPKc
	.cfi_endproc
                                        # -- End function
	.section	.rodata.cst8,"aM",@progbits,8
	.p2align	3, 0x0                          # -- Begin function _Z13test_constantIa25custom_notequal_constantsIaEEvPT_iPKc
.LCPI13_0:
	.dword	0x412e848000000000              # double 1.0E+6
	.section	.text._Z13test_constantIa25custom_notequal_constantsIaEEvPT_iPKc,"axG",@progbits,_Z13test_constantIa25custom_notequal_constantsIaEEvPT_iPKc,comdat
	.weak	_Z13test_constantIa25custom_notequal_constantsIaEEvPT_iPKc
	.p2align	5
	.type	_Z13test_constantIa25custom_notequal_constantsIaEEvPT_iPKc,@function
_Z13test_constantIa25custom_notequal_constantsIaEEvPT_iPKc: # @_Z13test_constantIa25custom_notequal_constantsIaEEvPT_iPKc
	.cfi_startproc
# %bb.0:                                # %entry
	addi.d	$sp, $sp, -80
	.cfi_def_cfa_offset 80
	st.d	$ra, $sp, 72                    # 8-byte Folded Spill
	st.d	$fp, $sp, 64                    # 8-byte Folded Spill
	st.d	$s0, $sp, 56                    # 8-byte Folded Spill
	st.d	$s1, $sp, 48                    # 8-byte Folded Spill
	st.d	$s2, $sp, 40                    # 8-byte Folded Spill
	st.d	$s3, $sp, 32                    # 8-byte Folded Spill
	st.d	$s4, $sp, 24                    # 8-byte Folded Spill
	st.d	$s5, $sp, 16                    # 8-byte Folded Spill
	st.d	$s6, $sp, 8                     # 8-byte Folded Spill
	.cfi_offset 1, -8
	.cfi_offset 22, -16
	.cfi_offset 23, -24
	.cfi_offset 24, -32
	.cfi_offset 25, -40
	.cfi_offset 26, -48
	.cfi_offset 27, -56
	.cfi_offset 28, -64
	.cfi_offset 29, -72
	move	$fp, $a2
	move	$s0, $a1
	pcaddu18i	$ra, %call36(clock)
	jirl	$ra, $ra, 0
	pcalau12i	$s3, %pc_hi20(iterations)
	ld.w	$a1, $s3, %pc_lo12(iterations)
	pcalau12i	$s2, %pc_hi20(start_time)
	st.d	$a0, $s2, %pc_lo12(start_time)
	ori	$a0, $zero, 1
	pcalau12i	$s1, %pc_hi20(current_test)
	blt	$a1, $a0, .LBB13_8
# %bb.1:                                # %for.cond1.preheader.lr.ph
	move	$s4, $zero
	blez	$s0, .LBB13_6
# %bb.2:                                # %for.cond1.preheader.us.preheader
	andi	$s5, $s0, 255
	ori	$s6, $zero, 64
	pcalau12i	$a0, %pc_hi20(.L.str.299)
	addi.d	$s0, $a0, %pc_lo12(.L.str.299)
	b	.LBB13_4
	.p2align	4, , 16
.LBB13_3:                               # %_Z17check_shifted_sumIa25custom_notequal_constantsIaEEvT_.exit.us
                                        #   in Loop: Header=BB13_4 Depth=1
	addi.w	$s4, $s4, 1
	bge	$s4, $a1, .LBB13_8
.LBB13_4:                               # %for.cond1.preheader.us
                                        # =>This Inner Loop Header: Depth=1
	beq	$s5, $s6, .LBB13_3
# %bb.5:                                # %if.then.i.us
                                        #   in Loop: Header=BB13_4 Depth=1
	ld.w	$a1, $s1, %pc_lo12(current_test)
	move	$a0, $s0
	pcaddu18i	$ra, %call36(printf)
	jirl	$ra, $ra, 0
	ld.w	$a1, $s3, %pc_lo12(iterations)
	b	.LBB13_3
.LBB13_6:                               # %for.cond1.preheader.preheader
	pcalau12i	$a0, %pc_hi20(.L.str.299)
	addi.d	$s0, $a0, %pc_lo12(.L.str.299)
	.p2align	4, , 16
.LBB13_7:                               # %for.cond1.preheader
                                        # =>This Inner Loop Header: Depth=1
	ld.w	$a1, $s1, %pc_lo12(current_test)
	move	$a0, $s0
	pcaddu18i	$ra, %call36(printf)
	jirl	$ra, $ra, 0
	ld.w	$a0, $s3, %pc_lo12(iterations)
	addi.w	$s4, $s4, 1
	blt	$s4, $a0, .LBB13_7
.LBB13_8:                               # %for.end8
	pcaddu18i	$ra, %call36(clock)
	jirl	$ra, $ra, 0
	ld.d	$s2, $s2, %pc_lo12(start_time)
	pcalau12i	$s4, %pc_hi20(results)
	ld.d	$a2, $s4, %pc_lo12(results)
	pcalau12i	$s3, %pc_hi20(allocated_results)
	ld.w	$a1, $s3, %pc_lo12(allocated_results)
	move	$s0, $a0
	pcalau12i	$a0, %pc_hi20(end_time)
	st.d	$s0, $a0, %pc_lo12(end_time)
	beqz	$a2, .LBB13_10
# %bb.9:                                # %for.end8
	ld.w	$a0, $s1, %pc_lo12(current_test)
	blt	$a0, $a1, .LBB13_12
.LBB13_10:                              # %if.then.i6
	addi.w	$a0, $a1, 10
	st.w	$a0, $s3, %pc_lo12(allocated_results)
	slli.d	$a1, $a0, 4
	move	$a0, $a2
	pcaddu18i	$ra, %call36(realloc)
	jirl	$ra, $ra, 0
	st.d	$a0, $s4, %pc_lo12(results)
	beqz	$a0, .LBB13_13
# %bb.11:                               # %if.then.if.end5_crit_edge.i
	move	$a2, $a0
	ld.w	$a0, $s1, %pc_lo12(current_test)
.LBB13_12:                              # %_Z13record_resultdPKc.exit
	pcalau12i	$a1, %pc_hi20(.LCPI13_0)
	fld.d	$fa0, $a1, %pc_lo12(.LCPI13_0)
	sub.d	$a1, $s0, $s2
	movgr2fr.d	$fa1, $a1
	ffint.d.l	$fa1, $fa1
	fdiv.d	$fa0, $fa1, $fa0
	alsl.d	$a1, $a0, $a2, 4
	slli.d	$a3, $a0, 4
	fstx.d	$fa0, $a2, $a3
	st.d	$fp, $a1, 8
	addi.d	$a0, $a0, 1
	st.w	$a0, $s1, %pc_lo12(current_test)
	ld.d	$s6, $sp, 8                     # 8-byte Folded Reload
	ld.d	$s5, $sp, 16                    # 8-byte Folded Reload
	ld.d	$s4, $sp, 24                    # 8-byte Folded Reload
	ld.d	$s3, $sp, 32                    # 8-byte Folded Reload
	ld.d	$s2, $sp, 40                    # 8-byte Folded Reload
	ld.d	$s1, $sp, 48                    # 8-byte Folded Reload
	ld.d	$s0, $sp, 56                    # 8-byte Folded Reload
	ld.d	$fp, $sp, 64                    # 8-byte Folded Reload
	ld.d	$ra, $sp, 72                    # 8-byte Folded Reload
	addi.d	$sp, $sp, 80
	ret
.LBB13_13:                              # %if.then3.i
	ld.w	$a1, $s3, %pc_lo12(allocated_results)
	pcalau12i	$a0, %pc_hi20(.L.str)
	addi.d	$a0, $a0, %pc_lo12(.L.str)
	pcaddu18i	$ra, %call36(printf)
	jirl	$ra, $ra, 0
	addi.w	$a0, $zero, -1
	pcaddu18i	$ra, %call36(exit)
	jirl	$ra, $ra, 0
.Lfunc_end13:
	.size	_Z13test_constantIa25custom_notequal_constantsIaEEvPT_iPKc, .Lfunc_end13-_Z13test_constantIa25custom_notequal_constantsIaEEvPT_iPKc
	.cfi_endproc
                                        # -- End function
	.section	.rodata.cst8,"aM",@progbits,8
	.p2align	3, 0x0                          # -- Begin function _Z13test_constantIa28custom_greaterthan_constantsIaEEvPT_iPKc
.LCPI14_0:
	.dword	0x412e848000000000              # double 1.0E+6
	.section	.text._Z13test_constantIa28custom_greaterthan_constantsIaEEvPT_iPKc,"axG",@progbits,_Z13test_constantIa28custom_greaterthan_constantsIaEEvPT_iPKc,comdat
	.weak	_Z13test_constantIa28custom_greaterthan_constantsIaEEvPT_iPKc
	.p2align	5
	.type	_Z13test_constantIa28custom_greaterthan_constantsIaEEvPT_iPKc,@function
_Z13test_constantIa28custom_greaterthan_constantsIaEEvPT_iPKc: # @_Z13test_constantIa28custom_greaterthan_constantsIaEEvPT_iPKc
	.cfi_startproc
# %bb.0:                                # %entry
	addi.d	$sp, $sp, -80
	.cfi_def_cfa_offset 80
	st.d	$ra, $sp, 72                    # 8-byte Folded Spill
	st.d	$fp, $sp, 64                    # 8-byte Folded Spill
	st.d	$s0, $sp, 56                    # 8-byte Folded Spill
	st.d	$s1, $sp, 48                    # 8-byte Folded Spill
	st.d	$s2, $sp, 40                    # 8-byte Folded Spill
	st.d	$s3, $sp, 32                    # 8-byte Folded Spill
	st.d	$s4, $sp, 24                    # 8-byte Folded Spill
	st.d	$s5, $sp, 16                    # 8-byte Folded Spill
	st.d	$s6, $sp, 8                     # 8-byte Folded Spill
	.cfi_offset 1, -8
	.cfi_offset 22, -16
	.cfi_offset 23, -24
	.cfi_offset 24, -32
	.cfi_offset 25, -40
	.cfi_offset 26, -48
	.cfi_offset 27, -56
	.cfi_offset 28, -64
	.cfi_offset 29, -72
	move	$fp, $a2
	move	$s0, $a1
	pcaddu18i	$ra, %call36(clock)
	jirl	$ra, $ra, 0
	pcalau12i	$s3, %pc_hi20(iterations)
	ld.w	$a1, $s3, %pc_lo12(iterations)
	pcalau12i	$s2, %pc_hi20(start_time)
	st.d	$a0, $s2, %pc_lo12(start_time)
	ori	$a0, $zero, 1
	pcalau12i	$s1, %pc_hi20(current_test)
	blt	$a1, $a0, .LBB14_8
# %bb.1:                                # %for.cond1.preheader.lr.ph
	move	$s4, $zero
	blez	$s0, .LBB14_6
# %bb.2:                                # %for.cond1.preheader.us.preheader
	andi	$s5, $s0, 255
	ori	$s6, $zero, 64
	pcalau12i	$a0, %pc_hi20(.L.str.299)
	addi.d	$s0, $a0, %pc_lo12(.L.str.299)
	b	.LBB14_4
	.p2align	4, , 16
.LBB14_3:                               # %_Z17check_shifted_sumIa28custom_greaterthan_constantsIaEEvT_.exit.us
                                        #   in Loop: Header=BB14_4 Depth=1
	addi.w	$s4, $s4, 1
	bge	$s4, $a1, .LBB14_8
.LBB14_4:                               # %for.cond1.preheader.us
                                        # =>This Inner Loop Header: Depth=1
	beq	$s5, $s6, .LBB14_3
# %bb.5:                                # %if.then.i.us
                                        #   in Loop: Header=BB14_4 Depth=1
	ld.w	$a1, $s1, %pc_lo12(current_test)
	move	$a0, $s0
	pcaddu18i	$ra, %call36(printf)
	jirl	$ra, $ra, 0
	ld.w	$a1, $s3, %pc_lo12(iterations)
	b	.LBB14_3
.LBB14_6:                               # %for.cond1.preheader.preheader
	pcalau12i	$a0, %pc_hi20(.L.str.299)
	addi.d	$s0, $a0, %pc_lo12(.L.str.299)
	.p2align	4, , 16
.LBB14_7:                               # %for.cond1.preheader
                                        # =>This Inner Loop Header: Depth=1
	ld.w	$a1, $s1, %pc_lo12(current_test)
	move	$a0, $s0
	pcaddu18i	$ra, %call36(printf)
	jirl	$ra, $ra, 0
	ld.w	$a0, $s3, %pc_lo12(iterations)
	addi.w	$s4, $s4, 1
	blt	$s4, $a0, .LBB14_7
.LBB14_8:                               # %for.end8
	pcaddu18i	$ra, %call36(clock)
	jirl	$ra, $ra, 0
	ld.d	$s2, $s2, %pc_lo12(start_time)
	pcalau12i	$s4, %pc_hi20(results)
	ld.d	$a2, $s4, %pc_lo12(results)
	pcalau12i	$s3, %pc_hi20(allocated_results)
	ld.w	$a1, $s3, %pc_lo12(allocated_results)
	move	$s0, $a0
	pcalau12i	$a0, %pc_hi20(end_time)
	st.d	$s0, $a0, %pc_lo12(end_time)
	beqz	$a2, .LBB14_10
# %bb.9:                                # %for.end8
	ld.w	$a0, $s1, %pc_lo12(current_test)
	blt	$a0, $a1, .LBB14_12
.LBB14_10:                              # %if.then.i6
	addi.w	$a0, $a1, 10
	st.w	$a0, $s3, %pc_lo12(allocated_results)
	slli.d	$a1, $a0, 4
	move	$a0, $a2
	pcaddu18i	$ra, %call36(realloc)
	jirl	$ra, $ra, 0
	st.d	$a0, $s4, %pc_lo12(results)
	beqz	$a0, .LBB14_13
# %bb.11:                               # %if.then.if.end5_crit_edge.i
	move	$a2, $a0
	ld.w	$a0, $s1, %pc_lo12(current_test)
.LBB14_12:                              # %_Z13record_resultdPKc.exit
	pcalau12i	$a1, %pc_hi20(.LCPI14_0)
	fld.d	$fa0, $a1, %pc_lo12(.LCPI14_0)
	sub.d	$a1, $s0, $s2
	movgr2fr.d	$fa1, $a1
	ffint.d.l	$fa1, $fa1
	fdiv.d	$fa0, $fa1, $fa0
	alsl.d	$a1, $a0, $a2, 4
	slli.d	$a3, $a0, 4
	fstx.d	$fa0, $a2, $a3
	st.d	$fp, $a1, 8
	addi.d	$a0, $a0, 1
	st.w	$a0, $s1, %pc_lo12(current_test)
	ld.d	$s6, $sp, 8                     # 8-byte Folded Reload
	ld.d	$s5, $sp, 16                    # 8-byte Folded Reload
	ld.d	$s4, $sp, 24                    # 8-byte Folded Reload
	ld.d	$s3, $sp, 32                    # 8-byte Folded Reload
	ld.d	$s2, $sp, 40                    # 8-byte Folded Reload
	ld.d	$s1, $sp, 48                    # 8-byte Folded Reload
	ld.d	$s0, $sp, 56                    # 8-byte Folded Reload
	ld.d	$fp, $sp, 64                    # 8-byte Folded Reload
	ld.d	$ra, $sp, 72                    # 8-byte Folded Reload
	addi.d	$sp, $sp, 80
	ret
.LBB14_13:                              # %if.then3.i
	ld.w	$a1, $s3, %pc_lo12(allocated_results)
	pcalau12i	$a0, %pc_hi20(.L.str)
	addi.d	$a0, $a0, %pc_lo12(.L.str)
	pcaddu18i	$ra, %call36(printf)
	jirl	$ra, $ra, 0
	addi.w	$a0, $zero, -1
	pcaddu18i	$ra, %call36(exit)
	jirl	$ra, $ra, 0
.Lfunc_end14:
	.size	_Z13test_constantIa28custom_greaterthan_constantsIaEEvPT_iPKc, .Lfunc_end14-_Z13test_constantIa28custom_greaterthan_constantsIaEEvPT_iPKc
	.cfi_endproc
                                        # -- End function
	.section	.rodata.cst8,"aM",@progbits,8
	.p2align	3, 0x0                          # -- Begin function _Z13test_constantIa25custom_lessthan_constantsIaEEvPT_iPKc
.LCPI15_0:
	.dword	0x412e848000000000              # double 1.0E+6
	.section	.text._Z13test_constantIa25custom_lessthan_constantsIaEEvPT_iPKc,"axG",@progbits,_Z13test_constantIa25custom_lessthan_constantsIaEEvPT_iPKc,comdat
	.weak	_Z13test_constantIa25custom_lessthan_constantsIaEEvPT_iPKc
	.p2align	5
	.type	_Z13test_constantIa25custom_lessthan_constantsIaEEvPT_iPKc,@function
_Z13test_constantIa25custom_lessthan_constantsIaEEvPT_iPKc: # @_Z13test_constantIa25custom_lessthan_constantsIaEEvPT_iPKc
	.cfi_startproc
# %bb.0:                                # %entry
	addi.d	$sp, $sp, -64
	.cfi_def_cfa_offset 64
	st.d	$ra, $sp, 56                    # 8-byte Folded Spill
	st.d	$fp, $sp, 48                    # 8-byte Folded Spill
	st.d	$s0, $sp, 40                    # 8-byte Folded Spill
	st.d	$s1, $sp, 32                    # 8-byte Folded Spill
	st.d	$s2, $sp, 24                    # 8-byte Folded Spill
	st.d	$s3, $sp, 16                    # 8-byte Folded Spill
	st.d	$s4, $sp, 8                     # 8-byte Folded Spill
	.cfi_offset 1, -8
	.cfi_offset 22, -16
	.cfi_offset 23, -24
	.cfi_offset 24, -32
	.cfi_offset 25, -40
	.cfi_offset 26, -48
	.cfi_offset 27, -56
	move	$fp, $a2
	pcaddu18i	$ra, %call36(clock)
	jirl	$ra, $ra, 0
	pcalau12i	$s1, %pc_hi20(start_time)
	st.d	$a0, $s1, %pc_lo12(start_time)
	pcaddu18i	$ra, %call36(clock)
	jirl	$ra, $ra, 0
	move	$s0, $a0
	ld.d	$s2, $s1, %pc_lo12(start_time)
	pcalau12i	$s4, %pc_hi20(results)
	ld.d	$a0, $s4, %pc_lo12(results)
	pcalau12i	$s3, %pc_hi20(allocated_results)
	ld.w	$a2, $s3, %pc_lo12(allocated_results)
	pcalau12i	$a1, %pc_hi20(end_time)
	st.d	$s0, $a1, %pc_lo12(end_time)
	pcalau12i	$s1, %pc_hi20(current_test)
	beqz	$a0, .LBB15_2
# %bb.1:                                # %entry
	ld.w	$a1, $s1, %pc_lo12(current_test)
	blt	$a1, $a2, .LBB15_4
.LBB15_2:                               # %if.then.i6
	addi.w	$a1, $a2, 10
	st.w	$a1, $s3, %pc_lo12(allocated_results)
	slli.d	$a1, $a1, 4
	pcaddu18i	$ra, %call36(realloc)
	jirl	$ra, $ra, 0
	st.d	$a0, $s4, %pc_lo12(results)
	beqz	$a0, .LBB15_5
# %bb.3:                                # %if.then.if.end5_crit_edge.i
	ld.w	$a1, $s1, %pc_lo12(current_test)
.LBB15_4:                               # %_Z13record_resultdPKc.exit
	pcalau12i	$a2, %pc_hi20(.LCPI15_0)
	fld.d	$fa0, $a2, %pc_lo12(.LCPI15_0)
	sub.d	$a2, $s0, $s2
	movgr2fr.d	$fa1, $a2
	ffint.d.l	$fa1, $fa1
	fdiv.d	$fa0, $fa1, $fa0
	alsl.d	$a2, $a1, $a0, 4
	slli.d	$a3, $a1, 4
	fstx.d	$fa0, $a0, $a3
	st.d	$fp, $a2, 8
	addi.d	$a0, $a1, 1
	st.w	$a0, $s1, %pc_lo12(current_test)
	ld.d	$s4, $sp, 8                     # 8-byte Folded Reload
	ld.d	$s3, $sp, 16                    # 8-byte Folded Reload
	ld.d	$s2, $sp, 24                    # 8-byte Folded Reload
	ld.d	$s1, $sp, 32                    # 8-byte Folded Reload
	ld.d	$s0, $sp, 40                    # 8-byte Folded Reload
	ld.d	$fp, $sp, 48                    # 8-byte Folded Reload
	ld.d	$ra, $sp, 56                    # 8-byte Folded Reload
	addi.d	$sp, $sp, 64
	ret
.LBB15_5:                               # %if.then3.i
	ld.w	$a1, $s3, %pc_lo12(allocated_results)
	pcalau12i	$a0, %pc_hi20(.L.str)
	addi.d	$a0, $a0, %pc_lo12(.L.str)
	pcaddu18i	$ra, %call36(printf)
	jirl	$ra, $ra, 0
	addi.w	$a0, $zero, -1
	pcaddu18i	$ra, %call36(exit)
	jirl	$ra, $ra, 0
.Lfunc_end15:
	.size	_Z13test_constantIa25custom_lessthan_constantsIaEEvPT_iPKc, .Lfunc_end15-_Z13test_constantIa25custom_lessthan_constantsIaEEvPT_iPKc
	.cfi_endproc
                                        # -- End function
	.section	.rodata.cst8,"aM",@progbits,8
	.p2align	3, 0x0                          # -- Begin function _Z13test_constantIa33custom_greaterthanequal_constantsIaEEvPT_iPKc
.LCPI16_0:
	.dword	0x412e848000000000              # double 1.0E+6
	.section	.text._Z13test_constantIa33custom_greaterthanequal_constantsIaEEvPT_iPKc,"axG",@progbits,_Z13test_constantIa33custom_greaterthanequal_constantsIaEEvPT_iPKc,comdat
	.weak	_Z13test_constantIa33custom_greaterthanequal_constantsIaEEvPT_iPKc
	.p2align	5
	.type	_Z13test_constantIa33custom_greaterthanequal_constantsIaEEvPT_iPKc,@function
_Z13test_constantIa33custom_greaterthanequal_constantsIaEEvPT_iPKc: # @_Z13test_constantIa33custom_greaterthanequal_constantsIaEEvPT_iPKc
	.cfi_startproc
# %bb.0:                                # %entry
	addi.d	$sp, $sp, -80
	.cfi_def_cfa_offset 80
	st.d	$ra, $sp, 72                    # 8-byte Folded Spill
	st.d	$fp, $sp, 64                    # 8-byte Folded Spill
	st.d	$s0, $sp, 56                    # 8-byte Folded Spill
	st.d	$s1, $sp, 48                    # 8-byte Folded Spill
	st.d	$s2, $sp, 40                    # 8-byte Folded Spill
	st.d	$s3, $sp, 32                    # 8-byte Folded Spill
	st.d	$s4, $sp, 24                    # 8-byte Folded Spill
	st.d	$s5, $sp, 16                    # 8-byte Folded Spill
	st.d	$s6, $sp, 8                     # 8-byte Folded Spill
	.cfi_offset 1, -8
	.cfi_offset 22, -16
	.cfi_offset 23, -24
	.cfi_offset 24, -32
	.cfi_offset 25, -40
	.cfi_offset 26, -48
	.cfi_offset 27, -56
	.cfi_offset 28, -64
	.cfi_offset 29, -72
	move	$fp, $a2
	move	$s0, $a1
	pcaddu18i	$ra, %call36(clock)
	jirl	$ra, $ra, 0
	pcalau12i	$s3, %pc_hi20(iterations)
	ld.w	$a1, $s3, %pc_lo12(iterations)
	pcalau12i	$s2, %pc_hi20(start_time)
	st.d	$a0, $s2, %pc_lo12(start_time)
	ori	$a0, $zero, 1
	pcalau12i	$s1, %pc_hi20(current_test)
	blt	$a1, $a0, .LBB16_8
# %bb.1:                                # %for.cond1.preheader.lr.ph
	move	$s4, $zero
	blez	$s0, .LBB16_6
# %bb.2:                                # %for.cond1.preheader.us.preheader
	andi	$s5, $s0, 255
	ori	$s6, $zero, 64
	pcalau12i	$a0, %pc_hi20(.L.str.299)
	addi.d	$s0, $a0, %pc_lo12(.L.str.299)
	b	.LBB16_4
	.p2align	4, , 16
.LBB16_3:                               # %_Z17check_shifted_sumIa33custom_greaterthanequal_constantsIaEEvT_.exit.us
                                        #   in Loop: Header=BB16_4 Depth=1
	addi.w	$s4, $s4, 1
	bge	$s4, $a1, .LBB16_8
.LBB16_4:                               # %for.cond1.preheader.us
                                        # =>This Inner Loop Header: Depth=1
	beq	$s5, $s6, .LBB16_3
# %bb.5:                                # %if.then.i.us
                                        #   in Loop: Header=BB16_4 Depth=1
	ld.w	$a1, $s1, %pc_lo12(current_test)
	move	$a0, $s0
	pcaddu18i	$ra, %call36(printf)
	jirl	$ra, $ra, 0
	ld.w	$a1, $s3, %pc_lo12(iterations)
	b	.LBB16_3
.LBB16_6:                               # %for.cond1.preheader.preheader
	pcalau12i	$a0, %pc_hi20(.L.str.299)
	addi.d	$s0, $a0, %pc_lo12(.L.str.299)
	.p2align	4, , 16
.LBB16_7:                               # %for.cond1.preheader
                                        # =>This Inner Loop Header: Depth=1
	ld.w	$a1, $s1, %pc_lo12(current_test)
	move	$a0, $s0
	pcaddu18i	$ra, %call36(printf)
	jirl	$ra, $ra, 0
	ld.w	$a0, $s3, %pc_lo12(iterations)
	addi.w	$s4, $s4, 1
	blt	$s4, $a0, .LBB16_7
.LBB16_8:                               # %for.end8
	pcaddu18i	$ra, %call36(clock)
	jirl	$ra, $ra, 0
	ld.d	$s2, $s2, %pc_lo12(start_time)
	pcalau12i	$s4, %pc_hi20(results)
	ld.d	$a2, $s4, %pc_lo12(results)
	pcalau12i	$s3, %pc_hi20(allocated_results)
	ld.w	$a1, $s3, %pc_lo12(allocated_results)
	move	$s0, $a0
	pcalau12i	$a0, %pc_hi20(end_time)
	st.d	$s0, $a0, %pc_lo12(end_time)
	beqz	$a2, .LBB16_10
# %bb.9:                                # %for.end8
	ld.w	$a0, $s1, %pc_lo12(current_test)
	blt	$a0, $a1, .LBB16_12
.LBB16_10:                              # %if.then.i6
	addi.w	$a0, $a1, 10
	st.w	$a0, $s3, %pc_lo12(allocated_results)
	slli.d	$a1, $a0, 4
	move	$a0, $a2
	pcaddu18i	$ra, %call36(realloc)
	jirl	$ra, $ra, 0
	st.d	$a0, $s4, %pc_lo12(results)
	beqz	$a0, .LBB16_13
# %bb.11:                               # %if.then.if.end5_crit_edge.i
	move	$a2, $a0
	ld.w	$a0, $s1, %pc_lo12(current_test)
.LBB16_12:                              # %_Z13record_resultdPKc.exit
	pcalau12i	$a1, %pc_hi20(.LCPI16_0)
	fld.d	$fa0, $a1, %pc_lo12(.LCPI16_0)
	sub.d	$a1, $s0, $s2
	movgr2fr.d	$fa1, $a1
	ffint.d.l	$fa1, $fa1
	fdiv.d	$fa0, $fa1, $fa0
	alsl.d	$a1, $a0, $a2, 4
	slli.d	$a3, $a0, 4
	fstx.d	$fa0, $a2, $a3
	st.d	$fp, $a1, 8
	addi.d	$a0, $a0, 1
	st.w	$a0, $s1, %pc_lo12(current_test)
	ld.d	$s6, $sp, 8                     # 8-byte Folded Reload
	ld.d	$s5, $sp, 16                    # 8-byte Folded Reload
	ld.d	$s4, $sp, 24                    # 8-byte Folded Reload
	ld.d	$s3, $sp, 32                    # 8-byte Folded Reload
	ld.d	$s2, $sp, 40                    # 8-byte Folded Reload
	ld.d	$s1, $sp, 48                    # 8-byte Folded Reload
	ld.d	$s0, $sp, 56                    # 8-byte Folded Reload
	ld.d	$fp, $sp, 64                    # 8-byte Folded Reload
	ld.d	$ra, $sp, 72                    # 8-byte Folded Reload
	addi.d	$sp, $sp, 80
	ret
.LBB16_13:                              # %if.then3.i
	ld.w	$a1, $s3, %pc_lo12(allocated_results)
	pcalau12i	$a0, %pc_hi20(.L.str)
	addi.d	$a0, $a0, %pc_lo12(.L.str)
	pcaddu18i	$ra, %call36(printf)
	jirl	$ra, $ra, 0
	addi.w	$a0, $zero, -1
	pcaddu18i	$ra, %call36(exit)
	jirl	$ra, $ra, 0
.Lfunc_end16:
	.size	_Z13test_constantIa33custom_greaterthanequal_constantsIaEEvPT_iPKc, .Lfunc_end16-_Z13test_constantIa33custom_greaterthanequal_constantsIaEEvPT_iPKc
	.cfi_endproc
                                        # -- End function
	.section	.rodata.cst8,"aM",@progbits,8
	.p2align	3, 0x0                          # -- Begin function _Z13test_constantIa30custom_lessthanequal_constantsIaEEvPT_iPKc
.LCPI17_0:
	.dword	0x412e848000000000              # double 1.0E+6
	.section	.text._Z13test_constantIa30custom_lessthanequal_constantsIaEEvPT_iPKc,"axG",@progbits,_Z13test_constantIa30custom_lessthanequal_constantsIaEEvPT_iPKc,comdat
	.weak	_Z13test_constantIa30custom_lessthanequal_constantsIaEEvPT_iPKc
	.p2align	5
	.type	_Z13test_constantIa30custom_lessthanequal_constantsIaEEvPT_iPKc,@function
_Z13test_constantIa30custom_lessthanequal_constantsIaEEvPT_iPKc: # @_Z13test_constantIa30custom_lessthanequal_constantsIaEEvPT_iPKc
	.cfi_startproc
# %bb.0:                                # %entry
	addi.d	$sp, $sp, -64
	.cfi_def_cfa_offset 64
	st.d	$ra, $sp, 56                    # 8-byte Folded Spill
	st.d	$fp, $sp, 48                    # 8-byte Folded Spill
	st.d	$s0, $sp, 40                    # 8-byte Folded Spill
	st.d	$s1, $sp, 32                    # 8-byte Folded Spill
	st.d	$s2, $sp, 24                    # 8-byte Folded Spill
	st.d	$s3, $sp, 16                    # 8-byte Folded Spill
	st.d	$s4, $sp, 8                     # 8-byte Folded Spill
	.cfi_offset 1, -8
	.cfi_offset 22, -16
	.cfi_offset 23, -24
	.cfi_offset 24, -32
	.cfi_offset 25, -40
	.cfi_offset 26, -48
	.cfi_offset 27, -56
	move	$fp, $a2
	pcaddu18i	$ra, %call36(clock)
	jirl	$ra, $ra, 0
	pcalau12i	$s1, %pc_hi20(start_time)
	st.d	$a0, $s1, %pc_lo12(start_time)
	pcaddu18i	$ra, %call36(clock)
	jirl	$ra, $ra, 0
	move	$s0, $a0
	ld.d	$s2, $s1, %pc_lo12(start_time)
	pcalau12i	$s4, %pc_hi20(results)
	ld.d	$a0, $s4, %pc_lo12(results)
	pcalau12i	$s3, %pc_hi20(allocated_results)
	ld.w	$a2, $s3, %pc_lo12(allocated_results)
	pcalau12i	$a1, %pc_hi20(end_time)
	st.d	$s0, $a1, %pc_lo12(end_time)
	pcalau12i	$s1, %pc_hi20(current_test)
	beqz	$a0, .LBB17_2
# %bb.1:                                # %entry
	ld.w	$a1, $s1, %pc_lo12(current_test)
	blt	$a1, $a2, .LBB17_4
.LBB17_2:                               # %if.then.i6
	addi.w	$a1, $a2, 10
	st.w	$a1, $s3, %pc_lo12(allocated_results)
	slli.d	$a1, $a1, 4
	pcaddu18i	$ra, %call36(realloc)
	jirl	$ra, $ra, 0
	st.d	$a0, $s4, %pc_lo12(results)
	beqz	$a0, .LBB17_5
# %bb.3:                                # %if.then.if.end5_crit_edge.i
	ld.w	$a1, $s1, %pc_lo12(current_test)
.LBB17_4:                               # %_Z13record_resultdPKc.exit
	pcalau12i	$a2, %pc_hi20(.LCPI17_0)
	fld.d	$fa0, $a2, %pc_lo12(.LCPI17_0)
	sub.d	$a2, $s0, $s2
	movgr2fr.d	$fa1, $a2
	ffint.d.l	$fa1, $fa1
	fdiv.d	$fa0, $fa1, $fa0
	alsl.d	$a2, $a1, $a0, 4
	slli.d	$a3, $a1, 4
	fstx.d	$fa0, $a0, $a3
	st.d	$fp, $a2, 8
	addi.d	$a0, $a1, 1
	st.w	$a0, $s1, %pc_lo12(current_test)
	ld.d	$s4, $sp, 8                     # 8-byte Folded Reload
	ld.d	$s3, $sp, 16                    # 8-byte Folded Reload
	ld.d	$s2, $sp, 24                    # 8-byte Folded Reload
	ld.d	$s1, $sp, 32                    # 8-byte Folded Reload
	ld.d	$s0, $sp, 40                    # 8-byte Folded Reload
	ld.d	$fp, $sp, 48                    # 8-byte Folded Reload
	ld.d	$ra, $sp, 56                    # 8-byte Folded Reload
	addi.d	$sp, $sp, 64
	ret
.LBB17_5:                               # %if.then3.i
	ld.w	$a1, $s3, %pc_lo12(allocated_results)
	pcalau12i	$a0, %pc_hi20(.L.str)
	addi.d	$a0, $a0, %pc_lo12(.L.str)
	pcaddu18i	$ra, %call36(printf)
	jirl	$ra, $ra, 0
	addi.w	$a0, $zero, -1
	pcaddu18i	$ra, %call36(exit)
	jirl	$ra, $ra, 0
.Lfunc_end17:
	.size	_Z13test_constantIa30custom_lessthanequal_constantsIaEEvPT_iPKc, .Lfunc_end17-_Z13test_constantIa30custom_lessthanequal_constantsIaEEvPT_iPKc
	.cfi_endproc
                                        # -- End function
	.section	.rodata.cst8,"aM",@progbits,8
	.p2align	3, 0x0                          # -- Begin function _Z13test_constantIa20custom_and_constantsIaEEvPT_iPKc
.LCPI18_0:
	.dword	0x412e848000000000              # double 1.0E+6
	.section	.text._Z13test_constantIa20custom_and_constantsIaEEvPT_iPKc,"axG",@progbits,_Z13test_constantIa20custom_and_constantsIaEEvPT_iPKc,comdat
	.weak	_Z13test_constantIa20custom_and_constantsIaEEvPT_iPKc
	.p2align	5
	.type	_Z13test_constantIa20custom_and_constantsIaEEvPT_iPKc,@function
_Z13test_constantIa20custom_and_constantsIaEEvPT_iPKc: # @_Z13test_constantIa20custom_and_constantsIaEEvPT_iPKc
	.cfi_startproc
# %bb.0:                                # %entry
	addi.d	$sp, $sp, -80
	.cfi_def_cfa_offset 80
	st.d	$ra, $sp, 72                    # 8-byte Folded Spill
	st.d	$fp, $sp, 64                    # 8-byte Folded Spill
	st.d	$s0, $sp, 56                    # 8-byte Folded Spill
	st.d	$s1, $sp, 48                    # 8-byte Folded Spill
	st.d	$s2, $sp, 40                    # 8-byte Folded Spill
	st.d	$s3, $sp, 32                    # 8-byte Folded Spill
	st.d	$s4, $sp, 24                    # 8-byte Folded Spill
	st.d	$s5, $sp, 16                    # 8-byte Folded Spill
	st.d	$s6, $sp, 8                     # 8-byte Folded Spill
	.cfi_offset 1, -8
	.cfi_offset 22, -16
	.cfi_offset 23, -24
	.cfi_offset 24, -32
	.cfi_offset 25, -40
	.cfi_offset 26, -48
	.cfi_offset 27, -56
	.cfi_offset 28, -64
	.cfi_offset 29, -72
	move	$fp, $a2
	move	$s0, $a1
	pcaddu18i	$ra, %call36(clock)
	jirl	$ra, $ra, 0
	pcalau12i	$s3, %pc_hi20(iterations)
	ld.w	$a1, $s3, %pc_lo12(iterations)
	pcalau12i	$s2, %pc_hi20(start_time)
	st.d	$a0, $s2, %pc_lo12(start_time)
	ori	$a0, $zero, 1
	pcalau12i	$s1, %pc_hi20(current_test)
	blt	$a1, $a0, .LBB18_8
# %bb.1:                                # %for.cond1.preheader.lr.ph
	move	$s4, $zero
	blez	$s0, .LBB18_6
# %bb.2:                                # %for.cond1.preheader.us.preheader
	andi	$s5, $s0, 127
	ori	$s6, $zero, 64
	pcalau12i	$a0, %pc_hi20(.L.str.299)
	addi.d	$s0, $a0, %pc_lo12(.L.str.299)
	b	.LBB18_4
	.p2align	4, , 16
.LBB18_3:                               # %_Z17check_shifted_sumIa20custom_and_constantsIaEEvT_.exit.us
                                        #   in Loop: Header=BB18_4 Depth=1
	addi.w	$s4, $s4, 1
	bge	$s4, $a1, .LBB18_8
.LBB18_4:                               # %for.cond1.preheader.us
                                        # =>This Inner Loop Header: Depth=1
	beq	$s5, $s6, .LBB18_3
# %bb.5:                                # %if.then.i.us
                                        #   in Loop: Header=BB18_4 Depth=1
	ld.w	$a1, $s1, %pc_lo12(current_test)
	move	$a0, $s0
	pcaddu18i	$ra, %call36(printf)
	jirl	$ra, $ra, 0
	ld.w	$a1, $s3, %pc_lo12(iterations)
	b	.LBB18_3
.LBB18_6:                               # %for.cond1.preheader.preheader
	pcalau12i	$a0, %pc_hi20(.L.str.299)
	addi.d	$s0, $a0, %pc_lo12(.L.str.299)
	.p2align	4, , 16
.LBB18_7:                               # %for.cond1.preheader
                                        # =>This Inner Loop Header: Depth=1
	ld.w	$a1, $s1, %pc_lo12(current_test)
	move	$a0, $s0
	pcaddu18i	$ra, %call36(printf)
	jirl	$ra, $ra, 0
	ld.w	$a0, $s3, %pc_lo12(iterations)
	addi.w	$s4, $s4, 1
	blt	$s4, $a0, .LBB18_7
.LBB18_8:                               # %for.end8
	pcaddu18i	$ra, %call36(clock)
	jirl	$ra, $ra, 0
	ld.d	$s2, $s2, %pc_lo12(start_time)
	pcalau12i	$s4, %pc_hi20(results)
	ld.d	$a2, $s4, %pc_lo12(results)
	pcalau12i	$s3, %pc_hi20(allocated_results)
	ld.w	$a1, $s3, %pc_lo12(allocated_results)
	move	$s0, $a0
	pcalau12i	$a0, %pc_hi20(end_time)
	st.d	$s0, $a0, %pc_lo12(end_time)
	beqz	$a2, .LBB18_10
# %bb.9:                                # %for.end8
	ld.w	$a0, $s1, %pc_lo12(current_test)
	blt	$a0, $a1, .LBB18_12
.LBB18_10:                              # %if.then.i6
	addi.w	$a0, $a1, 10
	st.w	$a0, $s3, %pc_lo12(allocated_results)
	slli.d	$a1, $a0, 4
	move	$a0, $a2
	pcaddu18i	$ra, %call36(realloc)
	jirl	$ra, $ra, 0
	st.d	$a0, $s4, %pc_lo12(results)
	beqz	$a0, .LBB18_13
# %bb.11:                               # %if.then.if.end5_crit_edge.i
	move	$a2, $a0
	ld.w	$a0, $s1, %pc_lo12(current_test)
.LBB18_12:                              # %_Z13record_resultdPKc.exit
	pcalau12i	$a1, %pc_hi20(.LCPI18_0)
	fld.d	$fa0, $a1, %pc_lo12(.LCPI18_0)
	sub.d	$a1, $s0, $s2
	movgr2fr.d	$fa1, $a1
	ffint.d.l	$fa1, $fa1
	fdiv.d	$fa0, $fa1, $fa0
	alsl.d	$a1, $a0, $a2, 4
	slli.d	$a3, $a0, 4
	fstx.d	$fa0, $a2, $a3
	st.d	$fp, $a1, 8
	addi.d	$a0, $a0, 1
	st.w	$a0, $s1, %pc_lo12(current_test)
	ld.d	$s6, $sp, 8                     # 8-byte Folded Reload
	ld.d	$s5, $sp, 16                    # 8-byte Folded Reload
	ld.d	$s4, $sp, 24                    # 8-byte Folded Reload
	ld.d	$s3, $sp, 32                    # 8-byte Folded Reload
	ld.d	$s2, $sp, 40                    # 8-byte Folded Reload
	ld.d	$s1, $sp, 48                    # 8-byte Folded Reload
	ld.d	$s0, $sp, 56                    # 8-byte Folded Reload
	ld.d	$fp, $sp, 64                    # 8-byte Folded Reload
	ld.d	$ra, $sp, 72                    # 8-byte Folded Reload
	addi.d	$sp, $sp, 80
	ret
.LBB18_13:                              # %if.then3.i
	ld.w	$a1, $s3, %pc_lo12(allocated_results)
	pcalau12i	$a0, %pc_hi20(.L.str)
	addi.d	$a0, $a0, %pc_lo12(.L.str)
	pcaddu18i	$ra, %call36(printf)
	jirl	$ra, $ra, 0
	addi.w	$a0, $zero, -1
	pcaddu18i	$ra, %call36(exit)
	jirl	$ra, $ra, 0
.Lfunc_end18:
	.size	_Z13test_constantIa20custom_and_constantsIaEEvPT_iPKc, .Lfunc_end18-_Z13test_constantIa20custom_and_constantsIaEEvPT_iPKc
	.cfi_endproc
                                        # -- End function
	.section	.rodata.cst8,"aM",@progbits,8
	.p2align	3, 0x0                          # -- Begin function _Z13test_constantIa19custom_or_constantsIaEEvPT_iPKc
.LCPI19_0:
	.dword	0x412e848000000000              # double 1.0E+6
	.section	.text._Z13test_constantIa19custom_or_constantsIaEEvPT_iPKc,"axG",@progbits,_Z13test_constantIa19custom_or_constantsIaEEvPT_iPKc,comdat
	.weak	_Z13test_constantIa19custom_or_constantsIaEEvPT_iPKc
	.p2align	5
	.type	_Z13test_constantIa19custom_or_constantsIaEEvPT_iPKc,@function
_Z13test_constantIa19custom_or_constantsIaEEvPT_iPKc: # @_Z13test_constantIa19custom_or_constantsIaEEvPT_iPKc
	.cfi_startproc
# %bb.0:                                # %entry
	addi.d	$sp, $sp, -80
	.cfi_def_cfa_offset 80
	st.d	$ra, $sp, 72                    # 8-byte Folded Spill
	st.d	$fp, $sp, 64                    # 8-byte Folded Spill
	st.d	$s0, $sp, 56                    # 8-byte Folded Spill
	st.d	$s1, $sp, 48                    # 8-byte Folded Spill
	st.d	$s2, $sp, 40                    # 8-byte Folded Spill
	st.d	$s3, $sp, 32                    # 8-byte Folded Spill
	st.d	$s4, $sp, 24                    # 8-byte Folded Spill
	st.d	$s5, $sp, 16                    # 8-byte Folded Spill
	st.d	$s6, $sp, 8                     # 8-byte Folded Spill
	.cfi_offset 1, -8
	.cfi_offset 22, -16
	.cfi_offset 23, -24
	.cfi_offset 24, -32
	.cfi_offset 25, -40
	.cfi_offset 26, -48
	.cfi_offset 27, -56
	.cfi_offset 28, -64
	.cfi_offset 29, -72
	move	$fp, $a2
	move	$s0, $a1
	pcaddu18i	$ra, %call36(clock)
	jirl	$ra, $ra, 0
	pcalau12i	$s3, %pc_hi20(iterations)
	ld.w	$a1, $s3, %pc_lo12(iterations)
	pcalau12i	$s2, %pc_hi20(start_time)
	st.d	$a0, $s2, %pc_lo12(start_time)
	ori	$a0, $zero, 1
	pcalau12i	$s1, %pc_hi20(current_test)
	blt	$a1, $a0, .LBB19_8
# %bb.1:                                # %for.cond1.preheader.lr.ph
	move	$s4, $zero
	blez	$s0, .LBB19_6
# %bb.2:                                # %for.cond1.preheader.us.preheader
	slli.d	$a0, $s0, 5
	sub.d	$a0, $a0, $s0
	andi	$s5, $a0, 255
	ori	$s6, $zero, 192
	pcalau12i	$a0, %pc_hi20(.L.str.299)
	addi.d	$s0, $a0, %pc_lo12(.L.str.299)
	b	.LBB19_4
	.p2align	4, , 16
.LBB19_3:                               # %_Z17check_shifted_sumIa19custom_or_constantsIaEEvT_.exit.us
                                        #   in Loop: Header=BB19_4 Depth=1
	addi.w	$s4, $s4, 1
	bge	$s4, $a1, .LBB19_8
.LBB19_4:                               # %for.cond1.preheader.us
                                        # =>This Inner Loop Header: Depth=1
	beq	$s5, $s6, .LBB19_3
# %bb.5:                                # %if.then.i.us
                                        #   in Loop: Header=BB19_4 Depth=1
	ld.w	$a1, $s1, %pc_lo12(current_test)
	move	$a0, $s0
	pcaddu18i	$ra, %call36(printf)
	jirl	$ra, $ra, 0
	ld.w	$a1, $s3, %pc_lo12(iterations)
	b	.LBB19_3
.LBB19_6:                               # %for.cond1.preheader.preheader
	pcalau12i	$a0, %pc_hi20(.L.str.299)
	addi.d	$s0, $a0, %pc_lo12(.L.str.299)
	.p2align	4, , 16
.LBB19_7:                               # %for.cond1.preheader
                                        # =>This Inner Loop Header: Depth=1
	ld.w	$a1, $s1, %pc_lo12(current_test)
	move	$a0, $s0
	pcaddu18i	$ra, %call36(printf)
	jirl	$ra, $ra, 0
	ld.w	$a0, $s3, %pc_lo12(iterations)
	addi.w	$s4, $s4, 1
	blt	$s4, $a0, .LBB19_7
.LBB19_8:                               # %for.end8
	pcaddu18i	$ra, %call36(clock)
	jirl	$ra, $ra, 0
	ld.d	$s2, $s2, %pc_lo12(start_time)
	pcalau12i	$s4, %pc_hi20(results)
	ld.d	$a2, $s4, %pc_lo12(results)
	pcalau12i	$s3, %pc_hi20(allocated_results)
	ld.w	$a1, $s3, %pc_lo12(allocated_results)
	move	$s0, $a0
	pcalau12i	$a0, %pc_hi20(end_time)
	st.d	$s0, $a0, %pc_lo12(end_time)
	beqz	$a2, .LBB19_10
# %bb.9:                                # %for.end8
	ld.w	$a0, $s1, %pc_lo12(current_test)
	blt	$a0, $a1, .LBB19_12
.LBB19_10:                              # %if.then.i6
	addi.w	$a0, $a1, 10
	st.w	$a0, $s3, %pc_lo12(allocated_results)
	slli.d	$a1, $a0, 4
	move	$a0, $a2
	pcaddu18i	$ra, %call36(realloc)
	jirl	$ra, $ra, 0
	st.d	$a0, $s4, %pc_lo12(results)
	beqz	$a0, .LBB19_13
# %bb.11:                               # %if.then.if.end5_crit_edge.i
	move	$a2, $a0
	ld.w	$a0, $s1, %pc_lo12(current_test)
.LBB19_12:                              # %_Z13record_resultdPKc.exit
	pcalau12i	$a1, %pc_hi20(.LCPI19_0)
	fld.d	$fa0, $a1, %pc_lo12(.LCPI19_0)
	sub.d	$a1, $s0, $s2
	movgr2fr.d	$fa1, $a1
	ffint.d.l	$fa1, $fa1
	fdiv.d	$fa0, $fa1, $fa0
	alsl.d	$a1, $a0, $a2, 4
	slli.d	$a3, $a0, 4
	fstx.d	$fa0, $a2, $a3
	st.d	$fp, $a1, 8
	addi.d	$a0, $a0, 1
	st.w	$a0, $s1, %pc_lo12(current_test)
	ld.d	$s6, $sp, 8                     # 8-byte Folded Reload
	ld.d	$s5, $sp, 16                    # 8-byte Folded Reload
	ld.d	$s4, $sp, 24                    # 8-byte Folded Reload
	ld.d	$s3, $sp, 32                    # 8-byte Folded Reload
	ld.d	$s2, $sp, 40                    # 8-byte Folded Reload
	ld.d	$s1, $sp, 48                    # 8-byte Folded Reload
	ld.d	$s0, $sp, 56                    # 8-byte Folded Reload
	ld.d	$fp, $sp, 64                    # 8-byte Folded Reload
	ld.d	$ra, $sp, 72                    # 8-byte Folded Reload
	addi.d	$sp, $sp, 80
	ret
.LBB19_13:                              # %if.then3.i
	ld.w	$a1, $s3, %pc_lo12(allocated_results)
	pcalau12i	$a0, %pc_hi20(.L.str)
	addi.d	$a0, $a0, %pc_lo12(.L.str)
	pcaddu18i	$ra, %call36(printf)
	jirl	$ra, $ra, 0
	addi.w	$a0, $zero, -1
	pcaddu18i	$ra, %call36(exit)
	jirl	$ra, $ra, 0
.Lfunc_end19:
	.size	_Z13test_constantIa19custom_or_constantsIaEEvPT_iPKc, .Lfunc_end19-_Z13test_constantIa19custom_or_constantsIaEEvPT_iPKc
	.cfi_endproc
                                        # -- End function
	.section	.rodata.cst8,"aM",@progbits,8
	.p2align	3, 0x0                          # -- Begin function _Z13test_constantIa20custom_xor_constantsIaEEvPT_iPKc
.LCPI20_0:
	.dword	0x412e848000000000              # double 1.0E+6
	.section	.text._Z13test_constantIa20custom_xor_constantsIaEEvPT_iPKc,"axG",@progbits,_Z13test_constantIa20custom_xor_constantsIaEEvPT_iPKc,comdat
	.weak	_Z13test_constantIa20custom_xor_constantsIaEEvPT_iPKc
	.p2align	5
	.type	_Z13test_constantIa20custom_xor_constantsIaEEvPT_iPKc,@function
_Z13test_constantIa20custom_xor_constantsIaEEvPT_iPKc: # @_Z13test_constantIa20custom_xor_constantsIaEEvPT_iPKc
	.cfi_startproc
# %bb.0:                                # %entry
	addi.d	$sp, $sp, -80
	.cfi_def_cfa_offset 80
	st.d	$ra, $sp, 72                    # 8-byte Folded Spill
	st.d	$fp, $sp, 64                    # 8-byte Folded Spill
	st.d	$s0, $sp, 56                    # 8-byte Folded Spill
	st.d	$s1, $sp, 48                    # 8-byte Folded Spill
	st.d	$s2, $sp, 40                    # 8-byte Folded Spill
	st.d	$s3, $sp, 32                    # 8-byte Folded Spill
	st.d	$s4, $sp, 24                    # 8-byte Folded Spill
	st.d	$s5, $sp, 16                    # 8-byte Folded Spill
	st.d	$s6, $sp, 8                     # 8-byte Folded Spill
	.cfi_offset 1, -8
	.cfi_offset 22, -16
	.cfi_offset 23, -24
	.cfi_offset 24, -32
	.cfi_offset 25, -40
	.cfi_offset 26, -48
	.cfi_offset 27, -56
	.cfi_offset 28, -64
	.cfi_offset 29, -72
	move	$fp, $a2
	move	$s0, $a1
	pcaddu18i	$ra, %call36(clock)
	jirl	$ra, $ra, 0
	pcalau12i	$s3, %pc_hi20(iterations)
	ld.w	$a1, $s3, %pc_lo12(iterations)
	pcalau12i	$s2, %pc_hi20(start_time)
	st.d	$a0, $s2, %pc_lo12(start_time)
	ori	$a0, $zero, 1
	pcalau12i	$s1, %pc_hi20(current_test)
	blt	$a1, $a0, .LBB20_8
# %bb.1:                                # %for.cond1.preheader.lr.ph
	move	$s4, $zero
	blez	$s0, .LBB20_6
# %bb.2:                                # %for.cond1.preheader.us.preheader
	ori	$a0, $zero, 29
	mul.d	$a0, $s0, $a0
	andi	$s5, $a0, 255
	ori	$s6, $zero, 64
	pcalau12i	$a0, %pc_hi20(.L.str.299)
	addi.d	$s0, $a0, %pc_lo12(.L.str.299)
	b	.LBB20_4
	.p2align	4, , 16
.LBB20_3:                               # %_Z17check_shifted_sumIa20custom_xor_constantsIaEEvT_.exit.us
                                        #   in Loop: Header=BB20_4 Depth=1
	addi.w	$s4, $s4, 1
	bge	$s4, $a1, .LBB20_8
.LBB20_4:                               # %for.cond1.preheader.us
                                        # =>This Inner Loop Header: Depth=1
	beq	$s5, $s6, .LBB20_3
# %bb.5:                                # %if.then.i.us
                                        #   in Loop: Header=BB20_4 Depth=1
	ld.w	$a1, $s1, %pc_lo12(current_test)
	move	$a0, $s0
	pcaddu18i	$ra, %call36(printf)
	jirl	$ra, $ra, 0
	ld.w	$a1, $s3, %pc_lo12(iterations)
	b	.LBB20_3
.LBB20_6:                               # %for.cond1.preheader.preheader
	pcalau12i	$a0, %pc_hi20(.L.str.299)
	addi.d	$s0, $a0, %pc_lo12(.L.str.299)
	.p2align	4, , 16
.LBB20_7:                               # %for.cond1.preheader
                                        # =>This Inner Loop Header: Depth=1
	ld.w	$a1, $s1, %pc_lo12(current_test)
	move	$a0, $s0
	pcaddu18i	$ra, %call36(printf)
	jirl	$ra, $ra, 0
	ld.w	$a0, $s3, %pc_lo12(iterations)
	addi.w	$s4, $s4, 1
	blt	$s4, $a0, .LBB20_7
.LBB20_8:                               # %for.end8
	pcaddu18i	$ra, %call36(clock)
	jirl	$ra, $ra, 0
	ld.d	$s2, $s2, %pc_lo12(start_time)
	pcalau12i	$s4, %pc_hi20(results)
	ld.d	$a2, $s4, %pc_lo12(results)
	pcalau12i	$s3, %pc_hi20(allocated_results)
	ld.w	$a1, $s3, %pc_lo12(allocated_results)
	move	$s0, $a0
	pcalau12i	$a0, %pc_hi20(end_time)
	st.d	$s0, $a0, %pc_lo12(end_time)
	beqz	$a2, .LBB20_10
# %bb.9:                                # %for.end8
	ld.w	$a0, $s1, %pc_lo12(current_test)
	blt	$a0, $a1, .LBB20_12
.LBB20_10:                              # %if.then.i6
	addi.w	$a0, $a1, 10
	st.w	$a0, $s3, %pc_lo12(allocated_results)
	slli.d	$a1, $a0, 4
	move	$a0, $a2
	pcaddu18i	$ra, %call36(realloc)
	jirl	$ra, $ra, 0
	st.d	$a0, $s4, %pc_lo12(results)
	beqz	$a0, .LBB20_13
# %bb.11:                               # %if.then.if.end5_crit_edge.i
	move	$a2, $a0
	ld.w	$a0, $s1, %pc_lo12(current_test)
.LBB20_12:                              # %_Z13record_resultdPKc.exit
	pcalau12i	$a1, %pc_hi20(.LCPI20_0)
	fld.d	$fa0, $a1, %pc_lo12(.LCPI20_0)
	sub.d	$a1, $s0, $s2
	movgr2fr.d	$fa1, $a1
	ffint.d.l	$fa1, $fa1
	fdiv.d	$fa0, $fa1, $fa0
	alsl.d	$a1, $a0, $a2, 4
	slli.d	$a3, $a0, 4
	fstx.d	$fa0, $a2, $a3
	st.d	$fp, $a1, 8
	addi.d	$a0, $a0, 1
	st.w	$a0, $s1, %pc_lo12(current_test)
	ld.d	$s6, $sp, 8                     # 8-byte Folded Reload
	ld.d	$s5, $sp, 16                    # 8-byte Folded Reload
	ld.d	$s4, $sp, 24                    # 8-byte Folded Reload
	ld.d	$s3, $sp, 32                    # 8-byte Folded Reload
	ld.d	$s2, $sp, 40                    # 8-byte Folded Reload
	ld.d	$s1, $sp, 48                    # 8-byte Folded Reload
	ld.d	$s0, $sp, 56                    # 8-byte Folded Reload
	ld.d	$fp, $sp, 64                    # 8-byte Folded Reload
	ld.d	$ra, $sp, 72                    # 8-byte Folded Reload
	addi.d	$sp, $sp, 80
	ret
.LBB20_13:                              # %if.then3.i
	ld.w	$a1, $s3, %pc_lo12(allocated_results)
	pcalau12i	$a0, %pc_hi20(.L.str)
	addi.d	$a0, $a0, %pc_lo12(.L.str)
	pcaddu18i	$ra, %call36(printf)
	jirl	$ra, $ra, 0
	addi.w	$a0, $zero, -1
	pcaddu18i	$ra, %call36(exit)
	jirl	$ra, $ra, 0
.Lfunc_end20:
	.size	_Z13test_constantIa20custom_xor_constantsIaEEvPT_iPKc, .Lfunc_end20-_Z13test_constantIa20custom_xor_constantsIaEEvPT_iPKc
	.cfi_endproc
                                        # -- End function
	.section	.rodata.cst8,"aM",@progbits,8
	.p2align	3, 0x0                          # -- Begin function _Z13test_constantIa19custom_constant_addIaEEvPT_iPKc
.LCPI21_0:
	.dword	0x412e848000000000              # double 1.0E+6
	.section	.text._Z13test_constantIa19custom_constant_addIaEEvPT_iPKc,"axG",@progbits,_Z13test_constantIa19custom_constant_addIaEEvPT_iPKc,comdat
	.weak	_Z13test_constantIa19custom_constant_addIaEEvPT_iPKc
	.p2align	5
	.type	_Z13test_constantIa19custom_constant_addIaEEvPT_iPKc,@function
_Z13test_constantIa19custom_constant_addIaEEvPT_iPKc: # @_Z13test_constantIa19custom_constant_addIaEEvPT_iPKc
	.cfi_startproc
# %bb.0:                                # %entry
	addi.d	$sp, $sp, -192
	.cfi_def_cfa_offset 192
	st.d	$ra, $sp, 184                   # 8-byte Folded Spill
	st.d	$fp, $sp, 176                   # 8-byte Folded Spill
	st.d	$s0, $sp, 168                   # 8-byte Folded Spill
	st.d	$s1, $sp, 160                   # 8-byte Folded Spill
	st.d	$s2, $sp, 152                   # 8-byte Folded Spill
	st.d	$s3, $sp, 144                   # 8-byte Folded Spill
	st.d	$s4, $sp, 136                   # 8-byte Folded Spill
	st.d	$s5, $sp, 128                   # 8-byte Folded Spill
	st.d	$s6, $sp, 120                   # 8-byte Folded Spill
	st.d	$s7, $sp, 112                   # 8-byte Folded Spill
	st.d	$s8, $sp, 104                   # 8-byte Folded Spill
	.cfi_offset 1, -8
	.cfi_offset 22, -16
	.cfi_offset 23, -24
	.cfi_offset 24, -32
	.cfi_offset 25, -40
	.cfi_offset 26, -48
	.cfi_offset 27, -56
	.cfi_offset 28, -64
	.cfi_offset 29, -72
	.cfi_offset 30, -80
	.cfi_offset 31, -88
	st.d	$a2, $sp, 16                    # 8-byte Folded Spill
	move	$s0, $a1
	move	$s1, $a0
	pcaddu18i	$ra, %call36(clock)
	jirl	$ra, $ra, 0
	pcalau12i	$s5, %pc_hi20(iterations)
	ld.w	$a1, $s5, %pc_lo12(iterations)
	pcalau12i	$a2, %pc_hi20(start_time)
	st.d	$a2, $sp, 24                    # 8-byte Folded Spill
	st.d	$a0, $a2, %pc_lo12(start_time)
	ori	$a0, $zero, 1
	pcalau12i	$s3, %pc_hi20(current_test)
	blt	$a1, $a0, .LBB21_23
# %bb.1:                                # %for.cond1.preheader.lr.ph
	blez	$s0, .LBB21_19
# %bb.2:                                # %for.cond1.preheader.us.preheader
	move	$s6, $zero
	bstrpick.d	$a0, $s0, 30, 6
	slli.d	$s7, $a0, 6
	andi	$a0, $s0, 48
	st.d	$a0, $sp, 8                     # 8-byte Folded Spill
	bstrpick.d	$a0, $s0, 30, 4
	slli.d	$fp, $a0, 4
	addi.d	$a0, $s1, 32
	st.d	$a0, $sp, 72                    # 8-byte Folded Spill
	sub.d	$a0, $zero, $fp
	st.d	$a0, $sp, 96                    # 8-byte Folded Spill
	ori	$a5, $zero, 15
	pcalau12i	$s4, %pc_hi20(init_value)
	ori	$s8, $zero, 128
	pcalau12i	$a0, %pc_hi20(.L.str.299)
	addi.d	$s2, $a0, %pc_lo12(.L.str.299)
	vrepli.b	$vr0, 0
	vst	$vr0, $sp, 80                   # 16-byte Folded Spill
	xvrepli.b	$xr0, 0
	xvst	$xr0, $sp, 32                   # 32-byte Folded Spill
	b	.LBB21_4
	.p2align	4, , 16
.LBB21_3:                               # %_Z17check_shifted_sumIa19custom_constant_addIaEEvT_.exit.us
                                        #   in Loop: Header=BB21_4 Depth=1
	addi.w	$s6, $s6, 1
	bge	$s6, $a1, .LBB21_23
.LBB21_4:                               # %iter.check
                                        # =>This Loop Header: Depth=1
                                        #     Child Loop BB21_9 Depth 2
                                        #     Child Loop BB21_13 Depth 2
                                        #     Child Loop BB21_16 Depth 2
	bltu	$a5, $s0, .LBB21_6
# %bb.5:                                #   in Loop: Header=BB21_4 Depth=1
	move	$a3, $zero
	move	$a0, $zero
	b	.LBB21_15
	.p2align	4, , 16
.LBB21_6:                               # %vector.main.loop.iter.check
                                        #   in Loop: Header=BB21_4 Depth=1
	ori	$a0, $zero, 64
	bgeu	$s0, $a0, .LBB21_8
# %bb.7:                                #   in Loop: Header=BB21_4 Depth=1
	move	$a2, $zero
	move	$a0, $zero
	b	.LBB21_12
	.p2align	4, , 16
.LBB21_8:                               # %vector.body.preheader
                                        #   in Loop: Header=BB21_4 Depth=1
	ld.d	$a0, $sp, 72                    # 8-byte Folded Reload
	move	$a2, $s7
	xvld	$xr1, $sp, 32                   # 32-byte Folded Reload
	xvori.b	$xr0, $xr1, 0
	.p2align	4, , 16
.LBB21_9:                               # %vector.body
                                        #   Parent Loop BB21_4 Depth=1
                                        # =>  This Inner Loop Header: Depth=2
	xvld	$xr2, $a0, -32
	xvld	$xr3, $a0, 0
	xvadd.b	$xr0, $xr0, $xr2
	xvadd.b	$xr1, $xr1, $xr3
	xvaddi.bu	$xr0, $xr0, 10
	xvaddi.bu	$xr1, $xr1, 10
	addi.d	$a2, $a2, -64
	addi.d	$a0, $a0, 64
	bnez	$a2, .LBB21_9
# %bb.10:                               # %middle.block
                                        #   in Loop: Header=BB21_4 Depth=1
	xvadd.b	$xr0, $xr1, $xr0
	xvpermi.d	$xr1, $xr0, 78
	xvshuf4i.b	$xr1, $xr1, 228
	xvadd.b	$xr0, $xr0, $xr1
	xvpermi.d	$xr1, $xr0, 68
	xvbsrl.v	$xr1, $xr1, 8
	xvadd.b	$xr0, $xr0, $xr1
	xvpermi.d	$xr1, $xr0, 68
	xvsrli.d	$xr1, $xr1, 32
	xvadd.b	$xr0, $xr0, $xr1
	xvpermi.d	$xr1, $xr0, 68
	xvshuf4i.b	$xr1, $xr1, 14
	xvadd.b	$xr0, $xr0, $xr1
	xvpermi.d	$xr1, $xr0, 68
	xvrepl128vei.b	$xr1, $xr1, 1
	xvadd.b	$xr0, $xr0, $xr1
	vpickve2gr.b	$a0, $vr0, 0
	beq	$s7, $s0, .LBB21_17
# %bb.11:                               # %vec.epilog.iter.check
                                        #   in Loop: Header=BB21_4 Depth=1
	move	$a3, $s7
	move	$a2, $s7
	ld.d	$a4, $sp, 8                     # 8-byte Folded Reload
	beqz	$a4, .LBB21_15
.LBB21_12:                              # %vec.epilog.ph
                                        #   in Loop: Header=BB21_4 Depth=1
	vld	$vr0, $sp, 80                   # 16-byte Folded Reload
	vinsgr2vr.b	$vr0, $a0, 0
	ld.d	$a0, $sp, 96                    # 8-byte Folded Reload
	add.d	$a0, $a0, $a2
	add.d	$a2, $s1, $a2
	.p2align	4, , 16
.LBB21_13:                              # %vec.epilog.vector.body
                                        #   Parent Loop BB21_4 Depth=1
                                        # =>  This Inner Loop Header: Depth=2
	vld	$vr1, $a2, 0
	vadd.b	$vr0, $vr0, $vr1
	vaddi.bu	$vr0, $vr0, 10
	addi.d	$a0, $a0, 16
	addi.d	$a2, $a2, 16
	bnez	$a0, .LBB21_13
# %bb.14:                               # %vec.epilog.middle.block
                                        #   in Loop: Header=BB21_4 Depth=1
	vbsrl.v	$vr1, $vr0, 8
	vadd.b	$vr0, $vr0, $vr1
	vsrli.d	$vr1, $vr0, 32
	vadd.b	$vr0, $vr0, $vr1
	vshuf4i.b	$vr1, $vr0, 14
	vadd.b	$vr0, $vr0, $vr1
	vreplvei.b	$vr1, $vr0, 1
	vadd.b	$vr0, $vr0, $vr1
	vpickve2gr.b	$a0, $vr0, 0
	move	$a3, $fp
	beq	$fp, $s0, .LBB21_17
.LBB21_15:                              # %for.body3.us.preheader
                                        #   in Loop: Header=BB21_4 Depth=1
	add.d	$a2, $s1, $a3
	sub.d	$a3, $s0, $a3
	.p2align	4, , 16
.LBB21_16:                              # %for.body3.us
                                        #   Parent Loop BB21_4 Depth=1
                                        # =>  This Inner Loop Header: Depth=2
	ld.b	$a4, $a2, 0
	add.d	$a0, $a0, $a4
	addi.d	$a0, $a0, 10
	addi.d	$a3, $a3, -1
	addi.d	$a2, $a2, 1
	bnez	$a3, .LBB21_16
.LBB21_17:                              # %for.cond1.for.cond.cleanup_crit_edge.us
                                        #   in Loop: Header=BB21_4 Depth=1
	fld.d	$fa0, $s4, %pc_lo12(init_value)
	ftintrz.l.d	$fa0, $fa0
	movfr2gr.d	$a2, $fa0
	slli.d	$a2, $a2, 6
	xor	$a0, $a2, $a0
	andi	$a0, $a0, 255
	beq	$a0, $s8, .LBB21_3
# %bb.18:                               # %if.then.i.us
                                        #   in Loop: Header=BB21_4 Depth=1
	ld.w	$a1, $s3, %pc_lo12(current_test)
	move	$a0, $s2
	pcaddu18i	$ra, %call36(printf)
	jirl	$ra, $ra, 0
	ori	$a5, $zero, 15
	ld.w	$a1, $s5, %pc_lo12(iterations)
	b	.LBB21_3
.LBB21_19:                              # %for.cond1.preheader.preheader
	move	$fp, $zero
	pcalau12i	$s1, %pc_hi20(init_value)
	fld.d	$fa0, $s1, %pc_lo12(init_value)
	ori	$s2, $zero, 2
	pcalau12i	$a0, %pc_hi20(.L.str.299)
	addi.d	$s0, $a0, %pc_lo12(.L.str.299)
	b	.LBB21_21
	.p2align	4, , 16
.LBB21_20:                              # %_Z17check_shifted_sumIa19custom_constant_addIaEEvT_.exit
                                        #   in Loop: Header=BB21_21 Depth=1
	addi.w	$fp, $fp, 1
	bge	$fp, $a1, .LBB21_23
.LBB21_21:                              # %for.cond1.preheader
                                        # =>This Inner Loop Header: Depth=1
	ftintrz.l.d	$fa1, $fa0
	movfr2gr.d	$a0, $fa1
	andi	$a0, $a0, 3
	beq	$a0, $s2, .LBB21_20
# %bb.22:                               # %if.then.i
                                        #   in Loop: Header=BB21_21 Depth=1
	ld.w	$a1, $s3, %pc_lo12(current_test)
	move	$a0, $s0
	pcaddu18i	$ra, %call36(printf)
	jirl	$ra, $ra, 0
	fld.d	$fa0, $s1, %pc_lo12(init_value)
	ld.w	$a1, $s5, %pc_lo12(iterations)
	b	.LBB21_20
.LBB21_23:                              # %for.end8
	pcaddu18i	$ra, %call36(clock)
	jirl	$ra, $ra, 0
	ld.d	$a1, $sp, 24                    # 8-byte Folded Reload
	ld.d	$fp, $a1, %pc_lo12(start_time)
	pcalau12i	$s2, %pc_hi20(results)
	ld.d	$a2, $s2, %pc_lo12(results)
	pcalau12i	$s1, %pc_hi20(allocated_results)
	ld.w	$a1, $s1, %pc_lo12(allocated_results)
	move	$s0, $a0
	pcalau12i	$a0, %pc_hi20(end_time)
	st.d	$s0, $a0, %pc_lo12(end_time)
	beqz	$a2, .LBB21_25
# %bb.24:                               # %for.end8
	ld.w	$a0, $s3, %pc_lo12(current_test)
	blt	$a0, $a1, .LBB21_27
.LBB21_25:                              # %if.then.i7
	addi.w	$a0, $a1, 10
	st.w	$a0, $s1, %pc_lo12(allocated_results)
	slli.d	$a1, $a0, 4
	move	$a0, $a2
	pcaddu18i	$ra, %call36(realloc)
	jirl	$ra, $ra, 0
	st.d	$a0, $s2, %pc_lo12(results)
	beqz	$a0, .LBB21_28
# %bb.26:                               # %if.then.if.end5_crit_edge.i
	move	$a2, $a0
	ld.w	$a0, $s3, %pc_lo12(current_test)
.LBB21_27:                              # %_Z13record_resultdPKc.exit
	ld.d	$a4, $sp, 16                    # 8-byte Folded Reload
	pcalau12i	$a1, %pc_hi20(.LCPI21_0)
	fld.d	$fa0, $a1, %pc_lo12(.LCPI21_0)
	sub.d	$a1, $s0, $fp
	movgr2fr.d	$fa1, $a1
	ffint.d.l	$fa1, $fa1
	fdiv.d	$fa0, $fa1, $fa0
	alsl.d	$a1, $a0, $a2, 4
	slli.d	$a3, $a0, 4
	fstx.d	$fa0, $a2, $a3
	st.d	$a4, $a1, 8
	addi.d	$a0, $a0, 1
	st.w	$a0, $s3, %pc_lo12(current_test)
	ld.d	$s8, $sp, 104                   # 8-byte Folded Reload
	ld.d	$s7, $sp, 112                   # 8-byte Folded Reload
	ld.d	$s6, $sp, 120                   # 8-byte Folded Reload
	ld.d	$s5, $sp, 128                   # 8-byte Folded Reload
	ld.d	$s4, $sp, 136                   # 8-byte Folded Reload
	ld.d	$s3, $sp, 144                   # 8-byte Folded Reload
	ld.d	$s2, $sp, 152                   # 8-byte Folded Reload
	ld.d	$s1, $sp, 160                   # 8-byte Folded Reload
	ld.d	$s0, $sp, 168                   # 8-byte Folded Reload
	ld.d	$fp, $sp, 176                   # 8-byte Folded Reload
	ld.d	$ra, $sp, 184                   # 8-byte Folded Reload
	addi.d	$sp, $sp, 192
	ret
.LBB21_28:                              # %if.then3.i
	ld.w	$a1, $s1, %pc_lo12(allocated_results)
	pcalau12i	$a0, %pc_hi20(.L.str)
	addi.d	$a0, $a0, %pc_lo12(.L.str)
	pcaddu18i	$ra, %call36(printf)
	jirl	$ra, $ra, 0
	addi.w	$a0, $zero, -1
	pcaddu18i	$ra, %call36(exit)
	jirl	$ra, $ra, 0
.Lfunc_end21:
	.size	_Z13test_constantIa19custom_constant_addIaEEvPT_iPKc, .Lfunc_end21-_Z13test_constantIa19custom_constant_addIaEEvPT_iPKc
	.cfi_endproc
                                        # -- End function
	.section	.rodata.cst8,"aM",@progbits,8
	.p2align	3, 0x0                          # -- Begin function _Z13test_constantIa28custom_multiple_constant_addIaEEvPT_iPKc
.LCPI22_0:
	.dword	0x412e848000000000              # double 1.0E+6
	.section	.text._Z13test_constantIa28custom_multiple_constant_addIaEEvPT_iPKc,"axG",@progbits,_Z13test_constantIa28custom_multiple_constant_addIaEEvPT_iPKc,comdat
	.weak	_Z13test_constantIa28custom_multiple_constant_addIaEEvPT_iPKc
	.p2align	5
	.type	_Z13test_constantIa28custom_multiple_constant_addIaEEvPT_iPKc,@function
_Z13test_constantIa28custom_multiple_constant_addIaEEvPT_iPKc: # @_Z13test_constantIa28custom_multiple_constant_addIaEEvPT_iPKc
	.cfi_startproc
# %bb.0:                                # %entry
	addi.d	$sp, $sp, -192
	.cfi_def_cfa_offset 192
	st.d	$ra, $sp, 184                   # 8-byte Folded Spill
	st.d	$fp, $sp, 176                   # 8-byte Folded Spill
	st.d	$s0, $sp, 168                   # 8-byte Folded Spill
	st.d	$s1, $sp, 160                   # 8-byte Folded Spill
	st.d	$s2, $sp, 152                   # 8-byte Folded Spill
	st.d	$s3, $sp, 144                   # 8-byte Folded Spill
	st.d	$s4, $sp, 136                   # 8-byte Folded Spill
	st.d	$s5, $sp, 128                   # 8-byte Folded Spill
	st.d	$s6, $sp, 120                   # 8-byte Folded Spill
	st.d	$s7, $sp, 112                   # 8-byte Folded Spill
	st.d	$s8, $sp, 104                   # 8-byte Folded Spill
	.cfi_offset 1, -8
	.cfi_offset 22, -16
	.cfi_offset 23, -24
	.cfi_offset 24, -32
	.cfi_offset 25, -40
	.cfi_offset 26, -48
	.cfi_offset 27, -56
	.cfi_offset 28, -64
	.cfi_offset 29, -72
	.cfi_offset 30, -80
	.cfi_offset 31, -88
	st.d	$a2, $sp, 16                    # 8-byte Folded Spill
	move	$s0, $a1
	move	$s1, $a0
	pcaddu18i	$ra, %call36(clock)
	jirl	$ra, $ra, 0
	pcalau12i	$s5, %pc_hi20(iterations)
	ld.w	$a1, $s5, %pc_lo12(iterations)
	pcalau12i	$a2, %pc_hi20(start_time)
	st.d	$a2, $sp, 24                    # 8-byte Folded Spill
	st.d	$a0, $a2, %pc_lo12(start_time)
	ori	$a0, $zero, 1
	pcalau12i	$s3, %pc_hi20(current_test)
	blt	$a1, $a0, .LBB22_23
# %bb.1:                                # %for.cond1.preheader.lr.ph
	blez	$s0, .LBB22_19
# %bb.2:                                # %for.cond1.preheader.us.preheader
	move	$s6, $zero
	bstrpick.d	$a0, $s0, 30, 6
	slli.d	$s7, $a0, 6
	andi	$a0, $s0, 48
	st.d	$a0, $sp, 8                     # 8-byte Folded Spill
	bstrpick.d	$a0, $s0, 30, 4
	slli.d	$fp, $a0, 4
	addi.d	$a0, $s1, 32
	st.d	$a0, $sp, 72                    # 8-byte Folded Spill
	sub.d	$a0, $zero, $fp
	st.d	$a0, $sp, 96                    # 8-byte Folded Spill
	ori	$a5, $zero, 15
	pcalau12i	$s4, %pc_hi20(init_value)
	ori	$s8, $zero, 128
	pcalau12i	$a0, %pc_hi20(.L.str.299)
	addi.d	$s2, $a0, %pc_lo12(.L.str.299)
	vrepli.b	$vr0, 0
	vst	$vr0, $sp, 80                   # 16-byte Folded Spill
	xvrepli.b	$xr0, 0
	xvst	$xr0, $sp, 32                   # 32-byte Folded Spill
	b	.LBB22_4
	.p2align	4, , 16
.LBB22_3:                               # %_Z17check_shifted_sumIa28custom_multiple_constant_addIaEEvT_.exit.us
                                        #   in Loop: Header=BB22_4 Depth=1
	addi.w	$s6, $s6, 1
	bge	$s6, $a1, .LBB22_23
.LBB22_4:                               # %iter.check
                                        # =>This Loop Header: Depth=1
                                        #     Child Loop BB22_9 Depth 2
                                        #     Child Loop BB22_13 Depth 2
                                        #     Child Loop BB22_16 Depth 2
	bltu	$a5, $s0, .LBB22_6
# %bb.5:                                #   in Loop: Header=BB22_4 Depth=1
	move	$a3, $zero
	move	$a0, $zero
	b	.LBB22_15
	.p2align	4, , 16
.LBB22_6:                               # %vector.main.loop.iter.check
                                        #   in Loop: Header=BB22_4 Depth=1
	ori	$a0, $zero, 64
	bgeu	$s0, $a0, .LBB22_8
# %bb.7:                                #   in Loop: Header=BB22_4 Depth=1
	move	$a2, $zero
	move	$a0, $zero
	b	.LBB22_12
	.p2align	4, , 16
.LBB22_8:                               # %vector.body.preheader
                                        #   in Loop: Header=BB22_4 Depth=1
	ld.d	$a0, $sp, 72                    # 8-byte Folded Reload
	move	$a2, $s7
	xvld	$xr1, $sp, 32                   # 32-byte Folded Reload
	xvori.b	$xr0, $xr1, 0
	.p2align	4, , 16
.LBB22_9:                               # %vector.body
                                        #   Parent Loop BB22_4 Depth=1
                                        # =>  This Inner Loop Header: Depth=2
	xvld	$xr2, $a0, -32
	xvld	$xr3, $a0, 0
	xvadd.b	$xr0, $xr0, $xr2
	xvadd.b	$xr1, $xr1, $xr3
	xvaddi.bu	$xr0, $xr0, 10
	xvaddi.bu	$xr1, $xr1, 10
	addi.d	$a2, $a2, -64
	addi.d	$a0, $a0, 64
	bnez	$a2, .LBB22_9
# %bb.10:                               # %middle.block
                                        #   in Loop: Header=BB22_4 Depth=1
	xvadd.b	$xr0, $xr1, $xr0
	xvpermi.d	$xr1, $xr0, 78
	xvshuf4i.b	$xr1, $xr1, 228
	xvadd.b	$xr0, $xr0, $xr1
	xvpermi.d	$xr1, $xr0, 68
	xvbsrl.v	$xr1, $xr1, 8
	xvadd.b	$xr0, $xr0, $xr1
	xvpermi.d	$xr1, $xr0, 68
	xvsrli.d	$xr1, $xr1, 32
	xvadd.b	$xr0, $xr0, $xr1
	xvpermi.d	$xr1, $xr0, 68
	xvshuf4i.b	$xr1, $xr1, 14
	xvadd.b	$xr0, $xr0, $xr1
	xvpermi.d	$xr1, $xr0, 68
	xvrepl128vei.b	$xr1, $xr1, 1
	xvadd.b	$xr0, $xr0, $xr1
	vpickve2gr.b	$a0, $vr0, 0
	beq	$s7, $s0, .LBB22_17
# %bb.11:                               # %vec.epilog.iter.check
                                        #   in Loop: Header=BB22_4 Depth=1
	move	$a3, $s7
	move	$a2, $s7
	ld.d	$a4, $sp, 8                     # 8-byte Folded Reload
	beqz	$a4, .LBB22_15
.LBB22_12:                              # %vec.epilog.ph
                                        #   in Loop: Header=BB22_4 Depth=1
	vld	$vr0, $sp, 80                   # 16-byte Folded Reload
	vinsgr2vr.b	$vr0, $a0, 0
	ld.d	$a0, $sp, 96                    # 8-byte Folded Reload
	add.d	$a0, $a0, $a2
	add.d	$a2, $s1, $a2
	.p2align	4, , 16
.LBB22_13:                              # %vec.epilog.vector.body
                                        #   Parent Loop BB22_4 Depth=1
                                        # =>  This Inner Loop Header: Depth=2
	vld	$vr1, $a2, 0
	vadd.b	$vr0, $vr0, $vr1
	vaddi.bu	$vr0, $vr0, 10
	addi.d	$a0, $a0, 16
	addi.d	$a2, $a2, 16
	bnez	$a0, .LBB22_13
# %bb.14:                               # %vec.epilog.middle.block
                                        #   in Loop: Header=BB22_4 Depth=1
	vbsrl.v	$vr1, $vr0, 8
	vadd.b	$vr0, $vr0, $vr1
	vsrli.d	$vr1, $vr0, 32
	vadd.b	$vr0, $vr0, $vr1
	vshuf4i.b	$vr1, $vr0, 14
	vadd.b	$vr0, $vr0, $vr1
	vreplvei.b	$vr1, $vr0, 1
	vadd.b	$vr0, $vr0, $vr1
	vpickve2gr.b	$a0, $vr0, 0
	move	$a3, $fp
	beq	$fp, $s0, .LBB22_17
.LBB22_15:                              # %for.body3.us.preheader
                                        #   in Loop: Header=BB22_4 Depth=1
	add.d	$a2, $s1, $a3
	sub.d	$a3, $s0, $a3
	.p2align	4, , 16
.LBB22_16:                              # %for.body3.us
                                        #   Parent Loop BB22_4 Depth=1
                                        # =>  This Inner Loop Header: Depth=2
	ld.b	$a4, $a2, 0
	add.d	$a0, $a0, $a4
	addi.d	$a0, $a0, 10
	addi.d	$a3, $a3, -1
	addi.d	$a2, $a2, 1
	bnez	$a3, .LBB22_16
.LBB22_17:                              # %for.cond1.for.cond.cleanup_crit_edge.us
                                        #   in Loop: Header=BB22_4 Depth=1
	fld.d	$fa0, $s4, %pc_lo12(init_value)
	ftintrz.l.d	$fa0, $fa0
	movfr2gr.d	$a2, $fa0
	slli.d	$a2, $a2, 6
	xor	$a0, $a2, $a0
	andi	$a0, $a0, 255
	beq	$a0, $s8, .LBB22_3
# %bb.18:                               # %if.then.i.us
                                        #   in Loop: Header=BB22_4 Depth=1
	ld.w	$a1, $s3, %pc_lo12(current_test)
	move	$a0, $s2
	pcaddu18i	$ra, %call36(printf)
	jirl	$ra, $ra, 0
	ori	$a5, $zero, 15
	ld.w	$a1, $s5, %pc_lo12(iterations)
	b	.LBB22_3
.LBB22_19:                              # %for.cond1.preheader.preheader
	move	$fp, $zero
	pcalau12i	$s1, %pc_hi20(init_value)
	fld.d	$fa0, $s1, %pc_lo12(init_value)
	ori	$s2, $zero, 2
	pcalau12i	$a0, %pc_hi20(.L.str.299)
	addi.d	$s0, $a0, %pc_lo12(.L.str.299)
	b	.LBB22_21
	.p2align	4, , 16
.LBB22_20:                              # %_Z17check_shifted_sumIa28custom_multiple_constant_addIaEEvT_.exit
                                        #   in Loop: Header=BB22_21 Depth=1
	addi.w	$fp, $fp, 1
	bge	$fp, $a1, .LBB22_23
.LBB22_21:                              # %for.cond1.preheader
                                        # =>This Inner Loop Header: Depth=1
	ftintrz.l.d	$fa1, $fa0
	movfr2gr.d	$a0, $fa1
	andi	$a0, $a0, 3
	beq	$a0, $s2, .LBB22_20
# %bb.22:                               # %if.then.i
                                        #   in Loop: Header=BB22_21 Depth=1
	ld.w	$a1, $s3, %pc_lo12(current_test)
	move	$a0, $s0
	pcaddu18i	$ra, %call36(printf)
	jirl	$ra, $ra, 0
	fld.d	$fa0, $s1, %pc_lo12(init_value)
	ld.w	$a1, $s5, %pc_lo12(iterations)
	b	.LBB22_20
.LBB22_23:                              # %for.end8
	pcaddu18i	$ra, %call36(clock)
	jirl	$ra, $ra, 0
	ld.d	$a1, $sp, 24                    # 8-byte Folded Reload
	ld.d	$fp, $a1, %pc_lo12(start_time)
	pcalau12i	$s2, %pc_hi20(results)
	ld.d	$a2, $s2, %pc_lo12(results)
	pcalau12i	$s1, %pc_hi20(allocated_results)
	ld.w	$a1, $s1, %pc_lo12(allocated_results)
	move	$s0, $a0
	pcalau12i	$a0, %pc_hi20(end_time)
	st.d	$s0, $a0, %pc_lo12(end_time)
	beqz	$a2, .LBB22_25
# %bb.24:                               # %for.end8
	ld.w	$a0, $s3, %pc_lo12(current_test)
	blt	$a0, $a1, .LBB22_27
.LBB22_25:                              # %if.then.i7
	addi.w	$a0, $a1, 10
	st.w	$a0, $s1, %pc_lo12(allocated_results)
	slli.d	$a1, $a0, 4
	move	$a0, $a2
	pcaddu18i	$ra, %call36(realloc)
	jirl	$ra, $ra, 0
	st.d	$a0, $s2, %pc_lo12(results)
	beqz	$a0, .LBB22_28
# %bb.26:                               # %if.then.if.end5_crit_edge.i
	move	$a2, $a0
	ld.w	$a0, $s3, %pc_lo12(current_test)
.LBB22_27:                              # %_Z13record_resultdPKc.exit
	ld.d	$a4, $sp, 16                    # 8-byte Folded Reload
	pcalau12i	$a1, %pc_hi20(.LCPI22_0)
	fld.d	$fa0, $a1, %pc_lo12(.LCPI22_0)
	sub.d	$a1, $s0, $fp
	movgr2fr.d	$fa1, $a1
	ffint.d.l	$fa1, $fa1
	fdiv.d	$fa0, $fa1, $fa0
	alsl.d	$a1, $a0, $a2, 4
	slli.d	$a3, $a0, 4
	fstx.d	$fa0, $a2, $a3
	st.d	$a4, $a1, 8
	addi.d	$a0, $a0, 1
	st.w	$a0, $s3, %pc_lo12(current_test)
	ld.d	$s8, $sp, 104                   # 8-byte Folded Reload
	ld.d	$s7, $sp, 112                   # 8-byte Folded Reload
	ld.d	$s6, $sp, 120                   # 8-byte Folded Reload
	ld.d	$s5, $sp, 128                   # 8-byte Folded Reload
	ld.d	$s4, $sp, 136                   # 8-byte Folded Reload
	ld.d	$s3, $sp, 144                   # 8-byte Folded Reload
	ld.d	$s2, $sp, 152                   # 8-byte Folded Reload
	ld.d	$s1, $sp, 160                   # 8-byte Folded Reload
	ld.d	$s0, $sp, 168                   # 8-byte Folded Reload
	ld.d	$fp, $sp, 176                   # 8-byte Folded Reload
	ld.d	$ra, $sp, 184                   # 8-byte Folded Reload
	addi.d	$sp, $sp, 192
	ret
.LBB22_28:                              # %if.then3.i
	ld.w	$a1, $s1, %pc_lo12(allocated_results)
	pcalau12i	$a0, %pc_hi20(.L.str)
	addi.d	$a0, $a0, %pc_lo12(.L.str)
	pcaddu18i	$ra, %call36(printf)
	jirl	$ra, $ra, 0
	addi.w	$a0, $zero, -1
	pcaddu18i	$ra, %call36(exit)
	jirl	$ra, $ra, 0
.Lfunc_end22:
	.size	_Z13test_constantIa28custom_multiple_constant_addIaEEvPT_iPKc, .Lfunc_end22-_Z13test_constantIa28custom_multiple_constant_addIaEEvPT_iPKc
	.cfi_endproc
                                        # -- End function
	.section	.rodata.cst8,"aM",@progbits,8
	.p2align	3, 0x0                          # -- Begin function _Z13test_constantIa19custom_constant_subIaEEvPT_iPKc
.LCPI23_0:
	.dword	0x412e848000000000              # double 1.0E+6
	.section	.text._Z13test_constantIa19custom_constant_subIaEEvPT_iPKc,"axG",@progbits,_Z13test_constantIa19custom_constant_subIaEEvPT_iPKc,comdat
	.weak	_Z13test_constantIa19custom_constant_subIaEEvPT_iPKc
	.p2align	5
	.type	_Z13test_constantIa19custom_constant_subIaEEvPT_iPKc,@function
_Z13test_constantIa19custom_constant_subIaEEvPT_iPKc: # @_Z13test_constantIa19custom_constant_subIaEEvPT_iPKc
	.cfi_startproc
# %bb.0:                                # %entry
	addi.d	$sp, $sp, -256
	.cfi_def_cfa_offset 256
	st.d	$ra, $sp, 248                   # 8-byte Folded Spill
	st.d	$fp, $sp, 240                   # 8-byte Folded Spill
	st.d	$s0, $sp, 232                   # 8-byte Folded Spill
	st.d	$s1, $sp, 224                   # 8-byte Folded Spill
	st.d	$s2, $sp, 216                   # 8-byte Folded Spill
	st.d	$s3, $sp, 208                   # 8-byte Folded Spill
	st.d	$s4, $sp, 200                   # 8-byte Folded Spill
	st.d	$s5, $sp, 192                   # 8-byte Folded Spill
	st.d	$s6, $sp, 184                   # 8-byte Folded Spill
	st.d	$s7, $sp, 176                   # 8-byte Folded Spill
	st.d	$s8, $sp, 168                   # 8-byte Folded Spill
	.cfi_offset 1, -8
	.cfi_offset 22, -16
	.cfi_offset 23, -24
	.cfi_offset 24, -32
	.cfi_offset 25, -40
	.cfi_offset 26, -48
	.cfi_offset 27, -56
	.cfi_offset 28, -64
	.cfi_offset 29, -72
	.cfi_offset 30, -80
	.cfi_offset 31, -88
	st.d	$a2, $sp, 16                    # 8-byte Folded Spill
	move	$s0, $a1
	move	$s1, $a0
	pcaddu18i	$ra, %call36(clock)
	jirl	$ra, $ra, 0
	pcalau12i	$s5, %pc_hi20(iterations)
	ld.w	$a1, $s5, %pc_lo12(iterations)
	pcalau12i	$a2, %pc_hi20(start_time)
	st.d	$a2, $sp, 24                    # 8-byte Folded Spill
	st.d	$a0, $a2, %pc_lo12(start_time)
	ori	$a0, $zero, 1
	pcalau12i	$s3, %pc_hi20(current_test)
	blt	$a1, $a0, .LBB23_23
# %bb.1:                                # %for.cond1.preheader.lr.ph
	blez	$s0, .LBB23_19
# %bb.2:                                # %for.cond1.preheader.us.preheader
	move	$s6, $zero
	bstrpick.d	$a0, $s0, 30, 6
	slli.d	$s7, $a0, 6
	andi	$a0, $s0, 48
	st.d	$a0, $sp, 8                     # 8-byte Folded Spill
	bstrpick.d	$a0, $s0, 30, 4
	slli.d	$fp, $a0, 4
	addi.d	$a0, $s1, 32
	st.d	$a0, $sp, 72                    # 8-byte Folded Spill
	sub.d	$a0, $zero, $fp
	st.d	$a0, $sp, 104                   # 8-byte Folded Spill
	ori	$a5, $zero, 15
	pcalau12i	$s4, %pc_hi20(init_value)
	ori	$s8, $zero, 128
	pcalau12i	$a0, %pc_hi20(.L.str.299)
	addi.d	$s2, $a0, %pc_lo12(.L.str.299)
	vrepli.b	$vr0, 0
	vst	$vr0, $sp, 80                   # 16-byte Folded Spill
	vrepli.b	$vr4, -10
	xvrepli.b	$xr0, 0
	xvst	$xr0, $sp, 32                   # 32-byte Folded Spill
	xvrepli.b	$xr5, -10
	vst	$vr4, $sp, 144                  # 16-byte Folded Spill
	xvst	$xr5, $sp, 112                  # 32-byte Folded Spill
	b	.LBB23_4
	.p2align	4, , 16
.LBB23_3:                               # %_Z17check_shifted_sumIa19custom_constant_subIaEEvT_.exit.us
                                        #   in Loop: Header=BB23_4 Depth=1
	addi.w	$s6, $s6, 1
	bge	$s6, $a1, .LBB23_23
.LBB23_4:                               # %iter.check
                                        # =>This Loop Header: Depth=1
                                        #     Child Loop BB23_9 Depth 2
                                        #     Child Loop BB23_13 Depth 2
                                        #     Child Loop BB23_16 Depth 2
	bltu	$a5, $s0, .LBB23_6
# %bb.5:                                #   in Loop: Header=BB23_4 Depth=1
	move	$a3, $zero
	move	$a0, $zero
	b	.LBB23_15
	.p2align	4, , 16
.LBB23_6:                               # %vector.main.loop.iter.check
                                        #   in Loop: Header=BB23_4 Depth=1
	ori	$a0, $zero, 64
	bgeu	$s0, $a0, .LBB23_8
# %bb.7:                                #   in Loop: Header=BB23_4 Depth=1
	move	$a2, $zero
	move	$a0, $zero
	b	.LBB23_12
	.p2align	4, , 16
.LBB23_8:                               # %vector.body.preheader
                                        #   in Loop: Header=BB23_4 Depth=1
	ld.d	$a0, $sp, 72                    # 8-byte Folded Reload
	move	$a2, $s7
	xvld	$xr1, $sp, 32                   # 32-byte Folded Reload
	xvori.b	$xr0, $xr1, 0
	.p2align	4, , 16
.LBB23_9:                               # %vector.body
                                        #   Parent Loop BB23_4 Depth=1
                                        # =>  This Inner Loop Header: Depth=2
	xvld	$xr2, $a0, -32
	xvld	$xr3, $a0, 0
	xvadd.b	$xr0, $xr0, $xr2
	xvadd.b	$xr1, $xr1, $xr3
	xvadd.b	$xr0, $xr0, $xr5
	xvadd.b	$xr1, $xr1, $xr5
	addi.d	$a2, $a2, -64
	addi.d	$a0, $a0, 64
	bnez	$a2, .LBB23_9
# %bb.10:                               # %middle.block
                                        #   in Loop: Header=BB23_4 Depth=1
	xvadd.b	$xr0, $xr1, $xr0
	xvpermi.d	$xr1, $xr0, 78
	xvshuf4i.b	$xr1, $xr1, 228
	xvadd.b	$xr0, $xr0, $xr1
	xvpermi.d	$xr1, $xr0, 68
	xvbsrl.v	$xr1, $xr1, 8
	xvadd.b	$xr0, $xr0, $xr1
	xvpermi.d	$xr1, $xr0, 68
	xvsrli.d	$xr1, $xr1, 32
	xvadd.b	$xr0, $xr0, $xr1
	xvpermi.d	$xr1, $xr0, 68
	xvshuf4i.b	$xr1, $xr1, 14
	xvadd.b	$xr0, $xr0, $xr1
	xvpermi.d	$xr1, $xr0, 68
	xvrepl128vei.b	$xr1, $xr1, 1
	xvadd.b	$xr0, $xr0, $xr1
	vpickve2gr.b	$a0, $vr0, 0
	beq	$s7, $s0, .LBB23_17
# %bb.11:                               # %vec.epilog.iter.check
                                        #   in Loop: Header=BB23_4 Depth=1
	move	$a3, $s7
	move	$a2, $s7
	ld.d	$a4, $sp, 8                     # 8-byte Folded Reload
	beqz	$a4, .LBB23_15
.LBB23_12:                              # %vec.epilog.ph
                                        #   in Loop: Header=BB23_4 Depth=1
	vld	$vr0, $sp, 80                   # 16-byte Folded Reload
	vinsgr2vr.b	$vr0, $a0, 0
	ld.d	$a0, $sp, 104                   # 8-byte Folded Reload
	add.d	$a0, $a0, $a2
	add.d	$a2, $s1, $a2
	.p2align	4, , 16
.LBB23_13:                              # %vec.epilog.vector.body
                                        #   Parent Loop BB23_4 Depth=1
                                        # =>  This Inner Loop Header: Depth=2
	vld	$vr1, $a2, 0
	vadd.b	$vr0, $vr0, $vr1
	vadd.b	$vr0, $vr0, $vr4
	addi.d	$a0, $a0, 16
	addi.d	$a2, $a2, 16
	bnez	$a0, .LBB23_13
# %bb.14:                               # %vec.epilog.middle.block
                                        #   in Loop: Header=BB23_4 Depth=1
	vbsrl.v	$vr1, $vr0, 8
	vadd.b	$vr0, $vr0, $vr1
	vsrli.d	$vr1, $vr0, 32
	vadd.b	$vr0, $vr0, $vr1
	vshuf4i.b	$vr1, $vr0, 14
	vadd.b	$vr0, $vr0, $vr1
	vreplvei.b	$vr1, $vr0, 1
	vadd.b	$vr0, $vr0, $vr1
	vpickve2gr.b	$a0, $vr0, 0
	move	$a3, $fp
	beq	$fp, $s0, .LBB23_17
.LBB23_15:                              # %for.body3.us.preheader
                                        #   in Loop: Header=BB23_4 Depth=1
	add.d	$a2, $s1, $a3
	sub.d	$a3, $s0, $a3
	.p2align	4, , 16
.LBB23_16:                              # %for.body3.us
                                        #   Parent Loop BB23_4 Depth=1
                                        # =>  This Inner Loop Header: Depth=2
	ld.b	$a4, $a2, 0
	add.d	$a0, $a0, $a4
	addi.d	$a0, $a0, -10
	addi.d	$a3, $a3, -1
	addi.d	$a2, $a2, 1
	bnez	$a3, .LBB23_16
.LBB23_17:                              # %for.cond1.for.cond.cleanup_crit_edge.us
                                        #   in Loop: Header=BB23_4 Depth=1
	fld.d	$fa0, $s4, %pc_lo12(init_value)
	ftintrz.l.d	$fa0, $fa0
	movfr2gr.d	$a2, $fa0
	slli.d	$a2, $a2, 6
	xor	$a0, $a2, $a0
	andi	$a0, $a0, 255
	beq	$a0, $s8, .LBB23_3
# %bb.18:                               # %if.then.i.us
                                        #   in Loop: Header=BB23_4 Depth=1
	ld.w	$a1, $s3, %pc_lo12(current_test)
	move	$a0, $s2
	pcaddu18i	$ra, %call36(printf)
	jirl	$ra, $ra, 0
	xvld	$xr5, $sp, 112                  # 32-byte Folded Reload
	vld	$vr4, $sp, 144                  # 16-byte Folded Reload
	ori	$a5, $zero, 15
	ld.w	$a1, $s5, %pc_lo12(iterations)
	b	.LBB23_3
.LBB23_19:                              # %for.cond1.preheader.preheader
	move	$fp, $zero
	pcalau12i	$s1, %pc_hi20(init_value)
	fld.d	$fa0, $s1, %pc_lo12(init_value)
	ori	$s2, $zero, 2
	pcalau12i	$a0, %pc_hi20(.L.str.299)
	addi.d	$s0, $a0, %pc_lo12(.L.str.299)
	b	.LBB23_21
	.p2align	4, , 16
.LBB23_20:                              # %_Z17check_shifted_sumIa19custom_constant_subIaEEvT_.exit
                                        #   in Loop: Header=BB23_21 Depth=1
	addi.w	$fp, $fp, 1
	bge	$fp, $a1, .LBB23_23
.LBB23_21:                              # %for.cond1.preheader
                                        # =>This Inner Loop Header: Depth=1
	ftintrz.l.d	$fa1, $fa0
	movfr2gr.d	$a0, $fa1
	andi	$a0, $a0, 3
	beq	$a0, $s2, .LBB23_20
# %bb.22:                               # %if.then.i
                                        #   in Loop: Header=BB23_21 Depth=1
	ld.w	$a1, $s3, %pc_lo12(current_test)
	move	$a0, $s0
	pcaddu18i	$ra, %call36(printf)
	jirl	$ra, $ra, 0
	fld.d	$fa0, $s1, %pc_lo12(init_value)
	ld.w	$a1, $s5, %pc_lo12(iterations)
	b	.LBB23_20
.LBB23_23:                              # %for.end8
	pcaddu18i	$ra, %call36(clock)
	jirl	$ra, $ra, 0
	ld.d	$a1, $sp, 24                    # 8-byte Folded Reload
	ld.d	$fp, $a1, %pc_lo12(start_time)
	pcalau12i	$s2, %pc_hi20(results)
	ld.d	$a2, $s2, %pc_lo12(results)
	pcalau12i	$s1, %pc_hi20(allocated_results)
	ld.w	$a1, $s1, %pc_lo12(allocated_results)
	move	$s0, $a0
	pcalau12i	$a0, %pc_hi20(end_time)
	st.d	$s0, $a0, %pc_lo12(end_time)
	beqz	$a2, .LBB23_25
# %bb.24:                               # %for.end8
	ld.w	$a0, $s3, %pc_lo12(current_test)
	blt	$a0, $a1, .LBB23_27
.LBB23_25:                              # %if.then.i8
	addi.w	$a0, $a1, 10
	st.w	$a0, $s1, %pc_lo12(allocated_results)
	slli.d	$a1, $a0, 4
	move	$a0, $a2
	pcaddu18i	$ra, %call36(realloc)
	jirl	$ra, $ra, 0
	st.d	$a0, $s2, %pc_lo12(results)
	beqz	$a0, .LBB23_28
# %bb.26:                               # %if.then.if.end5_crit_edge.i
	move	$a2, $a0
	ld.w	$a0, $s3, %pc_lo12(current_test)
.LBB23_27:                              # %_Z13record_resultdPKc.exit
	ld.d	$a4, $sp, 16                    # 8-byte Folded Reload
	pcalau12i	$a1, %pc_hi20(.LCPI23_0)
	fld.d	$fa0, $a1, %pc_lo12(.LCPI23_0)
	sub.d	$a1, $s0, $fp
	movgr2fr.d	$fa1, $a1
	ffint.d.l	$fa1, $fa1
	fdiv.d	$fa0, $fa1, $fa0
	alsl.d	$a1, $a0, $a2, 4
	slli.d	$a3, $a0, 4
	fstx.d	$fa0, $a2, $a3
	st.d	$a4, $a1, 8
	addi.d	$a0, $a0, 1
	st.w	$a0, $s3, %pc_lo12(current_test)
	ld.d	$s8, $sp, 168                   # 8-byte Folded Reload
	ld.d	$s7, $sp, 176                   # 8-byte Folded Reload
	ld.d	$s6, $sp, 184                   # 8-byte Folded Reload
	ld.d	$s5, $sp, 192                   # 8-byte Folded Reload
	ld.d	$s4, $sp, 200                   # 8-byte Folded Reload
	ld.d	$s3, $sp, 208                   # 8-byte Folded Reload
	ld.d	$s2, $sp, 216                   # 8-byte Folded Reload
	ld.d	$s1, $sp, 224                   # 8-byte Folded Reload
	ld.d	$s0, $sp, 232                   # 8-byte Folded Reload
	ld.d	$fp, $sp, 240                   # 8-byte Folded Reload
	ld.d	$ra, $sp, 248                   # 8-byte Folded Reload
	addi.d	$sp, $sp, 256
	ret
.LBB23_28:                              # %if.then3.i
	ld.w	$a1, $s1, %pc_lo12(allocated_results)
	pcalau12i	$a0, %pc_hi20(.L.str)
	addi.d	$a0, $a0, %pc_lo12(.L.str)
	pcaddu18i	$ra, %call36(printf)
	jirl	$ra, $ra, 0
	addi.w	$a0, $zero, -1
	pcaddu18i	$ra, %call36(exit)
	jirl	$ra, $ra, 0
.Lfunc_end23:
	.size	_Z13test_constantIa19custom_constant_subIaEEvPT_iPKc, .Lfunc_end23-_Z13test_constantIa19custom_constant_subIaEEvPT_iPKc
	.cfi_endproc
                                        # -- End function
	.section	.rodata.cst8,"aM",@progbits,8
	.p2align	3, 0x0                          # -- Begin function _Z13test_constantIa28custom_multiple_constant_subIaEEvPT_iPKc
.LCPI24_0:
	.dword	0x412e848000000000              # double 1.0E+6
	.section	.text._Z13test_constantIa28custom_multiple_constant_subIaEEvPT_iPKc,"axG",@progbits,_Z13test_constantIa28custom_multiple_constant_subIaEEvPT_iPKc,comdat
	.weak	_Z13test_constantIa28custom_multiple_constant_subIaEEvPT_iPKc
	.p2align	5
	.type	_Z13test_constantIa28custom_multiple_constant_subIaEEvPT_iPKc,@function
_Z13test_constantIa28custom_multiple_constant_subIaEEvPT_iPKc: # @_Z13test_constantIa28custom_multiple_constant_subIaEEvPT_iPKc
	.cfi_startproc
# %bb.0:                                # %entry
	addi.d	$sp, $sp, -256
	.cfi_def_cfa_offset 256
	st.d	$ra, $sp, 248                   # 8-byte Folded Spill
	st.d	$fp, $sp, 240                   # 8-byte Folded Spill
	st.d	$s0, $sp, 232                   # 8-byte Folded Spill
	st.d	$s1, $sp, 224                   # 8-byte Folded Spill
	st.d	$s2, $sp, 216                   # 8-byte Folded Spill
	st.d	$s3, $sp, 208                   # 8-byte Folded Spill
	st.d	$s4, $sp, 200                   # 8-byte Folded Spill
	st.d	$s5, $sp, 192                   # 8-byte Folded Spill
	st.d	$s6, $sp, 184                   # 8-byte Folded Spill
	st.d	$s7, $sp, 176                   # 8-byte Folded Spill
	st.d	$s8, $sp, 168                   # 8-byte Folded Spill
	.cfi_offset 1, -8
	.cfi_offset 22, -16
	.cfi_offset 23, -24
	.cfi_offset 24, -32
	.cfi_offset 25, -40
	.cfi_offset 26, -48
	.cfi_offset 27, -56
	.cfi_offset 28, -64
	.cfi_offset 29, -72
	.cfi_offset 30, -80
	.cfi_offset 31, -88
	st.d	$a2, $sp, 16                    # 8-byte Folded Spill
	move	$s0, $a1
	move	$s1, $a0
	pcaddu18i	$ra, %call36(clock)
	jirl	$ra, $ra, 0
	pcalau12i	$s5, %pc_hi20(iterations)
	ld.w	$a1, $s5, %pc_lo12(iterations)
	pcalau12i	$a2, %pc_hi20(start_time)
	st.d	$a2, $sp, 24                    # 8-byte Folded Spill
	st.d	$a0, $a2, %pc_lo12(start_time)
	ori	$a0, $zero, 1
	pcalau12i	$s3, %pc_hi20(current_test)
	blt	$a1, $a0, .LBB24_23
# %bb.1:                                # %for.cond1.preheader.lr.ph
	blez	$s0, .LBB24_19
# %bb.2:                                # %for.cond1.preheader.us.preheader
	move	$s6, $zero
	bstrpick.d	$a0, $s0, 30, 6
	slli.d	$s7, $a0, 6
	andi	$a0, $s0, 48
	st.d	$a0, $sp, 8                     # 8-byte Folded Spill
	bstrpick.d	$a0, $s0, 30, 4
	slli.d	$fp, $a0, 4
	addi.d	$a0, $s1, 32
	st.d	$a0, $sp, 72                    # 8-byte Folded Spill
	sub.d	$a0, $zero, $fp
	st.d	$a0, $sp, 104                   # 8-byte Folded Spill
	ori	$a5, $zero, 15
	pcalau12i	$s4, %pc_hi20(init_value)
	ori	$s8, $zero, 128
	pcalau12i	$a0, %pc_hi20(.L.str.299)
	addi.d	$s2, $a0, %pc_lo12(.L.str.299)
	vrepli.b	$vr0, 0
	vst	$vr0, $sp, 80                   # 16-byte Folded Spill
	vrepli.b	$vr4, -10
	xvrepli.b	$xr0, 0
	xvst	$xr0, $sp, 32                   # 32-byte Folded Spill
	xvrepli.b	$xr5, -10
	vst	$vr4, $sp, 144                  # 16-byte Folded Spill
	xvst	$xr5, $sp, 112                  # 32-byte Folded Spill
	b	.LBB24_4
	.p2align	4, , 16
.LBB24_3:                               # %_Z17check_shifted_sumIa28custom_multiple_constant_subIaEEvT_.exit.us
                                        #   in Loop: Header=BB24_4 Depth=1
	addi.w	$s6, $s6, 1
	bge	$s6, $a1, .LBB24_23
.LBB24_4:                               # %iter.check
                                        # =>This Loop Header: Depth=1
                                        #     Child Loop BB24_9 Depth 2
                                        #     Child Loop BB24_13 Depth 2
                                        #     Child Loop BB24_16 Depth 2
	bltu	$a5, $s0, .LBB24_6
# %bb.5:                                #   in Loop: Header=BB24_4 Depth=1
	move	$a3, $zero
	move	$a0, $zero
	b	.LBB24_15
	.p2align	4, , 16
.LBB24_6:                               # %vector.main.loop.iter.check
                                        #   in Loop: Header=BB24_4 Depth=1
	ori	$a0, $zero, 64
	bgeu	$s0, $a0, .LBB24_8
# %bb.7:                                #   in Loop: Header=BB24_4 Depth=1
	move	$a2, $zero
	move	$a0, $zero
	b	.LBB24_12
	.p2align	4, , 16
.LBB24_8:                               # %vector.body.preheader
                                        #   in Loop: Header=BB24_4 Depth=1
	ld.d	$a0, $sp, 72                    # 8-byte Folded Reload
	move	$a2, $s7
	xvld	$xr1, $sp, 32                   # 32-byte Folded Reload
	xvori.b	$xr0, $xr1, 0
	.p2align	4, , 16
.LBB24_9:                               # %vector.body
                                        #   Parent Loop BB24_4 Depth=1
                                        # =>  This Inner Loop Header: Depth=2
	xvld	$xr2, $a0, -32
	xvld	$xr3, $a0, 0
	xvadd.b	$xr0, $xr0, $xr2
	xvadd.b	$xr1, $xr1, $xr3
	xvadd.b	$xr0, $xr0, $xr5
	xvadd.b	$xr1, $xr1, $xr5
	addi.d	$a2, $a2, -64
	addi.d	$a0, $a0, 64
	bnez	$a2, .LBB24_9
# %bb.10:                               # %middle.block
                                        #   in Loop: Header=BB24_4 Depth=1
	xvadd.b	$xr0, $xr1, $xr0
	xvpermi.d	$xr1, $xr0, 78
	xvshuf4i.b	$xr1, $xr1, 228
	xvadd.b	$xr0, $xr0, $xr1
	xvpermi.d	$xr1, $xr0, 68
	xvbsrl.v	$xr1, $xr1, 8
	xvadd.b	$xr0, $xr0, $xr1
	xvpermi.d	$xr1, $xr0, 68
	xvsrli.d	$xr1, $xr1, 32
	xvadd.b	$xr0, $xr0, $xr1
	xvpermi.d	$xr1, $xr0, 68
	xvshuf4i.b	$xr1, $xr1, 14
	xvadd.b	$xr0, $xr0, $xr1
	xvpermi.d	$xr1, $xr0, 68
	xvrepl128vei.b	$xr1, $xr1, 1
	xvadd.b	$xr0, $xr0, $xr1
	vpickve2gr.b	$a0, $vr0, 0
	beq	$s7, $s0, .LBB24_17
# %bb.11:                               # %vec.epilog.iter.check
                                        #   in Loop: Header=BB24_4 Depth=1
	move	$a3, $s7
	move	$a2, $s7
	ld.d	$a4, $sp, 8                     # 8-byte Folded Reload
	beqz	$a4, .LBB24_15
.LBB24_12:                              # %vec.epilog.ph
                                        #   in Loop: Header=BB24_4 Depth=1
	vld	$vr0, $sp, 80                   # 16-byte Folded Reload
	vinsgr2vr.b	$vr0, $a0, 0
	ld.d	$a0, $sp, 104                   # 8-byte Folded Reload
	add.d	$a0, $a0, $a2
	add.d	$a2, $s1, $a2
	.p2align	4, , 16
.LBB24_13:                              # %vec.epilog.vector.body
                                        #   Parent Loop BB24_4 Depth=1
                                        # =>  This Inner Loop Header: Depth=2
	vld	$vr1, $a2, 0
	vadd.b	$vr0, $vr0, $vr1
	vadd.b	$vr0, $vr0, $vr4
	addi.d	$a0, $a0, 16
	addi.d	$a2, $a2, 16
	bnez	$a0, .LBB24_13
# %bb.14:                               # %vec.epilog.middle.block
                                        #   in Loop: Header=BB24_4 Depth=1
	vbsrl.v	$vr1, $vr0, 8
	vadd.b	$vr0, $vr0, $vr1
	vsrli.d	$vr1, $vr0, 32
	vadd.b	$vr0, $vr0, $vr1
	vshuf4i.b	$vr1, $vr0, 14
	vadd.b	$vr0, $vr0, $vr1
	vreplvei.b	$vr1, $vr0, 1
	vadd.b	$vr0, $vr0, $vr1
	vpickve2gr.b	$a0, $vr0, 0
	move	$a3, $fp
	beq	$fp, $s0, .LBB24_17
.LBB24_15:                              # %for.body3.us.preheader
                                        #   in Loop: Header=BB24_4 Depth=1
	add.d	$a2, $s1, $a3
	sub.d	$a3, $s0, $a3
	.p2align	4, , 16
.LBB24_16:                              # %for.body3.us
                                        #   Parent Loop BB24_4 Depth=1
                                        # =>  This Inner Loop Header: Depth=2
	ld.b	$a4, $a2, 0
	add.d	$a0, $a0, $a4
	addi.d	$a0, $a0, -10
	addi.d	$a3, $a3, -1
	addi.d	$a2, $a2, 1
	bnez	$a3, .LBB24_16
.LBB24_17:                              # %for.cond1.for.cond.cleanup_crit_edge.us
                                        #   in Loop: Header=BB24_4 Depth=1
	fld.d	$fa0, $s4, %pc_lo12(init_value)
	ftintrz.l.d	$fa0, $fa0
	movfr2gr.d	$a2, $fa0
	slli.d	$a2, $a2, 6
	xor	$a0, $a2, $a0
	andi	$a0, $a0, 255
	beq	$a0, $s8, .LBB24_3
# %bb.18:                               # %if.then.i.us
                                        #   in Loop: Header=BB24_4 Depth=1
	ld.w	$a1, $s3, %pc_lo12(current_test)
	move	$a0, $s2
	pcaddu18i	$ra, %call36(printf)
	jirl	$ra, $ra, 0
	xvld	$xr5, $sp, 112                  # 32-byte Folded Reload
	vld	$vr4, $sp, 144                  # 16-byte Folded Reload
	ori	$a5, $zero, 15
	ld.w	$a1, $s5, %pc_lo12(iterations)
	b	.LBB24_3
.LBB24_19:                              # %for.cond1.preheader.preheader
	move	$fp, $zero
	pcalau12i	$s1, %pc_hi20(init_value)
	fld.d	$fa0, $s1, %pc_lo12(init_value)
	ori	$s2, $zero, 2
	pcalau12i	$a0, %pc_hi20(.L.str.299)
	addi.d	$s0, $a0, %pc_lo12(.L.str.299)
	b	.LBB24_21
	.p2align	4, , 16
.LBB24_20:                              # %_Z17check_shifted_sumIa28custom_multiple_constant_subIaEEvT_.exit
                                        #   in Loop: Header=BB24_21 Depth=1
	addi.w	$fp, $fp, 1
	bge	$fp, $a1, .LBB24_23
.LBB24_21:                              # %for.cond1.preheader
                                        # =>This Inner Loop Header: Depth=1
	ftintrz.l.d	$fa1, $fa0
	movfr2gr.d	$a0, $fa1
	andi	$a0, $a0, 3
	beq	$a0, $s2, .LBB24_20
# %bb.22:                               # %if.then.i
                                        #   in Loop: Header=BB24_21 Depth=1
	ld.w	$a1, $s3, %pc_lo12(current_test)
	move	$a0, $s0
	pcaddu18i	$ra, %call36(printf)
	jirl	$ra, $ra, 0
	fld.d	$fa0, $s1, %pc_lo12(init_value)
	ld.w	$a1, $s5, %pc_lo12(iterations)
	b	.LBB24_20
.LBB24_23:                              # %for.end8
	pcaddu18i	$ra, %call36(clock)
	jirl	$ra, $ra, 0
	ld.d	$a1, $sp, 24                    # 8-byte Folded Reload
	ld.d	$fp, $a1, %pc_lo12(start_time)
	pcalau12i	$s2, %pc_hi20(results)
	ld.d	$a2, $s2, %pc_lo12(results)
	pcalau12i	$s1, %pc_hi20(allocated_results)
	ld.w	$a1, $s1, %pc_lo12(allocated_results)
	move	$s0, $a0
	pcalau12i	$a0, %pc_hi20(end_time)
	st.d	$s0, $a0, %pc_lo12(end_time)
	beqz	$a2, .LBB24_25
# %bb.24:                               # %for.end8
	ld.w	$a0, $s3, %pc_lo12(current_test)
	blt	$a0, $a1, .LBB24_27
.LBB24_25:                              # %if.then.i7
	addi.w	$a0, $a1, 10
	st.w	$a0, $s1, %pc_lo12(allocated_results)
	slli.d	$a1, $a0, 4
	move	$a0, $a2
	pcaddu18i	$ra, %call36(realloc)
	jirl	$ra, $ra, 0
	st.d	$a0, $s2, %pc_lo12(results)
	beqz	$a0, .LBB24_28
# %bb.26:                               # %if.then.if.end5_crit_edge.i
	move	$a2, $a0
	ld.w	$a0, $s3, %pc_lo12(current_test)
.LBB24_27:                              # %_Z13record_resultdPKc.exit
	ld.d	$a4, $sp, 16                    # 8-byte Folded Reload
	pcalau12i	$a1, %pc_hi20(.LCPI24_0)
	fld.d	$fa0, $a1, %pc_lo12(.LCPI24_0)
	sub.d	$a1, $s0, $fp
	movgr2fr.d	$fa1, $a1
	ffint.d.l	$fa1, $fa1
	fdiv.d	$fa0, $fa1, $fa0
	alsl.d	$a1, $a0, $a2, 4
	slli.d	$a3, $a0, 4
	fstx.d	$fa0, $a2, $a3
	st.d	$a4, $a1, 8
	addi.d	$a0, $a0, 1
	st.w	$a0, $s3, %pc_lo12(current_test)
	ld.d	$s8, $sp, 168                   # 8-byte Folded Reload
	ld.d	$s7, $sp, 176                   # 8-byte Folded Reload
	ld.d	$s6, $sp, 184                   # 8-byte Folded Reload
	ld.d	$s5, $sp, 192                   # 8-byte Folded Reload
	ld.d	$s4, $sp, 200                   # 8-byte Folded Reload
	ld.d	$s3, $sp, 208                   # 8-byte Folded Reload
	ld.d	$s2, $sp, 216                   # 8-byte Folded Reload
	ld.d	$s1, $sp, 224                   # 8-byte Folded Reload
	ld.d	$s0, $sp, 232                   # 8-byte Folded Reload
	ld.d	$fp, $sp, 240                   # 8-byte Folded Reload
	ld.d	$ra, $sp, 248                   # 8-byte Folded Reload
	addi.d	$sp, $sp, 256
	ret
.LBB24_28:                              # %if.then3.i
	ld.w	$a1, $s1, %pc_lo12(allocated_results)
	pcalau12i	$a0, %pc_hi20(.L.str)
	addi.d	$a0, $a0, %pc_lo12(.L.str)
	pcaddu18i	$ra, %call36(printf)
	jirl	$ra, $ra, 0
	addi.w	$a0, $zero, -1
	pcaddu18i	$ra, %call36(exit)
	jirl	$ra, $ra, 0
.Lfunc_end24:
	.size	_Z13test_constantIa28custom_multiple_constant_subIaEEvPT_iPKc, .Lfunc_end24-_Z13test_constantIa28custom_multiple_constant_subIaEEvPT_iPKc
	.cfi_endproc
                                        # -- End function
	.section	.rodata.cst8,"aM",@progbits,8
	.p2align	3, 0x0                          # -- Begin function _Z13test_constantIa24custom_constant_multiplyIaEEvPT_iPKc
.LCPI25_0:
	.dword	0x412e848000000000              # double 1.0E+6
	.section	.text._Z13test_constantIa24custom_constant_multiplyIaEEvPT_iPKc,"axG",@progbits,_Z13test_constantIa24custom_constant_multiplyIaEEvPT_iPKc,comdat
	.weak	_Z13test_constantIa24custom_constant_multiplyIaEEvPT_iPKc
	.p2align	5
	.type	_Z13test_constantIa24custom_constant_multiplyIaEEvPT_iPKc,@function
_Z13test_constantIa24custom_constant_multiplyIaEEvPT_iPKc: # @_Z13test_constantIa24custom_constant_multiplyIaEEvPT_iPKc
	.cfi_startproc
# %bb.0:                                # %entry
	addi.d	$sp, $sp, -256
	.cfi_def_cfa_offset 256
	st.d	$ra, $sp, 248                   # 8-byte Folded Spill
	st.d	$fp, $sp, 240                   # 8-byte Folded Spill
	st.d	$s0, $sp, 232                   # 8-byte Folded Spill
	st.d	$s1, $sp, 224                   # 8-byte Folded Spill
	st.d	$s2, $sp, 216                   # 8-byte Folded Spill
	st.d	$s3, $sp, 208                   # 8-byte Folded Spill
	st.d	$s4, $sp, 200                   # 8-byte Folded Spill
	st.d	$s5, $sp, 192                   # 8-byte Folded Spill
	st.d	$s6, $sp, 184                   # 8-byte Folded Spill
	st.d	$s7, $sp, 176                   # 8-byte Folded Spill
	st.d	$s8, $sp, 168                   # 8-byte Folded Spill
	.cfi_offset 1, -8
	.cfi_offset 22, -16
	.cfi_offset 23, -24
	.cfi_offset 24, -32
	.cfi_offset 25, -40
	.cfi_offset 26, -48
	.cfi_offset 27, -56
	.cfi_offset 28, -64
	.cfi_offset 29, -72
	.cfi_offset 30, -80
	.cfi_offset 31, -88
	st.d	$a2, $sp, 8                     # 8-byte Folded Spill
	move	$s0, $a1
	move	$s1, $a0
	pcaddu18i	$ra, %call36(clock)
	jirl	$ra, $ra, 0
	pcalau12i	$s5, %pc_hi20(iterations)
	ld.w	$a1, $s5, %pc_lo12(iterations)
	pcalau12i	$a2, %pc_hi20(start_time)
	st.d	$a2, $sp, 16                    # 8-byte Folded Spill
	st.d	$a0, $a2, %pc_lo12(start_time)
	ori	$a0, $zero, 1
	pcalau12i	$s3, %pc_hi20(current_test)
	blt	$a1, $a0, .LBB25_19
# %bb.1:                                # %entry
	blt	$s0, $a0, .LBB25_19
# %bb.2:                                # %for.cond1.preheader.us.preheader
	move	$s6, $zero
	bstrpick.d	$a0, $s0, 30, 6
	slli.d	$s7, $a0, 6
	andi	$a0, $s0, 48
	st.d	$a0, $sp, 24                    # 8-byte Folded Spill
	bstrpick.d	$a0, $s0, 30, 4
	slli.d	$fp, $a0, 4
	addi.d	$a0, $s1, 32
	st.d	$a0, $sp, 72                    # 8-byte Folded Spill
	sub.d	$a0, $zero, $fp
	st.d	$a0, $sp, 104                   # 8-byte Folded Spill
	ori	$s4, $zero, 15
	ori	$s8, $zero, 120
	pcalau12i	$a0, %pc_hi20(.L.str.299)
	addi.d	$s2, $a0, %pc_lo12(.L.str.299)
	vrepli.b	$vr0, 0
	vst	$vr0, $sp, 80                   # 16-byte Folded Spill
	vrepli.b	$vr4, 120
	xvrepli.b	$xr0, 0
	xvst	$xr0, $sp, 32                   # 32-byte Folded Spill
	xvrepli.b	$xr5, 120
	vst	$vr4, $sp, 144                  # 16-byte Folded Spill
	xvst	$xr5, $sp, 112                  # 32-byte Folded Spill
	b	.LBB25_4
	.p2align	4, , 16
.LBB25_3:                               # %_Z17check_shifted_sumIa24custom_constant_multiplyIaEEvT_.exit.us
                                        #   in Loop: Header=BB25_4 Depth=1
	addi.w	$s6, $s6, 1
	bge	$s6, $a1, .LBB25_19
.LBB25_4:                               # %iter.check
                                        # =>This Loop Header: Depth=1
                                        #     Child Loop BB25_9 Depth 2
                                        #     Child Loop BB25_13 Depth 2
                                        #     Child Loop BB25_16 Depth 2
	bltu	$s4, $s0, .LBB25_6
# %bb.5:                                #   in Loop: Header=BB25_4 Depth=1
	move	$a3, $zero
	move	$a0, $zero
	b	.LBB25_15
	.p2align	4, , 16
.LBB25_6:                               # %vector.main.loop.iter.check
                                        #   in Loop: Header=BB25_4 Depth=1
	ori	$a0, $zero, 64
	bgeu	$s0, $a0, .LBB25_8
# %bb.7:                                #   in Loop: Header=BB25_4 Depth=1
	move	$a2, $zero
	move	$a0, $zero
	b	.LBB25_12
	.p2align	4, , 16
.LBB25_8:                               # %vector.body.preheader
                                        #   in Loop: Header=BB25_4 Depth=1
	ld.d	$a0, $sp, 72                    # 8-byte Folded Reload
	move	$a2, $s7
	xvld	$xr1, $sp, 32                   # 32-byte Folded Reload
	xvori.b	$xr0, $xr1, 0
	.p2align	4, , 16
.LBB25_9:                               # %vector.body
                                        #   Parent Loop BB25_4 Depth=1
                                        # =>  This Inner Loop Header: Depth=2
	xvld	$xr2, $a0, -32
	xvld	$xr3, $a0, 0
	xvmadd.b	$xr0, $xr2, $xr5
	xvmadd.b	$xr1, $xr3, $xr5
	addi.d	$a2, $a2, -64
	addi.d	$a0, $a0, 64
	bnez	$a2, .LBB25_9
# %bb.10:                               # %middle.block
                                        #   in Loop: Header=BB25_4 Depth=1
	xvadd.b	$xr0, $xr1, $xr0
	xvpermi.d	$xr1, $xr0, 78
	xvshuf4i.b	$xr1, $xr1, 228
	xvadd.b	$xr0, $xr0, $xr1
	xvpermi.d	$xr1, $xr0, 68
	xvbsrl.v	$xr1, $xr1, 8
	xvadd.b	$xr0, $xr0, $xr1
	xvpermi.d	$xr1, $xr0, 68
	xvsrli.d	$xr1, $xr1, 32
	xvadd.b	$xr0, $xr0, $xr1
	xvpermi.d	$xr1, $xr0, 68
	xvshuf4i.b	$xr1, $xr1, 14
	xvadd.b	$xr0, $xr0, $xr1
	xvpermi.d	$xr1, $xr0, 68
	xvrepl128vei.b	$xr1, $xr1, 1
	xvadd.b	$xr0, $xr0, $xr1
	vpickve2gr.b	$a0, $vr0, 0
	beq	$s7, $s0, .LBB25_17
# %bb.11:                               # %vec.epilog.iter.check
                                        #   in Loop: Header=BB25_4 Depth=1
	move	$a3, $s7
	move	$a2, $s7
	ld.d	$a4, $sp, 24                    # 8-byte Folded Reload
	beqz	$a4, .LBB25_15
.LBB25_12:                              # %vec.epilog.ph
                                        #   in Loop: Header=BB25_4 Depth=1
	vld	$vr0, $sp, 80                   # 16-byte Folded Reload
	vinsgr2vr.b	$vr0, $a0, 0
	ld.d	$a0, $sp, 104                   # 8-byte Folded Reload
	add.d	$a0, $a0, $a2
	add.d	$a2, $s1, $a2
	.p2align	4, , 16
.LBB25_13:                              # %vec.epilog.vector.body
                                        #   Parent Loop BB25_4 Depth=1
                                        # =>  This Inner Loop Header: Depth=2
	vld	$vr1, $a2, 0
	vmadd.b	$vr0, $vr1, $vr4
	addi.d	$a0, $a0, 16
	addi.d	$a2, $a2, 16
	bnez	$a0, .LBB25_13
# %bb.14:                               # %vec.epilog.middle.block
                                        #   in Loop: Header=BB25_4 Depth=1
	vbsrl.v	$vr1, $vr0, 8
	vadd.b	$vr0, $vr0, $vr1
	vsrli.d	$vr1, $vr0, 32
	vadd.b	$vr0, $vr0, $vr1
	vshuf4i.b	$vr1, $vr0, 14
	vadd.b	$vr0, $vr0, $vr1
	vreplvei.b	$vr1, $vr0, 1
	vadd.b	$vr0, $vr0, $vr1
	vpickve2gr.b	$a0, $vr0, 0
	move	$a3, $fp
	beq	$fp, $s0, .LBB25_17
.LBB25_15:                              # %for.body3.us.preheader
                                        #   in Loop: Header=BB25_4 Depth=1
	add.d	$a2, $s1, $a3
	sub.d	$a3, $s0, $a3
	.p2align	4, , 16
.LBB25_16:                              # %for.body3.us
                                        #   Parent Loop BB25_4 Depth=1
                                        # =>  This Inner Loop Header: Depth=2
	ld.b	$a4, $a2, 0
	mul.d	$a4, $a4, $s8
	add.d	$a0, $a4, $a0
	addi.d	$a3, $a3, -1
	addi.d	$a2, $a2, 1
	bnez	$a3, .LBB25_16
.LBB25_17:                              # %for.cond1.for.cond.cleanup_crit_edge.us
                                        #   in Loop: Header=BB25_4 Depth=1
	andi	$a0, $a0, 255
	beqz	$a0, .LBB25_3
# %bb.18:                               # %if.then.i.us
                                        #   in Loop: Header=BB25_4 Depth=1
	ld.w	$a1, $s3, %pc_lo12(current_test)
	move	$a0, $s2
	pcaddu18i	$ra, %call36(printf)
	jirl	$ra, $ra, 0
	xvld	$xr5, $sp, 112                  # 32-byte Folded Reload
	vld	$vr4, $sp, 144                  # 16-byte Folded Reload
	ld.w	$a1, $s5, %pc_lo12(iterations)
	b	.LBB25_3
.LBB25_19:                              # %for.end8
	pcaddu18i	$ra, %call36(clock)
	jirl	$ra, $ra, 0
	ld.d	$a1, $sp, 16                    # 8-byte Folded Reload
	ld.d	$fp, $a1, %pc_lo12(start_time)
	pcalau12i	$s2, %pc_hi20(results)
	ld.d	$a2, $s2, %pc_lo12(results)
	pcalau12i	$s1, %pc_hi20(allocated_results)
	ld.w	$a1, $s1, %pc_lo12(allocated_results)
	move	$s0, $a0
	pcalau12i	$a0, %pc_hi20(end_time)
	st.d	$s0, $a0, %pc_lo12(end_time)
	beqz	$a2, .LBB25_21
# %bb.20:                               # %for.end8
	ld.w	$a0, $s3, %pc_lo12(current_test)
	blt	$a0, $a1, .LBB25_23
.LBB25_21:                              # %if.then.i6
	addi.w	$a0, $a1, 10
	st.w	$a0, $s1, %pc_lo12(allocated_results)
	slli.d	$a1, $a0, 4
	move	$a0, $a2
	pcaddu18i	$ra, %call36(realloc)
	jirl	$ra, $ra, 0
	st.d	$a0, $s2, %pc_lo12(results)
	beqz	$a0, .LBB25_24
# %bb.22:                               # %if.then.if.end5_crit_edge.i
	move	$a2, $a0
	ld.w	$a0, $s3, %pc_lo12(current_test)
.LBB25_23:                              # %_Z13record_resultdPKc.exit
	pcalau12i	$a1, %pc_hi20(.LCPI25_0)
	fld.d	$fa0, $a1, %pc_lo12(.LCPI25_0)
	sub.d	$a1, $s0, $fp
	movgr2fr.d	$fa1, $a1
	ffint.d.l	$fa1, $fa1
	fdiv.d	$fa0, $fa1, $fa0
	alsl.d	$a1, $a0, $a2, 4
	slli.d	$a3, $a0, 4
	fstx.d	$fa0, $a2, $a3
	ld.d	$a2, $sp, 8                     # 8-byte Folded Reload
	st.d	$a2, $a1, 8
	addi.d	$a0, $a0, 1
	st.w	$a0, $s3, %pc_lo12(current_test)
	ld.d	$s8, $sp, 168                   # 8-byte Folded Reload
	ld.d	$s7, $sp, 176                   # 8-byte Folded Reload
	ld.d	$s6, $sp, 184                   # 8-byte Folded Reload
	ld.d	$s5, $sp, 192                   # 8-byte Folded Reload
	ld.d	$s4, $sp, 200                   # 8-byte Folded Reload
	ld.d	$s3, $sp, 208                   # 8-byte Folded Reload
	ld.d	$s2, $sp, 216                   # 8-byte Folded Reload
	ld.d	$s1, $sp, 224                   # 8-byte Folded Reload
	ld.d	$s0, $sp, 232                   # 8-byte Folded Reload
	ld.d	$fp, $sp, 240                   # 8-byte Folded Reload
	ld.d	$ra, $sp, 248                   # 8-byte Folded Reload
	addi.d	$sp, $sp, 256
	ret
.LBB25_24:                              # %if.then3.i
	ld.w	$a1, $s1, %pc_lo12(allocated_results)
	pcalau12i	$a0, %pc_hi20(.L.str)
	addi.d	$a0, $a0, %pc_lo12(.L.str)
	pcaddu18i	$ra, %call36(printf)
	jirl	$ra, $ra, 0
	addi.w	$a0, $zero, -1
	pcaddu18i	$ra, %call36(exit)
	jirl	$ra, $ra, 0
.Lfunc_end25:
	.size	_Z13test_constantIa24custom_constant_multiplyIaEEvPT_iPKc, .Lfunc_end25-_Z13test_constantIa24custom_constant_multiplyIaEEvPT_iPKc
	.cfi_endproc
                                        # -- End function
	.section	.rodata.cst8,"aM",@progbits,8
	.p2align	3, 0x0                          # -- Begin function _Z13test_constantIa33custom_multiple_constant_multiplyIaEEvPT_iPKc
.LCPI26_0:
	.dword	0x412e848000000000              # double 1.0E+6
	.section	.text._Z13test_constantIa33custom_multiple_constant_multiplyIaEEvPT_iPKc,"axG",@progbits,_Z13test_constantIa33custom_multiple_constant_multiplyIaEEvPT_iPKc,comdat
	.weak	_Z13test_constantIa33custom_multiple_constant_multiplyIaEEvPT_iPKc
	.p2align	5
	.type	_Z13test_constantIa33custom_multiple_constant_multiplyIaEEvPT_iPKc,@function
_Z13test_constantIa33custom_multiple_constant_multiplyIaEEvPT_iPKc: # @_Z13test_constantIa33custom_multiple_constant_multiplyIaEEvPT_iPKc
	.cfi_startproc
# %bb.0:                                # %entry
	addi.d	$sp, $sp, -256
	.cfi_def_cfa_offset 256
	st.d	$ra, $sp, 248                   # 8-byte Folded Spill
	st.d	$fp, $sp, 240                   # 8-byte Folded Spill
	st.d	$s0, $sp, 232                   # 8-byte Folded Spill
	st.d	$s1, $sp, 224                   # 8-byte Folded Spill
	st.d	$s2, $sp, 216                   # 8-byte Folded Spill
	st.d	$s3, $sp, 208                   # 8-byte Folded Spill
	st.d	$s4, $sp, 200                   # 8-byte Folded Spill
	st.d	$s5, $sp, 192                   # 8-byte Folded Spill
	st.d	$s6, $sp, 184                   # 8-byte Folded Spill
	st.d	$s7, $sp, 176                   # 8-byte Folded Spill
	st.d	$s8, $sp, 168                   # 8-byte Folded Spill
	.cfi_offset 1, -8
	.cfi_offset 22, -16
	.cfi_offset 23, -24
	.cfi_offset 24, -32
	.cfi_offset 25, -40
	.cfi_offset 26, -48
	.cfi_offset 27, -56
	.cfi_offset 28, -64
	.cfi_offset 29, -72
	.cfi_offset 30, -80
	.cfi_offset 31, -88
	st.d	$a2, $sp, 8                     # 8-byte Folded Spill
	move	$s0, $a1
	move	$s1, $a0
	pcaddu18i	$ra, %call36(clock)
	jirl	$ra, $ra, 0
	pcalau12i	$s5, %pc_hi20(iterations)
	ld.w	$a1, $s5, %pc_lo12(iterations)
	pcalau12i	$a2, %pc_hi20(start_time)
	st.d	$a2, $sp, 16                    # 8-byte Folded Spill
	st.d	$a0, $a2, %pc_lo12(start_time)
	ori	$a0, $zero, 1
	pcalau12i	$s3, %pc_hi20(current_test)
	blt	$a1, $a0, .LBB26_19
# %bb.1:                                # %entry
	blt	$s0, $a0, .LBB26_19
# %bb.2:                                # %for.cond1.preheader.us.preheader
	move	$s6, $zero
	bstrpick.d	$a0, $s0, 30, 6
	slli.d	$s7, $a0, 6
	andi	$a0, $s0, 48
	st.d	$a0, $sp, 24                    # 8-byte Folded Spill
	bstrpick.d	$a0, $s0, 30, 4
	slli.d	$fp, $a0, 4
	addi.d	$a0, $s1, 32
	st.d	$a0, $sp, 72                    # 8-byte Folded Spill
	sub.d	$a0, $zero, $fp
	st.d	$a0, $sp, 104                   # 8-byte Folded Spill
	ori	$s4, $zero, 15
	ori	$s8, $zero, 120
	pcalau12i	$a0, %pc_hi20(.L.str.299)
	addi.d	$s2, $a0, %pc_lo12(.L.str.299)
	vrepli.b	$vr0, 0
	vst	$vr0, $sp, 80                   # 16-byte Folded Spill
	vrepli.b	$vr4, 120
	xvrepli.b	$xr0, 0
	xvst	$xr0, $sp, 32                   # 32-byte Folded Spill
	xvrepli.b	$xr5, 120
	vst	$vr4, $sp, 144                  # 16-byte Folded Spill
	xvst	$xr5, $sp, 112                  # 32-byte Folded Spill
	b	.LBB26_4
	.p2align	4, , 16
.LBB26_3:                               # %_Z17check_shifted_sumIa33custom_multiple_constant_multiplyIaEEvT_.exit.us
                                        #   in Loop: Header=BB26_4 Depth=1
	addi.w	$s6, $s6, 1
	bge	$s6, $a1, .LBB26_19
.LBB26_4:                               # %iter.check
                                        # =>This Loop Header: Depth=1
                                        #     Child Loop BB26_9 Depth 2
                                        #     Child Loop BB26_13 Depth 2
                                        #     Child Loop BB26_16 Depth 2
	bltu	$s4, $s0, .LBB26_6
# %bb.5:                                #   in Loop: Header=BB26_4 Depth=1
	move	$a3, $zero
	move	$a0, $zero
	b	.LBB26_15
	.p2align	4, , 16
.LBB26_6:                               # %vector.main.loop.iter.check
                                        #   in Loop: Header=BB26_4 Depth=1
	ori	$a0, $zero, 64
	bgeu	$s0, $a0, .LBB26_8
# %bb.7:                                #   in Loop: Header=BB26_4 Depth=1
	move	$a2, $zero
	move	$a0, $zero
	b	.LBB26_12
	.p2align	4, , 16
.LBB26_8:                               # %vector.body.preheader
                                        #   in Loop: Header=BB26_4 Depth=1
	ld.d	$a0, $sp, 72                    # 8-byte Folded Reload
	move	$a2, $s7
	xvld	$xr1, $sp, 32                   # 32-byte Folded Reload
	xvori.b	$xr0, $xr1, 0
	.p2align	4, , 16
.LBB26_9:                               # %vector.body
                                        #   Parent Loop BB26_4 Depth=1
                                        # =>  This Inner Loop Header: Depth=2
	xvld	$xr2, $a0, -32
	xvld	$xr3, $a0, 0
	xvmadd.b	$xr0, $xr2, $xr5
	xvmadd.b	$xr1, $xr3, $xr5
	addi.d	$a2, $a2, -64
	addi.d	$a0, $a0, 64
	bnez	$a2, .LBB26_9
# %bb.10:                               # %middle.block
                                        #   in Loop: Header=BB26_4 Depth=1
	xvadd.b	$xr0, $xr1, $xr0
	xvpermi.d	$xr1, $xr0, 78
	xvshuf4i.b	$xr1, $xr1, 228
	xvadd.b	$xr0, $xr0, $xr1
	xvpermi.d	$xr1, $xr0, 68
	xvbsrl.v	$xr1, $xr1, 8
	xvadd.b	$xr0, $xr0, $xr1
	xvpermi.d	$xr1, $xr0, 68
	xvsrli.d	$xr1, $xr1, 32
	xvadd.b	$xr0, $xr0, $xr1
	xvpermi.d	$xr1, $xr0, 68
	xvshuf4i.b	$xr1, $xr1, 14
	xvadd.b	$xr0, $xr0, $xr1
	xvpermi.d	$xr1, $xr0, 68
	xvrepl128vei.b	$xr1, $xr1, 1
	xvadd.b	$xr0, $xr0, $xr1
	vpickve2gr.b	$a0, $vr0, 0
	beq	$s7, $s0, .LBB26_17
# %bb.11:                               # %vec.epilog.iter.check
                                        #   in Loop: Header=BB26_4 Depth=1
	move	$a3, $s7
	move	$a2, $s7
	ld.d	$a4, $sp, 24                    # 8-byte Folded Reload
	beqz	$a4, .LBB26_15
.LBB26_12:                              # %vec.epilog.ph
                                        #   in Loop: Header=BB26_4 Depth=1
	vld	$vr0, $sp, 80                   # 16-byte Folded Reload
	vinsgr2vr.b	$vr0, $a0, 0
	ld.d	$a0, $sp, 104                   # 8-byte Folded Reload
	add.d	$a0, $a0, $a2
	add.d	$a2, $s1, $a2
	.p2align	4, , 16
.LBB26_13:                              # %vec.epilog.vector.body
                                        #   Parent Loop BB26_4 Depth=1
                                        # =>  This Inner Loop Header: Depth=2
	vld	$vr1, $a2, 0
	vmadd.b	$vr0, $vr1, $vr4
	addi.d	$a0, $a0, 16
	addi.d	$a2, $a2, 16
	bnez	$a0, .LBB26_13
# %bb.14:                               # %vec.epilog.middle.block
                                        #   in Loop: Header=BB26_4 Depth=1
	vbsrl.v	$vr1, $vr0, 8
	vadd.b	$vr0, $vr0, $vr1
	vsrli.d	$vr1, $vr0, 32
	vadd.b	$vr0, $vr0, $vr1
	vshuf4i.b	$vr1, $vr0, 14
	vadd.b	$vr0, $vr0, $vr1
	vreplvei.b	$vr1, $vr0, 1
	vadd.b	$vr0, $vr0, $vr1
	vpickve2gr.b	$a0, $vr0, 0
	move	$a3, $fp
	beq	$fp, $s0, .LBB26_17
.LBB26_15:                              # %for.body3.us.preheader
                                        #   in Loop: Header=BB26_4 Depth=1
	add.d	$a2, $s1, $a3
	sub.d	$a3, $s0, $a3
	.p2align	4, , 16
.LBB26_16:                              # %for.body3.us
                                        #   Parent Loop BB26_4 Depth=1
                                        # =>  This Inner Loop Header: Depth=2
	ld.b	$a4, $a2, 0
	mul.d	$a4, $a4, $s8
	add.d	$a0, $a4, $a0
	addi.d	$a3, $a3, -1
	addi.d	$a2, $a2, 1
	bnez	$a3, .LBB26_16
.LBB26_17:                              # %for.cond1.for.cond.cleanup_crit_edge.us
                                        #   in Loop: Header=BB26_4 Depth=1
	andi	$a0, $a0, 255
	beqz	$a0, .LBB26_3
# %bb.18:                               # %if.then.i.us
                                        #   in Loop: Header=BB26_4 Depth=1
	ld.w	$a1, $s3, %pc_lo12(current_test)
	move	$a0, $s2
	pcaddu18i	$ra, %call36(printf)
	jirl	$ra, $ra, 0
	xvld	$xr5, $sp, 112                  # 32-byte Folded Reload
	vld	$vr4, $sp, 144                  # 16-byte Folded Reload
	ld.w	$a1, $s5, %pc_lo12(iterations)
	b	.LBB26_3
.LBB26_19:                              # %for.end8
	pcaddu18i	$ra, %call36(clock)
	jirl	$ra, $ra, 0
	ld.d	$a1, $sp, 16                    # 8-byte Folded Reload
	ld.d	$fp, $a1, %pc_lo12(start_time)
	pcalau12i	$s2, %pc_hi20(results)
	ld.d	$a2, $s2, %pc_lo12(results)
	pcalau12i	$s1, %pc_hi20(allocated_results)
	ld.w	$a1, $s1, %pc_lo12(allocated_results)
	move	$s0, $a0
	pcalau12i	$a0, %pc_hi20(end_time)
	st.d	$s0, $a0, %pc_lo12(end_time)
	beqz	$a2, .LBB26_21
# %bb.20:                               # %for.end8
	ld.w	$a0, $s3, %pc_lo12(current_test)
	blt	$a0, $a1, .LBB26_23
.LBB26_21:                              # %if.then.i6
	addi.w	$a0, $a1, 10
	st.w	$a0, $s1, %pc_lo12(allocated_results)
	slli.d	$a1, $a0, 4
	move	$a0, $a2
	pcaddu18i	$ra, %call36(realloc)
	jirl	$ra, $ra, 0
	st.d	$a0, $s2, %pc_lo12(results)
	beqz	$a0, .LBB26_24
# %bb.22:                               # %if.then.if.end5_crit_edge.i
	move	$a2, $a0
	ld.w	$a0, $s3, %pc_lo12(current_test)
.LBB26_23:                              # %_Z13record_resultdPKc.exit
	pcalau12i	$a1, %pc_hi20(.LCPI26_0)
	fld.d	$fa0, $a1, %pc_lo12(.LCPI26_0)
	sub.d	$a1, $s0, $fp
	movgr2fr.d	$fa1, $a1
	ffint.d.l	$fa1, $fa1
	fdiv.d	$fa0, $fa1, $fa0
	alsl.d	$a1, $a0, $a2, 4
	slli.d	$a3, $a0, 4
	fstx.d	$fa0, $a2, $a3
	ld.d	$a2, $sp, 8                     # 8-byte Folded Reload
	st.d	$a2, $a1, 8
	addi.d	$a0, $a0, 1
	st.w	$a0, $s3, %pc_lo12(current_test)
	ld.d	$s8, $sp, 168                   # 8-byte Folded Reload
	ld.d	$s7, $sp, 176                   # 8-byte Folded Reload
	ld.d	$s6, $sp, 184                   # 8-byte Folded Reload
	ld.d	$s5, $sp, 192                   # 8-byte Folded Reload
	ld.d	$s4, $sp, 200                   # 8-byte Folded Reload
	ld.d	$s3, $sp, 208                   # 8-byte Folded Reload
	ld.d	$s2, $sp, 216                   # 8-byte Folded Reload
	ld.d	$s1, $sp, 224                   # 8-byte Folded Reload
	ld.d	$s0, $sp, 232                   # 8-byte Folded Reload
	ld.d	$fp, $sp, 240                   # 8-byte Folded Reload
	ld.d	$ra, $sp, 248                   # 8-byte Folded Reload
	addi.d	$sp, $sp, 256
	ret
.LBB26_24:                              # %if.then3.i
	ld.w	$a1, $s1, %pc_lo12(allocated_results)
	pcalau12i	$a0, %pc_hi20(.L.str)
	addi.d	$a0, $a0, %pc_lo12(.L.str)
	pcaddu18i	$ra, %call36(printf)
	jirl	$ra, $ra, 0
	addi.w	$a0, $zero, -1
	pcaddu18i	$ra, %call36(exit)
	jirl	$ra, $ra, 0
.Lfunc_end26:
	.size	_Z13test_constantIa33custom_multiple_constant_multiplyIaEEvPT_iPKc, .Lfunc_end26-_Z13test_constantIa33custom_multiple_constant_multiplyIaEEvPT_iPKc
	.cfi_endproc
                                        # -- End function
	.section	.rodata.cst8,"aM",@progbits,8
	.p2align	3, 0x0                          # -- Begin function _Z13test_constantIa34custom_multiple_constant_multiply2IaEEvPT_iPKc
.LCPI27_0:
	.dword	0x412e848000000000              # double 1.0E+6
	.section	.text._Z13test_constantIa34custom_multiple_constant_multiply2IaEEvPT_iPKc,"axG",@progbits,_Z13test_constantIa34custom_multiple_constant_multiply2IaEEvPT_iPKc,comdat
	.weak	_Z13test_constantIa34custom_multiple_constant_multiply2IaEEvPT_iPKc
	.p2align	5
	.type	_Z13test_constantIa34custom_multiple_constant_multiply2IaEEvPT_iPKc,@function
_Z13test_constantIa34custom_multiple_constant_multiply2IaEEvPT_iPKc: # @_Z13test_constantIa34custom_multiple_constant_multiply2IaEEvPT_iPKc
	.cfi_startproc
# %bb.0:                                # %entry
	addi.d	$sp, $sp, -256
	.cfi_def_cfa_offset 256
	st.d	$ra, $sp, 248                   # 8-byte Folded Spill
	st.d	$fp, $sp, 240                   # 8-byte Folded Spill
	st.d	$s0, $sp, 232                   # 8-byte Folded Spill
	st.d	$s1, $sp, 224                   # 8-byte Folded Spill
	st.d	$s2, $sp, 216                   # 8-byte Folded Spill
	st.d	$s3, $sp, 208                   # 8-byte Folded Spill
	st.d	$s4, $sp, 200                   # 8-byte Folded Spill
	st.d	$s5, $sp, 192                   # 8-byte Folded Spill
	st.d	$s6, $sp, 184                   # 8-byte Folded Spill
	st.d	$s7, $sp, 176                   # 8-byte Folded Spill
	st.d	$s8, $sp, 168                   # 8-byte Folded Spill
	.cfi_offset 1, -8
	.cfi_offset 22, -16
	.cfi_offset 23, -24
	.cfi_offset 24, -32
	.cfi_offset 25, -40
	.cfi_offset 26, -48
	.cfi_offset 27, -56
	.cfi_offset 28, -64
	.cfi_offset 29, -72
	.cfi_offset 30, -80
	.cfi_offset 31, -88
	st.d	$a2, $sp, 16                    # 8-byte Folded Spill
	move	$s0, $a1
	move	$s1, $a0
	pcaddu18i	$ra, %call36(clock)
	jirl	$ra, $ra, 0
	pcalau12i	$s5, %pc_hi20(iterations)
	ld.w	$a1, $s5, %pc_lo12(iterations)
	pcalau12i	$a2, %pc_hi20(start_time)
	st.d	$a2, $sp, 24                    # 8-byte Folded Spill
	st.d	$a0, $a2, %pc_lo12(start_time)
	ori	$a0, $zero, 1
	pcalau12i	$s3, %pc_hi20(current_test)
	blt	$a1, $a0, .LBB27_23
# %bb.1:                                # %for.cond1.preheader.lr.ph
	blez	$s0, .LBB27_19
# %bb.2:                                # %for.cond1.preheader.us.preheader
	move	$s6, $zero
	bstrpick.d	$a0, $s0, 30, 6
	slli.d	$s7, $a0, 6
	andi	$a0, $s0, 48
	st.d	$a0, $sp, 8                     # 8-byte Folded Spill
	bstrpick.d	$a0, $s0, 30, 4
	slli.d	$fp, $a0, 4
	addi.d	$a0, $s1, 32
	st.d	$a0, $sp, 72                    # 8-byte Folded Spill
	sub.d	$a0, $zero, $fp
	st.d	$a0, $sp, 104                   # 8-byte Folded Spill
	ori	$s8, $zero, 15
	pcalau12i	$s4, %pc_hi20(init_value)
	pcalau12i	$a0, %pc_hi20(.L.str.299)
	addi.d	$s2, $a0, %pc_lo12(.L.str.299)
	vrepli.b	$vr0, 0
	vst	$vr0, $sp, 80                   # 16-byte Folded Spill
	vrepli.b	$vr4, 120
	xvrepli.b	$xr0, 0
	xvst	$xr0, $sp, 32                   # 32-byte Folded Spill
	xvrepli.b	$xr5, 120
	vst	$vr4, $sp, 144                  # 16-byte Folded Spill
	xvst	$xr5, $sp, 112                  # 32-byte Folded Spill
	b	.LBB27_4
	.p2align	4, , 16
.LBB27_3:                               # %_Z17check_shifted_sumIa34custom_multiple_constant_multiply2IaEEvT_.exit.us
                                        #   in Loop: Header=BB27_4 Depth=1
	addi.w	$s6, $s6, 1
	bge	$s6, $a1, .LBB27_23
.LBB27_4:                               # %iter.check
                                        # =>This Loop Header: Depth=1
                                        #     Child Loop BB27_9 Depth 2
                                        #     Child Loop BB27_13 Depth 2
                                        #     Child Loop BB27_16 Depth 2
	bltu	$s8, $s0, .LBB27_6
# %bb.5:                                #   in Loop: Header=BB27_4 Depth=1
	move	$a3, $zero
	move	$a0, $zero
	b	.LBB27_15
	.p2align	4, , 16
.LBB27_6:                               # %vector.main.loop.iter.check
                                        #   in Loop: Header=BB27_4 Depth=1
	ori	$a0, $zero, 64
	bgeu	$s0, $a0, .LBB27_8
# %bb.7:                                #   in Loop: Header=BB27_4 Depth=1
	move	$a2, $zero
	move	$a0, $zero
	b	.LBB27_12
	.p2align	4, , 16
.LBB27_8:                               # %vector.body.preheader
                                        #   in Loop: Header=BB27_4 Depth=1
	ld.d	$a0, $sp, 72                    # 8-byte Folded Reload
	move	$a2, $s7
	xvld	$xr1, $sp, 32                   # 32-byte Folded Reload
	xvori.b	$xr0, $xr1, 0
	.p2align	4, , 16
.LBB27_9:                               # %vector.body
                                        #   Parent Loop BB27_4 Depth=1
                                        # =>  This Inner Loop Header: Depth=2
	xvld	$xr2, $a0, -32
	xvld	$xr3, $a0, 0
	xvadd.b	$xr0, $xr0, $xr2
	xvadd.b	$xr1, $xr1, $xr3
	xvadd.b	$xr0, $xr0, $xr5
	xvadd.b	$xr1, $xr1, $xr5
	addi.d	$a2, $a2, -64
	addi.d	$a0, $a0, 64
	bnez	$a2, .LBB27_9
# %bb.10:                               # %middle.block
                                        #   in Loop: Header=BB27_4 Depth=1
	xvadd.b	$xr0, $xr1, $xr0
	xvpermi.d	$xr1, $xr0, 78
	xvshuf4i.b	$xr1, $xr1, 228
	xvadd.b	$xr0, $xr0, $xr1
	xvpermi.d	$xr1, $xr0, 68
	xvbsrl.v	$xr1, $xr1, 8
	xvadd.b	$xr0, $xr0, $xr1
	xvpermi.d	$xr1, $xr0, 68
	xvsrli.d	$xr1, $xr1, 32
	xvadd.b	$xr0, $xr0, $xr1
	xvpermi.d	$xr1, $xr0, 68
	xvshuf4i.b	$xr1, $xr1, 14
	xvadd.b	$xr0, $xr0, $xr1
	xvpermi.d	$xr1, $xr0, 68
	xvrepl128vei.b	$xr1, $xr1, 1
	xvadd.b	$xr0, $xr0, $xr1
	vpickve2gr.b	$a0, $vr0, 0
	beq	$s7, $s0, .LBB27_17
# %bb.11:                               # %vec.epilog.iter.check
                                        #   in Loop: Header=BB27_4 Depth=1
	move	$a3, $s7
	move	$a2, $s7
	ld.d	$a4, $sp, 8                     # 8-byte Folded Reload
	beqz	$a4, .LBB27_15
.LBB27_12:                              # %vec.epilog.ph
                                        #   in Loop: Header=BB27_4 Depth=1
	vld	$vr0, $sp, 80                   # 16-byte Folded Reload
	vinsgr2vr.b	$vr0, $a0, 0
	ld.d	$a0, $sp, 104                   # 8-byte Folded Reload
	add.d	$a0, $a0, $a2
	add.d	$a2, $s1, $a2
	.p2align	4, , 16
.LBB27_13:                              # %vec.epilog.vector.body
                                        #   Parent Loop BB27_4 Depth=1
                                        # =>  This Inner Loop Header: Depth=2
	vld	$vr1, $a2, 0
	vadd.b	$vr0, $vr0, $vr1
	vadd.b	$vr0, $vr0, $vr4
	addi.d	$a0, $a0, 16
	addi.d	$a2, $a2, 16
	bnez	$a0, .LBB27_13
# %bb.14:                               # %vec.epilog.middle.block
                                        #   in Loop: Header=BB27_4 Depth=1
	vbsrl.v	$vr1, $vr0, 8
	vadd.b	$vr0, $vr0, $vr1
	vsrli.d	$vr1, $vr0, 32
	vadd.b	$vr0, $vr0, $vr1
	vshuf4i.b	$vr1, $vr0, 14
	vadd.b	$vr0, $vr0, $vr1
	vreplvei.b	$vr1, $vr0, 1
	vadd.b	$vr0, $vr0, $vr1
	vpickve2gr.b	$a0, $vr0, 0
	move	$a3, $fp
	beq	$fp, $s0, .LBB27_17
.LBB27_15:                              # %for.body3.us.preheader
                                        #   in Loop: Header=BB27_4 Depth=1
	add.d	$a2, $s1, $a3
	sub.d	$a3, $s0, $a3
	.p2align	4, , 16
.LBB27_16:                              # %for.body3.us
                                        #   Parent Loop BB27_4 Depth=1
                                        # =>  This Inner Loop Header: Depth=2
	ld.b	$a4, $a2, 0
	add.d	$a0, $a0, $a4
	addi.d	$a0, $a0, 120
	addi.d	$a3, $a3, -1
	addi.d	$a2, $a2, 1
	bnez	$a3, .LBB27_16
.LBB27_17:                              # %for.cond1.for.cond.cleanup_crit_edge.us
                                        #   in Loop: Header=BB27_4 Depth=1
	fld.d	$fa0, $s4, %pc_lo12(init_value)
	ftintrz.l.d	$fa0, $fa0
	movfr2gr.d	$a2, $fa0
	slli.d	$a2, $a2, 6
	andi	$a2, $a2, 192
	andi	$a0, $a0, 255
	beq	$a0, $a2, .LBB27_3
# %bb.18:                               # %if.then.i.us
                                        #   in Loop: Header=BB27_4 Depth=1
	ld.w	$a1, $s3, %pc_lo12(current_test)
	move	$a0, $s2
	pcaddu18i	$ra, %call36(printf)
	jirl	$ra, $ra, 0
	xvld	$xr5, $sp, 112                  # 32-byte Folded Reload
	vld	$vr4, $sp, 144                  # 16-byte Folded Reload
	ld.w	$a1, $s5, %pc_lo12(iterations)
	b	.LBB27_3
.LBB27_19:                              # %for.cond1.preheader.preheader
	pcalau12i	$fp, %pc_hi20(init_value)
	fld.d	$fa0, $fp, %pc_lo12(init_value)
	move	$s1, $zero
	pcalau12i	$a0, %pc_hi20(.L.str.299)
	addi.d	$s0, $a0, %pc_lo12(.L.str.299)
	b	.LBB27_21
	.p2align	4, , 16
.LBB27_20:                              # %_Z17check_shifted_sumIa34custom_multiple_constant_multiply2IaEEvT_.exit
                                        #   in Loop: Header=BB27_21 Depth=1
	addi.w	$s1, $s1, 1
	bge	$s1, $a1, .LBB27_23
.LBB27_21:                              # %for.cond1.preheader
                                        # =>This Inner Loop Header: Depth=1
	ftintrz.l.d	$fa1, $fa0
	movfr2gr.d	$a0, $fa1
	andi	$a0, $a0, 3
	beqz	$a0, .LBB27_20
# %bb.22:                               # %if.then.i
                                        #   in Loop: Header=BB27_21 Depth=1
	ld.w	$a1, $s3, %pc_lo12(current_test)
	move	$a0, $s0
	pcaddu18i	$ra, %call36(printf)
	jirl	$ra, $ra, 0
	fld.d	$fa0, $fp, %pc_lo12(init_value)
	ld.w	$a1, $s5, %pc_lo12(iterations)
	b	.LBB27_20
.LBB27_23:                              # %for.end8
	pcaddu18i	$ra, %call36(clock)
	jirl	$ra, $ra, 0
	ld.d	$a1, $sp, 24                    # 8-byte Folded Reload
	ld.d	$fp, $a1, %pc_lo12(start_time)
	pcalau12i	$s2, %pc_hi20(results)
	ld.d	$a2, $s2, %pc_lo12(results)
	pcalau12i	$s1, %pc_hi20(allocated_results)
	ld.w	$a1, $s1, %pc_lo12(allocated_results)
	move	$s0, $a0
	pcalau12i	$a0, %pc_hi20(end_time)
	st.d	$s0, $a0, %pc_lo12(end_time)
	beqz	$a2, .LBB27_25
# %bb.24:                               # %for.end8
	ld.w	$a0, $s3, %pc_lo12(current_test)
	blt	$a0, $a1, .LBB27_27
.LBB27_25:                              # %if.then.i7
	addi.w	$a0, $a1, 10
	st.w	$a0, $s1, %pc_lo12(allocated_results)
	slli.d	$a1, $a0, 4
	move	$a0, $a2
	pcaddu18i	$ra, %call36(realloc)
	jirl	$ra, $ra, 0
	st.d	$a0, $s2, %pc_lo12(results)
	beqz	$a0, .LBB27_28
# %bb.26:                               # %if.then.if.end5_crit_edge.i
	move	$a2, $a0
	ld.w	$a0, $s3, %pc_lo12(current_test)
.LBB27_27:                              # %_Z13record_resultdPKc.exit
	ld.d	$a4, $sp, 16                    # 8-byte Folded Reload
	pcalau12i	$a1, %pc_hi20(.LCPI27_0)
	fld.d	$fa0, $a1, %pc_lo12(.LCPI27_0)
	sub.d	$a1, $s0, $fp
	movgr2fr.d	$fa1, $a1
	ffint.d.l	$fa1, $fa1
	fdiv.d	$fa0, $fa1, $fa0
	alsl.d	$a1, $a0, $a2, 4
	slli.d	$a3, $a0, 4
	fstx.d	$fa0, $a2, $a3
	st.d	$a4, $a1, 8
	addi.d	$a0, $a0, 1
	st.w	$a0, $s3, %pc_lo12(current_test)
	ld.d	$s8, $sp, 168                   # 8-byte Folded Reload
	ld.d	$s7, $sp, 176                   # 8-byte Folded Reload
	ld.d	$s6, $sp, 184                   # 8-byte Folded Reload
	ld.d	$s5, $sp, 192                   # 8-byte Folded Reload
	ld.d	$s4, $sp, 200                   # 8-byte Folded Reload
	ld.d	$s3, $sp, 208                   # 8-byte Folded Reload
	ld.d	$s2, $sp, 216                   # 8-byte Folded Reload
	ld.d	$s1, $sp, 224                   # 8-byte Folded Reload
	ld.d	$s0, $sp, 232                   # 8-byte Folded Reload
	ld.d	$fp, $sp, 240                   # 8-byte Folded Reload
	ld.d	$ra, $sp, 248                   # 8-byte Folded Reload
	addi.d	$sp, $sp, 256
	ret
.LBB27_28:                              # %if.then3.i
	ld.w	$a1, $s1, %pc_lo12(allocated_results)
	pcalau12i	$a0, %pc_hi20(.L.str)
	addi.d	$a0, $a0, %pc_lo12(.L.str)
	pcaddu18i	$ra, %call36(printf)
	jirl	$ra, $ra, 0
	addi.w	$a0, $zero, -1
	pcaddu18i	$ra, %call36(exit)
	jirl	$ra, $ra, 0
.Lfunc_end27:
	.size	_Z13test_constantIa34custom_multiple_constant_multiply2IaEEvPT_iPKc, .Lfunc_end27-_Z13test_constantIa34custom_multiple_constant_multiply2IaEEvPT_iPKc
	.cfi_endproc
                                        # -- End function
	.section	.rodata.cst8,"aM",@progbits,8
	.p2align	3, 0x0                          # -- Begin function _Z13test_constantIa22custom_constant_divideIaEEvPT_iPKc
.LCPI28_0:
	.dword	0x412e848000000000              # double 1.0E+6
	.section	.text._Z13test_constantIa22custom_constant_divideIaEEvPT_iPKc,"axG",@progbits,_Z13test_constantIa22custom_constant_divideIaEEvPT_iPKc,comdat
	.weak	_Z13test_constantIa22custom_constant_divideIaEEvPT_iPKc
	.p2align	5
	.type	_Z13test_constantIa22custom_constant_divideIaEEvPT_iPKc,@function
_Z13test_constantIa22custom_constant_divideIaEEvPT_iPKc: # @_Z13test_constantIa22custom_constant_divideIaEEvPT_iPKc
	.cfi_startproc
# %bb.0:                                # %entry
	addi.d	$sp, $sp, -256
	.cfi_def_cfa_offset 256
	st.d	$ra, $sp, 248                   # 8-byte Folded Spill
	st.d	$fp, $sp, 240                   # 8-byte Folded Spill
	st.d	$s0, $sp, 232                   # 8-byte Folded Spill
	st.d	$s1, $sp, 224                   # 8-byte Folded Spill
	st.d	$s2, $sp, 216                   # 8-byte Folded Spill
	st.d	$s3, $sp, 208                   # 8-byte Folded Spill
	st.d	$s4, $sp, 200                   # 8-byte Folded Spill
	st.d	$s5, $sp, 192                   # 8-byte Folded Spill
	st.d	$s6, $sp, 184                   # 8-byte Folded Spill
	st.d	$s7, $sp, 176                   # 8-byte Folded Spill
	st.d	$s8, $sp, 168                   # 8-byte Folded Spill
	.cfi_offset 1, -8
	.cfi_offset 22, -16
	.cfi_offset 23, -24
	.cfi_offset 24, -32
	.cfi_offset 25, -40
	.cfi_offset 26, -48
	.cfi_offset 27, -56
	.cfi_offset 28, -64
	.cfi_offset 29, -72
	.cfi_offset 30, -80
	.cfi_offset 31, -88
	st.d	$a2, $sp, 16                    # 8-byte Folded Spill
	move	$s0, $a1
	move	$s1, $a0
	pcaddu18i	$ra, %call36(clock)
	jirl	$ra, $ra, 0
	pcalau12i	$s5, %pc_hi20(iterations)
	ld.w	$a1, $s5, %pc_lo12(iterations)
	pcalau12i	$a2, %pc_hi20(start_time)
	st.d	$a2, $sp, 24                    # 8-byte Folded Spill
	st.d	$a0, $a2, %pc_lo12(start_time)
	ori	$a0, $zero, 1
	pcalau12i	$s3, %pc_hi20(current_test)
	blt	$a1, $a0, .LBB28_23
# %bb.1:                                # %for.cond1.preheader.lr.ph
	blez	$s0, .LBB28_19
# %bb.2:                                # %for.cond1.preheader.us.preheader
	move	$s6, $zero
	bstrpick.d	$a0, $s0, 30, 6
	slli.d	$s7, $a0, 6
	andi	$a0, $s0, 48
	st.d	$a0, $sp, 8                     # 8-byte Folded Spill
	bstrpick.d	$a0, $s0, 30, 4
	slli.d	$fp, $a0, 4
	addi.d	$a0, $s1, 32
	st.d	$a0, $sp, 72                    # 8-byte Folded Spill
	sub.d	$a0, $zero, $fp
	st.d	$a0, $sp, 104                   # 8-byte Folded Spill
	ori	$a6, $zero, 15
	ori	$s4, $zero, 103
	pcalau12i	$s8, %pc_hi20(init_value)
	pcalau12i	$a0, %pc_hi20(.L.str.299)
	addi.d	$s2, $a0, %pc_lo12(.L.str.299)
	vrepli.b	$vr0, 0
	vst	$vr0, $sp, 80                   # 16-byte Folded Spill
	vrepli.b	$vr5, 103
	xvrepli.b	$xr0, 0
	xvst	$xr0, $sp, 32                   # 32-byte Folded Spill
	xvrepli.b	$xr6, 103
	vst	$vr5, $sp, 144                  # 16-byte Folded Spill
	xvst	$xr6, $sp, 112                  # 32-byte Folded Spill
	b	.LBB28_4
	.p2align	4, , 16
.LBB28_3:                               # %_Z17check_shifted_sumIa22custom_constant_divideIaEEvT_.exit.us
                                        #   in Loop: Header=BB28_4 Depth=1
	addi.w	$s6, $s6, 1
	bge	$s6, $a1, .LBB28_23
.LBB28_4:                               # %iter.check
                                        # =>This Loop Header: Depth=1
                                        #     Child Loop BB28_9 Depth 2
                                        #     Child Loop BB28_13 Depth 2
                                        #     Child Loop BB28_16 Depth 2
	bltu	$a6, $s0, .LBB28_6
# %bb.5:                                #   in Loop: Header=BB28_4 Depth=1
	move	$a3, $zero
	move	$a0, $zero
	b	.LBB28_15
	.p2align	4, , 16
.LBB28_6:                               # %vector.main.loop.iter.check
                                        #   in Loop: Header=BB28_4 Depth=1
	ori	$a0, $zero, 64
	bgeu	$s0, $a0, .LBB28_8
# %bb.7:                                #   in Loop: Header=BB28_4 Depth=1
	move	$a2, $zero
	move	$a0, $zero
	b	.LBB28_12
	.p2align	4, , 16
.LBB28_8:                               # %vector.body.preheader
                                        #   in Loop: Header=BB28_4 Depth=1
	ld.d	$a0, $sp, 72                    # 8-byte Folded Reload
	move	$a2, $s7
	xvld	$xr1, $sp, 32                   # 32-byte Folded Reload
	xvori.b	$xr0, $xr1, 0
	.p2align	4, , 16
.LBB28_9:                               # %vector.body
                                        #   Parent Loop BB28_4 Depth=1
                                        # =>  This Inner Loop Header: Depth=2
	xvld	$xr2, $a0, -32
	xvld	$xr3, $a0, 0
	xvmuh.b	$xr2, $xr2, $xr6
	xvsrai.b	$xr2, $xr2, 1
	xvsrli.b	$xr4, $xr2, 7
	xvadd.b	$xr2, $xr2, $xr4
	xvmuh.b	$xr3, $xr3, $xr6
	xvsrai.b	$xr3, $xr3, 1
	xvsrli.b	$xr4, $xr3, 7
	xvadd.b	$xr3, $xr3, $xr4
	xvadd.b	$xr0, $xr2, $xr0
	xvadd.b	$xr1, $xr3, $xr1
	addi.d	$a2, $a2, -64
	addi.d	$a0, $a0, 64
	bnez	$a2, .LBB28_9
# %bb.10:                               # %middle.block
                                        #   in Loop: Header=BB28_4 Depth=1
	xvadd.b	$xr0, $xr1, $xr0
	xvpermi.d	$xr1, $xr0, 78
	xvshuf4i.b	$xr1, $xr1, 228
	xvadd.b	$xr0, $xr0, $xr1
	xvpermi.d	$xr1, $xr0, 68
	xvbsrl.v	$xr1, $xr1, 8
	xvadd.b	$xr0, $xr0, $xr1
	xvpermi.d	$xr1, $xr0, 68
	xvsrli.d	$xr1, $xr1, 32
	xvadd.b	$xr0, $xr0, $xr1
	xvpermi.d	$xr1, $xr0, 68
	xvshuf4i.b	$xr1, $xr1, 14
	xvadd.b	$xr0, $xr0, $xr1
	xvpermi.d	$xr1, $xr0, 68
	xvrepl128vei.b	$xr1, $xr1, 1
	xvadd.b	$xr0, $xr0, $xr1
	vpickve2gr.b	$a0, $vr0, 0
	beq	$s7, $s0, .LBB28_17
# %bb.11:                               # %vec.epilog.iter.check
                                        #   in Loop: Header=BB28_4 Depth=1
	move	$a3, $s7
	move	$a2, $s7
	ld.d	$a4, $sp, 8                     # 8-byte Folded Reload
	beqz	$a4, .LBB28_15
.LBB28_12:                              # %vec.epilog.ph
                                        #   in Loop: Header=BB28_4 Depth=1
