	.file	"complexity_test.cc"
                                        # Start of file scope inline assembly
	.globl	_ZSt21ios_base_library_initv

                                        # End of file scope inline assembly
	.section	.rodata.cst8,"aM",@progbits,8
	.p2align	3, 0x0                          # -- Begin function _Z16BM_Complexity_O1RN9benchmark5StateE
.LCPI0_0:
	.dword	0x3e668c6fa0b2f9a4              # double 4.2000000000000006E-8
	.text
	.hidden	_Z16BM_Complexity_O1RN9benchmark5StateE
	.globl	_Z16BM_Complexity_O1RN9benchmark5StateE
	.p2align	5
	.type	_Z16BM_Complexity_O1RN9benchmark5StateE,@function
_Z16BM_Complexity_O1RN9benchmark5StateE: # @_Z16BM_Complexity_O1RN9benchmark5StateE
	.cfi_startproc
# %bb.0:                                # %entry
	addi.d	$sp, $sp, -96
	.cfi_def_cfa_offset 96
	st.d	$ra, $sp, 88                    # 8-byte Folded Spill
	st.d	$fp, $sp, 80                    # 8-byte Folded Spill
	st.d	$s0, $sp, 72                    # 8-byte Folded Spill
	st.d	$s1, $sp, 64                    # 8-byte Folded Spill
	st.d	$s2, $sp, 56                    # 8-byte Folded Spill
	st.d	$s3, $sp, 48                    # 8-byte Folded Spill
	st.d	$s4, $sp, 40                    # 8-byte Folded Spill
	fst.d	$fs0, $sp, 32                   # 8-byte Folded Spill
	fst.d	$fs1, $sp, 24                   # 8-byte Folded Spill
	.cfi_offset 1, -8
	.cfi_offset 22, -16
	.cfi_offset 23, -24
	.cfi_offset 24, -32
	.cfi_offset 25, -40
	.cfi_offset 26, -48
	.cfi_offset 27, -56
	.cfi_offset 56, -64
	.cfi_offset 57, -72
	move	$fp, $a0
	ld.w	$s1, $a0, 28
	ld.d	$s0, $a0, 16
	pcaddu18i	$ra, %call36(_ZN9benchmark5State16StartKeepRunningEv)
	jirl	$ra, $ra, 0
	bnez	$s1, .LBB0_16
# %bb.1:                                # %entry
	beqz	$s0, .LBB0_16
# %bb.2:
	ori	$s1, $zero, 1
	addi.d	$s2, $sp, 16
	pcalau12i	$a0, %pc_hi20(.LCPI0_0)
	fld.d	$fs0, $a0, %pc_lo12(.LCPI0_0)
	movgr2fr.d	$fs1, $zero
	addi.w	$s3, $zero, -1
	addi.d	$s4, $sp, 8
	.p2align	4, , 16
.LBB0_3:                                # %for.body
                                        # =>This Loop Header: Depth=1
                                        #     Child Loop BB0_9 Depth 2
	ld.bu	$a0, $fp, 24
	bne	$a0, $s1, .LBB0_15
# %bb.4:                                # %if.end.i48
                                        #   in Loop: Header=BB0_3 Depth=1
	ld.d	$a0, $fp, 16
	ld.d	$a1, $fp, 0
	ld.d	$a2, $fp, 8
	sub.d	$a0, $a0, $a1
	add.d	$a0, $a0, $a2
.LBB0_5:                                # %_ZNK9benchmark5State10iterationsEv.exit53
                                        #   in Loop: Header=BB0_3 Depth=1
	st.d	$a0, $sp, 16
	#APP
	#NO_APP
	ld.bu	$a0, $fp, 24
	fmov.d	$fa0, $fs1
	bne	$a0, $s1, .LBB0_7
# %bb.6:                                # %if.end.i39
                                        #   in Loop: Header=BB0_3 Depth=1
	ld.d	$a0, $fp, 16
	ld.d	$a1, $fp, 0
	ld.d	$a2, $fp, 8
	sub.d	$a0, $a0, $a1
	add.d	$a0, $a0, $a2
	movgr2fr.d	$fa0, $a0
	ffint.d.l	$fa0, $fa0
.LBB0_7:                                # %_ZNK9benchmark5State10iterationsEv.exit44
                                        #   in Loop: Header=BB0_3 Depth=1
	fst.d	$fa0, $sp, 16
	#APP
	#NO_APP
	ld.bu	$a0, $fp, 24
	bne	$a0, $s1, .LBB0_13
# %bb.8:                                # %_ZNK9benchmark5State10iterationsEv.exit35.preheader
                                        #   in Loop: Header=BB0_3 Depth=1
	move	$a0, $s3
	.p2align	4, , 16
.LBB0_9:                                # %_ZNK9benchmark5State10iterationsEv.exit35
                                        #   Parent Loop BB0_3 Depth=1
                                        # =>  This Inner Loop Header: Depth=2
	ld.d	$a1, $fp, 16
	ld.d	$a2, $fp, 0
	ld.d	$a3, $fp, 8
	sub.d	$a1, $a1, $a2
	add.d	$a1, $a1, $a3
	addi.d	$a0, $a0, 1
	bge	$a0, $a1, .LBB0_13
# %bb.10:                               # %_ZNK9benchmark5State10iterationsEv.exit26
                                        #   in Loop: Header=BB0_9 Depth=2
	st.d	$a1, $sp, 8
	#APP
	#NO_APP
	ld.bu	$a1, $fp, 24
	fmov.d	$fa0, $fs1
	bne	$a1, $s1, .LBB0_12
# %bb.11:                               # %if.end.i17
                                        #   in Loop: Header=BB0_9 Depth=2
	ld.d	$a1, $fp, 16
	ld.d	$a2, $fp, 0
	ld.d	$a3, $fp, 8
	sub.d	$a1, $a1, $a2
	add.d	$a1, $a1, $a3
	movgr2fr.d	$fa0, $a1
	ffint.d.l	$fa0, $fa0
.LBB0_12:                               # %_ZNK9benchmark5State10iterationsEv.exit
                                        #   in Loop: Header=BB0_9 Depth=2
	fld.d	$fa1, $sp, 16
	fmul.d	$fa0, $fa0, $fa1
	fst.d	$fa0, $sp, 16
	#APP
	#NO_APP
	ld.bu	$a1, $fp, 24
	bnez	$a1, .LBB0_9
	.p2align	4, , 16
.LBB0_13:                               # %for.cond.cleanup8
                                        #   in Loop: Header=BB0_3 Depth=1
	move	$a0, $fp
	fmov.d	$fa0, $fs0
	pcaddu18i	$ra, %call36(_ZN9benchmark5State16SetIterationTimeEd)
	jirl	$ra, $ra, 0
	blez	$s0, .LBB0_18
# %bb.14:                               # %for.cond
                                        #   in Loop: Header=BB0_3 Depth=1
	addi.d	$s0, $s0, -1
	bnez	$s0, .LBB0_3
	b	.LBB0_16
.LBB0_15:                               #   in Loop: Header=BB0_3 Depth=1
	move	$a0, $zero
	b	.LBB0_5
.LBB0_16:                               # %for.cond.cleanup
	move	$a0, $fp
	pcaddu18i	$ra, %call36(_ZN9benchmark5State17FinishKeepRunningEv)
	jirl	$ra, $ra, 0
	ld.d	$a1, $fp, 40
	ld.d	$a0, $fp, 32
	beq	$a1, $a0, .LBB0_19
# %bb.17:                               # %_ZNK9benchmark5State5rangeEm.exit
	ld.d	$a0, $a0, 0
	st.d	$a0, $fp, 56
	fld.d	$fs1, $sp, 24                   # 8-byte Folded Reload
	fld.d	$fs0, $sp, 32                   # 8-byte Folded Reload
	ld.d	$s4, $sp, 40                    # 8-byte Folded Reload
	ld.d	$s3, $sp, 48                    # 8-byte Folded Reload
	ld.d	$s2, $sp, 56                    # 8-byte Folded Reload
	ld.d	$s1, $sp, 64                    # 8-byte Folded Reload
	ld.d	$s0, $sp, 72                    # 8-byte Folded Reload
	ld.d	$fp, $sp, 80                    # 8-byte Folded Reload
	ld.d	$ra, $sp, 88                    # 8-byte Folded Reload
	addi.d	$sp, $sp, 96
	ret
.LBB0_18:                               # %cond.false.i
	pcalau12i	$a0, %pc_hi20(.L.str.41)
	addi.d	$a0, $a0, %pc_lo12(.L.str.41)
	pcalau12i	$a1, %pc_hi20(.L.str.42)
	addi.d	$a1, $a1, %pc_lo12(.L.str.42)
	pcalau12i	$a2, %pc_hi20(.L__PRETTY_FUNCTION__._ZN9benchmark5State13StateIteratorppEv)
	addi.d	$a3, $a2, %pc_lo12(.L__PRETTY_FUNCTION__._ZN9benchmark5State13StateIteratorppEv)
	ori	$a2, $zero, 1134
	pcaddu18i	$ra, %call36(__assert_fail)
	jirl	$ra, $ra, 0
.LBB0_19:                               # %cond.false.i55
	pcalau12i	$a0, %pc_hi20(.L.str.43)
	addi.d	$a0, $a0, %pc_lo12(.L.str.43)
	pcalau12i	$a1, %pc_hi20(.L.str.42)
	addi.d	$a1, $a1, %pc_lo12(.L.str.42)
	pcalau12i	$a2, %pc_hi20(.L__PRETTY_FUNCTION__._ZNK9benchmark5State5rangeEm)
	addi.d	$a3, $a2, %pc_lo12(.L__PRETTY_FUNCTION__._ZNK9benchmark5State5rangeEm)
	ori	$a2, $zero, 990
	pcaddu18i	$ra, %call36(__assert_fail)
	jirl	$ra, $ra, 0
.Lfunc_end0:
	.size	_Z16BM_Complexity_O1RN9benchmark5StateE, .Lfunc_end0-_Z16BM_Complexity_O1RN9benchmark5StateE
	.cfi_endproc
                                        # -- End function
	.p2align	5                               # -- Begin function _ZN12_GLOBAL__N_117AddComplexityTestERKNSt7__cxx1112basic_stringIcSt11char_traitsIcESaIcEEES7_S7_S7_i
	.type	_ZN12_GLOBAL__N_117AddComplexityTestERKNSt7__cxx1112basic_stringIcSt11char_traitsIcESaIcEEES7_S7_S7_i,@function
_ZN12_GLOBAL__N_117AddComplexityTestERKNSt7__cxx1112basic_stringIcSt11char_traitsIcESaIcEEES7_S7_S7_i: # @_ZN12_GLOBAL__N_117AddComplexityTestERKNSt7__cxx1112basic_stringIcSt11char_traitsIcESaIcEEES7_S7_S7_i
.Lfunc_begin0:
	.cfi_startproc
	.cfi_personality 155, DW.ref.__gxx_personality_v0
	.cfi_lsda 27, .Lexception0
# %bb.0:                                # %entry
	addi.d	$sp, $sp, -2032
	.cfi_def_cfa_offset 2032
	st.d	$ra, $sp, 2024                  # 8-byte Folded Spill
	st.d	$fp, $sp, 2016                  # 8-byte Folded Spill
	st.d	$s0, $sp, 2008                  # 8-byte Folded Spill
	st.d	$s1, $sp, 2000                  # 8-byte Folded Spill
	st.d	$s2, $sp, 1992                  # 8-byte Folded Spill
	st.d	$s3, $sp, 1984                  # 8-byte Folded Spill
	st.d	$s4, $sp, 1976                  # 8-byte Folded Spill
	st.d	$s5, $sp, 1968                  # 8-byte Folded Spill
	st.d	$s6, $sp, 1960                  # 8-byte Folded Spill
	st.d	$s7, $sp, 1952                  # 8-byte Folded Spill
	st.d	$s8, $sp, 1944                  # 8-byte Folded Spill
	.cfi_offset 1, -8
	.cfi_offset 22, -16
	.cfi_offset 23, -24
	.cfi_offset 24, -32
	.cfi_offset 25, -40
	.cfi_offset 26, -48
	.cfi_offset 27, -56
	.cfi_offset 28, -64
	.cfi_offset 29, -72
	.cfi_offset 30, -80
	.cfi_offset 31, -88
	addi.d	$sp, $sp, -1440
	.cfi_def_cfa_offset 3472
	move	$s2, $a4
	move	$s1, $a3
	move	$fp, $a2
	move	$s3, $a1
	move	$a2, $a0
	addi.d	$s0, $sp, 1048
.Ltmp0:                                 # EH_LABEL
	pcalau12i	$a0, %pc_hi20(.L.str.44)
	addi.d	$a1, $a0, %pc_lo12(.L.str.44)
	addi.d	$a0, $sp, 1048
	pcaddu18i	$ra, %call36(_ZNSt4pairINSt7__cxx1112basic_stringIcSt11char_traitsIcESaIcEEES5_EC2IRA6_KcRKS5_TnNSt9enable_ifIXaaclsr5_PCCPE22_MoveConstructiblePairIT_T0_EEclsr5_PCCPE30_ImplicitlyMoveConvertiblePairISE_SF_EEEbE4typeELb1EEEOSE_OSF_)
	jirl	$ra, $ra, 0
.Ltmp1:                                 # EH_LABEL
# %bb.1:                                # %invoke.cont
	addi.d	$s0, $sp, 1112
.Ltmp2:                                 # EH_LABEL
	pcalau12i	$a0, %pc_hi20(.L.str.45)
	addi.d	$a1, $a0, %pc_lo12(.L.str.45)
	move	$a0, $s0
	move	$a2, $s3
	pcaddu18i	$ra, %call36(_ZNSt4pairINSt7__cxx1112basic_stringIcSt11char_traitsIcESaIcEEES5_EC2IRA11_KcRKS5_TnNSt9enable_ifIXaaclsr5_PCCPE22_MoveConstructiblePairIT_T0_EEclsr5_PCCPE30_ImplicitlyMoveConvertiblePairISE_SF_EEEbE4typeELb1EEEOSE_OSF_)
	jirl	$ra, $ra, 0
.Ltmp3:                                 # EH_LABEL
# %bb.2:                                # %invoke.cont1
	addi.d	$s0, $sp, 1176
.Ltmp4:                                 # EH_LABEL
	pcalau12i	$a0, %pc_hi20(.L.str.46)
	addi.d	$a1, $a0, %pc_lo12(.L.str.46)
	move	$a0, $s0
	move	$a2, $fp
	pcaddu18i	$ra, %call36(_ZNSt4pairINSt7__cxx1112basic_stringIcSt11char_traitsIcESaIcEEES5_EC2IRA10_KcRKS5_TnNSt9enable_ifIXaaclsr5_PCCPE22_MoveConstructiblePairIT_T0_EEclsr5_PCCPE30_ImplicitlyMoveConvertiblePairISE_SF_EEEbE4typeELb1EEEOSE_OSF_)
	jirl	$ra, $ra, 0
.Ltmp5:                                 # EH_LABEL
# %bb.3:                                # %invoke.cont3
	addi.d	$s0, $sp, 1240
	ld.d	$s3, $s1, 0
	ld.d	$s4, $s1, 8
	ori	$a0, $zero, 3360
	add.d	$s5, $sp, $a0
	ori	$a0, $zero, 3344
	add.d	$a0, $sp, $a0
	st.d	$s5, $a0, 0
	ori	$a0, $zero, 3352
	add.d	$a0, $sp, $a0
	st.d	$zero, $a0, 0
	ori	$a0, $zero, 3360
	add.d	$a0, $sp, $a0
	st.b	$zero, $a0, 0
	addi.d	$a1, $s4, 12
.Ltmp7:                                 # EH_LABEL
	ori	$a0, $zero, 3344
	add.d	$a0, $sp, $a0
	pcaddu18i	$ra, %call36(_ZNSt7__cxx1112basic_stringIcSt11char_traitsIcESaIcEE7reserveEm)
	jirl	$ra, $ra, 0
.Ltmp8:                                 # EH_LABEL
# %bb.4:                                # %invoke.cont.i.i
	ori	$a0, $zero, 3352
	add.d	$a0, $sp, $a0
	ld.d	$a0, $a0, 0
	addi.w	$a1, $zero, -14
	lu52i.d	$a1, $a1, 2047
	bltu	$a1, $a0, .LBB1_264
# %bb.5:                                # %_ZNKSt7__cxx1112basic_stringIcSt11char_traitsIcESaIcEE15_M_check_lengthEmmPKc.exit.i.i.i
.Ltmp9:                                 # EH_LABEL
	pcalau12i	$a0, %pc_hi20(.L.str.48)
	addi.d	$a1, $a0, %pc_lo12(.L.str.48)
	ori	$a0, $zero, 3344
	add.d	$a0, $sp, $a0
	ori	$a2, $zero, 12
	pcaddu18i	$ra, %call36(_ZNSt7__cxx1112basic_stringIcSt11char_traitsIcESaIcEE9_M_appendEPKcm)
	jirl	$ra, $ra, 0
.Ltmp10:                                # EH_LABEL
# %bb.6:                                # %invoke.cont1.i.i
	ori	$a0, $zero, 3352
	add.d	$a0, $sp, $a0
	ld.d	$a0, $a0, 0
	addi.w	$a1, $zero, -2
	lu52i.d	$a1, $a1, 2047
	sub.d	$a0, $a1, $a0
	bltu	$a0, $s4, .LBB1_264
# %bb.7:                                # %_ZNKSt7__cxx1112basic_stringIcSt11char_traitsIcESaIcEE15_M_check_lengthEmmPKc.exit.i9.i.i
.Ltmp11:                                # EH_LABEL
	ori	$a0, $zero, 3344
	add.d	$a0, $sp, $a0
	move	$a1, $s3
	move	$a2, $s4
	pcaddu18i	$ra, %call36(_ZNSt7__cxx1112basic_stringIcSt11char_traitsIcESaIcEE9_M_appendEPKcm)
	jirl	$ra, $ra, 0
.Ltmp12:                                # EH_LABEL
# %bb.8:                                # %invoke.cont7
	pcalau12i	$a0, %pc_hi20(.L.str.47)
	addi.d	$a0, $a0, %pc_lo12(.L.str.47)
	ld.d	$a1, $a0, 0
	ld.b	$a0, $a0, 8
	addi.d	$fp, $sp, 1256
	st.d	$fp, $sp, 1240
	st.d	$a1, $sp, 1256
	st.b	$a0, $sp, 1264
	ori	$a1, $zero, 9
	ori	$a0, $zero, 3344
	add.d	$a0, $sp, $a0
	ld.d	$a0, $a0, 0
	st.d	$a1, $sp, 1248
	st.b	$zero, $sp, 1265
	addi.d	$s3, $sp, 1288
	st.d	$s3, $sp, 1272
	beq	$a0, $s5, .LBB1_10
# %bb.9:                                # %if.else.i.i
	ori	$a1, $zero, 3360
	add.d	$a1, $sp, $a1
	ld.d	$a1, $a1, 0
	ori	$a2, $zero, 3352
	add.d	$a2, $sp, $a2
	ld.d	$s0, $a2, 0
	st.d	$a0, $sp, 1272
	st.d	$a1, $sp, 1288
	b	.LBB1_11
.LBB1_10:                               # %_ZNSt11char_traitsIcE4copyEPcPKcm.exit.i.i
	ori	$a0, $zero, 3352
	add.d	$a0, $sp, $a0
	ld.d	$s0, $a0, 0
	addi.d	$a2, $s0, 1
	move	$a0, $s3
	move	$a1, $s5
	pcaddu18i	$ra, %call36(memcpy)
	jirl	$ra, $ra, 0
.LBB1_11:                               # %invoke.cont9
	st.d	$s0, $sp, 1280
	ori	$a0, $zero, 3344
	add.d	$a0, $sp, $a0
	st.d	$s5, $a0, 0
	ori	$a0, $zero, 3352
	add.d	$a0, $sp, $a0
	st.d	$zero, $a0, 0
	ori	$a0, $zero, 3360
	add.d	$a0, $sp, $a0
	st.b	$zero, $a0, 0
	addi.d	$s0, $sp, 1304
.Ltmp13:                                # EH_LABEL
	pcalau12i	$a0, %pc_hi20(.L.str.49)
	addi.d	$a1, $a0, %pc_lo12(.L.str.49)
	move	$a0, $s0
	move	$a2, $s1
	pcaddu18i	$ra, %call36(_ZNSt4pairINSt7__cxx1112basic_stringIcSt11char_traitsIcESaIcEEES5_EC2IRA6_KcRKS5_TnNSt9enable_ifIXaaclsr5_PCCPE22_MoveConstructiblePairIT_T0_EEclsr5_PCCPE30_ImplicitlyMoveConvertiblePairISE_SF_EEEbE4typeELb1EEEOSE_OSF_)
	jirl	$ra, $ra, 0
.Ltmp14:                                # EH_LABEL
# %bb.12:                               # %invoke.cont11
	addi.d	$s0, $sp, 1368
.Ltmp15:                                # EH_LABEL
	pcalau12i	$a0, %pc_hi20(.L.str.50)
	addi.d	$a1, $a0, %pc_lo12(.L.str.50)
	pcalau12i	$a0, %pc_hi20(.L.str.51)
	addi.d	$a2, $a0, %pc_lo12(.L.str.51)
	move	$a0, $s0
	pcaddu18i	$ra, %call36(_ZNSt4pairINSt7__cxx1112basic_stringIcSt11char_traitsIcESaIcEEES5_EC2IRA5_KcRA13_S8_TnNSt9enable_ifIXaaclsr5_PCCPE22_MoveConstructiblePairIT_T0_EEclsr5_PCCPE30_ImplicitlyMoveConvertiblePairISE_SF_EEEbE4typeELb1EEEOSE_OSF_)
	jirl	$ra, $ra, 0
.Ltmp16:                                # EH_LABEL
# %bb.13:                               # %invoke.cont13
.Ltmp18:                                # EH_LABEL
	addi.d	$a0, $sp, 1048
	ori	$a1, $zero, 6
	pcaddu18i	$ra, %call36(_Z16SetSubstitutionsSt16initializer_listISt4pairINSt7__cxx1112basic_stringIcSt11char_traitsIcESaIcEEES6_EE)
	jirl	$ra, $ra, 0
.Ltmp19:                                # EH_LABEL
# %bb.14:                               # %invoke.cont15
	ld.d	$a0, $sp, 1400
	addi.d	$a1, $sp, 1416
	beq	$a0, $a1, .LBB1_16
# %bb.15:                               # %if.then.i.i.i88
	ld.d	$a1, $sp, 1416
	addi.d	$a1, $a1, 1
	pcaddu18i	$ra, %call36(_ZdlPvm)
	jirl	$ra, $ra, 0
.LBB1_16:                               # %_ZNSt7__cxx1112basic_stringIcSt11char_traitsIcESaIcEED2Ev.exit.i
	ld.d	$a0, $sp, 1368
	addi.d	$a1, $sp, 1384
	beq	$a0, $a1, .LBB1_18
# %bb.17:                               # %if.then.i.i2.i
	ld.d	$a1, $sp, 1384
	addi.d	$a1, $a1, 1
	pcaddu18i	$ra, %call36(_ZdlPvm)
	jirl	$ra, $ra, 0
.LBB1_18:                               # %_ZNSt4pairINSt7__cxx1112basic_stringIcSt11char_traitsIcESaIcEEES5_ED2Ev.exit
	ld.d	$a0, $sp, 1336
	addi.d	$a1, $sp, 1352
	beq	$a0, $a1, .LBB1_20
# %bb.19:                               # %if.then.i.i.i88.1
	ld.d	$a1, $sp, 1352
	addi.d	$a1, $a1, 1
	pcaddu18i	$ra, %call36(_ZdlPvm)
	jirl	$ra, $ra, 0
.LBB1_20:                               # %_ZNSt7__cxx1112basic_stringIcSt11char_traitsIcESaIcEED2Ev.exit.i.1
	ld.d	$a0, $sp, 1304
	addi.d	$a1, $sp, 1320
	beq	$a0, $a1, .LBB1_22
# %bb.21:                               # %if.then.i.i2.i.1
	ld.d	$a1, $sp, 1320
	addi.d	$a1, $a1, 1
	pcaddu18i	$ra, %call36(_ZdlPvm)
	jirl	$ra, $ra, 0
.LBB1_22:                               # %_ZNSt4pairINSt7__cxx1112basic_stringIcSt11char_traitsIcESaIcEEES5_ED2Ev.exit.1
	ld.d	$a0, $sp, 1272
	beq	$a0, $s3, .LBB1_24
# %bb.23:                               # %if.then.i.i.i88.2
	ld.d	$a1, $sp, 1288
	addi.d	$a1, $a1, 1
	pcaddu18i	$ra, %call36(_ZdlPvm)
	jirl	$ra, $ra, 0
.LBB1_24:                               # %_ZNSt7__cxx1112basic_stringIcSt11char_traitsIcESaIcEED2Ev.exit.i.2
	ld.d	$a0, $sp, 1240
	beq	$a0, $fp, .LBB1_26
# %bb.25:                               # %if.then.i.i2.i.2
	ld.d	$a1, $sp, 1256
	addi.d	$a1, $a1, 1
	pcaddu18i	$ra, %call36(_ZdlPvm)
	jirl	$ra, $ra, 0
.LBB1_26:                               # %_ZNSt4pairINSt7__cxx1112basic_stringIcSt11char_traitsIcESaIcEEES5_ED2Ev.exit.2
	ld.d	$a0, $sp, 1208
	addi.d	$s0, $sp, 1224
	beq	$a0, $s0, .LBB1_28
# %bb.27:                               # %if.then.i.i.i88.3
	ld.d	$a1, $sp, 1224
	addi.d	$a1, $a1, 1
	pcaddu18i	$ra, %call36(_ZdlPvm)
	jirl	$ra, $ra, 0
.LBB1_28:                               # %_ZNSt7__cxx1112basic_stringIcSt11char_traitsIcESaIcEED2Ev.exit.i.3
	ld.d	$a0, $sp, 1176
	addi.d	$s6, $sp, 1192
	beq	$a0, $s6, .LBB1_30
# %bb.29:                               # %if.then.i.i2.i.3
	ld.d	$a1, $sp, 1192
	addi.d	$a1, $a1, 1
	pcaddu18i	$ra, %call36(_ZdlPvm)
	jirl	$ra, $ra, 0
.LBB1_30:                               # %_ZNSt4pairINSt7__cxx1112basic_stringIcSt11char_traitsIcESaIcEEES5_ED2Ev.exit.3
	ld.d	$a0, $sp, 1144
	addi.d	$a1, $sp, 1160
	beq	$a0, $a1, .LBB1_32
# %bb.31:                               # %if.then.i.i.i88.4
	ld.d	$a1, $sp, 1160
	addi.d	$a1, $a1, 1
	pcaddu18i	$ra, %call36(_ZdlPvm)
	jirl	$ra, $ra, 0
.LBB1_32:                               # %_ZNSt7__cxx1112basic_stringIcSt11char_traitsIcESaIcEED2Ev.exit.i.4
	ld.d	$a0, $sp, 1112
	addi.d	$a1, $sp, 1128
	beq	$a0, $a1, .LBB1_34
# %bb.33:                               # %if.then.i.i2.i.4
	ld.d	$a1, $sp, 1128
	addi.d	$a1, $a1, 1
	pcaddu18i	$ra, %call36(_ZdlPvm)
	jirl	$ra, $ra, 0
.LBB1_34:                               # %_ZNSt4pairINSt7__cxx1112basic_stringIcSt11char_traitsIcESaIcEEES5_ED2Ev.exit.4
	ld.d	$a0, $sp, 1080
	addi.d	$a1, $sp, 1096
	beq	$a0, $a1, .LBB1_36
# %bb.35:                               # %if.then.i.i.i88.5
	ld.d	$a1, $sp, 1096
	addi.d	$a1, $a1, 1
	pcaddu18i	$ra, %call36(_ZdlPvm)
	jirl	$ra, $ra, 0
.LBB1_36:                               # %_ZNSt7__cxx1112basic_stringIcSt11char_traitsIcESaIcEED2Ev.exit.i.5
	ld.d	$a0, $sp, 1048
	addi.d	$s4, $sp, 1064
	beq	$a0, $s4, .LBB1_38
# %bb.37:                               # %if.then.i.i2.i.5
	ld.d	$a1, $sp, 1064
	addi.d	$a1, $a1, 1
	pcaddu18i	$ra, %call36(_ZdlPvm)
	jirl	$ra, $ra, 0
.LBB1_38:                               # %_ZNSt4pairINSt7__cxx1112basic_stringIcSt11char_traitsIcESaIcEEES5_ED2Ev.exit.5
	ori	$a0, $zero, 3344
	add.d	$a0, $sp, $a0
	ld.d	$a0, $a0, 0
	beq	$a0, $s5, .LBB1_40
# %bb.39:                               # %if.then.i.i
	ori	$a1, $zero, 3360
	add.d	$a1, $sp, $a1
	ld.d	$a1, $a1, 0
	addi.d	$a1, $a1, 1
	pcaddu18i	$ra, %call36(_ZdlPvm)
	jirl	$ra, $ra, 0
.LBB1_40:                               # %_ZNSt7__cxx1112basic_stringIcSt11char_traitsIcESaIcEED2Ev.exit
	ori	$a0, $zero, 3328
	add.d	$fp, $sp, $a0
	ori	$a0, $zero, 3312
	add.d	$a0, $sp, $a0
	st.d	$fp, $a0, 0
	ori	$a0, $zero, 36
	ori	$a1, $zero, 3344
	add.d	$a1, $sp, $a1
	st.d	$a0, $a1, 0
.Ltmp21:                                # EH_LABEL
	ori	$a0, $zero, 3312
	add.d	$a0, $sp, $a0
	ori	$a1, $zero, 3344
	add.d	$a1, $sp, $a1
	move	$a2, $zero
	pcaddu18i	$ra, %call36(_ZNSt7__cxx1112basic_stringIcSt11char_traitsIcESaIcEE9_M_createERmm)
	jirl	$ra, $ra, 0
.Ltmp22:                                # EH_LABEL
# %bb.41:                               # %call2.i5.i.noexc
	ori	$a1, $zero, 3344
	add.d	$a1, $sp, $a1
	ld.d	$a1, $a1, 0
	pcalau12i	$a2, %pc_hi20(.L.str.52)
	addi.d	$a2, $a2, %pc_lo12(.L.str.52)
	xvld	$xr0, $a2, 0
	ld.w	$a2, $a2, 32
	ori	$a3, $zero, 3312
	add.d	$a3, $sp, $a3
	st.d	$a0, $a3, 0
	ori	$a3, $zero, 3328
	add.d	$a3, $sp, $a3
	st.d	$a1, $a3, 0
	xvst	$xr0, $a0, 0
	st.w	$a2, $a0, 32
	ori	$a2, $zero, 3320
	add.d	$a2, $sp, $a2
	st.d	$a1, $a2, 0
	stx.b	$zero, $a0, $a1
.Ltmp24:                                # EH_LABEL
	addi.d	$a0, $sp, 1048
	ori	$a1, $zero, 3312
	add.d	$a1, $sp, $a1
	addi.d	$s1, $sp, 1048
	move	$a2, $zero
	pcaddu18i	$ra, %call36(_ZN8TestCaseC1ENSt7__cxx1112basic_stringIcSt11char_traitsIcESaIcEEEi)
	jirl	$ra, $ra, 0
.Ltmp25:                                # EH_LABEL
# %bb.42:                               # %invoke.cont39
	addi.d	$s1, $sp, 1136
	pcalau12i	$a0, %pc_hi20(.L.str.53)
	addi.d	$a0, $a0, %pc_lo12(.L.str.53)
	ld.d	$a1, $a0, 0
	ld.w	$a0, $a0, 7
	ori	$a2, $zero, 3296
	add.d	$s3, $sp, $a2
	ori	$a2, $zero, 3280
	add.d	$a2, $sp, $a2
	st.d	$s3, $a2, 0
	ori	$a2, $zero, 3296
	add.d	$a2, $sp, $a2
	st.d	$a1, $a2, 0
	ori	$a1, $zero, 3303
	add.d	$a1, $sp, $a1
	st.w	$a0, $a1, 0
	ori	$a0, $zero, 11
	ori	$a1, $zero, 3288
	add.d	$a1, $sp, $a1
	st.d	$a0, $a1, 0
	ori	$a0, $zero, 3307
	add.d	$a0, $sp, $a0
	st.b	$zero, $a0, 0
.Ltmp27:                                # EH_LABEL
	ori	$a0, $zero, 3280
	add.d	$a1, $sp, $a0
	ori	$a2, $zero, 2
	move	$a0, $s1
	pcaddu18i	$ra, %call36(_ZN8TestCaseC1ENSt7__cxx1112basic_stringIcSt11char_traitsIcESaIcEEEi)
	jirl	$ra, $ra, 0
.Ltmp28:                                # EH_LABEL
# %bb.43:                               # %invoke.cont46
	ori	$a0, $zero, 3264
	add.d	$s1, $sp, $a0
	ori	$a0, $zero, 3248
	add.d	$a0, $sp, $a0
	st.d	$s1, $a0, 0
	ori	$a0, $zero, 25
	ori	$a1, $zero, 3344
	add.d	$a1, $sp, $a1
	st.d	$a0, $a1, 0
.Ltmp30:                                # EH_LABEL
	ori	$a0, $zero, 3248
	add.d	$a0, $sp, $a0
	ori	$a1, $zero, 3344
	add.d	$a1, $sp, $a1
	move	$a2, $zero
	pcaddu18i	$ra, %call36(_ZNSt7__cxx1112basic_stringIcSt11char_traitsIcESaIcEE9_M_createERmm)
	jirl	$ra, $ra, 0
.Ltmp31:                                # EH_LABEL
# %bb.44:                               # %call2.i5.i.noexc119
	ori	$a1, $zero, 3248
	add.d	$a1, $sp, $a1
	st.d	$a0, $a1, 0
	ori	$a1, $zero, 3344
	add.d	$a1, $sp, $a1
	ld.d	$a1, $a1, 0
	pcalau12i	$a2, %pc_hi20(.L.str.54)
	addi.d	$a2, $a2, %pc_lo12(.L.str.54)
	vld	$vr0, $a2, 0
	ld.b	$a3, $a2, 24
	ld.d	$a2, $a2, 16
	ori	$a4, $zero, 3264
	add.d	$a4, $sp, $a4
	st.d	$a1, $a4, 0
	vst	$vr0, $a0, 0
	st.b	$a3, $a0, 24
	st.d	$a2, $a0, 16
	ori	$a0, $zero, 3248
	add.d	$a0, $sp, $a0
	ld.d	$a0, $a0, 0
	ori	$a2, $zero, 3256
	add.d	$a2, $sp, $a2
	st.d	$a1, $a2, 0
	stx.b	$zero, $a0, $a1
.Ltmp33:                                # EH_LABEL
	ori	$a0, $zero, 3248
	add.d	$a1, $sp, $a0
	ori	$a2, $zero, 1
	move	$a0, $s0
	pcaddu18i	$ra, %call36(_ZN8TestCaseC1ENSt7__cxx1112basic_stringIcSt11char_traitsIcESaIcEEEi)
	jirl	$ra, $ra, 0
.Ltmp34:                                # EH_LABEL
# %bb.45:                               # %invoke.cont53
.Ltmp36:                                # EH_LABEL
	addi.d	$a1, $sp, 1048
	ori	$a2, $zero, 3
	move	$a0, $zero
	pcaddu18i	$ra, %call36(_Z8AddCases10TestCaseIDSt16initializer_listI8TestCaseE)
	jirl	$ra, $ra, 0
.Ltmp37:                                # EH_LABEL
# %bb.46:                               # %invoke.cont58
	ld.d	$s0, $sp, 1304
	beqz	$s0, .LBB1_51
# %bb.47:                               # %if.then.i.i.i122
	ld.d	$a0, $s0, 8
	ori	$a1, $zero, 1
	lu32i.d	$a1, 1
	dbar	20
	bne	$a0, $a1, .LBB1_49
# %bb.48:                               # %if.then.i.i.i.i133
	ld.d	$a0, $s0, 0
	st.d	$zero, $s0, 8
	ld.d	$a1, $a0, 16
	move	$a0, $s0
	jirl	$ra, $a1, 0
	ld.d	$a0, $s0, 0
	ld.d	$a1, $a0, 24
	move	$a0, $s0
	jirl	$ra, $a1, 0
	ld.d	$a0, $sp, 1264
	addi.d	$a1, $sp, 1280
	bne	$a0, $a1, .LBB1_52
	b	.LBB1_53
.LBB1_49:                               # %if.end.i.i.i.i
	pcalau12i	$a1, %got_pc_hi20(__libc_single_threaded)
	ld.d	$a1, $a1, %got_pc_lo12(__libc_single_threaded)
	ld.bu	$a1, $a1, 0
	beqz	$a1, .LBB1_252
# %bb.50:                               # %if.then.i.i.i.i.i124
	addi.d	$a1, $a0, -1
	st.w	$a1, $s0, 8
	addi.w	$a0, $a0, 0
	ori	$a1, $zero, 1
	beq	$a0, $a1, .LBB1_253
.LBB1_51:                               # %_ZNSt12__shared_ptrIN9benchmark5RegexELN9__gnu_cxx12_Lock_policyE2EED2Ev.exit.i
	ld.d	$a0, $sp, 1264
	addi.d	$a1, $sp, 1280
	beq	$a0, $a1, .LBB1_53
.LBB1_52:                               # %if.then.i.i2.i127
	ld.d	$a1, $sp, 1280
	addi.d	$a1, $a1, 1
	pcaddu18i	$ra, %call36(_ZdlPvm)
	jirl	$ra, $ra, 0
.LBB1_53:                               # %_ZNSt7__cxx1112basic_stringIcSt11char_traitsIcESaIcEED2Ev.exit.i129
	ld.d	$a0, $sp, 1224
	addi.d	$a1, $sp, 1240
	beq	$a0, $a1, .LBB1_55
# %bb.54:                               # %if.then.i.i4.i
	ld.d	$a1, $sp, 1240
	addi.d	$a1, $a1, 1
	pcaddu18i	$ra, %call36(_ZdlPvm)
	jirl	$ra, $ra, 0
.LBB1_55:                               # %_ZN8TestCaseD2Ev.exit
	ld.d	$s0, $sp, 1216
	beqz	$s0, .LBB1_60
# %bb.56:                               # %if.then.i.i.i122.1
	ld.d	$a0, $s0, 8
	ori	$a1, $zero, 1
	lu32i.d	$a1, 1
	dbar	20
	bne	$a0, $a1, .LBB1_58
# %bb.57:                               # %if.then.i.i.i.i133.1
	ld.d	$a0, $s0, 0
	st.d	$zero, $s0, 8
	ld.d	$a1, $a0, 16
	move	$a0, $s0
	jirl	$ra, $a1, 0
	ld.d	$a0, $s0, 0
	ld.d	$a1, $a0, 24
	move	$a0, $s0
	jirl	$ra, $a1, 0
	ld.d	$a0, $sp, 1176
	bne	$a0, $s6, .LBB1_61
	b	.LBB1_62
.LBB1_58:                               # %if.end.i.i.i.i.1
	pcalau12i	$a1, %got_pc_hi20(__libc_single_threaded)
	ld.d	$a1, $a1, %got_pc_lo12(__libc_single_threaded)
	ld.bu	$a1, $a1, 0
	beqz	$a1, .LBB1_254
# %bb.59:                               # %if.then.i.i.i.i.i124.1
	addi.d	$a1, $a0, -1
	st.w	$a1, $s0, 8
	addi.w	$a0, $a0, 0
	ori	$a1, $zero, 1
	beq	$a0, $a1, .LBB1_255
.LBB1_60:                               # %_ZNSt12__shared_ptrIN9benchmark5RegexELN9__gnu_cxx12_Lock_policyE2EED2Ev.exit.i.1
	ld.d	$a0, $sp, 1176
	beq	$a0, $s6, .LBB1_62
.LBB1_61:                               # %if.then.i.i2.i127.1
	ld.d	$a1, $sp, 1192
	addi.d	$a1, $a1, 1
	pcaddu18i	$ra, %call36(_ZdlPvm)
	jirl	$ra, $ra, 0
.LBB1_62:                               # %_ZNSt7__cxx1112basic_stringIcSt11char_traitsIcESaIcEED2Ev.exit.i129.1
	ld.d	$a0, $sp, 1136
	addi.d	$a1, $sp, 1152
	beq	$a0, $a1, .LBB1_64
# %bb.63:                               # %if.then.i.i4.i.1
	ld.d	$a1, $sp, 1152
	addi.d	$a1, $a1, 1
	pcaddu18i	$ra, %call36(_ZdlPvm)
	jirl	$ra, $ra, 0
.LBB1_64:                               # %_ZN8TestCaseD2Ev.exit.1
	ld.d	$s0, $sp, 1128
	beqz	$s0, .LBB1_69
# %bb.65:                               # %if.then.i.i.i122.2
	ld.d	$a0, $s0, 8
	ori	$a1, $zero, 1
	lu32i.d	$a1, 1
	dbar	20
	bne	$a0, $a1, .LBB1_67
# %bb.66:                               # %if.then.i.i.i.i133.2
	ld.d	$a0, $s0, 0
	st.d	$zero, $s0, 8
	ld.d	$a1, $a0, 16
	move	$a0, $s0
	jirl	$ra, $a1, 0
	ld.d	$a0, $s0, 0
	ld.d	$a1, $a0, 24
	move	$a0, $s0
	jirl	$ra, $a1, 0
	ld.d	$a0, $sp, 1088
	addi.d	$a1, $sp, 1104
	bne	$a0, $a1, .LBB1_70
	b	.LBB1_71
.LBB1_67:                               # %if.end.i.i.i.i.2
	pcalau12i	$a1, %got_pc_hi20(__libc_single_threaded)
	ld.d	$a1, $a1, %got_pc_lo12(__libc_single_threaded)
	ld.bu	$a1, $a1, 0
	beqz	$a1, .LBB1_256
# %bb.68:                               # %if.then.i.i.i.i.i124.2
	addi.d	$a1, $a0, -1
	st.w	$a1, $s0, 8
	addi.w	$a0, $a0, 0
	ori	$a1, $zero, 1
	beq	$a0, $a1, .LBB1_257
.LBB1_69:                               # %_ZNSt12__shared_ptrIN9benchmark5RegexELN9__gnu_cxx12_Lock_policyE2EED2Ev.exit.i.2
	ld.d	$a0, $sp, 1088
	addi.d	$a1, $sp, 1104
	beq	$a0, $a1, .LBB1_71
.LBB1_70:                               # %if.then.i.i2.i127.2
	ld.d	$a1, $sp, 1104
	addi.d	$a1, $a1, 1
	pcaddu18i	$ra, %call36(_ZdlPvm)
	jirl	$ra, $ra, 0
.LBB1_71:                               # %_ZNSt7__cxx1112basic_stringIcSt11char_traitsIcESaIcEED2Ev.exit.i129.2
	ld.d	$a0, $sp, 1048
	beq	$a0, $s4, .LBB1_73
# %bb.72:                               # %if.then.i.i4.i.2
	ld.d	$a1, $sp, 1064
	addi.d	$a1, $a1, 1
	pcaddu18i	$ra, %call36(_ZdlPvm)
	jirl	$ra, $ra, 0
.LBB1_73:                               # %_ZN8TestCaseD2Ev.exit.2
	ori	$a0, $zero, 3248
	add.d	$a0, $sp, $a0
	ld.d	$a0, $a0, 0
	beq	$a0, $s1, .LBB1_75
# %bb.74:                               # %if.then.i.i135
	ori	$a1, $zero, 3264
	add.d	$a1, $sp, $a1
	ld.d	$a1, $a1, 0
	addi.d	$a1, $a1, 1
	pcaddu18i	$ra, %call36(_ZdlPvm)
	jirl	$ra, $ra, 0
.LBB1_75:                               # %_ZNSt7__cxx1112basic_stringIcSt11char_traitsIcESaIcEED2Ev.exit141
	ori	$a0, $zero, 3280
	add.d	$a0, $sp, $a0
	ld.d	$a0, $a0, 0
	beq	$a0, $s3, .LBB1_77
# %bb.76:                               # %if.then.i.i143
	ori	$a1, $zero, 3296
	add.d	$a1, $sp, $a1
	ld.d	$a1, $a1, 0
	addi.d	$a1, $a1, 1
	pcaddu18i	$ra, %call36(_ZdlPvm)
	jirl	$ra, $ra, 0
.LBB1_77:                               # %_ZNSt7__cxx1112basic_stringIcSt11char_traitsIcESaIcEED2Ev.exit149
	ori	$a0, $zero, 3312
	add.d	$a0, $sp, $a0
	ld.d	$a0, $a0, 0
	beq	$a0, $fp, .LBB1_79
# %bb.78:                               # %if.then.i.i151
	ori	$a1, $zero, 3328
	add.d	$a1, $sp, $a1
	ld.d	$a1, $a1, 0
	addi.d	$a1, $a1, 1
	pcaddu18i	$ra, %call36(_ZdlPvm)
	jirl	$ra, $ra, 0
.LBB1_79:                               # %_ZNSt7__cxx1112basic_stringIcSt11char_traitsIcESaIcEED2Ev.exit157
	addi.d	$a0, $sp, 1032
	st.d	$a0, $sp, 1016
	ori	$a0, $zero, 22
	ori	$a1, $zero, 3344
	add.d	$a1, $sp, $a1
	st.d	$a0, $a1, 0
.Ltmp39:                                # EH_LABEL
	addi.d	$a0, $sp, 1016
	ori	$a1, $zero, 3344
	add.d	$a1, $sp, $a1
	move	$a2, $zero
	pcaddu18i	$ra, %call36(_ZNSt7__cxx1112basic_stringIcSt11char_traitsIcESaIcEE9_M_createERmm)
	jirl	$ra, $ra, 0
.Ltmp40:                                # EH_LABEL
# %bb.80:                               # %call2.i5.i.noexc167
	ori	$a1, $zero, 3344
	add.d	$a1, $sp, $a1
	ld.d	$a1, $a1, 0
	pcalau12i	$a2, %pc_hi20(.L.str.55)
	addi.d	$a2, $a2, %pc_lo12(.L.str.55)
	vld	$vr0, $a2, 0
	ld.d	$a2, $a2, 14
	st.d	$a0, $sp, 1016
	st.d	$a1, $sp, 1032
	vst	$vr0, $a0, 0
	st.d	$a2, $a0, 14
	ld.d	$a0, $sp, 1016
	st.d	$a1, $sp, 1024
	stx.b	$zero, $a0, $a1
.Ltmp42:                                # EH_LABEL
	addi.d	$a0, $sp, 1048
	addi.d	$a1, $sp, 1016
	addi.d	$s1, $sp, 1048
	move	$a2, $zero
	pcaddu18i	$ra, %call36(_ZN8TestCaseC1ENSt7__cxx1112basic_stringIcSt11char_traitsIcESaIcEEEi)
	jirl	$ra, $ra, 0
.Ltmp43:                                # EH_LABEL
# %bb.81:                               # %invoke.cont101
	addi.d	$s1, $sp, 1136
	addi.d	$a0, $sp, 952
	move	$a1, $s2
	pcaddu18i	$ra, %call36(_ZNSt7__cxx119to_stringEi)
	jirl	$ra, $ra, 0
.Ltmp45:                                # EH_LABEL
	pcalau12i	$a0, %pc_hi20(.L.str.56)
	addi.d	$a3, $a0, %pc_lo12(.L.str.56)
	addi.d	$a0, $sp, 952
	ori	$a4, $zero, 16
	move	$a1, $zero
	move	$a2, $zero
	pcaddu18i	$ra, %call36(_ZNSt7__cxx1112basic_stringIcSt11char_traitsIcESaIcEE10_M_replaceEmmPKcm)
	jirl	$ra, $ra, 0
.Ltmp46:                                # EH_LABEL
# %bb.82:                               # %call3.i.i.i.noexc
	ori	$a1, $zero, 3344
	add.d	$a1, $sp, $a1
	st.d	$s5, $a1, 0
	ld.d	$a1, $a0, 0
	addi.d	$s0, $a0, 16
	beq	$a1, $s0, .LBB1_84
# %bb.83:                               # %if.else.i.i174
	ld.d	$a2, $a0, 16
	ori	$a3, $zero, 3360
	add.d	$a3, $sp, $a3
	st.d	$a2, $a3, 0
	ld.d	$fp, $a0, 8
	ori	$a2, $zero, 3344
	add.d	$a2, $sp, $a2
	st.d	$a1, $a2, 0
	b	.LBB1_85
.LBB1_84:                               # %_ZNSt11char_traitsIcE4copyEPcPKcm.exit.i.i178
	ld.d	$fp, $a0, 8
	addi.d	$a2, $fp, 1
	move	$s3, $a0
	move	$a0, $s5
	move	$a1, $s0
	pcaddu18i	$ra, %call36(memcpy)
	jirl	$ra, $ra, 0
	move	$a0, $s3
.LBB1_85:                               # %invoke.cont107
	ori	$a1, $zero, 3352
	add.d	$a1, $sp, $a1
	st.d	$fp, $a1, 0
	st.d	$s0, $a0, 0
	st.d	$zero, $a0, 8
	ori	$a1, $zero, 3352
	add.d	$a1, $sp, $a1
	ld.d	$a1, $a1, 0
	addi.w	$a2, $zero, -3
	lu52i.d	$s6, $a2, 2047
	st.b	$zero, $a0, 16
	bgeu	$a1, $s6, .LBB1_266
# %bb.86:                               # %_ZNSt7__cxx1112basic_stringIcSt11char_traitsIcESaIcEE6appendEPKc.exit.i
.Ltmp48:                                # EH_LABEL
	pcalau12i	$a0, %pc_hi20(.L.str.57)
	addi.d	$a1, $a0, %pc_lo12(.L.str.57)
	ori	$a0, $zero, 3344
	add.d	$a0, $sp, $a0
	ori	$a2, $zero, 2
	pcaddu18i	$ra, %call36(_ZNSt7__cxx1112basic_stringIcSt11char_traitsIcESaIcEE9_M_appendEPKcm)
	jirl	$ra, $ra, 0
.Ltmp49:                                # EH_LABEL
# %bb.87:                               # %call2.i.i.noexc
	addi.d	$a3, $sp, 1000
	st.d	$a3, $sp, 984
	ld.d	$a1, $a0, 0
	addi.d	$s3, $a0, 16
	beq	$a1, $s3, .LBB1_89
# %bb.88:                               # %if.else.i.i187
	ld.d	$a2, $a0, 16
	st.d	$a2, $sp, 1000
	ld.d	$fp, $a0, 8
	st.d	$a1, $sp, 984
	b	.LBB1_90
.LBB1_89:                               # %_ZNSt11char_traitsIcE4copyEPcPKcm.exit.i.i193
	ld.d	$fp, $a0, 8
	addi.d	$a2, $fp, 1
	move	$s0, $a0
	move	$a0, $a3
	move	$a1, $s3
	pcaddu18i	$ra, %call36(memcpy)
	jirl	$ra, $ra, 0
	move	$a0, $s0
.LBB1_90:                               # %invoke.cont109
	st.d	$fp, $sp, 992
	st.d	$s3, $a0, 0
	st.d	$zero, $a0, 8
	st.b	$zero, $a0, 16
.Ltmp50:                                # EH_LABEL
	addi.d	$a1, $sp, 984
	ori	$a2, $zero, 1
	move	$a0, $s1
	pcaddu18i	$ra, %call36(_ZN8TestCaseC1ENSt7__cxx1112basic_stringIcSt11char_traitsIcESaIcEEEi)
	jirl	$ra, $ra, 0
.Ltmp51:                                # EH_LABEL
# %bb.91:                               # %invoke.cont111
	addi.d	$s1, $sp, 1224
	addi.d	$a0, $sp, 936
	st.d	$a0, $sp, 920
	ori	$a0, $zero, 32
	st.d	$a0, $sp, 472
.Ltmp53:                                # EH_LABEL
	addi.d	$a0, $sp, 920
	addi.d	$a1, $sp, 472
	move	$a2, $zero
	pcaddu18i	$ra, %call36(_ZNSt7__cxx1112basic_stringIcSt11char_traitsIcESaIcEE9_M_createERmm)
	jirl	$ra, $ra, 0
.Ltmp54:                                # EH_LABEL
# %bb.92:                               # %call2.i5.i.noexc208
	ld.d	$a1, $sp, 472
	pcalau12i	$s3, %pc_hi20(.L.str.58)
	xvld	$xr0, $s3, %pc_lo12(.L.str.58)
	st.d	$a0, $sp, 920
	st.d	$a1, $sp, 936
	xvst	$xr0, $a0, 0
	ld.d	$a0, $sp, 920
	st.d	$a1, $sp, 928
	stx.b	$zero, $a0, $a1
.Ltmp56:                                # EH_LABEL
	addi.d	$a1, $sp, 920
	ori	$a2, $zero, 1
	move	$a0, $s1
	pcaddu18i	$ra, %call36(_ZN8TestCaseC1ENSt7__cxx1112basic_stringIcSt11char_traitsIcESaIcEEEi)
	jirl	$ra, $ra, 0
.Ltmp57:                                # EH_LABEL
# %bb.93:                               # %invoke.cont118
	addi.d	$s1, $sp, 1312
	addi.d	$a0, $sp, 904
	st.d	$a0, $sp, 888
	ori	$a0, $zero, 21
	st.d	$a0, $sp, 472
.Ltmp59:                                # EH_LABEL
	addi.d	$a0, $sp, 888
	addi.d	$a1, $sp, 472
	move	$a2, $zero
	pcaddu18i	$ra, %call36(_ZNSt7__cxx1112basic_stringIcSt11char_traitsIcESaIcEE9_M_createERmm)
	jirl	$ra, $ra, 0
.Ltmp60:                                # EH_LABEL
# %bb.94:                               # %call2.i5.i.noexc220
	ld.d	$a1, $sp, 472
	pcalau12i	$a2, %pc_hi20(.L.str.59)
	addi.d	$a2, $a2, %pc_lo12(.L.str.59)
	vld	$vr0, $a2, 0
	st.d	$a2, $sp, 40                    # 8-byte Folded Spill
	ld.d	$a2, $a2, 13
	st.d	$a0, $sp, 888
	st.d	$a1, $sp, 904
	vst	$vr0, $a0, 0
	st.d	$a2, $sp, 48                    # 8-byte Folded Spill
	st.d	$a2, $a0, 13
	ld.d	$a0, $sp, 888
	st.d	$a1, $sp, 896
	stx.b	$zero, $a0, $a1
.Ltmp62:                                # EH_LABEL
	addi.d	$a1, $sp, 888
	ori	$a2, $zero, 1
	move	$a0, $s1
	pcaddu18i	$ra, %call36(_ZN8TestCaseC1ENSt7__cxx1112basic_stringIcSt11char_traitsIcESaIcEEEi)
	jirl	$ra, $ra, 0
.Ltmp63:                                # EH_LABEL
# %bb.95:                               # %invoke.cont125
	addi.d	$s1, $sp, 1400
	addi.d	$a0, $sp, 872
	st.d	$a0, $sp, 856
	ori	$a0, $zero, 25
	st.d	$a0, $sp, 472
.Ltmp65:                                # EH_LABEL
	addi.d	$a0, $sp, 856
	addi.d	$a1, $sp, 472
	move	$a2, $zero
	pcaddu18i	$ra, %call36(_ZNSt7__cxx1112basic_stringIcSt11char_traitsIcESaIcEE9_M_createERmm)
	jirl	$ra, $ra, 0
.Ltmp66:                                # EH_LABEL
# %bb.96:                               # %call2.i5.i.noexc232
	st.d	$a0, $sp, 856
	ld.d	$a1, $sp, 472
	pcalau12i	$a2, %pc_hi20(.L.str.60)
	addi.d	$fp, $a2, %pc_lo12(.L.str.60)
	vld	$vr0, $fp, 0
	ld.b	$a2, $fp, 24
	ld.d	$a3, $fp, 16
	st.d	$a1, $sp, 872
	vst	$vr0, $a0, 0
	st.d	$a2, $sp, 32                    # 8-byte Folded Spill
	st.b	$a2, $a0, 24
	st.d	$a3, $sp, 24                    # 8-byte Folded Spill
	st.d	$a3, $a0, 16
	ld.d	$a0, $sp, 856
	st.d	$a1, $sp, 864
	stx.b	$zero, $a0, $a1
.Ltmp68:                                # EH_LABEL
	addi.d	$a1, $sp, 856
	ori	$a2, $zero, 1
	move	$a0, $s1
	pcaddu18i	$ra, %call36(_ZN8TestCaseC1ENSt7__cxx1112basic_stringIcSt11char_traitsIcESaIcEEEi)
	jirl	$ra, $ra, 0
.Ltmp69:                                # EH_LABEL
# %bb.97:                               # %invoke.cont132
	addi.d	$s1, $sp, 1488
	addi.d	$a0, $sp, 840
	st.d	$a0, $sp, 824
	ori	$a0, $zero, 21
	st.d	$a0, $sp, 472
.Ltmp71:                                # EH_LABEL
	addi.d	$a0, $sp, 824
	addi.d	$a1, $sp, 472
	move	$a2, $zero
	pcaddu18i	$ra, %call36(_ZNSt7__cxx1112basic_stringIcSt11char_traitsIcESaIcEE9_M_createERmm)
	jirl	$ra, $ra, 0
.Ltmp72:                                # EH_LABEL
# %bb.98:                               # %call2.i5.i.noexc244
	ld.d	$a1, $sp, 472
	pcalau12i	$a2, %pc_hi20(.L.str.61)
	addi.d	$s5, $a2, %pc_lo12(.L.str.61)
	vld	$vr0, $s5, 0
	ld.d	$s4, $s5, 13
	st.d	$a0, $sp, 824
	st.d	$a1, $sp, 840
	vst	$vr0, $a0, 0
	st.d	$s4, $a0, 13
	ld.d	$a0, $sp, 824
	st.d	$a1, $sp, 832
	stx.b	$zero, $a0, $a1
.Ltmp74:                                # EH_LABEL
	addi.d	$a1, $sp, 824
	ori	$a2, $zero, 1
	move	$a0, $s1
	pcaddu18i	$ra, %call36(_ZN8TestCaseC1ENSt7__cxx1112basic_stringIcSt11char_traitsIcESaIcEEEi)
	jirl	$ra, $ra, 0
.Ltmp75:                                # EH_LABEL
# %bb.99:                               # %invoke.cont139
	addi.d	$s1, $sp, 1576
	pcalau12i	$a0, %pc_hi20(.L.str.62)
	addi.d	$a0, $a0, %pc_lo12(.L.str.62)
	ld.d	$s7, $a0, 0
	ld.d	$s8, $a0, 6
	addi.d	$a0, $sp, 808
	st.d	$a0, $sp, 792
	st.d	$s7, $sp, 808
	st.d	$s8, $sp, 814
	ori	$a0, $zero, 14
	st.d	$a0, $sp, 800
	st.b	$zero, $sp, 822
.Ltmp77:                                # EH_LABEL
	addi.d	$a1, $sp, 792
	ori	$a2, $zero, 1
	move	$a0, $s1
	pcaddu18i	$ra, %call36(_ZN8TestCaseC1ENSt7__cxx1112basic_stringIcSt11char_traitsIcESaIcEEEi)
	jirl	$ra, $ra, 0
.Ltmp78:                                # EH_LABEL
# %bb.100:                              # %invoke.cont146
	addi.d	$s1, $sp, 1664
	addi.d	$a0, $sp, 776
	st.d	$a0, $sp, 760
	ori	$a0, $zero, 26
	st.d	$a0, $sp, 472
.Ltmp80:                                # EH_LABEL
	addi.d	$a0, $sp, 760
	addi.d	$a1, $sp, 472
	move	$a2, $zero
	pcaddu18i	$ra, %call36(_ZNSt7__cxx1112basic_stringIcSt11char_traitsIcESaIcEE9_M_createERmm)
	jirl	$ra, $ra, 0
.Ltmp81:                                # EH_LABEL
# %bb.101:                              # %call2.i5.i.noexc268
	st.d	$a0, $sp, 760
	ld.d	$a1, $sp, 472
	pcalau12i	$a2, %pc_hi20(.L.str.63)
	addi.d	$a2, $a2, %pc_lo12(.L.str.63)
	vld	$vr0, $a2, 0
	ld.h	$a3, $a2, 24
	ld.d	$a2, $a2, 16
	st.d	$a1, $sp, 776
	vst	$vr0, $a0, 0
	st.h	$a3, $a0, 24
	st.d	$a2, $a0, 16
	ld.d	$a0, $sp, 760
	st.d	$a1, $sp, 768
	stx.b	$zero, $a0, $a1
.Ltmp83:                                # EH_LABEL
	addi.d	$a1, $sp, 760
	ori	$a2, $zero, 1
	move	$a0, $s1
	pcaddu18i	$ra, %call36(_ZN8TestCaseC1ENSt7__cxx1112basic_stringIcSt11char_traitsIcESaIcEEEi)
	jirl	$ra, $ra, 0
.Ltmp84:                                # EH_LABEL
# %bb.102:                              # %invoke.cont153
	addi.d	$s1, $sp, 1752
	addi.d	$a0, $sp, 744
	st.d	$a0, $sp, 728
	ori	$a0, $zero, 26
	st.d	$a0, $sp, 472
.Ltmp86:                                # EH_LABEL
	addi.d	$a0, $sp, 728
	addi.d	$a1, $sp, 472
	move	$a2, $zero
	pcaddu18i	$ra, %call36(_ZNSt7__cxx1112basic_stringIcSt11char_traitsIcESaIcEE9_M_createERmm)
	jirl	$ra, $ra, 0
.Ltmp87:                                # EH_LABEL
# %bb.103:                              # %call2.i5.i.noexc280
	st.d	$a0, $sp, 728
	ld.d	$a1, $sp, 472
	pcalau12i	$a2, %pc_hi20(.L.str.64)
	addi.d	$a2, $a2, %pc_lo12(.L.str.64)
	vld	$vr0, $a2, 0
	ld.h	$a3, $a2, 24
	ld.d	$a2, $a2, 16
	st.d	$a1, $sp, 744
	vst	$vr0, $a0, 0
	st.h	$a3, $a0, 24
	st.d	$a2, $a0, 16
	ld.d	$a0, $sp, 728
	st.d	$a1, $sp, 736
	stx.b	$zero, $a0, $a1
.Ltmp89:                                # EH_LABEL
	addi.d	$a1, $sp, 728
	ori	$a2, $zero, 1
	move	$a0, $s1
	pcaddu18i	$ra, %call36(_ZN8TestCaseC1ENSt7__cxx1112basic_stringIcSt11char_traitsIcESaIcEEEi)
	jirl	$ra, $ra, 0
.Ltmp90:                                # EH_LABEL
# %bb.104:                              # %invoke.cont160
	addi.d	$s1, $sp, 1840
	addi.d	$a0, $sp, 712
	st.d	$a0, $sp, 696
	ori	$a0, $zero, 27
	st.d	$a0, $sp, 472
.Ltmp92:                                # EH_LABEL
	addi.d	$a0, $sp, 696
	addi.d	$a1, $sp, 472
	move	$a2, $zero
	pcaddu18i	$ra, %call36(_ZNSt7__cxx1112basic_stringIcSt11char_traitsIcESaIcEE9_M_createERmm)
	jirl	$ra, $ra, 0
.Ltmp93:                                # EH_LABEL
# %bb.105:                              # %call2.i5.i.noexc292
	st.d	$a0, $sp, 696
	ld.d	$a1, $sp, 472
	pcalau12i	$a2, %pc_hi20(.L.str.65)
	addi.d	$a2, $a2, %pc_lo12(.L.str.65)
	vld	$vr0, $a2, 0
	ld.w	$a3, $a2, 23
	ld.d	$a2, $a2, 16
	st.d	$a1, $sp, 712
	vst	$vr0, $a0, 0
	st.w	$a3, $a0, 23
	st.d	$a2, $a0, 16
	ld.d	$a0, $sp, 696
	st.d	$a1, $sp, 704
	stx.b	$zero, $a0, $a1
.Ltmp95:                                # EH_LABEL
	addi.d	$a1, $sp, 696
	ori	$a2, $zero, 1
	move	$a0, $s1
	pcaddu18i	$ra, %call36(_ZN8TestCaseC1ENSt7__cxx1112basic_stringIcSt11char_traitsIcESaIcEEEi)
	jirl	$ra, $ra, 0
.Ltmp96:                                # EH_LABEL
# %bb.106:                              # %invoke.cont167
	addi.d	$s1, $sp, 1928
	addi.d	$a0, $sp, 680
	st.d	$a0, $sp, 664
	ori	$a0, $zero, 28
	st.d	$a0, $sp, 472
.Ltmp98:                                # EH_LABEL
	addi.d	$a0, $sp, 664
	addi.d	$a1, $sp, 472
	move	$a2, $zero
	pcaddu18i	$ra, %call36(_ZNSt7__cxx1112basic_stringIcSt11char_traitsIcESaIcEE9_M_createERmm)
	jirl	$ra, $ra, 0
.Ltmp99:                                # EH_LABEL
# %bb.107:                              # %call2.i5.i.noexc304
	st.d	$a0, $sp, 664
	ld.d	$a1, $sp, 472
	pcalau12i	$a2, %pc_hi20(.L.str.66)
	addi.d	$a2, $a2, %pc_lo12(.L.str.66)
	vld	$vr0, $a2, 0
	ld.w	$a3, $a2, 24
	ld.d	$a2, $a2, 16
	st.d	$a1, $sp, 680
	vst	$vr0, $a0, 0
	st.w	$a3, $a0, 24
	st.d	$a2, $a0, 16
	ld.d	$a0, $sp, 664
	st.d	$a1, $sp, 672
	stx.b	$zero, $a0, $a1
.Ltmp101:                               # EH_LABEL
	addi.d	$a1, $sp, 664
	ori	$a2, $zero, 1
	move	$a0, $s1
	pcaddu18i	$ra, %call36(_ZN8TestCaseC1ENSt7__cxx1112basic_stringIcSt11char_traitsIcESaIcEEEi)
	jirl	$ra, $ra, 0
.Ltmp102:                               # EH_LABEL
# %bb.108:                              # %invoke.cont174
	addi.d	$s1, $sp, 2016
	addi.d	$a0, $sp, 648
	st.d	$a0, $sp, 632
	ori	$a0, $zero, 18
	st.d	$a0, $sp, 472
.Ltmp104:                               # EH_LABEL
	addi.d	$a0, $sp, 632
	addi.d	$a1, $sp, 472
	move	$a2, $zero
	pcaddu18i	$ra, %call36(_ZNSt7__cxx1112basic_stringIcSt11char_traitsIcESaIcEE9_M_createERmm)
	jirl	$ra, $ra, 0
.Ltmp105:                               # EH_LABEL
# %bb.109:                              # %call2.i5.i.noexc316
	ld.d	$a1, $sp, 472
	pcalau12i	$a2, %pc_hi20(.L.str.67)
	addi.d	$a2, $a2, %pc_lo12(.L.str.67)
	vld	$vr0, $a2, 0
	ld.h	$a2, $a2, 16
	st.d	$a0, $sp, 632
	st.d	$a1, $sp, 648
	vst	$vr0, $a0, 0
	st.h	$a2, $a0, 16
	ld.d	$a0, $sp, 632
	st.d	$a1, $sp, 640
	stx.b	$zero, $a0, $a1
.Ltmp107:                               # EH_LABEL
	addi.d	$a1, $sp, 632
	ori	$a2, $zero, 1
	move	$a0, $s1
	pcaddu18i	$ra, %call36(_ZN8TestCaseC1ENSt7__cxx1112basic_stringIcSt11char_traitsIcESaIcEEEi)
	jirl	$ra, $ra, 0
.Ltmp108:                               # EH_LABEL
# %bb.110:                              # %invoke.cont181
	st.d	$s6, $sp, 16                    # 8-byte Folded Spill
	ori	$a0, $zero, 2104
	add.d	$s1, $sp, $a0
	addi.d	$a0, $sp, 616
	st.d	$a0, $sp, 600
	ori	$a0, $zero, 18
	st.d	$a0, $sp, 472
.Ltmp110:                               # EH_LABEL
	addi.d	$a0, $sp, 600
	addi.d	$a1, $sp, 472
	move	$a2, $zero
	pcaddu18i	$ra, %call36(_ZNSt7__cxx1112basic_stringIcSt11char_traitsIcESaIcEE9_M_createERmm)
	jirl	$ra, $ra, 0
.Ltmp111:                               # EH_LABEL
# %bb.111:                              # %call2.i5.i.noexc328
	ld.d	$a1, $sp, 472
	pcalau12i	$a2, %pc_hi20(.L.str.68)
	addi.d	$a2, $a2, %pc_lo12(.L.str.68)
	vld	$vr0, $a2, 0
	ld.h	$a2, $a2, 16
	st.d	$a0, $sp, 600
	st.d	$a1, $sp, 616
	vst	$vr0, $a0, 0
	st.h	$a2, $a0, 16
	ld.d	$a0, $sp, 600
	st.d	$a1, $sp, 608
	stx.b	$zero, $a0, $a1
.Ltmp113:                               # EH_LABEL
	addi.d	$a1, $sp, 600
	ori	$a2, $zero, 1
	ori	$s6, $zero, 1
	move	$a0, $s1
	pcaddu18i	$ra, %call36(_ZN8TestCaseC1ENSt7__cxx1112basic_stringIcSt11char_traitsIcESaIcEEEi)
	jirl	$ra, $ra, 0
.Ltmp114:                               # EH_LABEL
# %bb.112:                              # %invoke.cont188
	ori	$a0, $zero, 2192
	add.d	$s1, $sp, $a0
	addi.d	$a0, $sp, 584
	st.d	$a0, $sp, 568
	ori	$a0, $zero, 125
	st.h	$a0, $sp, 584
	st.d	$s6, $sp, 576
.Ltmp116:                               # EH_LABEL
	addi.d	$a1, $sp, 568
	ori	$a2, $zero, 1
	move	$a0, $s1
	pcaddu18i	$ra, %call36(_ZN8TestCaseC1ENSt7__cxx1112basic_stringIcSt11char_traitsIcESaIcEEEi)
	jirl	$ra, $ra, 0
.Ltmp117:                               # EH_LABEL
# %bb.113:                              # %invoke.cont195
	ori	$a0, $zero, 2280
	add.d	$s1, $sp, $a0
	addi.d	$a0, $sp, 552
	st.d	$a0, $sp, 536
	ori	$a0, $zero, 21
	st.d	$a0, $sp, 472
.Ltmp119:                               # EH_LABEL
	addi.d	$a0, $sp, 536
	addi.d	$a1, $sp, 472
	move	$a2, $zero
	pcaddu18i	$ra, %call36(_ZNSt7__cxx1112basic_stringIcSt11char_traitsIcESaIcEE9_M_createERmm)
	jirl	$ra, $ra, 0
.Ltmp120:                               # EH_LABEL
# %bb.114:                              # %call2.i5.i.noexc352
	ld.d	$a1, $sp, 472
	pcalau12i	$a2, %pc_hi20(.L.str.70)
	addi.d	$a2, $a2, %pc_lo12(.L.str.70)
	vld	$vr0, $a2, 0
	ld.d	$a2, $a2, 13
	st.d	$a0, $sp, 536
	st.d	$a1, $sp, 552
	vst	$vr0, $a0, 0
	st.d	$a2, $a0, 13
	ld.d	$a0, $sp, 536
	st.d	$a1, $sp, 544
	stx.b	$zero, $a0, $a1
.Ltmp122:                               # EH_LABEL
	addi.d	$a1, $sp, 536
	move	$a0, $s1
	move	$a2, $zero
	pcaddu18i	$ra, %call36(_ZN8TestCaseC1ENSt7__cxx1112basic_stringIcSt11char_traitsIcESaIcEEEi)
	jirl	$ra, $ra, 0
.Ltmp123:                               # EH_LABEL
# %bb.115:                              # %invoke.cont202
	ori	$a0, $zero, 2368
	add.d	$s1, $sp, $a0
	addi.d	$a0, $sp, 440
	move	$a1, $s2
	pcaddu18i	$ra, %call36(_ZNSt7__cxx119to_stringEi)
	jirl	$ra, $ra, 0
.Ltmp125:                               # EH_LABEL
	pcalau12i	$a0, %pc_hi20(.L.str.56)
	addi.d	$a3, $a0, %pc_lo12(.L.str.56)
	addi.d	$a0, $sp, 440
	ori	$a4, $zero, 16
	move	$a1, $zero
	move	$a2, $zero
	pcaddu18i	$ra, %call36(_ZNSt7__cxx1112basic_stringIcSt11char_traitsIcESaIcEE10_M_replaceEmmPKcm)
	jirl	$ra, $ra, 0
.Ltmp126:                               # EH_LABEL
# %bb.116:                              # %call3.i.i.i.noexc369
	addi.d	$a3, $sp, 488
	st.d	$a3, $sp, 472
	ld.d	$a1, $a0, 0
	addi.d	$s2, $a0, 16
	beq	$a1, $s2, .LBB1_118
# %bb.117:                              # %if.else.i.i359
	ld.d	$a2, $a0, 16
	st.d	$a2, $sp, 488
	ld.d	$s6, $a0, 8
	st.d	$a1, $sp, 472
	b	.LBB1_119
.LBB1_118:                              # %_ZNSt11char_traitsIcE4copyEPcPKcm.exit.i.i365
	ld.d	$s6, $a0, 8
	addi.d	$a2, $s6, 1
	st.d	$s4, $sp, 8                     # 8-byte Folded Spill
	move	$s4, $fp
	move	$fp, $s7
	move	$s7, $s5
	move	$s5, $s3
	move	$s3, $a0
	move	$a0, $a3
	move	$a1, $s2
	pcaddu18i	$ra, %call36(memcpy)
	jirl	$ra, $ra, 0
	move	$a0, $s3
	move	$s3, $s5
	move	$s5, $s7
	move	$s7, $fp
	move	$fp, $s4
	ld.d	$s4, $sp, 8                     # 8-byte Folded Reload
.LBB1_119:                              # %invoke.cont208
	st.d	$s6, $sp, 480
	st.d	$s2, $a0, 0
	st.d	$zero, $a0, 8
	ld.d	$a1, $sp, 480
	st.b	$zero, $a0, 16
	ld.d	$a0, $sp, 16                    # 8-byte Folded Reload
	bgeu	$a1, $a0, .LBB1_268
# %bb.120:                              # %_ZNSt7__cxx1112basic_stringIcSt11char_traitsIcESaIcEE6appendEPKc.exit.i377
.Ltmp128:                               # EH_LABEL
	pcalau12i	$a0, %pc_hi20(.L.str.57)
	addi.d	$a1, $a0, %pc_lo12(.L.str.57)
	addi.d	$a0, $sp, 472
	ori	$a2, $zero, 2
	pcaddu18i	$ra, %call36(_ZNSt7__cxx1112basic_stringIcSt11char_traitsIcESaIcEE9_M_appendEPKcm)
	jirl	$ra, $ra, 0
.Ltmp129:                               # EH_LABEL
# %bb.121:                              # %call2.i.i.noexc391
	addi.d	$a3, $sp, 520
	st.d	$a3, $sp, 504
	ld.d	$a1, $a0, 0
	addi.d	$s2, $a0, 16
	beq	$a1, $s2, .LBB1_123
# %bb.122:                              # %if.else.i.i379
	ld.d	$a2, $a0, 16
	st.d	$a2, $sp, 520
	ld.d	$s6, $a0, 8
	st.d	$a1, $sp, 504
	b	.LBB1_124
.LBB1_123:                              # %_ZNSt11char_traitsIcE4copyEPcPKcm.exit.i.i385
	ld.d	$s6, $a0, 8
	addi.d	$a2, $s6, 1
	move	$s0, $s7
	move	$s7, $s5
	move	$s5, $s4
	move	$s4, $s3
	move	$s3, $a0
	move	$a0, $a3
	move	$a1, $s2
	pcaddu18i	$ra, %call36(memcpy)
	jirl	$ra, $ra, 0
	move	$a0, $s3
	move	$s3, $s4
	move	$s4, $s5
	move	$s5, $s7
	move	$s7, $s0
.LBB1_124:                              # %invoke.cont210
	st.d	$s6, $sp, 512
	st.d	$s2, $a0, 0
	st.d	$zero, $a0, 8
	st.b	$zero, $a0, 16
.Ltmp130:                               # EH_LABEL
	addi.d	$a1, $sp, 504
	ori	$a2, $zero, 1
	move	$a0, $s1
	pcaddu18i	$ra, %call36(_ZN8TestCaseC1ENSt7__cxx1112basic_stringIcSt11char_traitsIcESaIcEEEi)
	jirl	$ra, $ra, 0
.Ltmp131:                               # EH_LABEL
# %bb.125:                              # %invoke.cont212
	ori	$a0, $zero, 2456
	add.d	$s1, $sp, $a0
	addi.d	$a0, $sp, 424
	st.d	$a0, $sp, 408
	ori	$a0, $zero, 32
	ori	$a1, $zero, 3376
	add.d	$a1, $sp, $a1
	st.d	$a0, $a1, 0
.Ltmp133:                               # EH_LABEL
	addi.d	$a0, $sp, 408
	ori	$a1, $zero, 3376
	add.d	$a1, $sp, $a1
	move	$a2, $zero
	pcaddu18i	$ra, %call36(_ZNSt7__cxx1112basic_stringIcSt11char_traitsIcESaIcEE9_M_createERmm)
	jirl	$ra, $ra, 0
.Ltmp134:                               # EH_LABEL
# %bb.126:                              # %call2.i5.i.noexc403
	ori	$a1, $zero, 3376
	add.d	$a1, $sp, $a1
	ld.d	$a1, $a1, 0
	xvld	$xr0, $s3, %pc_lo12(.L.str.58)
	st.d	$a0, $sp, 408
	st.d	$a1, $sp, 424
	xvst	$xr0, $a0, 0
	ld.d	$a0, $sp, 408
	st.d	$a1, $sp, 416
	stx.b	$zero, $a0, $a1
.Ltmp136:                               # EH_LABEL
	addi.d	$a1, $sp, 408
	ori	$a2, $zero, 1
	move	$a0, $s1
	pcaddu18i	$ra, %call36(_ZN8TestCaseC1ENSt7__cxx1112basic_stringIcSt11char_traitsIcESaIcEEEi)
	jirl	$ra, $ra, 0
.Ltmp137:                               # EH_LABEL
# %bb.127:                              # %invoke.cont219
	ori	$a0, $zero, 2544
	add.d	$s1, $sp, $a0
	addi.d	$a0, $sp, 392
	st.d	$a0, $sp, 376
	ori	$a0, $zero, 21
	ori	$a1, $zero, 3376
	add.d	$a1, $sp, $a1
	st.d	$a0, $a1, 0
.Ltmp139:                               # EH_LABEL
	addi.d	$a0, $sp, 376
	ori	$a1, $zero, 3376
	add.d	$a1, $sp, $a1
	move	$a2, $zero
	pcaddu18i	$ra, %call36(_ZNSt7__cxx1112basic_stringIcSt11char_traitsIcESaIcEE9_M_createERmm)
	jirl	$ra, $ra, 0
.Ltmp140:                               # EH_LABEL
# %bb.128:                              # %call2.i5.i.noexc415
	ori	$a1, $zero, 3376
	add.d	$a1, $sp, $a1
	ld.d	$a1, $a1, 0
	ld.d	$a2, $sp, 40                    # 8-byte Folded Reload
	vld	$vr0, $a2, 0
	st.d	$a0, $sp, 376
	st.d	$a1, $sp, 392
	vst	$vr0, $a0, 0
	ld.d	$a2, $sp, 48                    # 8-byte Folded Reload
	st.d	$a2, $a0, 13
	ld.d	$a0, $sp, 376
	st.d	$a1, $sp, 384
	stx.b	$zero, $a0, $a1
.Ltmp142:                               # EH_LABEL
	addi.d	$a1, $sp, 376
	ori	$a2, $zero, 1
	move	$a0, $s1
	pcaddu18i	$ra, %call36(_ZN8TestCaseC1ENSt7__cxx1112basic_stringIcSt11char_traitsIcESaIcEEEi)
	jirl	$ra, $ra, 0
.Ltmp143:                               # EH_LABEL
# %bb.129:                              # %invoke.cont226
	ori	$a0, $zero, 2632
	add.d	$s1, $sp, $a0
	addi.d	$a0, $sp, 360
	st.d	$a0, $sp, 344
	ori	$a0, $zero, 25
	ori	$a1, $zero, 3376
	add.d	$a1, $sp, $a1
	st.d	$a0, $a1, 0
.Ltmp145:                               # EH_LABEL
	addi.d	$a0, $sp, 344
	ori	$a1, $zero, 3376
	add.d	$a1, $sp, $a1
	move	$a2, $zero
	pcaddu18i	$ra, %call36(_ZNSt7__cxx1112basic_stringIcSt11char_traitsIcESaIcEE9_M_createERmm)
	jirl	$ra, $ra, 0
.Ltmp146:                               # EH_LABEL
# %bb.130:                              # %call2.i5.i.noexc427
	ori	$a1, $zero, 3376
	add.d	$a1, $sp, $a1
	ld.d	$a1, $a1, 0
	vld	$vr0, $fp, 0
	st.d	$a0, $sp, 344
	st.d	$a1, $sp, 360
	vst	$vr0, $a0, 0
	ld.d	$a2, $sp, 32                    # 8-byte Folded Reload
	st.b	$a2, $a0, 24
	ld.d	$a2, $sp, 24                    # 8-byte Folded Reload
	st.d	$a2, $a0, 16
	ld.d	$a0, $sp, 344
	st.d	$a1, $sp, 352
	stx.b	$zero, $a0, $a1
.Ltmp148:                               # EH_LABEL
	addi.d	$a1, $sp, 344
	ori	$a2, $zero, 1
	move	$a0, $s1
	pcaddu18i	$ra, %call36(_ZN8TestCaseC1ENSt7__cxx1112basic_stringIcSt11char_traitsIcESaIcEEEi)
	jirl	$ra, $ra, 0
.Ltmp149:                               # EH_LABEL
# %bb.131:                              # %invoke.cont233
	ori	$a0, $zero, 2720
	add.d	$s1, $sp, $a0
	addi.d	$a0, $sp, 328
	st.d	$a0, $sp, 312
	ori	$a0, $zero, 21
	ori	$a1, $zero, 3376
	add.d	$a1, $sp, $a1
	st.d	$a0, $a1, 0
.Ltmp151:                               # EH_LABEL
	addi.d	$a0, $sp, 312
	ori	$a1, $zero, 3376
	add.d	$a1, $sp, $a1
	move	$a2, $zero
	pcaddu18i	$ra, %call36(_ZNSt7__cxx1112basic_stringIcSt11char_traitsIcESaIcEE9_M_createERmm)
	jirl	$ra, $ra, 0
.Ltmp152:                               # EH_LABEL
# %bb.132:                              # %call2.i5.i.noexc439
	ori	$a1, $zero, 3376
	add.d	$a1, $sp, $a1
	ld.d	$a1, $a1, 0
	vld	$vr0, $s5, 0
	st.d	$a0, $sp, 312
	st.d	$a1, $sp, 328
	vst	$vr0, $a0, 0
	st.d	$s4, $a0, 13
	ld.d	$a0, $sp, 312
	st.d	$a1, $sp, 320
	stx.b	$zero, $a0, $a1
.Ltmp154:                               # EH_LABEL
	addi.d	$a1, $sp, 312
	ori	$a2, $zero, 1
	move	$a0, $s1
	pcaddu18i	$ra, %call36(_ZN8TestCaseC1ENSt7__cxx1112basic_stringIcSt11char_traitsIcESaIcEEEi)
	jirl	$ra, $ra, 0
.Ltmp155:                               # EH_LABEL
# %bb.133:                              # %invoke.cont240
	ori	$a0, $zero, 2808
	add.d	$s1, $sp, $a0
	addi.d	$a0, $sp, 296
	st.d	$a0, $sp, 280
	st.d	$s7, $sp, 296
	st.d	$s8, $sp, 302
	ori	$a0, $zero, 14
	st.d	$a0, $sp, 288
	st.b	$zero, $sp, 310
.Ltmp157:                               # EH_LABEL
	addi.d	$a1, $sp, 280
	ori	$a2, $zero, 1
	move	$a0, $s1
	pcaddu18i	$ra, %call36(_ZN8TestCaseC1ENSt7__cxx1112basic_stringIcSt11char_traitsIcESaIcEEEi)
	jirl	$ra, $ra, 0
.Ltmp158:                               # EH_LABEL
# %bb.134:                              # %invoke.cont247
	ori	$a0, $zero, 2896
	add.d	$s1, $sp, $a0
	addi.d	$a0, $sp, 264
	st.d	$a0, $sp, 248
	ori	$a0, $zero, 25
	ori	$a1, $zero, 3376
	add.d	$a1, $sp, $a1
	st.d	$a0, $a1, 0
.Ltmp160:                               # EH_LABEL
	addi.d	$a0, $sp, 248
	ori	$a1, $zero, 3376
	add.d	$a1, $sp, $a1
	move	$a2, $zero
	pcaddu18i	$ra, %call36(_ZNSt7__cxx1112basic_stringIcSt11char_traitsIcESaIcEE9_M_createERmm)
	jirl	$ra, $ra, 0
.Ltmp161:                               # EH_LABEL
# %bb.135:                              # %call2.i5.i.noexc463
	st.d	$a0, $sp, 248
	ori	$a1, $zero, 3376
	add.d	$a1, $sp, $a1
	ld.d	$a1, $a1, 0
	pcalau12i	$a2, %pc_hi20(.L.str.71)
	addi.d	$a2, $a2, %pc_lo12(.L.str.71)
	vld	$vr0, $a2, 0
	ld.b	$a3, $a2, 24
	ld.d	$a2, $a2, 16
	st.d	$a1, $sp, 264
	vst	$vr0, $a0, 0
	st.b	$a3, $a0, 24
	st.d	$a2, $a0, 16
	ld.d	$a0, $sp, 248
	st.d	$a1, $sp, 256
	stx.b	$zero, $a0, $a1
.Ltmp163:                               # EH_LABEL
	addi.d	$a1, $sp, 248
	ori	$a2, $zero, 1
	move	$a0, $s1
	pcaddu18i	$ra, %call36(_ZN8TestCaseC1ENSt7__cxx1112basic_stringIcSt11char_traitsIcESaIcEEEi)
	jirl	$ra, $ra, 0
.Ltmp164:                               # EH_LABEL
# %bb.136:                              # %invoke.cont254
	ori	$a0, $zero, 2984
	add.d	$s1, $sp, $a0
	addi.d	$a0, $sp, 232
	st.d	$a0, $sp, 216
	ori	$a0, $zero, 32
	ori	$a1, $zero, 3376
	add.d	$a1, $sp, $a1
	st.d	$a0, $a1, 0
.Ltmp166:                               # EH_LABEL
	addi.d	$a0, $sp, 216
	ori	$a1, $zero, 3376
	add.d	$a1, $sp, $a1
	move	$a2, $zero
	pcaddu18i	$ra, %call36(_ZNSt7__cxx1112basic_stringIcSt11char_traitsIcESaIcEE9_M_createERmm)
	jirl	$ra, $ra, 0
.Ltmp167:                               # EH_LABEL
# %bb.137:                              # %call2.i5.i.noexc475
	ori	$a1, $zero, 3376
	add.d	$a1, $sp, $a1
	ld.d	$a1, $a1, 0
	pcalau12i	$a2, %pc_hi20(.L.str.72)
	xvld	$xr0, $a2, %pc_lo12(.L.str.72)
	st.d	$a0, $sp, 216
	st.d	$a1, $sp, 232
	xvst	$xr0, $a0, 0
	ld.d	$a0, $sp, 216
	st.d	$a1, $sp, 224
	stx.b	$zero, $a0, $a1
.Ltmp169:                               # EH_LABEL
	addi.d	$a1, $sp, 216
	ori	$a2, $zero, 1
	move	$a0, $s1
	pcaddu18i	$ra, %call36(_ZN8TestCaseC1ENSt7__cxx1112basic_stringIcSt11char_traitsIcESaIcEEEi)
	jirl	$ra, $ra, 0
.Ltmp170:                               # EH_LABEL
# %bb.138:                              # %invoke.cont261
	ori	$a0, $zero, 3072
	add.d	$s1, $sp, $a0
	pcalau12i	$a0, %pc_hi20(.L.str.73)
	addi.d	$a0, $a0, %pc_lo12(.L.str.73)
	ld.d	$a1, $a0, 0
	ld.d	$a0, $a0, 6
	addi.d	$a2, $sp, 200
	st.d	$a2, $sp, 184
	st.d	$a1, $sp, 200
	st.d	$a0, $sp, 206
	ori	$a0, $zero, 14
	st.d	$a0, $sp, 192
	st.b	$zero, $sp, 214
.Ltmp172:                               # EH_LABEL
	addi.d	$a1, $sp, 184
	ori	$a2, $zero, 1
	ori	$fp, $zero, 1
	move	$a0, $s1
	pcaddu18i	$ra, %call36(_ZN8TestCaseC1ENSt7__cxx1112basic_stringIcSt11char_traitsIcESaIcEEEi)
	jirl	$ra, $ra, 0
.Ltmp173:                               # EH_LABEL
# %bb.139:                              # %invoke.cont268
	addi.d	$a0, $sp, 1048
	addi.d	$a0, $a0, 2047
	addi.d	$s1, $a0, 65
	addi.d	$s7, $sp, 168
	st.d	$s7, $sp, 152
	ori	$a0, $zero, 125
	st.h	$a0, $sp, 168
	st.d	$fp, $sp, 160
.Ltmp175:                               # EH_LABEL
	addi.d	$a1, $sp, 152
	ori	$a2, $zero, 1
	move	$a0, $s1
	pcaddu18i	$ra, %call36(_ZN8TestCaseC1ENSt7__cxx1112basic_stringIcSt11char_traitsIcESaIcEEEi)
	jirl	$ra, $ra, 0
.Ltmp176:                               # EH_LABEL
# %bb.140:                              # %invoke.cont275
.Ltmp178:                               # EH_LABEL
	ori	$a0, $zero, 2
	addi.d	$a1, $sp, 1048
	ori	$a2, $zero, 25
	addi.d	$s3, $sp, 1048
	pcaddu18i	$ra, %call36(_Z8AddCases10TestCaseIDSt16initializer_listI8TestCaseE)
	jirl	$ra, $ra, 0
.Ltmp179:                               # EH_LABEL
# %bb.141:                              # %invoke.cont280
	move	$s2, $zero
	addi.d	$a0, $s3, 2047
	addi.d	$s8, $a0, 81
	addi.d	$fp, $a0, 121
	lu12i.w	$a0, -1
	ori	$s0, $a0, 1896
	ori	$s4, $zero, 1
	ori	$s5, $zero, 1
	lu32i.d	$s5, 1
	b	.LBB1_143
	.p2align	4, , 16
.LBB1_142:                              # %_ZN8TestCaseD2Ev.exit537
                                        #   in Loop: Header=BB1_143 Depth=1
	addi.d	$s2, $s2, -88
	beq	$s2, $s0, .LBB1_154
.LBB1_143:                              # %arraydestroy.body283
                                        # =>This Inner Loop Header: Depth=1
	add.d	$s6, $s3, $s2
	ldptr.d	$s1, $s6, 2192
	beqz	$s1, .LBB1_148
# %bb.144:                              # %if.then.i.i.i504
                                        #   in Loop: Header=BB1_143 Depth=1
	ld.d	$a0, $s1, 8
	dbar	20
	bne	$a0, $s5, .LBB1_146
# %bb.145:                              # %if.then.i.i.i.i531
                                        #   in Loop: Header=BB1_143 Depth=1
	ld.d	$a0, $s1, 0
	st.d	$zero, $s1, 8
	ld.d	$a1, $a0, 16
	move	$a0, $s1
	jirl	$ra, $a1, 0
	ld.d	$a0, $s1, 0
	ld.d	$a1, $a0, 24
	move	$a0, $s1
	jirl	$ra, $a1, 0
	ldptr.d	$a0, $s6, 2152
	add.d	$a1, $fp, $s2
	bne	$a1, $a0, .LBB1_149
	b	.LBB1_150
	.p2align	4, , 16
.LBB1_146:                              # %if.end.i.i.i.i507
                                        #   in Loop: Header=BB1_143 Depth=1
	pcalau12i	$a1, %got_pc_hi20(__libc_single_threaded)
	ld.d	$a1, $a1, %got_pc_lo12(__libc_single_threaded)
	ld.bu	$a1, $a1, 0
	beqz	$a1, .LBB1_152
# %bb.147:                              # %if.then.i.i.i.i.i509
                                        #   in Loop: Header=BB1_143 Depth=1
	addi.d	$a1, $a0, -1
	st.w	$a1, $s1, 8
	addi.w	$a0, $a0, 0
	beq	$a0, $s4, .LBB1_153
	.p2align	4, , 16
.LBB1_148:                              # %_ZNSt12__shared_ptrIN9benchmark5RegexELN9__gnu_cxx12_Lock_policyE2EED2Ev.exit.i514
                                        #   in Loop: Header=BB1_143 Depth=1
	ldptr.d	$a0, $s6, 2152
	add.d	$a1, $fp, $s2
	beq	$a1, $a0, .LBB1_150
.LBB1_149:                              # %if.then.i.i2.i517
                                        #   in Loop: Header=BB1_143 Depth=1
	ldptr.d	$a1, $s6, 2168
	addi.d	$a1, $a1, 1
	pcaddu18i	$ra, %call36(_ZdlPvm)
	jirl	$ra, $ra, 0
.LBB1_150:                              # %_ZNSt7__cxx1112basic_stringIcSt11char_traitsIcESaIcEED2Ev.exit.i519
                                        #   in Loop: Header=BB1_143 Depth=1
	ldptr.d	$a0, $s6, 2112
	add.d	$a1, $s8, $s2
	beq	$a1, $a0, .LBB1_142
# %bb.151:                              # %if.then.i.i4.i521
                                        #   in Loop: Header=BB1_143 Depth=1
	ldptr.d	$a1, $s6, 2128
	addi.d	$a1, $a1, 1
	pcaddu18i	$ra, %call36(_ZdlPvm)
	jirl	$ra, $ra, 0
	b	.LBB1_142
.LBB1_152:                              # %if.else.i.i.i.i.i530
                                        #   in Loop: Header=BB1_143 Depth=1
	addi.d	$a1, $s1, 8
	addi.w	$a2, $zero, -1
	amadd_db.w	$a0, $a2, $a1
	addi.w	$a0, $a0, 0
	bne	$a0, $s4, .LBB1_148
.LBB1_153:                              # %if.then7.i.i.i.i529
                                        #   in Loop: Header=BB1_143 Depth=1
	move	$a0, $s1
	pcaddu18i	$ra, %call36(_ZNSt16_Sp_counted_baseILN9__gnu_cxx12_Lock_policyE2EE24_M_release_last_use_coldEv)
	jirl	$ra, $ra, 0
	ldptr.d	$a0, $s6, 2152
	add.d	$a1, $fp, $s2
	bne	$a1, $a0, .LBB1_149
	b	.LBB1_150
.LBB1_154:                              # %arraydestroy.done287
	ld.d	$a0, $sp, 152
	beq	$a0, $s7, .LBB1_156
# %bb.155:                              # %if.then.i.i539
	ld.d	$a1, $sp, 168
	addi.d	$a1, $a1, 1
	pcaddu18i	$ra, %call36(_ZdlPvm)
	jirl	$ra, $ra, 0
.LBB1_156:                              # %_ZNSt7__cxx1112basic_stringIcSt11char_traitsIcESaIcEED2Ev.exit545
	ld.d	$a0, $sp, 184
	ori	$a1, $zero, 3360
	add.d	$fp, $sp, $a1
	addi.d	$s0, $sp, 1032
	addi.d	$s1, $sp, 1000
	addi.d	$s2, $sp, 936
	addi.d	$s3, $sp, 1064
	addi.d	$s4, $sp, 1192
	addi.d	$s5, $sp, 904
	addi.d	$s6, $sp, 872
	addi.d	$s8, $sp, 488
	addi.d	$a1, $sp, 200
	beq	$a0, $a1, .LBB1_158
# %bb.157:                              # %if.then.i.i547
	ld.d	$a1, $sp, 200
	addi.d	$a1, $a1, 1
	pcaddu18i	$ra, %call36(_ZdlPvm)
	jirl	$ra, $ra, 0
.LBB1_158:                              # %_ZNSt7__cxx1112basic_stringIcSt11char_traitsIcESaIcEED2Ev.exit553
	ld.d	$a0, $sp, 216
	addi.d	$s7, $sp, 1280
	addi.d	$a1, $sp, 232
	beq	$a0, $a1, .LBB1_160
# %bb.159:                              # %if.then.i.i555
	ld.d	$a1, $sp, 232
	addi.d	$a1, $a1, 1
	pcaddu18i	$ra, %call36(_ZdlPvm)
	jirl	$ra, $ra, 0
.LBB1_160:                              # %_ZNSt7__cxx1112basic_stringIcSt11char_traitsIcESaIcEED2Ev.exit561
	ld.d	$a0, $sp, 248
	addi.d	$a1, $sp, 264
	beq	$a0, $a1, .LBB1_162
# %bb.161:                              # %if.then.i.i563
	ld.d	$a1, $sp, 264
	addi.d	$a1, $a1, 1
	pcaddu18i	$ra, %call36(_ZdlPvm)
	jirl	$ra, $ra, 0
.LBB1_162:                              # %_ZNSt7__cxx1112basic_stringIcSt11char_traitsIcESaIcEED2Ev.exit569
	ld.d	$a0, $sp, 280
	addi.d	$a1, $sp, 296
	beq	$a0, $a1, .LBB1_164
# %bb.163:                              # %if.then.i.i571
	ld.d	$a1, $sp, 296
	addi.d	$a1, $a1, 1
	pcaddu18i	$ra, %call36(_ZdlPvm)
	jirl	$ra, $ra, 0
.LBB1_164:                              # %_ZNSt7__cxx1112basic_stringIcSt11char_traitsIcESaIcEED2Ev.exit577
	ld.d	$a0, $sp, 312
	addi.d	$a1, $sp, 328
	beq	$a0, $a1, .LBB1_166
# %bb.165:                              # %if.then.i.i579
	ld.d	$a1, $sp, 328
	addi.d	$a1, $a1, 1
	pcaddu18i	$ra, %call36(_ZdlPvm)
	jirl	$ra, $ra, 0
.LBB1_166:                              # %_ZNSt7__cxx1112basic_stringIcSt11char_traitsIcESaIcEED2Ev.exit585
	ld.d	$a0, $sp, 344
	addi.d	$a1, $sp, 360
	beq	$a0, $a1, .LBB1_168
# %bb.167:                              # %if.then.i.i587
	ld.d	$a1, $sp, 360
	addi.d	$a1, $a1, 1
	pcaddu18i	$ra, %call36(_ZdlPvm)
	jirl	$ra, $ra, 0
.LBB1_168:                              # %_ZNSt7__cxx1112basic_stringIcSt11char_traitsIcESaIcEED2Ev.exit593
	ld.d	$a0, $sp, 376
	addi.d	$a1, $sp, 392
	beq	$a0, $a1, .LBB1_170
# %bb.169:                              # %if.then.i.i595
	ld.d	$a1, $sp, 392
	addi.d	$a1, $a1, 1
	pcaddu18i	$ra, %call36(_ZdlPvm)
	jirl	$ra, $ra, 0
.LBB1_170:                              # %_ZNSt7__cxx1112basic_stringIcSt11char_traitsIcESaIcEED2Ev.exit601
	ld.d	$a0, $sp, 408
	addi.d	$a1, $sp, 424
	beq	$a0, $a1, .LBB1_172
# %bb.171:                              # %if.then.i.i603
	ld.d	$a1, $sp, 424
	addi.d	$a1, $a1, 1
	pcaddu18i	$ra, %call36(_ZdlPvm)
	jirl	$ra, $ra, 0
.LBB1_172:                              # %_ZNSt7__cxx1112basic_stringIcSt11char_traitsIcESaIcEED2Ev.exit609
	ld.d	$a0, $sp, 504
	addi.d	$a1, $sp, 520
	beq	$a0, $a1, .LBB1_174
# %bb.173:                              # %if.then.i.i611
	ld.d	$a1, $sp, 520
	addi.d	$a1, $a1, 1
	pcaddu18i	$ra, %call36(_ZdlPvm)
	jirl	$ra, $ra, 0
.LBB1_174:                              # %_ZNSt7__cxx1112basic_stringIcSt11char_traitsIcESaIcEED2Ev.exit617
	ld.d	$a0, $sp, 472
	beq	$a0, $s8, .LBB1_176
# %bb.175:                              # %if.then.i.i619
	ld.d	$a1, $sp, 488
	addi.d	$a1, $a1, 1
	pcaddu18i	$ra, %call36(_ZdlPvm)
	jirl	$ra, $ra, 0
.LBB1_176:                              # %_ZNSt7__cxx1112basic_stringIcSt11char_traitsIcESaIcEED2Ev.exit625
	ld.d	$a0, $sp, 440
	addi.d	$a1, $sp, 456
	beq	$a0, $a1, .LBB1_178
# %bb.177:                              # %if.then.i.i627
	ld.d	$a1, $sp, 456
	addi.d	$a1, $a1, 1
	pcaddu18i	$ra, %call36(_ZdlPvm)
	jirl	$ra, $ra, 0
.LBB1_178:                              # %_ZNSt7__cxx1112basic_stringIcSt11char_traitsIcESaIcEED2Ev.exit633
	ld.d	$a0, $sp, 536
	addi.d	$a1, $sp, 552
	beq	$a0, $a1, .LBB1_180
# %bb.179:                              # %if.then.i.i635
	ld.d	$a1, $sp, 552
	addi.d	$a1, $a1, 1
	pcaddu18i	$ra, %call36(_ZdlPvm)
	jirl	$ra, $ra, 0
.LBB1_180:                              # %_ZNSt7__cxx1112basic_stringIcSt11char_traitsIcESaIcEED2Ev.exit641
	ld.d	$a0, $sp, 568
	addi.d	$a1, $sp, 584
	beq	$a0, $a1, .LBB1_182
# %bb.181:                              # %if.then.i.i643
	ld.d	$a1, $sp, 584
	addi.d	$a1, $a1, 1
	pcaddu18i	$ra, %call36(_ZdlPvm)
	jirl	$ra, $ra, 0
.LBB1_182:                              # %_ZNSt7__cxx1112basic_stringIcSt11char_traitsIcESaIcEED2Ev.exit649
	ld.d	$a0, $sp, 600
	addi.d	$a1, $sp, 616
	beq	$a0, $a1, .LBB1_184
# %bb.183:                              # %if.then.i.i651
	ld.d	$a1, $sp, 616
	addi.d	$a1, $a1, 1
	pcaddu18i	$ra, %call36(_ZdlPvm)
	jirl	$ra, $ra, 0
.LBB1_184:                              # %_ZNSt7__cxx1112basic_stringIcSt11char_traitsIcESaIcEED2Ev.exit657
	ld.d	$a0, $sp, 632
	addi.d	$a1, $sp, 648
	beq	$a0, $a1, .LBB1_186
# %bb.185:                              # %if.then.i.i659
	ld.d	$a1, $sp, 648
	addi.d	$a1, $a1, 1
	pcaddu18i	$ra, %call36(_ZdlPvm)
	jirl	$ra, $ra, 0
.LBB1_186:                              # %_ZNSt7__cxx1112basic_stringIcSt11char_traitsIcESaIcEED2Ev.exit665
	ld.d	$a0, $sp, 664
	addi.d	$a1, $sp, 680
	beq	$a0, $a1, .LBB1_188
# %bb.187:                              # %if.then.i.i667
	ld.d	$a1, $sp, 680
	addi.d	$a1, $a1, 1
	pcaddu18i	$ra, %call36(_ZdlPvm)
	jirl	$ra, $ra, 0
.LBB1_188:                              # %_ZNSt7__cxx1112basic_stringIcSt11char_traitsIcESaIcEED2Ev.exit673
	ld.d	$a0, $sp, 696
	addi.d	$a1, $sp, 712
	beq	$a0, $a1, .LBB1_190
# %bb.189:                              # %if.then.i.i675
	ld.d	$a1, $sp, 712
	addi.d	$a1, $a1, 1
	pcaddu18i	$ra, %call36(_ZdlPvm)
	jirl	$ra, $ra, 0
.LBB1_190:                              # %_ZNSt7__cxx1112basic_stringIcSt11char_traitsIcESaIcEED2Ev.exit681
	ld.d	$a0, $sp, 728
	addi.d	$a1, $sp, 744
	beq	$a0, $a1, .LBB1_192
# %bb.191:                              # %if.then.i.i683
	ld.d	$a1, $sp, 744
	addi.d	$a1, $a1, 1
	pcaddu18i	$ra, %call36(_ZdlPvm)
	jirl	$ra, $ra, 0
.LBB1_192:                              # %_ZNSt7__cxx1112basic_stringIcSt11char_traitsIcESaIcEED2Ev.exit689
	ld.d	$a0, $sp, 760
	addi.d	$a1, $sp, 776
	beq	$a0, $a1, .LBB1_194
# %bb.193:                              # %if.then.i.i691
	ld.d	$a1, $sp, 776
	addi.d	$a1, $a1, 1
	pcaddu18i	$ra, %call36(_ZdlPvm)
	jirl	$ra, $ra, 0
.LBB1_194:                              # %_ZNSt7__cxx1112basic_stringIcSt11char_traitsIcESaIcEED2Ev.exit697
	ld.d	$a0, $sp, 792
	addi.d	$a1, $sp, 808
	beq	$a0, $a1, .LBB1_196
# %bb.195:                              # %if.then.i.i699
	ld.d	$a1, $sp, 808
	addi.d	$a1, $a1, 1
	pcaddu18i	$ra, %call36(_ZdlPvm)
	jirl	$ra, $ra, 0
.LBB1_196:                              # %_ZNSt7__cxx1112basic_stringIcSt11char_traitsIcESaIcEED2Ev.exit705
	ld.d	$a0, $sp, 824
	addi.d	$a1, $sp, 840
	beq	$a0, $a1, .LBB1_198
# %bb.197:                              # %if.then.i.i707
	ld.d	$a1, $sp, 840
	addi.d	$a1, $a1, 1
	pcaddu18i	$ra, %call36(_ZdlPvm)
	jirl	$ra, $ra, 0
.LBB1_198:                              # %_ZNSt7__cxx1112basic_stringIcSt11char_traitsIcESaIcEED2Ev.exit713
	ld.d	$a0, $sp, 856
	beq	$a0, $s6, .LBB1_200
# %bb.199:                              # %if.then.i.i715
	ld.d	$a1, $sp, 872
	addi.d	$a1, $a1, 1
	pcaddu18i	$ra, %call36(_ZdlPvm)
	jirl	$ra, $ra, 0
.LBB1_200:                              # %_ZNSt7__cxx1112basic_stringIcSt11char_traitsIcESaIcEED2Ev.exit721
	ld.d	$a0, $sp, 888
	beq	$a0, $s5, .LBB1_202
# %bb.201:                              # %if.then.i.i723
	ld.d	$a1, $sp, 904
	addi.d	$a1, $a1, 1
	pcaddu18i	$ra, %call36(_ZdlPvm)
	jirl	$ra, $ra, 0
.LBB1_202:                              # %_ZNSt7__cxx1112basic_stringIcSt11char_traitsIcESaIcEED2Ev.exit729
	ld.d	$a0, $sp, 920
	addi.d	$s5, $sp, 1152
	addi.d	$s6, $sp, 1104
	beq	$a0, $s2, .LBB1_204
# %bb.203:                              # %if.then.i.i731
	ld.d	$a1, $sp, 936
	addi.d	$a1, $a1, 1
	pcaddu18i	$ra, %call36(_ZdlPvm)
	jirl	$ra, $ra, 0
.LBB1_204:                              # %_ZNSt7__cxx1112basic_stringIcSt11char_traitsIcESaIcEED2Ev.exit737
	ld.d	$a0, $sp, 984
	beq	$a0, $s1, .LBB1_206
# %bb.205:                              # %if.then.i.i739
	ld.d	$a1, $sp, 1000
	addi.d	$a1, $a1, 1
	pcaddu18i	$ra, %call36(_ZdlPvm)
	jirl	$ra, $ra, 0
.LBB1_206:                              # %_ZNSt7__cxx1112basic_stringIcSt11char_traitsIcESaIcEED2Ev.exit745
	ori	$a0, $zero, 3344
	add.d	$a0, $sp, $a0
	ld.d	$a0, $a0, 0
	beq	$a0, $fp, .LBB1_208
# %bb.207:                              # %if.then.i.i747
	ori	$a1, $zero, 3360
	add.d	$a1, $sp, $a1
	ld.d	$a1, $a1, 0
	addi.d	$a1, $a1, 1
	pcaddu18i	$ra, %call36(_ZdlPvm)
	jirl	$ra, $ra, 0
.LBB1_208:                              # %_ZNSt7__cxx1112basic_stringIcSt11char_traitsIcESaIcEED2Ev.exit753
	ld.d	$a0, $sp, 952
	addi.d	$a1, $sp, 968
	beq	$a0, $a1, .LBB1_210
# %bb.209:                              # %if.then.i.i755
	ld.d	$a1, $sp, 968
	addi.d	$a1, $a1, 1
	pcaddu18i	$ra, %call36(_ZdlPvm)
	jirl	$ra, $ra, 0
.LBB1_210:                              # %_ZNSt7__cxx1112basic_stringIcSt11char_traitsIcESaIcEED2Ev.exit761
	ld.d	$a0, $sp, 1016
	beq	$a0, $s0, .LBB1_212
# %bb.211:                              # %if.then.i.i763
	ld.d	$a1, $sp, 1032
	addi.d	$a1, $a1, 1
	pcaddu18i	$ra, %call36(_ZdlPvm)
	jirl	$ra, $ra, 0
.LBB1_212:                              # %_ZNSt7__cxx1112basic_stringIcSt11char_traitsIcESaIcEED2Ev.exit769
	addi.d	$s0, $sp, 136
	st.d	$s0, $sp, 120
	ori	$a0, $zero, 40
	ori	$a1, $zero, 3344
	add.d	$a1, $sp, $a1
	st.d	$a0, $a1, 0
.Ltmp181:                               # EH_LABEL
	addi.d	$a0, $sp, 120
	ori	$a1, $zero, 3344
	add.d	$a1, $sp, $a1
	move	$a2, $zero
	pcaddu18i	$ra, %call36(_ZNSt7__cxx1112basic_stringIcSt11char_traitsIcESaIcEE9_M_createERmm)
	jirl	$ra, $ra, 0
.Ltmp182:                               # EH_LABEL
# %bb.213:                              # %call2.i5.i.noexc779
	ori	$a1, $zero, 3344
	add.d	$a1, $sp, $a1
	ld.d	$a1, $a1, 0
	pcalau12i	$a2, %pc_hi20(.L.str.74)
	addi.d	$a2, $a2, %pc_lo12(.L.str.74)
	xvld	$xr0, $a2, 0
	ld.d	$a2, $a2, 32
	st.d	$a0, $sp, 120
	st.d	$a1, $sp, 136
	xvst	$xr0, $a0, 0
	st.d	$a2, $a0, 32
	st.d	$a1, $sp, 128
	stx.b	$zero, $a0, $a1
.Ltmp184:                               # EH_LABEL
	addi.d	$a0, $sp, 1048
	addi.d	$a1, $sp, 120
	addi.d	$fp, $sp, 1048
	move	$a2, $zero
	pcaddu18i	$ra, %call36(_ZN8TestCaseC1ENSt7__cxx1112basic_stringIcSt11char_traitsIcESaIcEEEi)
	jirl	$ra, $ra, 0
.Ltmp185:                               # EH_LABEL
# %bb.214:                              # %invoke.cont393
	addi.d	$fp, $sp, 1136
	pcalau12i	$a0, %pc_hi20(.L.str.75)
	addi.d	$a0, $a0, %pc_lo12(.L.str.75)
	ld.d	$a1, $a0, 0
	ld.d	$a0, $a0, 5
	addi.d	$s1, $sp, 104
	st.d	$s1, $sp, 88
	st.d	$a1, $sp, 104
	st.d	$a0, $sp, 109
	ori	$a0, $zero, 13
	st.d	$a0, $sp, 96
	st.b	$zero, $sp, 117
.Ltmp187:                               # EH_LABEL
	addi.d	$a1, $sp, 88
	ori	$a2, $zero, 2
	move	$a0, $fp
	pcaddu18i	$ra, %call36(_ZN8TestCaseC1ENSt7__cxx1112basic_stringIcSt11char_traitsIcESaIcEEEi)
	jirl	$ra, $ra, 0
.Ltmp188:                               # EH_LABEL
# %bb.215:                              # %invoke.cont400
	addi.d	$fp, $sp, 1224
	addi.d	$s2, $sp, 72
	st.d	$s2, $sp, 56
	ori	$a0, $zero, 34
	ori	$a1, $zero, 3344
	add.d	$a1, $sp, $a1
	st.d	$a0, $a1, 0
.Ltmp190:                               # EH_LABEL
	addi.d	$a0, $sp, 56
	ori	$a1, $zero, 3344
	add.d	$a1, $sp, $a1
	move	$a2, $zero
	pcaddu18i	$ra, %call36(_ZNSt7__cxx1112basic_stringIcSt11char_traitsIcESaIcEE9_M_createERmm)
	jirl	$ra, $ra, 0
.Ltmp191:                               # EH_LABEL
# %bb.216:                              # %call2.i5.i.noexc803
	ori	$a1, $zero, 3344
	add.d	$a1, $sp, $a1
	ld.d	$a1, $a1, 0
	pcalau12i	$a2, %pc_hi20(.L.str.76)
	addi.d	$a2, $a2, %pc_lo12(.L.str.76)
	xvld	$xr0, $a2, 0
	ld.h	$a2, $a2, 32
	st.d	$a0, $sp, 56
	st.d	$a1, $sp, 72
	xvst	$xr0, $a0, 0
	st.h	$a2, $a0, 32
	st.d	$a1, $sp, 64
	stx.b	$zero, $a0, $a1
.Ltmp193:                               # EH_LABEL
	addi.d	$a1, $sp, 56
	ori	$a2, $zero, 1
	move	$a0, $fp
	pcaddu18i	$ra, %call36(_ZN8TestCaseC1ENSt7__cxx1112basic_stringIcSt11char_traitsIcESaIcEEEi)
	jirl	$ra, $ra, 0
.Ltmp194:                               # EH_LABEL
# %bb.217:                              # %invoke.cont407
.Ltmp196:                               # EH_LABEL
	ori	$a0, $zero, 4
	addi.d	$a1, $sp, 1048
	ori	$a2, $zero, 3
	pcaddu18i	$ra, %call36(_Z8AddCases10TestCaseIDSt16initializer_listI8TestCaseE)
	jirl	$ra, $ra, 0
.Ltmp197:                               # EH_LABEL
# %bb.218:                              # %invoke.cont412
	ld.d	$fp, $sp, 1304
	beqz	$fp, .LBB1_223
# %bb.219:                              # %if.then.i.i.i808
	ld.d	$a0, $fp, 8
	ori	$a1, $zero, 1
	lu32i.d	$a1, 1
	dbar	20
	bne	$a0, $a1, .LBB1_221
# %bb.220:                              # %if.then.i.i.i.i835
	ld.d	$a0, $fp, 0
	st.d	$zero, $fp, 8
	ld.d	$a1, $a0, 16
	move	$a0, $fp
	jirl	$ra, $a1, 0
	ld.d	$a0, $fp, 0
	ld.d	$a1, $a0, 24
	move	$a0, $fp
	jirl	$ra, $a1, 0
	ld.d	$a0, $sp, 1264
	bne	$a0, $s7, .LBB1_224
	b	.LBB1_225
.LBB1_221:                              # %if.end.i.i.i.i811
	pcalau12i	$a1, %got_pc_hi20(__libc_single_threaded)
	ld.d	$a1, $a1, %got_pc_lo12(__libc_single_threaded)
	ld.bu	$a1, $a1, 0
	beqz	$a1, .LBB1_258
# %bb.222:                              # %if.then.i.i.i.i.i813
	addi.d	$a1, $a0, -1
	st.w	$a1, $fp, 8
	addi.w	$a0, $a0, 0
	ori	$a1, $zero, 1
	beq	$a0, $a1, .LBB1_259
.LBB1_223:                              # %_ZNSt12__shared_ptrIN9benchmark5RegexELN9__gnu_cxx12_Lock_policyE2EED2Ev.exit.i818
	ld.d	$a0, $sp, 1264
	beq	$a0, $s7, .LBB1_225
.LBB1_224:                              # %if.then.i.i2.i821
	ld.d	$a1, $sp, 1280
	addi.d	$a1, $a1, 1
	pcaddu18i	$ra, %call36(_ZdlPvm)
	jirl	$ra, $ra, 0
.LBB1_225:                              # %_ZNSt7__cxx1112basic_stringIcSt11char_traitsIcESaIcEED2Ev.exit.i823
	ld.d	$a0, $sp, 1224
	addi.d	$a1, $sp, 1240
	beq	$a0, $a1, .LBB1_227
# %bb.226:                              # %if.then.i.i4.i825
	ld.d	$a1, $sp, 1240
	addi.d	$a1, $a1, 1
	pcaddu18i	$ra, %call36(_ZdlPvm)
	jirl	$ra, $ra, 0
.LBB1_227:                              # %_ZN8TestCaseD2Ev.exit841
	ld.d	$fp, $sp, 1216
	beqz	$fp, .LBB1_232
# %bb.228:                              # %if.then.i.i.i808.1
	ld.d	$a0, $fp, 8
	ori	$a1, $zero, 1
	lu32i.d	$a1, 1
	dbar	20
	bne	$a0, $a1, .LBB1_230
# %bb.229:                              # %if.then.i.i.i.i835.1
	ld.d	$a0, $fp, 0
	st.d	$zero, $fp, 8
	ld.d	$a1, $a0, 16
	move	$a0, $fp
	jirl	$ra, $a1, 0
	ld.d	$a0, $fp, 0
	ld.d	$a1, $a0, 24
	move	$a0, $fp
	jirl	$ra, $a1, 0
	ld.d	$a0, $sp, 1176
	bne	$a0, $s4, .LBB1_233
	b	.LBB1_234
.LBB1_230:                              # %if.end.i.i.i.i811.1
	pcalau12i	$a1, %got_pc_hi20(__libc_single_threaded)
	ld.d	$a1, $a1, %got_pc_lo12(__libc_single_threaded)
	ld.bu	$a1, $a1, 0
	beqz	$a1, .LBB1_260
# %bb.231:                              # %if.then.i.i.i.i.i813.1
	addi.d	$a1, $a0, -1
	st.w	$a1, $fp, 8
	addi.w	$a0, $a0, 0
	ori	$a1, $zero, 1
	beq	$a0, $a1, .LBB1_261
.LBB1_232:                              # %_ZNSt12__shared_ptrIN9benchmark5RegexELN9__gnu_cxx12_Lock_policyE2EED2Ev.exit.i818.1
	ld.d	$a0, $sp, 1176
	beq	$a0, $s4, .LBB1_234
.LBB1_233:                              # %if.then.i.i2.i821.1
	ld.d	$a1, $sp, 1192
	addi.d	$a1, $a1, 1
	pcaddu18i	$ra, %call36(_ZdlPvm)
	jirl	$ra, $ra, 0
.LBB1_234:                              # %_ZNSt7__cxx1112basic_stringIcSt11char_traitsIcESaIcEED2Ev.exit.i823.1
	ld.d	$a0, $sp, 1136
	beq	$a0, $s5, .LBB1_236
# %bb.235:                              # %if.then.i.i4.i825.1
	ld.d	$a1, $sp, 1152
	addi.d	$a1, $a1, 1
	pcaddu18i	$ra, %call36(_ZdlPvm)
	jirl	$ra, $ra, 0
.LBB1_236:                              # %_ZN8TestCaseD2Ev.exit841.1
	ld.d	$fp, $sp, 1128
	beqz	$fp, .LBB1_241
# %bb.237:                              # %if.then.i.i.i808.2
	ld.d	$a0, $fp, 8
	ori	$a1, $zero, 1
	lu32i.d	$a1, 1
	dbar	20
	bne	$a0, $a1, .LBB1_239
# %bb.238:                              # %if.then.i.i.i.i835.2
	ld.d	$a0, $fp, 0
	st.d	$zero, $fp, 8
	ld.d	$a1, $a0, 16
	move	$a0, $fp
	jirl	$ra, $a1, 0
	ld.d	$a0, $fp, 0
	ld.d	$a1, $a0, 24
	move	$a0, $fp
	jirl	$ra, $a1, 0
	ld.d	$a0, $sp, 1088
	bne	$a0, $s6, .LBB1_242
	b	.LBB1_243
.LBB1_239:                              # %if.end.i.i.i.i811.2
	pcalau12i	$a1, %got_pc_hi20(__libc_single_threaded)
	ld.d	$a1, $a1, %got_pc_lo12(__libc_single_threaded)
	ld.bu	$a1, $a1, 0
	beqz	$a1, .LBB1_262
# %bb.240:                              # %if.then.i.i.i.i.i813.2
	addi.d	$a1, $a0, -1
	st.w	$a1, $fp, 8
	addi.w	$a0, $a0, 0
	ori	$a1, $zero, 1
	beq	$a0, $a1, .LBB1_263
.LBB1_241:                              # %_ZNSt12__shared_ptrIN9benchmark5RegexELN9__gnu_cxx12_Lock_policyE2EED2Ev.exit.i818.2
	ld.d	$a0, $sp, 1088
	beq	$a0, $s6, .LBB1_243
.LBB1_242:                              # %if.then.i.i2.i821.2
	ld.d	$a1, $sp, 1104
	addi.d	$a1, $a1, 1
	pcaddu18i	$ra, %call36(_ZdlPvm)
	jirl	$ra, $ra, 0
.LBB1_243:                              # %_ZNSt7__cxx1112basic_stringIcSt11char_traitsIcESaIcEED2Ev.exit.i823.2
	ld.d	$a0, $sp, 1048
	beq	$a0, $s3, .LBB1_245
# %bb.244:                              # %if.then.i.i4.i825.2
	ld.d	$a1, $sp, 1064
	addi.d	$a1, $a1, 1
	pcaddu18i	$ra, %call36(_ZdlPvm)
	jirl	$ra, $ra, 0
.LBB1_245:                              # %_ZN8TestCaseD2Ev.exit841.2
	ld.d	$a0, $sp, 56
	beq	$a0, $s2, .LBB1_247
# %bb.246:                              # %if.then.i.i843
	ld.d	$a1, $sp, 72
	addi.d	$a1, $a1, 1
	pcaddu18i	$ra, %call36(_ZdlPvm)
	jirl	$ra, $ra, 0
.LBB1_247:                              # %_ZNSt7__cxx1112basic_stringIcSt11char_traitsIcESaIcEED2Ev.exit849
	ld.d	$a0, $sp, 88
	beq	$a0, $s1, .LBB1_249
# %bb.248:                              # %if.then.i.i851
	ld.d	$a1, $sp, 104
	addi.d	$a1, $a1, 1
	pcaddu18i	$ra, %call36(_ZdlPvm)
	jirl	$ra, $ra, 0
.LBB1_249:                              # %_ZNSt7__cxx1112basic_stringIcSt11char_traitsIcESaIcEED2Ev.exit857
	ld.d	$a0, $sp, 120
	beq	$a0, $s0, .LBB1_251
# %bb.250:                              # %if.then.i.i859
	ld.d	$a1, $sp, 136
	addi.d	$a1, $a1, 1
	pcaddu18i	$ra, %call36(_ZdlPvm)
	jirl	$ra, $ra, 0
.LBB1_251:                              # %_ZNSt7__cxx1112basic_stringIcSt11char_traitsIcESaIcEED2Ev.exit865
	addi.d	$sp, $sp, 1440
	ld.d	$s8, $sp, 1944                  # 8-byte Folded Reload
	ld.d	$s7, $sp, 1952                  # 8-byte Folded Reload
	ld.d	$s6, $sp, 1960                  # 8-byte Folded Reload
	ld.d	$s5, $sp, 1968                  # 8-byte Folded Reload
	ld.d	$s4, $sp, 1976                  # 8-byte Folded Reload
	ld.d	$s3, $sp, 1984                  # 8-byte Folded Reload
	ld.d	$s2, $sp, 1992                  # 8-byte Folded Reload
	ld.d	$s1, $sp, 2000                  # 8-byte Folded Reload
	ld.d	$s0, $sp, 2008                  # 8-byte Folded Reload
	ld.d	$fp, $sp, 2016                  # 8-byte Folded Reload
	ld.d	$ra, $sp, 2024                  # 8-byte Folded Reload
	addi.d	$sp, $sp, 2032
	ret
.LBB1_252:                              # %if.else.i.i.i.i.i
	addi.d	$a1, $s0, 8
	addi.w	$a2, $zero, -1
	amadd_db.w	$a0, $a2, $a1
	addi.w	$a0, $a0, 0
	ori	$a1, $zero, 1
	bne	$a0, $a1, .LBB1_51
.LBB1_253:                              # %if.then7.i.i.i.i
	move	$a0, $s0
	pcaddu18i	$ra, %call36(_ZNSt16_Sp_counted_baseILN9__gnu_cxx12_Lock_policyE2EE24_M_release_last_use_coldEv)
	jirl	$ra, $ra, 0
	ld.d	$a0, $sp, 1264
	addi.d	$a1, $sp, 1280
	bne	$a0, $a1, .LBB1_52
	b	.LBB1_53
.LBB1_254:                              # %if.else.i.i.i.i.i.1
	addi.d	$a1, $s0, 8
	addi.w	$a2, $zero, -1
	amadd_db.w	$a0, $a2, $a1
	addi.w	$a0, $a0, 0
	ori	$a1, $zero, 1
	bne	$a0, $a1, .LBB1_60
.LBB1_255:                              # %if.then7.i.i.i.i.1
	move	$a0, $s0
	pcaddu18i	$ra, %call36(_ZNSt16_Sp_counted_baseILN9__gnu_cxx12_Lock_policyE2EE24_M_release_last_use_coldEv)
	jirl	$ra, $ra, 0
	ld.d	$a0, $sp, 1176
	bne	$a0, $s6, .LBB1_61
	b	.LBB1_62
.LBB1_256:                              # %if.else.i.i.i.i.i.2
	addi.d	$a1, $s0, 8
	addi.w	$a2, $zero, -1
	amadd_db.w	$a0, $a2, $a1
	addi.w	$a0, $a0, 0
	ori	$a1, $zero, 1
	bne	$a0, $a1, .LBB1_69
.LBB1_257:                              # %if.then7.i.i.i.i.2
	move	$a0, $s0
	pcaddu18i	$ra, %call36(_ZNSt16_Sp_counted_baseILN9__gnu_cxx12_Lock_policyE2EE24_M_release_last_use_coldEv)
	jirl	$ra, $ra, 0
	ld.d	$a0, $sp, 1088
	addi.d	$a1, $sp, 1104
	bne	$a0, $a1, .LBB1_70
	b	.LBB1_71
.LBB1_258:                              # %if.else.i.i.i.i.i834
	addi.d	$a1, $fp, 8
	addi.w	$a2, $zero, -1
	amadd_db.w	$a0, $a2, $a1
	addi.w	$a0, $a0, 0
	ori	$a1, $zero, 1
	bne	$a0, $a1, .LBB1_223
.LBB1_259:                              # %if.then7.i.i.i.i833
	move	$a0, $fp
	pcaddu18i	$ra, %call36(_ZNSt16_Sp_counted_baseILN9__gnu_cxx12_Lock_policyE2EE24_M_release_last_use_coldEv)
	jirl	$ra, $ra, 0
	ld.d	$a0, $sp, 1264
	bne	$a0, $s7, .LBB1_224
	b	.LBB1_225
.LBB1_260:                              # %if.else.i.i.i.i.i834.1
	addi.d	$a1, $fp, 8
	addi.w	$a2, $zero, -1
	amadd_db.w	$a0, $a2, $a1
	addi.w	$a0, $a0, 0
	ori	$a1, $zero, 1
	bne	$a0, $a1, .LBB1_232
.LBB1_261:                              # %if.then7.i.i.i.i833.1
	move	$a0, $fp
	pcaddu18i	$ra, %call36(_ZNSt16_Sp_counted_baseILN9__gnu_cxx12_Lock_policyE2EE24_M_release_last_use_coldEv)
	jirl	$ra, $ra, 0
	ld.d	$a0, $sp, 1176
	bne	$a0, $s4, .LBB1_233
	b	.LBB1_234
.LBB1_262:                              # %if.else.i.i.i.i.i834.2
	addi.d	$a1, $fp, 8
	addi.w	$a2, $zero, -1
	amadd_db.w	$a0, $a2, $a1
	addi.w	$a0, $a0, 0
	ori	$a1, $zero, 1
	bne	$a0, $a1, .LBB1_241
.LBB1_263:                              # %if.then7.i.i.i.i833.2
	move	$a0, $fp
	pcaddu18i	$ra, %call36(_ZNSt16_Sp_counted_baseILN9__gnu_cxx12_Lock_policyE2EE24_M_release_last_use_coldEv)
	jirl	$ra, $ra, 0
	ld.d	$a0, $sp, 1088
	bne	$a0, $s6, .LBB1_242
	b	.LBB1_243
.LBB1_264:                              # %if.then.i.i10.invoke.i.i
.Ltmp205:                               # EH_LABEL
	pcalau12i	$a0, %pc_hi20(.L.str.77)
	addi.d	$a0, $a0, %pc_lo12(.L.str.77)
	pcaddu18i	$ra, %call36(_ZSt20__throw_length_errorPKc)
	jirl	$ra, $ra, 0
.Ltmp206:                               # EH_LABEL
# %bb.265:                              # %if.then.i.i10.cont.i.i
.LBB1_266:                              # %if.then.i.i.i197
.Ltmp202:                               # EH_LABEL
	pcalau12i	$a0, %pc_hi20(.L.str.77)
	addi.d	$a0, $a0, %pc_lo12(.L.str.77)
	pcaddu18i	$ra, %call36(_ZSt20__throw_length_errorPKc)
	jirl	$ra, $ra, 0
.Ltmp203:                               # EH_LABEL
# %bb.267:                              # %.noexc
.LBB1_268:                              # %if.then.i.i.i389
.Ltmp199:                               # EH_LABEL
	pcalau12i	$a0, %pc_hi20(.L.str.77)
	addi.d	$a0, $a0, %pc_lo12(.L.str.77)
	pcaddu18i	$ra, %call36(_ZSt20__throw_length_errorPKc)
	jirl	$ra, $ra, 0
.Ltmp200:                               # EH_LABEL
# %bb.269:                              # %.noexc390
.LBB1_270:                              # %lpad411
.Ltmp198:                               # EH_LABEL
	move	$s4, $a0
	addi.d	$a0, $sp, 1224
	pcaddu18i	$ra, %call36(_ZN8TestCaseD2Ev)
	jirl	$ra, $ra, 0
	addi.d	$a0, $sp, 1136
	pcaddu18i	$ra, %call36(_ZN8TestCaseD2Ev)
	jirl	$ra, $ra, 0
	addi.d	$a0, $sp, 1048
	pcaddu18i	$ra, %call36(_ZN8TestCaseD2Ev)
	jirl	$ra, $ra, 0
	ori	$s3, $zero, 1
	b	.LBB1_272
.LBB1_271:                              # %lpad406
.Ltmp195:                               # EH_LABEL
	move	$s4, $a0
	move	$s3, $zero
.LBB1_272:                              # %ehcleanup427
	ld.d	$a0, $sp, 56
	bne	$a0, $s2, .LBB1_278
# %bb.273:                              # %ehcleanup430
	ld.d	$a0, $sp, 88
	bne	$a0, $s1, .LBB1_282
.LBB1_274:                              # %ehcleanup433
	ld.d	$a0, $sp, 120
	beq	$a0, $s0, .LBB1_276
.LBB1_275:                              # %if.then.i.i1147
	ld.d	$a1, $sp, 136
	addi.d	$a1, $a1, 1
	pcaddu18i	$ra, %call36(_ZdlPvm)
	jirl	$ra, $ra, 0
.LBB1_276:                              # %ehcleanup434
	addi.d	$s0, $sp, 1048
	xor	$a0, $s0, $fp
	sltui	$a0, $a0, 1
	or	$a0, $s3, $a0
	bnez	$a0, .LBB1_350
	.p2align	4, , 16
.LBB1_277:                              # %arraydestroy.body440
                                        # =>This Inner Loop Header: Depth=1
	addi.d	$fp, $fp, -88
	move	$a0, $fp
	pcaddu18i	$ra, %call36(_ZN8TestCaseD2Ev)
	jirl	$ra, $ra, 0
	bne	$fp, $s0, .LBB1_277
	b	.LBB1_350
.LBB1_278:                              # %if.then.i.i1131
	ld.d	$a1, $sp, 72
	addi.d	$a1, $a1, 1
	pcaddu18i	$ra, %call36(_ZdlPvm)
	jirl	$ra, $ra, 0
	ld.d	$a0, $sp, 88
	beq	$a0, $s1, .LBB1_274
	b	.LBB1_282
.LBB1_279:                              # %lpad404
.Ltmp192:                               # EH_LABEL
	b	.LBB1_281
.LBB1_280:                              # %lpad399
.Ltmp189:                               # EH_LABEL
.LBB1_281:                              # %ehcleanup430
	move	$s4, $a0
	move	$s3, $zero
	ld.d	$a0, $sp, 88
	beq	$a0, $s1, .LBB1_274
.LBB1_282:                              # %if.then.i.i1139
	ld.d	$a1, $sp, 104
	addi.d	$a1, $a1, 1
	pcaddu18i	$ra, %call36(_ZdlPvm)
	jirl	$ra, $ra, 0
	ld.d	$a0, $sp, 120
	bne	$a0, $s0, .LBB1_275
	b	.LBB1_276
.LBB1_283:                              # %lpad392
.Ltmp186:                               # EH_LABEL
	move	$s4, $a0
	move	$s3, $zero
	ld.d	$a0, $sp, 120
	bne	$a0, $s0, .LBB1_275
	b	.LBB1_276
.LBB1_284:                              # %ehcleanup434.thread
.Ltmp183:                               # EH_LABEL
	pcaddu18i	$ra, %call36(_Unwind_Resume)
	jirl	$ra, $ra, 0
.LBB1_285:                              # %lpad279
.Ltmp180:                               # EH_LABEL
	move	$s4, $a0
	addi.d	$a0, $s3, 2047
	addi.d	$a0, $a0, 65
	pcaddu18i	$ra, %call36(_ZN8TestCaseD2Ev)
	jirl	$ra, $ra, 0
	ori	$a0, $zero, 3072
	add.d	$a0, $sp, $a0
	pcaddu18i	$ra, %call36(_ZN8TestCaseD2Ev)
	jirl	$ra, $ra, 0
	ori	$a0, $zero, 2984
	add.d	$a0, $sp, $a0
	pcaddu18i	$ra, %call36(_ZN8TestCaseD2Ev)
	jirl	$ra, $ra, 0
	ori	$a0, $zero, 2896
	add.d	$a0, $sp, $a0
	pcaddu18i	$ra, %call36(_ZN8TestCaseD2Ev)
	jirl	$ra, $ra, 0
	ori	$a0, $zero, 2808
	add.d	$a0, $sp, $a0
	pcaddu18i	$ra, %call36(_ZN8TestCaseD2Ev)
	jirl	$ra, $ra, 0
	ori	$a0, $zero, 2720
	add.d	$a0, $sp, $a0
	pcaddu18i	$ra, %call36(_ZN8TestCaseD2Ev)
	jirl	$ra, $ra, 0
	ori	$a0, $zero, 2632
	add.d	$a0, $sp, $a0
	pcaddu18i	$ra, %call36(_ZN8TestCaseD2Ev)
	jirl	$ra, $ra, 0
	ori	$a0, $zero, 2544
	add.d	$a0, $sp, $a0
	pcaddu18i	$ra, %call36(_ZN8TestCaseD2Ev)
	jirl	$ra, $ra, 0
	ori	$a0, $zero, 2456
	add.d	$a0, $sp, $a0
	pcaddu18i	$ra, %call36(_ZN8TestCaseD2Ev)
	jirl	$ra, $ra, 0
	ori	$a0, $zero, 2368
	add.d	$a0, $sp, $a0
	pcaddu18i	$ra, %call36(_ZN8TestCaseD2Ev)
	jirl	$ra, $ra, 0
	ori	$a0, $zero, 2280
	add.d	$a0, $sp, $a0
	pcaddu18i	$ra, %call36(_ZN8TestCaseD2Ev)
	jirl	$ra, $ra, 0
	ori	$a0, $zero, 2192
	add.d	$a0, $sp, $a0
	pcaddu18i	$ra, %call36(_ZN8TestCaseD2Ev)
	jirl	$ra, $ra, 0
	ori	$a0, $zero, 2104
	add.d	$a0, $sp, $a0
	pcaddu18i	$ra, %call36(_ZN8TestCaseD2Ev)
	jirl	$ra, $ra, 0
	addi.d	$a0, $sp, 2016
	pcaddu18i	$ra, %call36(_ZN8TestCaseD2Ev)
	jirl	$ra, $ra, 0
	addi.d	$a0, $sp, 1928
	pcaddu18i	$ra, %call36(_ZN8TestCaseD2Ev)
	jirl	$ra, $ra, 0
	addi.d	$a0, $sp, 1840
	pcaddu18i	$ra, %call36(_ZN8TestCaseD2Ev)
	jirl	$ra, $ra, 0
	addi.d	$a0, $sp, 1752
	pcaddu18i	$ra, %call36(_ZN8TestCaseD2Ev)
	jirl	$ra, $ra, 0
	addi.d	$a0, $sp, 1664
	pcaddu18i	$ra, %call36(_ZN8TestCaseD2Ev)
	jirl	$ra, $ra, 0
	addi.d	$a0, $sp, 1576
	pcaddu18i	$ra, %call36(_ZN8TestCaseD2Ev)
	jirl	$ra, $ra, 0
	addi.d	$a0, $sp, 1488
	pcaddu18i	$ra, %call36(_ZN8TestCaseD2Ev)
	jirl	$ra, $ra, 0
	addi.d	$a0, $sp, 1400
	pcaddu18i	$ra, %call36(_ZN8TestCaseD2Ev)
	jirl	$ra, $ra, 0
	addi.d	$a0, $sp, 1312
	pcaddu18i	$ra, %call36(_ZN8TestCaseD2Ev)
	jirl	$ra, $ra, 0
	addi.d	$a0, $sp, 1224
	pcaddu18i	$ra, %call36(_ZN8TestCaseD2Ev)
	jirl	$ra, $ra, 0
	addi.d	$a0, $sp, 1136
	pcaddu18i	$ra, %call36(_ZN8TestCaseD2Ev)
	jirl	$ra, $ra, 0
	addi.d	$a0, $sp, 1048
	pcaddu18i	$ra, %call36(_ZN8TestCaseD2Ev)
	jirl	$ra, $ra, 0
	ori	$s3, $zero, 1
	b	.LBB1_287
.LBB1_286:                              # %lpad274
.Ltmp177:                               # EH_LABEL
	move	$s4, $a0
	move	$s3, $zero
.LBB1_287:                              # %ehcleanup295
	ld.d	$a0, $sp, 152
	bne	$a0, $s7, .LBB1_313
# %bb.288:                              # %ehcleanup298
	ld.d	$a0, $sp, 184
	addi.d	$a1, $sp, 200
	bne	$a0, $a1, .LBB1_315
.LBB1_289:                              # %ehcleanup301
	ld.d	$a0, $sp, 216
	addi.d	$a1, $sp, 232
	bne	$a0, $a1, .LBB1_316
.LBB1_290:                              # %ehcleanup304
	ld.d	$a0, $sp, 248
	addi.d	$a1, $sp, 264
	bne	$a0, $a1, .LBB1_321
.LBB1_291:                              # %ehcleanup307
	ld.d	$a0, $sp, 280
	addi.d	$a1, $sp, 296
	bne	$a0, $a1, .LBB1_322
.LBB1_292:                              # %ehcleanup310
	ld.d	$a0, $sp, 312
	addi.d	$a1, $sp, 328
	bne	$a0, $a1, .LBB1_323
.LBB1_293:                              # %ehcleanup313
	ld.d	$a0, $sp, 344
	addi.d	$a1, $sp, 360
	bne	$a0, $a1, .LBB1_324
.LBB1_294:                              # %ehcleanup316
	ld.d	$a0, $sp, 376
	addi.d	$a1, $sp, 392
	bne	$a0, $a1, .LBB1_325
.LBB1_295:                              # %ehcleanup319
	ld.d	$a0, $sp, 408
	addi.d	$a1, $sp, 424
	bne	$a0, $a1, .LBB1_326
.LBB1_296:                              # %ehcleanup322
	ld.d	$a0, $sp, 504
	addi.d	$a1, $sp, 520
	bne	$a0, $a1, .LBB1_327
.LBB1_297:                              # %ehcleanup323
	ld.d	$a0, $sp, 472
	addi.d	$a1, $sp, 488
	bne	$a0, $a1, .LBB1_328
.LBB1_298:                              # %ehcleanup324
	ld.d	$a0, $sp, 440
	addi.d	$a1, $sp, 456
	bne	$a0, $a1, .LBB1_329
.LBB1_299:                              # %ehcleanup327
	ld.d	$a0, $sp, 536
	addi.d	$a1, $sp, 552
	bne	$a0, $a1, .LBB1_330
.LBB1_300:                              # %ehcleanup330
	ld.d	$a0, $sp, 568
	addi.d	$a1, $sp, 584
	bne	$a0, $a1, .LBB1_331
.LBB1_301:                              # %ehcleanup333
	ld.d	$a0, $sp, 600
	addi.d	$a1, $sp, 616
	bne	$a0, $a1, .LBB1_332
.LBB1_302:                              # %ehcleanup336
	ld.d	$a0, $sp, 632
	addi.d	$a1, $sp, 648
	bne	$a0, $a1, .LBB1_333
.LBB1_303:                              # %ehcleanup339
	ld.d	$a0, $sp, 664
	addi.d	$a1, $sp, 680
	bne	$a0, $a1, .LBB1_334
.LBB1_304:                              # %ehcleanup342
	ld.d	$a0, $sp, 696
	addi.d	$a1, $sp, 712
	bne	$a0, $a1, .LBB1_335
.LBB1_305:                              # %ehcleanup345
	ld.d	$a0, $sp, 728
	addi.d	$a1, $sp, 744
	bne	$a0, $a1, .LBB1_336
.LBB1_306:                              # %ehcleanup348
	ld.d	$a0, $sp, 760
	addi.d	$a1, $sp, 776
	bne	$a0, $a1, .LBB1_337
.LBB1_307:                              # %ehcleanup351
	ld.d	$a0, $sp, 792
	addi.d	$a1, $sp, 808
	bne	$a0, $a1, .LBB1_338
.LBB1_308:                              # %ehcleanup354
	ld.d	$a0, $sp, 824
	addi.d	$a1, $sp, 840
	bne	$a0, $a1, .LBB1_339
.LBB1_309:                              # %ehcleanup357
	ld.d	$a0, $sp, 856
	addi.d	$a1, $sp, 872
	bne	$a0, $a1, .LBB1_340
.LBB1_310:                              # %ehcleanup360
	ld.d	$a0, $sp, 888
	addi.d	$a1, $sp, 904
	bne	$a0, $a1, .LBB1_341
.LBB1_311:                              # %ehcleanup363
	ld.d	$a0, $sp, 920
	addi.d	$a1, $sp, 936
	bne	$a0, $a1, .LBB1_342
.LBB1_312:                              # %ehcleanup366
	ld.d	$a0, $sp, 984
	addi.d	$a1, $sp, 1000
	bne	$a0, $a1, .LBB1_343
	b	.LBB1_344
.LBB1_313:                              # %if.then.i.i899
	ld.d	$a1, $sp, 168
	addi.d	$a1, $a1, 1
	pcaddu18i	$ra, %call36(_ZdlPvm)
	jirl	$ra, $ra, 0
	ld.d	$a0, $sp, 184
	addi.d	$a1, $sp, 200
	beq	$a0, $a1, .LBB1_289
	b	.LBB1_315
.LBB1_314:                              # %lpad267
.Ltmp174:                               # EH_LABEL
	move	$s4, $a0
	move	$s3, $zero
	ld.d	$a0, $sp, 184
	addi.d	$a1, $sp, 200
	beq	$a0, $a1, .LBB1_289
.LBB1_315:                              # %if.then.i.i907
	ld.d	$a1, $sp, 200
	addi.d	$a1, $a1, 1
	pcaddu18i	$ra, %call36(_ZdlPvm)
	jirl	$ra, $ra, 0
	ld.d	$a0, $sp, 216
	addi.d	$a1, $sp, 232
	beq	$a0, $a1, .LBB1_290
.LBB1_316:                              # %if.then.i.i915
	ld.d	$a1, $sp, 232
	addi.d	$a1, $a1, 1
	pcaddu18i	$ra, %call36(_ZdlPvm)
	jirl	$ra, $ra, 0
	ld.d	$a0, $sp, 248
	addi.d	$a1, $sp, 264
	beq	$a0, $a1, .LBB1_291
	b	.LBB1_321
.LBB1_317:                              # %lpad260
.Ltmp171:                               # EH_LABEL
	move	$s4, $a0
	move	$s3, $zero
	ld.d	$a0, $sp, 216
	addi.d	$a1, $sp, 232
	beq	$a0, $a1, .LBB1_290
	b	.LBB1_316
.LBB1_318:                              # %lpad258
.Ltmp168:                               # EH_LABEL
	b	.LBB1_320
.LBB1_319:                              # %lpad253
.Ltmp165:                               # EH_LABEL
.LBB1_320:                              # %ehcleanup304
	move	$s4, $a0
	move	$s3, $zero
	ld.d	$a0, $sp, 248
	addi.d	$a1, $sp, 264
	beq	$a0, $a1, .LBB1_291
.LBB1_321:                              # %if.then.i.i923
	ld.d	$a1, $sp, 264
	addi.d	$a1, $a1, 1
	pcaddu18i	$ra, %call36(_ZdlPvm)
	jirl	$ra, $ra, 0
	ld.d	$a0, $sp, 280
	addi.d	$a1, $sp, 296
	beq	$a0, $a1, .LBB1_292
.LBB1_322:                              # %if.then.i.i931
	ld.d	$a1, $sp, 296
	addi.d	$a1, $a1, 1
	pcaddu18i	$ra, %call36(_ZdlPvm)
	jirl	$ra, $ra, 0
	ld.d	$a0, $sp, 312
	addi.d	$a1, $sp, 328
	beq	$a0, $a1, .LBB1_293
.LBB1_323:                              # %if.then.i.i939
	ld.d	$a1, $sp, 328
	addi.d	$a1, $a1, 1
	pcaddu18i	$ra, %call36(_ZdlPvm)
	jirl	$ra, $ra, 0
	ld.d	$a0, $sp, 344
	addi.d	$a1, $sp, 360
	beq	$a0, $a1, .LBB1_294
.LBB1_324:                              # %if.then.i.i947
	ld.d	$a1, $sp, 360
	addi.d	$a1, $a1, 1
	pcaddu18i	$ra, %call36(_ZdlPvm)
	jirl	$ra, $ra, 0
	ld.d	$a0, $sp, 376
	addi.d	$a1, $sp, 392
	beq	$a0, $a1, .LBB1_295
.LBB1_325:                              # %if.then.i.i955
	ld.d	$a1, $sp, 392
	addi.d	$a1, $a1, 1
	pcaddu18i	$ra, %call36(_ZdlPvm)
	jirl	$ra, $ra, 0
	ld.d	$a0, $sp, 408
	addi.d	$a1, $sp, 424
	beq	$a0, $a1, .LBB1_296
.LBB1_326:                              # %if.then.i.i963
	ld.d	$a1, $sp, 424
	addi.d	$a1, $a1, 1
	pcaddu18i	$ra, %call36(_ZdlPvm)
	jirl	$ra, $ra, 0
	ld.d	$a0, $sp, 504
	addi.d	$a1, $sp, 520
	beq	$a0, $a1, .LBB1_297
.LBB1_327:                              # %if.then.i.i971
	ld.d	$a1, $sp, 520
	addi.d	$a1, $a1, 1
	pcaddu18i	$ra, %call36(_ZdlPvm)
	jirl	$ra, $ra, 0
	ld.d	$a0, $sp, 472
	addi.d	$a1, $sp, 488
	beq	$a0, $a1, .LBB1_298
.LBB1_328:                              # %if.then.i.i979
	ld.d	$a1, $sp, 488
	addi.d	$a1, $a1, 1
	pcaddu18i	$ra, %call36(_ZdlPvm)
	jirl	$ra, $ra, 0
	ld.d	$a0, $sp, 440
	addi.d	$a1, $sp, 456
	beq	$a0, $a1, .LBB1_299
.LBB1_329:                              # %if.then.i.i987
	ld.d	$a1, $sp, 456
	addi.d	$a1, $a1, 1
	pcaddu18i	$ra, %call36(_ZdlPvm)
	jirl	$ra, $ra, 0
	ld.d	$a0, $sp, 536
	addi.d	$a1, $sp, 552
	beq	$a0, $a1, .LBB1_300
.LBB1_330:                              # %if.then.i.i995
	ld.d	$a1, $sp, 552
	addi.d	$a1, $a1, 1
	pcaddu18i	$ra, %call36(_ZdlPvm)
	jirl	$ra, $ra, 0
	ld.d	$a0, $sp, 568
	addi.d	$a1, $sp, 584
	beq	$a0, $a1, .LBB1_301
.LBB1_331:                              # %if.then.i.i1003
	ld.d	$a1, $sp, 584
	addi.d	$a1, $a1, 1
	pcaddu18i	$ra, %call36(_ZdlPvm)
	jirl	$ra, $ra, 0
	ld.d	$a0, $sp, 600
	addi.d	$a1, $sp, 616
	beq	$a0, $a1, .LBB1_302
.LBB1_332:                              # %if.then.i.i1011
	ld.d	$a1, $sp, 616
	addi.d	$a1, $a1, 1
	pcaddu18i	$ra, %call36(_ZdlPvm)
	jirl	$ra, $ra, 0
	ld.d	$a0, $sp, 632
	addi.d	$a1, $sp, 648
	beq	$a0, $a1, .LBB1_303
.LBB1_333:                              # %if.then.i.i1019
	ld.d	$a1, $sp, 648
	addi.d	$a1, $a1, 1
	pcaddu18i	$ra, %call36(_ZdlPvm)
	jirl	$ra, $ra, 0
	ld.d	$a0, $sp, 664
	addi.d	$a1, $sp, 680
	beq	$a0, $a1, .LBB1_304
.LBB1_334:                              # %if.then.i.i1027
	ld.d	$a1, $sp, 680
	addi.d	$a1, $a1, 1
	pcaddu18i	$ra, %call36(_ZdlPvm)
	jirl	$ra, $ra, 0
	ld.d	$a0, $sp, 696
	addi.d	$a1, $sp, 712
	beq	$a0, $a1, .LBB1_305
.LBB1_335:                              # %if.then.i.i1035
	ld.d	$a1, $sp, 712
	addi.d	$a1, $a1, 1
	pcaddu18i	$ra, %call36(_ZdlPvm)
	jirl	$ra, $ra, 0
	ld.d	$a0, $sp, 728
	addi.d	$a1, $sp, 744
	beq	$a0, $a1, .LBB1_306
.LBB1_336:                              # %if.then.i.i1043
	ld.d	$a1, $sp, 744
	addi.d	$a1, $a1, 1
	pcaddu18i	$ra, %call36(_ZdlPvm)
	jirl	$ra, $ra, 0
	ld.d	$a0, $sp, 760
	addi.d	$a1, $sp, 776
	beq	$a0, $a1, .LBB1_307
.LBB1_337:                              # %if.then.i.i1051
	ld.d	$a1, $sp, 776
	addi.d	$a1, $a1, 1
	pcaddu18i	$ra, %call36(_ZdlPvm)
	jirl	$ra, $ra, 0
	ld.d	$a0, $sp, 792
	addi.d	$a1, $sp, 808
	beq	$a0, $a1, .LBB1_308
.LBB1_338:                              # %if.then.i.i1059
	ld.d	$a1, $sp, 808
	addi.d	$a1, $a1, 1
	pcaddu18i	$ra, %call36(_ZdlPvm)
	jirl	$ra, $ra, 0
	ld.d	$a0, $sp, 824
	addi.d	$a1, $sp, 840
	beq	$a0, $a1, .LBB1_309
.LBB1_339:                              # %if.then.i.i1067
	ld.d	$a1, $sp, 840
	addi.d	$a1, $a1, 1
	pcaddu18i	$ra, %call36(_ZdlPvm)
	jirl	$ra, $ra, 0
	ld.d	$a0, $sp, 856
	addi.d	$a1, $sp, 872
	beq	$a0, $a1, .LBB1_310
.LBB1_340:                              # %if.then.i.i1075
	ld.d	$a1, $sp, 872
	addi.d	$a1, $a1, 1
	pcaddu18i	$ra, %call36(_ZdlPvm)
	jirl	$ra, $ra, 0
	ld.d	$a0, $sp, 888
	addi.d	$a1, $sp, 904
	beq	$a0, $a1, .LBB1_311
.LBB1_341:                              # %if.then.i.i1083
	ld.d	$a1, $sp, 904
	addi.d	$a1, $a1, 1
	pcaddu18i	$ra, %call36(_ZdlPvm)
	jirl	$ra, $ra, 0
	ld.d	$a0, $sp, 920
	addi.d	$a1, $sp, 936
	beq	$a0, $a1, .LBB1_312
.LBB1_342:                              # %if.then.i.i1091
	ld.d	$a1, $sp, 936
	addi.d	$a1, $a1, 1
	pcaddu18i	$ra, %call36(_ZdlPvm)
	jirl	$ra, $ra, 0
	ld.d	$a0, $sp, 984
	addi.d	$a1, $sp, 1000
	beq	$a0, $a1, .LBB1_344
.LBB1_343:                              # %if.then.i.i1099
	ld.d	$a1, $sp, 1000
	addi.d	$a1, $a1, 1
	pcaddu18i	$ra, %call36(_ZdlPvm)
	jirl	$ra, $ra, 0
.LBB1_344:                              # %ehcleanup367
	ori	$a0, $zero, 3344
	add.d	$a0, $sp, $a0
	ld.d	$a0, $a0, 0
	ori	$a1, $zero, 3360
	add.d	$a1, $sp, $a1
	bne	$a0, $a1, .LBB1_351
# %bb.345:                              # %ehcleanup368
	ld.d	$a0, $sp, 952
	addi.d	$a1, $sp, 968
	bne	$a0, $a1, .LBB1_352
.LBB1_346:                              # %ehcleanup371
	ld.d	$a0, $sp, 1016
	addi.d	$a1, $sp, 1032
	beq	$a0, $a1, .LBB1_348
.LBB1_347:                              # %if.then.i.i1123
	ld.d	$a1, $sp, 1032
	addi.d	$a1, $a1, 1
	pcaddu18i	$ra, %call36(_ZdlPvm)
	jirl	$ra, $ra, 0
.LBB1_348:                              # %ehcleanup372
	addi.d	$fp, $sp, 1048
	xor	$a0, $fp, $s1
	sltui	$a0, $a0, 1
	or	$a0, $s3, $a0
	bnez	$a0, .LBB1_350
	.p2align	4, , 16
.LBB1_349:                              # %arraydestroy.body378
                                        # =>This Inner Loop Header: Depth=1
	addi.d	$s1, $s1, -88
	move	$a0, $s1
	pcaddu18i	$ra, %call36(_ZN8TestCaseD2Ev)
	jirl	$ra, $ra, 0
	bne	$s1, $fp, .LBB1_349
.LBB1_350:                              # %eh.resume
	move	$a0, $s4
	pcaddu18i	$ra, %call36(_Unwind_Resume)
	jirl	$ra, $ra, 0
.LBB1_351:                              # %if.then.i.i1107
	ori	$a1, $zero, 3360
	add.d	$a1, $sp, $a1
	ld.d	$a1, $a1, 0
	addi.d	$a1, $a1, 1
	pcaddu18i	$ra, %call36(_ZdlPvm)
	jirl	$ra, $ra, 0
	ld.d	$a0, $sp, 952
	addi.d	$a1, $sp, 968
	beq	$a0, $a1, .LBB1_346
.LBB1_352:                              # %if.then.i.i1115
	ld.d	$a1, $sp, 968
	addi.d	$a1, $a1, 1
	pcaddu18i	$ra, %call36(_ZdlPvm)
	jirl	$ra, $ra, 0
	ld.d	$a0, $sp, 1016
	addi.d	$a1, $sp, 1032
	bne	$a0, $a1, .LBB1_347
	b	.LBB1_348
.LBB1_353:                              # %lpad251
.Ltmp162:                               # EH_LABEL
	b	.LBB1_355
.LBB1_354:                              # %lpad246
.Ltmp159:                               # EH_LABEL
.LBB1_355:                              # %ehcleanup307
	move	$s4, $a0
	move	$s3, $zero
	ld.d	$a0, $sp, 280
	addi.d	$a1, $sp, 296
	beq	$a0, $a1, .LBB1_292
	b	.LBB1_322
.LBB1_356:                              # %lpad239
.Ltmp156:                               # EH_LABEL
	move	$s4, $a0
	move	$s3, $zero
	ld.d	$a0, $sp, 312
	addi.d	$a1, $sp, 328
	beq	$a0, $a1, .LBB1_293
	b	.LBB1_323
.LBB1_357:                              # %lpad237
.Ltmp153:                               # EH_LABEL
	b	.LBB1_359
.LBB1_358:                              # %lpad232
.Ltmp150:                               # EH_LABEL
.LBB1_359:                              # %ehcleanup313
	move	$s4, $a0
	move	$s3, $zero
	ld.d	$a0, $sp, 344
	addi.d	$a1, $sp, 360
	beq	$a0, $a1, .LBB1_294
	b	.LBB1_324
.LBB1_360:                              # %lpad230
.Ltmp147:                               # EH_LABEL
	b	.LBB1_362
.LBB1_361:                              # %lpad225
.Ltmp144:                               # EH_LABEL
.LBB1_362:                              # %ehcleanup316
	move	$s4, $a0
	move	$s3, $zero
	ld.d	$a0, $sp, 376
	addi.d	$a1, $sp, 392
	beq	$a0, $a1, .LBB1_295
	b	.LBB1_325
.LBB1_363:                              # %lpad223
.Ltmp141:                               # EH_LABEL
	b	.LBB1_365
.LBB1_364:                              # %lpad218
.Ltmp138:                               # EH_LABEL
.LBB1_365:                              # %ehcleanup319
	move	$s4, $a0
	move	$s3, $zero
	ld.d	$a0, $sp, 408
	addi.d	$a1, $sp, 424
	beq	$a0, $a1, .LBB1_296
	b	.LBB1_326
.LBB1_366:                              # %lpad216
.Ltmp135:                               # EH_LABEL
	b	.LBB1_368
.LBB1_367:                              # %lpad211
.Ltmp132:                               # EH_LABEL
.LBB1_368:                              # %ehcleanup322
	move	$s4, $a0
	move	$s3, $zero
	ld.d	$a0, $sp, 504
	addi.d	$a1, $sp, 520
	beq	$a0, $a1, .LBB1_297
	b	.LBB1_327
.LBB1_369:                              # %lpad207
.Ltmp127:                               # EH_LABEL
	move	$s4, $a0
	move	$s3, $zero
	ld.d	$a0, $sp, 440
	addi.d	$a1, $sp, 456
	beq	$a0, $a1, .LBB1_299
	b	.LBB1_329
.LBB1_370:                              # %lpad201
.Ltmp124:                               # EH_LABEL
	move	$s4, $a0
	move	$s3, $zero
	ld.d	$a0, $sp, 536
	addi.d	$a1, $sp, 552
	beq	$a0, $a1, .LBB1_300
	b	.LBB1_330
.LBB1_371:                              # %lpad199
.Ltmp121:                               # EH_LABEL
	b	.LBB1_373
.LBB1_372:                              # %lpad194
.Ltmp118:                               # EH_LABEL
.LBB1_373:                              # %ehcleanup330
	move	$s4, $a0
	move	$s3, $zero
	ld.d	$a0, $sp, 568
	addi.d	$a1, $sp, 584
	beq	$a0, $a1, .LBB1_301
	b	.LBB1_331
.LBB1_374:                              # %lpad187
.Ltmp115:                               # EH_LABEL
	move	$s4, $a0
	move	$s3, $zero
	ld.d	$a0, $sp, 600
	addi.d	$a1, $sp, 616
	beq	$a0, $a1, .LBB1_302
	b	.LBB1_332
.LBB1_375:                              # %lpad185
.Ltmp112:                               # EH_LABEL
	b	.LBB1_377
.LBB1_376:                              # %lpad180
.Ltmp109:                               # EH_LABEL
.LBB1_377:                              # %ehcleanup336
	move	$s4, $a0
	move	$s3, $zero
	ld.d	$a0, $sp, 632
	addi.d	$a1, $sp, 648
	beq	$a0, $a1, .LBB1_303
	b	.LBB1_333
.LBB1_378:                              # %lpad178
.Ltmp106:                               # EH_LABEL
	b	.LBB1_380
.LBB1_379:                              # %lpad173
.Ltmp103:                               # EH_LABEL
.LBB1_380:                              # %ehcleanup339
	move	$s4, $a0
	move	$s3, $zero
	ld.d	$a0, $sp, 664
	addi.d	$a1, $sp, 680
	beq	$a0, $a1, .LBB1_304
	b	.LBB1_334
.LBB1_381:                              # %lpad171
.Ltmp100:                               # EH_LABEL
	b	.LBB1_383
.LBB1_382:                              # %lpad166
.Ltmp97:                                # EH_LABEL
.LBB1_383:                              # %ehcleanup342
	move	$s4, $a0
	move	$s3, $zero
	ld.d	$a0, $sp, 696
	addi.d	$a1, $sp, 712
	beq	$a0, $a1, .LBB1_305
	b	.LBB1_335
.LBB1_384:                              # %lpad164
.Ltmp94:                                # EH_LABEL
	b	.LBB1_386
.LBB1_385:                              # %lpad159
.Ltmp91:                                # EH_LABEL
.LBB1_386:                              # %ehcleanup345
	move	$s4, $a0
	move	$s3, $zero
	ld.d	$a0, $sp, 728
	addi.d	$a1, $sp, 744
	beq	$a0, $a1, .LBB1_306
	b	.LBB1_336
.LBB1_387:                              # %lpad157
.Ltmp88:                                # EH_LABEL
	b	.LBB1_389
.LBB1_388:                              # %lpad152
.Ltmp85:                                # EH_LABEL
.LBB1_389:                              # %ehcleanup348
	move	$s4, $a0
	move	$s3, $zero
	ld.d	$a0, $sp, 760
	addi.d	$a1, $sp, 776
	beq	$a0, $a1, .LBB1_307
	b	.LBB1_337
.LBB1_390:                              # %lpad150
.Ltmp82:                                # EH_LABEL
	b	.LBB1_392
.LBB1_391:                              # %lpad145
.Ltmp79:                                # EH_LABEL
.LBB1_392:                              # %ehcleanup351
	move	$s4, $a0
	move	$s3, $zero
	ld.d	$a0, $sp, 792
	addi.d	$a1, $sp, 808
	beq	$a0, $a1, .LBB1_308
	b	.LBB1_338
.LBB1_393:                              # %lpad138
.Ltmp76:                                # EH_LABEL
	move	$s4, $a0
	move	$s3, $zero
	ld.d	$a0, $sp, 824
	addi.d	$a1, $sp, 840
	beq	$a0, $a1, .LBB1_309
	b	.LBB1_339
.LBB1_394:                              # %lpad136
.Ltmp73:                                # EH_LABEL
	b	.LBB1_396
.LBB1_395:                              # %lpad131
.Ltmp70:                                # EH_LABEL
.LBB1_396:                              # %ehcleanup357
	move	$s4, $a0
	move	$s3, $zero
	ld.d	$a0, $sp, 856
	addi.d	$a1, $sp, 872
	beq	$a0, $a1, .LBB1_310
	b	.LBB1_340
.LBB1_397:                              # %lpad129
.Ltmp67:                                # EH_LABEL
	b	.LBB1_399
.LBB1_398:                              # %lpad124
.Ltmp64:                                # EH_LABEL
.LBB1_399:                              # %ehcleanup360
	move	$s4, $a0
	move	$s3, $zero
	ld.d	$a0, $sp, 888
	addi.d	$a1, $sp, 904
	beq	$a0, $a1, .LBB1_311
	b	.LBB1_341
.LBB1_400:                              # %lpad122
.Ltmp61:                                # EH_LABEL
	b	.LBB1_402
.LBB1_401:                              # %lpad117
.Ltmp58:                                # EH_LABEL
.LBB1_402:                              # %ehcleanup363
	move	$s4, $a0
	move	$s3, $zero
	ld.d	$a0, $sp, 920
	addi.d	$a1, $sp, 936
	beq	$a0, $a1, .LBB1_312
	b	.LBB1_342
.LBB1_403:                              # %lpad115
.Ltmp55:                                # EH_LABEL
	b	.LBB1_405
.LBB1_404:                              # %lpad110
.Ltmp52:                                # EH_LABEL
.LBB1_405:                              # %ehcleanup366
	move	$s4, $a0
	move	$s3, $zero
	ld.d	$a0, $sp, 984
	addi.d	$a1, $sp, 1000
	bne	$a0, $a1, .LBB1_343
	b	.LBB1_344
.LBB1_406:                              # %lpad106
.Ltmp47:                                # EH_LABEL
	move	$s4, $a0
	move	$s3, $zero
	ld.d	$a0, $sp, 952
	addi.d	$a1, $sp, 968
	beq	$a0, $a1, .LBB1_346
	b	.LBB1_352
.LBB1_407:                              # %lpad100
.Ltmp44:                                # EH_LABEL
	move	$s4, $a0
	move	$s3, $zero
	ld.d	$a0, $sp, 1016
	addi.d	$a1, $sp, 1032
	bne	$a0, $a1, .LBB1_347
	b	.LBB1_348
.LBB1_408:                              # %ehcleanup372.thread
.Ltmp41:                                # EH_LABEL
	pcaddu18i	$ra, %call36(_Unwind_Resume)
	jirl	$ra, $ra, 0
.LBB1_409:                              # %lpad57
.Ltmp38:                                # EH_LABEL
	move	$s4, $a0
	addi.d	$a0, $sp, 1224
	pcaddu18i	$ra, %call36(_ZN8TestCaseD2Ev)
	jirl	$ra, $ra, 0
	addi.d	$a0, $sp, 1136
	pcaddu18i	$ra, %call36(_ZN8TestCaseD2Ev)
	jirl	$ra, $ra, 0
	addi.d	$a0, $sp, 1048
	pcaddu18i	$ra, %call36(_ZN8TestCaseD2Ev)
	jirl	$ra, $ra, 0
	ori	$s2, $zero, 1
	b	.LBB1_411
.LBB1_410:                              # %lpad52
.Ltmp35:                                # EH_LABEL
	move	$s4, $a0
	move	$s2, $zero
.LBB1_411:                              # %ehcleanup73
	ori	$a0, $zero, 3248
	add.d	$a0, $sp, $a0
	ld.d	$a0, $a0, 0
	beq	$a0, $s1, .LBB1_414
# %bb.412:                              # %if.then.i.i875
	ori	$a1, $zero, 3264
	add.d	$a1, $sp, $a1
	ld.d	$a1, $a1, 0
	addi.d	$a1, $a1, 1
	pcaddu18i	$ra, %call36(_ZdlPvm)
	jirl	$ra, $ra, 0
	b	.LBB1_414
.LBB1_413:                              # %lpad50
.Ltmp32:                                # EH_LABEL
	move	$s4, $a0
	move	$s2, $zero
.LBB1_414:                              # %ehcleanup76
	move	$s1, $s0
	b	.LBB1_416
.LBB1_415:                              # %lpad45
.Ltmp29:                                # EH_LABEL
	move	$s4, $a0
	move	$s2, $zero
.LBB1_416:                              # %ehcleanup76
	ori	$a0, $zero, 3280
	add.d	$a0, $sp, $a0
	ld.d	$a0, $a0, 0
	beq	$a0, $s3, .LBB1_419
# %bb.417:                              # %if.then.i.i883
	ori	$a1, $zero, 3296
	add.d	$a1, $sp, $a1
	ld.d	$a1, $a1, 0
	addi.d	$a1, $a1, 1
	pcaddu18i	$ra, %call36(_ZdlPvm)
	jirl	$ra, $ra, 0
	b	.LBB1_419
.LBB1_418:                              # %lpad38
.Ltmp26:                                # EH_LABEL
	move	$s4, $a0
	move	$s2, $zero
.LBB1_419:                              # %ehcleanup79
	ori	$a0, $zero, 3312
	add.d	$a0, $sp, $a0
	ld.d	$a0, $a0, 0
	beq	$a0, $fp, .LBB1_421
# %bb.420:                              # %if.then.i.i891
	ori	$a1, $zero, 3328
	add.d	$a1, $sp, $a1
	ld.d	$a1, $a1, 0
	addi.d	$a1, $a1, 1
	pcaddu18i	$ra, %call36(_ZdlPvm)
	jirl	$ra, $ra, 0
.LBB1_421:                              # %ehcleanup80
	addi.d	$fp, $sp, 1048
	xor	$a0, $fp, $s1
	sltui	$a0, $a0, 1
	or	$a0, $s2, $a0
	bnez	$a0, .LBB1_350
	.p2align	4, , 16
.LBB1_422:                              # %arraydestroy.body86
                                        # =>This Inner Loop Header: Depth=1
	addi.d	$s1, $s1, -88
	move	$a0, $s1
	pcaddu18i	$ra, %call36(_ZN8TestCaseD2Ev)
	jirl	$ra, $ra, 0
	bne	$s1, $fp, .LBB1_422
	b	.LBB1_350
.LBB1_423:                              # %ehcleanup80.thread
.Ltmp23:                                # EH_LABEL
	pcaddu18i	$ra, %call36(_Unwind_Resume)
	jirl	$ra, $ra, 0
.LBB1_424:                              # %lpad14
.Ltmp20:                                # EH_LABEL
	move	$s4, $a0
	addi.d	$a0, $sp, 1368
	pcaddu18i	$ra, %call36(_ZNSt4pairINSt7__cxx1112basic_stringIcSt11char_traitsIcESaIcEEES5_ED2Ev)
	jirl	$ra, $ra, 0
	addi.d	$a0, $sp, 1304
	pcaddu18i	$ra, %call36(_ZNSt4pairINSt7__cxx1112basic_stringIcSt11char_traitsIcESaIcEEES5_ED2Ev)
	jirl	$ra, $ra, 0
	addi.d	$a0, $sp, 1240
	pcaddu18i	$ra, %call36(_ZNSt4pairINSt7__cxx1112basic_stringIcSt11char_traitsIcESaIcEEES5_ED2Ev)
	jirl	$ra, $ra, 0
	addi.d	$a0, $sp, 1176
	pcaddu18i	$ra, %call36(_ZNSt4pairINSt7__cxx1112basic_stringIcSt11char_traitsIcESaIcEEES5_ED2Ev)
	jirl	$ra, $ra, 0
	addi.d	$a0, $sp, 1112
	pcaddu18i	$ra, %call36(_ZNSt4pairINSt7__cxx1112basic_stringIcSt11char_traitsIcESaIcEEES5_ED2Ev)
	jirl	$ra, $ra, 0
	addi.d	$a0, $sp, 1048
	pcaddu18i	$ra, %call36(_ZNSt4pairINSt7__cxx1112basic_stringIcSt11char_traitsIcESaIcEEES5_ED2Ev)
	jirl	$ra, $ra, 0
	ori	$fp, $zero, 1
	b	.LBB1_428
.LBB1_425:                              # %lpad209
.Ltmp201:                               # EH_LABEL
	move	$s4, $a0
	move	$s3, $zero
	ld.d	$a0, $sp, 472
	addi.d	$a1, $sp, 488
	beq	$a0, $a1, .LBB1_298
	b	.LBB1_328
.LBB1_426:                              # %lpad108
.Ltmp204:                               # EH_LABEL
	move	$s4, $a0
	move	$s3, $zero
	b	.LBB1_344
.LBB1_427:                              # %lpad8
.Ltmp17:                                # EH_LABEL
	move	$s4, $a0
	move	$fp, $zero
.LBB1_428:                              # %ehcleanup
	ori	$a0, $zero, 3344
	add.d	$a0, $sp, $a0
	ld.d	$a0, $a0, 0
	beq	$a0, $s5, .LBB1_434
# %bb.429:                              # %if.then.i.i867
	ori	$a1, $zero, 3360
	add.d	$a1, $sp, $a1
	ld.d	$a1, $a1, 0
	addi.d	$a1, $a1, 1
	pcaddu18i	$ra, %call36(_ZdlPvm)
	jirl	$ra, $ra, 0
	b	.LBB1_434
.LBB1_430:                              # %lpad
.Ltmp6:                                 # EH_LABEL
	move	$s4, $a0
	b	.LBB1_433
.LBB1_431:                              # %lpad.i.i
.Ltmp207:                               # EH_LABEL
	ori	$a1, $zero, 3344
	add.d	$a1, $sp, $a1
	ld.d	$a2, $a1, 0
	move	$s4, $a0
	beq	$a2, $s5, .LBB1_433
# %bb.432:                              # %if.then.i.i15.i.i
	ori	$a0, $zero, 3360
	add.d	$a0, $sp, $a0
	ld.d	$a0, $a0, 0
	addi.d	$a1, $a0, 1
	move	$a0, $a2
	pcaddu18i	$ra, %call36(_ZdlPvm)
	jirl	$ra, $ra, 0
.LBB1_433:                              # %ehcleanup24
	move	$fp, $zero
.LBB1_434:                              # %ehcleanup24
	bnez	$fp, .LBB1_350
# %bb.435:                              # %ehcleanup24
	addi.d	$a0, $sp, 1048
	xor	$a0, $a0, $s0
	sltui	$a0, $a0, 1
	bnez	$a0, .LBB1_350
# %bb.436:                              # %arraydestroy.body25.preheader
	addi.d	$fp, $sp, 1048
	.p2align	4, , 16
.LBB1_437:                              # %arraydestroy.body25
                                        # =>This Inner Loop Header: Depth=1
	addi.d	$s0, $s0, -64
	move	$a0, $s0
	pcaddu18i	$ra, %call36(_ZNSt4pairINSt7__cxx1112basic_stringIcSt11char_traitsIcESaIcEEES5_ED2Ev)
	jirl	$ra, $ra, 0
	bne	$s0, $fp, .LBB1_437
	b	.LBB1_350
.Lfunc_end1:
	.size	_ZN12_GLOBAL__N_117AddComplexityTestERKNSt7__cxx1112basic_stringIcSt11char_traitsIcESaIcEEES7_S7_S7_i, .Lfunc_end1-_ZN12_GLOBAL__N_117AddComplexityTestERKNSt7__cxx1112basic_stringIcSt11char_traitsIcESaIcEEES7_S7_S7_i
	.cfi_endproc
	.section	.gcc_except_table,"a",@progbits
	.p2align	2, 0x0
GCC_except_table1:
.Lexception0:
	.byte	255                             # @LPStart Encoding = omit
	.byte	255                             # @TType Encoding = omit
	.byte	1                               # Call site Encoding = uleb128
	.uleb128 .Lcst_end0-.Lcst_begin0
.Lcst_begin0:
	.uleb128 .Ltmp0-.Lfunc_begin0           # >> Call Site 1 <<
	.uleb128 .Ltmp5-.Ltmp0                  #   Call between .Ltmp0 and .Ltmp5
	.uleb128 .Ltmp6-.Lfunc_begin0           #     jumps to .Ltmp6
	.byte	0                               #   On action: cleanup
	.uleb128 .Ltmp7-.Lfunc_begin0           # >> Call Site 2 <<
	.uleb128 .Ltmp12-.Ltmp7                 #   Call between .Ltmp7 and .Ltmp12
	.uleb128 .Ltmp207-.Lfunc_begin0         #     jumps to .Ltmp207
	.byte	0                               #   On action: cleanup
	.uleb128 .Ltmp12-.Lfunc_begin0          # >> Call Site 3 <<
	.uleb128 .Ltmp13-.Ltmp12                #   Call between .Ltmp12 and .Ltmp13
	.byte	0                               #     has no landing pad
	.byte	0                               #   On action: cleanup
	.uleb128 .Ltmp13-.Lfunc_begin0          # >> Call Site 4 <<
	.uleb128 .Ltmp16-.Ltmp13                #   Call between .Ltmp13 and .Ltmp16
	.uleb128 .Ltmp17-.Lfunc_begin0          #     jumps to .Ltmp17
	.byte	0                               #   On action: cleanup
	.uleb128 .Ltmp18-.Lfunc_begin0          # >> Call Site 5 <<
	.uleb128 .Ltmp19-.Ltmp18                #   Call between .Ltmp18 and .Ltmp19
	.uleb128 .Ltmp20-.Lfunc_begin0          #     jumps to .Ltmp20
	.byte	0                               #   On action: cleanup
	.uleb128 .Ltmp19-.Lfunc_begin0          # >> Call Site 6 <<
	.uleb128 .Ltmp21-.Ltmp19                #   Call between .Ltmp19 and .Ltmp21
	.byte	0                               #     has no landing pad
	.byte	0                               #   On action: cleanup
	.uleb128 .Ltmp21-.Lfunc_begin0          # >> Call Site 7 <<
	.uleb128 .Ltmp22-.Ltmp21                #   Call between .Ltmp21 and .Ltmp22
	.uleb128 .Ltmp23-.Lfunc_begin0          #     jumps to .Ltmp23
	.byte	0                               #   On action: cleanup
	.uleb128 .Ltmp24-.Lfunc_begin0          # >> Call Site 8 <<
	.uleb128 .Ltmp25-.Ltmp24                #   Call between .Ltmp24 and .Ltmp25
	.uleb128 .Ltmp26-.Lfunc_begin0          #     jumps to .Ltmp26
	.byte	0                               #   On action: cleanup
	.uleb128 .Ltmp27-.Lfunc_begin0          # >> Call Site 9 <<
	.uleb128 .Ltmp28-.Ltmp27                #   Call between .Ltmp27 and .Ltmp28
	.uleb128 .Ltmp29-.Lfunc_begin0          #     jumps to .Ltmp29
	.byte	0                               #   On action: cleanup
	.uleb128 .Ltmp30-.Lfunc_begin0          # >> Call Site 10 <<
	.uleb128 .Ltmp31-.Ltmp30                #   Call between .Ltmp30 and .Ltmp31
	.uleb128 .Ltmp32-.Lfunc_begin0          #     jumps to .Ltmp32
	.byte	0                               #   On action: cleanup
	.uleb128 .Ltmp33-.Lfunc_begin0          # >> Call Site 11 <<
	.uleb128 .Ltmp34-.Ltmp33                #   Call between .Ltmp33 and .Ltmp34
	.uleb128 .Ltmp35-.Lfunc_begin0          #     jumps to .Ltmp35
	.byte	0                               #   On action: cleanup
	.uleb128 .Ltmp36-.Lfunc_begin0          # >> Call Site 12 <<
	.uleb128 .Ltmp37-.Ltmp36                #   Call between .Ltmp36 and .Ltmp37
	.uleb128 .Ltmp38-.Lfunc_begin0          #     jumps to .Ltmp38
	.byte	0                               #   On action: cleanup
	.uleb128 .Ltmp37-.Lfunc_begin0          # >> Call Site 13 <<
	.uleb128 .Ltmp39-.Ltmp37                #   Call between .Ltmp37 and .Ltmp39
	.byte	0                               #     has no landing pad
	.byte	0                               #   On action: cleanup
	.uleb128 .Ltmp39-.Lfunc_begin0          # >> Call Site 14 <<
	.uleb128 .Ltmp40-.Ltmp39                #   Call between .Ltmp39 and .Ltmp40
	.uleb128 .Ltmp41-.Lfunc_begin0          #     jumps to .Ltmp41
	.byte	0                               #   On action: cleanup
	.uleb128 .Ltmp42-.Lfunc_begin0          # >> Call Site 15 <<
	.uleb128 .Ltmp43-.Ltmp42                #   Call between .Ltmp42 and .Ltmp43
	.uleb128 .Ltmp44-.Lfunc_begin0          #     jumps to .Ltmp44
	.byte	0                               #   On action: cleanup
	.uleb128 .Ltmp43-.Lfunc_begin0          # >> Call Site 16 <<
	.uleb128 .Ltmp45-.Ltmp43                #   Call between .Ltmp43 and .Ltmp45
	.byte	0                               #     has no landing pad
	.byte	0                               #   On action: cleanup
	.uleb128 .Ltmp45-.Lfunc_begin0          # >> Call Site 17 <<
	.uleb128 .Ltmp46-.Ltmp45                #   Call between .Ltmp45 and .Ltmp46
	.uleb128 .Ltmp47-.Lfunc_begin0          #     jumps to .Ltmp47
	.byte	0                               #   On action: cleanup
	.uleb128 .Ltmp46-.Lfunc_begin0          # >> Call Site 18 <<
	.uleb128 .Ltmp48-.Ltmp46                #   Call between .Ltmp46 and .Ltmp48
	.byte	0                               #     has no landing pad
	.byte	0                               #   On action: cleanup
	.uleb128 .Ltmp48-.Lfunc_begin0          # >> Call Site 19 <<
	.uleb128 .Ltmp49-.Ltmp48                #   Call between .Ltmp48 and .Ltmp49
	.uleb128 .Ltmp204-.Lfunc_begin0         #     jumps to .Ltmp204
	.byte	0                               #   On action: cleanup
	.uleb128 .Ltmp49-.Lfunc_begin0          # >> Call Site 20 <<
	.uleb128 .Ltmp50-.Ltmp49                #   Call between .Ltmp49 and .Ltmp50
	.byte	0                               #     has no landing pad
	.byte	0                               #   On action: cleanup
	.uleb128 .Ltmp50-.Lfunc_begin0          # >> Call Site 21 <<
	.uleb128 .Ltmp51-.Ltmp50                #   Call between .Ltmp50 and .Ltmp51
	.uleb128 .Ltmp52-.Lfunc_begin0          #     jumps to .Ltmp52
	.byte	0                               #   On action: cleanup
	.uleb128 .Ltmp53-.Lfunc_begin0          # >> Call Site 22 <<
	.uleb128 .Ltmp54-.Ltmp53                #   Call between .Ltmp53 and .Ltmp54
	.uleb128 .Ltmp55-.Lfunc_begin0          #     jumps to .Ltmp55
	.byte	0                               #   On action: cleanup
	.uleb128 .Ltmp56-.Lfunc_begin0          # >> Call Site 23 <<
	.uleb128 .Ltmp57-.Ltmp56                #   Call between .Ltmp56 and .Ltmp57
	.uleb128 .Ltmp58-.Lfunc_begin0          #     jumps to .Ltmp58
	.byte	0                               #   On action: cleanup
	.uleb128 .Ltmp59-.Lfunc_begin0          # >> Call Site 24 <<
	.uleb128 .Ltmp60-.Ltmp59                #   Call between .Ltmp59 and .Ltmp60
	.uleb128 .Ltmp61-.Lfunc_begin0          #     jumps to .Ltmp61
	.byte	0                               #   On action: cleanup
	.uleb128 .Ltmp62-.Lfunc_begin0          # >> Call Site 25 <<
	.uleb128 .Ltmp63-.Ltmp62                #   Call between .Ltmp62 and .Ltmp63
	.uleb128 .Ltmp64-.Lfunc_begin0          #     jumps to .Ltmp64
	.byte	0                               #   On action: cleanup
	.uleb128 .Ltmp65-.Lfunc_begin0          # >> Call Site 26 <<
	.uleb128 .Ltmp66-.Ltmp65                #   Call between .Ltmp65 and .Ltmp66
	.uleb128 .Ltmp67-.Lfunc_begin0          #     jumps to .Ltmp67
	.byte	0                               #   On action: cleanup
	.uleb128 .Ltmp68-.Lfunc_begin0          # >> Call Site 27 <<
	.uleb128 .Ltmp69-.Ltmp68                #   Call between .Ltmp68 and .Ltmp69
	.uleb128 .Ltmp70-.Lfunc_begin0          #     jumps to .Ltmp70
	.byte	0                               #   On action: cleanup
	.uleb128 .Ltmp71-.Lfunc_begin0          # >> Call Site 28 <<
	.uleb128 .Ltmp72-.Ltmp71                #   Call between .Ltmp71 and .Ltmp72
	.uleb128 .Ltmp73-.Lfunc_begin0          #     jumps to .Ltmp73
	.byte	0                               #   On action: cleanup
	.uleb128 .Ltmp74-.Lfunc_begin0          # >> Call Site 29 <<
	.uleb128 .Ltmp75-.Ltmp74                #   Call between .Ltmp74 and .Ltmp75
	.uleb128 .Ltmp76-.Lfunc_begin0          #     jumps to .Ltmp76
	.byte	0                               #   On action: cleanup
	.uleb128 .Ltmp77-.Lfunc_begin0          # >> Call Site 30 <<
	.uleb128 .Ltmp78-.Ltmp77                #   Call between .Ltmp77 and .Ltmp78
	.uleb128 .Ltmp79-.Lfunc_begin0          #     jumps to .Ltmp79
	.byte	0                               #   On action: cleanup
	.uleb128 .Ltmp80-.Lfunc_begin0          # >> Call Site 31 <<
	.uleb128 .Ltmp81-.Ltmp80                #   Call between .Ltmp80 and .Ltmp81
	.uleb128 .Ltmp82-.Lfunc_begin0          #     jumps to .Ltmp82
	.byte	0                               #   On action: cleanup
	.uleb128 .Ltmp83-.Lfunc_begin0          # >> Call Site 32 <<
	.uleb128 .Ltmp84-.Ltmp83                #   Call between .Ltmp83 and .Ltmp84
	.uleb128 .Ltmp85-.Lfunc_begin0          #     jumps to .Ltmp85
	.byte	0                               #   On action: cleanup
	.uleb128 .Ltmp86-.Lfunc_begin0          # >> Call Site 33 <<
	.uleb128 .Ltmp87-.Ltmp86                #   Call between .Ltmp86 and .Ltmp87
	.uleb128 .Ltmp88-.Lfunc_begin0          #     jumps to .Ltmp88
	.byte	0                               #   On action: cleanup
	.uleb128 .Ltmp89-.Lfunc_begin0          # >> Call Site 34 <<
	.uleb128 .Ltmp90-.Ltmp89                #   Call between .Ltmp89 and .Ltmp90
	.uleb128 .Ltmp91-.Lfunc_begin0          #     jumps to .Ltmp91
	.byte	0                               #   On action: cleanup
	.uleb128 .Ltmp92-.Lfunc_begin0          # >> Call Site 35 <<
	.uleb128 .Ltmp93-.Ltmp92                #   Call between .Ltmp92 and .Ltmp93
	.uleb128 .Ltmp94-.Lfunc_begin0          #     jumps to .Ltmp94
	.byte	0                               #   On action: cleanup
	.uleb128 .Ltmp95-.Lfunc_begin0          # >> Call Site 36 <<
	.uleb128 .Ltmp96-.Ltmp95                #   Call between .Ltmp95 and .Ltmp96
	.uleb128 .Ltmp97-.Lfunc_begin0          #     jumps to .Ltmp97
	.byte	0                               #   On action: cleanup
	.uleb128 .Ltmp98-.Lfunc_begin0          # >> Call Site 37 <<
	.uleb128 .Ltmp99-.Ltmp98                #   Call between .Ltmp98 and .Ltmp99
	.uleb128 .Ltmp100-.Lfunc_begin0         #     jumps to .Ltmp100
	.byte	0                               #   On action: cleanup
	.uleb128 .Ltmp101-.Lfunc_begin0         # >> Call Site 38 <<
	.uleb128 .Ltmp102-.Ltmp101              #   Call between .Ltmp101 and .Ltmp102
	.uleb128 .Ltmp103-.Lfunc_begin0         #     jumps to .Ltmp103
	.byte	0                               #   On action: cleanup
	.uleb128 .Ltmp104-.Lfunc_begin0         # >> Call Site 39 <<
	.uleb128 .Ltmp105-.Ltmp104              #   Call between .Ltmp104 and .Ltmp105
	.uleb128 .Ltmp106-.Lfunc_begin0         #     jumps to .Ltmp106
	.byte	0                               #   On action: cleanup
	.uleb128 .Ltmp107-.Lfunc_begin0         # >> Call Site 40 <<
	.uleb128 .Ltmp108-.Ltmp107              #   Call between .Ltmp107 and .Ltmp108
	.uleb128 .Ltmp109-.Lfunc_begin0         #     jumps to .Ltmp109
	.byte	0                               #   On action: cleanup
	.uleb128 .Ltmp110-.Lfunc_begin0         # >> Call Site 41 <<
	.uleb128 .Ltmp111-.Ltmp110              #   Call between .Ltmp110 and .Ltmp111
	.uleb128 .Ltmp112-.Lfunc_begin0         #     jumps to .Ltmp112
	.byte	0                               #   On action: cleanup
	.uleb128 .Ltmp113-.Lfunc_begin0         # >> Call Site 42 <<
	.uleb128 .Ltmp114-.Ltmp113              #   Call between .Ltmp113 and .Ltmp114
	.uleb128 .Ltmp115-.Lfunc_begin0         #     jumps to .Ltmp115
	.byte	0                               #   On action: cleanup
	.uleb128 .Ltmp116-.Lfunc_begin0         # >> Call Site 43 <<
	.uleb128 .Ltmp117-.Ltmp116              #   Call between .Ltmp116 and .Ltmp117
	.uleb128 .Ltmp118-.Lfunc_begin0         #     jumps to .Ltmp118
	.byte	0                               #   On action: cleanup
	.uleb128 .Ltmp119-.Lfunc_begin0         # >> Call Site 44 <<
	.uleb128 .Ltmp120-.Ltmp119              #   Call between .Ltmp119 and .Ltmp120
	.uleb128 .Ltmp121-.Lfunc_begin0         #     jumps to .Ltmp121
	.byte	0                               #   On action: cleanup
	.uleb128 .Ltmp122-.Lfunc_begin0         # >> Call Site 45 <<
	.uleb128 .Ltmp123-.Ltmp122              #   Call between .Ltmp122 and .Ltmp123
	.uleb128 .Ltmp124-.Lfunc_begin0         #     jumps to .Ltmp124
	.byte	0                               #   On action: cleanup
	.uleb128 .Ltmp123-.Lfunc_begin0         # >> Call Site 46 <<
	.uleb128 .Ltmp125-.Ltmp123              #   Call between .Ltmp123 and .Ltmp125
	.byte	0                               #     has no landing pad
	.byte	0                               #   On action: cleanup
	.uleb128 .Ltmp125-.Lfunc_begin0         # >> Call Site 47 <<
	.uleb128 .Ltmp126-.Ltmp125              #   Call between .Ltmp125 and .Ltmp126
	.uleb128 .Ltmp127-.Lfunc_begin0         #     jumps to .Ltmp127
	.byte	0                               #   On action: cleanup
	.uleb128 .Ltmp126-.Lfunc_begin0         # >> Call Site 48 <<
	.uleb128 .Ltmp128-.Ltmp126              #   Call between .Ltmp126 and .Ltmp128
	.byte	0                               #     has no landing pad
	.byte	0                               #   On action: cleanup
	.uleb128 .Ltmp128-.Lfunc_begin0         # >> Call Site 49 <<
	.uleb128 .Ltmp129-.Ltmp128              #   Call between .Ltmp128 and .Ltmp129
	.uleb128 .Ltmp201-.Lfunc_begin0         #     jumps to .Ltmp201
	.byte	0                               #   On action: cleanup
	.uleb128 .Ltmp129-.Lfunc_begin0         # >> Call Site 50 <<
	.uleb128 .Ltmp130-.Ltmp129              #   Call between .Ltmp129 and .Ltmp130
	.byte	0                               #     has no landing pad
	.byte	0                               #   On action: cleanup
	.uleb128 .Ltmp130-.Lfunc_begin0         # >> Call Site 51 <<
	.uleb128 .Ltmp131-.Ltmp130              #   Call between .Ltmp130 and .Ltmp131
	.uleb128 .Ltmp132-.Lfunc_begin0         #     jumps to .Ltmp132
	.byte	0                               #   On action: cleanup
	.uleb128 .Ltmp133-.Lfunc_begin0         # >> Call Site 52 <<
	.uleb128 .Ltmp134-.Ltmp133              #   Call between .Ltmp133 and .Ltmp134
	.uleb128 .Ltmp135-.Lfunc_begin0         #     jumps to .Ltmp135
	.byte	0                               #   On action: cleanup
	.uleb128 .Ltmp136-.Lfunc_begin0         # >> Call Site 53 <<
	.uleb128 .Ltmp137-.Ltmp136              #   Call between .Ltmp136 and .Ltmp137
	.uleb128 .Ltmp138-.Lfunc_begin0         #     jumps to .Ltmp138
	.byte	0                               #   On action: cleanup
	.uleb128 .Ltmp139-.Lfunc_begin0         # >> Call Site 54 <<
	.uleb128 .Ltmp140-.Ltmp139              #   Call between .Ltmp139 and .Ltmp140
	.uleb128 .Ltmp141-.Lfunc_begin0         #     jumps to .Ltmp141
	.byte	0                               #   On action: cleanup
	.uleb128 .Ltmp142-.Lfunc_begin0         # >> Call Site 55 <<
	.uleb128 .Ltmp143-.Ltmp142              #   Call between .Ltmp142 and .Ltmp143
	.uleb128 .Ltmp144-.Lfunc_begin0         #     jumps to .Ltmp144
	.byte	0                               #   On action: cleanup
	.uleb128 .Ltmp145-.Lfunc_begin0         # >> Call Site 56 <<
	.uleb128 .Ltmp146-.Ltmp145              #   Call between .Ltmp145 and .Ltmp146
	.uleb128 .Ltmp147-.Lfunc_begin0         #     jumps to .Ltmp147
	.byte	0                               #   On action: cleanup
	.uleb128 .Ltmp148-.Lfunc_begin0         # >> Call Site 57 <<
	.uleb128 .Ltmp149-.Ltmp148              #   Call between .Ltmp148 and .Ltmp149
	.uleb128 .Ltmp150-.Lfunc_begin0         #     jumps to .Ltmp150
	.byte	0                               #   On action: cleanup
	.uleb128 .Ltmp151-.Lfunc_begin0         # >> Call Site 58 <<
	.uleb128 .Ltmp152-.Ltmp151              #   Call between .Ltmp151 and .Ltmp152
	.uleb128 .Ltmp153-.Lfunc_begin0         #     jumps to .Ltmp153
	.byte	0                               #   On action: cleanup
	.uleb128 .Ltmp154-.Lfunc_begin0         # >> Call Site 59 <<
	.uleb128 .Ltmp155-.Ltmp154              #   Call between .Ltmp154 and .Ltmp155
	.uleb128 .Ltmp156-.Lfunc_begin0         #     jumps to .Ltmp156
	.byte	0                               #   On action: cleanup
	.uleb128 .Ltmp157-.Lfunc_begin0         # >> Call Site 60 <<
	.uleb128 .Ltmp158-.Ltmp157              #   Call between .Ltmp157 and .Ltmp158
	.uleb128 .Ltmp159-.Lfunc_begin0         #     jumps to .Ltmp159
	.byte	0                               #   On action: cleanup
	.uleb128 .Ltmp160-.Lfunc_begin0         # >> Call Site 61 <<
	.uleb128 .Ltmp161-.Ltmp160              #   Call between .Ltmp160 and .Ltmp161
	.uleb128 .Ltmp162-.Lfunc_begin0         #     jumps to .Ltmp162
	.byte	0                               #   On action: cleanup
	.uleb128 .Ltmp163-.Lfunc_begin0         # >> Call Site 62 <<
	.uleb128 .Ltmp164-.Ltmp163              #   Call between .Ltmp163 and .Ltmp164
	.uleb128 .Ltmp165-.Lfunc_begin0         #     jumps to .Ltmp165
	.byte	0                               #   On action: cleanup
	.uleb128 .Ltmp166-.Lfunc_begin0         # >> Call Site 63 <<
	.uleb128 .Ltmp167-.Ltmp166              #   Call between .Ltmp166 and .Ltmp167
	.uleb128 .Ltmp168-.Lfunc_begin0         #     jumps to .Ltmp168
	.byte	0                               #   On action: cleanup
	.uleb128 .Ltmp169-.Lfunc_begin0         # >> Call Site 64 <<
	.uleb128 .Ltmp170-.Ltmp169              #   Call between .Ltmp169 and .Ltmp170
	.uleb128 .Ltmp171-.Lfunc_begin0         #     jumps to .Ltmp171
	.byte	0                               #   On action: cleanup
	.uleb128 .Ltmp172-.Lfunc_begin0         # >> Call Site 65 <<
	.uleb128 .Ltmp173-.Ltmp172              #   Call between .Ltmp172 and .Ltmp173
	.uleb128 .Ltmp174-.Lfunc_begin0         #     jumps to .Ltmp174
	.byte	0                               #   On action: cleanup
	.uleb128 .Ltmp175-.Lfunc_begin0         # >> Call Site 66 <<
	.uleb128 .Ltmp176-.Ltmp175              #   Call between .Ltmp175 and .Ltmp176
	.uleb128 .Ltmp177-.Lfunc_begin0         #     jumps to .Ltmp177
	.byte	0                               #   On action: cleanup
	.uleb128 .Ltmp178-.Lfunc_begin0         # >> Call Site 67 <<
	.uleb128 .Ltmp179-.Ltmp178              #   Call between .Ltmp178 and .Ltmp179
	.uleb128 .Ltmp180-.Lfunc_begin0         #     jumps to .Ltmp180
	.byte	0                               #   On action: cleanup
	.uleb128 .Ltmp179-.Lfunc_begin0         # >> Call Site 68 <<
	.uleb128 .Ltmp181-.Ltmp179              #   Call between .Ltmp179 and .Ltmp181
	.byte	0                               #     has no landing pad
	.byte	0                               #   On action: cleanup
	.uleb128 .Ltmp181-.Lfunc_begin0         # >> Call Site 69 <<
	.uleb128 .Ltmp182-.Ltmp181              #   Call between .Ltmp181 and .Ltmp182
	.uleb128 .Ltmp183-.Lfunc_begin0         #     jumps to .Ltmp183
	.byte	0                               #   On action: cleanup
	.uleb128 .Ltmp184-.Lfunc_begin0         # >> Call Site 70 <<
	.uleb128 .Ltmp185-.Ltmp184              #   Call between .Ltmp184 and .Ltmp185
	.uleb128 .Ltmp186-.Lfunc_begin0         #     jumps to .Ltmp186
	.byte	0                               #   On action: cleanup
	.uleb128 .Ltmp187-.Lfunc_begin0         # >> Call Site 71 <<
	.uleb128 .Ltmp188-.Ltmp187              #   Call between .Ltmp187 and .Ltmp188
	.uleb128 .Ltmp189-.Lfunc_begin0         #     jumps to .Ltmp189
	.byte	0                               #   On action: cleanup
	.uleb128 .Ltmp190-.Lfunc_begin0         # >> Call Site 72 <<
	.uleb128 .Ltmp191-.Ltmp190              #   Call between .Ltmp190 and .Ltmp191
	.uleb128 .Ltmp192-.Lfunc_begin0         #     jumps to .Ltmp192
	.byte	0                               #   On action: cleanup
	.uleb128 .Ltmp193-.Lfunc_begin0         # >> Call Site 73 <<
	.uleb128 .Ltmp194-.Ltmp193              #   Call between .Ltmp193 and .Ltmp194
	.uleb128 .Ltmp195-.Lfunc_begin0         #     jumps to .Ltmp195
	.byte	0                               #   On action: cleanup
	.uleb128 .Ltmp196-.Lfunc_begin0         # >> Call Site 74 <<
	.uleb128 .Ltmp197-.Ltmp196              #   Call between .Ltmp196 and .Ltmp197
	.uleb128 .Ltmp198-.Lfunc_begin0         #     jumps to .Ltmp198
	.byte	0                               #   On action: cleanup
	.uleb128 .Ltmp197-.Lfunc_begin0         # >> Call Site 75 <<
	.uleb128 .Ltmp205-.Ltmp197              #   Call between .Ltmp197 and .Ltmp205
	.byte	0                               #     has no landing pad
	.byte	0                               #   On action: cleanup
	.uleb128 .Ltmp205-.Lfunc_begin0         # >> Call Site 76 <<
	.uleb128 .Ltmp206-.Ltmp205              #   Call between .Ltmp205 and .Ltmp206
	.uleb128 .Ltmp207-.Lfunc_begin0         #     jumps to .Ltmp207
	.byte	0                               #   On action: cleanup
	.uleb128 .Ltmp202-.Lfunc_begin0         # >> Call Site 77 <<
	.uleb128 .Ltmp203-.Ltmp202              #   Call between .Ltmp202 and .Ltmp203
	.uleb128 .Ltmp204-.Lfunc_begin0         #     jumps to .Ltmp204
	.byte	0                               #   On action: cleanup
	.uleb128 .Ltmp199-.Lfunc_begin0         # >> Call Site 78 <<
	.uleb128 .Ltmp200-.Ltmp199              #   Call between .Ltmp199 and .Ltmp200
	.uleb128 .Ltmp201-.Lfunc_begin0         #     jumps to .Ltmp201
	.byte	0                               #   On action: cleanup
	.uleb128 .Ltmp200-.Lfunc_begin0         # >> Call Site 79 <<
	.uleb128 .Lfunc_end1-.Ltmp200           #   Call between .Ltmp200 and .Lfunc_end1
	.byte	0                               #     has no landing pad
	.byte	0                               #   On action: cleanup
.Lcst_end0:
	.p2align	2, 0x0
                                        # -- End function
	.section	.rodata.cst8,"aM",@progbits,8
	.p2align	3, 0x0                          # -- Begin function _Z17BM_Complexity_O_NRN9benchmark5StateE
.LCPI2_0:
	.dword	0x4045000000000000              # double 42
.LCPI2_1:
	.dword	0x3e112e0be826d695              # double 1.0000000000000001E-9
	.text
	.hidden	_Z17BM_Complexity_O_NRN9benchmark5StateE
	.globl	_Z17BM_Complexity_O_NRN9benchmark5StateE
	.p2align	5
	.type	_Z17BM_Complexity_O_NRN9benchmark5StateE,@function
_Z17BM_Complexity_O_NRN9benchmark5StateE: # @_Z17BM_Complexity_O_NRN9benchmark5StateE
	.cfi_startproc
# %bb.0:                                # %entry
	addi.d	$sp, $sp, -112
	.cfi_def_cfa_offset 112
	st.d	$ra, $sp, 104                   # 8-byte Folded Spill
	st.d	$fp, $sp, 96                    # 8-byte Folded Spill
	st.d	$s0, $sp, 88                    # 8-byte Folded Spill
	st.d	$s1, $sp, 80                    # 8-byte Folded Spill
	st.d	$s2, $sp, 72                    # 8-byte Folded Spill
	st.d	$s3, $sp, 64                    # 8-byte Folded Spill
	st.d	$s4, $sp, 56                    # 8-byte Folded Spill
	fst.d	$fs0, $sp, 48                   # 8-byte Folded Spill
	fst.d	$fs1, $sp, 40                   # 8-byte Folded Spill
	fst.d	$fs2, $sp, 32                   # 8-byte Folded Spill
	.cfi_offset 1, -8
	.cfi_offset 22, -16
	.cfi_offset 23, -24
	.cfi_offset 24, -32
	.cfi_offset 25, -40
	.cfi_offset 26, -48
	.cfi_offset 27, -56
	.cfi_offset 56, -64
	.cfi_offset 57, -72
	.cfi_offset 58, -80
	move	$fp, $a0
	ld.w	$s1, $a0, 28
	ld.d	$s0, $a0, 16
	pcaddu18i	$ra, %call36(_ZN9benchmark5State16StartKeepRunningEv)
	jirl	$ra, $ra, 0
	bnez	$s1, .LBB2_17
# %bb.1:                                # %entry
	beqz	$s0, .LBB2_17
# %bb.2:
	ori	$s1, $zero, 1
	addi.d	$s2, $sp, 24
	pcalau12i	$a0, %pc_hi20(.LCPI2_0)
	fld.d	$fs0, $a0, %pc_lo12(.LCPI2_0)
	pcalau12i	$a0, %pc_hi20(.LCPI2_1)
	fld.d	$fs1, $a0, %pc_lo12(.LCPI2_1)
	movgr2fr.d	$fs2, $zero
	addi.w	$s3, $zero, -1
	addi.d	$s4, $sp, 16
	.p2align	4, , 16
.LBB2_3:                                # %for.body
                                        # =>This Loop Header: Depth=1
                                        #     Child Loop BB2_9 Depth 2
	ld.bu	$a0, $fp, 24
	bne	$a0, $s1, .LBB2_16
# %bb.4:                                # %if.end.i49
                                        #   in Loop: Header=BB2_3 Depth=1
	ld.d	$a0, $fp, 16
	ld.d	$a1, $fp, 0
	ld.d	$a2, $fp, 8
	sub.d	$a0, $a0, $a1
	add.d	$a0, $a0, $a2
.LBB2_5:                                # %_ZNK9benchmark5State10iterationsEv.exit54
                                        #   in Loop: Header=BB2_3 Depth=1
	st.d	$a0, $sp, 24
	#APP
	#NO_APP
	ld.bu	$a0, $fp, 24
	fmov.d	$fa0, $fs2
	bne	$a0, $s1, .LBB2_7
# %bb.6:                                # %if.end.i40
                                        #   in Loop: Header=BB2_3 Depth=1
	ld.d	$a0, $fp, 16
	ld.d	$a1, $fp, 0
	ld.d	$a2, $fp, 8
	sub.d	$a0, $a0, $a1
	add.d	$a0, $a0, $a2
	movgr2fr.d	$fa0, $a0
	ffint.d.l	$fa0, $fa0
.LBB2_7:                                # %_ZNK9benchmark5State10iterationsEv.exit45
                                        #   in Loop: Header=BB2_3 Depth=1
	fst.d	$fa0, $sp, 24
	#APP
	#NO_APP
	ld.bu	$a0, $fp, 24
	bne	$a0, $s1, .LBB2_13
# %bb.8:                                # %_ZNK9benchmark5State10iterationsEv.exit36.preheader
                                        #   in Loop: Header=BB2_3 Depth=1
	move	$a0, $s3
	.p2align	4, , 16
.LBB2_9:                                # %_ZNK9benchmark5State10iterationsEv.exit36
                                        #   Parent Loop BB2_3 Depth=1
                                        # =>  This Inner Loop Header: Depth=2
	ld.d	$a1, $fp, 16
	ld.d	$a2, $fp, 0
	ld.d	$a3, $fp, 8
	sub.d	$a1, $a1, $a2
	add.d	$a1, $a1, $a3
	addi.d	$a0, $a0, 1
	bge	$a0, $a1, .LBB2_13
# %bb.10:                               # %_ZNK9benchmark5State10iterationsEv.exit27
                                        #   in Loop: Header=BB2_9 Depth=2
	st.d	$a1, $sp, 16
	#APP
	#NO_APP
	ld.bu	$a1, $fp, 24
	fmov.d	$fa0, $fs2
	bne	$a1, $s1, .LBB2_12
# %bb.11:                               # %if.end.i18
                                        #   in Loop: Header=BB2_9 Depth=2
	ld.d	$a1, $fp, 16
	ld.d	$a2, $fp, 0
	ld.d	$a3, $fp, 8
	sub.d	$a1, $a1, $a2
	add.d	$a1, $a1, $a3
	movgr2fr.d	$fa0, $a1
	ffint.d.l	$fa0, $fa0
.LBB2_12:                               # %_ZNK9benchmark5State10iterationsEv.exit
                                        #   in Loop: Header=BB2_9 Depth=2
	fld.d	$fa1, $sp, 24
	fmul.d	$fa0, $fa0, $fa1
	fst.d	$fa0, $sp, 24
	#APP
	#NO_APP
	ld.bu	$a1, $fp, 24
	bnez	$a1, .LBB2_9
	.p2align	4, , 16
.LBB2_13:                               # %for.cond.cleanup8
                                        #   in Loop: Header=BB2_3 Depth=1
	ld.d	$a1, $fp, 40
	ld.d	$a0, $fp, 32
	beq	$a1, $a0, .LBB2_19
# %bb.14:                               # %_ZNK9benchmark5State5rangeEm.exit62
                                        #   in Loop: Header=BB2_3 Depth=1
	ld.d	$a0, $a0, 0
	movgr2fr.d	$fa0, $a0
	ffint.d.l	$fa0, $fa0
	fmul.d	$fa0, $fa0, $fs0
	fmul.d	$fa0, $fa0, $fs1
	move	$a0, $fp
	pcaddu18i	$ra, %call36(_ZN9benchmark5State16SetIterationTimeEd)
	jirl	$ra, $ra, 0
	blez	$s0, .LBB2_20
# %bb.15:                               # %for.cond
                                        #   in Loop: Header=BB2_3 Depth=1
	addi.d	$s0, $s0, -1
	bnez	$s0, .LBB2_3
	b	.LBB2_17
.LBB2_16:                               #   in Loop: Header=BB2_3 Depth=1
	move	$a0, $zero
	b	.LBB2_5
.LBB2_17:                               # %for.cond.cleanup
	move	$a0, $fp
	pcaddu18i	$ra, %call36(_ZN9benchmark5State17FinishKeepRunningEv)
	jirl	$ra, $ra, 0
	ld.d	$a1, $fp, 40
	ld.d	$a0, $fp, 32
	beq	$a1, $a0, .LBB2_19
# %bb.18:                               # %_ZNK9benchmark5State5rangeEm.exit
	ld.d	$a0, $a0, 0
	st.d	$a0, $fp, 56
	fld.d	$fs2, $sp, 32                   # 8-byte Folded Reload
	fld.d	$fs1, $sp, 40                   # 8-byte Folded Reload
	fld.d	$fs0, $sp, 48                   # 8-byte Folded Reload
	ld.d	$s4, $sp, 56                    # 8-byte Folded Reload
	ld.d	$s3, $sp, 64                    # 8-byte Folded Reload
	ld.d	$s2, $sp, 72                    # 8-byte Folded Reload
	ld.d	$s1, $sp, 80                    # 8-byte Folded Reload
	ld.d	$s0, $sp, 88                    # 8-byte Folded Reload
	ld.d	$fp, $sp, 96                    # 8-byte Folded Reload
	ld.d	$ra, $sp, 104                   # 8-byte Folded Reload
	addi.d	$sp, $sp, 112
	ret
.LBB2_19:                               # %cond.false.i56
	pcalau12i	$a0, %pc_hi20(.L.str.43)
	addi.d	$a0, $a0, %pc_lo12(.L.str.43)
	pcalau12i	$a1, %pc_hi20(.L.str.42)
	addi.d	$a1, $a1, %pc_lo12(.L.str.42)
	pcalau12i	$a2, %pc_hi20(.L__PRETTY_FUNCTION__._ZNK9benchmark5State5rangeEm)
	addi.d	$a3, $a2, %pc_lo12(.L__PRETTY_FUNCTION__._ZNK9benchmark5State5rangeEm)
	ori	$a2, $zero, 990
	pcaddu18i	$ra, %call36(__assert_fail)
	jirl	$ra, $ra, 0
.LBB2_20:                               # %cond.false.i
	pcalau12i	$a0, %pc_hi20(.L.str.41)
	addi.d	$a0, $a0, %pc_lo12(.L.str.41)
	pcalau12i	$a1, %pc_hi20(.L.str.42)
	addi.d	$a1, $a1, %pc_lo12(.L.str.42)
	pcalau12i	$a2, %pc_hi20(.L__PRETTY_FUNCTION__._ZN9benchmark5State13StateIteratorppEv)
	addi.d	$a3, $a2, %pc_lo12(.L__PRETTY_FUNCTION__._ZN9benchmark5State13StateIteratorppEv)
	ori	$a2, $zero, 1134
	pcaddu18i	$ra, %call36(__assert_fail)
	jirl	$ra, $ra, 0
.Lfunc_end2:
	.size	_Z17BM_Complexity_O_NRN9benchmark5StateE, .Lfunc_end2-_Z17BM_Complexity_O_NRN9benchmark5StateE
	.cfi_endproc
                                        # -- End function
	.section	.rodata.cst8,"aM",@progbits,8
	.p2align	3, 0x0                          # -- Begin function _ZL23BM_Complexity_O_N_log_NRN9benchmark5StateE
.LCPI3_0:
	.dword	0x3ff71547652b82fe              # double 1.4426950408889634
.LCPI3_1:
	.dword	0x4045000000000000              # double 42
.LCPI3_2:
	.dword	0x3e112e0be826d695              # double 1.0000000000000001E-9
	.text
	.p2align	5
	.type	_ZL23BM_Complexity_O_N_log_NRN9benchmark5StateE,@function
_ZL23BM_Complexity_O_N_log_NRN9benchmark5StateE: # @_ZL23BM_Complexity_O_N_log_NRN9benchmark5StateE
	.cfi_startproc
# %bb.0:                                # %entry
	addi.d	$sp, $sp, -128
	.cfi_def_cfa_offset 128
	st.d	$ra, $sp, 120                   # 8-byte Folded Spill
	st.d	$fp, $sp, 112                   # 8-byte Folded Spill
	st.d	$s0, $sp, 104                   # 8-byte Folded Spill
	st.d	$s1, $sp, 96                    # 8-byte Folded Spill
	st.d	$s2, $sp, 88                    # 8-byte Folded Spill
	st.d	$s3, $sp, 80                    # 8-byte Folded Spill
	st.d	$s4, $sp, 72                    # 8-byte Folded Spill
	fst.d	$fs0, $sp, 64                   # 8-byte Folded Spill
	fst.d	$fs1, $sp, 56                   # 8-byte Folded Spill
	fst.d	$fs2, $sp, 48                   # 8-byte Folded Spill
	fst.d	$fs3, $sp, 40                   # 8-byte Folded Spill
	fst.d	$fs4, $sp, 32                   # 8-byte Folded Spill
	.cfi_offset 1, -8
	.cfi_offset 22, -16
	.cfi_offset 23, -24
	.cfi_offset 24, -32
	.cfi_offset 25, -40
	.cfi_offset 26, -48
	.cfi_offset 27, -56
	.cfi_offset 56, -64
	.cfi_offset 57, -72
	.cfi_offset 58, -80
	.cfi_offset 59, -88
	.cfi_offset 60, -96
	move	$fp, $a0
	ld.w	$s1, $a0, 28
	ld.d	$s0, $a0, 16
	pcaddu18i	$ra, %call36(_ZN9benchmark5State16StartKeepRunningEv)
	jirl	$ra, $ra, 0
	bnez	$s1, .LBB3_17
# %bb.1:                                # %entry
	beqz	$s0, .LBB3_17
# %bb.2:
	ori	$s1, $zero, 1
	addi.d	$s2, $sp, 24
	pcalau12i	$a0, %pc_hi20(.LCPI3_0)
	fld.d	$fs0, $a0, %pc_lo12(.LCPI3_0)
	pcalau12i	$a0, %pc_hi20(.LCPI3_1)
	fld.d	$fs1, $a0, %pc_lo12(.LCPI3_1)
	pcalau12i	$a0, %pc_hi20(.LCPI3_2)
	fld.d	$fs2, $a0, %pc_lo12(.LCPI3_2)
	movgr2fr.d	$fs3, $zero
	addi.w	$s3, $zero, -1
	addi.d	$s4, $sp, 16
	.p2align	4, , 16
.LBB3_3:                                # %for.body
                                        # =>This Loop Header: Depth=1
                                        #     Child Loop BB3_9 Depth 2
	ld.bu	$a0, $fp, 24
	bne	$a0, $s1, .LBB3_16
# %bb.4:                                # %if.end.i50
                                        #   in Loop: Header=BB3_3 Depth=1
	ld.d	$a0, $fp, 16
	ld.d	$a1, $fp, 0
	ld.d	$a2, $fp, 8
	sub.d	$a0, $a0, $a1
	add.d	$a0, $a0, $a2
.LBB3_5:                                # %_ZNK9benchmark5State10iterationsEv.exit55
                                        #   in Loop: Header=BB3_3 Depth=1
	st.d	$a0, $sp, 24
	#APP
	#NO_APP
	ld.bu	$a0, $fp, 24
	fmov.d	$fa0, $fs3
	bne	$a0, $s1, .LBB3_7
# %bb.6:                                # %if.end.i41
                                        #   in Loop: Header=BB3_3 Depth=1
	ld.d	$a0, $fp, 16
	ld.d	$a1, $fp, 0
	ld.d	$a2, $fp, 8
	sub.d	$a0, $a0, $a1
	add.d	$a0, $a0, $a2
	movgr2fr.d	$fa0, $a0
	ffint.d.l	$fa0, $fa0
.LBB3_7:                                # %_ZNK9benchmark5State10iterationsEv.exit46
                                        #   in Loop: Header=BB3_3 Depth=1
	fst.d	$fa0, $sp, 24
	#APP
	#NO_APP
	ld.bu	$a0, $fp, 24
	bne	$a0, $s1, .LBB3_13
# %bb.8:                                # %_ZNK9benchmark5State10iterationsEv.exit37.preheader
                                        #   in Loop: Header=BB3_3 Depth=1
	move	$a0, $s3
	.p2align	4, , 16
.LBB3_9:                                # %_ZNK9benchmark5State10iterationsEv.exit37
                                        #   Parent Loop BB3_3 Depth=1
                                        # =>  This Inner Loop Header: Depth=2
	ld.d	$a1, $fp, 16
	ld.d	$a2, $fp, 0
	ld.d	$a3, $fp, 8
	sub.d	$a1, $a1, $a2
	add.d	$a1, $a1, $a3
	addi.d	$a0, $a0, 1
	bge	$a0, $a1, .LBB3_13
# %bb.10:                               # %_ZNK9benchmark5State10iterationsEv.exit28
                                        #   in Loop: Header=BB3_9 Depth=2
	st.d	$a1, $sp, 16
	#APP
	#NO_APP
	ld.bu	$a1, $fp, 24
	fmov.d	$fa0, $fs3
	bne	$a1, $s1, .LBB3_12
# %bb.11:                               # %if.end.i19
                                        #   in Loop: Header=BB3_9 Depth=2
	ld.d	$a1, $fp, 16
	ld.d	$a2, $fp, 0
	ld.d	$a3, $fp, 8
	sub.d	$a1, $a1, $a2
	add.d	$a1, $a1, $a3
	movgr2fr.d	$fa0, $a1
	ffint.d.l	$fa0, $fa0
.LBB3_12:                               # %_ZNK9benchmark5State10iterationsEv.exit
                                        #   in Loop: Header=BB3_9 Depth=2
	fld.d	$fa1, $sp, 24
	fmul.d	$fa0, $fa0, $fa1
	fst.d	$fa0, $sp, 24
	#APP
	#NO_APP
	ld.bu	$a1, $fp, 24
	bnez	$a1, .LBB3_9
	.p2align	4, , 16
.LBB3_13:                               # %for.cond.cleanup8
                                        #   in Loop: Header=BB3_3 Depth=1
	ld.d	$a1, $fp, 40
	ld.d	$a0, $fp, 32
	beq	$a1, $a0, .LBB3_19
# %bb.14:                               # %_ZNK9benchmark5State5rangeEm.exit63
                                        #   in Loop: Header=BB3_3 Depth=1
	ld.d	$a0, $a0, 0
	movgr2fr.d	$fa0, $a0
	ffint.d.l	$fa0, $fa0
	fmul.d	$fs4, $fa0, $fs0
	pcaddu18i	$ra, %call36(log)
	jirl	$ra, $ra, 0
	fmul.d	$fa0, $fa0, $fs4
	fmul.d	$fa0, $fa0, $fs1
	fmul.d	$fa0, $fa0, $fs2
	move	$a0, $fp
	pcaddu18i	$ra, %call36(_ZN9benchmark5State16SetIterationTimeEd)
	jirl	$ra, $ra, 0
	blez	$s0, .LBB3_20
# %bb.15:                               # %for.cond
                                        #   in Loop: Header=BB3_3 Depth=1
	addi.d	$s0, $s0, -1
	bnez	$s0, .LBB3_3
	b	.LBB3_17
.LBB3_16:                               #   in Loop: Header=BB3_3 Depth=1
	move	$a0, $zero
	b	.LBB3_5
.LBB3_17:                               # %for.cond.cleanup
	move	$a0, $fp
	pcaddu18i	$ra, %call36(_ZN9benchmark5State17FinishKeepRunningEv)
	jirl	$ra, $ra, 0
	ld.d	$a1, $fp, 40
	ld.d	$a0, $fp, 32
	beq	$a1, $a0, .LBB3_19
# %bb.18:                               # %_ZNK9benchmark5State5rangeEm.exit
	ld.d	$a0, $a0, 0
	st.d	$a0, $fp, 56
	fld.d	$fs4, $sp, 32                   # 8-byte Folded Reload
	fld.d	$fs3, $sp, 40                   # 8-byte Folded Reload
	fld.d	$fs2, $sp, 48                   # 8-byte Folded Reload
	fld.d	$fs1, $sp, 56                   # 8-byte Folded Reload
	fld.d	$fs0, $sp, 64                   # 8-byte Folded Reload
	ld.d	$s4, $sp, 72                    # 8-byte Folded Reload
	ld.d	$s3, $sp, 80                    # 8-byte Folded Reload
	ld.d	$s2, $sp, 88                    # 8-byte Folded Reload
	ld.d	$s1, $sp, 96                    # 8-byte Folded Reload
	ld.d	$s0, $sp, 104                   # 8-byte Folded Reload
	ld.d	$fp, $sp, 112                   # 8-byte Folded Reload
	ld.d	$ra, $sp, 120                   # 8-byte Folded Reload
	addi.d	$sp, $sp, 128
	ret
.LBB3_19:                               # %cond.false.i57
	pcalau12i	$a0, %pc_hi20(.L.str.43)
	addi.d	$a0, $a0, %pc_lo12(.L.str.43)
	pcalau12i	$a1, %pc_hi20(.L.str.42)
	addi.d	$a1, $a1, %pc_lo12(.L.str.42)
	pcalau12i	$a2, %pc_hi20(.L__PRETTY_FUNCTION__._ZNK9benchmark5State5rangeEm)
	addi.d	$a3, $a2, %pc_lo12(.L__PRETTY_FUNCTION__._ZNK9benchmark5State5rangeEm)
	ori	$a2, $zero, 990
	pcaddu18i	$ra, %call36(__assert_fail)
	jirl	$ra, $ra, 0
.LBB3_20:                               # %cond.false.i
	pcalau12i	$a0, %pc_hi20(.L.str.41)
	addi.d	$a0, $a0, %pc_lo12(.L.str.41)
	pcalau12i	$a1, %pc_hi20(.L.str.42)
	addi.d	$a1, $a1, %pc_lo12(.L.str.42)
	pcalau12i	$a2, %pc_hi20(.L__PRETTY_FUNCTION__._ZN9benchmark5State13StateIteratorppEv)
	addi.d	$a3, $a2, %pc_lo12(.L__PRETTY_FUNCTION__._ZN9benchmark5State13StateIteratorppEv)
	ori	$a2, $zero, 1134
	pcaddu18i	$ra, %call36(__assert_fail)
	jirl	$ra, $ra, 0
.Lfunc_end3:
	.size	_ZL23BM_Complexity_O_N_log_NRN9benchmark5StateE, .Lfunc_end3-_ZL23BM_Complexity_O_N_log_NRN9benchmark5StateE
	.cfi_endproc
                                        # -- End function
	.section	.rodata.cst8,"aM",@progbits,8
	.p2align	3, 0x0                          # -- Begin function _Z24BM_ComplexityCaptureArgsRN9benchmark5StateEi
.LCPI4_0:
	.dword	0x4045000000000000              # double 42
.LCPI4_1:
	.dword	0x3e112e0be826d695              # double 1.0000000000000001E-9
	.text
	.hidden	_Z24BM_ComplexityCaptureArgsRN9benchmark5StateEi
	.globl	_Z24BM_ComplexityCaptureArgsRN9benchmark5StateEi
	.p2align	5
	.type	_Z24BM_ComplexityCaptureArgsRN9benchmark5StateEi,@function
_Z24BM_ComplexityCaptureArgsRN9benchmark5StateEi: # @_Z24BM_ComplexityCaptureArgsRN9benchmark5StateEi
	.cfi_startproc
# %bb.0:                                # %entry
	addi.d	$sp, $sp, -112
	.cfi_def_cfa_offset 112
	st.d	$ra, $sp, 104                   # 8-byte Folded Spill
	st.d	$fp, $sp, 96                    # 8-byte Folded Spill
	st.d	$s0, $sp, 88                    # 8-byte Folded Spill
	st.d	$s1, $sp, 80                    # 8-byte Folded Spill
	st.d	$s2, $sp, 72                    # 8-byte Folded Spill
	st.d	$s3, $sp, 64                    # 8-byte Folded Spill
	st.d	$s4, $sp, 56                    # 8-byte Folded Spill
	st.d	$s5, $sp, 48                    # 8-byte Folded Spill
	fst.d	$fs0, $sp, 40                   # 8-byte Folded Spill
	fst.d	$fs1, $sp, 32                   # 8-byte Folded Spill
	fst.d	$fs2, $sp, 24                   # 8-byte Folded Spill
	.cfi_offset 1, -8
	.cfi_offset 22, -16
	.cfi_offset 23, -24
	.cfi_offset 24, -32
	.cfi_offset 25, -40
	.cfi_offset 26, -48
	.cfi_offset 27, -56
	.cfi_offset 28, -64
	.cfi_offset 56, -72
	.cfi_offset 57, -80
	.cfi_offset 58, -88
	move	$fp, $a0
	ld.w	$s2, $a0, 28
	ld.d	$s1, $a0, 16
	move	$s0, $a1
	pcaddu18i	$ra, %call36(_ZN9benchmark5State16StartKeepRunningEv)
	jirl	$ra, $ra, 0
	bnez	$s2, .LBB4_17
# %bb.1:                                # %entry
	beqz	$s1, .LBB4_17
# %bb.2:
	ori	$s2, $zero, 1
	addi.d	$s3, $sp, 16
	pcalau12i	$a0, %pc_hi20(.LCPI4_0)
	fld.d	$fs0, $a0, %pc_lo12(.LCPI4_0)
	pcalau12i	$a0, %pc_hi20(.LCPI4_1)
	fld.d	$fs1, $a0, %pc_lo12(.LCPI4_1)
	movgr2fr.d	$fs2, $zero
	addi.w	$s4, $zero, -1
	addi.d	$s5, $sp, 8
	.p2align	4, , 16
.LBB4_3:                                # %for.body
                                        # =>This Loop Header: Depth=1
                                        #     Child Loop BB4_9 Depth 2
	ld.bu	$a0, $fp, 24
	bne	$a0, $s2, .LBB4_16
# %bb.4:                                # %if.end.i48
                                        #   in Loop: Header=BB4_3 Depth=1
	ld.d	$a0, $fp, 16
	ld.d	$a1, $fp, 0
	ld.d	$a2, $fp, 8
	sub.d	$a0, $a0, $a1
	add.d	$a0, $a0, $a2
.LBB4_5:                                # %_ZNK9benchmark5State10iterationsEv.exit53
                                        #   in Loop: Header=BB4_3 Depth=1
	st.d	$a0, $sp, 16
	#APP
	#NO_APP
	ld.bu	$a0, $fp, 24
	fmov.d	$fa0, $fs2
	bne	$a0, $s2, .LBB4_7
# %bb.6:                                # %if.end.i39
                                        #   in Loop: Header=BB4_3 Depth=1
	ld.d	$a0, $fp, 16
	ld.d	$a1, $fp, 0
	ld.d	$a2, $fp, 8
	sub.d	$a0, $a0, $a1
	add.d	$a0, $a0, $a2
	movgr2fr.d	$fa0, $a0
	ffint.d.l	$fa0, $fa0
.LBB4_7:                                # %_ZNK9benchmark5State10iterationsEv.exit44
                                        #   in Loop: Header=BB4_3 Depth=1
	fst.d	$fa0, $sp, 16
	#APP
	#NO_APP
	ld.bu	$a0, $fp, 24
	bne	$a0, $s2, .LBB4_13
# %bb.8:                                # %_ZNK9benchmark5State10iterationsEv.exit35.preheader
                                        #   in Loop: Header=BB4_3 Depth=1
	move	$a0, $s4
	.p2align	4, , 16
.LBB4_9:                                # %_ZNK9benchmark5State10iterationsEv.exit35
                                        #   Parent Loop BB4_3 Depth=1
                                        # =>  This Inner Loop Header: Depth=2
	ld.d	$a1, $fp, 16
	ld.d	$a2, $fp, 0
	ld.d	$a3, $fp, 8
	sub.d	$a1, $a1, $a2
	add.d	$a1, $a1, $a3
	addi.d	$a0, $a0, 1
	bge	$a0, $a1, .LBB4_13
# %bb.10:                               # %_ZNK9benchmark5State10iterationsEv.exit26
                                        #   in Loop: Header=BB4_9 Depth=2
	st.d	$a1, $sp, 8
	#APP
	#NO_APP
	ld.bu	$a1, $fp, 24
	fmov.d	$fa0, $fs2
	bne	$a1, $s2, .LBB4_12
# %bb.11:                               # %if.end.i17
                                        #   in Loop: Header=BB4_9 Depth=2
	ld.d	$a1, $fp, 16
	ld.d	$a2, $fp, 0
	ld.d	$a3, $fp, 8
	sub.d	$a1, $a1, $a2
	add.d	$a1, $a1, $a3
	movgr2fr.d	$fa0, $a1
	ffint.d.l	$fa0, $fa0
.LBB4_12:                               # %_ZNK9benchmark5State10iterationsEv.exit
                                        #   in Loop: Header=BB4_9 Depth=2
	fld.d	$fa1, $sp, 16
	fmul.d	$fa0, $fa0, $fa1
	fst.d	$fa0, $sp, 16
	#APP
	#NO_APP
	ld.bu	$a1, $fp, 24
	bnez	$a1, .LBB4_9
	.p2align	4, , 16
.LBB4_13:                               # %for.cond.cleanup8
                                        #   in Loop: Header=BB4_3 Depth=1
	ld.d	$a1, $fp, 40
	ld.d	$a0, $fp, 32
	beq	$a1, $a0, .LBB4_18
# %bb.14:                               # %_ZNK9benchmark5State5rangeEm.exit
                                        #   in Loop: Header=BB4_3 Depth=1
	ld.d	$a0, $a0, 0
	movgr2fr.d	$fa0, $a0
	ffint.d.l	$fa0, $fa0
	fmul.d	$fa0, $fa0, $fs0
	fmul.d	$fa0, $fa0, $fs1
	move	$a0, $fp
	pcaddu18i	$ra, %call36(_ZN9benchmark5State16SetIterationTimeEd)
	jirl	$ra, $ra, 0
	blez	$s1, .LBB4_19
# %bb.15:                               # %for.cond
                                        #   in Loop: Header=BB4_3 Depth=1
	addi.d	$s1, $s1, -1
	bnez	$s1, .LBB4_3
	b	.LBB4_17
.LBB4_16:                               #   in Loop: Header=BB4_3 Depth=1
	move	$a0, $zero
	b	.LBB4_5
.LBB4_17:                               # %for.cond.cleanup
	move	$a0, $fp
	pcaddu18i	$ra, %call36(_ZN9benchmark5State17FinishKeepRunningEv)
	jirl	$ra, $ra, 0
	st.d	$s0, $fp, 56
	fld.d	$fs2, $sp, 24                   # 8-byte Folded Reload
	fld.d	$fs1, $sp, 32                   # 8-byte Folded Reload
	fld.d	$fs0, $sp, 40                   # 8-byte Folded Reload
	ld.d	$s5, $sp, 48                    # 8-byte Folded Reload
	ld.d	$s4, $sp, 56                    # 8-byte Folded Reload
	ld.d	$s3, $sp, 64                    # 8-byte Folded Reload
	ld.d	$s2, $sp, 72                    # 8-byte Folded Reload
	ld.d	$s1, $sp, 80                    # 8-byte Folded Reload
	ld.d	$s0, $sp, 88                    # 8-byte Folded Reload
	ld.d	$fp, $sp, 96                    # 8-byte Folded Reload
	ld.d	$ra, $sp, 104                   # 8-byte Folded Reload
	addi.d	$sp, $sp, 112
	ret
.LBB4_18:                               # %cond.false.i55
	pcalau12i	$a0, %pc_hi20(.L.str.43)
	addi.d	$a0, $a0, %pc_lo12(.L.str.43)
	pcalau12i	$a1, %pc_hi20(.L.str.42)
	addi.d	$a1, $a1, %pc_lo12(.L.str.42)
	pcalau12i	$a2, %pc_hi20(.L__PRETTY_FUNCTION__._ZNK9benchmark5State5rangeEm)
	addi.d	$a3, $a2, %pc_lo12(.L__PRETTY_FUNCTION__._ZNK9benchmark5State5rangeEm)
	ori	$a2, $zero, 990
	pcaddu18i	$ra, %call36(__assert_fail)
	jirl	$ra, $ra, 0
.LBB4_19:                               # %cond.false.i
	pcalau12i	$a0, %pc_hi20(.L.str.41)
	addi.d	$a0, $a0, %pc_lo12(.L.str.41)
	pcalau12i	$a1, %pc_hi20(.L.str.42)
	addi.d	$a1, $a1, %pc_lo12(.L.str.42)
	pcalau12i	$a2, %pc_hi20(.L__PRETTY_FUNCTION__._ZN9benchmark5State13StateIteratorppEv)
	addi.d	$a3, $a2, %pc_lo12(.L__PRETTY_FUNCTION__._ZN9benchmark5State13StateIteratorppEv)
	ori	$a2, $zero, 1134
	pcaddu18i	$ra, %call36(__assert_fail)
	jirl	$ra, $ra, 0
.Lfunc_end4:
	.size	_Z24BM_ComplexityCaptureArgsRN9benchmark5StateEi, .Lfunc_end4-_Z24BM_ComplexityCaptureArgsRN9benchmark5StateEi
	.cfi_endproc
                                        # -- End function
	.hidden	main                            # -- Begin function main
	.globl	main
	.p2align	5
	.type	main,@function
main:                                   # @main
	.cfi_startproc
# %bb.0:                                # %entry
	addi.d	$sp, $sp, -16
	.cfi_def_cfa_offset 16
	st.d	$ra, $sp, 8                     # 8-byte Folded Spill
	.cfi_offset 1, -8
	pcaddu18i	$ra, %call36(_Z14RunOutputTestsiPPc)
	jirl	$ra, $ra, 0
	move	$a0, $zero
	ld.d	$ra, $sp, 8                     # 8-byte Folded Reload
	addi.d	$sp, $sp, 16
	ret
.Lfunc_end5:
	.size	main, .Lfunc_end5-main
	.cfi_endproc
                                        # -- End function
	.p2align	2                               # -- Begin function _ZN3$_08__invokeEl
	.type	_ZN3$_08__invokeEl,@function
_ZN3$_08__invokeEl:                     # @"_ZN3$_08__invokeEl"
# %bb.0:                                # %entry
	vldi	$vr0, -912
	ret
.Lfunc_end6:
	.size	_ZN3$_08__invokeEl, .Lfunc_end6-_ZN3$_08__invokeEl
                                        # -- End function
	.section	.text._ZNSt4pairINSt7__cxx1112basic_stringIcSt11char_traitsIcESaIcEEES5_EC2IRA6_KcRKS5_TnNSt9enable_ifIXaaclsr5_PCCPE22_MoveConstructiblePairIT_T0_EEclsr5_PCCPE30_ImplicitlyMoveConvertiblePairISE_SF_EEEbE4typeELb1EEEOSE_OSF_,"axG",@progbits,_ZNSt4pairINSt7__cxx1112basic_stringIcSt11char_traitsIcESaIcEEES5_EC2IRA6_KcRKS5_TnNSt9enable_ifIXaaclsr5_PCCPE22_MoveConstructiblePairIT_T0_EEclsr5_PCCPE30_ImplicitlyMoveConvertiblePairISE_SF_EEEbE4typeELb1EEEOSE_OSF_,comdat
	.hidden	_ZNSt4pairINSt7__cxx1112basic_stringIcSt11char_traitsIcESaIcEEES5_EC2IRA6_KcRKS5_TnNSt9enable_ifIXaaclsr5_PCCPE22_MoveConstructiblePairIT_T0_EEclsr5_PCCPE30_ImplicitlyMoveConvertiblePairISE_SF_EEEbE4typeELb1EEEOSE_OSF_ # -- Begin function _ZNSt4pairINSt7__cxx1112basic_stringIcSt11char_traitsIcESaIcEEES5_EC2IRA6_KcRKS5_TnNSt9enable_ifIXaaclsr5_PCCPE22_MoveConstructiblePairIT_T0_EEclsr5_PCCPE30_ImplicitlyMoveConvertiblePairISE_SF_EEEbE4typeELb1EEEOSE_OSF_
	.weak	_ZNSt4pairINSt7__cxx1112basic_stringIcSt11char_traitsIcESaIcEEES5_EC2IRA6_KcRKS5_TnNSt9enable_ifIXaaclsr5_PCCPE22_MoveConstructiblePairIT_T0_EEclsr5_PCCPE30_ImplicitlyMoveConvertiblePairISE_SF_EEEbE4typeELb1EEEOSE_OSF_
	.p2align	2
	.type	_ZNSt4pairINSt7__cxx1112basic_stringIcSt11char_traitsIcESaIcEEES5_EC2IRA6_KcRKS5_TnNSt9enable_ifIXaaclsr5_PCCPE22_MoveConstructiblePairIT_T0_EEclsr5_PCCPE30_ImplicitlyMoveConvertiblePairISE_SF_EEEbE4typeELb1EEEOSE_OSF_,@function
_ZNSt4pairINSt7__cxx1112basic_stringIcSt11char_traitsIcESaIcEEES5_EC2IRA6_KcRKS5_TnNSt9enable_ifIXaaclsr5_PCCPE22_MoveConstructiblePairIT_T0_EEclsr5_PCCPE30_ImplicitlyMoveConvertiblePairISE_SF_EEEbE4typeELb1EEEOSE_OSF_: # @_ZNSt4pairINSt7__cxx1112basic_stringIcSt11char_traitsIcESaIcEEES5_EC2IRA6_KcRKS5_TnNSt9enable_ifIXaaclsr5_PCCPE22_MoveConstructiblePairIT_T0_EEclsr5_PCCPE30_ImplicitlyMoveConvertiblePairISE_SF_EEEbE4typeELb1EEEOSE_OSF_
.Lfunc_begin1:
	.cfi_startproc
	.cfi_personality 155, DW.ref.__gxx_personality_v0
	.cfi_lsda 27, .Lexception1
# %bb.0:                                # %entry
	addi.d	$sp, $sp, -64
	.cfi_def_cfa_offset 64
	st.d	$ra, $sp, 56                    # 8-byte Folded Spill
	st.d	$fp, $sp, 48                    # 8-byte Folded Spill
	st.d	$s0, $sp, 40                    # 8-byte Folded Spill
	st.d	$s1, $sp, 32                    # 8-byte Folded Spill
	st.d	$s2, $sp, 24                    # 8-byte Folded Spill
	st.d	$s3, $sp, 16                    # 8-byte Folded Spill
	.cfi_offset 1, -8
	.cfi_offset 22, -16
	.cfi_offset 23, -24
	.cfi_offset 24, -32
	.cfi_offset 25, -40
	.cfi_offset 26, -48
	move	$s0, $a2
	move	$s1, $a1
	move	$fp, $a0
	addi.d	$s3, $a0, 16
	st.d	$s3, $a0, 0
	move	$a0, $a1
	pcaddu18i	$ra, %call36(strlen)
	jirl	$ra, $ra, 0
	move	$s2, $a0
	ori	$a1, $zero, 16
	st.d	$a0, $sp, 8
	move	$a0, $s3
	bltu	$s2, $a1, .LBB7_2
# %bb.1:                                # %if.then.i.i
	addi.d	$a1, $sp, 8
	move	$a0, $fp
	move	$a2, $zero
	pcaddu18i	$ra, %call36(_ZNSt7__cxx1112basic_stringIcSt11char_traitsIcESaIcEE9_M_createERmm)
	jirl	$ra, $ra, 0
	ld.d	$a1, $sp, 8
	st.d	$a0, $fp, 0
	st.d	$a1, $fp, 16
.LBB7_2:                                # %if.end.i.i
	beqz	$s2, .LBB7_6
# %bb.3:                                # %if.end.i.i
	ori	$a1, $zero, 1
	bne	$s2, $a1, .LBB7_5
# %bb.4:                                # %if.then.i.i.i.i
	ld.b	$a1, $s1, 0
	st.b	$a1, $a0, 0
	b	.LBB7_6
.LBB7_5:                                # %if.end.i.i.i.i.i
	move	$a1, $s1
	move	$a2, $s2
	pcaddu18i	$ra, %call36(memcpy)
	jirl	$ra, $ra, 0
.LBB7_6:                                # %invoke.cont
	ld.d	$a0, $sp, 8
	ld.d	$a1, $fp, 0
	st.d	$a0, $fp, 8
	stx.b	$zero, $a1, $a0
	addi.d	$s1, $fp, 48
	st.d	$s1, $fp, 32
	ld.d	$a1, $s0, 8
	ld.d	$s0, $s0, 0
	ori	$a0, $zero, 16
	st.d	$a1, $sp, 8
	bltu	$a1, $a0, .LBB7_9
# %bb.7:                                # %if.then.i.i5
.Ltmp208:                               # EH_LABEL
	addi.d	$s2, $fp, 32
	addi.d	$a1, $sp, 8
	move	$a0, $s2
	move	$a2, $zero
	pcaddu18i	$ra, %call36(_ZNSt7__cxx1112basic_stringIcSt11char_traitsIcESaIcEE9_M_createERmm)
	jirl	$ra, $ra, 0
.Ltmp209:                               # EH_LABEL
# %bb.8:                                # %call.i4.i.noexc
	ld.d	$a1, $sp, 8
	st.d	$a0, $s2, 0
	st.d	$a1, $s1, 0
	move	$s1, $a0
.LBB7_9:                                # %if.end.i.i4
	addi.w	$a0, $zero, -1
	beq	$a1, $a0, .LBB7_13
# %bb.10:                               # %if.end.i.i4
	bnez	$a1, .LBB7_12
# %bb.11:                               # %if.then.i.i.i
	ld.b	$a0, $s0, 0
	st.b	$a0, $s1, 0
	b	.LBB7_13
.LBB7_12:                               # %if.end.i.i.i.i
	addi.d	$a2, $a1, 1
	move	$a0, $s1
	move	$a1, $s0
	pcaddu18i	$ra, %call36(memcpy)
	jirl	$ra, $ra, 0
.LBB7_13:                               # %invoke.cont3
	ld.d	$a0, $sp, 8
	st.d	$a0, $fp, 40
	ld.d	$s3, $sp, 16                    # 8-byte Folded Reload
	ld.d	$s2, $sp, 24                    # 8-byte Folded Reload
	ld.d	$s1, $sp, 32                    # 8-byte Folded Reload
	ld.d	$s0, $sp, 40                    # 8-byte Folded Reload
	ld.d	$fp, $sp, 48                    # 8-byte Folded Reload
	ld.d	$ra, $sp, 56                    # 8-byte Folded Reload
	addi.d	$sp, $sp, 64
	ret
.LBB7_14:                               # %lpad2
.Ltmp210:                               # EH_LABEL
	ld.d	$a2, $fp, 0
	move	$fp, $a0
	beq	$a2, $s3, .LBB7_16
# %bb.15:                               # %if.then.i.i8
	ld.d	$a0, $s3, 0
	addi.d	$a1, $a0, 1
	move	$a0, $a2
	pcaddu18i	$ra, %call36(_ZdlPvm)
	jirl	$ra, $ra, 0
.LBB7_16:                               # %eh.resume
	move	$a0, $fp
	pcaddu18i	$ra, %call36(_Unwind_Resume)
	jirl	$ra, $ra, 0
.Lfunc_end7:
	.size	_ZNSt4pairINSt7__cxx1112basic_stringIcSt11char_traitsIcESaIcEEES5_EC2IRA6_KcRKS5_TnNSt9enable_ifIXaaclsr5_PCCPE22_MoveConstructiblePairIT_T0_EEclsr5_PCCPE30_ImplicitlyMoveConvertiblePairISE_SF_EEEbE4typeELb1EEEOSE_OSF_, .Lfunc_end7-_ZNSt4pairINSt7__cxx1112basic_stringIcSt11char_traitsIcESaIcEEES5_EC2IRA6_KcRKS5_TnNSt9enable_ifIXaaclsr5_PCCPE22_MoveConstructiblePairIT_T0_EEclsr5_PCCPE30_ImplicitlyMoveConvertiblePairISE_SF_EEEbE4typeELb1EEEOSE_OSF_
	.cfi_endproc
	.section	.gcc_except_table._ZNSt4pairINSt7__cxx1112basic_stringIcSt11char_traitsIcESaIcEEES5_EC2IRA6_KcRKS5_TnNSt9enable_ifIXaaclsr5_PCCPE22_MoveConstructiblePairIT_T0_EEclsr5_PCCPE30_ImplicitlyMoveConvertiblePairISE_SF_EEEbE4typeELb1EEEOSE_OSF_,"aG",@progbits,_ZNSt4pairINSt7__cxx1112basic_stringIcSt11char_traitsIcESaIcEEES5_EC2IRA6_KcRKS5_TnNSt9enable_ifIXaaclsr5_PCCPE22_MoveConstructiblePairIT_T0_EEclsr5_PCCPE30_ImplicitlyMoveConvertiblePairISE_SF_EEEbE4typeELb1EEEOSE_OSF_,comdat
	.p2align	2, 0x0
GCC_except_table7:
.Lexception1:
	.byte	255                             # @LPStart Encoding = omit
	.byte	255                             # @TType Encoding = omit
	.byte	1                               # Call site Encoding = uleb128
	.uleb128 .Lcst_end1-.Lcst_begin1
.Lcst_begin1:
	.uleb128 .Lfunc_begin1-.Lfunc_begin1    # >> Call Site 1 <<
	.uleb128 .Ltmp208-.Lfunc_begin1         #   Call between .Lfunc_begin1 and .Ltmp208
	.byte	0                               #     has no landing pad
	.byte	0                               #   On action: cleanup
	.uleb128 .Ltmp208-.Lfunc_begin1         # >> Call Site 2 <<
	.uleb128 .Ltmp209-.Ltmp208              #   Call between .Ltmp208 and .Ltmp209
	.uleb128 .Ltmp210-.Lfunc_begin1         #     jumps to .Ltmp210
	.byte	0                               #   On action: cleanup
	.uleb128 .Ltmp209-.Lfunc_begin1         # >> Call Site 3 <<
	.uleb128 .Lfunc_end7-.Ltmp209           #   Call between .Ltmp209 and .Lfunc_end7
	.byte	0                               #     has no landing pad
	.byte	0                               #   On action: cleanup
.Lcst_end1:
	.p2align	2, 0x0
                                        # -- End function
	.section	.text._ZNSt4pairINSt7__cxx1112basic_stringIcSt11char_traitsIcESaIcEEES5_EC2IRA11_KcRKS5_TnNSt9enable_ifIXaaclsr5_PCCPE22_MoveConstructiblePairIT_T0_EEclsr5_PCCPE30_ImplicitlyMoveConvertiblePairISE_SF_EEEbE4typeELb1EEEOSE_OSF_,"axG",@progbits,_ZNSt4pairINSt7__cxx1112basic_stringIcSt11char_traitsIcESaIcEEES5_EC2IRA11_KcRKS5_TnNSt9enable_ifIXaaclsr5_PCCPE22_MoveConstructiblePairIT_T0_EEclsr5_PCCPE30_ImplicitlyMoveConvertiblePairISE_SF_EEEbE4typeELb1EEEOSE_OSF_,comdat
	.hidden	_ZNSt4pairINSt7__cxx1112basic_stringIcSt11char_traitsIcESaIcEEES5_EC2IRA11_KcRKS5_TnNSt9enable_ifIXaaclsr5_PCCPE22_MoveConstructiblePairIT_T0_EEclsr5_PCCPE30_ImplicitlyMoveConvertiblePairISE_SF_EEEbE4typeELb1EEEOSE_OSF_ # -- Begin function _ZNSt4pairINSt7__cxx1112basic_stringIcSt11char_traitsIcESaIcEEES5_EC2IRA11_KcRKS5_TnNSt9enable_ifIXaaclsr5_PCCPE22_MoveConstructiblePairIT_T0_EEclsr5_PCCPE30_ImplicitlyMoveConvertiblePairISE_SF_EEEbE4typeELb1EEEOSE_OSF_
	.weak	_ZNSt4pairINSt7__cxx1112basic_stringIcSt11char_traitsIcESaIcEEES5_EC2IRA11_KcRKS5_TnNSt9enable_ifIXaaclsr5_PCCPE22_MoveConstructiblePairIT_T0_EEclsr5_PCCPE30_ImplicitlyMoveConvertiblePairISE_SF_EEEbE4typeELb1EEEOSE_OSF_
	.p2align	2
	.type	_ZNSt4pairINSt7__cxx1112basic_stringIcSt11char_traitsIcESaIcEEES5_EC2IRA11_KcRKS5_TnNSt9enable_ifIXaaclsr5_PCCPE22_MoveConstructiblePairIT_T0_EEclsr5_PCCPE30_ImplicitlyMoveConvertiblePairISE_SF_EEEbE4typeELb1EEEOSE_OSF_,@function
_ZNSt4pairINSt7__cxx1112basic_stringIcSt11char_traitsIcESaIcEEES5_EC2IRA11_KcRKS5_TnNSt9enable_ifIXaaclsr5_PCCPE22_MoveConstructiblePairIT_T0_EEclsr5_PCCPE30_ImplicitlyMoveConvertiblePairISE_SF_EEEbE4typeELb1EEEOSE_OSF_: # @_ZNSt4pairINSt7__cxx1112basic_stringIcSt11char_traitsIcESaIcEEES5_EC2IRA11_KcRKS5_TnNSt9enable_ifIXaaclsr5_PCCPE22_MoveConstructiblePairIT_T0_EEclsr5_PCCPE30_ImplicitlyMoveConvertiblePairISE_SF_EEEbE4typeELb1EEEOSE_OSF_
.Lfunc_begin2:
	.cfi_startproc
	.cfi_personality 155, DW.ref.__gxx_personality_v0
	.cfi_lsda 27, .Lexception2
# %bb.0:                                # %entry
	addi.d	$sp, $sp, -64
	.cfi_def_cfa_offset 64
	st.d	$ra, $sp, 56                    # 8-byte Folded Spill
	st.d	$fp, $sp, 48                    # 8-byte Folded Spill
	st.d	$s0, $sp, 40                    # 8-byte Folded Spill
	st.d	$s1, $sp, 32                    # 8-byte Folded Spill
	st.d	$s2, $sp, 24                    # 8-byte Folded Spill
	st.d	$s3, $sp, 16                    # 8-byte Folded Spill
	.cfi_offset 1, -8
	.cfi_offset 22, -16
	.cfi_offset 23, -24
	.cfi_offset 24, -32
	.cfi_offset 25, -40
	.cfi_offset 26, -48
	move	$s0, $a2
	move	$s1, $a1
	move	$fp, $a0
	addi.d	$s3, $a0, 16
	st.d	$s3, $a0, 0
	move	$a0, $a1
	pcaddu18i	$ra, %call36(strlen)
	jirl	$ra, $ra, 0
	move	$s2, $a0
	ori	$a1, $zero, 16
	st.d	$a0, $sp, 8
	move	$a0, $s3
	bltu	$s2, $a1, .LBB8_2
# %bb.1:                                # %if.then.i.i
	addi.d	$a1, $sp, 8
	move	$a0, $fp
	move	$a2, $zero
	pcaddu18i	$ra, %call36(_ZNSt7__cxx1112basic_stringIcSt11char_traitsIcESaIcEE9_M_createERmm)
	jirl	$ra, $ra, 0
	ld.d	$a1, $sp, 8
	st.d	$a0, $fp, 0
	st.d	$a1, $fp, 16
.LBB8_2:                                # %if.end.i.i
	beqz	$s2, .LBB8_6
# %bb.3:                                # %if.end.i.i
	ori	$a1, $zero, 1
	bne	$s2, $a1, .LBB8_5
# %bb.4:                                # %if.then.i.i.i.i
	ld.b	$a1, $s1, 0
	st.b	$a1, $a0, 0
	b	.LBB8_6
.LBB8_5:                                # %if.end.i.i.i.i.i
	move	$a1, $s1
	move	$a2, $s2
	pcaddu18i	$ra, %call36(memcpy)
	jirl	$ra, $ra, 0
.LBB8_6:                                # %invoke.cont
	ld.d	$a0, $sp, 8
	ld.d	$a1, $fp, 0
	st.d	$a0, $fp, 8
	stx.b	$zero, $a1, $a0
	addi.d	$s1, $fp, 48
	st.d	$s1, $fp, 32
	ld.d	$a1, $s0, 8
	ld.d	$s0, $s0, 0
	ori	$a0, $zero, 16
	st.d	$a1, $sp, 8
	bltu	$a1, $a0, .LBB8_9
# %bb.7:                                # %if.then.i.i5
.Ltmp211:                               # EH_LABEL
	addi.d	$s2, $fp, 32
	addi.d	$a1, $sp, 8
	move	$a0, $s2
	move	$a2, $zero
	pcaddu18i	$ra, %call36(_ZNSt7__cxx1112basic_stringIcSt11char_traitsIcESaIcEE9_M_createERmm)
	jirl	$ra, $ra, 0
.Ltmp212:                               # EH_LABEL
# %bb.8:                                # %call.i4.i.noexc
	ld.d	$a1, $sp, 8
	st.d	$a0, $s2, 0
	st.d	$a1, $s1, 0
	move	$s1, $a0
.LBB8_9:                                # %if.end.i.i4
	addi.w	$a0, $zero, -1
	beq	$a1, $a0, .LBB8_13
# %bb.10:                               # %if.end.i.i4
	bnez	$a1, .LBB8_12
# %bb.11:                               # %if.then.i.i.i
	ld.b	$a0, $s0, 0
	st.b	$a0, $s1, 0
	b	.LBB8_13
.LBB8_12:                               # %if.end.i.i.i.i
	addi.d	$a2, $a1, 1
	move	$a0, $s1
	move	$a1, $s0
	pcaddu18i	$ra, %call36(memcpy)
	jirl	$ra, $ra, 0
.LBB8_13:                               # %invoke.cont3
	ld.d	$a0, $sp, 8
	st.d	$a0, $fp, 40
	ld.d	$s3, $sp, 16                    # 8-byte Folded Reload
	ld.d	$s2, $sp, 24                    # 8-byte Folded Reload
	ld.d	$s1, $sp, 32                    # 8-byte Folded Reload
	ld.d	$s0, $sp, 40                    # 8-byte Folded Reload
	ld.d	$fp, $sp, 48                    # 8-byte Folded Reload
	ld.d	$ra, $sp, 56                    # 8-byte Folded Reload
	addi.d	$sp, $sp, 64
	ret
.LBB8_14:                               # %lpad2
.Ltmp213:                               # EH_LABEL
	ld.d	$a2, $fp, 0
	move	$fp, $a0
	beq	$a2, $s3, .LBB8_16
# %bb.15:                               # %if.then.i.i8
	ld.d	$a0, $s3, 0
	addi.d	$a1, $a0, 1
	move	$a0, $a2
	pcaddu18i	$ra, %call36(_ZdlPvm)
	jirl	$ra, $ra, 0
.LBB8_16:                               # %eh.resume
	move	$a0, $fp
	pcaddu18i	$ra, %call36(_Unwind_Resume)
	jirl	$ra, $ra, 0
.Lfunc_end8:
	.size	_ZNSt4pairINSt7__cxx1112basic_stringIcSt11char_traitsIcESaIcEEES5_EC2IRA11_KcRKS5_TnNSt9enable_ifIXaaclsr5_PCCPE22_MoveConstructiblePairIT_T0_EEclsr5_PCCPE30_ImplicitlyMoveConvertiblePairISE_SF_EEEbE4typeELb1EEEOSE_OSF_, .Lfunc_end8-_ZNSt4pairINSt7__cxx1112basic_stringIcSt11char_traitsIcESaIcEEES5_EC2IRA11_KcRKS5_TnNSt9enable_ifIXaaclsr5_PCCPE22_MoveConstructiblePairIT_T0_EEclsr5_PCCPE30_ImplicitlyMoveConvertiblePairISE_SF_EEEbE4typeELb1EEEOSE_OSF_
	.cfi_endproc
	.section	.gcc_except_table._ZNSt4pairINSt7__cxx1112basic_stringIcSt11char_traitsIcESaIcEEES5_EC2IRA11_KcRKS5_TnNSt9enable_ifIXaaclsr5_PCCPE22_MoveConstructiblePairIT_T0_EEclsr5_PCCPE30_ImplicitlyMoveConvertiblePairISE_SF_EEEbE4typeELb1EEEOSE_OSF_,"aG",@progbits,_ZNSt4pairINSt7__cxx1112basic_stringIcSt11char_traitsIcESaIcEEES5_EC2IRA11_KcRKS5_TnNSt9enable_ifIXaaclsr5_PCCPE22_MoveConstructiblePairIT_T0_EEclsr5_PCCPE30_ImplicitlyMoveConvertiblePairISE_SF_EEEbE4typeELb1EEEOSE_OSF_,comdat
	.p2align	2, 0x0
GCC_except_table8:
.Lexception2:
	.byte	255                             # @LPStart Encoding = omit
	.byte	255                             # @TType Encoding = omit
	.byte	1                               # Call site Encoding = uleb128
	.uleb128 .Lcst_end2-.Lcst_begin2
.Lcst_begin2:
	.uleb128 .Lfunc_begin2-.Lfunc_begin2    # >> Call Site 1 <<
	.uleb128 .Ltmp211-.Lfunc_begin2         #   Call between .Lfunc_begin2 and .Ltmp211
	.byte	0                               #     has no landing pad
	.byte	0                               #   On action: cleanup
	.uleb128 .Ltmp211-.Lfunc_begin2         # >> Call Site 2 <<
	.uleb128 .Ltmp212-.Ltmp211              #   Call between .Ltmp211 and .Ltmp212
	.uleb128 .Ltmp213-.Lfunc_begin2         #     jumps to .Ltmp213
	.byte	0                               #   On action: cleanup
	.uleb128 .Ltmp212-.Lfunc_begin2         # >> Call Site 3 <<
	.uleb128 .Lfunc_end8-.Ltmp212           #   Call between .Ltmp212 and .Lfunc_end8
	.byte	0                               #     has no landing pad
	.byte	0                               #   On action: cleanup
.Lcst_end2:
	.p2align	2, 0x0
                                        # -- End function
	.section	.text._ZNSt4pairINSt7__cxx1112basic_stringIcSt11char_traitsIcESaIcEEES5_EC2IRA10_KcRKS5_TnNSt9enable_ifIXaaclsr5_PCCPE22_MoveConstructiblePairIT_T0_EEclsr5_PCCPE30_ImplicitlyMoveConvertiblePairISE_SF_EEEbE4typeELb1EEEOSE_OSF_,"axG",@progbits,_ZNSt4pairINSt7__cxx1112basic_stringIcSt11char_traitsIcESaIcEEES5_EC2IRA10_KcRKS5_TnNSt9enable_ifIXaaclsr5_PCCPE22_MoveConstructiblePairIT_T0_EEclsr5_PCCPE30_ImplicitlyMoveConvertiblePairISE_SF_EEEbE4typeELb1EEEOSE_OSF_,comdat
	.hidden	_ZNSt4pairINSt7__cxx1112basic_stringIcSt11char_traitsIcESaIcEEES5_EC2IRA10_KcRKS5_TnNSt9enable_ifIXaaclsr5_PCCPE22_MoveConstructiblePairIT_T0_EEclsr5_PCCPE30_ImplicitlyMoveConvertiblePairISE_SF_EEEbE4typeELb1EEEOSE_OSF_ # -- Begin function _ZNSt4pairINSt7__cxx1112basic_stringIcSt11char_traitsIcESaIcEEES5_EC2IRA10_KcRKS5_TnNSt9enable_ifIXaaclsr5_PCCPE22_MoveConstructiblePairIT_T0_EEclsr5_PCCPE30_ImplicitlyMoveConvertiblePairISE_SF_EEEbE4typeELb1EEEOSE_OSF_
	.weak	_ZNSt4pairINSt7__cxx1112basic_stringIcSt11char_traitsIcESaIcEEES5_EC2IRA10_KcRKS5_TnNSt9enable_ifIXaaclsr5_PCCPE22_MoveConstructiblePairIT_T0_EEclsr5_PCCPE30_ImplicitlyMoveConvertiblePairISE_SF_EEEbE4typeELb1EEEOSE_OSF_
	.p2align	2
	.type	_ZNSt4pairINSt7__cxx1112basic_stringIcSt11char_traitsIcESaIcEEES5_EC2IRA10_KcRKS5_TnNSt9enable_ifIXaaclsr5_PCCPE22_MoveConstructiblePairIT_T0_EEclsr5_PCCPE30_ImplicitlyMoveConvertiblePairISE_SF_EEEbE4typeELb1EEEOSE_OSF_,@function
_ZNSt4pairINSt7__cxx1112basic_stringIcSt11char_traitsIcESaIcEEES5_EC2IRA10_KcRKS5_TnNSt9enable_ifIXaaclsr5_PCCPE22_MoveConstructiblePairIT_T0_EEclsr5_PCCPE30_ImplicitlyMoveConvertiblePairISE_SF_EEEbE4typeELb1EEEOSE_OSF_: # @_ZNSt4pairINSt7__cxx1112basic_stringIcSt11char_traitsIcESaIcEEES5_EC2IRA10_KcRKS5_TnNSt9enable_ifIXaaclsr5_PCCPE22_MoveConstructiblePairIT_T0_EEclsr5_PCCPE30_ImplicitlyMoveConvertiblePairISE_SF_EEEbE4typeELb1EEEOSE_OSF_
.Lfunc_begin3:
	.cfi_startproc
	.cfi_personality 155, DW.ref.__gxx_personality_v0
	.cfi_lsda 27, .Lexception3
# %bb.0:                                # %entry
	addi.d	$sp, $sp, -64
	.cfi_def_cfa_offset 64
	st.d	$ra, $sp, 56                    # 8-byte Folded Spill
	st.d	$fp, $sp, 48                    # 8-byte Folded Spill
	st.d	$s0, $sp, 40                    # 8-byte Folded Spill
	st.d	$s1, $sp, 32                    # 8-byte Folded Spill
	st.d	$s2, $sp, 24                    # 8-byte Folded Spill
	st.d	$s3, $sp, 16                    # 8-byte Folded Spill
	.cfi_offset 1, -8
	.cfi_offset 22, -16
	.cfi_offset 23, -24
	.cfi_offset 24, -32
	.cfi_offset 25, -40
	.cfi_offset 26, -48
	move	$s0, $a2
	move	$s1, $a1
	move	$fp, $a0
	addi.d	$s3, $a0, 16
	st.d	$s3, $a0, 0
	move	$a0, $a1
	pcaddu18i	$ra, %call36(strlen)
	jirl	$ra, $ra, 0
	move	$s2, $a0
	ori	$a1, $zero, 16
	st.d	$a0, $sp, 8
	move	$a0, $s3
	bltu	$s2, $a1, .LBB9_2
# %bb.1:                                # %if.then.i.i
	addi.d	$a1, $sp, 8
	move	$a0, $fp
	move	$a2, $zero
	pcaddu18i	$ra, %call36(_ZNSt7__cxx1112basic_stringIcSt11char_traitsIcESaIcEE9_M_createERmm)
	jirl	$ra, $ra, 0
	ld.d	$a1, $sp, 8
	st.d	$a0, $fp, 0
	st.d	$a1, $fp, 16
.LBB9_2:                                # %if.end.i.i
	beqz	$s2, .LBB9_6
# %bb.3:                                # %if.end.i.i
	ori	$a1, $zero, 1
	bne	$s2, $a1, .LBB9_5
# %bb.4:                                # %if.then.i.i.i.i
	ld.b	$a1, $s1, 0
	st.b	$a1, $a0, 0
	b	.LBB9_6
.LBB9_5:                                # %if.end.i.i.i.i.i
	move	$a1, $s1
	move	$a2, $s2
	pcaddu18i	$ra, %call36(memcpy)
	jirl	$ra, $ra, 0
.LBB9_6:                                # %invoke.cont
	ld.d	$a0, $sp, 8
	ld.d	$a1, $fp, 0
	st.d	$a0, $fp, 8
	stx.b	$zero, $a1, $a0
	addi.d	$s1, $fp, 48
	st.d	$s1, $fp, 32
	ld.d	$a1, $s0, 8
	ld.d	$s0, $s0, 0
	ori	$a0, $zero, 16
	st.d	$a1, $sp, 8
	bltu	$a1, $a0, .LBB9_9
# %bb.7:                                # %if.then.i.i5
.Ltmp214:                               # EH_LABEL
	addi.d	$s2, $fp, 32
	addi.d	$a1, $sp, 8
	move	$a0, $s2
	move	$a2, $zero
	pcaddu18i	$ra, %call36(_ZNSt7__cxx1112basic_stringIcSt11char_traitsIcESaIcEE9_M_createERmm)
	jirl	$ra, $ra, 0
.Ltmp215:                               # EH_LABEL
# %bb.8:                                # %call.i4.i.noexc
	ld.d	$a1, $sp, 8
	st.d	$a0, $s2, 0
	st.d	$a1, $s1, 0
	move	$s1, $a0
.LBB9_9:                                # %if.end.i.i4
	addi.w	$a0, $zero, -1
	beq	$a1, $a0, .LBB9_13
# %bb.10:                               # %if.end.i.i4
	bnez	$a1, .LBB9_12
# %bb.11:                               # %if.then.i.i.i
	ld.b	$a0, $s0, 0
	st.b	$a0, $s1, 0
	b	.LBB9_13
.LBB9_12:                               # %if.end.i.i.i.i
	addi.d	$a2, $a1, 1
	move	$a0, $s1
	move	$a1, $s0
	pcaddu18i	$ra, %call36(memcpy)
	jirl	$ra, $ra, 0
.LBB9_13:                               # %invoke.cont3
	ld.d	$a0, $sp, 8
	st.d	$a0, $fp, 40
	ld.d	$s3, $sp, 16                    # 8-byte Folded Reload
	ld.d	$s2, $sp, 24                    # 8-byte Folded Reload
	ld.d	$s1, $sp, 32                    # 8-byte Folded Reload
	ld.d	$s0, $sp, 40                    # 8-byte Folded Reload
	ld.d	$fp, $sp, 48                    # 8-byte Folded Reload
	ld.d	$ra, $sp, 56                    # 8-byte Folded Reload
	addi.d	$sp, $sp, 64
	ret
.LBB9_14:                               # %lpad2
.Ltmp216:                               # EH_LABEL
	ld.d	$a2, $fp, 0
	move	$fp, $a0
	beq	$a2, $s3, .LBB9_16
# %bb.15:                               # %if.then.i.i8
	ld.d	$a0, $s3, 0
	addi.d	$a1, $a0, 1
	move	$a0, $a2
	pcaddu18i	$ra, %call36(_ZdlPvm)
	jirl	$ra, $ra, 0
.LBB9_16:                               # %eh.resume
	move	$a0, $fp
	pcaddu18i	$ra, %call36(_Unwind_Resume)
	jirl	$ra, $ra, 0
.Lfunc_end9:
	.size	_ZNSt4pairINSt7__cxx1112basic_stringIcSt11char_traitsIcESaIcEEES5_EC2IRA10_KcRKS5_TnNSt9enable_ifIXaaclsr5_PCCPE22_MoveConstructiblePairIT_T0_EEclsr5_PCCPE30_ImplicitlyMoveConvertiblePairISE_SF_EEEbE4typeELb1EEEOSE_OSF_, .Lfunc_end9-_ZNSt4pairINSt7__cxx1112basic_stringIcSt11char_traitsIcESaIcEEES5_EC2IRA10_KcRKS5_TnNSt9enable_ifIXaaclsr5_PCCPE22_MoveConstructiblePairIT_T0_EEclsr5_PCCPE30_ImplicitlyMoveConvertiblePairISE_SF_EEEbE4typeELb1EEEOSE_OSF_
	.cfi_endproc
	.section	.gcc_except_table._ZNSt4pairINSt7__cxx1112basic_stringIcSt11char_traitsIcESaIcEEES5_EC2IRA10_KcRKS5_TnNSt9enable_ifIXaaclsr5_PCCPE22_MoveConstructiblePairIT_T0_EEclsr5_PCCPE30_ImplicitlyMoveConvertiblePairISE_SF_EEEbE4typeELb1EEEOSE_OSF_,"aG",@progbits,_ZNSt4pairINSt7__cxx1112basic_stringIcSt11char_traitsIcESaIcEEES5_EC2IRA10_KcRKS5_TnNSt9enable_ifIXaaclsr5_PCCPE22_MoveConstructiblePairIT_T0_EEclsr5_PCCPE30_ImplicitlyMoveConvertiblePairISE_SF_EEEbE4typeELb1EEEOSE_OSF_,comdat
	.p2align	2, 0x0
GCC_except_table9:
.Lexception3:
	.byte	255                             # @LPStart Encoding = omit
	.byte	255                             # @TType Encoding = omit
	.byte	1                               # Call site Encoding = uleb128
	.uleb128 .Lcst_end3-.Lcst_begin3
.Lcst_begin3:
	.uleb128 .Lfunc_begin3-.Lfunc_begin3    # >> Call Site 1 <<
	.uleb128 .Ltmp214-.Lfunc_begin3         #   Call between .Lfunc_begin3 and .Ltmp214
	.byte	0                               #     has no landing pad
	.byte	0                               #   On action: cleanup
	.uleb128 .Ltmp214-.Lfunc_begin3         # >> Call Site 2 <<
	.uleb128 .Ltmp215-.Ltmp214              #   Call between .Ltmp214 and .Ltmp215
	.uleb128 .Ltmp216-.Lfunc_begin3         #     jumps to .Ltmp216
	.byte	0                               #   On action: cleanup
	.uleb128 .Ltmp215-.Lfunc_begin3         # >> Call Site 3 <<
	.uleb128 .Lfunc_end9-.Ltmp215           #   Call between .Ltmp215 and .Lfunc_end9
	.byte	0                               #     has no landing pad
	.byte	0                               #   On action: cleanup
.Lcst_end3:
	.p2align	2, 0x0
                                        # -- End function
	.section	.text._ZNSt4pairINSt7__cxx1112basic_stringIcSt11char_traitsIcESaIcEEES5_EC2IRA5_KcRA13_S8_TnNSt9enable_ifIXaaclsr5_PCCPE22_MoveConstructiblePairIT_T0_EEclsr5_PCCPE30_ImplicitlyMoveConvertiblePairISE_SF_EEEbE4typeELb1EEEOSE_OSF_,"axG",@progbits,_ZNSt4pairINSt7__cxx1112basic_stringIcSt11char_traitsIcESaIcEEES5_EC2IRA5_KcRA13_S8_TnNSt9enable_ifIXaaclsr5_PCCPE22_MoveConstructiblePairIT_T0_EEclsr5_PCCPE30_ImplicitlyMoveConvertiblePairISE_SF_EEEbE4typeELb1EEEOSE_OSF_,comdat
	.hidden	_ZNSt4pairINSt7__cxx1112basic_stringIcSt11char_traitsIcESaIcEEES5_EC2IRA5_KcRA13_S8_TnNSt9enable_ifIXaaclsr5_PCCPE22_MoveConstructiblePairIT_T0_EEclsr5_PCCPE30_ImplicitlyMoveConvertiblePairISE_SF_EEEbE4typeELb1EEEOSE_OSF_ # -- Begin function _ZNSt4pairINSt7__cxx1112basic_stringIcSt11char_traitsIcESaIcEEES5_EC2IRA5_KcRA13_S8_TnNSt9enable_ifIXaaclsr5_PCCPE22_MoveConstructiblePairIT_T0_EEclsr5_PCCPE30_ImplicitlyMoveConvertiblePairISE_SF_EEEbE4typeELb1EEEOSE_OSF_
	.weak	_ZNSt4pairINSt7__cxx1112basic_stringIcSt11char_traitsIcESaIcEEES5_EC2IRA5_KcRA13_S8_TnNSt9enable_ifIXaaclsr5_PCCPE22_MoveConstructiblePairIT_T0_EEclsr5_PCCPE30_ImplicitlyMoveConvertiblePairISE_SF_EEEbE4typeELb1EEEOSE_OSF_
	.p2align	2
	.type	_ZNSt4pairINSt7__cxx1112basic_stringIcSt11char_traitsIcESaIcEEES5_EC2IRA5_KcRA13_S8_TnNSt9enable_ifIXaaclsr5_PCCPE22_MoveConstructiblePairIT_T0_EEclsr5_PCCPE30_ImplicitlyMoveConvertiblePairISE_SF_EEEbE4typeELb1EEEOSE_OSF_,@function
_ZNSt4pairINSt7__cxx1112basic_stringIcSt11char_traitsIcESaIcEEES5_EC2IRA5_KcRA13_S8_TnNSt9enable_ifIXaaclsr5_PCCPE22_MoveConstructiblePairIT_T0_EEclsr5_PCCPE30_ImplicitlyMoveConvertiblePairISE_SF_EEEbE4typeELb1EEEOSE_OSF_: # @_ZNSt4pairINSt7__cxx1112basic_stringIcSt11char_traitsIcESaIcEEES5_EC2IRA5_KcRA13_S8_TnNSt9enable_ifIXaaclsr5_PCCPE22_MoveConstructiblePairIT_T0_EEclsr5_PCCPE30_ImplicitlyMoveConvertiblePairISE_SF_EEEbE4typeELb1EEEOSE_OSF_
.Lfunc_begin4:
	.cfi_startproc
	.cfi_personality 155, DW.ref.__gxx_personality_v0
	.cfi_lsda 27, .Lexception4
# %bb.0:                                # %entry
	addi.d	$sp, $sp, -80
	.cfi_def_cfa_offset 80
	st.d	$ra, $sp, 72                    # 8-byte Folded Spill
	st.d	$fp, $sp, 64                    # 8-byte Folded Spill
	st.d	$s0, $sp, 56                    # 8-byte Folded Spill
	st.d	$s1, $sp, 48                    # 8-byte Folded Spill
	st.d	$s2, $sp, 40                    # 8-byte Folded Spill
	st.d	$s3, $sp, 32                    # 8-byte Folded Spill
	st.d	$s4, $sp, 24                    # 8-byte Folded Spill
	.cfi_offset 1, -8
	.cfi_offset 22, -16
	.cfi_offset 23, -24
	.cfi_offset 24, -32
	.cfi_offset 25, -40
	.cfi_offset 26, -48
	.cfi_offset 27, -56
	move	$s0, $a2
	move	$s1, $a1
	move	$fp, $a0
	addi.d	$s4, $a0, 16
	st.d	$s4, $a0, 0
	move	$a0, $a1
	pcaddu18i	$ra, %call36(strlen)
	jirl	$ra, $ra, 0
	move	$s2, $a0
	ori	$a1, $zero, 16
	st.d	$a0, $sp, 16
	move	$a0, $s4
	bltu	$s2, $a1, .LBB10_2
# %bb.1:                                # %if.then.i.i
	addi.d	$a1, $sp, 16
	move	$a0, $fp
	move	$a2, $zero
	pcaddu18i	$ra, %call36(_ZNSt7__cxx1112basic_stringIcSt11char_traitsIcESaIcEE9_M_createERmm)
	jirl	$ra, $ra, 0
	ld.d	$a1, $sp, 16
	st.d	$a0, $fp, 0
	st.d	$a1, $fp, 16
.LBB10_2:                               # %if.end.i.i
	beqz	$s2, .LBB10_6
# %bb.3:                                # %if.end.i.i
	ori	$a1, $zero, 1
	bne	$s2, $a1, .LBB10_5
# %bb.4:                                # %if.then.i.i.i.i
	ld.b	$a1, $s1, 0
	st.b	$a1, $a0, 0
	b	.LBB10_6
.LBB10_5:                               # %if.end.i.i.i.i.i
	move	$a1, $s1
	move	$a2, $s2
	pcaddu18i	$ra, %call36(memcpy)
	jirl	$ra, $ra, 0
.LBB10_6:                               # %invoke.cont
	ld.d	$a0, $sp, 16
	ld.d	$a1, $fp, 0
	st.d	$a0, $fp, 8
	stx.b	$zero, $a1, $a0
	addi.d	$s1, $fp, 48
	st.d	$s1, $fp, 32
	move	$a0, $s0
	pcaddu18i	$ra, %call36(strlen)
	jirl	$ra, $ra, 0
	move	$s2, $a0
	ori	$a0, $zero, 16
	st.d	$s2, $sp, 16
	bltu	$s2, $a0, .LBB10_9
# %bb.7:                                # %if.then.i.i11
.Ltmp217:                               # EH_LABEL
	addi.d	$s3, $fp, 32
	addi.d	$a1, $sp, 16
	move	$a0, $s3
	move	$a2, $zero
	pcaddu18i	$ra, %call36(_ZNSt7__cxx1112basic_stringIcSt11char_traitsIcESaIcEE9_M_createERmm)
	jirl	$ra, $ra, 0
.Ltmp218:                               # EH_LABEL
# %bb.8:                                # %call2.i5.i.noexc12
	ld.d	$a1, $sp, 16
	st.d	$a0, $s3, 0
	st.d	$a1, $s1, 0
	move	$s1, $a0
.LBB10_9:                               # %if.end.i.i6
	beqz	$s2, .LBB10_13
# %bb.10:                               # %if.end.i.i6
	ori	$a0, $zero, 1
	bne	$s2, $a0, .LBB10_12
# %bb.11:                               # %if.then.i.i.i.i9
	ld.b	$a0, $s0, 0
	st.b	$a0, $s1, 0
	b	.LBB10_13
.LBB10_12:                              # %if.end.i.i.i.i.i10
	move	$a0, $s1
	move	$a1, $s0
	move	$a2, $s2
	pcaddu18i	$ra, %call36(memcpy)
	jirl	$ra, $ra, 0
.LBB10_13:                              # %invoke.cont5
	ld.d	$a0, $sp, 16
	ld.d	$a1, $fp, 32
	st.d	$a0, $fp, 40
	stx.b	$zero, $a1, $a0
	ld.d	$s4, $sp, 24                    # 8-byte Folded Reload
	ld.d	$s3, $sp, 32                    # 8-byte Folded Reload
	ld.d	$s2, $sp, 40                    # 8-byte Folded Reload
	ld.d	$s1, $sp, 48                    # 8-byte Folded Reload
	ld.d	$s0, $sp, 56                    # 8-byte Folded Reload
	ld.d	$fp, $sp, 64                    # 8-byte Folded Reload
	ld.d	$ra, $sp, 72                    # 8-byte Folded Reload
	addi.d	$sp, $sp, 80
	ret
.LBB10_14:                              # %lpad4
.Ltmp219:                               # EH_LABEL
	ld.d	$a2, $fp, 0
	move	$fp, $a0
	beq	$a2, $s4, .LBB10_16
# %bb.15:                               # %if.then.i.i15
	ld.d	$a0, $s4, 0
	addi.d	$a1, $a0, 1
	move	$a0, $a2
	pcaddu18i	$ra, %call36(_ZdlPvm)
	jirl	$ra, $ra, 0
.LBB10_16:                              # %eh.resume
	move	$a0, $fp
	pcaddu18i	$ra, %call36(_Unwind_Resume)
	jirl	$ra, $ra, 0
.Lfunc_end10:
	.size	_ZNSt4pairINSt7__cxx1112basic_stringIcSt11char_traitsIcESaIcEEES5_EC2IRA5_KcRA13_S8_TnNSt9enable_ifIXaaclsr5_PCCPE22_MoveConstructiblePairIT_T0_EEclsr5_PCCPE30_ImplicitlyMoveConvertiblePairISE_SF_EEEbE4typeELb1EEEOSE_OSF_, .Lfunc_end10-_ZNSt4pairINSt7__cxx1112basic_stringIcSt11char_traitsIcESaIcEEES5_EC2IRA5_KcRA13_S8_TnNSt9enable_ifIXaaclsr5_PCCPE22_MoveConstructiblePairIT_T0_EEclsr5_PCCPE30_ImplicitlyMoveConvertiblePairISE_SF_EEEbE4typeELb1EEEOSE_OSF_
	.cfi_endproc
	.section	.gcc_except_table._ZNSt4pairINSt7__cxx1112basic_stringIcSt11char_traitsIcESaIcEEES5_EC2IRA5_KcRA13_S8_TnNSt9enable_ifIXaaclsr5_PCCPE22_MoveConstructiblePairIT_T0_EEclsr5_PCCPE30_ImplicitlyMoveConvertiblePairISE_SF_EEEbE4typeELb1EEEOSE_OSF_,"aG",@progbits,_ZNSt4pairINSt7__cxx1112basic_stringIcSt11char_traitsIcESaIcEEES5_EC2IRA5_KcRA13_S8_TnNSt9enable_ifIXaaclsr5_PCCPE22_MoveConstructiblePairIT_T0_EEclsr5_PCCPE30_ImplicitlyMoveConvertiblePairISE_SF_EEEbE4typeELb1EEEOSE_OSF_,comdat
	.p2align	2, 0x0
GCC_except_table10:
.Lexception4:
	.byte	255                             # @LPStart Encoding = omit
	.byte	255                             # @TType Encoding = omit
	.byte	1                               # Call site Encoding = uleb128
	.uleb128 .Lcst_end4-.Lcst_begin4
.Lcst_begin4:
	.uleb128 .Lfunc_begin4-.Lfunc_begin4    # >> Call Site 1 <<
	.uleb128 .Ltmp217-.Lfunc_begin4         #   Call between .Lfunc_begin4 and .Ltmp217
	.byte	0                               #     has no landing pad
	.byte	0                               #   On action: cleanup
	.uleb128 .Ltmp217-.Lfunc_begin4         # >> Call Site 2 <<
	.uleb128 .Ltmp218-.Ltmp217              #   Call between .Ltmp217 and .Ltmp218
	.uleb128 .Ltmp219-.Lfunc_begin4         #     jumps to .Ltmp219
	.byte	0                               #   On action: cleanup
	.uleb128 .Ltmp218-.Lfunc_begin4         # >> Call Site 3 <<
	.uleb128 .Lfunc_end10-.Ltmp218          #   Call between .Ltmp218 and .Lfunc_end10
	.byte	0                               #     has no landing pad
	.byte	0                               #   On action: cleanup
.Lcst_end4:
	.p2align	2, 0x0
                                        # -- End function
	.section	.text._ZNSt4pairINSt7__cxx1112basic_stringIcSt11char_traitsIcESaIcEEES5_ED2Ev,"axG",@progbits,_ZNSt4pairINSt7__cxx1112basic_stringIcSt11char_traitsIcESaIcEEES5_ED2Ev,comdat
	.hidden	_ZNSt4pairINSt7__cxx1112basic_stringIcSt11char_traitsIcESaIcEEES5_ED2Ev # -- Begin function _ZNSt4pairINSt7__cxx1112basic_stringIcSt11char_traitsIcESaIcEEES5_ED2Ev
	.weak	_ZNSt4pairINSt7__cxx1112basic_stringIcSt11char_traitsIcESaIcEEES5_ED2Ev
	.p2align	2
	.type	_ZNSt4pairINSt7__cxx1112basic_stringIcSt11char_traitsIcESaIcEEES5_ED2Ev,@function
_ZNSt4pairINSt7__cxx1112basic_stringIcSt11char_traitsIcESaIcEEES5_ED2Ev: # @_ZNSt4pairINSt7__cxx1112basic_stringIcSt11char_traitsIcESaIcEEES5_ED2Ev
	.cfi_startproc
# %bb.0:                                # %entry
	addi.d	$sp, $sp, -16
	.cfi_def_cfa_offset 16
	st.d	$ra, $sp, 8                     # 8-byte Folded Spill
	st.d	$fp, $sp, 0                     # 8-byte Folded Spill
	.cfi_offset 1, -8
	.cfi_offset 22, -16
	move	$fp, $a0
	ld.d	$a0, $a0, 32
	addi.d	$a1, $fp, 48
	beq	$a0, $a1, .LBB11_2
# %bb.1:                                # %if.then.i.i
	ld.d	$a1, $a1, 0
	addi.d	$a1, $a1, 1
	pcaddu18i	$ra, %call36(_ZdlPvm)
	jirl	$ra, $ra, 0
.LBB11_2:                               # %_ZNSt7__cxx1112basic_stringIcSt11char_traitsIcESaIcEED2Ev.exit
	ld.d	$a0, $fp, 0
	addi.d	$a1, $fp, 16
	beq	$a0, $a1, .LBB11_4
# %bb.3:                                # %if.then.i.i2
	ld.d	$a1, $a1, 0
	addi.d	$a1, $a1, 1
	ld.d	$fp, $sp, 0                     # 8-byte Folded Reload
	ld.d	$ra, $sp, 8                     # 8-byte Folded Reload
	addi.d	$sp, $sp, 16
	pcaddu18i	$t8, %call36(_ZdlPvm)
	jr	$t8
.LBB11_4:                               # %_ZNSt7__cxx1112basic_stringIcSt11char_traitsIcESaIcEED2Ev.exit7
	ld.d	$fp, $sp, 0                     # 8-byte Folded Reload
	ld.d	$ra, $sp, 8                     # 8-byte Folded Reload
	addi.d	$sp, $sp, 16
	ret
.Lfunc_end11:
	.size	_ZNSt4pairINSt7__cxx1112basic_stringIcSt11char_traitsIcESaIcEEES5_ED2Ev, .Lfunc_end11-_ZNSt4pairINSt7__cxx1112basic_stringIcSt11char_traitsIcESaIcEEES5_ED2Ev
	.cfi_endproc
                                        # -- End function
	.section	.text._ZN8TestCaseD2Ev,"axG",@progbits,_ZN8TestCaseD2Ev,comdat
	.hidden	_ZN8TestCaseD2Ev                # -- Begin function _ZN8TestCaseD2Ev
	.weak	_ZN8TestCaseD2Ev
	.p2align	2
	.type	_ZN8TestCaseD2Ev,@function
_ZN8TestCaseD2Ev:                       # @_ZN8TestCaseD2Ev
	.cfi_startproc
# %bb.0:                                # %entry
	addi.d	$sp, $sp, -32
	.cfi_def_cfa_offset 32
	st.d	$ra, $sp, 24                    # 8-byte Folded Spill
	st.d	$fp, $sp, 16                    # 8-byte Folded Spill
	st.d	$s0, $sp, 8                     # 8-byte Folded Spill
	.cfi_offset 1, -8
	.cfi_offset 22, -16
	.cfi_offset 23, -24
	move	$fp, $a0
	ld.d	$s0, $a0, 80
	beqz	$s0, .LBB12_5
# %bb.1:                                # %if.then.i.i
	ld.d	$a0, $s0, 8
	ori	$a1, $zero, 1
	lu32i.d	$a1, 1
	dbar	20
	bne	$a0, $a1, .LBB12_3
# %bb.2:                                # %if.then.i.i.i
	ld.d	$a0, $s0, 0
	st.d	$zero, $s0, 8
	ld.d	$a1, $a0, 16
	move	$a0, $s0
	jirl	$ra, $a1, 0
	ld.d	$a0, $s0, 0
	ld.d	$a1, $a0, 24
	move	$a0, $s0
	jirl	$ra, $a1, 0
	ld.d	$a0, $fp, 40
	addi.d	$a1, $fp, 56
	bne	$a0, $a1, .LBB12_6
	b	.LBB12_7
.LBB12_3:                               # %if.end.i.i.i
	pcalau12i	$a1, %got_pc_hi20(__libc_single_threaded)
	ld.d	$a1, $a1, %got_pc_lo12(__libc_single_threaded)
	ld.bu	$a1, $a1, 0
	beqz	$a1, .LBB12_10
# %bb.4:                                # %if.then.i.i.i.i
	addi.d	$a1, $a0, -1
	st.w	$a1, $s0, 8
	addi.w	$a0, $a0, 0
	ori	$a1, $zero, 1
	beq	$a0, $a1, .LBB12_11
.LBB12_5:                               # %_ZNSt12__shared_ptrIN9benchmark5RegexELN9__gnu_cxx12_Lock_policyE2EED2Ev.exit
	ld.d	$a0, $fp, 40
	addi.d	$a1, $fp, 56
	beq	$a0, $a1, .LBB12_7
.LBB12_6:                               # %if.then.i.i2
	ld.d	$a1, $a1, 0
	addi.d	$a1, $a1, 1
	pcaddu18i	$ra, %call36(_ZdlPvm)
	jirl	$ra, $ra, 0
.LBB12_7:                               # %_ZNSt7__cxx1112basic_stringIcSt11char_traitsIcESaIcEED2Ev.exit
	ld.d	$a0, $fp, 0
	addi.d	$a1, $fp, 16
	beq	$a0, $a1, .LBB12_9
# %bb.8:                                # %if.then.i.i4
	ld.d	$a1, $a1, 0
	addi.d	$a1, $a1, 1
	ld.d	$s0, $sp, 8                     # 8-byte Folded Reload
	ld.d	$fp, $sp, 16                    # 8-byte Folded Reload
	ld.d	$ra, $sp, 24                    # 8-byte Folded Reload
	addi.d	$sp, $sp, 32
	pcaddu18i	$t8, %call36(_ZdlPvm)
	jr	$t8
.LBB12_9:                               # %_ZNSt7__cxx1112basic_stringIcSt11char_traitsIcESaIcEED2Ev.exit9
	ld.d	$s0, $sp, 8                     # 8-byte Folded Reload
	ld.d	$fp, $sp, 16                    # 8-byte Folded Reload
	ld.d	$ra, $sp, 24                    # 8-byte Folded Reload
	addi.d	$sp, $sp, 32
	ret
.LBB12_10:                              # %if.else.i.i.i.i
	addi.d	$a1, $s0, 8
	addi.w	$a2, $zero, -1
	amadd_db.w	$a0, $a2, $a1
	addi.w	$a0, $a0, 0
	ori	$a1, $zero, 1
	bne	$a0, $a1, .LBB12_5
.LBB12_11:                              # %if.then7.i.i.i
	move	$a0, $s0
	pcaddu18i	$ra, %call36(_ZNSt16_Sp_counted_baseILN9__gnu_cxx12_Lock_policyE2EE24_M_release_last_use_coldEv)
	jirl	$ra, $ra, 0
	ld.d	$a0, $fp, 40
	addi.d	$a1, $fp, 56
	bne	$a0, $a1, .LBB12_6
	b	.LBB12_7
.Lfunc_end12:
	.size	_ZN8TestCaseD2Ev, .Lfunc_end12-_ZN8TestCaseD2Ev
	.cfi_endproc
                                        # -- End function
	.section	.text._ZNSt7__cxx119to_stringEi,"axG",@progbits,_ZNSt7__cxx119to_stringEi,comdat
	.weak	_ZNSt7__cxx119to_stringEi       # -- Begin function _ZNSt7__cxx119to_stringEi
	.p2align	5
	.type	_ZNSt7__cxx119to_stringEi,@function
_ZNSt7__cxx119to_stringEi:              # @_ZNSt7__cxx119to_stringEi
.Lfunc_begin5:
	.cfi_startproc
	.cfi_personality 155, DW.ref.__gxx_personality_v0
	.cfi_lsda 27, .Lexception5
# %bb.0:                                # %entry
	addi.d	$sp, $sp, -48
	.cfi_def_cfa_offset 48
	st.d	$ra, $sp, 40                    # 8-byte Folded Spill
	st.d	$fp, $sp, 32                    # 8-byte Folded Spill
	st.d	$s0, $sp, 24                    # 8-byte Folded Spill
	st.d	$s1, $sp, 16                    # 8-byte Folded Spill
	st.d	$s2, $sp, 8                     # 8-byte Folded Spill
	st.d	$s3, $sp, 0                     # 8-byte Folded Spill
	.cfi_offset 1, -8
	.cfi_offset 22, -16
	.cfi_offset 23, -24
	.cfi_offset 24, -32
	.cfi_offset 25, -40
	.cfi_offset 26, -48
	move	$fp, $a0
	bstrpick.d	$s2, $a1, 31, 31
	srai.d	$a0, $a1, 31
	xor	$a1, $a1, $a0
	sub.w	$s1, $a1, $a0
	ori	$a0, $zero, 10
	ori	$s3, $zero, 1
	bltu	$s1, $a0, .LBB13_9
# %bb.1:                                # %if.end.i.preheader
	ori	$s3, $zero, 4
	ori	$a0, $zero, 99
	ori	$a1, $zero, 999
	ori	$a2, $zero, 625
	lu12i.w	$a3, -189583
	ori	$a3, $a3, 1881
	lu32i.d	$a3, 0
	lu12i.w	$a4, 24
	ori	$a4, $a4, 1695
	move	$a6, $s1
	.p2align	4, , 16
.LBB13_2:                               # %if.end.i
                                        # =>This Inner Loop Header: Depth=1
	bgeu	$a0, $a6, .LBB13_7
# %bb.3:                                # %if.end5.i
                                        #   in Loop: Header=BB13_2 Depth=1
	move	$a5, $a6
	bgeu	$a1, $a6, .LBB13_8
# %bb.4:                                # %if.end9.i
                                        #   in Loop: Header=BB13_2 Depth=1
	bstrpick.d	$a6, $a5, 31, 4
	bltu	$a6, $a2, .LBB13_9
# %bb.5:                                # %if.end14.i
                                        #   in Loop: Header=BB13_2 Depth=1
	bstrpick.d	$a6, $a5, 31, 0
	mul.d	$a6, $a6, $a3
	srli.d	$a6, $a6, 45
	addi.w	$s3, $s3, 4
	bltu	$a4, $a5, .LBB13_2
# %bb.6:                                # %_ZNSt8__detail14__to_chars_lenIjEEjT_i.exit.loopexit
	addi.w	$s3, $s3, -3
	b	.LBB13_9
.LBB13_7:                               # %if.then4.i
	addi.w	$s3, $s3, -2
	b	.LBB13_9
.LBB13_8:                               # %if.then7.i
	addi.w	$s3, $s3, -1
.LBB13_9:                               # %_ZNSt8__detail14__to_chars_lenIjEEjT_i.exit
	addi.d	$a0, $fp, 16
	st.d	$a0, $fp, 0
	st.d	$zero, $fp, 8
	st.b	$zero, $fp, 16
	add.d	$a0, $s3, $s2
	bstrpick.d	$s0, $a0, 31, 0
.Ltmp220:                               # EH_LABEL
	move	$a0, $fp
	move	$a1, $s0
	pcaddu18i	$ra, %call36(_ZNSt7__cxx1112basic_stringIcSt11char_traitsIcESaIcEE7reserveEm)
	jirl	$ra, $ra, 0
.Ltmp221:                               # EH_LABEL
# %bb.10:                               # %.noexc
	ld.d	$a0, $fp, 0
	ori	$a1, $zero, 45
	st.b	$a1, $a0, 0
	add.d	$a0, $a0, $s2
	ori	$a2, $zero, 100
	pcalau12i	$a1, %pc_hi20(.L__const._ZNSt8__detail18__to_chars_10_implIjEEvPcjT_.__digits)
	addi.d	$a1, $a1, %pc_lo12(.L__const._ZNSt8__detail18__to_chars_10_implIjEEvPcjT_.__digits)
	bltu	$s1, $a2, .LBB13_15
# %bb.11:                               # %while.body.preheader.i.i.i
	addi.w	$a3, $s3, -2
	lu12i.w	$a4, 335544
	ori	$a4, $a4, 1311
	ori	$a6, $zero, 624
	.p2align	4, , 16
.LBB13_12:                              # %while.body.i.i.i
                                        # =>This Inner Loop Header: Depth=1
	bstrpick.d	$a5, $s1, 31, 0
	mul.d	$a5, $a5, $a4
	srli.d	$a5, $a5, 37
	mul.d	$a7, $a5, $a2
	sub.w	$a7, $s1, $a7
	slli.d	$a7, $a7, 1
	bstrpick.d	$t0, $a7, 31, 1
	alsl.d	$t0, $t0, $a1, 1
	ld.b	$t0, $t0, 1
	addi.d	$t1, $a3, 1
	bstrpick.d	$t1, $t1, 31, 0
	stx.b	$t0, $a0, $t1
	addi.w	$a7, $a7, 0
	ldx.b	$a7, $a1, $a7
	bstrpick.d	$t0, $a3, 31, 0
	stx.b	$a7, $a0, $t0
	bstrpick.d	$a7, $s1, 31, 4
	addi.w	$a3, $a3, -2
	move	$s1, $a5
	bltu	$a6, $a7, .LBB13_12
# %bb.13:                               # %while.end.i.i.i
	ori	$a2, $zero, 10
	bltu	$a5, $a2, .LBB13_16
.LBB13_14:                              # %if.then.i.i.i
	slli.d	$a2, $a5, 1
	bstrpick.d	$a3, $a2, 31, 1
	alsl.d	$a3, $a3, $a1, 1
	ld.b	$a3, $a3, 1
	st.b	$a3, $a0, 1
	addi.w	$a2, $a2, 0
	ldx.bu	$a1, $a1, $a2
	b	.LBB13_17
.LBB13_15:
	move	$a5, $s1
	ori	$a2, $zero, 10
	bgeu	$a5, $a2, .LBB13_14
.LBB13_16:                              # %if.else.i.i.i
	ori	$a1, $a5, 48
.LBB13_17:                              # %nrvo.skipdtor
	st.b	$a1, $a0, 0
	ld.d	$a0, $fp, 0
	st.d	$s0, $fp, 8
	stx.b	$zero, $a0, $s0
	ld.d	$s3, $sp, 0                     # 8-byte Folded Reload
	ld.d	$s2, $sp, 8                     # 8-byte Folded Reload
	ld.d	$s1, $sp, 16                    # 8-byte Folded Reload
	ld.d	$s0, $sp, 24                    # 8-byte Folded Reload
	ld.d	$fp, $sp, 32                    # 8-byte Folded Reload
	ld.d	$ra, $sp, 40                    # 8-byte Folded Reload
	addi.d	$sp, $sp, 48
	ret
.LBB13_18:                              # %terminate.lpad
.Ltmp222:                               # EH_LABEL
	pcaddu18i	$ra, %call36(__clang_call_terminate)
	jirl	$ra, $ra, 0
.Lfunc_end13:
	.size	_ZNSt7__cxx119to_stringEi, .Lfunc_end13-_ZNSt7__cxx119to_stringEi
	.cfi_endproc
	.section	.gcc_except_table._ZNSt7__cxx119to_stringEi,"aG",@progbits,_ZNSt7__cxx119to_stringEi,comdat
	.p2align	2, 0x0
GCC_except_table13:
.Lexception5:
	.byte	255                             # @LPStart Encoding = omit
	.byte	155                             # @TType Encoding = indirect pcrel sdata4
	.uleb128 .Lttbase0-.Lttbaseref0
.Lttbaseref0:
	.byte	1                               # Call site Encoding = uleb128
	.uleb128 .Lcst_end5-.Lcst_begin5
.Lcst_begin5:
	.uleb128 .Ltmp220-.Lfunc_begin5         # >> Call Site 1 <<
	.uleb128 .Ltmp221-.Ltmp220              #   Call between .Ltmp220 and .Ltmp221
	.uleb128 .Ltmp222-.Lfunc_begin5         #     jumps to .Ltmp222
	.byte	1                               #   On action: 1
	.uleb128 .Ltmp221-.Lfunc_begin5         # >> Call Site 2 <<
	.uleb128 .Lfunc_end13-.Ltmp221          #   Call between .Ltmp221 and .Lfunc_end13
	.byte	0                               #     has no landing pad
	.byte	0                               #   On action: cleanup
.Lcst_end5:
	.byte	1                               # >> Action Record 1 <<
                                        #   Catch TypeInfo 1
	.byte	0                               #   No further actions
	.p2align	2, 0x0
                                        # >> Catch TypeInfos <<
	.word	0                               # TypeInfo 1
.Lttbase0:
	.p2align	2, 0x0
                                        # -- End function
	.section	.text.__clang_call_terminate,"axG",@progbits,__clang_call_terminate,comdat
	.hidden	__clang_call_terminate          # -- Begin function __clang_call_terminate
	.weak	__clang_call_terminate
	.p2align	5
	.type	__clang_call_terminate,@function
__clang_call_terminate:                 # @__clang_call_terminate
# %bb.0:
	addi.d	$sp, $sp, -16
	st.d	$ra, $sp, 8                     # 8-byte Folded Spill
	pcaddu18i	$ra, %call36(__cxa_begin_catch)
	jirl	$ra, $ra, 0
	pcaddu18i	$ra, %call36(_ZSt9terminatev)
	jirl	$ra, $ra, 0
.Lfunc_end14:
	.size	__clang_call_terminate, .Lfunc_end14-__clang_call_terminate
                                        # -- End function
	.section	.text._ZNSt16_Sp_counted_baseILN9__gnu_cxx12_Lock_policyE2EE24_M_release_last_use_coldEv,"axG",@progbits,_ZNSt16_Sp_counted_baseILN9__gnu_cxx12_Lock_policyE2EE24_M_release_last_use_coldEv,comdat
	.hidden	_ZNSt16_Sp_counted_baseILN9__gnu_cxx12_Lock_policyE2EE24_M_release_last_use_coldEv # -- Begin function _ZNSt16_Sp_counted_baseILN9__gnu_cxx12_Lock_policyE2EE24_M_release_last_use_coldEv
	.weak	_ZNSt16_Sp_counted_baseILN9__gnu_cxx12_Lock_policyE2EE24_M_release_last_use_coldEv
	.p2align	2
	.type	_ZNSt16_Sp_counted_baseILN9__gnu_cxx12_Lock_policyE2EE24_M_release_last_use_coldEv,@function
_ZNSt16_Sp_counted_baseILN9__gnu_cxx12_Lock_policyE2EE24_M_release_last_use_coldEv: # @_ZNSt16_Sp_counted_baseILN9__gnu_cxx12_Lock_policyE2EE24_M_release_last_use_coldEv
	.cfi_startproc
# %bb.0:                                # %entry
	addi.d	$sp, $sp, -16
	.cfi_def_cfa_offset 16
	st.d	$ra, $sp, 8                     # 8-byte Folded Spill
	st.d	$fp, $sp, 0                     # 8-byte Folded Spill
	.cfi_offset 1, -8
	.cfi_offset 22, -16
	move	$fp, $a0
	ld.d	$a0, $a0, 0
	ld.d	$a1, $a0, 16
	move	$a0, $fp
	jirl	$ra, $a1, 0
	pcalau12i	$a0, %got_pc_hi20(__libc_single_threaded)
	ld.d	$a0, $a0, %got_pc_lo12(__libc_single_threaded)
	ld.bu	$a0, $a0, 0
	beqz	$a0, .LBB15_3
# %bb.1:                                # %if.then.i.i
	ld.w	$a0, $fp, 12
	addi.d	$a1, $a0, -1
	st.w	$a1, $fp, 12
	ori	$a1, $zero, 1
	bne	$a0, $a1, .LBB15_4
.LBB15_2:                               # %if.then.i
	ld.d	$a0, $fp, 0
	ld.d	$a1, $a0, 24
	move	$a0, $fp
	ld.d	$fp, $sp, 0                     # 8-byte Folded Reload
	ld.d	$ra, $sp, 8                     # 8-byte Folded Reload
	addi.d	$sp, $sp, 16
	jr	$a1
.LBB15_3:                               # %if.else.i.i
	addi.d	$a1, $fp, 12
	addi.w	$a2, $zero, -1
	amadd_db.w	$a0, $a2, $a1
	ori	$a1, $zero, 1
	beq	$a0, $a1, .LBB15_2
.LBB15_4:                               # %_ZNSt16_Sp_counted_baseILN9__gnu_cxx12_Lock_policyE2EE19_M_release_last_useEv.exit
	ld.d	$fp, $sp, 0                     # 8-byte Folded Reload
	ld.d	$ra, $sp, 8                     # 8-byte Folded Reload
	addi.d	$sp, $sp, 16
	ret
.Lfunc_end15:
	.size	_ZNSt16_Sp_counted_baseILN9__gnu_cxx12_Lock_policyE2EE24_M_release_last_use_coldEv, .Lfunc_end15-_ZNSt16_Sp_counted_baseILN9__gnu_cxx12_Lock_policyE2EE24_M_release_last_use_coldEv
	.cfi_endproc
                                        # -- End function
	.text
	.p2align	2                               # -- Begin function _ZN3$_18__invokeEl
	.type	_ZN3$_18__invokeEl,@function
_ZN3$_18__invokeEl:                     # @"_ZN3$_18__invokeEl"
# %bb.0:                                # %entry
	movgr2fr.d	$fa0, $a0
	ffint.d.l	$fa0, $fa0
	ret
.Lfunc_end16:
	.size	_ZN3$_18__invokeEl, .Lfunc_end16-_ZN3$_18__invokeEl
                                        # -- End function
	.section	.rodata.cst8,"aM",@progbits,8
	.p2align	3, 0x0                          # -- Begin function _ZN3$_28__invokeEl
.LCPI17_0:
	.dword	0x3ff71547652b82fe              # double 1.4426950408889634
	.text
	.p2align	2
	.type	_ZN3$_28__invokeEl,@function
_ZN3$_28__invokeEl:                     # @"_ZN3$_28__invokeEl"
# %bb.0:                                # %entry
	addi.d	$sp, $sp, -16
	st.d	$ra, $sp, 8                     # 8-byte Folded Spill
	fst.d	$fs0, $sp, 0                    # 8-byte Folded Spill
	pcalau12i	$a1, %pc_hi20(.LCPI17_0)
	fld.d	$fa1, $a1, %pc_lo12(.LCPI17_0)
	movgr2fr.d	$fa0, $a0
	ffint.d.l	$fa0, $fa0
	fmul.d	$fs0, $fa0, $fa1
	pcaddu18i	$ra, %call36(log)
	jirl	$ra, $ra, 0
	fmul.d	$fa0, $fs0, $fa0
	fld.d	$fs0, $sp, 0                    # 8-byte Folded Reload
	ld.d	$ra, $sp, 8                     # 8-byte Folded Reload
	addi.d	$sp, $sp, 16
	ret
.Lfunc_end17:
	.size	_ZN3$_28__invokeEl, .Lfunc_end17-_ZN3$_28__invokeEl
                                        # -- End function
	.p2align	2                               # -- Begin function _ZN3$_38__invokeERN9benchmark5StateE
	.type	_ZN3$_38__invokeERN9benchmark5StateE,@function
_ZN3$_38__invokeERN9benchmark5StateE:   # @"_ZN3$_38__invokeERN9benchmark5StateE"
	.cfi_startproc
# %bb.0:                                # %entry
	ori	$a1, $zero, 100
	pcaddu18i	$t8, %call36(_Z24BM_ComplexityCaptureArgsRN9benchmark5StateEi)
	jr	$t8
.Lfunc_end18:
	.size	_ZN3$_38__invokeERN9benchmark5StateE, .Lfunc_end18-_ZN3$_38__invokeERN9benchmark5StateE
	.cfi_endproc
                                        # -- End function
	.section	.rodata.cst32,"aM",@progbits,32
	.p2align	5, 0x0                          # -- Begin function _GLOBAL__sub_I_complexity_test.cc
.LCPI19_0:
	.dword	1                               # 0x1
	.dword	2                               # 0x2
	.dword	3                               # 0x3
	.dword	4                               # 0x4
	.section	.text.startup,"ax",@progbits
	.p2align	5
	.type	_GLOBAL__sub_I_complexity_test.cc,@function
_GLOBAL__sub_I_complexity_test.cc:      # @_GLOBAL__sub_I_complexity_test.cc
.Lfunc_begin6:
	.cfi_startproc
	.cfi_personality 155, DW.ref.__gxx_personality_v0
	.cfi_lsda 27, .Lexception6
# %bb.0:                                # %entry
	addi.d	$sp, $sp, -240
	.cfi_def_cfa_offset 240
	st.d	$ra, $sp, 232                   # 8-byte Folded Spill
	st.d	$fp, $sp, 224                   # 8-byte Folded Spill
	st.d	$s0, $sp, 216                   # 8-byte Folded Spill
	st.d	$s1, $sp, 208                   # 8-byte Folded Spill
	st.d	$s2, $sp, 200                   # 8-byte Folded Spill
	st.d	$s3, $sp, 192                   # 8-byte Folded Spill
	st.d	$s4, $sp, 184                   # 8-byte Folded Spill
	st.d	$s5, $sp, 176                   # 8-byte Folded Spill
	st.d	$s6, $sp, 168                   # 8-byte Folded Spill
	st.d	$s7, $sp, 160                   # 8-byte Folded Spill
	st.d	$s8, $sp, 152                   # 8-byte Folded Spill
	.cfi_offset 1, -8
	.cfi_offset 22, -16
	.cfi_offset 23, -24
	.cfi_offset 24, -32
	.cfi_offset 25, -40
	.cfi_offset 26, -48
	.cfi_offset 27, -56
	.cfi_offset 28, -64
	.cfi_offset 29, -72
	.cfi_offset 30, -80
	.cfi_offset 31, -88
	pcaddu18i	$ra, %call36(_ZN9benchmark8internal17InitializeStreamsEv)
	jirl	$ra, $ra, 0
	ori	$a0, $zero, 232
	pcaddu18i	$ra, %call36(_Znwm)
	jirl	$ra, $ra, 0
	move	$s0, $a0
	addi.d	$s2, $sp, 136
	st.d	$s2, $sp, 120
	ori	$a0, $zero, 16
	st.d	$a0, $sp, 88
.Ltmp223:                               # EH_LABEL
	addi.d	$a0, $sp, 120
	addi.d	$a1, $sp, 88
	move	$a2, $zero
	pcaddu18i	$ra, %call36(_ZNSt7__cxx1112basic_stringIcSt11char_traitsIcESaIcEE9_M_createERmm)
	jirl	$ra, $ra, 0
.Ltmp224:                               # EH_LABEL
# %bb.1:                                # %call2.i5.i.noexc.i
	ld.d	$a1, $sp, 88
	pcalau12i	$s3, %pc_hi20(.L.str)
	vld	$vr0, $s3, %pc_lo12(.L.str)
	st.d	$a0, $sp, 120
	st.d	$a1, $sp, 136
	vst	$vr0, $a0, 0
	ld.d	$a0, $sp, 120
	st.d	$a1, $sp, 128
	stx.b	$zero, $a0, $a1
	ori	$s1, $zero, 1
.Ltmp226:                               # EH_LABEL
	addi.d	$a1, $sp, 120
	move	$a0, $s0
	pcaddu18i	$ra, %call36(_ZN9benchmark8internal9BenchmarkC2ERKNSt7__cxx1112basic_stringIcSt11char_traitsIcESaIcEEE)
	jirl	$ra, $ra, 0
.Ltmp227:                               # EH_LABEL
# %bb.2:                                # %invoke.cont3.i
	pcalau12i	$a0, %got_pc_hi20(_ZTVN9benchmark8internal17FunctionBenchmarkE)
	ld.d	$a0, $a0, %got_pc_lo12(_ZTVN9benchmark8internal17FunctionBenchmarkE)
	addi.d	$s6, $a0, 16
	st.d	$s6, $s0, 0
	pcalau12i	$a0, %pc_hi20(_Z16BM_Complexity_O1RN9benchmark5StateE)
	addi.d	$s4, $a0, %pc_lo12(_Z16BM_Complexity_O1RN9benchmark5StateE)
	st.d	$s4, $s0, 224
.Ltmp228:                               # EH_LABEL
	move	$s1, $zero
	move	$a0, $s0
	pcaddu18i	$ra, %call36(_ZN9benchmark8internal25RegisterBenchmarkInternalEPNS0_9BenchmarkE)
	jirl	$ra, $ra, 0
.Ltmp229:                               # EH_LABEL
# %bb.3:                                # %invoke.cont4.i
.Ltmp230:                               # EH_LABEL
	lu12i.w	$a2, 64
	ori	$a1, $zero, 1
	move	$s1, $zero
	pcaddu18i	$ra, %call36(_ZN9benchmark8internal9Benchmark5RangeEll)
	jirl	$ra, $ra, 0
.Ltmp231:                               # EH_LABEL
# %bb.4:                                # %invoke.cont6.i
.Ltmp232:                               # EH_LABEL
	move	$s1, $zero
	pcaddu18i	$ra, %call36(_ZN9benchmark8internal9Benchmark13UseManualTimeEv)
	jirl	$ra, $ra, 0
.Ltmp233:                               # EH_LABEL
# %bb.5:                                # %invoke.cont8.i
.Ltmp234:                               # EH_LABEL
	ori	$a1, $zero, 1
	move	$s1, $zero
	pcaddu18i	$ra, %call36(_ZN9benchmark8internal9Benchmark10ComplexityENS_4BigOE)
	jirl	$ra, $ra, 0
.Ltmp235:                               # EH_LABEL
# %bb.6:                                # %invoke.cont10.i
	move	$fp, $a0
	ld.d	$a0, $sp, 120
	beq	$a0, $s2, .LBB19_8
# %bb.7:                                # %if.then.i.i3.i
	ld.d	$a1, $sp, 136
	addi.d	$a1, $a1, 1
	pcaddu18i	$ra, %call36(_ZdlPvm)
	jirl	$ra, $ra, 0
.LBB19_8:                               # %__cxx_global_var_init.1.exit
	pcalau12i	$a0, %pc_hi20(_ZL27benchmark_uniq_2_benchmark_)
	st.d	$fp, $a0, %pc_lo12(_ZL27benchmark_uniq_2_benchmark_)
	ori	$a0, $zero, 232
	pcaddu18i	$ra, %call36(_Znwm)
	jirl	$ra, $ra, 0
	move	$s0, $a0
	st.d	$s2, $sp, 120
	ori	$a0, $zero, 16
	st.d	$a0, $sp, 88
.Ltmp237:                               # EH_LABEL
	addi.d	$a0, $sp, 120
	addi.d	$a1, $sp, 88
	move	$a2, $zero
	pcaddu18i	$ra, %call36(_ZNSt7__cxx1112basic_stringIcSt11char_traitsIcESaIcEE9_M_createERmm)
	jirl	$ra, $ra, 0
.Ltmp238:                               # EH_LABEL
# %bb.9:                                # %call2.i5.i.noexc.i11
	ld.d	$a1, $sp, 88
	vld	$vr0, $s3, %pc_lo12(.L.str)
	st.d	$a0, $sp, 120
	st.d	$a1, $sp, 136
	vst	$vr0, $a0, 0
	ld.d	$a0, $sp, 120
	st.d	$a1, $sp, 128
	stx.b	$zero, $a0, $a1
	ori	$s1, $zero, 1
.Ltmp240:                               # EH_LABEL
	addi.d	$a1, $sp, 120
	move	$a0, $s0
	pcaddu18i	$ra, %call36(_ZN9benchmark8internal9BenchmarkC2ERKNSt7__cxx1112basic_stringIcSt11char_traitsIcESaIcEEE)
	jirl	$ra, $ra, 0
.Ltmp241:                               # EH_LABEL
# %bb.10:                               # %invoke.cont3.i21
	st.d	$s6, $s0, 0
	st.d	$s4, $s0, 224
.Ltmp242:                               # EH_LABEL
	move	$s1, $zero
	move	$a0, $s0
	pcaddu18i	$ra, %call36(_ZN9benchmark8internal25RegisterBenchmarkInternalEPNS0_9BenchmarkE)
	jirl	$ra, $ra, 0
.Ltmp243:                               # EH_LABEL
# %bb.11:                               # %invoke.cont4.i24
.Ltmp244:                               # EH_LABEL
	lu12i.w	$a2, 64
	ori	$a1, $zero, 1
	move	$s1, $zero
	pcaddu18i	$ra, %call36(_ZN9benchmark8internal9Benchmark5RangeEll)
	jirl	$ra, $ra, 0
.Ltmp245:                               # EH_LABEL
# %bb.12:                               # %invoke.cont6.i26
.Ltmp246:                               # EH_LABEL
	move	$s1, $zero
	pcaddu18i	$ra, %call36(_ZN9benchmark8internal9Benchmark13UseManualTimeEv)
	jirl	$ra, $ra, 0
.Ltmp247:                               # EH_LABEL
# %bb.13:                               # %invoke.cont8.i28
.Ltmp248:                               # EH_LABEL
	ori	$a1, $zero, 7
	move	$s1, $zero
	pcaddu18i	$ra, %call36(_ZN9benchmark8internal9Benchmark10ComplexityENS_4BigOE)
	jirl	$ra, $ra, 0
.Ltmp249:                               # EH_LABEL
# %bb.14:                               # %invoke.cont10.i30
	move	$fp, $a0
	ld.d	$a0, $sp, 120
	beq	$a0, $s2, .LBB19_16
# %bb.15:                               # %if.then.i.i3.i32
	ld.d	$a1, $sp, 136
	addi.d	$a1, $a1, 1
	pcaddu18i	$ra, %call36(_ZdlPvm)
	jirl	$ra, $ra, 0
.LBB19_16:                              # %__cxx_global_var_init.2.exit
	pcalau12i	$a0, %pc_hi20(_ZL27benchmark_uniq_3_benchmark_)
	st.d	$fp, $a0, %pc_lo12(_ZL27benchmark_uniq_3_benchmark_)
	ori	$a0, $zero, 232
	pcaddu18i	$ra, %call36(_Znwm)
	jirl	$ra, $ra, 0
	move	$s0, $a0
	st.d	$s2, $sp, 120
	ori	$a0, $zero, 16
	st.d	$a0, $sp, 88
.Ltmp251:                               # EH_LABEL
	addi.d	$a0, $sp, 120
	addi.d	$a1, $sp, 88
	move	$a2, $zero
	pcaddu18i	$ra, %call36(_ZNSt7__cxx1112basic_stringIcSt11char_traitsIcESaIcEE9_M_createERmm)
	jirl	$ra, $ra, 0
.Ltmp252:                               # EH_LABEL
# %bb.17:                               # %call2.i5.i.noexc.i41
	ld.d	$a1, $sp, 88
	vld	$vr0, $s3, %pc_lo12(.L.str)
	st.d	$a0, $sp, 120
	st.d	$a1, $sp, 136
	vst	$vr0, $a0, 0
	ld.d	$a0, $sp, 120
	st.d	$a1, $sp, 128
	stx.b	$zero, $a0, $a1
	ori	$s1, $zero, 1
.Ltmp254:                               # EH_LABEL
	addi.d	$a1, $sp, 120
	move	$a0, $s0
	pcaddu18i	$ra, %call36(_ZN9benchmark8internal9BenchmarkC2ERKNSt7__cxx1112basic_stringIcSt11char_traitsIcESaIcEEE)
	jirl	$ra, $ra, 0
.Ltmp255:                               # EH_LABEL
# %bb.18:                               # %invoke.cont3.i46
	st.d	$s6, $s0, 0
	st.d	$s4, $s0, 224
.Ltmp256:                               # EH_LABEL
	move	$s1, $zero
	move	$a0, $s0
	pcaddu18i	$ra, %call36(_ZN9benchmark8internal25RegisterBenchmarkInternalEPNS0_9BenchmarkE)
	jirl	$ra, $ra, 0
.Ltmp257:                               # EH_LABEL
# %bb.19:                               # %invoke.cont4.i49
.Ltmp258:                               # EH_LABEL
	lu12i.w	$a2, 64
	ori	$a1, $zero, 1
	move	$s1, $zero
	pcaddu18i	$ra, %call36(_ZN9benchmark8internal9Benchmark5RangeEll)
	jirl	$ra, $ra, 0
.Ltmp259:                               # EH_LABEL
# %bb.20:                               # %invoke.cont6.i51
.Ltmp260:                               # EH_LABEL
	move	$s1, $zero
	pcaddu18i	$ra, %call36(_ZN9benchmark8internal9Benchmark13UseManualTimeEv)
	jirl	$ra, $ra, 0
.Ltmp261:                               # EH_LABEL
# %bb.21:                               # %invoke.cont8.i53
.Ltmp263:                               # EH_LABEL
	pcalau12i	$a1, %pc_hi20(_ZN3$_08__invokeEl)
	addi.d	$a1, $a1, %pc_lo12(_ZN3$_08__invokeEl)
	pcaddu18i	$ra, %call36(_ZN9benchmark8internal9Benchmark10ComplexityEPFdlE)
	jirl	$ra, $ra, 0
.Ltmp264:                               # EH_LABEL
# %bb.22:                               # %invoke.cont13.i
	move	$s0, $a0
	ld.d	$a0, $sp, 120
	beq	$a0, $s2, .LBB19_24
# %bb.23:                               # %if.then.i.i4.i
	ld.d	$a1, $sp, 136
	addi.d	$a1, $a1, 1
	pcaddu18i	$ra, %call36(_ZdlPvm)
	jirl	$ra, $ra, 0
.LBB19_24:                              # %__cxx_global_var_init.3.exit
	pcalau12i	$s3, %pc_hi20(one_test_name)
	ld.d	$fp, $s3, %pc_lo12(one_test_name)
	pcalau12i	$a0, %pc_hi20(_ZL27benchmark_uniq_4_benchmark_)
	st.d	$s0, $a0, %pc_lo12(_ZL27benchmark_uniq_4_benchmark_)
	st.d	$s2, $sp, 120
	beqz	$fp, .LBB19_467
# %bb.25:                               # %if.end.i.i
	move	$a0, $fp
	pcaddu18i	$ra, %call36(strlen)
	jirl	$ra, $ra, 0
	move	$s0, $a0
	ori	$a1, $zero, 16
	st.d	$a0, $sp, 88
	move	$a0, $s2
	bltu	$s0, $a1, .LBB19_27
# %bb.26:                               # %if.then.i.i.i
	addi.d	$a0, $sp, 120
	addi.d	$a1, $sp, 88
	move	$a2, $zero
	pcaddu18i	$ra, %call36(_ZNSt7__cxx1112basic_stringIcSt11char_traitsIcESaIcEE9_M_createERmm)
	jirl	$ra, $ra, 0
	ld.d	$a1, $sp, 88
	st.d	$a0, $sp, 120
	st.d	$a1, $sp, 136
.LBB19_27:                              # %if.end.i.i.i
	beqz	$s0, .LBB19_31
# %bb.28:                               # %if.end.i.i.i
	ori	$a1, $zero, 1
	bne	$s0, $a1, .LBB19_30
# %bb.29:                               # %if.then.i.i.i.i.i
	ld.b	$a1, $fp, 0
	st.b	$a1, $a0, 0
	b	.LBB19_31
.LBB19_30:                              # %if.end.i.i.i.i.i.i
	move	$a1, $fp
	move	$a2, $s0
	pcaddu18i	$ra, %call36(memcpy)
	jirl	$ra, $ra, 0
.LBB19_31:                              # %invoke.cont.i
	ld.d	$a0, $sp, 88
	ld.d	$a1, $sp, 120
	st.d	$a0, $sp, 128
	stx.b	$zero, $a1, $a0
	pcalau12i	$s4, %pc_hi20(big_o_1_test_name)
	ld.d	$fp, $s4, %pc_lo12(big_o_1_test_name)
	addi.d	$s7, $sp, 104
	st.d	$s7, $sp, 88
	beqz	$fp, .LBB19_472
# %bb.32:                               # %if.end.i8.i
	move	$a0, $fp
	pcaddu18i	$ra, %call36(strlen)
	jirl	$ra, $ra, 0
	move	$s0, $a0
	ori	$a1, $zero, 16
	st.d	$a0, $sp, 56
	move	$a0, $s7
	bltu	$s0, $a1, .LBB19_35
# %bb.33:                               # %if.then.i.i16.i
.Ltmp266:                               # EH_LABEL
	addi.d	$a0, $sp, 88
	addi.d	$a1, $sp, 56
	move	$a2, $zero
	pcaddu18i	$ra, %call36(_ZNSt7__cxx1112basic_stringIcSt11char_traitsIcESaIcEE9_M_createERmm)
	jirl	$ra, $ra, 0
.Ltmp267:                               # EH_LABEL
# %bb.34:                               # %call2.i5.i.noexc19.i
	ld.d	$a1, $sp, 56
	st.d	$a0, $sp, 88
	st.d	$a1, $sp, 104
.LBB19_35:                              # %if.end.i.i11.i
	beqz	$s0, .LBB19_39
# %bb.36:                               # %if.end.i.i11.i
	ori	$a1, $zero, 1
	bne	$s0, $a1, .LBB19_38
# %bb.37:                               # %if.then.i.i.i.i14.i
	ld.b	$a1, $fp, 0
	st.b	$a1, $a0, 0
	b	.LBB19_39
.LBB19_38:                              # %if.end.i.i.i.i.i15.i
	move	$a1, $fp
	move	$a2, $s0
	pcaddu18i	$ra, %call36(memcpy)
	jirl	$ra, $ra, 0
.LBB19_39:                              # %invoke.cont5.i
	ld.d	$a0, $sp, 56
	ld.d	$a1, $sp, 88
	st.d	$a0, $sp, 96
	stx.b	$zero, $a1, $a0
	pcalau12i	$s5, %pc_hi20(rms_o_1_test_name)
	ld.d	$fp, $s5, %pc_lo12(rms_o_1_test_name)
	addi.d	$s8, $sp, 72
	st.d	$s8, $sp, 56
	beqz	$fp, .LBB19_474
# %bb.40:                               # %if.end.i24.i
	move	$a0, $fp
	pcaddu18i	$ra, %call36(strlen)
	jirl	$ra, $ra, 0
	move	$s0, $a0
	ori	$a1, $zero, 16
	st.d	$a0, $sp, 16
	move	$a0, $s8
	bltu	$s0, $a1, .LBB19_43
# %bb.41:                               # %if.then.i.i32.i
.Ltmp268:                               # EH_LABEL
	addi.d	$a0, $sp, 56
	addi.d	$a1, $sp, 16
	move	$a2, $zero
	pcaddu18i	$ra, %call36(_ZNSt7__cxx1112basic_stringIcSt11char_traitsIcESaIcEE9_M_createERmm)
	jirl	$ra, $ra, 0
.Ltmp269:                               # EH_LABEL
# %bb.42:                               # %call2.i5.i.noexc35.i
	ld.d	$a1, $sp, 16
	st.d	$a0, $sp, 56
	st.d	$a1, $sp, 72
.LBB19_43:                              # %if.end.i.i27.i
	beqz	$s0, .LBB19_47
# %bb.44:                               # %if.end.i.i27.i
	ori	$a1, $zero, 1
	bne	$s0, $a1, .LBB19_46
# %bb.45:                               # %if.then.i.i.i.i30.i
	ld.b	$a1, $fp, 0
	st.b	$a1, $a0, 0
	b	.LBB19_47
.LBB19_46:                              # %if.end.i.i.i.i.i31.i
	move	$a1, $fp
	move	$a2, $s0
	pcaddu18i	$ra, %call36(memcpy)
	jirl	$ra, $ra, 0
.LBB19_47:                              # %invoke.cont9.i
	st.d	$s6, $sp, 8                     # 8-byte Folded Spill
	ld.d	$a0, $sp, 16
	ld.d	$a1, $sp, 56
	st.d	$a0, $sp, 64
	stx.b	$zero, $a1, $a0
	pcalau12i	$s6, %pc_hi20(enum_auto_big_o_1)
	ld.d	$fp, $s6, %pc_lo12(enum_auto_big_o_1)
	addi.d	$s1, $sp, 32
	st.d	$s1, $sp, 16
	beqz	$fp, .LBB19_476
# %bb.48:                               # %if.end.i40.i
	move	$a0, $fp
	pcaddu18i	$ra, %call36(strlen)
	jirl	$ra, $ra, 0
	move	$s0, $a0
	ori	$a1, $zero, 16
	st.d	$a0, $sp, 48
	move	$a0, $s1
	bltu	$s0, $a1, .LBB19_51
# %bb.49:                               # %if.then.i.i48.i
.Ltmp270:                               # EH_LABEL
	addi.d	$a0, $sp, 16
	addi.d	$a1, $sp, 48
	move	$a2, $zero
	pcaddu18i	$ra, %call36(_ZNSt7__cxx1112basic_stringIcSt11char_traitsIcESaIcEE9_M_createERmm)
	jirl	$ra, $ra, 0
.Ltmp271:                               # EH_LABEL
# %bb.50:                               # %call2.i5.i.noexc51.i
	ld.d	$a1, $sp, 48
	st.d	$a0, $sp, 16
	st.d	$a1, $sp, 32
.LBB19_51:                              # %if.end.i.i43.i
	beqz	$s0, .LBB19_55
# %bb.52:                               # %if.end.i.i43.i
	ori	$a1, $zero, 1
	bne	$s0, $a1, .LBB19_54
# %bb.53:                               # %if.then.i.i.i.i46.i
	ld.b	$a1, $fp, 0
	st.b	$a1, $a0, 0
	b	.LBB19_55
.LBB19_54:                              # %if.end.i.i.i.i.i47.i
	move	$a1, $fp
	move	$a2, $s0
	pcaddu18i	$ra, %call36(memcpy)
	jirl	$ra, $ra, 0
.LBB19_55:                              # %invoke.cont13.i63
	ld.d	$a0, $sp, 48
	ld.d	$a1, $sp, 16
	st.d	$a0, $sp, 24
	stx.b	$zero, $a1, $a0
.Ltmp272:                               # EH_LABEL
	addi.d	$a0, $sp, 120
	addi.d	$a1, $sp, 88
	addi.d	$a2, $sp, 56
	addi.d	$a3, $sp, 16
	move	$a4, $zero
	pcaddu18i	$ra, %call36(_ZN12_GLOBAL__N_117AddComplexityTestERKNSt7__cxx1112basic_stringIcSt11char_traitsIcESaIcEEES7_S7_S7_i)
	jirl	$ra, $ra, 0
.Ltmp273:                               # EH_LABEL
# %bb.56:                               # %invoke.cont15.i
	ld.d	$a0, $sp, 16
	beq	$a0, $s1, .LBB19_58
# %bb.57:                               # %if.then.i.i54.i
	ld.d	$a1, $sp, 32
	addi.d	$a1, $a1, 1
	pcaddu18i	$ra, %call36(_ZdlPvm)
	jirl	$ra, $ra, 0
.LBB19_58:                              # %_ZNSt7__cxx1112basic_stringIcSt11char_traitsIcESaIcEED2Ev.exit.i
	ld.d	$a0, $sp, 56
	beq	$a0, $s8, .LBB19_60
# %bb.59:                               # %if.then.i.i56.i
	ld.d	$a1, $sp, 72
	addi.d	$a1, $a1, 1
	pcaddu18i	$ra, %call36(_ZdlPvm)
	jirl	$ra, $ra, 0
.LBB19_60:                              # %_ZNSt7__cxx1112basic_stringIcSt11char_traitsIcESaIcEED2Ev.exit61.i
	ld.d	$a0, $sp, 88
	beq	$a0, $s7, .LBB19_62
# %bb.61:                               # %if.then.i.i63.i
	ld.d	$a1, $sp, 104
	addi.d	$a1, $a1, 1
	pcaddu18i	$ra, %call36(_ZdlPvm)
	jirl	$ra, $ra, 0
.LBB19_62:                              # %_ZNSt7__cxx1112basic_stringIcSt11char_traitsIcESaIcEED2Ev.exit68.i
	ld.d	$a0, $sp, 120
	beq	$a0, $s2, .LBB19_64
# %bb.63:                               # %if.then.i.i70.i
	ld.d	$a1, $sp, 136
	addi.d	$a1, $a1, 1
	pcaddu18i	$ra, %call36(_ZdlPvm)
	jirl	$ra, $ra, 0
.LBB19_64:                              # %__cxx_global_var_init.9.exit
	ld.d	$fp, $s3, %pc_lo12(one_test_name)
	pcalau12i	$a0, %pc_hi20(dummy105)
	st.w	$zero, $a0, %pc_lo12(dummy105)
	addi.d	$s2, $sp, 136
	st.d	$s2, $sp, 120
	beqz	$fp, .LBB19_467
# %bb.65:                               # %if.end.i.i79
	move	$a0, $fp
	pcaddu18i	$ra, %call36(strlen)
	jirl	$ra, $ra, 0
	move	$s0, $a0
	ori	$a1, $zero, 16
	st.d	$a0, $sp, 88
	move	$a0, $s2
	bltu	$s0, $a1, .LBB19_67
# %bb.66:                               # %if.then.i.i.i189
	addi.d	$a0, $sp, 120
	addi.d	$a1, $sp, 88
	move	$a2, $zero
	pcaddu18i	$ra, %call36(_ZNSt7__cxx1112basic_stringIcSt11char_traitsIcESaIcEE9_M_createERmm)
	jirl	$ra, $ra, 0
	ld.d	$a1, $sp, 88
	st.d	$a0, $sp, 120
	st.d	$a1, $sp, 136
.LBB19_67:                              # %if.end.i.i.i82
	beqz	$s0, .LBB19_71
# %bb.68:                               # %if.end.i.i.i82
	ori	$a1, $zero, 1
	bne	$s0, $a1, .LBB19_70
# %bb.69:                               # %if.then.i.i.i.i.i187
	ld.b	$a1, $fp, 0
	st.b	$a1, $a0, 0
	b	.LBB19_71
.LBB19_70:                              # %if.end.i.i.i.i.i.i188
	move	$a1, $fp
	move	$a2, $s0
	pcaddu18i	$ra, %call36(memcpy)
	jirl	$ra, $ra, 0
.LBB19_71:                              # %invoke.cont.i83
	ld.d	$a0, $sp, 88
	ld.d	$a1, $sp, 120
	st.d	$a0, $sp, 128
	stx.b	$zero, $a1, $a0
	ld.d	$fp, $s4, %pc_lo12(big_o_1_test_name)
	addi.d	$s7, $sp, 104
	st.d	$s7, $sp, 88
	beqz	$fp, .LBB19_478
# %bb.72:                               # %if.end.i8.i87
	move	$a0, $fp
	pcaddu18i	$ra, %call36(strlen)
	jirl	$ra, $ra, 0
	move	$s0, $a0
	ori	$a1, $zero, 16
	st.d	$a0, $sp, 56
	move	$a0, $s7
	bltu	$s0, $a1, .LBB19_75
# %bb.73:                               # %if.then.i.i16.i181
.Ltmp275:                               # EH_LABEL
	addi.d	$a0, $sp, 88
	addi.d	$a1, $sp, 56
	move	$a2, $zero
	pcaddu18i	$ra, %call36(_ZNSt7__cxx1112basic_stringIcSt11char_traitsIcESaIcEE9_M_createERmm)
	jirl	$ra, $ra, 0
.Ltmp276:                               # EH_LABEL
# %bb.74:                               # %call2.i5.i.noexc19.i184
	ld.d	$a1, $sp, 56
	st.d	$a0, $sp, 88
	st.d	$a1, $sp, 104
.LBB19_75:                              # %if.end.i.i11.i90
	beqz	$s0, .LBB19_79
# %bb.76:                               # %if.end.i.i11.i90
	ori	$a1, $zero, 1
	bne	$s0, $a1, .LBB19_78
# %bb.77:                               # %if.then.i.i.i.i14.i179
	ld.b	$a1, $fp, 0
	st.b	$a1, $a0, 0
	b	.LBB19_79
.LBB19_78:                              # %if.end.i.i.i.i.i15.i180
	move	$a1, $fp
	move	$a2, $s0
	pcaddu18i	$ra, %call36(memcpy)
	jirl	$ra, $ra, 0
.LBB19_79:                              # %invoke.cont5.i91
	ld.d	$a0, $sp, 56
	ld.d	$a1, $sp, 88
	st.d	$a0, $sp, 96
	stx.b	$zero, $a1, $a0
	ld.d	$fp, $s5, %pc_lo12(rms_o_1_test_name)
	addi.d	$s8, $sp, 72
	st.d	$s8, $sp, 56
	beqz	$fp, .LBB19_480
# %bb.80:                               # %if.end.i24.i95
	move	$a0, $fp
	pcaddu18i	$ra, %call36(strlen)
	jirl	$ra, $ra, 0
	move	$s0, $a0
	ori	$a1, $zero, 16
	st.d	$a0, $sp, 16
	move	$a0, $s8
	bltu	$s0, $a1, .LBB19_83
# %bb.81:                               # %if.then.i.i32.i173
.Ltmp277:                               # EH_LABEL
	addi.d	$a0, $sp, 56
	addi.d	$a1, $sp, 16
	move	$a2, $zero
	pcaddu18i	$ra, %call36(_ZNSt7__cxx1112basic_stringIcSt11char_traitsIcESaIcEE9_M_createERmm)
	jirl	$ra, $ra, 0
.Ltmp278:                               # EH_LABEL
# %bb.82:                               # %call2.i5.i.noexc35.i176
	ld.d	$a1, $sp, 16
	st.d	$a0, $sp, 56
	st.d	$a1, $sp, 72
.LBB19_83:                              # %if.end.i.i27.i98
	beqz	$s0, .LBB19_87
# %bb.84:                               # %if.end.i.i27.i98
	ori	$a1, $zero, 1
	bne	$s0, $a1, .LBB19_86
# %bb.85:                               # %if.then.i.i.i.i30.i171
	ld.b	$a1, $fp, 0
	st.b	$a1, $a0, 0
	b	.LBB19_87
.LBB19_86:                              # %if.end.i.i.i.i.i31.i172
	move	$a1, $fp
	move	$a2, $s0
	pcaddu18i	$ra, %call36(memcpy)
	jirl	$ra, $ra, 0
.LBB19_87:                              # %invoke.cont9.i99
	ld.d	$a0, $sp, 16
	ld.d	$a1, $sp, 56
	st.d	$a0, $sp, 64
	stx.b	$zero, $a1, $a0
	ld.d	$fp, $s6, %pc_lo12(enum_auto_big_o_1)
	addi.d	$s6, $sp, 32
	st.d	$s6, $sp, 16
	beqz	$fp, .LBB19_482
# %bb.88:                               # %if.end.i40.i103
	move	$a0, $fp
	pcaddu18i	$ra, %call36(strlen)
	jirl	$ra, $ra, 0
	move	$s0, $a0
	ori	$a1, $zero, 16
	st.d	$a0, $sp, 48
	move	$a0, $s6
	bltu	$s0, $a1, .LBB19_91
# %bb.89:                               # %if.then.i.i48.i165
.Ltmp279:                               # EH_LABEL
	addi.d	$a0, $sp, 16
	addi.d	$a1, $sp, 48
	move	$a2, $zero
	pcaddu18i	$ra, %call36(_ZNSt7__cxx1112basic_stringIcSt11char_traitsIcESaIcEE9_M_createERmm)
	jirl	$ra, $ra, 0
.Ltmp280:                               # EH_LABEL
# %bb.90:                               # %call2.i5.i.noexc51.i168
	ld.d	$a1, $sp, 48
	st.d	$a0, $sp, 16
	st.d	$a1, $sp, 32
.LBB19_91:                              # %if.end.i.i43.i106
	beqz	$s0, .LBB19_95
# %bb.92:                               # %if.end.i.i43.i106
	ori	$a1, $zero, 1
	bne	$s0, $a1, .LBB19_94
# %bb.93:                               # %if.then.i.i.i.i46.i163
	ld.b	$a1, $fp, 0
	st.b	$a1, $a0, 0
	b	.LBB19_95
.LBB19_94:                              # %if.end.i.i.i.i.i47.i164
	move	$a1, $fp
	move	$a2, $s0
	pcaddu18i	$ra, %call36(memcpy)
	jirl	$ra, $ra, 0
.LBB19_95:                              # %invoke.cont13.i107
	ld.d	$a0, $sp, 48
	ld.d	$a1, $sp, 16
	st.d	$a0, $sp, 24
	stx.b	$zero, $a1, $a0
.Ltmp281:                               # EH_LABEL
	addi.d	$a0, $sp, 120
	addi.d	$a1, $sp, 88
	addi.d	$a2, $sp, 56
	addi.d	$a3, $sp, 16
	ori	$a4, $zero, 1
	pcaddu18i	$ra, %call36(_ZN12_GLOBAL__N_117AddComplexityTestERKNSt7__cxx1112basic_stringIcSt11char_traitsIcESaIcEEES7_S7_S7_i)
	jirl	$ra, $ra, 0
.Ltmp282:                               # EH_LABEL
# %bb.96:                               # %invoke.cont15.i139
	ld.d	$a0, $sp, 16
	beq	$a0, $s6, .LBB19_98
# %bb.97:                               # %if.then.i.i54.i141
	ld.d	$a1, $sp, 32
	addi.d	$a1, $a1, 1
	pcaddu18i	$ra, %call36(_ZdlPvm)
	jirl	$ra, $ra, 0
.LBB19_98:                              # %_ZNSt7__cxx1112basic_stringIcSt11char_traitsIcESaIcEED2Ev.exit.i143
	ld.d	$a0, $sp, 56
	beq	$a0, $s8, .LBB19_100
# %bb.99:                               # %if.then.i.i56.i145
	ld.d	$a1, $sp, 72
	addi.d	$a1, $a1, 1
	pcaddu18i	$ra, %call36(_ZdlPvm)
	jirl	$ra, $ra, 0
.LBB19_100:                             # %_ZNSt7__cxx1112basic_stringIcSt11char_traitsIcESaIcEED2Ev.exit61.i147
	ld.d	$a0, $sp, 88
	ld.d	$s6, $sp, 8                     # 8-byte Folded Reload
	beq	$a0, $s7, .LBB19_102
# %bb.101:                              # %if.then.i.i63.i149
	ld.d	$a1, $sp, 104
	addi.d	$a1, $a1, 1
	pcaddu18i	$ra, %call36(_ZdlPvm)
	jirl	$ra, $ra, 0
.LBB19_102:                             # %_ZNSt7__cxx1112basic_stringIcSt11char_traitsIcESaIcEED2Ev.exit68.i151
	ld.d	$a0, $sp, 120
	beq	$a0, $s2, .LBB19_104
# %bb.103:                              # %if.then.i.i70.i153
	ld.d	$a1, $sp, 136
	addi.d	$a1, $a1, 1
	pcaddu18i	$ra, %call36(_ZdlPvm)
	jirl	$ra, $ra, 0
.LBB19_104:                             # %__cxx_global_var_init.10.exit
	ld.d	$fp, $s3, %pc_lo12(one_test_name)
	pcalau12i	$a0, %pc_hi20(dummy109)
	st.w	$zero, $a0, %pc_lo12(dummy109)
	addi.d	$s2, $sp, 136
	st.d	$s2, $sp, 120
	beqz	$fp, .LBB19_467
# %bb.105:                              # %if.end.i.i201
	move	$a0, $fp
	pcaddu18i	$ra, %call36(strlen)
	jirl	$ra, $ra, 0
	move	$s0, $a0
	ori	$a1, $zero, 16
	st.d	$a0, $sp, 88
	move	$a0, $s2
	bltu	$s0, $a1, .LBB19_107
# %bb.106:                              # %if.then.i.i.i311
	addi.d	$a0, $sp, 120
	addi.d	$a1, $sp, 88
	move	$a2, $zero
	pcaddu18i	$ra, %call36(_ZNSt7__cxx1112basic_stringIcSt11char_traitsIcESaIcEE9_M_createERmm)
	jirl	$ra, $ra, 0
	ld.d	$a1, $sp, 88
	st.d	$a0, $sp, 120
	st.d	$a1, $sp, 136
.LBB19_107:                             # %if.end.i.i.i204
	beqz	$s0, .LBB19_111
# %bb.108:                              # %if.end.i.i.i204
	ori	$a1, $zero, 1
	bne	$s0, $a1, .LBB19_110
# %bb.109:                              # %if.then.i.i.i.i.i309
	ld.b	$a1, $fp, 0
	st.b	$a1, $a0, 0
	b	.LBB19_111
.LBB19_110:                             # %if.end.i.i.i.i.i.i310
	move	$a1, $fp
	move	$a2, $s0
	pcaddu18i	$ra, %call36(memcpy)
	jirl	$ra, $ra, 0
.LBB19_111:                             # %invoke.cont.i205
	ld.d	$a0, $sp, 88
	ld.d	$a1, $sp, 120
	st.d	$a0, $sp, 128
	stx.b	$zero, $a1, $a0
	ld.d	$fp, $s4, %pc_lo12(big_o_1_test_name)
	addi.d	$s3, $sp, 104
	st.d	$s3, $sp, 88
	beqz	$fp, .LBB19_484
# %bb.112:                              # %if.end.i8.i209
	move	$a0, $fp
	pcaddu18i	$ra, %call36(strlen)
	jirl	$ra, $ra, 0
	move	$s0, $a0
	ori	$a1, $zero, 16
	st.d	$a0, $sp, 56
	move	$a0, $s3
	bltu	$s0, $a1, .LBB19_115
# %bb.113:                              # %if.then.i.i16.i303
.Ltmp284:                               # EH_LABEL
	addi.d	$a0, $sp, 88
	addi.d	$a1, $sp, 56
	move	$a2, $zero
	pcaddu18i	$ra, %call36(_ZNSt7__cxx1112basic_stringIcSt11char_traitsIcESaIcEE9_M_createERmm)
	jirl	$ra, $ra, 0
.Ltmp285:                               # EH_LABEL
# %bb.114:                              # %call2.i5.i.noexc19.i306
	ld.d	$a1, $sp, 56
	st.d	$a0, $sp, 88
	st.d	$a1, $sp, 104
.LBB19_115:                             # %if.end.i.i11.i212
	beqz	$s0, .LBB19_119
# %bb.116:                              # %if.end.i.i11.i212
	ori	$a1, $zero, 1
	bne	$s0, $a1, .LBB19_118
# %bb.117:                              # %if.then.i.i.i.i14.i301
	ld.b	$a1, $fp, 0
	st.b	$a1, $a0, 0
	b	.LBB19_119
.LBB19_118:                             # %if.end.i.i.i.i.i15.i302
	move	$a1, $fp
	move	$a2, $s0
	pcaddu18i	$ra, %call36(memcpy)
	jirl	$ra, $ra, 0
.LBB19_119:                             # %invoke.cont5.i213
	ld.d	$a0, $sp, 56
	ld.d	$a1, $sp, 88
	st.d	$a0, $sp, 96
	stx.b	$zero, $a1, $a0
	ld.d	$fp, $s5, %pc_lo12(rms_o_1_test_name)
	addi.d	$s4, $sp, 72
	st.d	$s4, $sp, 56
	beqz	$fp, .LBB19_486
# %bb.120:                              # %if.end.i24.i217
	move	$a0, $fp
	pcaddu18i	$ra, %call36(strlen)
	jirl	$ra, $ra, 0
	move	$s0, $a0
	ori	$a1, $zero, 16
	st.d	$a0, $sp, 16
	move	$a0, $s4
	bltu	$s0, $a1, .LBB19_123
# %bb.121:                              # %if.then.i.i32.i295
.Ltmp286:                               # EH_LABEL
	addi.d	$a0, $sp, 56
	addi.d	$a1, $sp, 16
	move	$a2, $zero
	pcaddu18i	$ra, %call36(_ZNSt7__cxx1112basic_stringIcSt11char_traitsIcESaIcEE9_M_createERmm)
	jirl	$ra, $ra, 0
.Ltmp287:                               # EH_LABEL
# %bb.122:                              # %call2.i5.i.noexc35.i298
	ld.d	$a1, $sp, 16
	st.d	$a0, $sp, 56
	st.d	$a1, $sp, 72
.LBB19_123:                             # %if.end.i.i27.i220
	beqz	$s0, .LBB19_127
# %bb.124:                              # %if.end.i.i27.i220
	ori	$a1, $zero, 1
	bne	$s0, $a1, .LBB19_126
# %bb.125:                              # %if.then.i.i.i.i30.i293
	ld.b	$a1, $fp, 0
	st.b	$a1, $a0, 0
	b	.LBB19_127
.LBB19_126:                             # %if.end.i.i.i.i.i31.i294
	move	$a1, $fp
	move	$a2, $s0
	pcaddu18i	$ra, %call36(memcpy)
	jirl	$ra, $ra, 0
.LBB19_127:                             # %invoke.cont9.i221
	ld.d	$a0, $sp, 16
	ld.d	$a1, $sp, 56
	st.d	$a0, $sp, 64
	stx.b	$zero, $a1, $a0
	pcalau12i	$a0, %pc_hi20(lambda_big_o_1)
	ld.d	$fp, $a0, %pc_lo12(lambda_big_o_1)
	addi.d	$s5, $sp, 32
	st.d	$s5, $sp, 16
	beqz	$fp, .LBB19_488
# %bb.128:                              # %if.end.i40.i225
	move	$a0, $fp
	pcaddu18i	$ra, %call36(strlen)
	jirl	$ra, $ra, 0
	move	$s0, $a0
	ori	$a1, $zero, 16
	st.d	$a0, $sp, 48
	move	$a0, $s5
	bltu	$s0, $a1, .LBB19_131
# %bb.129:                              # %if.then.i.i48.i287
.Ltmp288:                               # EH_LABEL
	addi.d	$a0, $sp, 16
	addi.d	$a1, $sp, 48
	move	$a2, $zero
	pcaddu18i	$ra, %call36(_ZNSt7__cxx1112basic_stringIcSt11char_traitsIcESaIcEE9_M_createERmm)
	jirl	$ra, $ra, 0
.Ltmp289:                               # EH_LABEL
# %bb.130:                              # %call2.i5.i.noexc51.i290
	ld.d	$a1, $sp, 48
	st.d	$a0, $sp, 16
	st.d	$a1, $sp, 32
.LBB19_131:                             # %if.end.i.i43.i228
	beqz	$s0, .LBB19_135
# %bb.132:                              # %if.end.i.i43.i228
	ori	$a1, $zero, 1
	bne	$s0, $a1, .LBB19_134
# %bb.133:                              # %if.then.i.i.i.i46.i285
	ld.b	$a1, $fp, 0
	st.b	$a1, $a0, 0
	b	.LBB19_135
.LBB19_134:                             # %if.end.i.i.i.i.i47.i286
	move	$a1, $fp
	move	$a2, $s0
	pcaddu18i	$ra, %call36(memcpy)
	jirl	$ra, $ra, 0
.LBB19_135:                             # %invoke.cont13.i229
	ld.d	$a0, $sp, 48
	ld.d	$a1, $sp, 16
	st.d	$a0, $sp, 24
	stx.b	$zero, $a1, $a0
.Ltmp290:                               # EH_LABEL
	addi.d	$a0, $sp, 120
	addi.d	$a1, $sp, 88
	addi.d	$a2, $sp, 56
	addi.d	$a3, $sp, 16
	ori	$a4, $zero, 2
	pcaddu18i	$ra, %call36(_ZN12_GLOBAL__N_117AddComplexityTestERKNSt7__cxx1112basic_stringIcSt11char_traitsIcESaIcEEES7_S7_S7_i)
	jirl	$ra, $ra, 0
.Ltmp291:                               # EH_LABEL
# %bb.136:                              # %invoke.cont15.i261
	ld.d	$a0, $sp, 16
	beq	$a0, $s5, .LBB19_138
# %bb.137:                              # %if.then.i.i54.i263
	ld.d	$a1, $sp, 32
	addi.d	$a1, $a1, 1
	pcaddu18i	$ra, %call36(_ZdlPvm)
	jirl	$ra, $ra, 0
.LBB19_138:                             # %_ZNSt7__cxx1112basic_stringIcSt11char_traitsIcESaIcEED2Ev.exit.i265
	ld.d	$a0, $sp, 56
	beq	$a0, $s4, .LBB19_140
# %bb.139:                              # %if.then.i.i56.i267
	ld.d	$a1, $sp, 72
	addi.d	$a1, $a1, 1
	pcaddu18i	$ra, %call36(_ZdlPvm)
	jirl	$ra, $ra, 0
.LBB19_140:                             # %_ZNSt7__cxx1112basic_stringIcSt11char_traitsIcESaIcEED2Ev.exit61.i269
	ld.d	$a0, $sp, 88
	beq	$a0, $s3, .LBB19_142
# %bb.141:                              # %if.then.i.i63.i271
	ld.d	$a1, $sp, 104
	addi.d	$a1, $a1, 1
	pcaddu18i	$ra, %call36(_ZdlPvm)
	jirl	$ra, $ra, 0
.LBB19_142:                             # %_ZNSt7__cxx1112basic_stringIcSt11char_traitsIcESaIcEED2Ev.exit68.i273
	ld.d	$a0, $sp, 120
	beq	$a0, $s2, .LBB19_144
# %bb.143:                              # %if.then.i.i70.i275
	ld.d	$a1, $sp, 136
	addi.d	$a1, $a1, 1
	pcaddu18i	$ra, %call36(_ZdlPvm)
	jirl	$ra, $ra, 0
.LBB19_144:                             # %__cxx_global_var_init.11.exit
	pcalau12i	$a0, %pc_hi20(dummy113)
	st.w	$zero, $a0, %pc_lo12(dummy113)
	ori	$a0, $zero, 232
	pcaddu18i	$ra, %call36(_Znwm)
	jirl	$ra, $ra, 0
	move	$s0, $a0
	addi.d	$s2, $sp, 136
	st.d	$s2, $sp, 120
	ori	$a0, $zero, 17
	st.d	$a0, $sp, 88
.Ltmp293:                               # EH_LABEL
	addi.d	$a0, $sp, 120
	addi.d	$a1, $sp, 88
	move	$a2, $zero
	pcaddu18i	$ra, %call36(_ZNSt7__cxx1112basic_stringIcSt11char_traitsIcESaIcEE9_M_createERmm)
	jirl	$ra, $ra, 0
.Ltmp294:                               # EH_LABEL
# %bb.145:                              # %call2.i5.i.noexc.i323
	ld.d	$a1, $sp, 88
	pcalau12i	$a2, %pc_hi20(.L.str.13)
	addi.d	$s4, $a2, %pc_lo12(.L.str.13)
	vld	$vr0, $s4, 0
	ld.b	$s3, $s4, 16
	st.d	$a0, $sp, 120
	st.d	$a1, $sp, 136
	vst	$vr0, $a0, 0
	st.b	$s3, $a0, 16
	ld.d	$a0, $sp, 120
	st.d	$a1, $sp, 128
	stx.b	$zero, $a0, $a1
	ori	$s1, $zero, 1
.Ltmp296:                               # EH_LABEL
	addi.d	$a1, $sp, 120
	move	$a0, $s0
	pcaddu18i	$ra, %call36(_ZN9benchmark8internal9BenchmarkC2ERKNSt7__cxx1112basic_stringIcSt11char_traitsIcESaIcEEE)
	jirl	$ra, $ra, 0
.Ltmp297:                               # EH_LABEL
# %bb.146:                              # %invoke.cont3.i333
	st.d	$s6, $s0, 0
	pcalau12i	$a0, %pc_hi20(_Z17BM_Complexity_O_NRN9benchmark5StateE)
	addi.d	$s5, $a0, %pc_lo12(_Z17BM_Complexity_O_NRN9benchmark5StateE)
	st.d	$s5, $s0, 224
.Ltmp298:                               # EH_LABEL
	move	$s1, $zero
	move	$a0, $s0
	pcaddu18i	$ra, %call36(_ZN9benchmark8internal25RegisterBenchmarkInternalEPNS0_9BenchmarkE)
	jirl	$ra, $ra, 0
.Ltmp299:                               # EH_LABEL
# %bb.147:                              # %invoke.cont4.i336
.Ltmp300:                               # EH_LABEL
	ori	$a1, $zero, 2
	move	$s1, $zero
	pcaddu18i	$ra, %call36(_ZN9benchmark8internal9Benchmark15RangeMultiplierEi)
	jirl	$ra, $ra, 0
.Ltmp301:                               # EH_LABEL
# %bb.148:                              # %invoke.cont6.i338
.Ltmp302:                               # EH_LABEL
	lu12i.w	$a2, 256
	ori	$a1, $zero, 1024
	move	$s1, $zero
	pcaddu18i	$ra, %call36(_ZN9benchmark8internal9Benchmark5RangeEll)
	jirl	$ra, $ra, 0
.Ltmp303:                               # EH_LABEL
# %bb.149:                              # %invoke.cont8.i340
.Ltmp304:                               # EH_LABEL
	move	$s1, $zero
	pcaddu18i	$ra, %call36(_ZN9benchmark8internal9Benchmark13UseManualTimeEv)
	jirl	$ra, $ra, 0
.Ltmp305:                               # EH_LABEL
# %bb.150:                              # %invoke.cont10.i342
.Ltmp306:                               # EH_LABEL
	ori	$a1, $zero, 2
	move	$s1, $zero
	pcaddu18i	$ra, %call36(_ZN9benchmark8internal9Benchmark10ComplexityENS_4BigOE)
	jirl	$ra, $ra, 0
.Ltmp307:                               # EH_LABEL
# %bb.151:                              # %invoke.cont12.i
	move	$fp, $a0
	ld.d	$a0, $sp, 120
	beq	$a0, $s2, .LBB19_153
# %bb.152:                              # %if.then.i.i3.i344
	ld.d	$a1, $sp, 136
	addi.d	$a1, $a1, 1
	pcaddu18i	$ra, %call36(_ZdlPvm)
	jirl	$ra, $ra, 0
.LBB19_153:                             # %__cxx_global_var_init.12.exit
	pcalau12i	$a0, %pc_hi20(_ZL27benchmark_uniq_5_benchmark_)
	st.d	$fp, $a0, %pc_lo12(_ZL27benchmark_uniq_5_benchmark_)
	ori	$a0, $zero, 232
	pcaddu18i	$ra, %call36(_Znwm)
	jirl	$ra, $ra, 0
	move	$s0, $a0
	st.d	$s2, $sp, 120
	ori	$a0, $zero, 17
	st.d	$a0, $sp, 88
.Ltmp309:                               # EH_LABEL
	addi.d	$a0, $sp, 120
	addi.d	$a1, $sp, 88
	move	$a2, $zero
	pcaddu18i	$ra, %call36(_ZNSt7__cxx1112basic_stringIcSt11char_traitsIcESaIcEE9_M_createERmm)
	jirl	$ra, $ra, 0
.Ltmp310:                               # EH_LABEL
# %bb.154:                              # %call2.i5.i.noexc.i358
	ld.d	$a1, $sp, 88
	vld	$vr0, $s4, 0
	st.d	$a0, $sp, 120
	st.d	$a1, $sp, 136
	vst	$vr0, $a0, 0
	st.b	$s3, $a0, 16
	ld.d	$a0, $sp, 120
	st.d	$a1, $sp, 128
	stx.b	$zero, $a0, $a1
	ori	$s1, $zero, 1
.Ltmp312:                               # EH_LABEL
	addi.d	$a1, $sp, 120
	move	$a0, $s0
	pcaddu18i	$ra, %call36(_ZN9benchmark8internal9BenchmarkC2ERKNSt7__cxx1112basic_stringIcSt11char_traitsIcESaIcEEE)
	jirl	$ra, $ra, 0
.Ltmp313:                               # EH_LABEL
# %bb.155:                              # %invoke.cont3.i368
	st.d	$s6, $s0, 0
	st.d	$s5, $s0, 224
.Ltmp314:                               # EH_LABEL
	move	$s1, $zero
	move	$a0, $s0
	pcaddu18i	$ra, %call36(_ZN9benchmark8internal25RegisterBenchmarkInternalEPNS0_9BenchmarkE)
	jirl	$ra, $ra, 0
.Ltmp315:                               # EH_LABEL
# %bb.156:                              # %invoke.cont4.i371
.Ltmp316:                               # EH_LABEL
	ori	$a1, $zero, 2
	move	$s1, $zero
	pcaddu18i	$ra, %call36(_ZN9benchmark8internal9Benchmark15RangeMultiplierEi)
	jirl	$ra, $ra, 0
.Ltmp317:                               # EH_LABEL
# %bb.157:                              # %invoke.cont6.i373
.Ltmp318:                               # EH_LABEL
	lu12i.w	$a2, 256
	ori	$a1, $zero, 1024
	move	$s1, $zero
	pcaddu18i	$ra, %call36(_ZN9benchmark8internal9Benchmark5RangeEll)
	jirl	$ra, $ra, 0
.Ltmp319:                               # EH_LABEL
# %bb.158:                              # %invoke.cont8.i375
.Ltmp320:                               # EH_LABEL
	move	$s1, $zero
	pcaddu18i	$ra, %call36(_ZN9benchmark8internal9Benchmark13UseManualTimeEv)
	jirl	$ra, $ra, 0
.Ltmp321:                               # EH_LABEL
# %bb.159:                              # %invoke.cont10.i377
.Ltmp322:                               # EH_LABEL
	ori	$a1, $zero, 7
	move	$s1, $zero
	pcaddu18i	$ra, %call36(_ZN9benchmark8internal9Benchmark10ComplexityENS_4BigOE)
	jirl	$ra, $ra, 0
.Ltmp323:                               # EH_LABEL
# %bb.160:                              # %invoke.cont12.i379
	move	$fp, $a0
	ld.d	$a0, $sp, 120
	beq	$a0, $s2, .LBB19_162
# %bb.161:                              # %if.then.i.i3.i381
	ld.d	$a1, $sp, 136
	addi.d	$a1, $a1, 1
	pcaddu18i	$ra, %call36(_ZdlPvm)
	jirl	$ra, $ra, 0
.LBB19_162:                             # %__cxx_global_var_init.14.exit
	pcalau12i	$a0, %pc_hi20(_ZL27benchmark_uniq_6_benchmark_)
	st.d	$fp, $a0, %pc_lo12(_ZL27benchmark_uniq_6_benchmark_)
	ori	$a0, $zero, 232
	pcaddu18i	$ra, %call36(_Znwm)
	jirl	$ra, $ra, 0
	move	$s0, $a0
	st.d	$s2, $sp, 120
	ori	$a0, $zero, 17
	st.d	$a0, $sp, 88
.Ltmp325:                               # EH_LABEL
	addi.d	$a0, $sp, 120
	addi.d	$a1, $sp, 88
	move	$a2, $zero
	pcaddu18i	$ra, %call36(_ZNSt7__cxx1112basic_stringIcSt11char_traitsIcESaIcEE9_M_createERmm)
	jirl	$ra, $ra, 0
.Ltmp326:                               # EH_LABEL
# %bb.163:                              # %call2.i5.i.noexc.i394
	ld.d	$a1, $sp, 88
	vld	$vr0, $s4, 0
	st.d	$a0, $sp, 120
	st.d	$a1, $sp, 136
	vst	$vr0, $a0, 0
	st.b	$s3, $a0, 16
	ld.d	$a0, $sp, 120
	st.d	$a1, $sp, 128
	stx.b	$zero, $a0, $a1
	ori	$s1, $zero, 1
.Ltmp328:                               # EH_LABEL
	addi.d	$a1, $sp, 120
	move	$a0, $s0
	pcaddu18i	$ra, %call36(_ZN9benchmark8internal9BenchmarkC2ERKNSt7__cxx1112basic_stringIcSt11char_traitsIcESaIcEEE)
	jirl	$ra, $ra, 0
.Ltmp329:                               # EH_LABEL
# %bb.164:                              # %invoke.cont3.i403
	st.d	$s6, $s0, 0
	st.d	$s5, $s0, 224
.Ltmp330:                               # EH_LABEL
	move	$s1, $zero
	move	$a0, $s0
	pcaddu18i	$ra, %call36(_ZN9benchmark8internal25RegisterBenchmarkInternalEPNS0_9BenchmarkE)
	jirl	$ra, $ra, 0
.Ltmp331:                               # EH_LABEL
# %bb.165:                              # %invoke.cont4.i406
.Ltmp332:                               # EH_LABEL
	ori	$a1, $zero, 2
	move	$s1, $zero
	pcaddu18i	$ra, %call36(_ZN9benchmark8internal9Benchmark15RangeMultiplierEi)
	jirl	$ra, $ra, 0
.Ltmp333:                               # EH_LABEL
# %bb.166:                              # %invoke.cont6.i408
.Ltmp334:                               # EH_LABEL
	lu12i.w	$a2, 256
	ori	$a1, $zero, 1024
	move	$s1, $zero
	pcaddu18i	$ra, %call36(_ZN9benchmark8internal9Benchmark5RangeEll)
	jirl	$ra, $ra, 0
.Ltmp335:                               # EH_LABEL
# %bb.167:                              # %invoke.cont8.i410
.Ltmp336:                               # EH_LABEL
	move	$s1, $zero
	pcaddu18i	$ra, %call36(_ZN9benchmark8internal9Benchmark13UseManualTimeEv)
	jirl	$ra, $ra, 0
.Ltmp337:                               # EH_LABEL
# %bb.168:                              # %invoke.cont10.i412
.Ltmp339:                               # EH_LABEL
	pcalau12i	$a1, %pc_hi20(_ZN3$_18__invokeEl)
	addi.d	$a1, $a1, %pc_lo12(_ZN3$_18__invokeEl)
	pcaddu18i	$ra, %call36(_ZN9benchmark8internal9Benchmark10ComplexityEPFdlE)
	jirl	$ra, $ra, 0
.Ltmp340:                               # EH_LABEL
# %bb.169:                              # %invoke.cont15.i418
	move	$s0, $a0
	ld.d	$a0, $sp, 120
	beq	$a0, $s2, .LBB19_171
# %bb.170:                              # %if.then.i.i4.i420
	ld.d	$a1, $sp, 136
	addi.d	$a1, $a1, 1
	pcaddu18i	$ra, %call36(_ZdlPvm)
	jirl	$ra, $ra, 0
.LBB19_171:                             # %__cxx_global_var_init.15.exit
	pcalau12i	$s3, %pc_hi20(n_test_name)
	ld.d	$fp, $s3, %pc_lo12(n_test_name)
	pcalau12i	$a0, %pc_hi20(_ZL27benchmark_uniq_7_benchmark_)
	st.d	$s0, $a0, %pc_lo12(_ZL27benchmark_uniq_7_benchmark_)
	st.d	$s2, $sp, 120
	beqz	$fp, .LBB19_467
# %bb.172:                              # %if.end.i.i434
	move	$a0, $fp
	pcaddu18i	$ra, %call36(strlen)
	jirl	$ra, $ra, 0
	move	$s0, $a0
	ori	$a1, $zero, 16
	st.d	$a0, $sp, 88
	move	$a0, $s2
	bltu	$s0, $a1, .LBB19_174
# %bb.173:                              # %if.then.i.i.i544
	addi.d	$a0, $sp, 120
	addi.d	$a1, $sp, 88
	move	$a2, $zero
	pcaddu18i	$ra, %call36(_ZNSt7__cxx1112basic_stringIcSt11char_traitsIcESaIcEE9_M_createERmm)
	jirl	$ra, $ra, 0
	ld.d	$a1, $sp, 88
