	.file	"diagnostics_test.cc"
                                        # Start of file scope inline assembly
	.globl	_ZSt21ios_base_library_initv

                                        # End of file scope inline assembly
	.text
	.hidden	_Z11TestHandlerv                # -- Begin function _Z11TestHandlerv
	.globl	_Z11TestHandlerv
	.p2align	5
	.type	_Z11TestHandlerv,@function
_Z11TestHandlerv:                       # @_Z11TestHandlerv
.Lfunc_begin0:
	.cfi_startproc
	.cfi_personality 155, DW.ref.__gxx_personality_v0
	.cfi_lsda 27, .Lexception0
# %bb.0:                                # %entry
	addi.d	$sp, $sp, -32
	.cfi_def_cfa_offset 32
	st.d	$ra, $sp, 24                    # 8-byte Folded Spill
	st.d	$fp, $sp, 16                    # 8-byte Folded Spill
	st.d	$s0, $sp, 8                     # 8-byte Folded Spill
	.cfi_offset 1, -8
	.cfi_offset 22, -16
	.cfi_offset 23, -24
	ori	$a0, $zero, 16
	pcaddu18i	$ra, %call36(__cxa_allocate_exception)
	jirl	$ra, $ra, 0
	move	$fp, $a0
.Ltmp0:                                 # EH_LABEL
	pcalau12i	$a0, %pc_hi20(.L.str)
	addi.d	$a1, $a0, %pc_lo12(.L.str)
	move	$a0, $fp
	pcaddu18i	$ra, %call36(_ZNSt11logic_errorC1EPKc)
	jirl	$ra, $ra, 0
.Ltmp1:                                 # EH_LABEL
# %bb.1:                                # %invoke.cont
	pcalau12i	$a0, %got_pc_hi20(_ZTISt11logic_error)
	ld.d	$a1, $a0, %got_pc_lo12(_ZTISt11logic_error)
	pcalau12i	$a0, %got_pc_hi20(_ZNSt11logic_errorD1Ev)
	ld.d	$a2, $a0, %got_pc_lo12(_ZNSt11logic_errorD1Ev)
	move	$a0, $fp
	pcaddu18i	$ra, %call36(__cxa_throw)
	jirl	$ra, $ra, 0
.LBB0_2:                                # %lpad
.Ltmp2:                                 # EH_LABEL
	move	$s0, $a0
	move	$a0, $fp
	pcaddu18i	$ra, %call36(__cxa_free_exception)
	jirl	$ra, $ra, 0
	move	$a0, $s0
	pcaddu18i	$ra, %call36(_Unwind_Resume)
	jirl	$ra, $ra, 0
.Lfunc_end0:
	.size	_Z11TestHandlerv, .Lfunc_end0-_Z11TestHandlerv
	.cfi_endproc
	.section	.gcc_except_table,"a",@progbits
	.p2align	2, 0x0
GCC_except_table0:
.Lexception0:
	.byte	255                             # @LPStart Encoding = omit
	.byte	255                             # @TType Encoding = omit
	.byte	1                               # Call site Encoding = uleb128
	.uleb128 .Lcst_end0-.Lcst_begin0
.Lcst_begin0:
	.uleb128 .Lfunc_begin0-.Lfunc_begin0    # >> Call Site 1 <<
	.uleb128 .Ltmp0-.Lfunc_begin0           #   Call between .Lfunc_begin0 and .Ltmp0
	.byte	0                               #     has no landing pad
	.byte	0                               #   On action: cleanup
	.uleb128 .Ltmp0-.Lfunc_begin0           # >> Call Site 2 <<
	.uleb128 .Ltmp1-.Ltmp0                  #   Call between .Ltmp0 and .Ltmp1
	.uleb128 .Ltmp2-.Lfunc_begin0           #     jumps to .Ltmp2
	.byte	0                               #   On action: cleanup
	.uleb128 .Ltmp1-.Lfunc_begin0           # >> Call Site 3 <<
	.uleb128 .Lfunc_end0-.Ltmp1             #   Call between .Ltmp1 and .Lfunc_end0
	.byte	0                               #     has no landing pad
	.byte	0                               #   On action: cleanup
.Lcst_end0:
	.p2align	2, 0x0
                                        # -- End function
	.text
	.hidden	_Z24try_invalid_pause_resumeRN9benchmark5StateE # -- Begin function _Z24try_invalid_pause_resumeRN9benchmark5StateE
	.globl	_Z24try_invalid_pause_resumeRN9benchmark5StateE
	.p2align	5
	.type	_Z24try_invalid_pause_resumeRN9benchmark5StateE,@function
_Z24try_invalid_pause_resumeRN9benchmark5StateE: # @_Z24try_invalid_pause_resumeRN9benchmark5StateE
# %bb.0:                                # %entry
	ret
.Lfunc_end1:
	.size	_Z24try_invalid_pause_resumeRN9benchmark5StateE, .Lfunc_end1-_Z24try_invalid_pause_resumeRN9benchmark5StateE
                                        # -- End function
	.hidden	_Z18BM_diagnostic_testRN9benchmark5StateE # -- Begin function _Z18BM_diagnostic_testRN9benchmark5StateE
	.globl	_Z18BM_diagnostic_testRN9benchmark5StateE
	.p2align	5
	.type	_Z18BM_diagnostic_testRN9benchmark5StateE,@function
_Z18BM_diagnostic_testRN9benchmark5StateE: # @_Z18BM_diagnostic_testRN9benchmark5StateE
	.cfi_startproc
# %bb.0:                                # %entry
	addi.d	$sp, $sp, -48
	.cfi_def_cfa_offset 48
	st.d	$ra, $sp, 40                    # 8-byte Folded Spill
	st.d	$fp, $sp, 32                    # 8-byte Folded Spill
	st.d	$s0, $sp, 24                    # 8-byte Folded Spill
	st.d	$s1, $sp, 16                    # 8-byte Folded Spill
	.cfi_offset 1, -8
	.cfi_offset 22, -16
	.cfi_offset 23, -24
	.cfi_offset 24, -32
	move	$fp, $a0
	ld.w	$s1, $a0, 28
	ld.d	$s0, $a0, 16
	pcaddu18i	$ra, %call36(_ZN9benchmark5State16StartKeepRunningEv)
	jirl	$ra, $ra, 0
	bnez	$s1, .LBB2_7
# %bb.1:                                # %entry
	beqz	$s0, .LBB2_7
# %bb.2:
	movgr2fr.d	$fa0, $zero
	addi.d	$a0, $sp, 8
	.p2align	4, , 16
.LBB2_3:                                # %for.body
                                        # =>This Inner Loop Header: Depth=1
	ld.bu	$a1, $fp, 24
	fmov.d	$fa1, $fa0
	beqz	$a1, .LBB2_5
# %bb.4:                                # %if.end.i13
                                        #   in Loop: Header=BB2_3 Depth=1
	ld.d	$a1, $fp, 16
	ld.d	$a2, $fp, 0
	ld.d	$a3, $fp, 8
	sub.d	$a1, $a1, $a2
	add.d	$a1, $a1, $a3
	movgr2fr.d	$fa1, $a1
	ffint.d.l	$fa1, $fa1
	fmul.d	$fa1, $fa1, $fa1
.LBB2_5:                                # %_ZNK9benchmark5State10iterationsEv.exit
                                        #   in Loop: Header=BB2_3 Depth=1
	fst.d	$fa1, $sp, 8
	#APP
	#NO_APP
	blez	$s0, .LBB2_8
# %bb.6:                                # %for.cond
                                        #   in Loop: Header=BB2_3 Depth=1
	addi.d	$s0, $s0, -1
	bnez	$s0, .LBB2_3
.LBB2_7:                                # %for.cond.cleanup
	move	$a0, $fp
	pcaddu18i	$ra, %call36(_ZN9benchmark5State17FinishKeepRunningEv)
	jirl	$ra, $ra, 0
	ld.d	$s1, $sp, 16                    # 8-byte Folded Reload
	ld.d	$s0, $sp, 24                    # 8-byte Folded Reload
	ld.d	$fp, $sp, 32                    # 8-byte Folded Reload
	ld.d	$ra, $sp, 40                    # 8-byte Folded Reload
	addi.d	$sp, $sp, 48
	ret
.LBB2_8:                                # %cond.false.i
	pcalau12i	$a0, %pc_hi20(.L.str.5)
	addi.d	$a0, $a0, %pc_lo12(.L.str.5)
	pcalau12i	$a1, %pc_hi20(.L.str.6)
	addi.d	$a1, $a1, %pc_lo12(.L.str.6)
	pcalau12i	$a2, %pc_hi20(.L__PRETTY_FUNCTION__._ZN9benchmark5State13StateIteratorppEv)
	addi.d	$a3, $a2, %pc_lo12(.L__PRETTY_FUNCTION__._ZN9benchmark5State13StateIteratorppEv)
	ori	$a2, $zero, 1134
	pcaddu18i	$ra, %call36(__assert_fail)
	jirl	$ra, $ra, 0
.Lfunc_end2:
	.size	_Z18BM_diagnostic_testRN9benchmark5StateE, .Lfunc_end2-_Z18BM_diagnostic_testRN9benchmark5StateE
	.cfi_endproc
                                        # -- End function
	.hidden	_Z31BM_diagnostic_test_keep_runningRN9benchmark5StateE # -- Begin function _Z31BM_diagnostic_test_keep_runningRN9benchmark5StateE
	.globl	_Z31BM_diagnostic_test_keep_runningRN9benchmark5StateE
	.p2align	5
	.type	_Z31BM_diagnostic_test_keep_runningRN9benchmark5StateE,@function
_Z31BM_diagnostic_test_keep_runningRN9benchmark5StateE: # @_Z31BM_diagnostic_test_keep_runningRN9benchmark5StateE
	.cfi_startproc
# %bb.0:                                # %entry
	addi.d	$sp, $sp, -48
	.cfi_def_cfa_offset 48
	st.d	$ra, $sp, 40                    # 8-byte Folded Spill
	st.d	$fp, $sp, 32                    # 8-byte Folded Spill
	st.d	$s0, $sp, 24                    # 8-byte Folded Spill
	fst.d	$fs0, $sp, 16                   # 8-byte Folded Spill
	.cfi_offset 1, -8
	.cfi_offset 22, -16
	.cfi_offset 23, -24
	.cfi_offset 56, -32
	move	$fp, $a0
	movgr2fr.d	$fs0, $zero
	addi.d	$s0, $sp, 8
	b	.LBB3_2
	.p2align	4, , 16
.LBB3_1:                                # %_ZNK9benchmark5State10iterationsEv.exit
                                        #   in Loop: Header=BB3_2 Depth=1
	fst.d	$fa0, $sp, 8
	#APP
	#NO_APP
.LBB3_2:                                # %while.cond
                                        # =>This Inner Loop Header: Depth=1
	ld.d	$a0, $fp, 0
	blez	$a0, .LBB3_5
.LBB3_3:                                # %while.body
                                        #   in Loop: Header=BB3_2 Depth=1
	ld.bu	$a1, $fp, 24
	addi.d	$a0, $a0, -1
	st.d	$a0, $fp, 0
	fmov.d	$fa0, $fs0
	beqz	$a1, .LBB3_1
# %bb.4:                                # %if.end.i
                                        #   in Loop: Header=BB3_2 Depth=1
	ld.d	$a1, $fp, 16
	ld.d	$a2, $fp, 8
	sub.d	$a0, $a1, $a0
	add.d	$a0, $a0, $a2
	movgr2fr.d	$fa0, $a0
	ffint.d.l	$fa0, $fa0
	fmul.d	$fa0, $fa0, $fa0
	b	.LBB3_1
.LBB3_5:                                # %if.end.i17
                                        #   in Loop: Header=BB3_2 Depth=1
	ld.bu	$a0, $fp, 24
	bnez	$a0, .LBB3_8
# %bb.6:                                # %if.then9.i
                                        #   in Loop: Header=BB3_2 Depth=1
	move	$a0, $fp
	pcaddu18i	$ra, %call36(_ZN9benchmark5State16StartKeepRunningEv)
	jirl	$ra, $ra, 0
	ld.w	$a0, $fp, 28
	bnez	$a0, .LBB3_8
# %bb.7:                                # %if.then9.i
                                        #   in Loop: Header=BB3_2 Depth=1
	ld.d	$a0, $fp, 0
	bgtz	$a0, .LBB3_3
.LBB3_8:                                # %while.end
	move	$a0, $fp
	pcaddu18i	$ra, %call36(_ZN9benchmark5State17FinishKeepRunningEv)
	jirl	$ra, $ra, 0
	fld.d	$fs0, $sp, 16                   # 8-byte Folded Reload
	ld.d	$s0, $sp, 24                    # 8-byte Folded Reload
	ld.d	$fp, $sp, 32                    # 8-byte Folded Reload
	ld.d	$ra, $sp, 40                    # 8-byte Folded Reload
	addi.d	$sp, $sp, 48
	ret
.Lfunc_end3:
	.size	_Z31BM_diagnostic_test_keep_runningRN9benchmark5StateE, .Lfunc_end3-_Z31BM_diagnostic_test_keep_runningRN9benchmark5StateE
	.cfi_endproc
                                        # -- End function
	.hidden	main                            # -- Begin function main
	.globl	main
	.p2align	5
	.type	main,@function
main:                                   # @main
	.cfi_startproc
# %bb.0:                                # %entry
	addi.d	$sp, $sp, -32
	.cfi_def_cfa_offset 32
	st.d	$ra, $sp, 24                    # 8-byte Folded Spill
	st.d	$fp, $sp, 16                    # 8-byte Folded Spill
	.cfi_offset 1, -8
	.cfi_offset 22, -16
	move	$fp, $a1
	st.w	$a0, $sp, 12
	pcaddu18i	$ra, %call36(_ZN9benchmark8internal15GetAbortHandlerEv)
	jirl	$ra, $ra, 0
	pcalau12i	$a1, %pc_hi20(_Z11TestHandlerv)
	addi.d	$a1, $a1, %pc_lo12(_Z11TestHandlerv)
	st.d	$a1, $a0, 0
	pcalau12i	$a0, %got_pc_hi20(_ZN9benchmark16PrintDefaultHelpEv)
	ld.d	$a2, $a0, %got_pc_lo12(_ZN9benchmark16PrintDefaultHelpEv)
	addi.d	$a0, $sp, 12
	move	$a1, $fp
	pcaddu18i	$ra, %call36(_ZN9benchmark10InitializeEPiPPcPFvvE)
	jirl	$ra, $ra, 0
	pcaddu18i	$ra, %call36(_ZN9benchmark22RunSpecifiedBenchmarksEv)
	jirl	$ra, $ra, 0
	move	$a0, $zero
	ld.d	$fp, $sp, 16                    # 8-byte Folded Reload
	ld.d	$ra, $sp, 24                    # 8-byte Folded Reload
	addi.d	$sp, $sp, 32
	ret
.Lfunc_end4:
	.size	main, .Lfunc_end4-main
	.cfi_endproc
                                        # -- End function
	.section	.text.startup,"ax",@progbits
	.p2align	5                               # -- Begin function _GLOBAL__sub_I_diagnostics_test.cc
	.type	_GLOBAL__sub_I_diagnostics_test.cc,@function
_GLOBAL__sub_I_diagnostics_test.cc:     # @_GLOBAL__sub_I_diagnostics_test.cc
.Lfunc_begin1:
	.cfi_startproc
	.cfi_personality 155, DW.ref.__gxx_personality_v0
	.cfi_lsda 27, .Lexception1
# %bb.0:                                # %entry
	addi.d	$sp, $sp, -96
	.cfi_def_cfa_offset 96
	st.d	$ra, $sp, 88                    # 8-byte Folded Spill
	st.d	$fp, $sp, 80                    # 8-byte Folded Spill
	st.d	$s0, $sp, 72                    # 8-byte Folded Spill
	st.d	$s1, $sp, 64                    # 8-byte Folded Spill
	st.d	$s2, $sp, 56                    # 8-byte Folded Spill
	st.d	$s3, $sp, 48                    # 8-byte Folded Spill
	.cfi_offset 1, -8
	.cfi_offset 22, -16
	.cfi_offset 23, -24
	.cfi_offset 24, -32
	.cfi_offset 25, -40
	.cfi_offset 26, -48
	pcaddu18i	$ra, %call36(_ZN9benchmark8internal17InitializeStreamsEv)
	jirl	$ra, $ra, 0
	ori	$a0, $zero, 232
	pcaddu18i	$ra, %call36(_Znwm)
	jirl	$ra, $ra, 0
	move	$fp, $a0
	addi.d	$s1, $sp, 24
	st.d	$s1, $sp, 8
	ori	$a0, $zero, 18
	st.d	$a0, $sp, 40
.Ltmp3:                                 # EH_LABEL
	addi.d	$a0, $sp, 8
	addi.d	$a1, $sp, 40
	move	$a2, $zero
	pcaddu18i	$ra, %call36(_ZNSt7__cxx1112basic_stringIcSt11char_traitsIcESaIcEE9_M_createERmm)
	jirl	$ra, $ra, 0
.Ltmp4:                                 # EH_LABEL
# %bb.1:                                # %call2.i5.i.noexc.i
	ld.d	$a1, $sp, 40
	st.d	$a0, $sp, 8
	st.d	$a1, $sp, 24
	pcalau12i	$a2, %pc_hi20(.L.str.2)
	addi.d	$a2, $a2, %pc_lo12(.L.str.2)
	vld	$vr0, $a2, 0
	ld.h	$a2, $a2, 16
	vst	$vr0, $a0, 0
	st.h	$a2, $a0, 16
	ld.d	$a0, $sp, 8
	st.d	$a1, $sp, 16
	stx.b	$zero, $a0, $a1
	ori	$s3, $zero, 1
.Ltmp6:                                 # EH_LABEL
	addi.d	$a1, $sp, 8
	move	$a0, $fp
	pcaddu18i	$ra, %call36(_ZN9benchmark8internal9BenchmarkC2ERKNSt7__cxx1112basic_stringIcSt11char_traitsIcESaIcEEE)
	jirl	$ra, $ra, 0
.Ltmp7:                                 # EH_LABEL
# %bb.2:                                # %invoke.cont3.i
	pcalau12i	$a0, %got_pc_hi20(_ZTVN9benchmark8internal17FunctionBenchmarkE)
	ld.d	$a0, $a0, %got_pc_lo12(_ZTVN9benchmark8internal17FunctionBenchmarkE)
	addi.d	$s2, $a0, 16
	st.d	$s2, $fp, 0
	pcalau12i	$a0, %pc_hi20(_Z18BM_diagnostic_testRN9benchmark5StateE)
	addi.d	$a0, $a0, %pc_lo12(_Z18BM_diagnostic_testRN9benchmark5StateE)
	st.d	$a0, $fp, 224
.Ltmp8:                                 # EH_LABEL
	move	$s3, $zero
	move	$a0, $fp
	pcaddu18i	$ra, %call36(_ZN9benchmark8internal25RegisterBenchmarkInternalEPNS0_9BenchmarkE)
	jirl	$ra, $ra, 0
.Ltmp9:                                 # EH_LABEL
# %bb.3:                                # %invoke.cont4.i
	move	$s0, $a0
	ld.d	$a0, $sp, 8
	beq	$a0, $s1, .LBB5_5
# %bb.4:                                # %if.then.i.i3.i
	ld.d	$a1, $sp, 24
	addi.d	$a1, $a1, 1
	pcaddu18i	$ra, %call36(_ZdlPvm)
	jirl	$ra, $ra, 0
.LBB5_5:                                # %__cxx_global_var_init.1.exit
	pcalau12i	$a0, %pc_hi20(_ZL27benchmark_uniq_2_benchmark_)
	st.d	$s0, $a0, %pc_lo12(_ZL27benchmark_uniq_2_benchmark_)
	ori	$a0, $zero, 232
	pcaddu18i	$ra, %call36(_Znwm)
	jirl	$ra, $ra, 0
	move	$fp, $a0
	st.d	$s1, $sp, 8
	ori	$a0, $zero, 31
	st.d	$a0, $sp, 40
.Ltmp11:                                # EH_LABEL
	addi.d	$a0, $sp, 8
	addi.d	$a1, $sp, 40
	move	$a2, $zero
	pcaddu18i	$ra, %call36(_ZNSt7__cxx1112basic_stringIcSt11char_traitsIcESaIcEE9_M_createERmm)
	jirl	$ra, $ra, 0
.Ltmp12:                                # EH_LABEL
# %bb.6:                                # %call2.i5.i.noexc.i11
	ld.d	$a1, $sp, 40
	st.d	$a0, $sp, 8
	st.d	$a1, $sp, 24
	pcalau12i	$a2, %pc_hi20(.L.str.4)
	addi.d	$a2, $a2, %pc_lo12(.L.str.4)
	vld	$vr0, $a2, 0
	ld.d	$a3, $a2, 23
	ld.d	$a2, $a2, 16
	vst	$vr0, $a0, 0
	st.d	$a3, $a0, 23
	st.d	$a2, $a0, 16
	ld.d	$a0, $sp, 8
	st.d	$a1, $sp, 16
	stx.b	$zero, $a0, $a1
	ori	$s3, $zero, 1
.Ltmp14:                                # EH_LABEL
	addi.d	$a1, $sp, 8
	move	$a0, $fp
	pcaddu18i	$ra, %call36(_ZN9benchmark8internal9BenchmarkC2ERKNSt7__cxx1112basic_stringIcSt11char_traitsIcESaIcEEE)
	jirl	$ra, $ra, 0
.Ltmp15:                                # EH_LABEL
# %bb.7:                                # %invoke.cont3.i21
	st.d	$s2, $fp, 0
	pcalau12i	$a0, %pc_hi20(_Z31BM_diagnostic_test_keep_runningRN9benchmark5StateE)
	addi.d	$a0, $a0, %pc_lo12(_Z31BM_diagnostic_test_keep_runningRN9benchmark5StateE)
	st.d	$a0, $fp, 224
.Ltmp16:                                # EH_LABEL
	move	$s3, $zero
	move	$a0, $fp
	pcaddu18i	$ra, %call36(_ZN9benchmark8internal25RegisterBenchmarkInternalEPNS0_9BenchmarkE)
	jirl	$ra, $ra, 0
.Ltmp17:                                # EH_LABEL
# %bb.8:                                # %invoke.cont4.i24
	move	$s0, $a0
	ld.d	$a0, $sp, 8
	beq	$a0, $s1, .LBB5_10
# %bb.9:                                # %if.then.i.i3.i26
	ld.d	$a1, $sp, 24
	addi.d	$a1, $a1, 1
	pcaddu18i	$ra, %call36(_ZdlPvm)
	jirl	$ra, $ra, 0
.LBB5_10:                               # %__cxx_global_var_init.3.exit
	pcalau12i	$a0, %pc_hi20(_ZL27benchmark_uniq_3_benchmark_)
	st.d	$s0, $a0, %pc_lo12(_ZL27benchmark_uniq_3_benchmark_)
	ld.d	$s3, $sp, 48                    # 8-byte Folded Reload
	ld.d	$s2, $sp, 56                    # 8-byte Folded Reload
	ld.d	$s1, $sp, 64                    # 8-byte Folded Reload
	ld.d	$s0, $sp, 72                    # 8-byte Folded Reload
	ld.d	$fp, $sp, 80                    # 8-byte Folded Reload
	ld.d	$ra, $sp, 88                    # 8-byte Folded Reload
	addi.d	$sp, $sp, 96
	ret
.LBB5_11:                               # %ehcleanup.thread.i6
.Ltmp13:                                # EH_LABEL
	move	$s0, $a0
	b	.LBB5_15
.LBB5_12:                               # %ehcleanup.thread.i
.Ltmp5:                                 # EH_LABEL
	move	$s0, $a0
	b	.LBB5_15
.LBB5_13:                               # %lpad2.i14
.Ltmp18:                                # EH_LABEL
	ld.d	$a2, $sp, 8
	move	$s0, $a0
	beq	$a2, $s1, .LBB5_18
.LBB5_14:                               # %ehcleanup.i
	ld.d	$a0, $sp, 24
	addi.d	$a1, $a0, 1
	move	$a0, $a2
	pcaddu18i	$ra, %call36(_ZdlPvm)
	jirl	$ra, $ra, 0
	beqz	$s3, .LBB5_16
.LBB5_15:                               # %common.resume.sink.split
	ori	$a1, $zero, 232
	move	$a0, $fp
	pcaddu18i	$ra, %call36(_ZdlPvm)
	jirl	$ra, $ra, 0
.LBB5_16:                               # %common.resume
	move	$a0, $s0
	pcaddu18i	$ra, %call36(_Unwind_Resume)
	jirl	$ra, $ra, 0
.LBB5_17:                               # %lpad2.i
.Ltmp10:                                # EH_LABEL
	ld.d	$a2, $sp, 8
	move	$s0, $a0
	bne	$a2, $s1, .LBB5_14
.LBB5_18:                               # %_ZNKSt7__cxx1112basic_stringIcSt11char_traitsIcESaIcEE11_M_is_localEv.exit.thread.i.i7.i
	beqz	$s3, .LBB5_16
	b	.LBB5_15
.Lfunc_end5:
	.size	_GLOBAL__sub_I_diagnostics_test.cc, .Lfunc_end5-_GLOBAL__sub_I_diagnostics_test.cc
	.cfi_endproc
	.section	.gcc_except_table,"a",@progbits
	.p2align	2, 0x0
GCC_except_table5:
.Lexception1:
	.byte	255                             # @LPStart Encoding = omit
	.byte	255                             # @TType Encoding = omit
	.byte	1                               # Call site Encoding = uleb128
	.uleb128 .Lcst_end1-.Lcst_begin1
.Lcst_begin1:
	.uleb128 .Lfunc_begin1-.Lfunc_begin1    # >> Call Site 1 <<
	.uleb128 .Ltmp3-.Lfunc_begin1           #   Call between .Lfunc_begin1 and .Ltmp3
	.byte	0                               #     has no landing pad
	.byte	0                               #   On action: cleanup
	.uleb128 .Ltmp3-.Lfunc_begin1           # >> Call Site 2 <<
	.uleb128 .Ltmp4-.Ltmp3                  #   Call between .Ltmp3 and .Ltmp4
	.uleb128 .Ltmp5-.Lfunc_begin1           #     jumps to .Ltmp5
	.byte	0                               #   On action: cleanup
	.uleb128 .Ltmp6-.Lfunc_begin1           # >> Call Site 3 <<
	.uleb128 .Ltmp9-.Ltmp6                  #   Call between .Ltmp6 and .Ltmp9
	.uleb128 .Ltmp10-.Lfunc_begin1          #     jumps to .Ltmp10
	.byte	0                               #   On action: cleanup
	.uleb128 .Ltmp9-.Lfunc_begin1           # >> Call Site 4 <<
	.uleb128 .Ltmp11-.Ltmp9                 #   Call between .Ltmp9 and .Ltmp11
	.byte	0                               #     has no landing pad
	.byte	0                               #   On action: cleanup
	.uleb128 .Ltmp11-.Lfunc_begin1          # >> Call Site 5 <<
	.uleb128 .Ltmp12-.Ltmp11                #   Call between .Ltmp11 and .Ltmp12
	.uleb128 .Ltmp13-.Lfunc_begin1          #     jumps to .Ltmp13
	.byte	0                               #   On action: cleanup
	.uleb128 .Ltmp14-.Lfunc_begin1          # >> Call Site 6 <<
	.uleb128 .Ltmp17-.Ltmp14                #   Call between .Ltmp14 and .Ltmp17
	.uleb128 .Ltmp18-.Lfunc_begin1          #     jumps to .Ltmp18
	.byte	0                               #   On action: cleanup
	.uleb128 .Ltmp17-.Lfunc_begin1          # >> Call Site 7 <<
	.uleb128 .Lfunc_end5-.Ltmp17            #   Call between .Ltmp17 and .Lfunc_end5
	.byte	0                               #     has no landing pad
	.byte	0                               #   On action: cleanup
.Lcst_end1:
	.p2align	2, 0x0
                                        # -- End function
	.type	.L.str,@object                  # @.str
	.section	.rodata.str1.1,"aMS",@progbits,1
.L.str:
	.space	1
	.size	.L.str, 1

	.type	_ZL27benchmark_uniq_2_benchmark_,@object # @_ZL27benchmark_uniq_2_benchmark_
	.local	_ZL27benchmark_uniq_2_benchmark_
	.comm	_ZL27benchmark_uniq_2_benchmark_,8,8
	.type	.L.str.2,@object                # @.str.2
	.section	.rodata.str1.8,"aMS",@progbits,1
	.p2align	3, 0x0
.L.str.2:
	.asciz	"BM_diagnostic_test"
	.size	.L.str.2, 19

	.type	_ZL27benchmark_uniq_3_benchmark_,@object # @_ZL27benchmark_uniq_3_benchmark_
	.local	_ZL27benchmark_uniq_3_benchmark_
	.comm	_ZL27benchmark_uniq_3_benchmark_,8,8
	.type	.L.str.4,@object                # @.str.4
	.p2align	3, 0x0
.L.str.4:
	.asciz	"BM_diagnostic_test_keep_running"
	.size	.L.str.4, 32

	.type	.L.str.5,@object                # @.str.5
	.section	.rodata.str1.1,"aMS",@progbits,1
.L.str.5:
	.asciz	"cached_ > 0"
	.size	.L.str.5, 12

	.type	.L.str.6,@object                # @.str.6
.L.str.6:
	.asciz	"/home/zhaoqi/llvm-test-suite/MicroBenchmarks/libs/benchmark/include/benchmark/benchmark.h"
	.size	.L.str.6, 90

	.type	.L__PRETTY_FUNCTION__._ZN9benchmark5State13StateIteratorppEv,@object # @__PRETTY_FUNCTION__._ZN9benchmark5State13StateIteratorppEv
.L__PRETTY_FUNCTION__._ZN9benchmark5State13StateIteratorppEv:
	.asciz	"StateIterator &benchmark::State::StateIterator::operator++()"
	.size	.L__PRETTY_FUNCTION__._ZN9benchmark5State13StateIteratorppEv, 61

	.section	.init_array,"aw",@init_array
	.p2align	3, 0x0
	.dword	_GLOBAL__sub_I_diagnostics_test.cc
	.hidden	DW.ref.__gxx_personality_v0
	.weak	DW.ref.__gxx_personality_v0
	.section	.data.DW.ref.__gxx_personality_v0,"awG",@progbits,DW.ref.__gxx_personality_v0,comdat
	.p2align	3, 0x0
	.type	DW.ref.__gxx_personality_v0,@object
	.size	DW.ref.__gxx_personality_v0, 8
DW.ref.__gxx_personality_v0:
	.dword	__gxx_personality_v0
	.section	".note.GNU-stack","",@progbits
	.addrsig
	.addrsig_sym _Z11TestHandlerv
	.addrsig_sym __gxx_personality_v0
	.addrsig_sym _Z18BM_diagnostic_testRN9benchmark5StateE
	.addrsig_sym _Z31BM_diagnostic_test_keep_runningRN9benchmark5StateE
	.addrsig_sym _ZN9benchmark16PrintDefaultHelpEv
	.addrsig_sym _GLOBAL__sub_I_diagnostics_test.cc
	.addrsig_sym _Unwind_Resume
	.addrsig_sym _ZTISt11logic_error
