	.file	"fixture_test.cc"
	.section	.text._ZN23MyFixture_Foo_BenchmarkC2Ev,"axG",@progbits,_ZN23MyFixture_Foo_BenchmarkC2Ev,comdat
	.hidden	_ZN23MyFixture_Foo_BenchmarkC2Ev # -- Begin function _ZN23MyFixture_Foo_BenchmarkC2Ev
	.weak	_ZN23MyFixture_Foo_BenchmarkC2Ev
	.p2align	5
	.type	_ZN23MyFixture_Foo_BenchmarkC2Ev,@function
_ZN23MyFixture_Foo_BenchmarkC2Ev:       # @_ZN23MyFixture_Foo_BenchmarkC2Ev
.Lfunc_begin0:
	.cfi_startproc
	.cfi_personality 155, DW.ref.__gxx_personality_v0
	.cfi_lsda 27, .Lexception0
# %bb.0:                                # %entry
	addi.d	$sp, $sp, -80
	.cfi_def_cfa_offset 80
	st.d	$ra, $sp, 72                    # 8-byte Folded Spill
	st.d	$fp, $sp, 64                    # 8-byte Folded Spill
	st.d	$s0, $sp, 56                    # 8-byte Folded Spill
	st.d	$s1, $sp, 48                    # 8-byte Folded Spill
	.cfi_offset 1, -8
	.cfi_offset 22, -16
	.cfi_offset 23, -24
	.cfi_offset 24, -32
	move	$fp, $a0
	addi.d	$s1, $sp, 32
	st.d	$s1, $sp, 16
	st.d	$zero, $sp, 24
	st.b	$zero, $sp, 32
.Ltmp0:                                 # EH_LABEL
	addi.d	$a1, $sp, 16
	pcaddu18i	$ra, %call36(_ZN9benchmark8internal9BenchmarkC2ERKNSt7__cxx1112basic_stringIcSt11char_traitsIcESaIcEEE)
	jirl	$ra, $ra, 0
.Ltmp1:                                 # EH_LABEL
# %bb.1:                                # %invoke.cont4.i.i
	ld.d	$a0, $sp, 16
	beq	$a0, $s1, .LBB0_3
# %bb.2:                                # %if.then.i.i3.i.i
	ld.d	$a1, $sp, 32
	addi.d	$a1, $a1, 1
	pcaddu18i	$ra, %call36(_ZdlPvm)
	jirl	$ra, $ra, 0
.LBB0_3:                                # %_ZN9MyFixtureC2Ev.exit
	st.d	$zero, $fp, 224
	pcalau12i	$a0, %pc_hi20(_ZTV23MyFixture_Foo_Benchmark+16)
	addi.d	$a0, $a0, %pc_lo12(_ZTV23MyFixture_Foo_Benchmark+16)
	st.d	$a0, $fp, 0
	st.d	$s1, $sp, 16
	pcalau12i	$a0, %pc_hi20(.L.str.6)
	addi.d	$a0, $a0, %pc_lo12(.L.str.6)
	ld.d	$a1, $a0, 0
	ld.d	$a0, $a0, 5
	st.d	$a1, $sp, 32
	st.d	$a0, $sp, 37
	ori	$a0, $zero, 13
	st.d	$a0, $sp, 24
	st.b	$zero, $sp, 45
.Ltmp3:                                 # EH_LABEL
	addi.d	$a1, $sp, 16
	move	$a0, $fp
	pcaddu18i	$ra, %call36(_ZN9benchmark8internal9Benchmark7SetNameERKNSt7__cxx1112basic_stringIcSt11char_traitsIcESaIcEEE)
	jirl	$ra, $ra, 0
.Ltmp4:                                 # EH_LABEL
# %bb.4:                                # %invoke.cont4
	ld.d	$a0, $sp, 16
	beq	$a0, $s1, .LBB0_6
# %bb.5:                                # %if.then.i.i3
	ld.d	$a1, $sp, 32
	addi.d	$a1, $a1, 1
	pcaddu18i	$ra, %call36(_ZdlPvm)
	jirl	$ra, $ra, 0
.LBB0_6:                                # %_ZNSt7__cxx1112basic_stringIcSt11char_traitsIcESaIcEED2Ev.exit
	ld.d	$s1, $sp, 48                    # 8-byte Folded Reload
	ld.d	$s0, $sp, 56                    # 8-byte Folded Reload
	ld.d	$fp, $sp, 64                    # 8-byte Folded Reload
	ld.d	$ra, $sp, 72                    # 8-byte Folded Reload
	addi.d	$sp, $sp, 80
	ret
.LBB0_7:                                # %lpad3
.Ltmp5:                                 # EH_LABEL
	ld.d	$a2, $sp, 16
	move	$s0, $a0
	beq	$a2, $s1, .LBB0_9
# %bb.8:                                # %if.then.i.i5
	ld.d	$a0, $sp, 32
	addi.d	$a1, $a0, 1
	move	$a0, $a2
	pcaddu18i	$ra, %call36(_ZdlPvm)
	jirl	$ra, $ra, 0
.LBB0_9:                                # %ehcleanup
	move	$a0, $fp
	pcaddu18i	$ra, %call36(_ZN9MyFixtureD2Ev)
	jirl	$ra, $ra, 0
	move	$a0, $s0
	pcaddu18i	$ra, %call36(_Unwind_Resume)
	jirl	$ra, $ra, 0
.LBB0_10:                               # %lpad3.i.i
.Ltmp2:                                 # EH_LABEL
	ld.d	$a2, $sp, 16
	move	$s0, $a0
	beq	$a2, $s1, .LBB0_12
# %bb.11:                               # %if.then.i.i5.i.i
	ld.d	$a0, $sp, 32
	addi.d	$a1, $a0, 1
	move	$a0, $a2
	pcaddu18i	$ra, %call36(_ZdlPvm)
	jirl	$ra, $ra, 0
.LBB0_12:                               # %common.resume
	move	$a0, $s0
	pcaddu18i	$ra, %call36(_Unwind_Resume)
	jirl	$ra, $ra, 0
.Lfunc_end0:
	.size	_ZN23MyFixture_Foo_BenchmarkC2Ev, .Lfunc_end0-_ZN23MyFixture_Foo_BenchmarkC2Ev
	.cfi_endproc
	.section	.gcc_except_table._ZN23MyFixture_Foo_BenchmarkC2Ev,"aG",@progbits,_ZN23MyFixture_Foo_BenchmarkC2Ev,comdat
	.p2align	2, 0x0
GCC_except_table0:
.Lexception0:
	.byte	255                             # @LPStart Encoding = omit
	.byte	255                             # @TType Encoding = omit
	.byte	1                               # Call site Encoding = uleb128
	.uleb128 .Lcst_end0-.Lcst_begin0
.Lcst_begin0:
	.uleb128 .Ltmp0-.Lfunc_begin0           # >> Call Site 1 <<
	.uleb128 .Ltmp1-.Ltmp0                  #   Call between .Ltmp0 and .Ltmp1
	.uleb128 .Ltmp2-.Lfunc_begin0           #     jumps to .Ltmp2
	.byte	0                               #   On action: cleanup
	.uleb128 .Ltmp1-.Lfunc_begin0           # >> Call Site 2 <<
	.uleb128 .Ltmp3-.Ltmp1                  #   Call between .Ltmp1 and .Ltmp3
	.byte	0                               #     has no landing pad
	.byte	0                               #   On action: cleanup
	.uleb128 .Ltmp3-.Lfunc_begin0           # >> Call Site 3 <<
	.uleb128 .Ltmp4-.Ltmp3                  #   Call between .Ltmp3 and .Ltmp4
	.uleb128 .Ltmp5-.Lfunc_begin0           #     jumps to .Ltmp5
	.byte	0                               #   On action: cleanup
	.uleb128 .Ltmp4-.Lfunc_begin0           # >> Call Site 4 <<
	.uleb128 .Lfunc_end0-.Ltmp4             #   Call between .Ltmp4 and .Lfunc_end0
	.byte	0                               #     has no landing pad
	.byte	0                               #   On action: cleanup
.Lcst_end0:
	.p2align	2, 0x0
                                        # -- End function
	.text
	.hidden	_ZN23MyFixture_Foo_Benchmark13BenchmarkCaseERN9benchmark5StateE # -- Begin function _ZN23MyFixture_Foo_Benchmark13BenchmarkCaseERN9benchmark5StateE
	.globl	_ZN23MyFixture_Foo_Benchmark13BenchmarkCaseERN9benchmark5StateE
	.p2align	5
	.type	_ZN23MyFixture_Foo_Benchmark13BenchmarkCaseERN9benchmark5StateE,@function
_ZN23MyFixture_Foo_Benchmark13BenchmarkCaseERN9benchmark5StateE: # @_ZN23MyFixture_Foo_Benchmark13BenchmarkCaseERN9benchmark5StateE
	.cfi_startproc
# %bb.0:                                # %entry
	addi.d	$sp, $sp, -32
	.cfi_def_cfa_offset 32
	st.d	$ra, $sp, 24                    # 8-byte Folded Spill
	st.d	$fp, $sp, 16                    # 8-byte Folded Spill
	st.d	$s0, $sp, 8                     # 8-byte Folded Spill
	st.d	$s1, $sp, 0                     # 8-byte Folded Spill
	.cfi_offset 1, -8
	.cfi_offset 22, -16
	.cfi_offset 23, -24
	.cfi_offset 24, -32
	ld.d	$a0, $a0, 224
	beqz	$a0, .LBB1_6
# %bb.1:                                # %cond.end
	move	$fp, $a1
	ld.w	$a0, $a0, 0
	ori	$a1, $zero, 42
	bne	$a0, $a1, .LBB1_7
# %bb.2:                                # %cond.end7
	ld.w	$s1, $fp, 28
	ld.d	$s0, $fp, 16
	move	$a0, $fp
	pcaddu18i	$ra, %call36(_ZN9benchmark5State16StartKeepRunningEv)
	jirl	$ra, $ra, 0
	bnez	$s1, .LBB1_5
# %bb.3:                                # %cond.end7
	beqz	$s0, .LBB1_5
# %bb.4:                                # %for.body.preheader
	srai.d	$a0, $s0, 63
	andn	$a0, $s0, $a0
	addi.d	$a1, $s0, -1
	bgeu	$a1, $a0, .LBB1_8
.LBB1_5:                                # %for.cond.cleanup
	move	$a0, $fp
	ld.d	$s1, $sp, 0                     # 8-byte Folded Reload
	ld.d	$s0, $sp, 8                     # 8-byte Folded Reload
	ld.d	$fp, $sp, 16                    # 8-byte Folded Reload
	ld.d	$ra, $sp, 24                    # 8-byte Folded Reload
	addi.d	$sp, $sp, 32
	pcaddu18i	$t8, %call36(_ZN9benchmark5State17FinishKeepRunningEv)
	jr	$t8
.LBB1_6:                                # %cond.false
	pcalau12i	$a0, %pc_hi20(.L.str)
	addi.d	$a0, $a0, %pc_lo12(.L.str)
	pcalau12i	$a1, %pc_hi20(.L.str.2)
	addi.d	$a1, $a1, %pc_lo12(.L.str.2)
	pcalau12i	$a2, %pc_hi20(.L__PRETTY_FUNCTION__._ZN23MyFixture_Foo_Benchmark13BenchmarkCaseERN9benchmark5StateE)
	addi.d	$a3, $a2, %pc_lo12(.L__PRETTY_FUNCTION__._ZN23MyFixture_Foo_Benchmark13BenchmarkCaseERN9benchmark5StateE)
	ori	$a2, $zero, 31
	pcaddu18i	$ra, %call36(__assert_fail)
	jirl	$ra, $ra, 0
.LBB1_7:                                # %cond.false6
	pcalau12i	$a0, %pc_hi20(.L.str.3)
	addi.d	$a0, $a0, %pc_lo12(.L.str.3)
	pcalau12i	$a1, %pc_hi20(.L.str.2)
	addi.d	$a1, $a1, %pc_lo12(.L.str.2)
	pcalau12i	$a2, %pc_hi20(.L__PRETTY_FUNCTION__._ZN23MyFixture_Foo_Benchmark13BenchmarkCaseERN9benchmark5StateE)
	addi.d	$a3, $a2, %pc_lo12(.L__PRETTY_FUNCTION__._ZN23MyFixture_Foo_Benchmark13BenchmarkCaseERN9benchmark5StateE)
	ori	$a2, $zero, 32
	pcaddu18i	$ra, %call36(__assert_fail)
	jirl	$ra, $ra, 0
.LBB1_8:                                # %cond.false.i
	pcalau12i	$a0, %pc_hi20(.L.str.10)
	addi.d	$a0, $a0, %pc_lo12(.L.str.10)
	pcalau12i	$a1, %pc_hi20(.L.str.11)
	addi.d	$a1, $a1, %pc_lo12(.L.str.11)
	pcalau12i	$a2, %pc_hi20(.L__PRETTY_FUNCTION__._ZN9benchmark5State13StateIteratorppEv)
	addi.d	$a3, $a2, %pc_lo12(.L__PRETTY_FUNCTION__._ZN9benchmark5State13StateIteratorppEv)
	ori	$a2, $zero, 1134
	pcaddu18i	$ra, %call36(__assert_fail)
	jirl	$ra, $ra, 0
.Lfunc_end1:
	.size	_ZN23MyFixture_Foo_Benchmark13BenchmarkCaseERN9benchmark5StateE, .Lfunc_end1-_ZN23MyFixture_Foo_Benchmark13BenchmarkCaseERN9benchmark5StateE
	.cfi_endproc
                                        # -- End function
	.hidden	_ZN23MyFixture_Bar_Benchmark13BenchmarkCaseERN9benchmark5StateE # -- Begin function _ZN23MyFixture_Bar_Benchmark13BenchmarkCaseERN9benchmark5StateE
	.globl	_ZN23MyFixture_Bar_Benchmark13BenchmarkCaseERN9benchmark5StateE
	.p2align	5
	.type	_ZN23MyFixture_Bar_Benchmark13BenchmarkCaseERN9benchmark5StateE,@function
_ZN23MyFixture_Bar_Benchmark13BenchmarkCaseERN9benchmark5StateE: # @_ZN23MyFixture_Bar_Benchmark13BenchmarkCaseERN9benchmark5StateE
.Lfunc_begin1:
	.cfi_startproc
	.cfi_personality 155, DW.ref.__gxx_personality_v0
	.cfi_lsda 27, .Lexception1
# %bb.0:                                # %entry
	addi.d	$sp, $sp, -96
	.cfi_def_cfa_offset 96
	st.d	$ra, $sp, 88                    # 8-byte Folded Spill
	st.d	$fp, $sp, 80                    # 8-byte Folded Spill
	st.d	$s0, $sp, 72                    # 8-byte Folded Spill
	st.d	$s1, $sp, 64                    # 8-byte Folded Spill
	st.d	$s2, $sp, 56                    # 8-byte Folded Spill
	.cfi_offset 1, -8
	.cfi_offset 22, -16
	.cfi_offset 23, -24
	.cfi_offset 24, -32
	.cfi_offset 25, -40
	move	$fp, $a1
	ld.w	$a1, $a1, 144
	move	$s0, $a0
	bnez	$a1, .LBB2_3
# %bb.1:                                # %if.then
	ld.d	$a0, $s0, 224
	beqz	$a0, .LBB2_17
# %bb.2:                                # %cond.end
	ld.w	$a0, $a0, 0
	ori	$a1, $zero, 42
	bne	$a0, $a1, .LBB2_18
.LBB2_3:                                # %if.end
	ld.w	$s2, $fp, 28
	ld.d	$s1, $fp, 16
	move	$a0, $fp
	pcaddu18i	$ra, %call36(_ZN9benchmark5State16StartKeepRunningEv)
	jirl	$ra, $ra, 0
	bnez	$s2, .LBB2_8
# %bb.4:                                # %if.end
	beqz	$s1, .LBB2_8
# %bb.5:                                # %for.body.lr.ph
	ld.d	$a0, $s0, 224
	beqz	$a0, .LBB2_14
# %bb.6:                                # %for.body.lr.ph.split
	ld.w	$a0, $a0, 0
	ori	$a1, $zero, 42
	bne	$a0, $a1, .LBB2_15
# %bb.7:                                # %for.body.preheader
	srai.d	$a0, $s1, 63
	andn	$a0, $s1, $a0
	addi.d	$a1, $s1, -1
	bgeu	$a1, $a0, .LBB2_16
.LBB2_8:                                # %for.cond.cleanup
	move	$a0, $fp
	pcaddu18i	$ra, %call36(_ZN9benchmark5State17FinishKeepRunningEv)
	jirl	$ra, $ra, 0
	ld.d	$a1, $fp, 40
	ld.d	$a0, $fp, 32
	beq	$a1, $a0, .LBB2_13
# %bb.9:                                # %_ZNK9benchmark5State5rangeEm.exit
	ld.d	$s1, $a0, 0
	addi.d	$s0, $sp, 32
	st.d	$s0, $sp, 16
	ori	$a0, $zero, 16
	st.d	$a0, $sp, 48
	addi.d	$a0, $sp, 16
	addi.d	$a1, $sp, 48
	move	$a2, $zero
	pcaddu18i	$ra, %call36(_ZNSt7__cxx1112basic_stringIcSt11char_traitsIcESaIcEE9_M_createERmm)
	jirl	$ra, $ra, 0
	ld.d	$a1, $sp, 48
	pcalau12i	$a2, %pc_hi20(.L.str.12)
	vld	$vr0, $a2, %pc_lo12(.L.str.12)
	st.d	$a0, $sp, 16
	st.d	$a1, $sp, 32
	vst	$vr0, $a0, 0
	ld.d	$a0, $sp, 16
	st.d	$a1, $sp, 24
	stx.b	$zero, $a0, $a1
	addi.d	$a0, $fp, 64
.Ltmp6:                                 # EH_LABEL
	addi.d	$a1, $sp, 16
	pcaddu18i	$ra, %call36(_ZNSt3mapINSt7__cxx1112basic_stringIcSt11char_traitsIcESaIcEEEN9benchmark7CounterESt4lessIS5_ESaISt4pairIKS5_S7_EEEixEOS5_)
	jirl	$ra, $ra, 0
.Ltmp7:                                 # EH_LABEL
# %bb.10:                               # %_ZN9benchmark5State17SetItemsProcessedEl.exit
	movgr2fr.d	$fa0, $s1
	ffint.d.l	$fa0, $fa0
	ld.d	$a2, $sp, 16
	fst.d	$fa0, $a0, 0
	ori	$a1, $zero, 1
	lu32i.d	$a1, 1000
	st.d	$a1, $a0, 8
	beq	$a2, $s0, .LBB2_12
# %bb.11:                               # %if.then.i.i25
	ld.d	$a0, $sp, 32
	addi.d	$a1, $a0, 1
	move	$a0, $a2
	pcaddu18i	$ra, %call36(_ZdlPvm)
	jirl	$ra, $ra, 0
.LBB2_12:                               # %_ZNSt7__cxx1112basic_stringIcSt11char_traitsIcESaIcEED2Ev.exit31
	ld.d	$s2, $sp, 56                    # 8-byte Folded Reload
	ld.d	$s1, $sp, 64                    # 8-byte Folded Reload
	ld.d	$s0, $sp, 72                    # 8-byte Folded Reload
	ld.d	$fp, $sp, 80                    # 8-byte Folded Reload
	ld.d	$ra, $sp, 88                    # 8-byte Folded Reload
	addi.d	$sp, $sp, 96
	ret
.LBB2_13:                               # %cond.false.i13
	pcalau12i	$a0, %pc_hi20(.L.str.13)
	addi.d	$a0, $a0, %pc_lo12(.L.str.13)
	pcalau12i	$a1, %pc_hi20(.L.str.11)
	addi.d	$a1, $a1, %pc_lo12(.L.str.11)
	pcalau12i	$a2, %pc_hi20(.L__PRETTY_FUNCTION__._ZNK9benchmark5State5rangeEm)
	addi.d	$a3, $a2, %pc_lo12(.L__PRETTY_FUNCTION__._ZNK9benchmark5State5rangeEm)
	ori	$a2, $zero, 990
	pcaddu18i	$ra, %call36(__assert_fail)
	jirl	$ra, $ra, 0
.LBB2_14:                               # %cond.false18
	pcalau12i	$a0, %pc_hi20(.L.str)
	addi.d	$a0, $a0, %pc_lo12(.L.str)
	pcalau12i	$a1, %pc_hi20(.L.str.2)
	addi.d	$a1, $a1, %pc_lo12(.L.str.2)
	pcalau12i	$a2, %pc_hi20(.L__PRETTY_FUNCTION__._ZN23MyFixture_Bar_Benchmark13BenchmarkCaseERN9benchmark5StateE)
	addi.d	$a3, $a2, %pc_lo12(.L__PRETTY_FUNCTION__._ZN23MyFixture_Bar_Benchmark13BenchmarkCaseERN9benchmark5StateE)
	ori	$a2, $zero, 43
	pcaddu18i	$ra, %call36(__assert_fail)
	jirl	$ra, $ra, 0
.LBB2_15:                               # %cond.false24
	pcalau12i	$a0, %pc_hi20(.L.str.3)
	addi.d	$a0, $a0, %pc_lo12(.L.str.3)
	pcalau12i	$a1, %pc_hi20(.L.str.2)
	addi.d	$a1, $a1, %pc_lo12(.L.str.2)
	pcalau12i	$a2, %pc_hi20(.L__PRETTY_FUNCTION__._ZN23MyFixture_Bar_Benchmark13BenchmarkCaseERN9benchmark5StateE)
	addi.d	$a3, $a2, %pc_lo12(.L__PRETTY_FUNCTION__._ZN23MyFixture_Bar_Benchmark13BenchmarkCaseERN9benchmark5StateE)
	ori	$a2, $zero, 44
	pcaddu18i	$ra, %call36(__assert_fail)
	jirl	$ra, $ra, 0
.LBB2_16:                               # %cond.false.i
	pcalau12i	$a0, %pc_hi20(.L.str.10)
	addi.d	$a0, $a0, %pc_lo12(.L.str.10)
	pcalau12i	$a1, %pc_hi20(.L.str.11)
	addi.d	$a1, $a1, %pc_lo12(.L.str.11)
	pcalau12i	$a2, %pc_hi20(.L__PRETTY_FUNCTION__._ZN9benchmark5State13StateIteratorppEv)
	addi.d	$a3, $a2, %pc_lo12(.L__PRETTY_FUNCTION__._ZN9benchmark5State13StateIteratorppEv)
	ori	$a2, $zero, 1134
	pcaddu18i	$ra, %call36(__assert_fail)
	jirl	$ra, $ra, 0
.LBB2_17:                               # %cond.false
	pcalau12i	$a0, %pc_hi20(.L.str)
	addi.d	$a0, $a0, %pc_lo12(.L.str)
	pcalau12i	$a1, %pc_hi20(.L.str.2)
	addi.d	$a1, $a1, %pc_lo12(.L.str.2)
	pcalau12i	$a2, %pc_hi20(.L__PRETTY_FUNCTION__._ZN23MyFixture_Bar_Benchmark13BenchmarkCaseERN9benchmark5StateE)
	addi.d	$a3, $a2, %pc_lo12(.L__PRETTY_FUNCTION__._ZN23MyFixture_Bar_Benchmark13BenchmarkCaseERN9benchmark5StateE)
	ori	$a2, $zero, 39
	pcaddu18i	$ra, %call36(__assert_fail)
	jirl	$ra, $ra, 0
.LBB2_18:                               # %cond.false8
	pcalau12i	$a0, %pc_hi20(.L.str.3)
	addi.d	$a0, $a0, %pc_lo12(.L.str.3)
	pcalau12i	$a1, %pc_hi20(.L.str.2)
	addi.d	$a1, $a1, %pc_lo12(.L.str.2)
	pcalau12i	$a2, %pc_hi20(.L__PRETTY_FUNCTION__._ZN23MyFixture_Bar_Benchmark13BenchmarkCaseERN9benchmark5StateE)
	addi.d	$a3, $a2, %pc_lo12(.L__PRETTY_FUNCTION__._ZN23MyFixture_Bar_Benchmark13BenchmarkCaseERN9benchmark5StateE)
	ori	$a2, $zero, 40
	pcaddu18i	$ra, %call36(__assert_fail)
	jirl	$ra, $ra, 0
.LBB2_19:                               # %lpad4.i
.Ltmp8:                                 # EH_LABEL
	ld.d	$a2, $sp, 16
	move	$fp, $a0
	beq	$a2, $s0, .LBB2_21
# %bb.20:                               # %if.then.i.i22
	ld.d	$a0, $sp, 32
	addi.d	$a1, $a0, 1
	move	$a0, $a2
	pcaddu18i	$ra, %call36(_ZdlPvm)
	jirl	$ra, $ra, 0
.LBB2_21:                               # %ehcleanup.i
	move	$a0, $fp
	pcaddu18i	$ra, %call36(_Unwind_Resume)
	jirl	$ra, $ra, 0
.Lfunc_end2:
	.size	_ZN23MyFixture_Bar_Benchmark13BenchmarkCaseERN9benchmark5StateE, .Lfunc_end2-_ZN23MyFixture_Bar_Benchmark13BenchmarkCaseERN9benchmark5StateE
	.cfi_endproc
	.section	.gcc_except_table,"a",@progbits
	.p2align	2, 0x0
GCC_except_table2:
.Lexception1:
	.byte	255                             # @LPStart Encoding = omit
	.byte	255                             # @TType Encoding = omit
	.byte	1                               # Call site Encoding = uleb128
	.uleb128 .Lcst_end1-.Lcst_begin1
.Lcst_begin1:
	.uleb128 .Lfunc_begin1-.Lfunc_begin1    # >> Call Site 1 <<
	.uleb128 .Ltmp6-.Lfunc_begin1           #   Call between .Lfunc_begin1 and .Ltmp6
	.byte	0                               #     has no landing pad
	.byte	0                               #   On action: cleanup
	.uleb128 .Ltmp6-.Lfunc_begin1           # >> Call Site 2 <<
	.uleb128 .Ltmp7-.Ltmp6                  #   Call between .Ltmp6 and .Ltmp7
	.uleb128 .Ltmp8-.Lfunc_begin1           #     jumps to .Ltmp8
	.byte	0                               #   On action: cleanup
	.uleb128 .Ltmp7-.Lfunc_begin1           # >> Call Site 3 <<
	.uleb128 .Lfunc_end2-.Ltmp7             #   Call between .Ltmp7 and .Lfunc_end2
	.byte	0                               #     has no landing pad
	.byte	0                               #   On action: cleanup
.Lcst_end1:
	.p2align	2, 0x0
                                        # -- End function
	.section	.text._ZN23MyFixture_Bar_BenchmarkC2Ev,"axG",@progbits,_ZN23MyFixture_Bar_BenchmarkC2Ev,comdat
	.hidden	_ZN23MyFixture_Bar_BenchmarkC2Ev # -- Begin function _ZN23MyFixture_Bar_BenchmarkC2Ev
	.weak	_ZN23MyFixture_Bar_BenchmarkC2Ev
	.p2align	5
	.type	_ZN23MyFixture_Bar_BenchmarkC2Ev,@function
_ZN23MyFixture_Bar_BenchmarkC2Ev:       # @_ZN23MyFixture_Bar_BenchmarkC2Ev
.Lfunc_begin2:
	.cfi_startproc
	.cfi_personality 155, DW.ref.__gxx_personality_v0
	.cfi_lsda 27, .Lexception2
# %bb.0:                                # %entry
	addi.d	$sp, $sp, -80
	.cfi_def_cfa_offset 80
	st.d	$ra, $sp, 72                    # 8-byte Folded Spill
	st.d	$fp, $sp, 64                    # 8-byte Folded Spill
	st.d	$s0, $sp, 56                    # 8-byte Folded Spill
	st.d	$s1, $sp, 48                    # 8-byte Folded Spill
	.cfi_offset 1, -8
	.cfi_offset 22, -16
	.cfi_offset 23, -24
	.cfi_offset 24, -32
	move	$fp, $a0
	addi.d	$s1, $sp, 32
	st.d	$s1, $sp, 16
	st.d	$zero, $sp, 24
	st.b	$zero, $sp, 32
.Ltmp9:                                 # EH_LABEL
	addi.d	$a1, $sp, 16
	pcaddu18i	$ra, %call36(_ZN9benchmark8internal9BenchmarkC2ERKNSt7__cxx1112basic_stringIcSt11char_traitsIcESaIcEEE)
	jirl	$ra, $ra, 0
.Ltmp10:                                # EH_LABEL
# %bb.1:                                # %invoke.cont4.i.i
	ld.d	$a0, $sp, 16
	beq	$a0, $s1, .LBB3_3
# %bb.2:                                # %if.then.i.i3.i.i
	ld.d	$a1, $sp, 32
	addi.d	$a1, $a1, 1
	pcaddu18i	$ra, %call36(_ZdlPvm)
	jirl	$ra, $ra, 0
.LBB3_3:                                # %_ZN9MyFixtureC2Ev.exit
	st.d	$zero, $fp, 224
	pcalau12i	$a0, %pc_hi20(_ZTV23MyFixture_Bar_Benchmark+16)
	addi.d	$a0, $a0, %pc_lo12(_ZTV23MyFixture_Bar_Benchmark+16)
	st.d	$a0, $fp, 0
	st.d	$s1, $sp, 16
	pcalau12i	$a0, %pc_hi20(.L.str.14)
	addi.d	$a0, $a0, %pc_lo12(.L.str.14)
	ld.d	$a1, $a0, 0
	ld.d	$a0, $a0, 5
	st.d	$a1, $sp, 32
	st.d	$a0, $sp, 37
	ori	$a0, $zero, 13
	st.d	$a0, $sp, 24
	st.b	$zero, $sp, 45
.Ltmp12:                                # EH_LABEL
	addi.d	$a1, $sp, 16
	move	$a0, $fp
	pcaddu18i	$ra, %call36(_ZN9benchmark8internal9Benchmark7SetNameERKNSt7__cxx1112basic_stringIcSt11char_traitsIcESaIcEEE)
	jirl	$ra, $ra, 0
.Ltmp13:                                # EH_LABEL
# %bb.4:                                # %invoke.cont4
	ld.d	$a0, $sp, 16
	beq	$a0, $s1, .LBB3_6
# %bb.5:                                # %if.then.i.i3
	ld.d	$a1, $sp, 32
	addi.d	$a1, $a1, 1
	pcaddu18i	$ra, %call36(_ZdlPvm)
	jirl	$ra, $ra, 0
.LBB3_6:                                # %_ZNSt7__cxx1112basic_stringIcSt11char_traitsIcESaIcEED2Ev.exit
	ld.d	$s1, $sp, 48                    # 8-byte Folded Reload
	ld.d	$s0, $sp, 56                    # 8-byte Folded Reload
	ld.d	$fp, $sp, 64                    # 8-byte Folded Reload
	ld.d	$ra, $sp, 72                    # 8-byte Folded Reload
	addi.d	$sp, $sp, 80
	ret
.LBB3_7:                                # %lpad3
.Ltmp14:                                # EH_LABEL
	ld.d	$a2, $sp, 16
	move	$s0, $a0
	beq	$a2, $s1, .LBB3_9
# %bb.8:                                # %if.then.i.i5
	ld.d	$a0, $sp, 32
	addi.d	$a1, $a0, 1
	move	$a0, $a2
	pcaddu18i	$ra, %call36(_ZdlPvm)
	jirl	$ra, $ra, 0
.LBB3_9:                                # %ehcleanup
	move	$a0, $fp
	pcaddu18i	$ra, %call36(_ZN9MyFixtureD2Ev)
	jirl	$ra, $ra, 0
	move	$a0, $s0
	pcaddu18i	$ra, %call36(_Unwind_Resume)
	jirl	$ra, $ra, 0
.LBB3_10:                               # %lpad3.i.i
.Ltmp11:                                # EH_LABEL
	ld.d	$a2, $sp, 16
	move	$s0, $a0
	beq	$a2, $s1, .LBB3_12
# %bb.11:                               # %if.then.i.i5.i.i
	ld.d	$a0, $sp, 32
	addi.d	$a1, $a0, 1
	move	$a0, $a2
	pcaddu18i	$ra, %call36(_ZdlPvm)
	jirl	$ra, $ra, 0
.LBB3_12:                               # %common.resume
	move	$a0, $s0
	pcaddu18i	$ra, %call36(_Unwind_Resume)
	jirl	$ra, $ra, 0
.Lfunc_end3:
	.size	_ZN23MyFixture_Bar_BenchmarkC2Ev, .Lfunc_end3-_ZN23MyFixture_Bar_BenchmarkC2Ev
	.cfi_endproc
	.section	.gcc_except_table._ZN23MyFixture_Bar_BenchmarkC2Ev,"aG",@progbits,_ZN23MyFixture_Bar_BenchmarkC2Ev,comdat
	.p2align	2, 0x0
GCC_except_table3:
.Lexception2:
	.byte	255                             # @LPStart Encoding = omit
	.byte	255                             # @TType Encoding = omit
	.byte	1                               # Call site Encoding = uleb128
	.uleb128 .Lcst_end2-.Lcst_begin2
.Lcst_begin2:
	.uleb128 .Ltmp9-.Lfunc_begin2           # >> Call Site 1 <<
	.uleb128 .Ltmp10-.Ltmp9                 #   Call between .Ltmp9 and .Ltmp10
	.uleb128 .Ltmp11-.Lfunc_begin2          #     jumps to .Ltmp11
	.byte	0                               #   On action: cleanup
	.uleb128 .Ltmp10-.Lfunc_begin2          # >> Call Site 2 <<
	.uleb128 .Ltmp12-.Ltmp10                #   Call between .Ltmp10 and .Ltmp12
	.byte	0                               #     has no landing pad
	.byte	0                               #   On action: cleanup
	.uleb128 .Ltmp12-.Lfunc_begin2          # >> Call Site 3 <<
	.uleb128 .Ltmp13-.Ltmp12                #   Call between .Ltmp12 and .Ltmp13
	.uleb128 .Ltmp14-.Lfunc_begin2          #     jumps to .Ltmp14
	.byte	0                               #   On action: cleanup
	.uleb128 .Ltmp13-.Lfunc_begin2          # >> Call Site 4 <<
	.uleb128 .Lfunc_end3-.Ltmp13            #   Call between .Ltmp13 and .Lfunc_end3
	.byte	0                               #     has no landing pad
	.byte	0                               #   On action: cleanup
.Lcst_end2:
	.p2align	2, 0x0
                                        # -- End function
	.text
	.hidden	main                            # -- Begin function main
	.globl	main
	.p2align	5
	.type	main,@function
main:                                   # @main
	.cfi_startproc
# %bb.0:                                # %entry
	addi.d	$sp, $sp, -48
	.cfi_def_cfa_offset 48
	st.d	$ra, $sp, 40                    # 8-byte Folded Spill
	st.d	$fp, $sp, 32                    # 8-byte Folded Spill
	.cfi_offset 1, -8
	.cfi_offset 22, -16
	move	$fp, $a1
	st.w	$a0, $sp, 28
	pcalau12i	$a0, %pc_hi20(.L__const.main.arg0_default)
	addi.d	$a0, $a0, %pc_lo12(.L__const.main.arg0_default)
	ld.h	$a2, $a0, 8
	ld.d	$a0, $a0, 0
	st.h	$a2, $sp, 24
	st.d	$a0, $sp, 16
	addi.d	$a0, $sp, 16
	st.d	$a0, $sp, 8
	bnez	$a1, .LBB4_2
# %bb.1:                                # %if.then
	ori	$a0, $zero, 1
	st.w	$a0, $sp, 28
	addi.d	$fp, $sp, 8
.LBB4_2:                                # %if.end
	pcalau12i	$a0, %got_pc_hi20(_ZN9benchmark16PrintDefaultHelpEv)
	ld.d	$a2, $a0, %got_pc_lo12(_ZN9benchmark16PrintDefaultHelpEv)
	addi.d	$a0, $sp, 28
	move	$a1, $fp
	pcaddu18i	$ra, %call36(_ZN9benchmark10InitializeEPiPPcPFvvE)
	jirl	$ra, $ra, 0
	ld.w	$a0, $sp, 28
	move	$a1, $fp
	pcaddu18i	$ra, %call36(_ZN9benchmark27ReportUnrecognizedArgumentsEiPPc)
	jirl	$ra, $ra, 0
	move	$a1, $a0
	ori	$a0, $zero, 1
	bnez	$a1, .LBB4_4
# %bb.3:                                # %if.end2
	pcaddu18i	$ra, %call36(_ZN9benchmark22RunSpecifiedBenchmarksEv)
	jirl	$ra, $ra, 0
	pcaddu18i	$ra, %call36(_ZN9benchmark8ShutdownEv)
	jirl	$ra, $ra, 0
	move	$a0, $zero
.LBB4_4:                                # %cleanup
	ld.d	$fp, $sp, 32                    # 8-byte Folded Reload
	ld.d	$ra, $sp, 40                    # 8-byte Folded Reload
	addi.d	$sp, $sp, 48
	ret
.Lfunc_end4:
	.size	main, .Lfunc_end4-main
	.cfi_endproc
                                        # -- End function
	.section	.text._ZN23MyFixture_Foo_BenchmarkD0Ev,"axG",@progbits,_ZN23MyFixture_Foo_BenchmarkD0Ev,comdat
	.hidden	_ZN23MyFixture_Foo_BenchmarkD0Ev # -- Begin function _ZN23MyFixture_Foo_BenchmarkD0Ev
	.weak	_ZN23MyFixture_Foo_BenchmarkD0Ev
	.p2align	5
	.type	_ZN23MyFixture_Foo_BenchmarkD0Ev,@function
_ZN23MyFixture_Foo_BenchmarkD0Ev:       # @_ZN23MyFixture_Foo_BenchmarkD0Ev
	.cfi_startproc
# %bb.0:                                # %entry
	addi.d	$sp, $sp, -16
	.cfi_def_cfa_offset 16
	st.d	$ra, $sp, 8                     # 8-byte Folded Spill
	st.d	$fp, $sp, 0                     # 8-byte Folded Spill
	.cfi_offset 1, -8
	.cfi_offset 22, -16
	pcalau12i	$a1, %pc_hi20(_ZTV9MyFixture+16)
	addi.d	$a1, $a1, %pc_lo12(_ZTV9MyFixture+16)
	ld.d	$a2, $a0, 224
	st.d	$a1, $a0, 0
	bnez	$a2, .LBB5_2
# %bb.1:                                # %_ZN9MyFixtureD2Ev.exit
	move	$fp, $a0
	pcaddu18i	$ra, %call36(_ZN9benchmark8internal9BenchmarkD2Ev)
	jirl	$ra, $ra, 0
	ori	$a1, $zero, 232
	move	$a0, $fp
	ld.d	$fp, $sp, 0                     # 8-byte Folded Reload
	ld.d	$ra, $sp, 8                     # 8-byte Folded Reload
	addi.d	$sp, $sp, 16
	pcaddu18i	$t8, %call36(_ZdlPvm)
	jr	$t8
.LBB5_2:                                # %cond.false.i
	pcalau12i	$a0, %pc_hi20(.L.str.9)
	addi.d	$a0, $a0, %pc_lo12(.L.str.9)
	pcalau12i	$a1, %pc_hi20(.L.str.2)
	addi.d	$a1, $a1, %pc_lo12(.L.str.2)
	pcalau12i	$a2, %pc_hi20(.L__PRETTY_FUNCTION__._ZN9MyFixtureD2Ev)
	addi.d	$a3, $a2, %pc_lo12(.L__PRETTY_FUNCTION__._ZN9MyFixtureD2Ev)
	ori	$a2, $zero, 25
	pcaddu18i	$ra, %call36(__assert_fail)
	jirl	$ra, $ra, 0
.Lfunc_end5:
	.size	_ZN23MyFixture_Foo_BenchmarkD0Ev, .Lfunc_end5-_ZN23MyFixture_Foo_BenchmarkD0Ev
	.cfi_endproc
                                        # -- End function
	.section	.text._ZN9benchmark7Fixture3RunERNS_5StateE,"axG",@progbits,_ZN9benchmark7Fixture3RunERNS_5StateE,comdat
	.hidden	_ZN9benchmark7Fixture3RunERNS_5StateE # -- Begin function _ZN9benchmark7Fixture3RunERNS_5StateE
	.weak	_ZN9benchmark7Fixture3RunERNS_5StateE
	.p2align	5
	.type	_ZN9benchmark7Fixture3RunERNS_5StateE,@function
_ZN9benchmark7Fixture3RunERNS_5StateE:  # @_ZN9benchmark7Fixture3RunERNS_5StateE
	.cfi_startproc
# %bb.0:                                # %entry
	addi.d	$sp, $sp, -32
	.cfi_def_cfa_offset 32
	st.d	$ra, $sp, 24                    # 8-byte Folded Spill
	st.d	$fp, $sp, 16                    # 8-byte Folded Spill
	st.d	$s0, $sp, 8                     # 8-byte Folded Spill
	.cfi_offset 1, -8
	.cfi_offset 22, -16
	.cfi_offset 23, -24
	move	$fp, $a0
	ld.d	$a0, $a0, 0
	ld.d	$a2, $a0, 40
	move	$s0, $a1
	move	$a0, $fp
	jirl	$ra, $a2, 0
	ld.d	$a0, $fp, 0
	ld.d	$a2, $a0, 56
	move	$a0, $fp
	move	$a1, $s0
	jirl	$ra, $a2, 0
	ld.d	$a0, $fp, 0
	ld.d	$a2, $a0, 48
	move	$a0, $fp
	move	$a1, $s0
	ld.d	$s0, $sp, 8                     # 8-byte Folded Reload
	ld.d	$fp, $sp, 16                    # 8-byte Folded Reload
	ld.d	$ra, $sp, 24                    # 8-byte Folded Reload
	addi.d	$sp, $sp, 32
	jr	$a2
.Lfunc_end6:
	.size	_ZN9benchmark7Fixture3RunERNS_5StateE, .Lfunc_end6-_ZN9benchmark7Fixture3RunERNS_5StateE
	.cfi_endproc
                                        # -- End function
	.section	.text._ZN9MyFixture5SetUpERKN9benchmark5StateE,"axG",@progbits,_ZN9MyFixture5SetUpERKN9benchmark5StateE,comdat
	.hidden	_ZN9MyFixture5SetUpERKN9benchmark5StateE # -- Begin function _ZN9MyFixture5SetUpERKN9benchmark5StateE
	.weak	_ZN9MyFixture5SetUpERKN9benchmark5StateE
	.p2align	5
	.type	_ZN9MyFixture5SetUpERKN9benchmark5StateE,@function
_ZN9MyFixture5SetUpERKN9benchmark5StateE: # @_ZN9MyFixture5SetUpERKN9benchmark5StateE
	.cfi_startproc
# %bb.0:                                # %entry
	addi.d	$sp, $sp, -16
	.cfi_def_cfa_offset 16
	st.d	$ra, $sp, 8                     # 8-byte Folded Spill
	st.d	$fp, $sp, 0                     # 8-byte Folded Spill
	.cfi_offset 1, -8
	.cfi_offset 22, -16
	ld.w	$a1, $a1, 144
	beqz	$a1, .LBB7_2
# %bb.1:                                # %if.end
	ld.d	$fp, $sp, 0                     # 8-byte Folded Reload
	ld.d	$ra, $sp, 8                     # 8-byte Folded Reload
	addi.d	$sp, $sp, 16
	ret
.LBB7_2:                                # %if.then
	move	$fp, $a0
	ld.d	$a0, $a0, 224
	bnez	$a0, .LBB7_4
# %bb.3:                                # %_ZNSt10unique_ptrIiSt14default_deleteIiEE5resetEPi.exit
	ori	$a0, $zero, 4
	pcaddu18i	$ra, %call36(_Znwm)
	jirl	$ra, $ra, 0
	ori	$a1, $zero, 42
	st.w	$a1, $a0, 0
	st.d	$a0, $fp, 224
	ld.d	$fp, $sp, 0                     # 8-byte Folded Reload
	ld.d	$ra, $sp, 8                     # 8-byte Folded Reload
	addi.d	$sp, $sp, 16
	ret
.LBB7_4:                                # %cond.false
	pcalau12i	$a0, %pc_hi20(.L.str.15)
	addi.d	$a0, $a0, %pc_lo12(.L.str.15)
	pcalau12i	$a1, %pc_hi20(.L.str.2)
	addi.d	$a1, $a1, %pc_lo12(.L.str.2)
	pcalau12i	$a2, %pc_hi20(.L__PRETTY_FUNCTION__._ZN9MyFixture5SetUpERKN9benchmark5StateE)
	addi.d	$a3, $a2, %pc_lo12(.L__PRETTY_FUNCTION__._ZN9MyFixture5SetUpERKN9benchmark5StateE)
	ori	$a2, $zero, 13
	pcaddu18i	$ra, %call36(__assert_fail)
	jirl	$ra, $ra, 0
.Lfunc_end7:
	.size	_ZN9MyFixture5SetUpERKN9benchmark5StateE, .Lfunc_end7-_ZN9MyFixture5SetUpERKN9benchmark5StateE
	.cfi_endproc
                                        # -- End function
	.section	.text._ZN9MyFixture8TearDownERKN9benchmark5StateE,"axG",@progbits,_ZN9MyFixture8TearDownERKN9benchmark5StateE,comdat
	.hidden	_ZN9MyFixture8TearDownERKN9benchmark5StateE # -- Begin function _ZN9MyFixture8TearDownERKN9benchmark5StateE
	.weak	_ZN9MyFixture8TearDownERKN9benchmark5StateE
	.p2align	5
	.type	_ZN9MyFixture8TearDownERKN9benchmark5StateE,@function
_ZN9MyFixture8TearDownERKN9benchmark5StateE: # @_ZN9MyFixture8TearDownERKN9benchmark5StateE
# %bb.0:                                # %entry
	ld.w	$a1, $a1, 144
	beqz	$a1, .LBB8_2
# %bb.1:                                # %if.end
	ret
.LBB8_2:                                # %if.then
	ld.d	$a2, $a0, 224
	beqz	$a2, .LBB8_4
# %bb.3:                                # %_ZNSt10unique_ptrIiSt14default_deleteIiEE5resetEPi.exit
	ori	$a1, $zero, 4
	st.d	$zero, $a0, 224
	move	$a0, $a2
	pcaddu18i	$t8, %call36(_ZdlPvm)
	jr	$t8
.LBB8_4:                                # %cond.false
	pcalau12i	$a0, %pc_hi20(.L.str)
	addi.d	$a0, $a0, %pc_lo12(.L.str)
	pcalau12i	$a1, %pc_hi20(.L.str.2)
	addi.d	$a1, $a1, %pc_lo12(.L.str.2)
	pcalau12i	$a2, %pc_hi20(.L__PRETTY_FUNCTION__._ZN9MyFixture8TearDownERKN9benchmark5StateE)
	addi.d	$a3, $a2, %pc_lo12(.L__PRETTY_FUNCTION__._ZN9MyFixture8TearDownERKN9benchmark5StateE)
	ori	$a2, $zero, 20
	pcaddu18i	$ra, %call36(__assert_fail)
	jirl	$ra, $ra, 0
.Lfunc_end8:
	.size	_ZN9MyFixture8TearDownERKN9benchmark5StateE, .Lfunc_end8-_ZN9MyFixture8TearDownERKN9benchmark5StateE
                                        # -- End function
	.section	.text._ZN9benchmark7Fixture5SetUpERNS_5StateE,"axG",@progbits,_ZN9benchmark7Fixture5SetUpERNS_5StateE,comdat
	.hidden	_ZN9benchmark7Fixture5SetUpERNS_5StateE # -- Begin function _ZN9benchmark7Fixture5SetUpERNS_5StateE
	.weak	_ZN9benchmark7Fixture5SetUpERNS_5StateE
	.p2align	5
	.type	_ZN9benchmark7Fixture5SetUpERNS_5StateE,@function
_ZN9benchmark7Fixture5SetUpERNS_5StateE: # @_ZN9benchmark7Fixture5SetUpERNS_5StateE
	.cfi_startproc
# %bb.0:                                # %entry
	ld.d	$a2, $a0, 0
	ld.d	$a2, $a2, 24
	jr	$a2
.Lfunc_end9:
	.size	_ZN9benchmark7Fixture5SetUpERNS_5StateE, .Lfunc_end9-_ZN9benchmark7Fixture5SetUpERNS_5StateE
	.cfi_endproc
                                        # -- End function
	.section	.text._ZN9benchmark7Fixture8TearDownERNS_5StateE,"axG",@progbits,_ZN9benchmark7Fixture8TearDownERNS_5StateE,comdat
	.hidden	_ZN9benchmark7Fixture8TearDownERNS_5StateE # -- Begin function _ZN9benchmark7Fixture8TearDownERNS_5StateE
	.weak	_ZN9benchmark7Fixture8TearDownERNS_5StateE
	.p2align	5
	.type	_ZN9benchmark7Fixture8TearDownERNS_5StateE,@function
_ZN9benchmark7Fixture8TearDownERNS_5StateE: # @_ZN9benchmark7Fixture8TearDownERNS_5StateE
	.cfi_startproc
# %bb.0:                                # %entry
	ld.d	$a2, $a0, 0
	ld.d	$a2, $a2, 32
	jr	$a2
.Lfunc_end10:
	.size	_ZN9benchmark7Fixture8TearDownERNS_5StateE, .Lfunc_end10-_ZN9benchmark7Fixture8TearDownERNS_5StateE
	.cfi_endproc
                                        # -- End function
	.section	.text._ZN9MyFixtureD2Ev,"axG",@progbits,_ZN9MyFixtureD2Ev,comdat
	.hidden	_ZN9MyFixtureD2Ev               # -- Begin function _ZN9MyFixtureD2Ev
	.weak	_ZN9MyFixtureD2Ev
	.p2align	5
	.type	_ZN9MyFixtureD2Ev,@function
_ZN9MyFixtureD2Ev:                      # @_ZN9MyFixtureD2Ev
	.cfi_startproc
# %bb.0:                                # %entry
	pcalau12i	$a1, %pc_hi20(_ZTV9MyFixture+16)
	addi.d	$a1, $a1, %pc_lo12(_ZTV9MyFixture+16)
	ld.d	$a2, $a0, 224
	st.d	$a1, $a0, 0
	bnez	$a2, .LBB11_2
# %bb.1:                                # %_ZNSt10unique_ptrIiSt14default_deleteIiEED2Ev.exit
	pcaddu18i	$t8, %call36(_ZN9benchmark8internal9BenchmarkD2Ev)
	jr	$t8
.LBB11_2:                               # %cond.false
	.cfi_def_cfa_offset 0
	pcalau12i	$a0, %pc_hi20(.L.str.9)
	addi.d	$a0, $a0, %pc_lo12(.L.str.9)
	pcalau12i	$a1, %pc_hi20(.L.str.2)
	addi.d	$a1, $a1, %pc_lo12(.L.str.2)
	pcalau12i	$a2, %pc_hi20(.L__PRETTY_FUNCTION__._ZN9MyFixtureD2Ev)
	addi.d	$a3, $a2, %pc_lo12(.L__PRETTY_FUNCTION__._ZN9MyFixtureD2Ev)
	ori	$a2, $zero, 25
	pcaddu18i	$ra, %call36(__assert_fail)
	jirl	$ra, $ra, 0
.Lfunc_end11:
	.size	_ZN9MyFixtureD2Ev, .Lfunc_end11-_ZN9MyFixtureD2Ev
	.cfi_endproc
                                        # -- End function
	.section	.text._ZN23MyFixture_Bar_BenchmarkD0Ev,"axG",@progbits,_ZN23MyFixture_Bar_BenchmarkD0Ev,comdat
	.hidden	_ZN23MyFixture_Bar_BenchmarkD0Ev # -- Begin function _ZN23MyFixture_Bar_BenchmarkD0Ev
	.weak	_ZN23MyFixture_Bar_BenchmarkD0Ev
	.p2align	5
	.type	_ZN23MyFixture_Bar_BenchmarkD0Ev,@function
_ZN23MyFixture_Bar_BenchmarkD0Ev:       # @_ZN23MyFixture_Bar_BenchmarkD0Ev
	.cfi_startproc
# %bb.0:                                # %entry
	addi.d	$sp, $sp, -16
	.cfi_def_cfa_offset 16
	st.d	$ra, $sp, 8                     # 8-byte Folded Spill
	st.d	$fp, $sp, 0                     # 8-byte Folded Spill
	.cfi_offset 1, -8
	.cfi_offset 22, -16
	pcalau12i	$a1, %pc_hi20(_ZTV9MyFixture+16)
	addi.d	$a1, $a1, %pc_lo12(_ZTV9MyFixture+16)
	ld.d	$a2, $a0, 224
	st.d	$a1, $a0, 0
	bnez	$a2, .LBB12_2
# %bb.1:                                # %_ZN9MyFixtureD2Ev.exit
	move	$fp, $a0
	pcaddu18i	$ra, %call36(_ZN9benchmark8internal9BenchmarkD2Ev)
	jirl	$ra, $ra, 0
	ori	$a1, $zero, 232
	move	$a0, $fp
	ld.d	$fp, $sp, 0                     # 8-byte Folded Reload
	ld.d	$ra, $sp, 8                     # 8-byte Folded Reload
	addi.d	$sp, $sp, 16
	pcaddu18i	$t8, %call36(_ZdlPvm)
	jr	$t8
.LBB12_2:                               # %cond.false.i
	pcalau12i	$a0, %pc_hi20(.L.str.9)
	addi.d	$a0, $a0, %pc_lo12(.L.str.9)
	pcalau12i	$a1, %pc_hi20(.L.str.2)
	addi.d	$a1, $a1, %pc_lo12(.L.str.2)
	pcalau12i	$a2, %pc_hi20(.L__PRETTY_FUNCTION__._ZN9MyFixtureD2Ev)
	addi.d	$a3, $a2, %pc_lo12(.L__PRETTY_FUNCTION__._ZN9MyFixtureD2Ev)
	ori	$a2, $zero, 25
	pcaddu18i	$ra, %call36(__assert_fail)
	jirl	$ra, $ra, 0
.Lfunc_end12:
	.size	_ZN23MyFixture_Bar_BenchmarkD0Ev, .Lfunc_end12-_ZN23MyFixture_Bar_BenchmarkD0Ev
	.cfi_endproc
                                        # -- End function
	.section	.text._ZN9MyFixtureD0Ev,"axG",@progbits,_ZN9MyFixtureD0Ev,comdat
	.hidden	_ZN9MyFixtureD0Ev               # -- Begin function _ZN9MyFixtureD0Ev
	.weak	_ZN9MyFixtureD0Ev
	.p2align	5
	.type	_ZN9MyFixtureD0Ev,@function
_ZN9MyFixtureD0Ev:                      # @_ZN9MyFixtureD0Ev
# %bb.0:                                # %entry
	amswap.w	$zero, $ra, $zero
.Lfunc_end13:
	.size	_ZN9MyFixtureD0Ev, .Lfunc_end13-_ZN9MyFixtureD0Ev
                                        # -- End function
	.section	.text._ZNSt3mapINSt7__cxx1112basic_stringIcSt11char_traitsIcESaIcEEEN9benchmark7CounterESt4lessIS5_ESaISt4pairIKS5_S7_EEEixEOS5_,"axG",@progbits,_ZNSt3mapINSt7__cxx1112basic_stringIcSt11char_traitsIcESaIcEEEN9benchmark7CounterESt4lessIS5_ESaISt4pairIKS5_S7_EEEixEOS5_,comdat
	.hidden	_ZNSt3mapINSt7__cxx1112basic_stringIcSt11char_traitsIcESaIcEEEN9benchmark7CounterESt4lessIS5_ESaISt4pairIKS5_S7_EEEixEOS5_ # -- Begin function _ZNSt3mapINSt7__cxx1112basic_stringIcSt11char_traitsIcESaIcEEEN9benchmark7CounterESt4lessIS5_ESaISt4pairIKS5_S7_EEEixEOS5_
	.weak	_ZNSt3mapINSt7__cxx1112basic_stringIcSt11char_traitsIcESaIcEEEN9benchmark7CounterESt4lessIS5_ESaISt4pairIKS5_S7_EEEixEOS5_
	.p2align	5
	.type	_ZNSt3mapINSt7__cxx1112basic_stringIcSt11char_traitsIcESaIcEEEN9benchmark7CounterESt4lessIS5_ESaISt4pairIKS5_S7_EEEixEOS5_,@function
_ZNSt3mapINSt7__cxx1112basic_stringIcSt11char_traitsIcESaIcEEEN9benchmark7CounterESt4lessIS5_ESaISt4pairIKS5_S7_EEEixEOS5_: # @_ZNSt3mapINSt7__cxx1112basic_stringIcSt11char_traitsIcESaIcEEEN9benchmark7CounterESt4lessIS5_ESaISt4pairIKS5_S7_EEEixEOS5_
	.cfi_startproc
# %bb.0:                                # %entry
	addi.d	$sp, $sp, -128
	.cfi_def_cfa_offset 128
	st.d	$ra, $sp, 120                   # 8-byte Folded Spill
	st.d	$fp, $sp, 112                   # 8-byte Folded Spill
	st.d	$s0, $sp, 104                   # 8-byte Folded Spill
	st.d	$s1, $sp, 96                    # 8-byte Folded Spill
	st.d	$s2, $sp, 88                    # 8-byte Folded Spill
	st.d	$s3, $sp, 80                    # 8-byte Folded Spill
	st.d	$s4, $sp, 72                    # 8-byte Folded Spill
	st.d	$s5, $sp, 64                    # 8-byte Folded Spill
	st.d	$s6, $sp, 56                    # 8-byte Folded Spill
	st.d	$s7, $sp, 48                    # 8-byte Folded Spill
	st.d	$s8, $sp, 40                    # 8-byte Folded Spill
	.cfi_offset 1, -8
	.cfi_offset 22, -16
	.cfi_offset 23, -24
	.cfi_offset 24, -32
	.cfi_offset 25, -40
	.cfi_offset 26, -48
	.cfi_offset 27, -56
	.cfi_offset 28, -64
	.cfi_offset 29, -72
	.cfi_offset 30, -80
	.cfi_offset 31, -88
	move	$s0, $a0
	ld.d	$s7, $a0, 16
	move	$s8, $a1
	addi.d	$s2, $a0, 8
	beqz	$s7, .LBB14_11
# %bb.1:                                # %while.body.lr.ph.i.i.i
	st.d	$s0, $sp, 16                    # 8-byte Folded Spill
	ld.d	$s6, $s8, 8
	st.d	$s8, $sp, 8                     # 8-byte Folded Spill
	ld.d	$s3, $s8, 0
	lu12i.w	$s5, -524288
	lu12i.w	$a0, 524287
	ori	$s4, $a0, 4095
	ori	$s8, $zero, 16
	ori	$s0, $zero, 24
	move	$s1, $s2
	b	.LBB14_4
	.p2align	4, , 16
.LBB14_2:                               # %if.then.i.i.i.i.i.i
                                        #   in Loop: Header=BB14_4 Depth=1
	sub.d	$a0, $fp, $s6
	slt	$a1, $s5, $a0
	maskeqz	$a0, $a0, $a1
	masknez	$a1, $s5, $a1
	or	$a0, $a0, $a1
	slt	$a1, $a0, $s4
	maskeqz	$a0, $a0, $a1
	masknez	$a1, $s4, $a1
	or	$a0, $a0, $a1
.LBB14_3:                               # %_ZNKSt4lessINSt7__cxx1112basic_stringIcSt11char_traitsIcESaIcEEEEclERKS5_S8_.exit.i.i.i
                                        #   in Loop: Header=BB14_4 Depth=1
	addi.w	$a0, $a0, 0
	slti	$a0, $a0, 0
	masknez	$a1, $s7, $a0
	masknez	$a2, $s8, $a0
	maskeqz	$a3, $s0, $a0
	or	$a2, $a3, $a2
	ldx.d	$s7, $s7, $a2
	maskeqz	$a0, $s1, $a0
	or	$s1, $a0, $a1
	beqz	$s7, .LBB14_6
.LBB14_4:                               # %while.body.i.i.i
                                        # =>This Inner Loop Header: Depth=1
	ld.d	$fp, $s7, 40
	sltu	$a0, $s6, $fp
	masknez	$a1, $fp, $a0
	maskeqz	$a0, $s6, $a0
	or	$a2, $a0, $a1
	beqz	$a2, .LBB14_2
# %bb.5:                                # %_ZNSt11char_traitsIcE7compareEPKcS2_m.exit.i.i.i.i.i.i
                                        #   in Loop: Header=BB14_4 Depth=1
	ld.d	$a0, $s7, 32
	move	$a1, $s3
	pcaddu18i	$ra, %call36(memcmp)
	jirl	$ra, $ra, 0
	bnez	$a0, .LBB14_3
	b	.LBB14_2
.LBB14_6:                               # %_ZNSt3mapINSt7__cxx1112basic_stringIcSt11char_traitsIcESaIcEEEN9benchmark7CounterESt4lessIS5_ESaISt4pairIKS5_S7_EEE11lower_boundERSB_.exit
	ld.d	$s0, $sp, 16                    # 8-byte Folded Reload
	ld.d	$s8, $sp, 8                     # 8-byte Folded Reload
	beq	$s1, $s2, .LBB14_11
# %bb.7:                                # %lor.rhs
	ld.d	$fp, $s1, 40
	sltu	$a0, $fp, $s6
	masknez	$a1, $s6, $a0
	maskeqz	$a0, $fp, $a0
	or	$a2, $a0, $a1
	beqz	$a2, .LBB14_9
# %bb.8:                                # %_ZNSt11char_traitsIcE7compareEPKcS2_m.exit.i.i.i
	ld.d	$a1, $s1, 32
	move	$a0, $s3
	pcaddu18i	$ra, %call36(memcmp)
	jirl	$ra, $ra, 0
	bnez	$a0, .LBB14_10
.LBB14_9:                               # %if.then.i.i.i
	sub.d	$a0, $s6, $fp
	slt	$a1, $s5, $a0
	maskeqz	$a0, $a0, $a1
	masknez	$a1, $s5, $a1
	or	$a0, $a0, $a1
	slt	$a1, $a0, $s4
	maskeqz	$a0, $a0, $a1
	masknez	$a1, $s4, $a1
	or	$a0, $a0, $a1
.LBB14_10:                              # %_ZNKSt4lessINSt7__cxx1112basic_stringIcSt11char_traitsIcESaIcEEEEclERKS5_S8_.exit
	addi.w	$a0, $a0, 0
	move	$s2, $s1
	bgez	$a0, .LBB14_12
.LBB14_11:                              # %if.then
	st.d	$s8, $sp, 32
	pcalau12i	$a0, %pc_hi20(_ZSt19piecewise_construct)
	addi.d	$a2, $a0, %pc_lo12(_ZSt19piecewise_construct)
	addi.d	$a3, $sp, 32
	addi.d	$a4, $sp, 31
	move	$a0, $s0
	move	$a1, $s2
	pcaddu18i	$ra, %call36(_ZNSt8_Rb_treeINSt7__cxx1112basic_stringIcSt11char_traitsIcESaIcEEESt4pairIKS5_N9benchmark7CounterEESt10_Select1stISA_ESt4lessIS5_ESaISA_EE22_M_emplace_hint_uniqueIJRKSt21piecewise_construct_tSt5tupleIJOS5_EESL_IJEEEEESt17_Rb_tree_iteratorISA_ESt23_Rb_tree_const_iteratorISA_EDpOT_)
	jirl	$ra, $ra, 0
	move	$s1, $a0
.LBB14_12:                              # %if.end
	addi.d	$a0, $s1, 64
	ld.d	$s8, $sp, 40                    # 8-byte Folded Reload
	ld.d	$s7, $sp, 48                    # 8-byte Folded Reload
	ld.d	$s6, $sp, 56                    # 8-byte Folded Reload
	ld.d	$s5, $sp, 64                    # 8-byte Folded Reload
	ld.d	$s4, $sp, 72                    # 8-byte Folded Reload
	ld.d	$s3, $sp, 80                    # 8-byte Folded Reload
	ld.d	$s2, $sp, 88                    # 8-byte Folded Reload
	ld.d	$s1, $sp, 96                    # 8-byte Folded Reload
	ld.d	$s0, $sp, 104                   # 8-byte Folded Reload
	ld.d	$fp, $sp, 112                   # 8-byte Folded Reload
	ld.d	$ra, $sp, 120                   # 8-byte Folded Reload
	addi.d	$sp, $sp, 128
	ret
.Lfunc_end14:
	.size	_ZNSt3mapINSt7__cxx1112basic_stringIcSt11char_traitsIcESaIcEEEN9benchmark7CounterESt4lessIS5_ESaISt4pairIKS5_S7_EEEixEOS5_, .Lfunc_end14-_ZNSt3mapINSt7__cxx1112basic_stringIcSt11char_traitsIcESaIcEEEN9benchmark7CounterESt4lessIS5_ESaISt4pairIKS5_S7_EEEixEOS5_
	.cfi_endproc
                                        # -- End function
	.section	.text._ZNSt8_Rb_treeINSt7__cxx1112basic_stringIcSt11char_traitsIcESaIcEEESt4pairIKS5_N9benchmark7CounterEESt10_Select1stISA_ESt4lessIS5_ESaISA_EE22_M_emplace_hint_uniqueIJRKSt21piecewise_construct_tSt5tupleIJOS5_EESL_IJEEEEESt17_Rb_tree_iteratorISA_ESt23_Rb_tree_const_iteratorISA_EDpOT_,"axG",@progbits,_ZNSt8_Rb_treeINSt7__cxx1112basic_stringIcSt11char_traitsIcESaIcEEESt4pairIKS5_N9benchmark7CounterEESt10_Select1stISA_ESt4lessIS5_ESaISA_EE22_M_emplace_hint_uniqueIJRKSt21piecewise_construct_tSt5tupleIJOS5_EESL_IJEEEEESt17_Rb_tree_iteratorISA_ESt23_Rb_tree_const_iteratorISA_EDpOT_,comdat
	.hidden	_ZNSt8_Rb_treeINSt7__cxx1112basic_stringIcSt11char_traitsIcESaIcEEESt4pairIKS5_N9benchmark7CounterEESt10_Select1stISA_ESt4lessIS5_ESaISA_EE22_M_emplace_hint_uniqueIJRKSt21piecewise_construct_tSt5tupleIJOS5_EESL_IJEEEEESt17_Rb_tree_iteratorISA_ESt23_Rb_tree_const_iteratorISA_EDpOT_ # -- Begin function _ZNSt8_Rb_treeINSt7__cxx1112basic_stringIcSt11char_traitsIcESaIcEEESt4pairIKS5_N9benchmark7CounterEESt10_Select1stISA_ESt4lessIS5_ESaISA_EE22_M_emplace_hint_uniqueIJRKSt21piecewise_construct_tSt5tupleIJOS5_EESL_IJEEEEESt17_Rb_tree_iteratorISA_ESt23_Rb_tree_const_iteratorISA_EDpOT_
	.weak	_ZNSt8_Rb_treeINSt7__cxx1112basic_stringIcSt11char_traitsIcESaIcEEESt4pairIKS5_N9benchmark7CounterEESt10_Select1stISA_ESt4lessIS5_ESaISA_EE22_M_emplace_hint_uniqueIJRKSt21piecewise_construct_tSt5tupleIJOS5_EESL_IJEEEEESt17_Rb_tree_iteratorISA_ESt23_Rb_tree_const_iteratorISA_EDpOT_
	.p2align	5
	.type	_ZNSt8_Rb_treeINSt7__cxx1112basic_stringIcSt11char_traitsIcESaIcEEESt4pairIKS5_N9benchmark7CounterEESt10_Select1stISA_ESt4lessIS5_ESaISA_EE22_M_emplace_hint_uniqueIJRKSt21piecewise_construct_tSt5tupleIJOS5_EESL_IJEEEEESt17_Rb_tree_iteratorISA_ESt23_Rb_tree_const_iteratorISA_EDpOT_,@function
_ZNSt8_Rb_treeINSt7__cxx1112basic_stringIcSt11char_traitsIcESaIcEEESt4pairIKS5_N9benchmark7CounterEESt10_Select1stISA_ESt4lessIS5_ESaISA_EE22_M_emplace_hint_uniqueIJRKSt21piecewise_construct_tSt5tupleIJOS5_EESL_IJEEEEESt17_Rb_tree_iteratorISA_ESt23_Rb_tree_const_iteratorISA_EDpOT_: # @_ZNSt8_Rb_treeINSt7__cxx1112basic_stringIcSt11char_traitsIcESaIcEEESt4pairIKS5_N9benchmark7CounterEESt10_Select1stISA_ESt4lessIS5_ESaISA_EE22_M_emplace_hint_uniqueIJRKSt21piecewise_construct_tSt5tupleIJOS5_EESL_IJEEEEESt17_Rb_tree_iteratorISA_ESt23_Rb_tree_const_iteratorISA_EDpOT_
.Lfunc_begin3:
	.cfi_startproc
	.cfi_personality 155, DW.ref.__gxx_personality_v0
	.cfi_lsda 27, .Lexception3
# %bb.0:                                # %entry
	addi.d	$sp, $sp, -96
	.cfi_def_cfa_offset 96
	st.d	$ra, $sp, 88                    # 8-byte Folded Spill
	st.d	$fp, $sp, 80                    # 8-byte Folded Spill
	st.d	$s0, $sp, 72                    # 8-byte Folded Spill
	st.d	$s1, $sp, 64                    # 8-byte Folded Spill
	st.d	$s2, $sp, 56                    # 8-byte Folded Spill
	st.d	$s3, $sp, 48                    # 8-byte Folded Spill
	st.d	$s4, $sp, 40                    # 8-byte Folded Spill
	st.d	$s5, $sp, 32                    # 8-byte Folded Spill
	st.d	$s6, $sp, 24                    # 8-byte Folded Spill
	.cfi_offset 1, -8
	.cfi_offset 22, -16
	.cfi_offset 23, -24
	.cfi_offset 24, -32
	.cfi_offset 25, -40
	.cfi_offset 26, -48
	.cfi_offset 27, -56
	.cfi_offset 28, -64
	.cfi_offset 29, -72
	move	$fp, $a3
	move	$s2, $a1
	move	$s0, $a0
	st.d	$a0, $sp, 8
	ori	$a0, $zero, 80
	pcaddu18i	$ra, %call36(_Znwm)
	jirl	$ra, $ra, 0
	ld.d	$s5, $fp, 0
	move	$fp, $a0
	addi.d	$s3, $a0, 48
	st.d	$s3, $a0, 32
	ld.d	$a0, $s5, 0
	addi.d	$s4, $s5, 16
	addi.d	$s1, $fp, 32
	beq	$a0, $s4, .LBB15_2
# %bb.1:                                # %if.else.i.i.i.i.i.i
	st.d	$a0, $s1, 0
	ld.d	$a0, $s5, 16
	st.d	$a0, $s3, 0
	ld.d	$s6, $s5, 8
	b	.LBB15_3
.LBB15_2:                               # %_ZNSt11char_traitsIcE4copyEPcPKcm.exit.i.i.i.i.i.i
	ld.d	$s6, $s5, 8
	addi.d	$a2, $s6, 1
	move	$a0, $s3
	move	$a1, $s4
	pcaddu18i	$ra, %call36(memcpy)
	jirl	$ra, $ra, 0
.LBB15_3:                               # %invoke.cont
	st.d	$s6, $fp, 40
	st.d	$s4, $s5, 0
	st.d	$zero, $s5, 8
	st.b	$zero, $s5, 16
	st.d	$zero, $fp, 64
	ori	$a0, $zero, 0
	lu32i.d	$a0, 1000
	st.d	$a0, $fp, 72
	st.d	$fp, $sp, 16
.Ltmp15:                                # EH_LABEL
	move	$a0, $s0
	move	$a1, $s2
	move	$a2, $s1
	pcaddu18i	$ra, %call36(_ZNSt8_Rb_treeINSt7__cxx1112basic_stringIcSt11char_traitsIcESaIcEEESt4pairIKS5_N9benchmark7CounterEESt10_Select1stISA_ESt4lessIS5_ESaISA_EE29_M_get_insert_hint_unique_posESt23_Rb_tree_const_iteratorISA_ERS7_)
	jirl	$ra, $ra, 0
.Ltmp16:                                # EH_LABEL
# %bb.4:                                # %invoke.cont7
	move	$a2, $a0
	move	$s2, $a1
	beqz	$a1, .LBB15_12
# %bb.5:                                # %if.then
	addi.d	$a3, $s0, 8
	ori	$a0, $zero, 1
	bnez	$a2, .LBB15_11
# %bb.6:                                # %if.then
	beq	$a3, $s2, .LBB15_11
# %bb.7:                                # %lor.rhs.i.i
	ld.d	$s3, $fp, 40
	ld.d	$s4, $s2, 40
	sltu	$a0, $s4, $s3
	masknez	$a1, $s3, $a0
	maskeqz	$a0, $s4, $a0
	or	$a2, $a0, $a1
	beqz	$a2, .LBB15_9
# %bb.8:                                # %_ZNSt11char_traitsIcE7compareEPKcS2_m.exit.i.i.i.i.i
	ld.d	$a1, $s2, 32
	ld.d	$a0, $s1, 0
	move	$s1, $a3
	pcaddu18i	$ra, %call36(memcmp)
	jirl	$ra, $ra, 0
	move	$a3, $s1
	bnez	$a0, .LBB15_10
.LBB15_9:                               # %if.then.i.i.i.i.i
	sub.d	$a0, $s3, $s4
	lu12i.w	$a1, -524288
	slt	$a2, $a1, $a0
	maskeqz	$a0, $a0, $a2
	masknez	$a1, $a1, $a2
	or	$a0, $a0, $a1
	lu12i.w	$a1, 524287
	ori	$a1, $a1, 4095
	slt	$a2, $a0, $a1
	maskeqz	$a0, $a0, $a2
	masknez	$a1, $a1, $a2
	or	$a0, $a0, $a1
.LBB15_10:                              # %_ZNKSt4lessINSt7__cxx1112basic_stringIcSt11char_traitsIcESaIcEEEEclERKS5_S8_.exit.i.i
	addi.w	$a0, $a0, 0
	slti	$a0, $a0, 0
.LBB15_11:                              # %cleanup.thread
	move	$a1, $fp
	move	$a2, $s2
	pcaddu18i	$ra, %call36(_ZSt29_Rb_tree_insert_and_rebalancebPSt18_Rb_tree_node_baseS0_RS_)
	jirl	$ra, $ra, 0
	ld.d	$a0, $s0, 40
	addi.d	$a0, $a0, 1
	st.d	$a0, $s0, 40
	move	$a0, $fp
	b	.LBB15_15
.LBB15_12:                              # %if.then.i
	move	$s0, $a2
	ld.d	$a0, $s1, 0
	beq	$a0, $s3, .LBB15_14
# %bb.13:                               # %if.then.i.i.i.i.i.i
	ld.d	$a1, $s3, 0
	addi.d	$a1, $a1, 1
	pcaddu18i	$ra, %call36(_ZdlPvm)
	jirl	$ra, $ra, 0
.LBB15_14:                              # %_ZNSt8_Rb_treeINSt7__cxx1112basic_stringIcSt11char_traitsIcESaIcEEESt4pairIKS5_N9benchmark7CounterEESt10_Select1stISA_ESt4lessIS5_ESaISA_EE12_M_drop_nodeEPSt13_Rb_tree_nodeISA_E.exit.i
	ori	$a1, $zero, 80
	move	$a0, $fp
	pcaddu18i	$ra, %call36(_ZdlPvm)
	jirl	$ra, $ra, 0
	move	$a0, $s0
.LBB15_15:                              # %_ZNSt8_Rb_treeINSt7__cxx1112basic_stringIcSt11char_traitsIcESaIcEEESt4pairIKS5_N9benchmark7CounterEESt10_Select1stISA_ESt4lessIS5_ESaISA_EE10_Auto_nodeD2Ev.exit
	ld.d	$s6, $sp, 24                    # 8-byte Folded Reload
	ld.d	$s5, $sp, 32                    # 8-byte Folded Reload
	ld.d	$s4, $sp, 40                    # 8-byte Folded Reload
	ld.d	$s3, $sp, 48                    # 8-byte Folded Reload
	ld.d	$s2, $sp, 56                    # 8-byte Folded Reload
	ld.d	$s1, $sp, 64                    # 8-byte Folded Reload
	ld.d	$s0, $sp, 72                    # 8-byte Folded Reload
	ld.d	$fp, $sp, 80                    # 8-byte Folded Reload
	ld.d	$ra, $sp, 88                    # 8-byte Folded Reload
	addi.d	$sp, $sp, 96
	ret
.LBB15_16:                              # %lpad
.Ltmp17:                                # EH_LABEL
	move	$fp, $a0
	addi.d	$a0, $sp, 8
	pcaddu18i	$ra, %call36(_ZNSt8_Rb_treeINSt7__cxx1112basic_stringIcSt11char_traitsIcESaIcEEESt4pairIKS5_N9benchmark7CounterEESt10_Select1stISA_ESt4lessIS5_ESaISA_EE10_Auto_nodeD2Ev)
	jirl	$ra, $ra, 0
	move	$a0, $fp
	pcaddu18i	$ra, %call36(_Unwind_Resume)
	jirl	$ra, $ra, 0
.Lfunc_end15:
	.size	_ZNSt8_Rb_treeINSt7__cxx1112basic_stringIcSt11char_traitsIcESaIcEEESt4pairIKS5_N9benchmark7CounterEESt10_Select1stISA_ESt4lessIS5_ESaISA_EE22_M_emplace_hint_uniqueIJRKSt21piecewise_construct_tSt5tupleIJOS5_EESL_IJEEEEESt17_Rb_tree_iteratorISA_ESt23_Rb_tree_const_iteratorISA_EDpOT_, .Lfunc_end15-_ZNSt8_Rb_treeINSt7__cxx1112basic_stringIcSt11char_traitsIcESaIcEEESt4pairIKS5_N9benchmark7CounterEESt10_Select1stISA_ESt4lessIS5_ESaISA_EE22_M_emplace_hint_uniqueIJRKSt21piecewise_construct_tSt5tupleIJOS5_EESL_IJEEEEESt17_Rb_tree_iteratorISA_ESt23_Rb_tree_const_iteratorISA_EDpOT_
	.cfi_endproc
	.section	.gcc_except_table._ZNSt8_Rb_treeINSt7__cxx1112basic_stringIcSt11char_traitsIcESaIcEEESt4pairIKS5_N9benchmark7CounterEESt10_Select1stISA_ESt4lessIS5_ESaISA_EE22_M_emplace_hint_uniqueIJRKSt21piecewise_construct_tSt5tupleIJOS5_EESL_IJEEEEESt17_Rb_tree_iteratorISA_ESt23_Rb_tree_const_iteratorISA_EDpOT_,"aG",@progbits,_ZNSt8_Rb_treeINSt7__cxx1112basic_stringIcSt11char_traitsIcESaIcEEESt4pairIKS5_N9benchmark7CounterEESt10_Select1stISA_ESt4lessIS5_ESaISA_EE22_M_emplace_hint_uniqueIJRKSt21piecewise_construct_tSt5tupleIJOS5_EESL_IJEEEEESt17_Rb_tree_iteratorISA_ESt23_Rb_tree_const_iteratorISA_EDpOT_,comdat
	.p2align	2, 0x0
GCC_except_table15:
.Lexception3:
	.byte	255                             # @LPStart Encoding = omit
	.byte	255                             # @TType Encoding = omit
	.byte	1                               # Call site Encoding = uleb128
	.uleb128 .Lcst_end3-.Lcst_begin3
.Lcst_begin3:
	.uleb128 .Lfunc_begin3-.Lfunc_begin3    # >> Call Site 1 <<
	.uleb128 .Ltmp15-.Lfunc_begin3          #   Call between .Lfunc_begin3 and .Ltmp15
	.byte	0                               #     has no landing pad
	.byte	0                               #   On action: cleanup
	.uleb128 .Ltmp15-.Lfunc_begin3          # >> Call Site 2 <<
	.uleb128 .Ltmp16-.Ltmp15                #   Call between .Ltmp15 and .Ltmp16
	.uleb128 .Ltmp17-.Lfunc_begin3          #     jumps to .Ltmp17
	.byte	0                               #   On action: cleanup
	.uleb128 .Ltmp16-.Lfunc_begin3          # >> Call Site 3 <<
	.uleb128 .Lfunc_end15-.Ltmp16           #   Call between .Ltmp16 and .Lfunc_end15
	.byte	0                               #     has no landing pad
	.byte	0                               #   On action: cleanup
.Lcst_end3:
	.p2align	2, 0x0
                                        # -- End function
	.section	.text._ZNSt8_Rb_treeINSt7__cxx1112basic_stringIcSt11char_traitsIcESaIcEEESt4pairIKS5_N9benchmark7CounterEESt10_Select1stISA_ESt4lessIS5_ESaISA_EE29_M_get_insert_hint_unique_posESt23_Rb_tree_const_iteratorISA_ERS7_,"axG",@progbits,_ZNSt8_Rb_treeINSt7__cxx1112basic_stringIcSt11char_traitsIcESaIcEEESt4pairIKS5_N9benchmark7CounterEESt10_Select1stISA_ESt4lessIS5_ESaISA_EE29_M_get_insert_hint_unique_posESt23_Rb_tree_const_iteratorISA_ERS7_,comdat
	.hidden	_ZNSt8_Rb_treeINSt7__cxx1112basic_stringIcSt11char_traitsIcESaIcEEESt4pairIKS5_N9benchmark7CounterEESt10_Select1stISA_ESt4lessIS5_ESaISA_EE29_M_get_insert_hint_unique_posESt23_Rb_tree_const_iteratorISA_ERS7_ # -- Begin function _ZNSt8_Rb_treeINSt7__cxx1112basic_stringIcSt11char_traitsIcESaIcEEESt4pairIKS5_N9benchmark7CounterEESt10_Select1stISA_ESt4lessIS5_ESaISA_EE29_M_get_insert_hint_unique_posESt23_Rb_tree_const_iteratorISA_ERS7_
	.weak	_ZNSt8_Rb_treeINSt7__cxx1112basic_stringIcSt11char_traitsIcESaIcEEESt4pairIKS5_N9benchmark7CounterEESt10_Select1stISA_ESt4lessIS5_ESaISA_EE29_M_get_insert_hint_unique_posESt23_Rb_tree_const_iteratorISA_ERS7_
	.p2align	5
	.type	_ZNSt8_Rb_treeINSt7__cxx1112basic_stringIcSt11char_traitsIcESaIcEEESt4pairIKS5_N9benchmark7CounterEESt10_Select1stISA_ESt4lessIS5_ESaISA_EE29_M_get_insert_hint_unique_posESt23_Rb_tree_const_iteratorISA_ERS7_,@function
_ZNSt8_Rb_treeINSt7__cxx1112basic_stringIcSt11char_traitsIcESaIcEEESt4pairIKS5_N9benchmark7CounterEESt10_Select1stISA_ESt4lessIS5_ESaISA_EE29_M_get_insert_hint_unique_posESt23_Rb_tree_const_iteratorISA_ERS7_: # @_ZNSt8_Rb_treeINSt7__cxx1112basic_stringIcSt11char_traitsIcESaIcEEESt4pairIKS5_N9benchmark7CounterEESt10_Select1stISA_ESt4lessIS5_ESaISA_EE29_M_get_insert_hint_unique_posESt23_Rb_tree_const_iteratorISA_ERS7_
	.cfi_startproc
# %bb.0:                                # %entry
	addi.d	$sp, $sp, -80
	.cfi_def_cfa_offset 80
	st.d	$ra, $sp, 72                    # 8-byte Folded Spill
	st.d	$fp, $sp, 64                    # 8-byte Folded Spill
	st.d	$s0, $sp, 56                    # 8-byte Folded Spill
	st.d	$s1, $sp, 48                    # 8-byte Folded Spill
	st.d	$s2, $sp, 40                    # 8-byte Folded Spill
	st.d	$s3, $sp, 32                    # 8-byte Folded Spill
	st.d	$s4, $sp, 24                    # 8-byte Folded Spill
	st.d	$s5, $sp, 16                    # 8-byte Folded Spill
	st.d	$s6, $sp, 8                     # 8-byte Folded Spill
	.cfi_offset 1, -8
	.cfi_offset 22, -16
	.cfi_offset 23, -24
	.cfi_offset 24, -32
	.cfi_offset 25, -40
	.cfi_offset 26, -48
	.cfi_offset 27, -56
	.cfi_offset 28, -64
	.cfi_offset 29, -72
	move	$s1, $a0
	addi.d	$a0, $a0, 8
	move	$s0, $a2
	beq	$a0, $a1, .LBB16_4
# %bb.1:                                # %if.else10
	move	$fp, $a1
	ld.d	$s5, $s0, 8
	ld.d	$s6, $a1, 40
	sltu	$a0, $s6, $s5
	masknez	$a1, $s5, $a0
	maskeqz	$a0, $s6, $a0
	or	$s2, $a0, $a1
	beqz	$s2, .LBB16_10
# %bb.2:                                # %_ZNSt11char_traitsIcE7compareEPKcS2_m.exit.i.i.i16
	ld.d	$s3, $fp, 32
	ld.d	$s4, $s0, 0
	move	$a0, $s4
	move	$a1, $s3
	move	$a2, $s2
	pcaddu18i	$ra, %call36(memcmp)
	jirl	$ra, $ra, 0
	beqz	$a0, .LBB16_11
# %bb.3:                                # %_ZNKSt4lessINSt7__cxx1112basic_stringIcSt11char_traitsIcESaIcEEEEclERKS5_S8_.exit26.thread
	bltz	$a0, .LBB16_12
	b	.LBB16_18
.LBB16_4:                               # %if.then
	ld.d	$a0, $s1, 40
	beqz	$a0, .LBB16_28
# %bb.5:                                # %land.lhs.true
	ld.d	$a1, $s1, 32
	ld.d	$fp, $a1, 40
	ld.d	$s2, $s0, 8
	sltu	$a0, $s2, $fp
	masknez	$a2, $fp, $a0
	maskeqz	$a0, $s2, $a0
	or	$a2, $a0, $a2
	beqz	$a2, .LBB16_7
# %bb.6:                                # %_ZNSt11char_traitsIcE7compareEPKcS2_m.exit.i.i.i
	ld.d	$a3, $s0, 0
	ld.d	$a0, $a1, 32
	move	$s3, $a1
	move	$a1, $a3
	pcaddu18i	$ra, %call36(memcmp)
	jirl	$ra, $ra, 0
	move	$a1, $s3
	bnez	$a0, .LBB16_8
.LBB16_7:                               # %if.then.i.i.i
	sub.d	$a0, $fp, $s2
	lu12i.w	$a2, -524288
	slt	$a3, $a2, $a0
	maskeqz	$a0, $a0, $a3
	masknez	$a2, $a2, $a3
	or	$a0, $a0, $a2
	lu12i.w	$a2, 524287
	ori	$a2, $a2, 4095
	slt	$a3, $a0, $a2
	maskeqz	$a0, $a0, $a3
	masknez	$a2, $a2, $a3
	or	$a0, $a0, $a2
.LBB16_8:                               # %_ZNKSt4lessINSt7__cxx1112basic_stringIcSt11char_traitsIcESaIcEEEEclERKS5_S8_.exit
	addi.w	$a0, $a0, 0
	bgez	$a0, .LBB16_28
# %bb.9:
	move	$fp, $zero
	b	.LBB16_29
.LBB16_10:                              # %_ZNKSt4lessINSt7__cxx1112basic_stringIcSt11char_traitsIcESaIcEEEEclERKS5_S8_.exit26
	bltu	$s5, $s6, .LBB16_12
	b	.LBB16_19
.LBB16_11:                              # %_ZNKSt4lessINSt7__cxx1112basic_stringIcSt11char_traitsIcESaIcEEEEclERKS5_S8_.exit26.thread113
	bgeu	$s5, $s6, .LBB16_18
.LBB16_12:                              # %if.then15
	ld.d	$a0, $s1, 24
	beq	$a0, $fp, .LBB16_22
# %bb.13:                               # %if.else23
	move	$a0, $fp
	pcaddu18i	$ra, %call36(_ZSt18_Rb_tree_decrementPSt18_Rb_tree_node_base)
	jirl	$ra, $ra, 0
	move	$s2, $a0
	ld.d	$s3, $a0, 40
	sltu	$a0, $s5, $s3
	masknez	$a1, $s3, $a0
	maskeqz	$a0, $s5, $a0
	or	$a2, $a0, $a1
	beqz	$a2, .LBB16_15
# %bb.14:                               # %_ZNSt11char_traitsIcE7compareEPKcS2_m.exit.i.i.i37
	ld.d	$a1, $s0, 0
	ld.d	$a0, $s2, 32
	pcaddu18i	$ra, %call36(memcmp)
	jirl	$ra, $ra, 0
	bnez	$a0, .LBB16_16
.LBB16_15:                              # %if.then.i.i.i42
	sub.d	$a0, $s3, $s5
	lu12i.w	$a1, -524288
	slt	$a2, $a1, $a0
	maskeqz	$a0, $a0, $a2
	masknez	$a1, $a1, $a2
	or	$a0, $a0, $a1
	lu12i.w	$a1, 524287
	ori	$a1, $a1, 4095
	slt	$a2, $a0, $a1
	maskeqz	$a0, $a0, $a2
	masknez	$a1, $a1, $a2
	or	$a0, $a0, $a1
.LBB16_16:                              # %_ZNKSt4lessINSt7__cxx1112basic_stringIcSt11char_traitsIcESaIcEEEEclERKS5_S8_.exit47
	addi.w	$a0, $a0, 0
	bgez	$a0, .LBB16_28
# %bb.17:                               # %if.then29
	ld.d	$a0, $s2, 24
	sltui	$a0, $a0, 1
	masknez	$fp, $fp, $a0
	maskeqz	$a0, $s2, $a0
	or	$a1, $a0, $fp
	b	.LBB16_29
.LBB16_18:                              # %_ZNSt11char_traitsIcE7compareEPKcS2_m.exit.i.i.i58
	move	$a0, $s3
	move	$a1, $s4
	move	$a2, $s2
	pcaddu18i	$ra, %call36(memcmp)
	jirl	$ra, $ra, 0
	bnez	$a0, .LBB16_20
.LBB16_19:                              # %if.then.i.i.i63
	sub.d	$a0, $s6, $s5
	lu12i.w	$a1, -524288
	slt	$a2, $a1, $a0
	maskeqz	$a0, $a0, $a2
	masknez	$a1, $a1, $a2
	or	$a0, $a0, $a1
	lu12i.w	$a1, 524287
	ori	$a1, $a1, 4095
	slt	$a2, $a0, $a1
	maskeqz	$a0, $a0, $a2
	masknez	$a1, $a1, $a2
	or	$a0, $a0, $a1
.LBB16_20:                              # %_ZNKSt4lessINSt7__cxx1112basic_stringIcSt11char_traitsIcESaIcEEEEclERKS5_S8_.exit68
	addi.w	$a0, $a0, 0
	bltz	$a0, .LBB16_23
# %bb.21:
	move	$a1, $zero
	b	.LBB16_29
.LBB16_22:
	move	$a1, $fp
	b	.LBB16_29
.LBB16_23:                              # %if.then45
	ld.d	$a0, $s1, 32
	beq	$a0, $fp, .LBB16_30
# %bb.24:                               # %if.else53
	move	$a0, $fp
	pcaddu18i	$ra, %call36(_ZSt18_Rb_tree_incrementPSt18_Rb_tree_node_base)
	jirl	$ra, $ra, 0
	move	$s2, $a0
	ld.d	$s3, $a0, 40
	sltu	$a0, $s3, $s5
	masknez	$a1, $s5, $a0
	maskeqz	$a0, $s3, $a0
	or	$a2, $a0, $a1
	beqz	$a2, .LBB16_26
# %bb.25:                               # %_ZNSt11char_traitsIcE7compareEPKcS2_m.exit.i.i.i80
	ld.d	$a1, $s2, 32
	ld.d	$a0, $s0, 0
	pcaddu18i	$ra, %call36(memcmp)
	jirl	$ra, $ra, 0
	bnez	$a0, .LBB16_27
.LBB16_26:                              # %if.then.i.i.i85
	sub.d	$a0, $s5, $s3
	lu12i.w	$a1, -524288
	slt	$a2, $a1, $a0
	maskeqz	$a0, $a0, $a2
	masknez	$a1, $a1, $a2
	or	$a0, $a0, $a1
	lu12i.w	$a1, 524287
	ori	$a1, $a1, 4095
	slt	$a2, $a0, $a1
	maskeqz	$a0, $a0, $a2
	masknez	$a1, $a1, $a2
	or	$a0, $a0, $a1
.LBB16_27:                              # %_ZNKSt4lessINSt7__cxx1112basic_stringIcSt11char_traitsIcESaIcEEEEclERKS5_S8_.exit90
	addi.w	$a0, $a0, 0
	bltz	$a0, .LBB16_31
.LBB16_28:                              # %if.else69
	move	$a0, $s1
	move	$a1, $s0
	pcaddu18i	$ra, %call36(_ZNSt8_Rb_treeINSt7__cxx1112basic_stringIcSt11char_traitsIcESaIcEEESt4pairIKS5_N9benchmark7CounterEESt10_Select1stISA_ESt4lessIS5_ESaISA_EE24_M_get_insert_unique_posERS7_)
	jirl	$ra, $ra, 0
	move	$fp, $a0
.LBB16_29:                              # %return
	move	$a0, $fp
	ld.d	$s6, $sp, 8                     # 8-byte Folded Reload
	ld.d	$s5, $sp, 16                    # 8-byte Folded Reload
	ld.d	$s4, $sp, 24                    # 8-byte Folded Reload
	ld.d	$s3, $sp, 32                    # 8-byte Folded Reload
	ld.d	$s2, $sp, 40                    # 8-byte Folded Reload
	ld.d	$s1, $sp, 48                    # 8-byte Folded Reload
	ld.d	$s0, $sp, 56                    # 8-byte Folded Reload
	ld.d	$fp, $sp, 64                    # 8-byte Folded Reload
	ld.d	$ra, $sp, 72                    # 8-byte Folded Reload
	addi.d	$sp, $sp, 80
	ret
.LBB16_30:
	move	$a1, $fp
	move	$fp, $zero
	b	.LBB16_29
.LBB16_31:                              # %if.then59
	ld.d	$a0, $fp, 24
	sltui	$a0, $a0, 1
	maskeqz	$a1, $fp, $a0
	masknez	$fp, $s2, $a0
	or	$a1, $a1, $fp
	b	.LBB16_29
.Lfunc_end16:
	.size	_ZNSt8_Rb_treeINSt7__cxx1112basic_stringIcSt11char_traitsIcESaIcEEESt4pairIKS5_N9benchmark7CounterEESt10_Select1stISA_ESt4lessIS5_ESaISA_EE29_M_get_insert_hint_unique_posESt23_Rb_tree_const_iteratorISA_ERS7_, .Lfunc_end16-_ZNSt8_Rb_treeINSt7__cxx1112basic_stringIcSt11char_traitsIcESaIcEEESt4pairIKS5_N9benchmark7CounterEESt10_Select1stISA_ESt4lessIS5_ESaISA_EE29_M_get_insert_hint_unique_posESt23_Rb_tree_const_iteratorISA_ERS7_
	.cfi_endproc
                                        # -- End function
	.section	.text._ZNSt8_Rb_treeINSt7__cxx1112basic_stringIcSt11char_traitsIcESaIcEEESt4pairIKS5_N9benchmark7CounterEESt10_Select1stISA_ESt4lessIS5_ESaISA_EE10_Auto_nodeD2Ev,"axG",@progbits,_ZNSt8_Rb_treeINSt7__cxx1112basic_stringIcSt11char_traitsIcESaIcEEESt4pairIKS5_N9benchmark7CounterEESt10_Select1stISA_ESt4lessIS5_ESaISA_EE10_Auto_nodeD2Ev,comdat
	.hidden	_ZNSt8_Rb_treeINSt7__cxx1112basic_stringIcSt11char_traitsIcESaIcEEESt4pairIKS5_N9benchmark7CounterEESt10_Select1stISA_ESt4lessIS5_ESaISA_EE10_Auto_nodeD2Ev # -- Begin function _ZNSt8_Rb_treeINSt7__cxx1112basic_stringIcSt11char_traitsIcESaIcEEESt4pairIKS5_N9benchmark7CounterEESt10_Select1stISA_ESt4lessIS5_ESaISA_EE10_Auto_nodeD2Ev
	.weak	_ZNSt8_Rb_treeINSt7__cxx1112basic_stringIcSt11char_traitsIcESaIcEEESt4pairIKS5_N9benchmark7CounterEESt10_Select1stISA_ESt4lessIS5_ESaISA_EE10_Auto_nodeD2Ev
	.p2align	5
	.type	_ZNSt8_Rb_treeINSt7__cxx1112basic_stringIcSt11char_traitsIcESaIcEEESt4pairIKS5_N9benchmark7CounterEESt10_Select1stISA_ESt4lessIS5_ESaISA_EE10_Auto_nodeD2Ev,@function
_ZNSt8_Rb_treeINSt7__cxx1112basic_stringIcSt11char_traitsIcESaIcEEESt4pairIKS5_N9benchmark7CounterEESt10_Select1stISA_ESt4lessIS5_ESaISA_EE10_Auto_nodeD2Ev: # @_ZNSt8_Rb_treeINSt7__cxx1112basic_stringIcSt11char_traitsIcESaIcEEESt4pairIKS5_N9benchmark7CounterEESt10_Select1stISA_ESt4lessIS5_ESaISA_EE10_Auto_nodeD2Ev
	.cfi_startproc
# %bb.0:                                # %entry
	addi.d	$sp, $sp, -16
	.cfi_def_cfa_offset 16
	st.d	$ra, $sp, 8                     # 8-byte Folded Spill
	st.d	$fp, $sp, 0                     # 8-byte Folded Spill
	.cfi_offset 1, -8
	.cfi_offset 22, -16
	ld.d	$fp, $a0, 8
	beqz	$fp, .LBB17_4
# %bb.1:                                # %if.then
	ld.d	$a0, $fp, 32
	addi.d	$a1, $fp, 48
	beq	$a0, $a1, .LBB17_3
# %bb.2:                                # %if.then.i.i.i.i.i
	ld.d	$a1, $a1, 0
	addi.d	$a1, $a1, 1
	pcaddu18i	$ra, %call36(_ZdlPvm)
	jirl	$ra, $ra, 0
.LBB17_3:                               # %_ZNSt8_Rb_treeINSt7__cxx1112basic_stringIcSt11char_traitsIcESaIcEEESt4pairIKS5_N9benchmark7CounterEESt10_Select1stISA_ESt4lessIS5_ESaISA_EE12_M_drop_nodeEPSt13_Rb_tree_nodeISA_E.exit
	ori	$a1, $zero, 80
	move	$a0, $fp
	ld.d	$fp, $sp, 0                     # 8-byte Folded Reload
	ld.d	$ra, $sp, 8                     # 8-byte Folded Reload
	addi.d	$sp, $sp, 16
	pcaddu18i	$t8, %call36(_ZdlPvm)
	jr	$t8
.LBB17_4:                               # %if.end
	ld.d	$fp, $sp, 0                     # 8-byte Folded Reload
	ld.d	$ra, $sp, 8                     # 8-byte Folded Reload
	addi.d	$sp, $sp, 16
	ret
.Lfunc_end17:
	.size	_ZNSt8_Rb_treeINSt7__cxx1112basic_stringIcSt11char_traitsIcESaIcEEESt4pairIKS5_N9benchmark7CounterEESt10_Select1stISA_ESt4lessIS5_ESaISA_EE10_Auto_nodeD2Ev, .Lfunc_end17-_ZNSt8_Rb_treeINSt7__cxx1112basic_stringIcSt11char_traitsIcESaIcEEESt4pairIKS5_N9benchmark7CounterEESt10_Select1stISA_ESt4lessIS5_ESaISA_EE10_Auto_nodeD2Ev
	.cfi_endproc
                                        # -- End function
	.section	.text._ZNSt8_Rb_treeINSt7__cxx1112basic_stringIcSt11char_traitsIcESaIcEEESt4pairIKS5_N9benchmark7CounterEESt10_Select1stISA_ESt4lessIS5_ESaISA_EE24_M_get_insert_unique_posERS7_,"axG",@progbits,_ZNSt8_Rb_treeINSt7__cxx1112basic_stringIcSt11char_traitsIcESaIcEEESt4pairIKS5_N9benchmark7CounterEESt10_Select1stISA_ESt4lessIS5_ESaISA_EE24_M_get_insert_unique_posERS7_,comdat
	.hidden	_ZNSt8_Rb_treeINSt7__cxx1112basic_stringIcSt11char_traitsIcESaIcEEESt4pairIKS5_N9benchmark7CounterEESt10_Select1stISA_ESt4lessIS5_ESaISA_EE24_M_get_insert_unique_posERS7_ # -- Begin function _ZNSt8_Rb_treeINSt7__cxx1112basic_stringIcSt11char_traitsIcESaIcEEESt4pairIKS5_N9benchmark7CounterEESt10_Select1stISA_ESt4lessIS5_ESaISA_EE24_M_get_insert_unique_posERS7_
	.weak	_ZNSt8_Rb_treeINSt7__cxx1112basic_stringIcSt11char_traitsIcESaIcEEESt4pairIKS5_N9benchmark7CounterEESt10_Select1stISA_ESt4lessIS5_ESaISA_EE24_M_get_insert_unique_posERS7_
	.p2align	5
	.type	_ZNSt8_Rb_treeINSt7__cxx1112basic_stringIcSt11char_traitsIcESaIcEEESt4pairIKS5_N9benchmark7CounterEESt10_Select1stISA_ESt4lessIS5_ESaISA_EE24_M_get_insert_unique_posERS7_,@function
_ZNSt8_Rb_treeINSt7__cxx1112basic_stringIcSt11char_traitsIcESaIcEEESt4pairIKS5_N9benchmark7CounterEESt10_Select1stISA_ESt4lessIS5_ESaISA_EE24_M_get_insert_unique_posERS7_: # @_ZNSt8_Rb_treeINSt7__cxx1112basic_stringIcSt11char_traitsIcESaIcEEESt4pairIKS5_N9benchmark7CounterEESt10_Select1stISA_ESt4lessIS5_ESaISA_EE24_M_get_insert_unique_posERS7_
	.cfi_startproc
# %bb.0:                                # %entry
	addi.d	$sp, $sp, -96
	.cfi_def_cfa_offset 96
	st.d	$ra, $sp, 88                    # 8-byte Folded Spill
	st.d	$fp, $sp, 80                    # 8-byte Folded Spill
	st.d	$s0, $sp, 72                    # 8-byte Folded Spill
	st.d	$s1, $sp, 64                    # 8-byte Folded Spill
	st.d	$s2, $sp, 56                    # 8-byte Folded Spill
	st.d	$s3, $sp, 48                    # 8-byte Folded Spill
	st.d	$s4, $sp, 40                    # 8-byte Folded Spill
	st.d	$s5, $sp, 32                    # 8-byte Folded Spill
	st.d	$s6, $sp, 24                    # 8-byte Folded Spill
	st.d	$s7, $sp, 16                    # 8-byte Folded Spill
	st.d	$s8, $sp, 8                     # 8-byte Folded Spill
	.cfi_offset 1, -8
	.cfi_offset 22, -16
	.cfi_offset 23, -24
	.cfi_offset 24, -32
	.cfi_offset 25, -40
	.cfi_offset 26, -48
	.cfi_offset 27, -56
	.cfi_offset 28, -64
	.cfi_offset 29, -72
	.cfi_offset 30, -80
	.cfi_offset 31, -88
	move	$s1, $a0
	ld.d	$a0, $a0, 16
	move	$s0, $a1
	lu12i.w	$s4, -524288
	lu12i.w	$s3, 524287
	beqz	$a0, .LBB18_13
# %bb.1:                                # %while.body.lr.ph
	ld.d	$s5, $s0, 8
	ld.d	$s2, $s0, 0
	ori	$s6, $s3, 4095
	ori	$s7, $zero, 24
	ori	$s8, $zero, 16
	b	.LBB18_4
	.p2align	4, , 16
.LBB18_2:                               # %if.then.i.i.i
                                        #   in Loop: Header=BB18_4 Depth=1
	sub.d	$a0, $s5, $s3
	slt	$a1, $s4, $a0
	maskeqz	$a0, $a0, $a1
	masknez	$a1, $s4, $a1
	or	$a0, $a0, $a1
	slt	$a1, $a0, $s6
	maskeqz	$a0, $a0, $a1
	masknez	$a1, $s6, $a1
	or	$a0, $a0, $a1
.LBB18_3:                               # %_ZNKSt4lessINSt7__cxx1112basic_stringIcSt11char_traitsIcESaIcEEEEclERKS5_S8_.exit
                                        #   in Loop: Header=BB18_4 Depth=1
	addi.w	$a1, $a0, 0
	slti	$a0, $a1, 0
	masknez	$a2, $s7, $a0
	maskeqz	$a0, $s8, $a0
	or	$a0, $a0, $a2
	ldx.d	$a0, $fp, $a0
	beqz	$a0, .LBB18_6
.LBB18_4:                               # %while.body
                                        # =>This Inner Loop Header: Depth=1
	move	$fp, $a0
	ld.d	$s3, $a0, 40
	sltu	$a0, $s3, $s5
	masknez	$a1, $s5, $a0
	maskeqz	$a0, $s3, $a0
	or	$a2, $a0, $a1
	beqz	$a2, .LBB18_2
# %bb.5:                                # %_ZNSt11char_traitsIcE7compareEPKcS2_m.exit.i.i.i
                                        #   in Loop: Header=BB18_4 Depth=1
	ld.d	$a1, $fp, 32
	move	$a0, $s2
	pcaddu18i	$ra, %call36(memcmp)
	jirl	$ra, $ra, 0
	bnez	$a0, .LBB18_3
	b	.LBB18_2
.LBB18_6:                               # %while.end
	move	$s2, $fp
	lu12i.w	$s3, 524287
	bgez	$a1, .LBB18_9
# %bb.7:                                # %if.then
	ld.d	$a0, $s1, 24
	beq	$fp, $a0, .LBB18_14
.LBB18_8:                               # %if.else
	move	$a0, $fp
	pcaddu18i	$ra, %call36(_ZSt18_Rb_tree_decrementPSt18_Rb_tree_node_base)
	jirl	$ra, $ra, 0
	move	$s2, $a0
.LBB18_9:                               # %if.end12
	ld.d	$s1, $s2, 40
	ld.d	$s5, $s0, 8
	sltu	$a0, $s5, $s1
	masknez	$a1, $s1, $a0
	maskeqz	$a0, $s5, $a0
	or	$a2, $a0, $a1
	beqz	$a2, .LBB18_11
# %bb.10:                               # %_ZNSt11char_traitsIcE7compareEPKcS2_m.exit.i.i.i11
	ld.d	$a1, $s0, 0
	ld.d	$a0, $s2, 32
	pcaddu18i	$ra, %call36(memcmp)
	jirl	$ra, $ra, 0
	bnez	$a0, .LBB18_12
.LBB18_11:                              # %if.then.i.i.i16
	sub.d	$a0, $s1, $s5
	slt	$a1, $s4, $a0
	maskeqz	$a0, $a0, $a1
	masknez	$a1, $s4, $a1
	or	$a0, $a0, $a1
	ori	$a1, $s3, 4095
	slt	$a2, $a0, $a1
	maskeqz	$a0, $a0, $a2
	masknez	$a1, $a1, $a2
	or	$a0, $a0, $a1
.LBB18_12:                              # %_ZNKSt4lessINSt7__cxx1112basic_stringIcSt11char_traitsIcESaIcEEEEclERKS5_S8_.exit21
	addi.w	$a0, $a0, 0
	slti	$a1, $a0, 0
	srai.d	$a0, $a0, 63
	and	$fp, $a0, $fp
	masknez	$a0, $s2, $a1
	b	.LBB18_15
.LBB18_13:
	addi.d	$fp, $s1, 8
	ld.d	$a0, $s1, 24
	bne	$fp, $a0, .LBB18_8
.LBB18_14:
	move	$a0, $zero
.LBB18_15:                              # %cleanup
	move	$a1, $fp
	ld.d	$s8, $sp, 8                     # 8-byte Folded Reload
	ld.d	$s7, $sp, 16                    # 8-byte Folded Reload
	ld.d	$s6, $sp, 24                    # 8-byte Folded Reload
	ld.d	$s5, $sp, 32                    # 8-byte Folded Reload
	ld.d	$s4, $sp, 40                    # 8-byte Folded Reload
	ld.d	$s3, $sp, 48                    # 8-byte Folded Reload
	ld.d	$s2, $sp, 56                    # 8-byte Folded Reload
	ld.d	$s1, $sp, 64                    # 8-byte Folded Reload
	ld.d	$s0, $sp, 72                    # 8-byte Folded Reload
	ld.d	$fp, $sp, 80                    # 8-byte Folded Reload
	ld.d	$ra, $sp, 88                    # 8-byte Folded Reload
	addi.d	$sp, $sp, 96
	ret
.Lfunc_end18:
	.size	_ZNSt8_Rb_treeINSt7__cxx1112basic_stringIcSt11char_traitsIcESaIcEEESt4pairIKS5_N9benchmark7CounterEESt10_Select1stISA_ESt4lessIS5_ESaISA_EE24_M_get_insert_unique_posERS7_, .Lfunc_end18-_ZNSt8_Rb_treeINSt7__cxx1112basic_stringIcSt11char_traitsIcESaIcEEESt4pairIKS5_N9benchmark7CounterEESt10_Select1stISA_ESt4lessIS5_ESaISA_EE24_M_get_insert_unique_posERS7_
	.cfi_endproc
                                        # -- End function
	.section	.text.startup,"ax",@progbits
	.p2align	5                               # -- Begin function _GLOBAL__sub_I_fixture_test.cc
	.type	_GLOBAL__sub_I_fixture_test.cc,@function
_GLOBAL__sub_I_fixture_test.cc:         # @_GLOBAL__sub_I_fixture_test.cc
.Lfunc_begin4:
	.cfi_startproc
	.cfi_personality 155, DW.ref.__gxx_personality_v0
	.cfi_lsda 27, .Lexception4
# %bb.0:                                # %entry
	addi.d	$sp, $sp, -32
	.cfi_def_cfa_offset 32
	st.d	$ra, $sp, 24                    # 8-byte Folded Spill
	st.d	$fp, $sp, 16                    # 8-byte Folded Spill
	st.d	$s0, $sp, 8                     # 8-byte Folded Spill
	.cfi_offset 1, -8
	.cfi_offset 22, -16
	.cfi_offset 23, -24
	pcaddu18i	$ra, %call36(_ZN9benchmark8internal17InitializeStreamsEv)
	jirl	$ra, $ra, 0
	ori	$a0, $zero, 232
	pcaddu18i	$ra, %call36(_Znwm)
	jirl	$ra, $ra, 0
	move	$fp, $a0
.Ltmp18:                                # EH_LABEL
	pcaddu18i	$ra, %call36(_ZN23MyFixture_Foo_BenchmarkC2Ev)
	jirl	$ra, $ra, 0
.Ltmp19:                                # EH_LABEL
# %bb.1:                                # %__cxx_global_var_init.1.exit
	move	$a0, $fp
	pcaddu18i	$ra, %call36(_ZN9benchmark8internal25RegisterBenchmarkInternalEPNS0_9BenchmarkE)
	jirl	$ra, $ra, 0
	pcalau12i	$a1, %pc_hi20(_ZL39benchmark_uniq_2MyFixture_Foo_Benchmark)
	st.d	$a0, $a1, %pc_lo12(_ZL39benchmark_uniq_2MyFixture_Foo_Benchmark)
	ori	$a0, $zero, 232
	pcaddu18i	$ra, %call36(_Znwm)
	jirl	$ra, $ra, 0
	move	$fp, $a0
.Ltmp21:                                # EH_LABEL
	pcaddu18i	$ra, %call36(_ZN23MyFixture_Bar_BenchmarkC2Ev)
	jirl	$ra, $ra, 0
.Ltmp22:                                # EH_LABEL
# %bb.2:                                # %__cxx_global_var_init.4.exit
	move	$a0, $fp
	pcaddu18i	$ra, %call36(_ZN9benchmark8internal25RegisterBenchmarkInternalEPNS0_9BenchmarkE)
	jirl	$ra, $ra, 0
	ori	$a1, $zero, 42
	pcaddu18i	$ra, %call36(_ZN9benchmark8internal9Benchmark3ArgEl)
	jirl	$ra, $ra, 0
	pcalau12i	$a1, %pc_hi20(_ZL39benchmark_uniq_3MyFixture_Bar_Benchmark)
	st.d	$a0, $a1, %pc_lo12(_ZL39benchmark_uniq_3MyFixture_Bar_Benchmark)
	ori	$a0, $zero, 232
	pcaddu18i	$ra, %call36(_Znwm)
	jirl	$ra, $ra, 0
	move	$fp, $a0
.Ltmp24:                                # EH_LABEL
	pcaddu18i	$ra, %call36(_ZN23MyFixture_Bar_BenchmarkC2Ev)
	jirl	$ra, $ra, 0
.Ltmp25:                                # EH_LABEL
# %bb.3:                                # %__cxx_global_var_init.5.exit
	move	$a0, $fp
	pcaddu18i	$ra, %call36(_ZN9benchmark8internal25RegisterBenchmarkInternalEPNS0_9BenchmarkE)
	jirl	$ra, $ra, 0
	ori	$a1, $zero, 42
	pcaddu18i	$ra, %call36(_ZN9benchmark8internal9Benchmark3ArgEl)
	jirl	$ra, $ra, 0
	pcaddu18i	$ra, %call36(_ZN9benchmark8internal9Benchmark12ThreadPerCpuEv)
	jirl	$ra, $ra, 0
	pcalau12i	$a1, %pc_hi20(_ZL39benchmark_uniq_4MyFixture_Bar_Benchmark)
	st.d	$a0, $a1, %pc_lo12(_ZL39benchmark_uniq_4MyFixture_Bar_Benchmark)
	ld.d	$s0, $sp, 8                     # 8-byte Folded Reload
	ld.d	$fp, $sp, 16                    # 8-byte Folded Reload
	ld.d	$ra, $sp, 24                    # 8-byte Folded Reload
	addi.d	$sp, $sp, 32
	ret
.LBB19_4:                               # %lpad.i6
.Ltmp26:                                # EH_LABEL
	b	.LBB19_7
.LBB19_5:                               # %lpad.i3
.Ltmp23:                                # EH_LABEL
	b	.LBB19_7
.LBB19_6:                               # %lpad.i
.Ltmp20:                                # EH_LABEL
.LBB19_7:                               # %common.resume
	move	$s0, $a0
	ori	$a1, $zero, 232
	move	$a0, $fp
	pcaddu18i	$ra, %call36(_ZdlPvm)
	jirl	$ra, $ra, 0
	move	$a0, $s0
	pcaddu18i	$ra, %call36(_Unwind_Resume)
	jirl	$ra, $ra, 0
.Lfunc_end19:
	.size	_GLOBAL__sub_I_fixture_test.cc, .Lfunc_end19-_GLOBAL__sub_I_fixture_test.cc
	.cfi_endproc
	.section	.gcc_except_table,"a",@progbits
	.p2align	2, 0x0
GCC_except_table19:
.Lexception4:
	.byte	255                             # @LPStart Encoding = omit
	.byte	255                             # @TType Encoding = omit
	.byte	1                               # Call site Encoding = uleb128
	.uleb128 .Lcst_end4-.Lcst_begin4
.Lcst_begin4:
	.uleb128 .Lfunc_begin4-.Lfunc_begin4    # >> Call Site 1 <<
	.uleb128 .Ltmp18-.Lfunc_begin4          #   Call between .Lfunc_begin4 and .Ltmp18
	.byte	0                               #     has no landing pad
	.byte	0                               #   On action: cleanup
	.uleb128 .Ltmp18-.Lfunc_begin4          # >> Call Site 2 <<
	.uleb128 .Ltmp19-.Ltmp18                #   Call between .Ltmp18 and .Ltmp19
	.uleb128 .Ltmp20-.Lfunc_begin4          #     jumps to .Ltmp20
	.byte	0                               #   On action: cleanup
	.uleb128 .Ltmp19-.Lfunc_begin4          # >> Call Site 3 <<
	.uleb128 .Ltmp21-.Ltmp19                #   Call between .Ltmp19 and .Ltmp21
	.byte	0                               #     has no landing pad
	.byte	0                               #   On action: cleanup
	.uleb128 .Ltmp21-.Lfunc_begin4          # >> Call Site 4 <<
	.uleb128 .Ltmp22-.Ltmp21                #   Call between .Ltmp21 and .Ltmp22
	.uleb128 .Ltmp23-.Lfunc_begin4          #     jumps to .Ltmp23
	.byte	0                               #   On action: cleanup
	.uleb128 .Ltmp22-.Lfunc_begin4          # >> Call Site 5 <<
	.uleb128 .Ltmp24-.Ltmp22                #   Call between .Ltmp22 and .Ltmp24
	.byte	0                               #     has no landing pad
	.byte	0                               #   On action: cleanup
	.uleb128 .Ltmp24-.Lfunc_begin4          # >> Call Site 6 <<
	.uleb128 .Ltmp25-.Ltmp24                #   Call between .Ltmp24 and .Ltmp25
	.uleb128 .Ltmp26-.Lfunc_begin4          #     jumps to .Ltmp26
	.byte	0                               #   On action: cleanup
	.uleb128 .Ltmp25-.Lfunc_begin4          # >> Call Site 7 <<
	.uleb128 .Lfunc_end19-.Ltmp25           #   Call between .Ltmp25 and .Lfunc_end19
	.byte	0                               #     has no landing pad
	.byte	0                               #   On action: cleanup
.Lcst_end4:
	.p2align	2, 0x0
                                        # -- End function
	.type	_ZL39benchmark_uniq_2MyFixture_Foo_Benchmark,@object # @_ZL39benchmark_uniq_2MyFixture_Foo_Benchmark
	.local	_ZL39benchmark_uniq_2MyFixture_Foo_Benchmark
	.comm	_ZL39benchmark_uniq_2MyFixture_Foo_Benchmark,8,8
	.type	.L.str,@object                  # @.str
	.section	.rodata.str1.1,"aMS",@progbits,1
.L.str:
	.asciz	"data.get() != nullptr"
	.size	.L.str, 22

	.type	.L.str.2,@object                # @.str.2
.L.str.2:
	.asciz	"/home/zhaoqi/llvm-test-suite/MicroBenchmarks/libs/benchmark/test/fixture_test.cc"
	.size	.L.str.2, 81

	.type	.L__PRETTY_FUNCTION__._ZN23MyFixture_Foo_Benchmark13BenchmarkCaseERN9benchmark5StateE,@object # @__PRETTY_FUNCTION__._ZN23MyFixture_Foo_Benchmark13BenchmarkCaseERN9benchmark5StateE
.L__PRETTY_FUNCTION__._ZN23MyFixture_Foo_Benchmark13BenchmarkCaseERN9benchmark5StateE:
	.asciz	"virtual void MyFixture_Foo_Benchmark::BenchmarkCase(benchmark::State &)"
	.size	.L__PRETTY_FUNCTION__._ZN23MyFixture_Foo_Benchmark13BenchmarkCaseERN9benchmark5StateE, 72

	.type	.L.str.3,@object                # @.str.3
.L.str.3:
	.asciz	"*data == 42"
	.size	.L.str.3, 12

	.type	.L__PRETTY_FUNCTION__._ZN23MyFixture_Bar_Benchmark13BenchmarkCaseERN9benchmark5StateE,@object # @__PRETTY_FUNCTION__._ZN23MyFixture_Bar_Benchmark13BenchmarkCaseERN9benchmark5StateE
.L__PRETTY_FUNCTION__._ZN23MyFixture_Bar_Benchmark13BenchmarkCaseERN9benchmark5StateE:
	.asciz	"virtual void MyFixture_Bar_Benchmark::BenchmarkCase(benchmark::State &)"
	.size	.L__PRETTY_FUNCTION__._ZN23MyFixture_Bar_Benchmark13BenchmarkCaseERN9benchmark5StateE, 72

	.type	_ZL39benchmark_uniq_3MyFixture_Bar_Benchmark,@object # @_ZL39benchmark_uniq_3MyFixture_Bar_Benchmark
	.local	_ZL39benchmark_uniq_3MyFixture_Bar_Benchmark
	.comm	_ZL39benchmark_uniq_3MyFixture_Bar_Benchmark,8,8
	.type	_ZL39benchmark_uniq_4MyFixture_Bar_Benchmark,@object # @_ZL39benchmark_uniq_4MyFixture_Bar_Benchmark
	.local	_ZL39benchmark_uniq_4MyFixture_Bar_Benchmark
	.comm	_ZL39benchmark_uniq_4MyFixture_Bar_Benchmark,8,8
	.type	.L__const.main.arg0_default,@object # @__const.main.arg0_default
	.section	.rodata.str1.8,"aMS",@progbits,1
	.p2align	3, 0x0
.L__const.main.arg0_default:
	.asciz	"benchmark"
	.size	.L__const.main.arg0_default, 10

	.hidden	_ZTV23MyFixture_Foo_Benchmark   # @_ZTV23MyFixture_Foo_Benchmark
	.type	_ZTV23MyFixture_Foo_Benchmark,@object
	.section	.data.rel.ro,"aw",@progbits
	.globl	_ZTV23MyFixture_Foo_Benchmark
	.p2align	3, 0x0
_ZTV23MyFixture_Foo_Benchmark:
	.dword	0
	.dword	_ZTI23MyFixture_Foo_Benchmark
	.dword	_ZN9MyFixtureD2Ev
	.dword	_ZN23MyFixture_Foo_BenchmarkD0Ev
	.dword	_ZN9benchmark7Fixture3RunERNS_5StateE
	.dword	_ZN9MyFixture5SetUpERKN9benchmark5StateE
	.dword	_ZN9MyFixture8TearDownERKN9benchmark5StateE
	.dword	_ZN9benchmark7Fixture5SetUpERNS_5StateE
	.dword	_ZN9benchmark7Fixture8TearDownERNS_5StateE
	.dword	_ZN23MyFixture_Foo_Benchmark13BenchmarkCaseERN9benchmark5StateE
	.size	_ZTV23MyFixture_Foo_Benchmark, 80

	.hidden	_ZTI23MyFixture_Foo_Benchmark   # @_ZTI23MyFixture_Foo_Benchmark
	.type	_ZTI23MyFixture_Foo_Benchmark,@object
	.globl	_ZTI23MyFixture_Foo_Benchmark
	.p2align	3, 0x0
_ZTI23MyFixture_Foo_Benchmark:
	.dword	_ZTVN10__cxxabiv120__si_class_type_infoE+16
	.dword	_ZTS23MyFixture_Foo_Benchmark
	.dword	_ZTI9MyFixture
	.size	_ZTI23MyFixture_Foo_Benchmark, 24

	.hidden	_ZTS23MyFixture_Foo_Benchmark   # @_ZTS23MyFixture_Foo_Benchmark
	.type	_ZTS23MyFixture_Foo_Benchmark,@object
	.section	.rodata,"a",@progbits
	.globl	_ZTS23MyFixture_Foo_Benchmark
_ZTS23MyFixture_Foo_Benchmark:
	.asciz	"23MyFixture_Foo_Benchmark"
	.size	_ZTS23MyFixture_Foo_Benchmark, 26

	.hidden	_ZTI9MyFixture                  # @_ZTI9MyFixture
	.type	_ZTI9MyFixture,@object
	.section	.data.rel.ro._ZTI9MyFixture,"awG",@progbits,_ZTI9MyFixture,comdat
	.weak	_ZTI9MyFixture
	.p2align	3, 0x0
_ZTI9MyFixture:
	.dword	_ZTVN10__cxxabiv120__si_class_type_infoE+16
	.dword	_ZTS9MyFixture
	.dword	_ZTIN9benchmark7FixtureE
	.size	_ZTI9MyFixture, 24

	.hidden	_ZTS9MyFixture                  # @_ZTS9MyFixture
	.type	_ZTS9MyFixture,@object
	.section	.rodata._ZTS9MyFixture,"aG",@progbits,_ZTS9MyFixture,comdat
	.weak	_ZTS9MyFixture
_ZTS9MyFixture:
	.asciz	"9MyFixture"
	.size	_ZTS9MyFixture, 11

	.hidden	_ZTIN9benchmark7FixtureE        # @_ZTIN9benchmark7FixtureE
	.type	_ZTIN9benchmark7FixtureE,@object
	.section	.data.rel.ro._ZTIN9benchmark7FixtureE,"awG",@progbits,_ZTIN9benchmark7FixtureE,comdat
	.weak	_ZTIN9benchmark7FixtureE
	.p2align	3, 0x0
_ZTIN9benchmark7FixtureE:
	.dword	_ZTVN10__cxxabiv120__si_class_type_infoE+16
	.dword	_ZTSN9benchmark7FixtureE
	.dword	_ZTIN9benchmark8internal9BenchmarkE
	.size	_ZTIN9benchmark7FixtureE, 24

	.hidden	_ZTSN9benchmark7FixtureE        # @_ZTSN9benchmark7FixtureE
	.type	_ZTSN9benchmark7FixtureE,@object
	.section	.rodata._ZTSN9benchmark7FixtureE,"aG",@progbits,_ZTSN9benchmark7FixtureE,comdat
	.weak	_ZTSN9benchmark7FixtureE
_ZTSN9benchmark7FixtureE:
	.asciz	"N9benchmark7FixtureE"
	.size	_ZTSN9benchmark7FixtureE, 21

	.hidden	_ZTV23MyFixture_Bar_Benchmark   # @_ZTV23MyFixture_Bar_Benchmark
	.type	_ZTV23MyFixture_Bar_Benchmark,@object
	.section	.data.rel.ro,"aw",@progbits
	.globl	_ZTV23MyFixture_Bar_Benchmark
	.p2align	3, 0x0
_ZTV23MyFixture_Bar_Benchmark:
	.dword	0
	.dword	_ZTI23MyFixture_Bar_Benchmark
	.dword	_ZN9MyFixtureD2Ev
	.dword	_ZN23MyFixture_Bar_BenchmarkD0Ev
	.dword	_ZN9benchmark7Fixture3RunERNS_5StateE
	.dword	_ZN9MyFixture5SetUpERKN9benchmark5StateE
	.dword	_ZN9MyFixture8TearDownERKN9benchmark5StateE
	.dword	_ZN9benchmark7Fixture5SetUpERNS_5StateE
	.dword	_ZN9benchmark7Fixture8TearDownERNS_5StateE
	.dword	_ZN23MyFixture_Bar_Benchmark13BenchmarkCaseERN9benchmark5StateE
	.size	_ZTV23MyFixture_Bar_Benchmark, 80

	.hidden	_ZTI23MyFixture_Bar_Benchmark   # @_ZTI23MyFixture_Bar_Benchmark
	.type	_ZTI23MyFixture_Bar_Benchmark,@object
	.globl	_ZTI23MyFixture_Bar_Benchmark
	.p2align	3, 0x0
_ZTI23MyFixture_Bar_Benchmark:
	.dword	_ZTVN10__cxxabiv120__si_class_type_infoE+16
	.dword	_ZTS23MyFixture_Bar_Benchmark
	.dword	_ZTI9MyFixture
	.size	_ZTI23MyFixture_Bar_Benchmark, 24

	.hidden	_ZTS23MyFixture_Bar_Benchmark   # @_ZTS23MyFixture_Bar_Benchmark
	.type	_ZTS23MyFixture_Bar_Benchmark,@object
	.section	.rodata,"a",@progbits
	.globl	_ZTS23MyFixture_Bar_Benchmark
_ZTS23MyFixture_Bar_Benchmark:
	.asciz	"23MyFixture_Bar_Benchmark"
	.size	_ZTS23MyFixture_Bar_Benchmark, 26

	.type	.L.str.6,@object                # @.str.6
	.section	.rodata.str1.8,"aMS",@progbits,1
	.p2align	3, 0x0
.L.str.6:
	.asciz	"MyFixture/Foo"
	.size	.L.str.6, 14

	.hidden	_ZTV9MyFixture                  # @_ZTV9MyFixture
	.type	_ZTV9MyFixture,@object
	.section	.data.rel.ro._ZTV9MyFixture,"awG",@progbits,_ZTV9MyFixture,comdat
	.weak	_ZTV9MyFixture
	.p2align	3, 0x0
_ZTV9MyFixture:
	.dword	0
	.dword	_ZTI9MyFixture
	.dword	_ZN9MyFixtureD2Ev
	.dword	_ZN9MyFixtureD0Ev
	.dword	_ZN9benchmark7Fixture3RunERNS_5StateE
	.dword	_ZN9MyFixture5SetUpERKN9benchmark5StateE
	.dword	_ZN9MyFixture8TearDownERKN9benchmark5StateE
	.dword	_ZN9benchmark7Fixture5SetUpERNS_5StateE
	.dword	_ZN9benchmark7Fixture8TearDownERNS_5StateE
	.dword	__cxa_pure_virtual
	.size	_ZTV9MyFixture, 80

	.type	.L.str.9,@object                # @.str.9
	.section	.rodata.str1.1,"aMS",@progbits,1
.L.str.9:
	.asciz	"data == nullptr"
	.size	.L.str.9, 16

	.type	.L__PRETTY_FUNCTION__._ZN9MyFixtureD2Ev,@object # @__PRETTY_FUNCTION__._ZN9MyFixtureD2Ev
.L__PRETTY_FUNCTION__._ZN9MyFixtureD2Ev:
	.asciz	"virtual MyFixture::~MyFixture()"
	.size	.L__PRETTY_FUNCTION__._ZN9MyFixtureD2Ev, 32

	.type	.L.str.10,@object               # @.str.10
.L.str.10:
	.asciz	"cached_ > 0"
	.size	.L.str.10, 12

	.type	.L.str.11,@object               # @.str.11
.L.str.11:
	.asciz	"/home/zhaoqi/llvm-test-suite/MicroBenchmarks/libs/benchmark/include/benchmark/benchmark.h"
	.size	.L.str.11, 90

	.type	.L__PRETTY_FUNCTION__._ZN9benchmark5State13StateIteratorppEv,@object # @__PRETTY_FUNCTION__._ZN9benchmark5State13StateIteratorppEv
.L__PRETTY_FUNCTION__._ZN9benchmark5State13StateIteratorppEv:
	.asciz	"StateIterator &benchmark::State::StateIterator::operator++()"
	.size	.L__PRETTY_FUNCTION__._ZN9benchmark5State13StateIteratorppEv, 61

	.type	.L.str.12,@object               # @.str.12
	.section	.rodata.str1.8,"aMS",@progbits,1
	.p2align	3, 0x0
.L.str.12:
	.asciz	"items_per_second"
	.size	.L.str.12, 17

	.type	_ZSt19piecewise_construct,@object # @_ZSt19piecewise_construct
	.section	.rodata._ZSt19piecewise_construct,"aG",@progbits,_ZSt19piecewise_construct,comdat
	.weak	_ZSt19piecewise_construct
_ZSt19piecewise_construct:
	.space	1
	.size	_ZSt19piecewise_construct, 1

	.type	.L.str.13,@object               # @.str.13
	.section	.rodata.str1.1,"aMS",@progbits,1
.L.str.13:
	.asciz	"range_.size() > pos"
	.size	.L.str.13, 20

	.type	.L__PRETTY_FUNCTION__._ZNK9benchmark5State5rangeEm,@object # @__PRETTY_FUNCTION__._ZNK9benchmark5State5rangeEm
.L__PRETTY_FUNCTION__._ZNK9benchmark5State5rangeEm:
	.asciz	"int64_t benchmark::State::range(std::size_t) const"
	.size	.L__PRETTY_FUNCTION__._ZNK9benchmark5State5rangeEm, 51

	.type	.L.str.14,@object               # @.str.14
	.section	.rodata.str1.8,"aMS",@progbits,1
	.p2align	3, 0x0
.L.str.14:
	.asciz	"MyFixture/Bar"
	.size	.L.str.14, 14

	.type	.L.str.15,@object               # @.str.15
	.section	.rodata.str1.1,"aMS",@progbits,1
.L.str.15:
	.asciz	"data.get() == nullptr"
	.size	.L.str.15, 22

	.type	.L__PRETTY_FUNCTION__._ZN9MyFixture5SetUpERKN9benchmark5StateE,@object # @__PRETTY_FUNCTION__._ZN9MyFixture5SetUpERKN9benchmark5StateE
.L__PRETTY_FUNCTION__._ZN9MyFixture5SetUpERKN9benchmark5StateE:
	.asciz	"virtual void MyFixture::SetUp(const ::benchmark::State &)"
	.size	.L__PRETTY_FUNCTION__._ZN9MyFixture5SetUpERKN9benchmark5StateE, 58

	.type	.L__PRETTY_FUNCTION__._ZN9MyFixture8TearDownERKN9benchmark5StateE,@object # @__PRETTY_FUNCTION__._ZN9MyFixture8TearDownERKN9benchmark5StateE
.L__PRETTY_FUNCTION__._ZN9MyFixture8TearDownERKN9benchmark5StateE:
	.asciz	"virtual void MyFixture::TearDown(const ::benchmark::State &)"
	.size	.L__PRETTY_FUNCTION__._ZN9MyFixture8TearDownERKN9benchmark5StateE, 61

	.section	.init_array,"aw",@init_array
	.p2align	3, 0x0
	.dword	_GLOBAL__sub_I_fixture_test.cc
	.hidden	DW.ref.__gxx_personality_v0
	.weak	DW.ref.__gxx_personality_v0
	.section	.data.DW.ref.__gxx_personality_v0,"awG",@progbits,DW.ref.__gxx_personality_v0,comdat
	.p2align	3, 0x0
	.type	DW.ref.__gxx_personality_v0,@object
	.size	DW.ref.__gxx_personality_v0, 8
DW.ref.__gxx_personality_v0:
	.dword	__gxx_personality_v0
	.section	".note.GNU-stack","",@progbits
	.addrsig
	.addrsig_sym __gxx_personality_v0
	.addrsig_sym _ZN9benchmark16PrintDefaultHelpEv
	.addrsig_sym _GLOBAL__sub_I_fixture_test.cc
	.addrsig_sym _Unwind_Resume
	.addrsig_sym _ZTI23MyFixture_Foo_Benchmark
	.addrsig_sym _ZTVN10__cxxabiv120__si_class_type_infoE
	.addrsig_sym _ZTS23MyFixture_Foo_Benchmark
	.addrsig_sym _ZTI9MyFixture
	.addrsig_sym _ZTS9MyFixture
	.addrsig_sym _ZTIN9benchmark7FixtureE
	.addrsig_sym _ZTSN9benchmark7FixtureE
	.addrsig_sym _ZTIN9benchmark8internal9BenchmarkE
	.addrsig_sym _ZTI23MyFixture_Bar_Benchmark
	.addrsig_sym _ZTS23MyFixture_Bar_Benchmark
	.addrsig_sym _ZSt19piecewise_construct
