	.file	"output_test_helper.cc"
                                        # Start of file scope inline assembly
	.globl	_ZSt21ios_base_library_initv

                                        # End of file scope inline assembly
	.text
	.hidden	_ZN8internal17GetResultsCheckerEv # -- Begin function _ZN8internal17GetResultsCheckerEv
	.globl	_ZN8internal17GetResultsCheckerEv
	.p2align	5
	.type	_ZN8internal17GetResultsCheckerEv,@function
_ZN8internal17GetResultsCheckerEv:      # @_ZN8internal17GetResultsCheckerEv
# %bb.0:                                # %entry
	pcalau12i	$a0, %pc_hi20(_ZGVZN8internal17GetResultsCheckerEvE2rc)
	ld.b	$a0, $a0, %pc_lo12(_ZGVZN8internal17GetResultsCheckerEvE2rc)
	dbar	20
	beqz	$a0, .LBB0_2
# %bb.1:                                # %init.end
	pcalau12i	$a0, %pc_hi20(_ZZN8internal17GetResultsCheckerEvE2rc)
	addi.d	$a0, $a0, %pc_lo12(_ZZN8internal17GetResultsCheckerEvE2rc)
	ret
.LBB0_2:                                # %init.check
	addi.d	$sp, $sp, -16
	st.d	$ra, $sp, 8                     # 8-byte Folded Spill
	st.d	$fp, $sp, 0                     # 8-byte Folded Spill
	pcalau12i	$a0, %pc_hi20(_ZGVZN8internal17GetResultsCheckerEvE2rc)
	addi.d	$a0, $a0, %pc_lo12(_ZGVZN8internal17GetResultsCheckerEvE2rc)
	pcaddu18i	$ra, %call36(__cxa_guard_acquire)
	jirl	$ra, $ra, 0
	addi.w	$a0, $a0, 0
	beqz	$a0, .LBB0_4
# %bb.3:                                # %init
	pcalau12i	$a0, %pc_hi20(_ZZN8internal17GetResultsCheckerEvE2rc)
	addi.d	$fp, $a0, %pc_lo12(_ZZN8internal17GetResultsCheckerEvE2rc)
	ori	$a2, $zero, 72
	move	$a0, $fp
	move	$a1, $zero
	pcaddu18i	$ra, %call36(memset)
	jirl	$ra, $ra, 0
	pcalau12i	$a0, %pc_hi20(_ZN8internal14ResultsCheckerD2Ev)
	addi.d	$a0, $a0, %pc_lo12(_ZN8internal14ResultsCheckerD2Ev)
	pcalau12i	$a1, %pc_hi20(__dso_handle)
	addi.d	$a2, $a1, %pc_lo12(__dso_handle)
	move	$a1, $fp
	pcaddu18i	$ra, %call36(__cxa_atexit)
	jirl	$ra, $ra, 0
	pcalau12i	$a0, %pc_hi20(_ZGVZN8internal17GetResultsCheckerEvE2rc)
	addi.d	$a0, $a0, %pc_lo12(_ZGVZN8internal17GetResultsCheckerEvE2rc)
	pcaddu18i	$ra, %call36(__cxa_guard_release)
	jirl	$ra, $ra, 0
.LBB0_4:
	ld.d	$fp, $sp, 0                     # 8-byte Folded Reload
	ld.d	$ra, $sp, 8                     # 8-byte Folded Reload
	addi.d	$sp, $sp, 16
	pcalau12i	$a0, %pc_hi20(_ZZN8internal17GetResultsCheckerEvE2rc)
	addi.d	$a0, $a0, %pc_lo12(_ZZN8internal17GetResultsCheckerEvE2rc)
	ret
.Lfunc_end0:
	.size	_ZN8internal17GetResultsCheckerEv, .Lfunc_end0-_ZN8internal17GetResultsCheckerEv
                                        # -- End function
	.section	.text._ZN8internal14ResultsCheckerD2Ev,"axG",@progbits,_ZN8internal14ResultsCheckerD2Ev,comdat
	.hidden	_ZN8internal14ResultsCheckerD2Ev # -- Begin function _ZN8internal14ResultsCheckerD2Ev
	.weak	_ZN8internal14ResultsCheckerD2Ev
	.p2align	2
	.type	_ZN8internal14ResultsCheckerD2Ev,@function
_ZN8internal14ResultsCheckerD2Ev:       # @_ZN8internal14ResultsCheckerD2Ev
.Lfunc_begin0:
	.cfi_startproc
	.cfi_personality 155, DW.ref.__gxx_personality_v0
	.cfi_lsda 27, .Lexception0
# %bb.0:                                # %entry
	addi.d	$sp, $sp, -32
	.cfi_def_cfa_offset 32
	st.d	$ra, $sp, 24                    # 8-byte Folded Spill
	st.d	$fp, $sp, 16                    # 8-byte Folded Spill
	st.d	$s0, $sp, 8                     # 8-byte Folded Spill
	st.d	$s1, $sp, 0                     # 8-byte Folded Spill
	.cfi_offset 1, -8
	.cfi_offset 22, -16
	.cfi_offset 23, -24
	.cfi_offset 24, -32
	move	$fp, $a0
	ld.d	$a0, $a0, 48
	ld.d	$s0, $fp, 56
	beq	$a0, $s0, .LBB1_6
# %bb.1:                                # %for.body.i.i.preheader
	addi.d	$s1, $a0, 16
	b	.LBB1_3
	.p2align	4, , 16
.LBB1_2:                                # %_ZSt8_DestroyINSt7__cxx1112basic_stringIcSt11char_traitsIcESaIcEEEEvPT_.exit.i.i
                                        #   in Loop: Header=BB1_3 Depth=1
	addi.d	$a0, $s1, 16
	addi.d	$s1, $s1, 32
	beq	$a0, $s0, .LBB1_5
.LBB1_3:                                # %for.body.i.i
                                        # =>This Inner Loop Header: Depth=1
	ld.d	$a0, $s1, -16
	beq	$s1, $a0, .LBB1_2
# %bb.4:                                # %if.then.i.i.i.i.i
                                        #   in Loop: Header=BB1_3 Depth=1
	ld.d	$a1, $s1, 0
	addi.d	$a1, $a1, 1
	pcaddu18i	$ra, %call36(_ZdlPvm)
	jirl	$ra, $ra, 0
	b	.LBB1_2
.LBB1_5:                                # %invoke.contthread-pre-split.i
	ld.d	$a0, $fp, 48
.LBB1_6:                                # %invoke.cont.i
	beqz	$a0, .LBB1_8
# %bb.7:                                # %if.then.i.i.i
	ld.d	$a1, $fp, 64
	sub.d	$a1, $a1, $a0
	pcaddu18i	$ra, %call36(_ZdlPvm)
	jirl	$ra, $ra, 0
.LBB1_8:                                # %_ZNSt6vectorINSt7__cxx1112basic_stringIcSt11char_traitsIcESaIcEEESaIS5_EED2Ev.exit
	ld.d	$s0, $fp, 24
	ld.d	$s1, $fp, 32
	bne	$s0, $s1, .LBB1_17
# %bb.9:                                # %invoke.cont.i9
	beqz	$s0, .LBB1_11
.LBB1_10:                               # %if.then.i.i.i11
	ld.d	$a0, $fp, 40
	sub.d	$a1, $a0, $s0
	move	$a0, $s0
	pcaddu18i	$ra, %call36(_ZdlPvm)
	jirl	$ra, $ra, 0
.LBB1_11:                               # %_ZNSt6vectorI7ResultsSaIS0_EED2Ev.exit
	ld.d	$s0, $fp, 0
	ld.d	$s1, $fp, 8
	beq	$s0, $s1, .LBB1_14
	.p2align	4, , 16
.LBB1_12:                               # %for.body.i.i18
                                        # =>This Inner Loop Header: Depth=1
	move	$a0, $s0
	pcaddu18i	$ra, %call36(_ZN8internal14ResultsChecker12PatternAndFnD2Ev)
	jirl	$ra, $ra, 0
	addi.d	$s0, $s0, 120
	bne	$s0, $s1, .LBB1_12
# %bb.13:                               # %invoke.contthread-pre-split.i22
	ld.d	$s0, $fp, 0
.LBB1_14:                               # %invoke.cont.i24
	beqz	$s0, .LBB1_21
# %bb.15:                               # %if.then.i.i.i26
	ld.d	$a0, $fp, 16
	sub.d	$a1, $a0, $s0
	move	$a0, $s0
	ld.d	$s1, $sp, 0                     # 8-byte Folded Reload
	ld.d	$s0, $sp, 8                     # 8-byte Folded Reload
	ld.d	$fp, $sp, 16                    # 8-byte Folded Reload
	ld.d	$ra, $sp, 24                    # 8-byte Folded Reload
	addi.d	$sp, $sp, 32
	pcaddu18i	$t8, %call36(_ZdlPvm)
	jr	$t8
	.p2align	4, , 16
.LBB1_16:                               # %_ZSt8_DestroyI7ResultsEvPT_.exit.i.i
                                        #   in Loop: Header=BB1_17 Depth=1
	addi.d	$s0, $s0, 80
	beq	$s0, $s1, .LBB1_20
.LBB1_17:                               # %for.body.i.i3
                                        # =>This Inner Loop Header: Depth=1
	ld.d	$a1, $s0, 48
	addi.d	$a0, $s0, 32
.Ltmp0:                                 # EH_LABEL
	pcaddu18i	$ra, %call36(_ZNSt8_Rb_treeINSt7__cxx1112basic_stringIcSt11char_traitsIcESaIcEEESt4pairIKS5_S5_ESt10_Select1stIS8_ESt4lessIS5_ESaIS8_EE8_M_eraseEPSt13_Rb_tree_nodeIS8_E)
	jirl	$ra, $ra, 0
.Ltmp1:                                 # EH_LABEL
# %bb.18:                               # %_ZNSt3mapINSt7__cxx1112basic_stringIcSt11char_traitsIcESaIcEEES5_St4lessIS5_ESaISt4pairIKS5_S5_EEED2Ev.exit.i.i.i.i
                                        #   in Loop: Header=BB1_17 Depth=1
	ld.d	$a0, $s0, 0
	addi.d	$a1, $s0, 16
	beq	$a1, $a0, .LBB1_16
# %bb.19:                               # %if.then.i.i.i.i.i.i
                                        #   in Loop: Header=BB1_17 Depth=1
	ld.d	$a1, $a1, 0
	addi.d	$a1, $a1, 1
	pcaddu18i	$ra, %call36(_ZdlPvm)
	jirl	$ra, $ra, 0
	b	.LBB1_16
.LBB1_20:                               # %invoke.contthread-pre-split.i7
	ld.d	$s0, $fp, 24
	bnez	$s0, .LBB1_10
	b	.LBB1_11
.LBB1_21:                               # %_ZNSt6vectorIN8internal14ResultsChecker12PatternAndFnESaIS2_EED2Ev.exit
	ld.d	$s1, $sp, 0                     # 8-byte Folded Reload
	ld.d	$s0, $sp, 8                     # 8-byte Folded Reload
	ld.d	$fp, $sp, 16                    # 8-byte Folded Reload
	ld.d	$ra, $sp, 24                    # 8-byte Folded Reload
	addi.d	$sp, $sp, 32
	ret
.LBB1_22:                               # %terminate.lpad.i.i.i.i.i.i
.Ltmp2:                                 # EH_LABEL
	pcaddu18i	$ra, %call36(__clang_call_terminate)
	jirl	$ra, $ra, 0
.Lfunc_end1:
	.size	_ZN8internal14ResultsCheckerD2Ev, .Lfunc_end1-_ZN8internal14ResultsCheckerD2Ev
	.cfi_endproc
	.section	.gcc_except_table._ZN8internal14ResultsCheckerD2Ev,"aG",@progbits,_ZN8internal14ResultsCheckerD2Ev,comdat
	.p2align	2, 0x0
GCC_except_table1:
.Lexception0:
	.byte	255                             # @LPStart Encoding = omit
	.byte	155                             # @TType Encoding = indirect pcrel sdata4
	.uleb128 .Lttbase0-.Lttbaseref0
.Lttbaseref0:
	.byte	1                               # Call site Encoding = uleb128
	.uleb128 .Lcst_end0-.Lcst_begin0
.Lcst_begin0:
	.uleb128 .Lfunc_begin0-.Lfunc_begin0    # >> Call Site 1 <<
	.uleb128 .Ltmp0-.Lfunc_begin0           #   Call between .Lfunc_begin0 and .Ltmp0
	.byte	0                               #     has no landing pad
	.byte	0                               #   On action: cleanup
	.uleb128 .Ltmp0-.Lfunc_begin0           # >> Call Site 2 <<
	.uleb128 .Ltmp1-.Ltmp0                  #   Call between .Ltmp0 and .Ltmp1
	.uleb128 .Ltmp2-.Lfunc_begin0           #     jumps to .Ltmp2
	.byte	1                               #   On action: 1
	.uleb128 .Ltmp1-.Lfunc_begin0           # >> Call Site 3 <<
	.uleb128 .Lfunc_end1-.Ltmp1             #   Call between .Ltmp1 and .Lfunc_end1
	.byte	0                               #     has no landing pad
	.byte	0                               #   On action: cleanup
.Lcst_end0:
	.byte	1                               # >> Action Record 1 <<
                                        #   Catch TypeInfo 1
	.byte	0                               #   No further actions
	.p2align	2, 0x0
                                        # >> Catch TypeInfos <<
	.word	0                               # TypeInfo 1
.Lttbase0:
	.p2align	2, 0x0
                                        # -- End function
	.text
	.hidden	_ZN8internal14ResultsChecker3AddERKNSt7__cxx1112basic_stringIcSt11char_traitsIcESaIcEEERKSt8functionIFvRK7ResultsEE # -- Begin function _ZN8internal14ResultsChecker3AddERKNSt7__cxx1112basic_stringIcSt11char_traitsIcESaIcEEERKSt8functionIFvRK7ResultsEE
	.globl	_ZN8internal14ResultsChecker3AddERKNSt7__cxx1112basic_stringIcSt11char_traitsIcESaIcEEERKSt8functionIFvRK7ResultsEE
	.p2align	2
	.type	_ZN8internal14ResultsChecker3AddERKNSt7__cxx1112basic_stringIcSt11char_traitsIcESaIcEEERKSt8functionIFvRK7ResultsEE,@function
_ZN8internal14ResultsChecker3AddERKNSt7__cxx1112basic_stringIcSt11char_traitsIcESaIcEEERKSt8functionIFvRK7ResultsEE: # @_ZN8internal14ResultsChecker3AddERKNSt7__cxx1112basic_stringIcSt11char_traitsIcESaIcEEERKSt8functionIFvRK7ResultsEE
	.cfi_startproc
# %bb.0:                                # %entry
	pcaddu18i	$t8, %call36(_ZNSt6vectorIN8internal14ResultsChecker12PatternAndFnESaIS2_EE12emplace_backIJRKNSt7__cxx1112basic_stringIcSt11char_traitsIcESaIcEEERKSt8functionIFvRK7ResultsEEEEERS2_DpOT_)
	jr	$t8
.Lfunc_end2:
	.size	_ZN8internal14ResultsChecker3AddERKNSt7__cxx1112basic_stringIcSt11char_traitsIcESaIcEEERKSt8functionIFvRK7ResultsEE, .Lfunc_end2-_ZN8internal14ResultsChecker3AddERKNSt7__cxx1112basic_stringIcSt11char_traitsIcESaIcEEERKSt8functionIFvRK7ResultsEE
	.cfi_endproc
                                        # -- End function
	.section	.text._ZNSt6vectorIN8internal14ResultsChecker12PatternAndFnESaIS2_EE12emplace_backIJRKNSt7__cxx1112basic_stringIcSt11char_traitsIcESaIcEEERKSt8functionIFvRK7ResultsEEEEERS2_DpOT_,"axG",@progbits,_ZNSt6vectorIN8internal14ResultsChecker12PatternAndFnESaIS2_EE12emplace_backIJRKNSt7__cxx1112basic_stringIcSt11char_traitsIcESaIcEEERKSt8functionIFvRK7ResultsEEEEERS2_DpOT_,comdat
	.hidden	_ZNSt6vectorIN8internal14ResultsChecker12PatternAndFnESaIS2_EE12emplace_backIJRKNSt7__cxx1112basic_stringIcSt11char_traitsIcESaIcEEERKSt8functionIFvRK7ResultsEEEEERS2_DpOT_ # -- Begin function _ZNSt6vectorIN8internal14ResultsChecker12PatternAndFnESaIS2_EE12emplace_backIJRKNSt7__cxx1112basic_stringIcSt11char_traitsIcESaIcEEERKSt8functionIFvRK7ResultsEEEEERS2_DpOT_
	.weak	_ZNSt6vectorIN8internal14ResultsChecker12PatternAndFnESaIS2_EE12emplace_backIJRKNSt7__cxx1112basic_stringIcSt11char_traitsIcESaIcEEERKSt8functionIFvRK7ResultsEEEEERS2_DpOT_
	.p2align	2
	.type	_ZNSt6vectorIN8internal14ResultsChecker12PatternAndFnESaIS2_EE12emplace_backIJRKNSt7__cxx1112basic_stringIcSt11char_traitsIcESaIcEEERKSt8functionIFvRK7ResultsEEEEERS2_DpOT_,@function
_ZNSt6vectorIN8internal14ResultsChecker12PatternAndFnESaIS2_EE12emplace_backIJRKNSt7__cxx1112basic_stringIcSt11char_traitsIcESaIcEEERKSt8functionIFvRK7ResultsEEEEERS2_DpOT_: # @_ZNSt6vectorIN8internal14ResultsChecker12PatternAndFnESaIS2_EE12emplace_backIJRKNSt7__cxx1112basic_stringIcSt11char_traitsIcESaIcEEERKSt8functionIFvRK7ResultsEEEEERS2_DpOT_
.Lfunc_begin1:
	.cfi_startproc
	.cfi_personality 155, DW.ref.__gxx_personality_v0
	.cfi_lsda 27, .Lexception1
# %bb.0:                                # %entry
	addi.d	$sp, $sp, -80
	.cfi_def_cfa_offset 80
	st.d	$ra, $sp, 72                    # 8-byte Folded Spill
	st.d	$fp, $sp, 64                    # 8-byte Folded Spill
	st.d	$s0, $sp, 56                    # 8-byte Folded Spill
	st.d	$s1, $sp, 48                    # 8-byte Folded Spill
	st.d	$s2, $sp, 40                    # 8-byte Folded Spill
	.cfi_offset 1, -8
	.cfi_offset 22, -16
	.cfi_offset 23, -24
	.cfi_offset 24, -32
	.cfi_offset 25, -40
	move	$fp, $a0
	ld.d	$s1, $a0, 8
	ld.d	$a0, $a0, 16
	move	$s2, $a2
	move	$s0, $a1
	beq	$s1, $a0, .LBB3_8
# %bb.1:                                # %if.then
	ld.d	$a3, $s2, 16
	xvrepli.b	$xr0, 0
	xvst	$xr0, $sp, 8
	beqz	$a3, .LBB3_4
# %bb.2:                                # %if.then.i
.Ltmp3:                                 # EH_LABEL
	addi.d	$a0, $sp, 8
	ori	$a2, $zero, 2
	move	$a1, $s2
	jirl	$ra, $a3, 0
.Ltmp4:                                 # EH_LABEL
# %bb.3:                                # %invoke.cont.i
	vld	$vr0, $s2, 16
	vst	$vr0, $sp, 24
.LBB3_4:                                # %_ZNSt8functionIFvRK7ResultsEEC2ERKS4_.exit
.Ltmp9:                                 # EH_LABEL
	addi.d	$a2, $sp, 8
	move	$a0, $s1
	move	$a1, $s0
	pcaddu18i	$ra, %call36(_ZN8internal14ResultsChecker12PatternAndFnC2ERKNSt7__cxx1112basic_stringIcSt11char_traitsIcESaIcEEESt8functionIFvRK7ResultsEE)
	jirl	$ra, $ra, 0
.Ltmp10:                                # EH_LABEL
# %bb.5:                                # %_ZNSt15__new_allocatorIN8internal14ResultsChecker12PatternAndFnEE9constructIS2_JRKNSt7__cxx1112basic_stringIcSt11char_traitsIcESaIcEEERKSt8functionIFvRK7ResultsEEEEEvPT_DpOT0_.exit
	ld.d	$a3, $sp, 24
	beqz	$a3, .LBB3_7
# %bb.6:                                # %if.then.i7
.Ltmp15:                                # EH_LABEL
	addi.d	$a0, $sp, 8
	addi.d	$a1, $sp, 8
	ori	$a2, $zero, 3
	jirl	$ra, $a3, 0
.Ltmp16:                                # EH_LABEL
.LBB3_7:                                # %_ZNSt14_Function_baseD2Ev.exit10
	ld.d	$a0, $fp, 8
	addi.d	$a0, $a0, 120
	st.d	$a0, $fp, 8
	b	.LBB3_9
.LBB3_8:                                # %if.else
	move	$a0, $fp
	move	$a1, $s0
	move	$a2, $s2
	pcaddu18i	$ra, %call36(_ZNSt6vectorIN8internal14ResultsChecker12PatternAndFnESaIS2_EE17_M_realloc_appendIJRKNSt7__cxx1112basic_stringIcSt11char_traitsIcESaIcEEERKSt8functionIFvRK7ResultsEEEEEvDpOT_)
	jirl	$ra, $ra, 0
	ld.d	$a0, $fp, 8
.LBB3_9:                                # %if.end
	addi.d	$a0, $a0, -120
	ld.d	$s2, $sp, 40                    # 8-byte Folded Reload
	ld.d	$s1, $sp, 48                    # 8-byte Folded Reload
	ld.d	$s0, $sp, 56                    # 8-byte Folded Reload
	ld.d	$fp, $sp, 64                    # 8-byte Folded Reload
	ld.d	$ra, $sp, 72                    # 8-byte Folded Reload
	addi.d	$sp, $sp, 80
	ret
.LBB3_10:                               # %terminate.lpad.i9
.Ltmp17:                                # EH_LABEL
	pcaddu18i	$ra, %call36(__clang_call_terminate)
	jirl	$ra, $ra, 0
.LBB3_11:                               # %lpad.i3
.Ltmp5:                                 # EH_LABEL
	ld.d	$a3, $sp, 24
	move	$fp, $a0
	beqz	$a3, .LBB3_16
# %bb.12:                               # %if.then.i.i
.Ltmp6:                                 # EH_LABEL
	addi.d	$a0, $sp, 8
	addi.d	$a1, $sp, 8
	ori	$a2, $zero, 3
	jirl	$ra, $a3, 0
.Ltmp7:                                 # EH_LABEL
	b	.LBB3_16
.LBB3_13:                               # %terminate.lpad.i.i
.Ltmp8:                                 # EH_LABEL
	pcaddu18i	$ra, %call36(__clang_call_terminate)
	jirl	$ra, $ra, 0
.LBB3_14:                               # %lpad.i
.Ltmp11:                                # EH_LABEL
	ld.d	$a3, $sp, 24
	move	$fp, $a0
	beqz	$a3, .LBB3_16
# %bb.15:                               # %if.then.i4
.Ltmp12:                                # EH_LABEL
	addi.d	$a0, $sp, 8
	addi.d	$a1, $sp, 8
	ori	$a2, $zero, 3
	jirl	$ra, $a3, 0
.Ltmp13:                                # EH_LABEL
.LBB3_16:                               # %common.resume
	move	$a0, $fp
	pcaddu18i	$ra, %call36(_Unwind_Resume)
	jirl	$ra, $ra, 0
.LBB3_17:                               # %terminate.lpad.i
.Ltmp14:                                # EH_LABEL
	pcaddu18i	$ra, %call36(__clang_call_terminate)
	jirl	$ra, $ra, 0
.Lfunc_end3:
	.size	_ZNSt6vectorIN8internal14ResultsChecker12PatternAndFnESaIS2_EE12emplace_backIJRKNSt7__cxx1112basic_stringIcSt11char_traitsIcESaIcEEERKSt8functionIFvRK7ResultsEEEEERS2_DpOT_, .Lfunc_end3-_ZNSt6vectorIN8internal14ResultsChecker12PatternAndFnESaIS2_EE12emplace_backIJRKNSt7__cxx1112basic_stringIcSt11char_traitsIcESaIcEEERKSt8functionIFvRK7ResultsEEEEERS2_DpOT_
	.cfi_endproc
	.section	.gcc_except_table._ZNSt6vectorIN8internal14ResultsChecker12PatternAndFnESaIS2_EE12emplace_backIJRKNSt7__cxx1112basic_stringIcSt11char_traitsIcESaIcEEERKSt8functionIFvRK7ResultsEEEEERS2_DpOT_,"aG",@progbits,_ZNSt6vectorIN8internal14ResultsChecker12PatternAndFnESaIS2_EE12emplace_backIJRKNSt7__cxx1112basic_stringIcSt11char_traitsIcESaIcEEERKSt8functionIFvRK7ResultsEEEEERS2_DpOT_,comdat
	.p2align	2, 0x0
GCC_except_table3:
.Lexception1:
	.byte	255                             # @LPStart Encoding = omit
	.byte	155                             # @TType Encoding = indirect pcrel sdata4
	.uleb128 .Lttbase1-.Lttbaseref1
.Lttbaseref1:
	.byte	1                               # Call site Encoding = uleb128
	.uleb128 .Lcst_end1-.Lcst_begin1
.Lcst_begin1:
	.uleb128 .Ltmp3-.Lfunc_begin1           # >> Call Site 1 <<
	.uleb128 .Ltmp4-.Ltmp3                  #   Call between .Ltmp3 and .Ltmp4
	.uleb128 .Ltmp5-.Lfunc_begin1           #     jumps to .Ltmp5
	.byte	0                               #   On action: cleanup
	.uleb128 .Ltmp9-.Lfunc_begin1           # >> Call Site 2 <<
	.uleb128 .Ltmp10-.Ltmp9                 #   Call between .Ltmp9 and .Ltmp10
	.uleb128 .Ltmp11-.Lfunc_begin1          #     jumps to .Ltmp11
	.byte	0                               #   On action: cleanup
	.uleb128 .Ltmp15-.Lfunc_begin1          # >> Call Site 3 <<
	.uleb128 .Ltmp16-.Ltmp15                #   Call between .Ltmp15 and .Ltmp16
	.uleb128 .Ltmp17-.Lfunc_begin1          #     jumps to .Ltmp17
	.byte	1                               #   On action: 1
	.uleb128 .Ltmp16-.Lfunc_begin1          # >> Call Site 4 <<
	.uleb128 .Ltmp6-.Ltmp16                 #   Call between .Ltmp16 and .Ltmp6
	.byte	0                               #     has no landing pad
	.byte	0                               #   On action: cleanup
	.uleb128 .Ltmp6-.Lfunc_begin1           # >> Call Site 5 <<
	.uleb128 .Ltmp7-.Ltmp6                  #   Call between .Ltmp6 and .Ltmp7
	.uleb128 .Ltmp8-.Lfunc_begin1           #     jumps to .Ltmp8
	.byte	1                               #   On action: 1
	.uleb128 .Ltmp7-.Lfunc_begin1           # >> Call Site 6 <<
	.uleb128 .Ltmp12-.Ltmp7                 #   Call between .Ltmp7 and .Ltmp12
	.byte	0                               #     has no landing pad
	.byte	0                               #   On action: cleanup
	.uleb128 .Ltmp12-.Lfunc_begin1          # >> Call Site 7 <<
	.uleb128 .Ltmp13-.Ltmp12                #   Call between .Ltmp12 and .Ltmp13
	.uleb128 .Ltmp14-.Lfunc_begin1          #     jumps to .Ltmp14
	.byte	1                               #   On action: 1
	.uleb128 .Ltmp13-.Lfunc_begin1          # >> Call Site 8 <<
	.uleb128 .Lfunc_end3-.Ltmp13            #   Call between .Ltmp13 and .Lfunc_end3
	.byte	0                               #     has no landing pad
	.byte	0                               #   On action: cleanup
.Lcst_end1:
	.byte	1                               # >> Action Record 1 <<
                                        #   Catch TypeInfo 1
	.byte	0                               #   No further actions
	.p2align	2, 0x0
                                        # >> Catch TypeInfos <<
	.word	0                               # TypeInfo 1
.Lttbase1:
	.p2align	2, 0x0
                                        # -- End function
	.text
	.hidden	_ZN8internal14ResultsChecker12CheckResultsERNSt7__cxx1118basic_stringstreamIcSt11char_traitsIcESaIcEEE # -- Begin function _ZN8internal14ResultsChecker12CheckResultsERNSt7__cxx1118basic_stringstreamIcSt11char_traitsIcESaIcEEE
	.globl	_ZN8internal14ResultsChecker12CheckResultsERNSt7__cxx1118basic_stringstreamIcSt11char_traitsIcESaIcEEE
	.p2align	2
	.type	_ZN8internal14ResultsChecker12CheckResultsERNSt7__cxx1118basic_stringstreamIcSt11char_traitsIcESaIcEEE,@function
_ZN8internal14ResultsChecker12CheckResultsERNSt7__cxx1118basic_stringstreamIcSt11char_traitsIcESaIcEEE: # @_ZN8internal14ResultsChecker12CheckResultsERNSt7__cxx1118basic_stringstreamIcSt11char_traitsIcESaIcEEE
.Lfunc_begin2:
	.cfi_startproc
	.cfi_personality 155, DW.ref.__gxx_personality_v0
	.cfi_lsda 27, .Lexception2
# %bb.0:                                # %entry
	addi.d	$sp, $sp, -272
	.cfi_def_cfa_offset 272
	st.d	$ra, $sp, 264                   # 8-byte Folded Spill
	st.d	$fp, $sp, 256                   # 8-byte Folded Spill
	st.d	$s0, $sp, 248                   # 8-byte Folded Spill
	st.d	$s1, $sp, 240                   # 8-byte Folded Spill
	st.d	$s2, $sp, 232                   # 8-byte Folded Spill
	st.d	$s3, $sp, 224                   # 8-byte Folded Spill
	st.d	$s4, $sp, 216                   # 8-byte Folded Spill
	st.d	$s5, $sp, 208                   # 8-byte Folded Spill
	st.d	$s6, $sp, 200                   # 8-byte Folded Spill
	st.d	$s7, $sp, 192                   # 8-byte Folded Spill
	st.d	$s8, $sp, 184                   # 8-byte Folded Spill
	.cfi_offset 1, -8
	.cfi_offset 22, -16
	.cfi_offset 23, -24
	.cfi_offset 24, -32
	.cfi_offset 25, -40
	.cfi_offset 26, -48
	.cfi_offset 27, -56
	.cfi_offset 28, -64
	.cfi_offset 29, -72
	.cfi_offset 30, -80
	.cfi_offset 31, -88
	move	$s0, $a1
	ld.d	$a1, $a1, 0
	ld.d	$a1, $a1, -24
	st.d	$a0, $sp, 48                    # 8-byte Folded Spill
	add.d	$a0, $s0, $a1
	move	$a1, $zero
	pcaddu18i	$ra, %call36(_ZNSt9basic_iosIcSt11char_traitsIcEE5clearESt12_Ios_Iostate)
	jirl	$ra, $ra, 0
	move	$a0, $s0
	pcaddu18i	$ra, %call36(_ZNSi5tellgEv)
	jirl	$ra, $ra, 0
	ori	$a1, $zero, 1
	blt	$a0, $a1, .LBB4_2
# %bb.1:                                # %if.then
	move	$a0, $s0
	move	$a1, $zero
	move	$a2, $zero
	pcaddu18i	$ra, %call36(_ZNSi5seekgESt4fposI11__mbstate_tE)
	jirl	$ra, $ra, 0
.LBB4_2:                                # %if.end
	ld.d	$a0, $s0, 0
	ld.d	$a0, $a0, -24
	add.d	$a0, $s0, $a0
	move	$a1, $zero
	pcaddu18i	$ra, %call36(_ZNSt9basic_iosIcSt11char_traitsIcEE5clearESt12_Ios_Iostate)
	jirl	$ra, $ra, 0
	addi.d	$a1, $sp, 136
	ld.d	$a0, $s0, 0
	st.d	$a1, $sp, 120
	st.d	$zero, $sp, 128
	st.b	$zero, $sp, 136
	ld.d	$a0, $a0, -24
	add.d	$a0, $s0, $a0
	ld.wu	$a0, $a0, 32
	andi	$a1, $a0, 2
	bnez	$a1, .LBB4_26
# %bb.3:                                # %while.body.preheader
	bnez	$a0, .LBB4_164
# %bb.4:                                # %cond.true.peel
	pcalau12i	$a0, %pc_hi20(_ZGVZN9benchmark8internal18GetNullLogInstanceEvE8null_log)
	addi.d	$s1, $a0, %pc_lo12(_ZGVZN9benchmark8internal18GetNullLogInstanceEvE8null_log)
	ld.b	$a0, $s1, 0
	dbar	20
	beqz	$a0, .LBB4_169
.LBB4_5:                                # %cleanup.done37.peel
	ld.d	$a0, $s0, 0
	ld.d	$a0, $a0, -24
	add.d	$a0, $s0, $a0
	ld.d	$s2, $a0, 240
	beqz	$s2, .LBB4_167
# %bb.6:                                # %_ZSt13__check_facetISt5ctypeIcEERKT_PS3_.exit.i.i.peel
	ld.bu	$a0, $s2, 56
	beqz	$a0, .LBB4_8
# %bb.7:                                # %if.then.i2.i.i.peel
	ld.bu	$a0, $s2, 67
	b	.LBB4_10
.LBB4_8:                                # %if.end.i.i.i.peel
.Ltmp18:                                # EH_LABEL
	move	$a0, $s2
	pcaddu18i	$ra, %call36(_ZNKSt5ctypeIcE13_M_widen_initEv)
	jirl	$ra, $ra, 0
.Ltmp19:                                # EH_LABEL
# %bb.9:                                # %.noexc29.peel
	ld.d	$a0, $s2, 0
	ld.d	$a2, $a0, 48
.Ltmp20:                                # EH_LABEL
	ori	$a1, $zero, 10
	move	$a0, $s2
	jirl	$ra, $a2, 0
.Ltmp21:                                # EH_LABEL
.LBB4_10:                               # %_ZNKSt9basic_iosIcSt11char_traitsIcEE5widenEc.exit.i.peel
.Ltmp22:                                # EH_LABEL
	ext.w.b	$a2, $a0
	addi.d	$a1, $sp, 120
	move	$a0, $s0
	pcaddu18i	$ra, %call36(_ZSt7getlineIcSt11char_traitsIcESaIcEERSt13basic_istreamIT_T0_ES7_RNSt7__cxx1112basic_stringIS4_S5_T1_EES4_)
	jirl	$ra, $ra, 0
.Ltmp23:                                # EH_LABEL
# %bb.11:                               # %if.then43.peel
.Ltmp24:                                # EH_LABEL
	addi.d	$a1, $sp, 120
	ld.d	$a0, $sp, 48                    # 8-byte Folded Reload
	pcaddu18i	$ra, %call36(_ZN8internal14ResultsChecker10SetHeader_ERKNSt7__cxx1112basic_stringIcSt11char_traitsIcESaIcEEE)
	jirl	$ra, $ra, 0
.Ltmp25:                                # EH_LABEL
# %bb.12:                               # %while.cond.backedge.peel
	ld.d	$a0, $s0, 0
	ld.d	$a0, $a0, -24
	add.d	$a0, $s0, $a0
	ld.w	$a0, $a0, 32
	andi	$a1, $a0, 2
	bnez	$a1, .LBB4_26
# %bb.13:                               # %while.body.preheader532
	pcalau12i	$fp, %pc_hi20(_ZZN9benchmark8internal18GetNullLogInstanceEvE8null_log)
	.p2align	4, , 16
.LBB4_14:                               # %while.body
                                        # =>This Inner Loop Header: Depth=1
	bnez	$a0, .LBB4_164
# %bb.15:                               # %cond.true
                                        #   in Loop: Header=BB4_14 Depth=1
	ld.b	$a0, $s1, 0
	dbar	20
	beqz	$a0, .LBB4_24
.LBB4_16:                               # %cleanup.done37
                                        #   in Loop: Header=BB4_14 Depth=1
	ld.d	$a0, $s0, 0
	ld.d	$a0, $a0, -24
	add.d	$a0, $s0, $a0
	ld.d	$s2, $a0, 240
	beqz	$s2, .LBB4_167
# %bb.17:                               # %_ZSt13__check_facetISt5ctypeIcEERKT_PS3_.exit.i.i
                                        #   in Loop: Header=BB4_14 Depth=1
	ld.bu	$a0, $s2, 56
	beqz	$a0, .LBB4_19
# %bb.18:                               # %if.then.i2.i.i
                                        #   in Loop: Header=BB4_14 Depth=1
	ld.bu	$a0, $s2, 67
	b	.LBB4_21
	.p2align	4, , 16
.LBB4_19:                               # %if.end.i.i.i
                                        #   in Loop: Header=BB4_14 Depth=1
.Ltmp32:                                # EH_LABEL
	move	$a0, $s2
	pcaddu18i	$ra, %call36(_ZNKSt5ctypeIcE13_M_widen_initEv)
	jirl	$ra, $ra, 0
.Ltmp33:                                # EH_LABEL
# %bb.20:                               # %.noexc29
                                        #   in Loop: Header=BB4_14 Depth=1
	ld.d	$a0, $s2, 0
	ld.d	$a2, $a0, 48
.Ltmp34:                                # EH_LABEL
	ori	$a1, $zero, 10
	move	$a0, $s2
	jirl	$ra, $a2, 0
.Ltmp35:                                # EH_LABEL
.LBB4_21:                               # %_ZNKSt9basic_iosIcSt11char_traitsIcEE5widenEc.exit.i
                                        #   in Loop: Header=BB4_14 Depth=1
.Ltmp36:                                # EH_LABEL
	ext.w.b	$a2, $a0
	addi.d	$a1, $sp, 120
	move	$a0, $s0
	pcaddu18i	$ra, %call36(_ZSt7getlineIcSt11char_traitsIcESaIcEERSt13basic_istreamIT_T0_ES7_RNSt7__cxx1112basic_stringIS4_S5_T1_EES4_)
	jirl	$ra, $ra, 0
.Ltmp37:                                # EH_LABEL
# %bb.22:                               # %if.end45
                                        #   in Loop: Header=BB4_14 Depth=1
.Ltmp38:                                # EH_LABEL
	addi.d	$a1, $sp, 120
	ld.d	$a0, $sp, 48                    # 8-byte Folded Reload
	pcaddu18i	$ra, %call36(_ZN8internal14ResultsChecker10SetValues_ERKNSt7__cxx1112basic_stringIcSt11char_traitsIcESaIcEEE)
	jirl	$ra, $ra, 0
.Ltmp39:                                # EH_LABEL
# %bb.23:                               # %while.cond.backedge
                                        #   in Loop: Header=BB4_14 Depth=1
	ld.d	$a0, $s0, 0
	ld.d	$a0, $a0, -24
	add.d	$a0, $s0, $a0
	ld.w	$a0, $a0, 32
	andi	$a1, $a0, 2
	beqz	$a1, .LBB4_14
	b	.LBB4_26
.LBB4_24:                               # %init.check.i
                                        #   in Loop: Header=BB4_14 Depth=1
	move	$a0, $s1
	pcaddu18i	$ra, %call36(__cxa_guard_acquire)
	jirl	$ra, $ra, 0
	addi.w	$a0, $a0, 0
	beqz	$a0, .LBB4_16
# %bb.25:                               # %init.i
                                        #   in Loop: Header=BB4_14 Depth=1
	st.d	$zero, $fp, %pc_lo12(_ZZN9benchmark8internal18GetNullLogInstanceEvE8null_log)
	move	$a0, $s1
	pcaddu18i	$ra, %call36(__cxa_guard_release)
	jirl	$ra, $ra, 0
	b	.LBB4_16
.LBB4_26:                               # %while.end
	ld.d	$a0, $sp, 48                    # 8-byte Folded Reload
	ld.d	$s8, $a0, 0
	ld.d	$a0, $a0, 8
	st.d	$a0, $sp, 32                    # 8-byte Folded Spill
	beq	$s8, $a0, .LBB4_159
# %bb.27:
	pcalau12i	$s3, %pc_hi20(_ZZN9benchmark8internal8LogLevelEvE9log_level)
	ori	$s4, $zero, 2
	pcalau12i	$a0, %pc_hi20(_ZGVZN9benchmark8internal18GetNullLogInstanceEvE8null_log)
	addi.d	$a0, $a0, %pc_lo12(_ZGVZN9benchmark8internal18GetNullLogInstanceEvE8null_log)
	st.d	$a0, $sp, 72                    # 8-byte Folded Spill
	pcalau12i	$a0, %pc_hi20(_ZZN9benchmark8internal18GetNullLogInstanceEvE8null_log)
	addi.d	$a0, $a0, %pc_lo12(_ZZN9benchmark8internal18GetNullLogInstanceEvE8null_log)
	st.d	$a0, $sp, 64                    # 8-byte Folded Spill
	ori	$fp, $zero, 1
	xvrepli.b	$xr0, 0
	xvst	$xr0, $sp, 80                   # 32-byte Folded Spill
	pcalau12i	$a0, %pc_hi20(.L.str.2)
	addi.d	$a0, $a0, %pc_lo12(.L.str.2)
	st.d	$a0, $sp, 56                    # 8-byte Folded Spill
	pcalau12i	$a0, %pc_hi20(.L.str.3)
	addi.d	$a0, $a0, %pc_lo12(.L.str.3)
	st.d	$a0, $sp, 40                    # 8-byte Folded Spill
	pcalau12i	$a0, %pc_hi20(.L.str.10)
	addi.d	$a0, $a0, %pc_lo12(.L.str.10)
	st.d	$a0, $sp, 24                    # 8-byte Folded Spill
	pcalau12i	$a0, %pc_hi20(.L.str.12)
	addi.d	$a0, $a0, %pc_lo12(.L.str.12)
	st.d	$a0, $sp, 16                    # 8-byte Folded Spill
	pcalau12i	$s1, %pc_hi20(_ZGVZN9benchmark8internal19GetErrorLogInstanceEvE9error_log)
	b	.LBB4_29
	.p2align	4, , 16
.LBB4_28:                               # %for.cond.cleanup92
                                        #   in Loop: Header=BB4_29 Depth=1
	addi.d	$s8, $s8, 120
	ld.d	$a0, $sp, 32                    # 8-byte Folded Reload
	beq	$s8, $a0, .LBB4_159
.LBB4_29:                               # %for.body
                                        # =>This Loop Header: Depth=1
                                        #     Child Loop BB4_62 Depth 2
	ld.w	$a0, $s3, %pc_lo12(_ZZN9benchmark8internal8LogLevelEvE9log_level)
	bge	$a0, $s4, .LBB4_33
# %bb.30:                               # %if.end.i
                                        #   in Loop: Header=BB4_29 Depth=1
	ld.d	$a0, $sp, 72                    # 8-byte Folded Reload
	ld.b	$a0, $a0, 0
	dbar	20
	ld.d	$s0, $sp, 64                    # 8-byte Folded Reload
	bnez	$a0, .LBB4_34
# %bb.31:                               # %init.check.i2.i
                                        #   in Loop: Header=BB4_29 Depth=1
	ld.d	$a0, $sp, 72                    # 8-byte Folded Reload
	pcaddu18i	$ra, %call36(__cxa_guard_acquire)
	jirl	$ra, $ra, 0
	addi.w	$a0, $a0, 0
	ld.d	$s0, $sp, 64                    # 8-byte Folded Reload
	beqz	$a0, .LBB4_34
# %bb.32:                               # %init.i4.i
                                        #   in Loop: Header=BB4_29 Depth=1
	ld.d	$s0, $sp, 64                    # 8-byte Folded Reload
	st.d	$zero, $s0, 0
	ld.d	$s5, $sp, 72                    # 8-byte Folded Reload
	b	.LBB4_155
	.p2align	4, , 16
.LBB4_33:                               # %if.then.i
                                        #   in Loop: Header=BB4_29 Depth=1
	ld.b	$a0, $s1, %pc_lo12(_ZGVZN9benchmark8internal19GetErrorLogInstanceEvE9error_log)
	pcalau12i	$a1, %pc_hi20(_ZZN9benchmark8internal19GetErrorLogInstanceEvE9error_log)
	addi.d	$s0, $a1, %pc_lo12(_ZZN9benchmark8internal19GetErrorLogInstanceEvE9error_log)
	dbar	20
	beqz	$a0, .LBB4_153
.LBB4_34:                               # %invoke.cont54
                                        #   in Loop: Header=BB4_29 Depth=1
	ld.d	$a0, $s0, 0
	beqz	$a0, .LBB4_42
# %bb.35:                               # %if.then.i35
                                        #   in Loop: Header=BB4_29 Depth=1
.Ltmp41:                                # EH_LABEL
	pcalau12i	$a1, %pc_hi20(.L.str.2)
	addi.d	$a1, $a1, %pc_lo12(.L.str.2)
	ori	$a2, $zero, 7
	pcaddu18i	$ra, %call36(_ZSt16__ostream_insertIcSt11char_traitsIcEERSt13basic_ostreamIT_T0_ES6_PKS3_l)
	jirl	$ra, $ra, 0
.Ltmp42:                                # EH_LABEL
# %bb.36:                               # %invoke.cont56
                                        #   in Loop: Header=BB4_29 Depth=1
	ld.d	$a0, $s0, 0
	beqz	$a0, .LBB4_42
# %bb.37:                               # %if.then.i39
                                        #   in Loop: Header=BB4_29 Depth=1
.Ltmp43:                                # EH_LABEL
	ori	$a1, $zero, 2
	pcaddu18i	$ra, %call36(_ZNSolsEi)
	jirl	$ra, $ra, 0
.Ltmp44:                                # EH_LABEL
# %bb.38:                               # %invoke.cont60
                                        #   in Loop: Header=BB4_29 Depth=1
	ld.d	$a0, $s0, 0
	beqz	$a0, .LBB4_42
# %bb.39:                               # %if.then.i43
                                        #   in Loop: Header=BB4_29 Depth=1
.Ltmp45:                                # EH_LABEL
	pcalau12i	$a1, %pc_hi20(.L.str.3)
	addi.d	$a1, $a1, %pc_lo12(.L.str.3)
	ori	$a2, $zero, 3
	pcaddu18i	$ra, %call36(_ZSt16__ostream_insertIcSt11char_traitsIcEERSt13basic_ostreamIT_T0_ES6_PKS3_l)
	jirl	$ra, $ra, 0
.Ltmp46:                                # EH_LABEL
# %bb.40:                               # %invoke.cont62
                                        #   in Loop: Header=BB4_29 Depth=1
	ld.d	$a0, $s0, 0
	beqz	$a0, .LBB4_42
# %bb.41:                               # %if.then.i49
                                        #   in Loop: Header=BB4_29 Depth=1
.Ltmp47:                                # EH_LABEL
	pcalau12i	$a1, %pc_hi20(.L.str.4)
	addi.d	$a1, $a1, %pc_lo12(.L.str.4)
	ori	$a2, $zero, 33
	pcaddu18i	$ra, %call36(_ZSt16__ostream_insertIcSt11char_traitsIcEERSt13basic_ostreamIT_T0_ES6_PKS3_l)
	jirl	$ra, $ra, 0
.Ltmp48:                                # EH_LABEL
	.p2align	4, , 16
.LBB4_42:                               # %invoke.cont64
                                        #   in Loop: Header=BB4_29 Depth=1
	ld.w	$a0, $s3, %pc_lo12(_ZZN9benchmark8internal8LogLevelEvE9log_level)
	bge	$a0, $s4, .LBB4_46
# %bb.43:                               # %if.end.i64
                                        #   in Loop: Header=BB4_29 Depth=1
	ld.d	$a0, $sp, 72                    # 8-byte Folded Reload
	ld.b	$a0, $a0, 0
	dbar	20
	ld.d	$s0, $sp, 64                    # 8-byte Folded Reload
	bnez	$a0, .LBB4_47
# %bb.44:                               # %init.check.i2.i66
                                        #   in Loop: Header=BB4_29 Depth=1
	ld.d	$a0, $sp, 72                    # 8-byte Folded Reload
	pcaddu18i	$ra, %call36(__cxa_guard_acquire)
	jirl	$ra, $ra, 0
	addi.w	$a0, $a0, 0
	ld.d	$s0, $sp, 64                    # 8-byte Folded Reload
	beqz	$a0, .LBB4_47
# %bb.45:                               # %init.i4.i68
                                        #   in Loop: Header=BB4_29 Depth=1
	ld.d	$s0, $sp, 64                    # 8-byte Folded Reload
	st.d	$zero, $s0, 0
	ld.d	$s5, $sp, 72                    # 8-byte Folded Reload
	b	.LBB4_158
	.p2align	4, , 16
.LBB4_46:                               # %if.then.i55
                                        #   in Loop: Header=BB4_29 Depth=1
	ld.b	$a0, $s1, %pc_lo12(_ZGVZN9benchmark8internal19GetErrorLogInstanceEvE9error_log)
	dbar	20
	pcalau12i	$a1, %pc_hi20(_ZZN9benchmark8internal19GetErrorLogInstanceEvE9error_log)
	addi.d	$s0, $a1, %pc_lo12(_ZZN9benchmark8internal19GetErrorLogInstanceEvE9error_log)
	beqz	$a0, .LBB4_156
.LBB4_47:                               # %invoke.cont67
                                        #   in Loop: Header=BB4_29 Depth=1
	ld.d	$a0, $s0, 0
	beqz	$a0, .LBB4_59
# %bb.48:                               # %if.then.i71
                                        #   in Loop: Header=BB4_29 Depth=1
.Ltmp50:                                # EH_LABEL
	pcalau12i	$a1, %pc_hi20(.L.str.2)
	addi.d	$a1, $a1, %pc_lo12(.L.str.2)
	ori	$a2, $zero, 7
	pcaddu18i	$ra, %call36(_ZSt16__ostream_insertIcSt11char_traitsIcEERSt13basic_ostreamIT_T0_ES6_PKS3_l)
	jirl	$ra, $ra, 0
.Ltmp51:                                # EH_LABEL
# %bb.49:                               # %invoke.cont69
                                        #   in Loop: Header=BB4_29 Depth=1
	ld.d	$a0, $s0, 0
	beqz	$a0, .LBB4_59
# %bb.50:                               # %if.then.i78
                                        #   in Loop: Header=BB4_29 Depth=1
.Ltmp53:                                # EH_LABEL
	ori	$a1, $zero, 2
	pcaddu18i	$ra, %call36(_ZNSolsEi)
	jirl	$ra, $ra, 0
.Ltmp54:                                # EH_LABEL
# %bb.51:                               # %invoke.cont73
                                        #   in Loop: Header=BB4_29 Depth=1
	ld.d	$a0, $s0, 0
	beqz	$a0, .LBB4_59
# %bb.52:                               # %if.then.i84
                                        #   in Loop: Header=BB4_29 Depth=1
.Ltmp55:                                # EH_LABEL
	pcalau12i	$a1, %pc_hi20(.L.str.3)
	addi.d	$a1, $a1, %pc_lo12(.L.str.3)
	ori	$a2, $zero, 3
	pcaddu18i	$ra, %call36(_ZSt16__ostream_insertIcSt11char_traitsIcEERSt13basic_ostreamIT_T0_ES6_PKS3_l)
	jirl	$ra, $ra, 0
.Ltmp56:                                # EH_LABEL
# %bb.53:                               # %invoke.cont75
                                        #   in Loop: Header=BB4_29 Depth=1
	ld.d	$a0, $s0, 0
	beqz	$a0, .LBB4_59
# %bb.54:                               # %if.then.i91
                                        #   in Loop: Header=BB4_29 Depth=1
.Ltmp57:                                # EH_LABEL
	pcalau12i	$a1, %pc_hi20(.L.str.5)
	addi.d	$a1, $a1, %pc_lo12(.L.str.5)
	ori	$a2, $zero, 33
	pcaddu18i	$ra, %call36(_ZSt16__ostream_insertIcSt11char_traitsIcEERSt13basic_ostreamIT_T0_ES6_PKS3_l)
	jirl	$ra, $ra, 0
.Ltmp58:                                # EH_LABEL
# %bb.55:                               # %invoke.cont77
                                        #   in Loop: Header=BB4_29 Depth=1
	ld.d	$a0, $s0, 0
	beqz	$a0, .LBB4_59
# %bb.56:                               # %if.then.i98
                                        #   in Loop: Header=BB4_29 Depth=1
	ld.d	$a1, $s8, 0
	ld.d	$a2, $s8, 8
.Ltmp59:                                # EH_LABEL
	pcaddu18i	$ra, %call36(_ZSt16__ostream_insertIcSt11char_traitsIcEERSt13basic_ostreamIT_T0_ES6_PKS3_l)
	jirl	$ra, $ra, 0
.Ltmp60:                                # EH_LABEL
# %bb.57:                               # %invoke.cont79
                                        #   in Loop: Header=BB4_29 Depth=1
	ld.d	$a0, $s0, 0
	beqz	$a0, .LBB4_59
# %bb.58:                               # %if.then.i104
                                        #   in Loop: Header=BB4_29 Depth=1
.Ltmp61:                                # EH_LABEL
	pcalau12i	$a1, %pc_hi20(.L.str.6)
	addi.d	$a1, $a1, %pc_lo12(.L.str.6)
	ori	$a2, $zero, 4
	pcaddu18i	$ra, %call36(_ZSt16__ostream_insertIcSt11char_traitsIcEERSt13basic_ostreamIT_T0_ES6_PKS3_l)
	jirl	$ra, $ra, 0
.Ltmp62:                                # EH_LABEL
	.p2align	4, , 16
.LBB4_59:                               # %invoke.cont81
                                        #   in Loop: Header=BB4_29 Depth=1
	ld.d	$a0, $sp, 48                    # 8-byte Folded Reload
	ld.d	$s5, $a0, 24
	ld.d	$s0, $a0, 32
	beq	$s5, $s0, .LBB4_28
# %bb.60:                               # %for.body93.lr.ph
                                        #   in Loop: Header=BB4_29 Depth=1
	addi.d	$s6, $s8, 88
	b	.LBB4_62
	.p2align	4, , 16
.LBB4_61:                               # %cleanup
                                        #   in Loop: Header=BB4_62 Depth=2
	addi.d	$s5, $s5, 80
	beq	$s5, $s0, .LBB4_28
.LBB4_62:                               # %for.body93
                                        #   Parent Loop BB4_29 Depth=1
                                        # =>  This Inner Loop Header: Depth=2
	ld.d	$a1, $s8, 72
	ld.bu	$a0, $a1, 0
	bne	$a0, $fp, .LBB4_71
# %bb.63:                               # %if.end.i113
                                        #   in Loop: Header=BB4_62 Depth=2
	ld.d	$a0, $s5, 0
	ld.d	$a2, $s5, 8
	addi.d	$a3, $a1, 8
	add.d	$a1, $a0, $a2
	xvld	$xr0, $sp, 80                   # 32-byte Folded Reload
	xvst	$xr0, $sp, 152
.Ltmp64:                                # EH_LABEL
	addi.d	$a2, $sp, 152
	move	$a4, $zero
	move	$a5, $zero
	move	$a6, $zero
	pcaddu18i	$ra, %call36(_ZNSt8__detail17__regex_algo_implIN9__gnu_cxx17__normal_iteratorIPKcNSt7__cxx1112basic_stringIcSt11char_traitsIcESaIcEEEEESaINS5_9sub_matchISB_EEEcNS5_12regex_traitsIcEEEEbT_SH_RNS5_13match_resultsISH_T0_EERKNS5_11basic_regexIT1_T2_EENSt15regex_constants15match_flag_typeENS_20_RegexExecutorPolicyEb)
	jirl	$ra, $ra, 0
.Ltmp65:                                # EH_LABEL
# %bb.64:                               # %invoke.cont.i.i.i
                                        #   in Loop: Header=BB4_62 Depth=2
	move	$s7, $a0
	ld.d	$a0, $sp, 152
	beqz	$a0, .LBB4_66
# %bb.65:                               # %if.then.i.i.i.i.i.i
                                        #   in Loop: Header=BB4_62 Depth=2
	ld.d	$a1, $sp, 168
	sub.d	$a1, $a1, $a0
	pcaddu18i	$ra, %call36(_ZdlPvm)
	jirl	$ra, $ra, 0
.LBB4_66:                               # %invoke.cont97
                                        #   in Loop: Header=BB4_62 Depth=2
	beqz	$s7, .LBB4_71
# %bb.67:                               # %if.end121
                                        #   in Loop: Header=BB4_62 Depth=2
	ld.w	$a0, $s3, %pc_lo12(_ZZN9benchmark8internal8LogLevelEvE9log_level)
	bge	$a0, $s4, .LBB4_90
# %bb.68:                               # %if.end.i188
                                        #   in Loop: Header=BB4_62 Depth=2
	ld.d	$a0, $sp, 72                    # 8-byte Folded Reload
	ld.b	$a0, $a0, 0
	dbar	20
	ld.d	$s2, $sp, 64                    # 8-byte Folded Reload
	bnez	$a0, .LBB4_91
# %bb.69:                               # %init.check.i2.i190
                                        #   in Loop: Header=BB4_62 Depth=2
	ld.d	$a0, $sp, 72                    # 8-byte Folded Reload
	pcaddu18i	$ra, %call36(__cxa_guard_acquire)
	jirl	$ra, $ra, 0
	addi.w	$a0, $a0, 0
	ld.d	$s2, $sp, 64                    # 8-byte Folded Reload
	beqz	$a0, .LBB4_91
# %bb.70:                               # %init.i4.i192
                                        #   in Loop: Header=BB4_62 Depth=2
	ld.d	$s2, $sp, 64                    # 8-byte Folded Reload
	st.d	$zero, $s2, 0
	ld.d	$s7, $sp, 72                    # 8-byte Folded Reload
	b	.LBB4_146
	.p2align	4, , 16
.LBB4_71:                               # %if.then99
                                        #   in Loop: Header=BB4_62 Depth=2
	ld.w	$a0, $s3, %pc_lo12(_ZZN9benchmark8internal8LogLevelEvE9log_level)
	bge	$a0, $s4, .LBB4_75
# %bb.72:                               # %if.end.i124
                                        #   in Loop: Header=BB4_62 Depth=2
	pcalau12i	$a0, %pc_hi20(_ZGVZN9benchmark8internal18GetNullLogInstanceEvE8null_log)
	ld.b	$a0, $a0, %pc_lo12(_ZGVZN9benchmark8internal18GetNullLogInstanceEvE8null_log)
	dbar	20
	pcalau12i	$a1, %pc_hi20(_ZZN9benchmark8internal18GetNullLogInstanceEvE8null_log)
	addi.d	$s7, $a1, %pc_lo12(_ZZN9benchmark8internal18GetNullLogInstanceEvE8null_log)
	bnez	$a0, .LBB4_76
# %bb.73:                               # %init.check.i2.i126
                                        #   in Loop: Header=BB4_62 Depth=2
	pcalau12i	$a0, %pc_hi20(_ZGVZN9benchmark8internal18GetNullLogInstanceEvE8null_log)
	addi.d	$s2, $a0, %pc_lo12(_ZGVZN9benchmark8internal18GetNullLogInstanceEvE8null_log)
	move	$a0, $s2
	pcaddu18i	$ra, %call36(__cxa_guard_acquire)
	jirl	$ra, $ra, 0
	addi.w	$a0, $a0, 0
	beqz	$a0, .LBB4_76
# %bb.74:                               # %init.i4.i128
                                        #   in Loop: Header=BB4_62 Depth=2
	pcalau12i	$a0, %pc_hi20(_ZZN9benchmark8internal18GetNullLogInstanceEvE8null_log)
	addi.d	$s7, $a0, %pc_lo12(_ZZN9benchmark8internal18GetNullLogInstanceEvE8null_log)
	st.d	$zero, $s7, 0
	b	.LBB4_143
	.p2align	4, , 16
.LBB4_75:                               # %if.then.i115
                                        #   in Loop: Header=BB4_62 Depth=2
	ld.b	$a0, $s1, %pc_lo12(_ZGVZN9benchmark8internal19GetErrorLogInstanceEvE9error_log)
	dbar	20
	pcalau12i	$a1, %pc_hi20(_ZZN9benchmark8internal19GetErrorLogInstanceEvE9error_log)
	addi.d	$s7, $a1, %pc_lo12(_ZZN9benchmark8internal19GetErrorLogInstanceEvE9error_log)
	beqz	$a0, .LBB4_141
.LBB4_76:                               # %invoke.cont100
                                        #   in Loop: Header=BB4_62 Depth=2
	ld.d	$a0, $s7, 0
	beqz	$a0, .LBB4_61
# %bb.77:                               # %if.then.i131
                                        #   in Loop: Header=BB4_62 Depth=2
.Ltmp67:                                # EH_LABEL
	pcalau12i	$a1, %pc_hi20(.L.str.2)
	addi.d	$a1, $a1, %pc_lo12(.L.str.2)
	ori	$a2, $zero, 7
	pcaddu18i	$ra, %call36(_ZSt16__ostream_insertIcSt11char_traitsIcEERSt13basic_ostreamIT_T0_ES6_PKS3_l)
	jirl	$ra, $ra, 0
.Ltmp68:                                # EH_LABEL
# %bb.78:                               # %invoke.cont102
                                        #   in Loop: Header=BB4_62 Depth=2
	ld.d	$a0, $s7, 0
	beqz	$a0, .LBB4_61
# %bb.79:                               # %if.then.i138
                                        #   in Loop: Header=BB4_62 Depth=2
.Ltmp69:                                # EH_LABEL
	ori	$a1, $zero, 2
	pcaddu18i	$ra, %call36(_ZNSolsEi)
	jirl	$ra, $ra, 0
.Ltmp70:                                # EH_LABEL
# %bb.80:                               # %invoke.cont106
                                        #   in Loop: Header=BB4_62 Depth=2
	ld.d	$a0, $s7, 0
	beqz	$a0, .LBB4_61
# %bb.81:                               # %if.then.i144
                                        #   in Loop: Header=BB4_62 Depth=2
.Ltmp71:                                # EH_LABEL
	pcalau12i	$a1, %pc_hi20(.L.str.3)
	addi.d	$a1, $a1, %pc_lo12(.L.str.3)
	ori	$a2, $zero, 3
	pcaddu18i	$ra, %call36(_ZSt16__ostream_insertIcSt11char_traitsIcEERSt13basic_ostreamIT_T0_ES6_PKS3_l)
	jirl	$ra, $ra, 0
.Ltmp72:                                # EH_LABEL
# %bb.82:                               # %invoke.cont108
                                        #   in Loop: Header=BB4_62 Depth=2
	ld.d	$a0, $s7, 0
	beqz	$a0, .LBB4_61
# %bb.83:                               # %if.then.i151
                                        #   in Loop: Header=BB4_62 Depth=2
	ld.d	$a1, $s8, 0
	ld.d	$a2, $s8, 8
.Ltmp73:                                # EH_LABEL
	pcaddu18i	$ra, %call36(_ZSt16__ostream_insertIcSt11char_traitsIcEERSt13basic_ostreamIT_T0_ES6_PKS3_l)
	jirl	$ra, $ra, 0
.Ltmp74:                                # EH_LABEL
# %bb.84:                               # %invoke.cont111
                                        #   in Loop: Header=BB4_62 Depth=2
	ld.d	$a0, $s7, 0
	beqz	$a0, .LBB4_61
# %bb.85:                               # %if.then.i159
                                        #   in Loop: Header=BB4_62 Depth=2
.Ltmp75:                                # EH_LABEL
	pcalau12i	$a1, %pc_hi20(.L.str.7)
	addi.d	$a1, $a1, %pc_lo12(.L.str.7)
	ori	$a2, $zero, 19
	pcaddu18i	$ra, %call36(_ZSt16__ostream_insertIcSt11char_traitsIcEERSt13basic_ostreamIT_T0_ES6_PKS3_l)
	jirl	$ra, $ra, 0
.Ltmp76:                                # EH_LABEL
# %bb.86:                               # %invoke.cont113
                                        #   in Loop: Header=BB4_62 Depth=2
	ld.d	$a0, $s7, 0
	beqz	$a0, .LBB4_61
# %bb.87:                               # %if.then.i165
                                        #   in Loop: Header=BB4_62 Depth=2
	ld.d	$a1, $s5, 0
	ld.d	$a2, $s5, 8
.Ltmp77:                                # EH_LABEL
	pcaddu18i	$ra, %call36(_ZSt16__ostream_insertIcSt11char_traitsIcEERSt13basic_ostreamIT_T0_ES6_PKS3_l)
	jirl	$ra, $ra, 0
.Ltmp78:                                # EH_LABEL
# %bb.88:                               # %invoke.cont116
                                        #   in Loop: Header=BB4_62 Depth=2
	ld.d	$a0, $s7, 0
	beqz	$a0, .LBB4_61
# %bb.89:                               # %if.then.i173
                                        #   in Loop: Header=BB4_62 Depth=2
.Ltmp79:                                # EH_LABEL
	pcalau12i	$a1, %pc_hi20(.L.str.8)
	addi.d	$a1, $a1, %pc_lo12(.L.str.8)
	ori	$a2, $zero, 1
	pcaddu18i	$ra, %call36(_ZSt16__ostream_insertIcSt11char_traitsIcEERSt13basic_ostreamIT_T0_ES6_PKS3_l)
	jirl	$ra, $ra, 0
.Ltmp80:                                # EH_LABEL
	b	.LBB4_61
.LBB4_90:                               # %if.then.i179
                                        #   in Loop: Header=BB4_62 Depth=2
	ld.b	$a0, $s1, %pc_lo12(_ZGVZN9benchmark8internal19GetErrorLogInstanceEvE9error_log)
	dbar	20
	pcalau12i	$a1, %pc_hi20(_ZZN9benchmark8internal19GetErrorLogInstanceEvE9error_log)
	addi.d	$s2, $a1, %pc_lo12(_ZZN9benchmark8internal19GetErrorLogInstanceEvE9error_log)
	beqz	$a0, .LBB4_144
.LBB4_91:                               # %invoke.cont122
                                        #   in Loop: Header=BB4_62 Depth=2
	ld.d	$a0, $s2, 0
	beqz	$a0, .LBB4_105
# %bb.92:                               # %if.then.i195
                                        #   in Loop: Header=BB4_62 Depth=2
.Ltmp82:                                # EH_LABEL
	pcalau12i	$a1, %pc_hi20(.L.str.2)
	addi.d	$a1, $a1, %pc_lo12(.L.str.2)
	ori	$a2, $zero, 7
	pcaddu18i	$ra, %call36(_ZSt16__ostream_insertIcSt11char_traitsIcEERSt13basic_ostreamIT_T0_ES6_PKS3_l)
	jirl	$ra, $ra, 0
.Ltmp83:                                # EH_LABEL
# %bb.93:                               # %invoke.cont124
                                        #   in Loop: Header=BB4_62 Depth=2
	ld.d	$a0, $s2, 0
	beqz	$a0, .LBB4_105
# %bb.94:                               # %if.then.i202
                                        #   in Loop: Header=BB4_62 Depth=2
.Ltmp84:                                # EH_LABEL
	ori	$a1, $zero, 2
	pcaddu18i	$ra, %call36(_ZNSolsEi)
	jirl	$ra, $ra, 0
.Ltmp85:                                # EH_LABEL
# %bb.95:                               # %invoke.cont128
                                        #   in Loop: Header=BB4_62 Depth=2
	ld.d	$a0, $s2, 0
	beqz	$a0, .LBB4_105
# %bb.96:                               # %if.then.i208
                                        #   in Loop: Header=BB4_62 Depth=2
.Ltmp86:                                # EH_LABEL
	pcalau12i	$a1, %pc_hi20(.L.str.3)
	addi.d	$a1, $a1, %pc_lo12(.L.str.3)
	ori	$a2, $zero, 3
	pcaddu18i	$ra, %call36(_ZSt16__ostream_insertIcSt11char_traitsIcEERSt13basic_ostreamIT_T0_ES6_PKS3_l)
	jirl	$ra, $ra, 0
.Ltmp87:                                # EH_LABEL
# %bb.97:                               # %invoke.cont130
                                        #   in Loop: Header=BB4_62 Depth=2
	ld.d	$a0, $s2, 0
	beqz	$a0, .LBB4_105
# %bb.98:                               # %if.then.i215
                                        #   in Loop: Header=BB4_62 Depth=2
	ld.d	$a1, $s8, 0
	ld.d	$a2, $s8, 8
.Ltmp88:                                # EH_LABEL
	pcaddu18i	$ra, %call36(_ZSt16__ostream_insertIcSt11char_traitsIcEERSt13basic_ostreamIT_T0_ES6_PKS3_l)
	jirl	$ra, $ra, 0
.Ltmp89:                                # EH_LABEL
# %bb.99:                               # %invoke.cont133
                                        #   in Loop: Header=BB4_62 Depth=2
	ld.d	$a0, $s2, 0
	beqz	$a0, .LBB4_105
# %bb.100:                              # %if.then.i223
                                        #   in Loop: Header=BB4_62 Depth=2
.Ltmp90:                                # EH_LABEL
	pcalau12i	$a1, %pc_hi20(.L.str.9)
	addi.d	$a1, $a1, %pc_lo12(.L.str.9)
	ori	$a2, $zero, 15
	pcaddu18i	$ra, %call36(_ZSt16__ostream_insertIcSt11char_traitsIcEERSt13basic_ostreamIT_T0_ES6_PKS3_l)
	jirl	$ra, $ra, 0
.Ltmp91:                                # EH_LABEL
# %bb.101:                              # %invoke.cont135
                                        #   in Loop: Header=BB4_62 Depth=2
	ld.d	$a0, $s2, 0
	beqz	$a0, .LBB4_105
# %bb.102:                              # %if.then.i229
                                        #   in Loop: Header=BB4_62 Depth=2
	ld.d	$a1, $s5, 0
	ld.d	$a2, $s5, 8
.Ltmp92:                                # EH_LABEL
	pcaddu18i	$ra, %call36(_ZSt16__ostream_insertIcSt11char_traitsIcEERSt13basic_ostreamIT_T0_ES6_PKS3_l)
	jirl	$ra, $ra, 0
.Ltmp93:                                # EH_LABEL
# %bb.103:                              # %invoke.cont138
                                        #   in Loop: Header=BB4_62 Depth=2
	ld.d	$a0, $s2, 0
	beqz	$a0, .LBB4_105
# %bb.104:                              # %if.then.i237
                                        #   in Loop: Header=BB4_62 Depth=2
.Ltmp94:                                # EH_LABEL
	pcalau12i	$a1, %pc_hi20(.L.str.8)
	addi.d	$a1, $a1, %pc_lo12(.L.str.8)
	ori	$a2, $zero, 1
	pcaddu18i	$ra, %call36(_ZSt16__ostream_insertIcSt11char_traitsIcEERSt13basic_ostreamIT_T0_ES6_PKS3_l)
	jirl	$ra, $ra, 0
.Ltmp95:                                # EH_LABEL
	.p2align	4, , 16
.LBB4_105:                              # %invoke.cont140
                                        #   in Loop: Header=BB4_62 Depth=2
	ld.w	$a0, $s3, %pc_lo12(_ZZN9benchmark8internal8LogLevelEvE9log_level)
	blt	$a0, $fp, .LBB4_109
# %bb.106:                              # %if.then.i244
                                        #   in Loop: Header=BB4_62 Depth=2
	ld.b	$a0, $s1, %pc_lo12(_ZGVZN9benchmark8internal19GetErrorLogInstanceEvE9error_log)
	dbar	20
	pcalau12i	$a1, %pc_hi20(_ZZN9benchmark8internal19GetErrorLogInstanceEvE9error_log)
	addi.d	$s2, $a1, %pc_lo12(_ZZN9benchmark8internal19GetErrorLogInstanceEvE9error_log)
	bnez	$a0, .LBB4_110
# %bb.107:                              # %init.check.i.i247
                                        #   in Loop: Header=BB4_62 Depth=2
	pcalau12i	$a0, %pc_hi20(_ZGVZN9benchmark8internal19GetErrorLogInstanceEvE9error_log)
	addi.d	$s7, $a0, %pc_lo12(_ZGVZN9benchmark8internal19GetErrorLogInstanceEvE9error_log)
	move	$a0, $s7
	pcaddu18i	$ra, %call36(__cxa_guard_acquire)
	jirl	$ra, $ra, 0
	addi.w	$a0, $a0, 0
	beqz	$a0, .LBB4_110
# %bb.108:                              # %init.i.i249
                                        #   in Loop: Header=BB4_62 Depth=2
	pcalau12i	$a0, %got_pc_hi20(_ZSt4clog)
	ld.d	$a0, $a0, %got_pc_lo12(_ZSt4clog)
	pcalau12i	$a1, %pc_hi20(_ZZN9benchmark8internal19GetErrorLogInstanceEvE9error_log)
	addi.d	$s2, $a1, %pc_lo12(_ZZN9benchmark8internal19GetErrorLogInstanceEvE9error_log)
	st.d	$a0, $s2, 0
	b	.LBB4_149
.LBB4_109:                              # %if.end.i253
                                        #   in Loop: Header=BB4_62 Depth=2
	ld.d	$a0, $sp, 72                    # 8-byte Folded Reload
	ld.b	$a0, $a0, 0
	dbar	20
	ld.d	$s2, $sp, 64                    # 8-byte Folded Reload
	beqz	$a0, .LBB4_147
.LBB4_110:                              # %invoke.cont143
                                        #   in Loop: Header=BB4_62 Depth=2
	ld.d	$a0, $s2, 0
	beqz	$a0, .LBB4_122
# %bb.111:                              # %if.then.i260
                                        #   in Loop: Header=BB4_62 Depth=2
.Ltmp97:                                # EH_LABEL
	pcalau12i	$a1, %pc_hi20(.L.str.2)
	addi.d	$a1, $a1, %pc_lo12(.L.str.2)
	ori	$a2, $zero, 7
	pcaddu18i	$ra, %call36(_ZSt16__ostream_insertIcSt11char_traitsIcEERSt13basic_ostreamIT_T0_ES6_PKS3_l)
	jirl	$ra, $ra, 0
.Ltmp98:                                # EH_LABEL
# %bb.112:                              # %invoke.cont145
                                        #   in Loop: Header=BB4_62 Depth=2
	ld.d	$a0, $s2, 0
	beqz	$a0, .LBB4_122
# %bb.113:                              # %if.then.i267
                                        #   in Loop: Header=BB4_62 Depth=2
.Ltmp99:                                # EH_LABEL
	ori	$a1, $zero, 1
	pcaddu18i	$ra, %call36(_ZNSolsEi)
	jirl	$ra, $ra, 0
.Ltmp100:                               # EH_LABEL
# %bb.114:                              # %invoke.cont149
                                        #   in Loop: Header=BB4_62 Depth=2
	ld.d	$a0, $s2, 0
	beqz	$a0, .LBB4_122
# %bb.115:                              # %if.then.i273
                                        #   in Loop: Header=BB4_62 Depth=2
.Ltmp101:                               # EH_LABEL
	pcalau12i	$a1, %pc_hi20(.L.str.3)
	addi.d	$a1, $a1, %pc_lo12(.L.str.3)
	ori	$a2, $zero, 3
	pcaddu18i	$ra, %call36(_ZSt16__ostream_insertIcSt11char_traitsIcEERSt13basic_ostreamIT_T0_ES6_PKS3_l)
	jirl	$ra, $ra, 0
.Ltmp102:                               # EH_LABEL
# %bb.116:                              # %invoke.cont151
                                        #   in Loop: Header=BB4_62 Depth=2
	ld.d	$a0, $s2, 0
	beqz	$a0, .LBB4_122
# %bb.117:                              # %if.then.i280
                                        #   in Loop: Header=BB4_62 Depth=2
.Ltmp103:                               # EH_LABEL
	pcalau12i	$a1, %pc_hi20(.L.str.10)
	addi.d	$a1, $a1, %pc_lo12(.L.str.10)
	ori	$a2, $zero, 20
	pcaddu18i	$ra, %call36(_ZSt16__ostream_insertIcSt11char_traitsIcEERSt13basic_ostreamIT_T0_ES6_PKS3_l)
	jirl	$ra, $ra, 0
.Ltmp104:                               # EH_LABEL
# %bb.118:                              # %invoke.cont153
                                        #   in Loop: Header=BB4_62 Depth=2
	ld.d	$a0, $s2, 0
	beqz	$a0, .LBB4_122
# %bb.119:                              # %if.then.i286
                                        #   in Loop: Header=BB4_62 Depth=2
	ld.d	$a1, $s5, 0
	ld.d	$a2, $s5, 8
.Ltmp105:                               # EH_LABEL
	pcaddu18i	$ra, %call36(_ZSt16__ostream_insertIcSt11char_traitsIcEERSt13basic_ostreamIT_T0_ES6_PKS3_l)
	jirl	$ra, $ra, 0
.Ltmp106:                               # EH_LABEL
# %bb.120:                              # %invoke.cont156
                                        #   in Loop: Header=BB4_62 Depth=2
	ld.d	$a0, $s2, 0
	beqz	$a0, .LBB4_122
# %bb.121:                              # %if.then.i294
                                        #   in Loop: Header=BB4_62 Depth=2
.Ltmp107:                               # EH_LABEL
	pcalau12i	$a1, %pc_hi20(.L.str.11)
	addi.d	$a1, $a1, %pc_lo12(.L.str.11)
	ori	$a2, $zero, 7
	pcaddu18i	$ra, %call36(_ZSt16__ostream_insertIcSt11char_traitsIcEERSt13basic_ostreamIT_T0_ES6_PKS3_l)
	jirl	$ra, $ra, 0
.Ltmp108:                               # EH_LABEL
	.p2align	4, , 16
.LBB4_122:                              # %invoke.cont158
                                        #   in Loop: Header=BB4_62 Depth=2
	ld.d	$a0, $s8, 104
	beqz	$a0, .LBB4_162
# %bb.123:                              # %if.end.i301
                                        #   in Loop: Header=BB4_62 Depth=2
	ld.d	$a2, $s8, 112
.Ltmp110:                               # EH_LABEL
	move	$a0, $s6
	move	$a1, $s5
	jirl	$ra, $a2, 0
.Ltmp111:                               # EH_LABEL
# %bb.124:                              # %invoke.cont161
                                        #   in Loop: Header=BB4_62 Depth=2
	ld.w	$a0, $s3, %pc_lo12(_ZZN9benchmark8internal8LogLevelEvE9log_level)
	blt	$a0, $fp, .LBB4_128
# %bb.125:                              # %if.then.i306
                                        #   in Loop: Header=BB4_62 Depth=2
	ld.b	$a0, $s1, %pc_lo12(_ZGVZN9benchmark8internal19GetErrorLogInstanceEvE9error_log)
	dbar	20
	pcalau12i	$a1, %pc_hi20(_ZZN9benchmark8internal19GetErrorLogInstanceEvE9error_log)
	addi.d	$s2, $a1, %pc_lo12(_ZZN9benchmark8internal19GetErrorLogInstanceEvE9error_log)
	bnez	$a0, .LBB4_129
# %bb.126:                              # %init.check.i.i309
                                        #   in Loop: Header=BB4_62 Depth=2
	pcalau12i	$a0, %pc_hi20(_ZGVZN9benchmark8internal19GetErrorLogInstanceEvE9error_log)
	addi.d	$s7, $a0, %pc_lo12(_ZGVZN9benchmark8internal19GetErrorLogInstanceEvE9error_log)
	move	$a0, $s7
	pcaddu18i	$ra, %call36(__cxa_guard_acquire)
	jirl	$ra, $ra, 0
	addi.w	$a0, $a0, 0
	beqz	$a0, .LBB4_129
# %bb.127:                              # %init.i.i311
                                        #   in Loop: Header=BB4_62 Depth=2
	pcalau12i	$a0, %got_pc_hi20(_ZSt4clog)
	ld.d	$a0, $a0, %got_pc_lo12(_ZSt4clog)
	pcalau12i	$a1, %pc_hi20(_ZZN9benchmark8internal19GetErrorLogInstanceEvE9error_log)
	addi.d	$s2, $a1, %pc_lo12(_ZZN9benchmark8internal19GetErrorLogInstanceEvE9error_log)
	st.d	$a0, $s2, 0
	b	.LBB4_152
.LBB4_128:                              # %if.end.i315
                                        #   in Loop: Header=BB4_62 Depth=2
	ld.d	$a0, $sp, 72                    # 8-byte Folded Reload
	ld.b	$a0, $a0, 0
	dbar	20
	ld.d	$s2, $sp, 64                    # 8-byte Folded Reload
	beqz	$a0, .LBB4_150
.LBB4_129:                              # %invoke.cont162
                                        #   in Loop: Header=BB4_62 Depth=2
	ld.d	$a0, $s2, 0
	beqz	$a0, .LBB4_61
# %bb.130:                              # %if.then.i322
                                        #   in Loop: Header=BB4_62 Depth=2
.Ltmp112:                               # EH_LABEL
	ori	$a2, $zero, 7
	ld.d	$a1, $sp, 56                    # 8-byte Folded Reload
	pcaddu18i	$ra, %call36(_ZSt16__ostream_insertIcSt11char_traitsIcEERSt13basic_ostreamIT_T0_ES6_PKS3_l)
	jirl	$ra, $ra, 0
.Ltmp113:                               # EH_LABEL
# %bb.131:                              # %invoke.cont164
                                        #   in Loop: Header=BB4_62 Depth=2
	ld.d	$a0, $s2, 0
	beqz	$a0, .LBB4_61
# %bb.132:                              # %if.then.i329
                                        #   in Loop: Header=BB4_62 Depth=2
.Ltmp115:                               # EH_LABEL
	ori	$a1, $zero, 1
	pcaddu18i	$ra, %call36(_ZNSolsEi)
	jirl	$ra, $ra, 0
.Ltmp116:                               # EH_LABEL
# %bb.133:                              # %invoke.cont168
                                        #   in Loop: Header=BB4_62 Depth=2
	ld.d	$a0, $s2, 0
	beqz	$a0, .LBB4_61
# %bb.134:                              # %if.then.i335
                                        #   in Loop: Header=BB4_62 Depth=2
.Ltmp117:                               # EH_LABEL
	ori	$a2, $zero, 3
	ld.d	$a1, $sp, 40                    # 8-byte Folded Reload
	pcaddu18i	$ra, %call36(_ZSt16__ostream_insertIcSt11char_traitsIcEERSt13basic_ostreamIT_T0_ES6_PKS3_l)
	jirl	$ra, $ra, 0
.Ltmp118:                               # EH_LABEL
# %bb.135:                              # %invoke.cont170
                                        #   in Loop: Header=BB4_62 Depth=2
	ld.d	$a0, $s2, 0
	beqz	$a0, .LBB4_61
# %bb.136:                              # %if.then.i342
                                        #   in Loop: Header=BB4_62 Depth=2
.Ltmp119:                               # EH_LABEL
	ori	$a2, $zero, 20
	ld.d	$a1, $sp, 24                    # 8-byte Folded Reload
	pcaddu18i	$ra, %call36(_ZSt16__ostream_insertIcSt11char_traitsIcEERSt13basic_ostreamIT_T0_ES6_PKS3_l)
	jirl	$ra, $ra, 0
.Ltmp120:                               # EH_LABEL
# %bb.137:                              # %invoke.cont172
                                        #   in Loop: Header=BB4_62 Depth=2
	ld.d	$a0, $s2, 0
	beqz	$a0, .LBB4_61
# %bb.138:                              # %if.then.i349
                                        #   in Loop: Header=BB4_62 Depth=2
	ld.d	$a1, $s5, 0
	ld.d	$a2, $s5, 8
.Ltmp121:                               # EH_LABEL
	pcaddu18i	$ra, %call36(_ZSt16__ostream_insertIcSt11char_traitsIcEERSt13basic_ostreamIT_T0_ES6_PKS3_l)
	jirl	$ra, $ra, 0
.Ltmp122:                               # EH_LABEL
# %bb.139:                              # %invoke.cont175
                                        #   in Loop: Header=BB4_62 Depth=2
	ld.d	$a0, $s2, 0
	beqz	$a0, .LBB4_61
# %bb.140:                              # %if.then.i357
                                        #   in Loop: Header=BB4_62 Depth=2
.Ltmp123:                               # EH_LABEL
	ori	$a2, $zero, 6
	ld.d	$a1, $sp, 16                    # 8-byte Folded Reload
	pcaddu18i	$ra, %call36(_ZSt16__ostream_insertIcSt11char_traitsIcEERSt13basic_ostreamIT_T0_ES6_PKS3_l)
	jirl	$ra, $ra, 0
.Ltmp124:                               # EH_LABEL
	b	.LBB4_61
.LBB4_141:                              # %init.check.i.i118
                                        #   in Loop: Header=BB4_62 Depth=2
	pcalau12i	$a0, %pc_hi20(_ZGVZN9benchmark8internal19GetErrorLogInstanceEvE9error_log)
	addi.d	$s2, $a0, %pc_lo12(_ZGVZN9benchmark8internal19GetErrorLogInstanceEvE9error_log)
	move	$a0, $s2
	pcaddu18i	$ra, %call36(__cxa_guard_acquire)
	jirl	$ra, $ra, 0
	addi.w	$a0, $a0, 0
	beqz	$a0, .LBB4_76
# %bb.142:                              # %init.i.i120
                                        #   in Loop: Header=BB4_62 Depth=2
	pcalau12i	$a0, %got_pc_hi20(_ZSt4clog)
	ld.d	$a0, $a0, %got_pc_lo12(_ZSt4clog)
	pcalau12i	$a1, %pc_hi20(_ZZN9benchmark8internal19GetErrorLogInstanceEvE9error_log)
	addi.d	$s7, $a1, %pc_lo12(_ZZN9benchmark8internal19GetErrorLogInstanceEvE9error_log)
	st.d	$a0, $s7, 0
.LBB4_143:                              # %return.sink.split.i121
                                        #   in Loop: Header=BB4_62 Depth=2
	move	$a0, $s2
	pcaddu18i	$ra, %call36(__cxa_guard_release)
	jirl	$ra, $ra, 0
	b	.LBB4_76
.LBB4_144:                              # %init.check.i.i182
                                        #   in Loop: Header=BB4_62 Depth=2
	pcalau12i	$a0, %pc_hi20(_ZGVZN9benchmark8internal19GetErrorLogInstanceEvE9error_log)
	addi.d	$s7, $a0, %pc_lo12(_ZGVZN9benchmark8internal19GetErrorLogInstanceEvE9error_log)
	move	$a0, $s7
	pcaddu18i	$ra, %call36(__cxa_guard_acquire)
	jirl	$ra, $ra, 0
	addi.w	$a0, $a0, 0
	beqz	$a0, .LBB4_91
# %bb.145:                              # %init.i.i184
                                        #   in Loop: Header=BB4_62 Depth=2
	pcalau12i	$a0, %got_pc_hi20(_ZSt4clog)
	ld.d	$a0, $a0, %got_pc_lo12(_ZSt4clog)
	pcalau12i	$a1, %pc_hi20(_ZZN9benchmark8internal19GetErrorLogInstanceEvE9error_log)
	addi.d	$s2, $a1, %pc_lo12(_ZZN9benchmark8internal19GetErrorLogInstanceEvE9error_log)
	st.d	$a0, $s2, 0
.LBB4_146:                              # %return.sink.split.i185
                                        #   in Loop: Header=BB4_62 Depth=2
	move	$a0, $s7
	pcaddu18i	$ra, %call36(__cxa_guard_release)
	jirl	$ra, $ra, 0
	b	.LBB4_91
.LBB4_147:                              # %init.check.i2.i255
                                        #   in Loop: Header=BB4_62 Depth=2
	ld.d	$a0, $sp, 72                    # 8-byte Folded Reload
	pcaddu18i	$ra, %call36(__cxa_guard_acquire)
	jirl	$ra, $ra, 0
	addi.w	$a0, $a0, 0
	ld.d	$s2, $sp, 64                    # 8-byte Folded Reload
	beqz	$a0, .LBB4_110
# %bb.148:                              # %init.i4.i257
                                        #   in Loop: Header=BB4_62 Depth=2
	ld.d	$s2, $sp, 64                    # 8-byte Folded Reload
	st.d	$zero, $s2, 0
	ld.d	$s7, $sp, 72                    # 8-byte Folded Reload
.LBB4_149:                              # %return.sink.split.i250
                                        #   in Loop: Header=BB4_62 Depth=2
	move	$a0, $s7
	pcaddu18i	$ra, %call36(__cxa_guard_release)
	jirl	$ra, $ra, 0
	b	.LBB4_110
.LBB4_150:                              # %init.check.i2.i317
                                        #   in Loop: Header=BB4_62 Depth=2
	ld.d	$a0, $sp, 72                    # 8-byte Folded Reload
	pcaddu18i	$ra, %call36(__cxa_guard_acquire)
	jirl	$ra, $ra, 0
	addi.w	$a0, $a0, 0
	ld.d	$s2, $sp, 64                    # 8-byte Folded Reload
	beqz	$a0, .LBB4_129
# %bb.151:                              # %init.i4.i319
                                        #   in Loop: Header=BB4_62 Depth=2
	ld.d	$s2, $sp, 64                    # 8-byte Folded Reload
	st.d	$zero, $s2, 0
	ld.d	$s7, $sp, 72                    # 8-byte Folded Reload
.LBB4_152:                              # %return.sink.split.i312
                                        #   in Loop: Header=BB4_62 Depth=2
	move	$a0, $s7
	pcaddu18i	$ra, %call36(__cxa_guard_release)
	jirl	$ra, $ra, 0
	b	.LBB4_129
.LBB4_153:                              # %init.check.i.i
                                        #   in Loop: Header=BB4_29 Depth=1
	pcalau12i	$a0, %pc_hi20(_ZGVZN9benchmark8internal19GetErrorLogInstanceEvE9error_log)
	addi.d	$s5, $a0, %pc_lo12(_ZGVZN9benchmark8internal19GetErrorLogInstanceEvE9error_log)
	move	$a0, $s5
	pcaddu18i	$ra, %call36(__cxa_guard_acquire)
	jirl	$ra, $ra, 0
	addi.w	$a0, $a0, 0
	beqz	$a0, .LBB4_34
# %bb.154:                              # %init.i.i
                                        #   in Loop: Header=BB4_29 Depth=1
	pcalau12i	$a0, %got_pc_hi20(_ZSt4clog)
	ld.d	$a0, $a0, %got_pc_lo12(_ZSt4clog)
	pcalau12i	$a1, %pc_hi20(_ZZN9benchmark8internal19GetErrorLogInstanceEvE9error_log)
	addi.d	$s0, $a1, %pc_lo12(_ZZN9benchmark8internal19GetErrorLogInstanceEvE9error_log)
	st.d	$a0, $s0, 0
.LBB4_155:                              # %return.sink.split.i
                                        #   in Loop: Header=BB4_29 Depth=1
	move	$a0, $s5
	pcaddu18i	$ra, %call36(__cxa_guard_release)
	jirl	$ra, $ra, 0
	b	.LBB4_34
.LBB4_156:                              # %init.check.i.i58
                                        #   in Loop: Header=BB4_29 Depth=1
	pcalau12i	$a0, %pc_hi20(_ZGVZN9benchmark8internal19GetErrorLogInstanceEvE9error_log)
	addi.d	$s5, $a0, %pc_lo12(_ZGVZN9benchmark8internal19GetErrorLogInstanceEvE9error_log)
	move	$a0, $s5
	pcaddu18i	$ra, %call36(__cxa_guard_acquire)
	jirl	$ra, $ra, 0
	addi.w	$a0, $a0, 0
	beqz	$a0, .LBB4_47
# %bb.157:                              # %init.i.i60
                                        #   in Loop: Header=BB4_29 Depth=1
	pcalau12i	$a0, %got_pc_hi20(_ZSt4clog)
	ld.d	$a0, $a0, %got_pc_lo12(_ZSt4clog)
	pcalau12i	$a1, %pc_hi20(_ZZN9benchmark8internal19GetErrorLogInstanceEvE9error_log)
	addi.d	$s0, $a1, %pc_lo12(_ZZN9benchmark8internal19GetErrorLogInstanceEvE9error_log)
	st.d	$a0, $s0, 0
.LBB4_158:                              # %return.sink.split.i61
                                        #   in Loop: Header=BB4_29 Depth=1
	move	$a0, $s5
	pcaddu18i	$ra, %call36(__cxa_guard_release)
	jirl	$ra, $ra, 0
	b	.LBB4_47
.LBB4_159:                              # %for.cond.cleanup
	ld.d	$a0, $sp, 120
	addi.d	$a1, $sp, 136
	beq	$a0, $a1, .LBB4_161
# %bb.160:                              # %if.then.i.i
	ld.d	$a1, $sp, 136
	addi.d	$a1, $a1, 1
	pcaddu18i	$ra, %call36(_ZdlPvm)
	jirl	$ra, $ra, 0
.LBB4_161:                              # %_ZNSt7__cxx1112basic_stringIcSt11char_traitsIcESaIcEED2Ev.exit
	ld.d	$s8, $sp, 184                   # 8-byte Folded Reload
	ld.d	$s7, $sp, 192                   # 8-byte Folded Reload
	ld.d	$s6, $sp, 200                   # 8-byte Folded Reload
	ld.d	$s5, $sp, 208                   # 8-byte Folded Reload
	ld.d	$s4, $sp, 216                   # 8-byte Folded Reload
	ld.d	$s3, $sp, 224                   # 8-byte Folded Reload
	ld.d	$s2, $sp, 232                   # 8-byte Folded Reload
	ld.d	$s1, $sp, 240                   # 8-byte Folded Reload
	ld.d	$s0, $sp, 248                   # 8-byte Folded Reload
	ld.d	$fp, $sp, 256                   # 8-byte Folded Reload
	ld.d	$ra, $sp, 264                   # 8-byte Folded Reload
	addi.d	$sp, $sp, 272
	ret
.LBB4_162:                              # %if.then.i302
.Ltmp126:                               # EH_LABEL
	pcaddu18i	$ra, %call36(_ZSt25__throw_bad_function_callv)
	jirl	$ra, $ra, 0
.Ltmp127:                               # EH_LABEL
# %bb.163:                              # %.noexc303
.LBB4_164:                              # %cond.false
.Ltmp27:                                # EH_LABEL
	pcalau12i	$a0, %pc_hi20(.L.str)
	addi.d	$a1, $a0, %pc_lo12(.L.str)
	pcalau12i	$a0, %pc_hi20(.L.str.1)
	addi.d	$a2, $a0, %pc_lo12(.L.str.1)
	pcalau12i	$a0, %pc_hi20(.L__func__._ZN8internal14ResultsChecker12CheckResultsERNSt7__cxx1118basic_stringstreamIcSt11char_traitsIcESaIcEEE)
	addi.d	$a3, $a0, %pc_lo12(.L__func__._ZN8internal14ResultsChecker12CheckResultsERNSt7__cxx1118basic_stringstreamIcSt11char_traitsIcESaIcEEE)
	addi.d	$a0, $sp, 152
	ori	$a4, $zero, 235
	pcaddu18i	$ra, %call36(_ZN9benchmark8internal12CheckHandlerC2EPKcS3_S3_i)
	jirl	$ra, $ra, 0
.Ltmp28:                                # EH_LABEL
# %bb.165:                              # %cleanup.action
.Ltmp29:                                # EH_LABEL
	addi.d	$a0, $sp, 152
	pcaddu18i	$ra, %call36(_ZN9benchmark8internal12CheckHandlerD2Ev)
	jirl	$ra, $ra, 0
.Ltmp30:                                # EH_LABEL
# %bb.166:                              # %invoke.cont30
.LBB4_167:                              # %if.then.i.i.i
.Ltmp129:                               # EH_LABEL
	pcaddu18i	$ra, %call36(_ZSt16__throw_bad_castv)
	jirl	$ra, $ra, 0
.Ltmp130:                               # EH_LABEL
# %bb.168:                              # %.noexc
.LBB4_169:                              # %init.check.i.peel
	pcalau12i	$a0, %pc_hi20(_ZGVZN9benchmark8internal18GetNullLogInstanceEvE8null_log)
	addi.d	$a0, $a0, %pc_lo12(_ZGVZN9benchmark8internal18GetNullLogInstanceEvE8null_log)
	pcaddu18i	$ra, %call36(__cxa_guard_acquire)
	jirl	$ra, $ra, 0
	addi.w	$a0, $a0, 0
	beqz	$a0, .LBB4_5
# %bb.170:                              # %init.i.peel
	pcalau12i	$a0, %pc_hi20(_ZZN9benchmark8internal18GetNullLogInstanceEvE8null_log)
	st.d	$zero, $a0, %pc_lo12(_ZZN9benchmark8internal18GetNullLogInstanceEvE8null_log)
	pcalau12i	$a0, %pc_hi20(_ZGVZN9benchmark8internal18GetNullLogInstanceEvE8null_log)
	addi.d	$a0, $a0, %pc_lo12(_ZGVZN9benchmark8internal18GetNullLogInstanceEvE8null_log)
	pcaddu18i	$ra, %call36(__cxa_guard_release)
	jirl	$ra, $ra, 0
	b	.LBB4_5
.LBB4_171:                              # %lpad.loopexit503.loopexit.split-lp
.Ltmp26:                                # EH_LABEL
	ld.d	$a2, $sp, 120
	addi.d	$a1, $sp, 136
	beq	$a2, $a1, .LBB4_184
	b	.LBB4_188
.LBB4_172:                              # %lpad.loopexit.split-lp504
.Ltmp131:                               # EH_LABEL
	ld.d	$a2, $sp, 120
	addi.d	$a1, $sp, 136
	beq	$a2, $a1, .LBB4_184
	b	.LBB4_188
.LBB4_173:                              # %cleanup.action39
.Ltmp31:                                # EH_LABEL
	ld.d	$a2, $sp, 120
	addi.d	$a1, $sp, 136
	beq	$a2, $a1, .LBB4_184
	b	.LBB4_188
.LBB4_174:                              # %lpad59
.Ltmp49:                                # EH_LABEL
	ld.d	$a2, $sp, 120
	addi.d	$a1, $sp, 136
	beq	$a2, $a1, .LBB4_184
	b	.LBB4_188
.LBB4_175:                              # %lpad72
.Ltmp63:                                # EH_LABEL
	ld.d	$a2, $sp, 120
	addi.d	$a1, $sp, 136
	beq	$a2, $a1, .LBB4_184
	b	.LBB4_188
.LBB4_176:                              # %lpad.loopexit503.loopexit
.Ltmp40:                                # EH_LABEL
	ld.d	$a2, $sp, 120
	addi.d	$a1, $sp, 136
	beq	$a2, $a1, .LBB4_184
	b	.LBB4_188
.LBB4_177:                              # %lpad53
.Ltmp52:                                # EH_LABEL
	ld.d	$a2, $sp, 120
	addi.d	$a1, $sp, 136
	beq	$a2, $a1, .LBB4_184
	b	.LBB4_188
.LBB4_178:                              # %lpad148
.Ltmp109:                               # EH_LABEL
	ld.d	$a2, $sp, 120
	addi.d	$a1, $sp, 136
	beq	$a2, $a1, .LBB4_184
	b	.LBB4_188
.LBB4_179:                              # %lpad167
.Ltmp125:                               # EH_LABEL
	ld.d	$a2, $sp, 120
	addi.d	$a1, $sp, 136
	beq	$a2, $a1, .LBB4_184
	b	.LBB4_188
.LBB4_180:                              # %lpad127
.Ltmp96:                                # EH_LABEL
	ld.d	$a2, $sp, 120
	addi.d	$a1, $sp, 136
	beq	$a2, $a1, .LBB4_184
	b	.LBB4_188
.LBB4_181:                              # %lpad96.loopexit.split-lp
.Ltmp128:                               # EH_LABEL
	ld.d	$a2, $sp, 120
	addi.d	$a1, $sp, 136
	beq	$a2, $a1, .LBB4_184
	b	.LBB4_188
.LBB4_182:                              # %lpad.i.i.i
.Ltmp66:                                # EH_LABEL
	ld.d	$a2, $sp, 152
	bnez	$a2, .LBB4_185
# %bb.183:                              # %ehcleanup198
	ld.d	$a2, $sp, 120
	addi.d	$a1, $sp, 136
	bne	$a2, $a1, .LBB4_188
.LBB4_184:                              # %_ZNSt7__cxx1112basic_stringIcSt11char_traitsIcESaIcEED2Ev.exit368
	pcaddu18i	$ra, %call36(_Unwind_Resume)
	jirl	$ra, $ra, 0
.LBB4_185:                              # %if.then.i.i.i3.i.i.i
	ld.d	$a1, $sp, 168
	sub.d	$a1, $a1, $a2
	move	$fp, $a0
	move	$a0, $a2
	pcaddu18i	$ra, %call36(_ZdlPvm)
	jirl	$ra, $ra, 0
	move	$a0, $fp
	ld.d	$a2, $sp, 120
	addi.d	$a1, $sp, 136
	beq	$a2, $a1, .LBB4_184
	b	.LBB4_188
.LBB4_186:                              # %lpad105
.Ltmp81:                                # EH_LABEL
	ld.d	$a2, $sp, 120
	addi.d	$a1, $sp, 136
	beq	$a2, $a1, .LBB4_184
	b	.LBB4_188
.LBB4_187:                              # %lpad96.loopexit
.Ltmp114:                               # EH_LABEL
	ld.d	$a2, $sp, 120
	addi.d	$a1, $sp, 136
	beq	$a2, $a1, .LBB4_184
.LBB4_188:                              # %if.then.i.i363
	ld.d	$a1, $sp, 136
	addi.d	$a1, $a1, 1
	move	$fp, $a0
	move	$a0, $a2
	pcaddu18i	$ra, %call36(_ZdlPvm)
	jirl	$ra, $ra, 0
	move	$a0, $fp
	pcaddu18i	$ra, %call36(_Unwind_Resume)
	jirl	$ra, $ra, 0
.Lfunc_end4:
	.size	_ZN8internal14ResultsChecker12CheckResultsERNSt7__cxx1118basic_stringstreamIcSt11char_traitsIcESaIcEEE, .Lfunc_end4-_ZN8internal14ResultsChecker12CheckResultsERNSt7__cxx1118basic_stringstreamIcSt11char_traitsIcESaIcEEE
	.cfi_endproc
	.section	.gcc_except_table,"a",@progbits
	.p2align	2, 0x0
GCC_except_table4:
.Lexception2:
	.byte	255                             # @LPStart Encoding = omit
	.byte	255                             # @TType Encoding = omit
	.byte	1                               # Call site Encoding = uleb128
	.uleb128 .Lcst_end2-.Lcst_begin2
.Lcst_begin2:
	.uleb128 .Lfunc_begin2-.Lfunc_begin2    # >> Call Site 1 <<
	.uleb128 .Ltmp18-.Lfunc_begin2          #   Call between .Lfunc_begin2 and .Ltmp18
	.byte	0                               #     has no landing pad
	.byte	0                               #   On action: cleanup
	.uleb128 .Ltmp18-.Lfunc_begin2          # >> Call Site 2 <<
	.uleb128 .Ltmp25-.Ltmp18                #   Call between .Ltmp18 and .Ltmp25
	.uleb128 .Ltmp26-.Lfunc_begin2          #     jumps to .Ltmp26
	.byte	0                               #   On action: cleanup
	.uleb128 .Ltmp32-.Lfunc_begin2          # >> Call Site 3 <<
	.uleb128 .Ltmp39-.Ltmp32                #   Call between .Ltmp32 and .Ltmp39
	.uleb128 .Ltmp40-.Lfunc_begin2          #     jumps to .Ltmp40
	.byte	0                               #   On action: cleanup
	.uleb128 .Ltmp39-.Lfunc_begin2          # >> Call Site 4 <<
	.uleb128 .Ltmp41-.Ltmp39                #   Call between .Ltmp39 and .Ltmp41
	.byte	0                               #     has no landing pad
	.byte	0                               #   On action: cleanup
	.uleb128 .Ltmp41-.Lfunc_begin2          # >> Call Site 5 <<
	.uleb128 .Ltmp42-.Ltmp41                #   Call between .Ltmp41 and .Ltmp42
	.uleb128 .Ltmp52-.Lfunc_begin2          #     jumps to .Ltmp52
	.byte	0                               #   On action: cleanup
	.uleb128 .Ltmp43-.Lfunc_begin2          # >> Call Site 6 <<
	.uleb128 .Ltmp48-.Ltmp43                #   Call between .Ltmp43 and .Ltmp48
	.uleb128 .Ltmp49-.Lfunc_begin2          #     jumps to .Ltmp49
	.byte	0                               #   On action: cleanup
	.uleb128 .Ltmp48-.Lfunc_begin2          # >> Call Site 7 <<
	.uleb128 .Ltmp50-.Ltmp48                #   Call between .Ltmp48 and .Ltmp50
	.byte	0                               #     has no landing pad
	.byte	0                               #   On action: cleanup
	.uleb128 .Ltmp50-.Lfunc_begin2          # >> Call Site 8 <<
	.uleb128 .Ltmp51-.Ltmp50                #   Call between .Ltmp50 and .Ltmp51
	.uleb128 .Ltmp52-.Lfunc_begin2          #     jumps to .Ltmp52
	.byte	0                               #   On action: cleanup
	.uleb128 .Ltmp53-.Lfunc_begin2          # >> Call Site 9 <<
	.uleb128 .Ltmp62-.Ltmp53                #   Call between .Ltmp53 and .Ltmp62
	.uleb128 .Ltmp63-.Lfunc_begin2          #     jumps to .Ltmp63
	.byte	0                               #   On action: cleanup
	.uleb128 .Ltmp64-.Lfunc_begin2          # >> Call Site 10 <<
	.uleb128 .Ltmp65-.Ltmp64                #   Call between .Ltmp64 and .Ltmp65
	.uleb128 .Ltmp66-.Lfunc_begin2          #     jumps to .Ltmp66
	.byte	0                               #   On action: cleanup
	.uleb128 .Ltmp65-.Lfunc_begin2          # >> Call Site 11 <<
	.uleb128 .Ltmp67-.Ltmp65                #   Call between .Ltmp65 and .Ltmp67
	.byte	0                               #     has no landing pad
	.byte	0                               #   On action: cleanup
	.uleb128 .Ltmp67-.Lfunc_begin2          # >> Call Site 12 <<
	.uleb128 .Ltmp68-.Ltmp67                #   Call between .Ltmp67 and .Ltmp68
	.uleb128 .Ltmp114-.Lfunc_begin2         #     jumps to .Ltmp114
	.byte	0                               #   On action: cleanup
	.uleb128 .Ltmp69-.Lfunc_begin2          # >> Call Site 13 <<
	.uleb128 .Ltmp80-.Ltmp69                #   Call between .Ltmp69 and .Ltmp80
	.uleb128 .Ltmp81-.Lfunc_begin2          #     jumps to .Ltmp81
	.byte	0                               #   On action: cleanup
	.uleb128 .Ltmp82-.Lfunc_begin2          # >> Call Site 14 <<
	.uleb128 .Ltmp83-.Ltmp82                #   Call between .Ltmp82 and .Ltmp83
	.uleb128 .Ltmp114-.Lfunc_begin2         #     jumps to .Ltmp114
	.byte	0                               #   On action: cleanup
	.uleb128 .Ltmp84-.Lfunc_begin2          # >> Call Site 15 <<
	.uleb128 .Ltmp95-.Ltmp84                #   Call between .Ltmp84 and .Ltmp95
	.uleb128 .Ltmp96-.Lfunc_begin2          #     jumps to .Ltmp96
	.byte	0                               #   On action: cleanup
	.uleb128 .Ltmp95-.Lfunc_begin2          # >> Call Site 16 <<
	.uleb128 .Ltmp97-.Ltmp95                #   Call between .Ltmp95 and .Ltmp97
	.byte	0                               #     has no landing pad
	.byte	0                               #   On action: cleanup
	.uleb128 .Ltmp97-.Lfunc_begin2          # >> Call Site 17 <<
	.uleb128 .Ltmp98-.Ltmp97                #   Call between .Ltmp97 and .Ltmp98
	.uleb128 .Ltmp114-.Lfunc_begin2         #     jumps to .Ltmp114
	.byte	0                               #   On action: cleanup
	.uleb128 .Ltmp99-.Lfunc_begin2          # >> Call Site 18 <<
	.uleb128 .Ltmp108-.Ltmp99               #   Call between .Ltmp99 and .Ltmp108
	.uleb128 .Ltmp109-.Lfunc_begin2         #     jumps to .Ltmp109
	.byte	0                               #   On action: cleanup
	.uleb128 .Ltmp110-.Lfunc_begin2         # >> Call Site 19 <<
	.uleb128 .Ltmp111-.Ltmp110              #   Call between .Ltmp110 and .Ltmp111
	.uleb128 .Ltmp114-.Lfunc_begin2         #     jumps to .Ltmp114
	.byte	0                               #   On action: cleanup
	.uleb128 .Ltmp111-.Lfunc_begin2         # >> Call Site 20 <<
	.uleb128 .Ltmp112-.Ltmp111              #   Call between .Ltmp111 and .Ltmp112
	.byte	0                               #     has no landing pad
	.byte	0                               #   On action: cleanup
	.uleb128 .Ltmp112-.Lfunc_begin2         # >> Call Site 21 <<
	.uleb128 .Ltmp113-.Ltmp112              #   Call between .Ltmp112 and .Ltmp113
	.uleb128 .Ltmp114-.Lfunc_begin2         #     jumps to .Ltmp114
	.byte	0                               #   On action: cleanup
	.uleb128 .Ltmp115-.Lfunc_begin2         # >> Call Site 22 <<
	.uleb128 .Ltmp124-.Ltmp115              #   Call between .Ltmp115 and .Ltmp124
	.uleb128 .Ltmp125-.Lfunc_begin2         #     jumps to .Ltmp125
	.byte	0                               #   On action: cleanup
	.uleb128 .Ltmp124-.Lfunc_begin2         # >> Call Site 23 <<
	.uleb128 .Ltmp126-.Ltmp124              #   Call between .Ltmp124 and .Ltmp126
	.byte	0                               #     has no landing pad
	.byte	0                               #   On action: cleanup
	.uleb128 .Ltmp126-.Lfunc_begin2         # >> Call Site 24 <<
	.uleb128 .Ltmp127-.Ltmp126              #   Call between .Ltmp126 and .Ltmp127
	.uleb128 .Ltmp128-.Lfunc_begin2         #     jumps to .Ltmp128
	.byte	0                               #   On action: cleanup
	.uleb128 .Ltmp27-.Lfunc_begin2          # >> Call Site 25 <<
	.uleb128 .Ltmp30-.Ltmp27                #   Call between .Ltmp27 and .Ltmp30
	.uleb128 .Ltmp31-.Lfunc_begin2          #     jumps to .Ltmp31
	.byte	0                               #   On action: cleanup
	.uleb128 .Ltmp129-.Lfunc_begin2         # >> Call Site 26 <<
	.uleb128 .Ltmp130-.Ltmp129              #   Call between .Ltmp129 and .Ltmp130
	.uleb128 .Ltmp131-.Lfunc_begin2         #     jumps to .Ltmp131
	.byte	0                               #   On action: cleanup
	.uleb128 .Ltmp130-.Lfunc_begin2         # >> Call Site 27 <<
	.uleb128 .Lfunc_end4-.Ltmp130           #   Call between .Ltmp130 and .Lfunc_end4
	.byte	0                               #     has no landing pad
	.byte	0                               #   On action: cleanup
.Lcst_end2:
	.p2align	2, 0x0
                                        # -- End function
	.section	.text._ZN9benchmark8internal12CheckHandlerC2EPKcS3_S3_i,"axG",@progbits,_ZN9benchmark8internal12CheckHandlerC2EPKcS3_S3_i,comdat
	.hidden	_ZN9benchmark8internal12CheckHandlerC2EPKcS3_S3_i # -- Begin function _ZN9benchmark8internal12CheckHandlerC2EPKcS3_S3_i
	.weak	_ZN9benchmark8internal12CheckHandlerC2EPKcS3_S3_i
	.p2align	2
	.type	_ZN9benchmark8internal12CheckHandlerC2EPKcS3_S3_i,@function
_ZN9benchmark8internal12CheckHandlerC2EPKcS3_S3_i: # @_ZN9benchmark8internal12CheckHandlerC2EPKcS3_S3_i
	.cfi_startproc
# %bb.0:                                # %entry
	addi.d	$sp, $sp, -64
	.cfi_def_cfa_offset 64
	st.d	$ra, $sp, 56                    # 8-byte Folded Spill
	st.d	$fp, $sp, 48                    # 8-byte Folded Spill
	st.d	$s0, $sp, 40                    # 8-byte Folded Spill
	st.d	$s1, $sp, 32                    # 8-byte Folded Spill
	st.d	$s2, $sp, 24                    # 8-byte Folded Spill
	st.d	$s3, $sp, 16                    # 8-byte Folded Spill
	st.d	$s4, $sp, 8                     # 8-byte Folded Spill
	.cfi_offset 1, -8
	.cfi_offset 22, -16
	.cfi_offset 23, -24
	.cfi_offset 24, -32
	.cfi_offset 25, -40
	.cfi_offset 26, -48
	.cfi_offset 27, -56
	pcalau12i	$a5, %pc_hi20(_ZGVZN9benchmark8internal19GetErrorLogInstanceEvE9error_log)
	ld.b	$a5, $a5, %pc_lo12(_ZGVZN9benchmark8internal19GetErrorLogInstanceEvE9error_log)
	move	$s1, $a4
	move	$s0, $a3
	move	$fp, $a1
	dbar	20
	pcalau12i	$a1, %pc_hi20(_ZZN9benchmark8internal19GetErrorLogInstanceEvE9error_log)
	addi.d	$s4, $a1, %pc_lo12(_ZZN9benchmark8internal19GetErrorLogInstanceEvE9error_log)
	beqz	$a5, .LBB5_18
.LBB5_1:                                # %_ZN9benchmark8internal19GetErrorLogInstanceEv.exit
	ld.d	$s2, $s4, 0
	st.d	$s4, $a0, 0
	beqz	$s2, .LBB5_17
# %bb.2:                                # %if.then.i
	beqz	$a2, .LBB5_4
# %bb.3:                                # %if.else.i.i
	move	$a0, $a2
	move	$s3, $a2
	pcaddu18i	$ra, %call36(strlen)
	jirl	$ra, $ra, 0
	move	$a2, $a0
	move	$a0, $s2
	move	$a1, $s3
	pcaddu18i	$ra, %call36(_ZSt16__ostream_insertIcSt11char_traitsIcEERSt13basic_ostreamIT_T0_ES6_PKS3_l)
	jirl	$ra, $ra, 0
	ld.d	$a0, $s4, 0
	bnez	$a0, .LBB5_5
	b	.LBB5_17
.LBB5_4:                                # %if.then.i.i
	ld.d	$a0, $s2, 0
	ld.d	$a0, $a0, -24
	add.d	$a0, $s2, $a0
	ld.w	$a1, $a0, 32
	ori	$a1, $a1, 1
	pcaddu18i	$ra, %call36(_ZNSt9basic_iosIcSt11char_traitsIcEE5clearESt12_Ios_Iostate)
	jirl	$ra, $ra, 0
	ld.d	$a0, $s4, 0
	beqz	$a0, .LBB5_17
.LBB5_5:                                # %_ZN9benchmark8internallsIA2_cEERNS0_7LogTypeES4_RKT_.exit
	pcalau12i	$a1, %pc_hi20(.L.str.45)
	addi.d	$a1, $a1, %pc_lo12(.L.str.45)
	ori	$a2, $zero, 1
	pcaddu18i	$ra, %call36(_ZSt16__ostream_insertIcSt11char_traitsIcEERSt13basic_ostreamIT_T0_ES6_PKS3_l)
	jirl	$ra, $ra, 0
	ld.d	$a0, $s4, 0
	beqz	$a0, .LBB5_17
# %bb.6:                                # %_ZN9benchmark8internallsIiEERNS0_7LogTypeES3_RKT_.exit
	move	$a1, $s1
	pcaddu18i	$ra, %call36(_ZNSolsEi)
	jirl	$ra, $ra, 0
	ld.d	$a0, $s4, 0
	beqz	$a0, .LBB5_17
# %bb.7:                                # %_ZN9benchmark8internallsIA3_cEERNS0_7LogTypeES4_RKT_.exit
	pcalau12i	$a1, %pc_hi20(.L.str.46)
	addi.d	$a1, $a1, %pc_lo12(.L.str.46)
	ori	$a2, $zero, 2
	pcaddu18i	$ra, %call36(_ZSt16__ostream_insertIcSt11char_traitsIcEERSt13basic_ostreamIT_T0_ES6_PKS3_l)
	jirl	$ra, $ra, 0
	ld.d	$s1, $s4, 0
	beqz	$s1, .LBB5_17
# %bb.8:                                # %if.then.i13
	beqz	$s0, .LBB5_10
# %bb.9:                                # %if.else.i.i15
	move	$a0, $s0
	pcaddu18i	$ra, %call36(strlen)
	jirl	$ra, $ra, 0
	move	$a2, $a0
	move	$a0, $s1
	move	$a1, $s0
	pcaddu18i	$ra, %call36(_ZSt16__ostream_insertIcSt11char_traitsIcEERSt13basic_ostreamIT_T0_ES6_PKS3_l)
	jirl	$ra, $ra, 0
	ld.d	$a0, $s4, 0
	bnez	$a0, .LBB5_11
	b	.LBB5_17
.LBB5_10:                               # %if.then.i.i18
	ld.d	$a0, $s1, 0
	ld.d	$a0, $a0, -24
	add.d	$a0, $s1, $a0
	ld.w	$a1, $a0, 32
	ori	$a1, $a1, 1
	pcaddu18i	$ra, %call36(_ZNSt9basic_iosIcSt11char_traitsIcEE5clearESt12_Ios_Iostate)
	jirl	$ra, $ra, 0
	ld.d	$a0, $s4, 0
	beqz	$a0, .LBB5_17
.LBB5_11:                               # %_ZN9benchmark8internallsIA10_cEERNS0_7LogTypeES4_RKT_.exit
	pcalau12i	$a1, %pc_hi20(.L.str.47)
	addi.d	$a1, $a1, %pc_lo12(.L.str.47)
	ori	$a2, $zero, 9
	pcaddu18i	$ra, %call36(_ZSt16__ostream_insertIcSt11char_traitsIcEERSt13basic_ostreamIT_T0_ES6_PKS3_l)
	jirl	$ra, $ra, 0
	ld.d	$s0, $s4, 0
	beqz	$s0, .LBB5_17
# %bb.12:                               # %if.then.i31
	beqz	$fp, .LBB5_14
# %bb.13:                               # %if.else.i.i33
	move	$a0, $fp
	pcaddu18i	$ra, %call36(strlen)
	jirl	$ra, $ra, 0
	move	$a2, $a0
	move	$a0, $s0
	move	$a1, $fp
	pcaddu18i	$ra, %call36(_ZSt16__ostream_insertIcSt11char_traitsIcEERSt13basic_ostreamIT_T0_ES6_PKS3_l)
	jirl	$ra, $ra, 0
	b	.LBB5_15
.LBB5_14:                               # %if.then.i.i36
	ld.d	$a0, $s0, 0
	ld.d	$a0, $a0, -24
	add.d	$a0, $s0, $a0
	ld.w	$a1, $a0, 32
	ori	$a1, $a1, 1
	pcaddu18i	$ra, %call36(_ZNSt9basic_iosIcSt11char_traitsIcEE5clearESt12_Ios_Iostate)
	jirl	$ra, $ra, 0
.LBB5_15:                               # %_ZN9benchmark8internallsIPKcEERNS0_7LogTypeES5_RKT_.exit43
	ld.d	$a0, $s4, 0
	beqz	$a0, .LBB5_17
# %bb.16:                               # %if.then.i45
	pcalau12i	$a1, %pc_hi20(.L.str.48)
	addi.d	$a1, $a1, %pc_lo12(.L.str.48)
	ori	$a2, $zero, 10
	ld.d	$s4, $sp, 8                     # 8-byte Folded Reload
	ld.d	$s3, $sp, 16                    # 8-byte Folded Reload
	ld.d	$s2, $sp, 24                    # 8-byte Folded Reload
	ld.d	$s1, $sp, 32                    # 8-byte Folded Reload
	ld.d	$s0, $sp, 40                    # 8-byte Folded Reload
	ld.d	$fp, $sp, 48                    # 8-byte Folded Reload
	ld.d	$ra, $sp, 56                    # 8-byte Folded Reload
	addi.d	$sp, $sp, 64
	pcaddu18i	$t8, %call36(_ZSt16__ostream_insertIcSt11char_traitsIcEERSt13basic_ostreamIT_T0_ES6_PKS3_l)
	jr	$t8
.LBB5_17:                               # %_ZN9benchmark8internallsIA11_cEERNS0_7LogTypeES4_RKT_.exit
	ld.d	$s4, $sp, 8                     # 8-byte Folded Reload
	ld.d	$s3, $sp, 16                    # 8-byte Folded Reload
	ld.d	$s2, $sp, 24                    # 8-byte Folded Reload
	ld.d	$s1, $sp, 32                    # 8-byte Folded Reload
	ld.d	$s0, $sp, 40                    # 8-byte Folded Reload
	ld.d	$fp, $sp, 48                    # 8-byte Folded Reload
	ld.d	$ra, $sp, 56                    # 8-byte Folded Reload
	addi.d	$sp, $sp, 64
	ret
.LBB5_18:                               # %init.check.i
	pcalau12i	$a1, %pc_hi20(_ZGVZN9benchmark8internal19GetErrorLogInstanceEvE9error_log)
	addi.d	$a1, $a1, %pc_lo12(_ZGVZN9benchmark8internal19GetErrorLogInstanceEvE9error_log)
	move	$s2, $a0
	move	$a0, $a1
	move	$s3, $a2
	pcaddu18i	$ra, %call36(__cxa_guard_acquire)
	jirl	$ra, $ra, 0
	move	$a2, $s3
	move	$a1, $a0
	move	$a0, $s2
	addi.w	$a1, $a1, 0
	beqz	$a1, .LBB5_1
# %bb.19:                               # %init.i
	pcalau12i	$a0, %got_pc_hi20(_ZSt4clog)
	ld.d	$a0, $a0, %got_pc_lo12(_ZSt4clog)
	st.d	$a0, $s4, 0
	pcalau12i	$a0, %pc_hi20(_ZGVZN9benchmark8internal19GetErrorLogInstanceEvE9error_log)
	addi.d	$a0, $a0, %pc_lo12(_ZGVZN9benchmark8internal19GetErrorLogInstanceEvE9error_log)
	pcaddu18i	$ra, %call36(__cxa_guard_release)
	jirl	$ra, $ra, 0
	move	$a0, $s2
	move	$a2, $s3
	b	.LBB5_1
.Lfunc_end5:
	.size	_ZN9benchmark8internal12CheckHandlerC2EPKcS3_S3_i, .Lfunc_end5-_ZN9benchmark8internal12CheckHandlerC2EPKcS3_S3_i
	.cfi_endproc
                                        # -- End function
	.section	.text._ZN9benchmark8internal12CheckHandlerD2Ev,"axG",@progbits,_ZN9benchmark8internal12CheckHandlerD2Ev,comdat
	.hidden	_ZN9benchmark8internal12CheckHandlerD2Ev # -- Begin function _ZN9benchmark8internal12CheckHandlerD2Ev
	.weak	_ZN9benchmark8internal12CheckHandlerD2Ev
	.p2align	2
	.type	_ZN9benchmark8internal12CheckHandlerD2Ev,@function
_ZN9benchmark8internal12CheckHandlerD2Ev: # @_ZN9benchmark8internal12CheckHandlerD2Ev
	.cfi_startproc
# %bb.0:                                # %entry
	addi.d	$sp, $sp, -32
	.cfi_def_cfa_offset 32
	st.d	$ra, $sp, 24                    # 8-byte Folded Spill
	st.d	$fp, $sp, 16                    # 8-byte Folded Spill
	st.d	$s0, $sp, 8                     # 8-byte Folded Spill
	.cfi_offset 1, -8
	.cfi_offset 22, -16
	.cfi_offset 23, -24
	ld.d	$a0, $a0, 0
	ld.d	$fp, $a0, 0
	beqz	$fp, .LBB6_7
# %bb.1:                                # %if.then.i
	ld.d	$a0, $fp, 0
	ld.d	$a0, $a0, -24
	add.d	$a0, $fp, $a0
	ld.d	$s0, $a0, 240
	bnez	$s0, .LBB6_3
# %bb.2:                                # %if.then.i.i.i
	pcaddu18i	$ra, %call36(_ZSt16__throw_bad_castv)
	jirl	$ra, $ra, 0
.LBB6_3:                                # %_ZSt13__check_facetISt5ctypeIcEERKT_PS3_.exit.i.i
	ld.bu	$a0, $s0, 56
	bnez	$a0, .LBB6_5
# %bb.4:                                # %if.end.i.i.i
	move	$a0, $s0
	pcaddu18i	$ra, %call36(_ZNKSt5ctypeIcE13_M_widen_initEv)
	jirl	$ra, $ra, 0
	ld.d	$a0, $s0, 0
	ld.d	$a2, $a0, 48
	ori	$a1, $zero, 10
	move	$a0, $s0
	jirl	$ra, $a2, 0
	b	.LBB6_6
.LBB6_5:                                # %if.then.i2.i.i
	ld.bu	$a0, $s0, 67
.LBB6_6:                                # %_ZSt4endlIcSt11char_traitsIcEERSt13basic_ostreamIT_T0_ES6_.exit
	ext.w.b	$a1, $a0
	move	$a0, $fp
	pcaddu18i	$ra, %call36(_ZNSo3putEc)
	jirl	$ra, $ra, 0
	pcaddu18i	$ra, %call36(_ZNSo5flushEv)
	jirl	$ra, $ra, 0
.LBB6_7:                                # %_ZN9benchmark8internallsERNS0_7LogTypeEPFRSoS3_E.exit
	pcaddu18i	$ra, %call36(_ZN9benchmark8internal16CallAbortHandlerEv)
	jirl	$ra, $ra, 0
.Lfunc_end6:
	.size	_ZN9benchmark8internal12CheckHandlerD2Ev, .Lfunc_end6-_ZN9benchmark8internal12CheckHandlerD2Ev
	.cfi_endproc
                                        # -- End function
	.section	.text.__clang_call_terminate,"axG",@progbits,__clang_call_terminate,comdat
	.hidden	__clang_call_terminate          # -- Begin function __clang_call_terminate
	.weak	__clang_call_terminate
	.p2align	5
	.type	__clang_call_terminate,@function
__clang_call_terminate:                 # @__clang_call_terminate
# %bb.0:
	addi.d	$sp, $sp, -16
	st.d	$ra, $sp, 8                     # 8-byte Folded Spill
	pcaddu18i	$ra, %call36(__cxa_begin_catch)
	jirl	$ra, $ra, 0
	pcaddu18i	$ra, %call36(_ZSt9terminatev)
	jirl	$ra, $ra, 0
.Lfunc_end7:
	.size	__clang_call_terminate, .Lfunc_end7-__clang_call_terminate
                                        # -- End function
	.text
	.hidden	_ZN8internal14ResultsChecker10SetHeader_ERKNSt7__cxx1112basic_stringIcSt11char_traitsIcESaIcEEE # -- Begin function _ZN8internal14ResultsChecker10SetHeader_ERKNSt7__cxx1112basic_stringIcSt11char_traitsIcESaIcEEE
	.globl	_ZN8internal14ResultsChecker10SetHeader_ERKNSt7__cxx1112basic_stringIcSt11char_traitsIcESaIcEEE
	.p2align	2
	.type	_ZN8internal14ResultsChecker10SetHeader_ERKNSt7__cxx1112basic_stringIcSt11char_traitsIcESaIcEEE,@function
_ZN8internal14ResultsChecker10SetHeader_ERKNSt7__cxx1112basic_stringIcSt11char_traitsIcESaIcEEE: # @_ZN8internal14ResultsChecker10SetHeader_ERKNSt7__cxx1112basic_stringIcSt11char_traitsIcESaIcEEE
	.cfi_startproc
# %bb.0:                                # %entry
	addi.d	$sp, $sp, -80
	.cfi_def_cfa_offset 80
	st.d	$ra, $sp, 72                    # 8-byte Folded Spill
	st.d	$fp, $sp, 64                    # 8-byte Folded Spill
	st.d	$s0, $sp, 56                    # 8-byte Folded Spill
	st.d	$s1, $sp, 48                    # 8-byte Folded Spill
	st.d	$s2, $sp, 40                    # 8-byte Folded Spill
	.cfi_offset 1, -8
	.cfi_offset 22, -16
	.cfi_offset 23, -24
	.cfi_offset 24, -32
	.cfi_offset 25, -40
	move	$a2, $a1
	move	$s0, $a0
	addi.d	$a0, $sp, 16
	move	$a1, $s0
	pcaddu18i	$ra, %call36(_ZN8internal14ResultsChecker9SplitCsv_ERKNSt7__cxx1112basic_stringIcSt11char_traitsIcESaIcEEE)
	jirl	$ra, $ra, 0
	ld.d	$fp, $s0, 48
	vld	$vr0, $sp, 16
	ld.d	$a0, $sp, 32
	ld.d	$s2, $s0, 56
	ld.d	$s1, $s0, 64
	vst	$vr0, $s0, 48
	st.d	$a0, $s0, 64
	st.d	$zero, $sp, 32
	vrepli.b	$vr0, 0
	vst	$vr0, $sp, 16
	beq	$fp, $s2, .LBB8_5
# %bb.1:                                # %for.body.i.i.i.i.preheader
	addi.d	$s0, $fp, 16
	b	.LBB8_3
	.p2align	4, , 16
.LBB8_2:                                # %_ZSt8_DestroyINSt7__cxx1112basic_stringIcSt11char_traitsIcESaIcEEEEvPT_.exit.i.i.i.i
                                        #   in Loop: Header=BB8_3 Depth=1
	addi.d	$a0, $s0, 16
	addi.d	$s0, $s0, 32
	beq	$a0, $s2, .LBB8_5
.LBB8_3:                                # %for.body.i.i.i.i
                                        # =>This Inner Loop Header: Depth=1
	ld.d	$a0, $s0, -16
	beq	$s0, $a0, .LBB8_2
# %bb.4:                                # %if.then.i.i.i.i.i.i.i
                                        #   in Loop: Header=BB8_3 Depth=1
	ld.d	$a1, $s0, 0
	addi.d	$a1, $a1, 1
	pcaddu18i	$ra, %call36(_ZdlPvm)
	jirl	$ra, $ra, 0
	b	.LBB8_2
.LBB8_5:                                # %invoke.cont.i.i.i
	beqz	$fp, .LBB8_7
# %bb.6:                                # %if.then.i.i.i.i.i
	sub.d	$a1, $s1, $fp
	move	$a0, $fp
	pcaddu18i	$ra, %call36(_ZdlPvm)
	jirl	$ra, $ra, 0
.LBB8_7:                                # %_ZNSt6vectorINSt7__cxx1112basic_stringIcSt11char_traitsIcESaIcEEESaIS5_EEaSEOS7_.exit
	ld.d	$a0, $sp, 16
	ld.d	$fp, $sp, 24
	beq	$a0, $fp, .LBB8_13
# %bb.8:                                # %for.body.i.i.preheader
	addi.d	$s0, $a0, 16
	b	.LBB8_10
	.p2align	4, , 16
.LBB8_9:                                # %_ZSt8_DestroyINSt7__cxx1112basic_stringIcSt11char_traitsIcESaIcEEEEvPT_.exit.i.i
                                        #   in Loop: Header=BB8_10 Depth=1
	addi.d	$a0, $s0, 16
	addi.d	$s0, $s0, 32
	beq	$a0, $fp, .LBB8_12
.LBB8_10:                               # %for.body.i.i
                                        # =>This Inner Loop Header: Depth=1
	ld.d	$a0, $s0, -16
	beq	$s0, $a0, .LBB8_9
# %bb.11:                               # %if.then.i.i.i.i.i1
                                        #   in Loop: Header=BB8_10 Depth=1
	ld.d	$a1, $s0, 0
	addi.d	$a1, $a1, 1
	pcaddu18i	$ra, %call36(_ZdlPvm)
	jirl	$ra, $ra, 0
	b	.LBB8_9
.LBB8_12:                               # %invoke.contthread-pre-split.i
	ld.d	$a0, $sp, 16
.LBB8_13:                               # %invoke.cont.i
	beqz	$a0, .LBB8_15
# %bb.14:                               # %if.then.i.i.i
	ld.d	$a1, $sp, 32
	sub.d	$a1, $a1, $a0
	pcaddu18i	$ra, %call36(_ZdlPvm)
	jirl	$ra, $ra, 0
.LBB8_15:                               # %_ZNSt6vectorINSt7__cxx1112basic_stringIcSt11char_traitsIcESaIcEEESaIS5_EED2Ev.exit
	ld.d	$s2, $sp, 40                    # 8-byte Folded Reload
	ld.d	$s1, $sp, 48                    # 8-byte Folded Reload
	ld.d	$s0, $sp, 56                    # 8-byte Folded Reload
	ld.d	$fp, $sp, 64                    # 8-byte Folded Reload
	ld.d	$ra, $sp, 72                    # 8-byte Folded Reload
	addi.d	$sp, $sp, 80
	ret
.Lfunc_end8:
	.size	_ZN8internal14ResultsChecker10SetHeader_ERKNSt7__cxx1112basic_stringIcSt11char_traitsIcESaIcEEE, .Lfunc_end8-_ZN8internal14ResultsChecker10SetHeader_ERKNSt7__cxx1112basic_stringIcSt11char_traitsIcESaIcEEE
	.cfi_endproc
                                        # -- End function
	.hidden	_ZN8internal14ResultsChecker10SetValues_ERKNSt7__cxx1112basic_stringIcSt11char_traitsIcESaIcEEE # -- Begin function _ZN8internal14ResultsChecker10SetValues_ERKNSt7__cxx1112basic_stringIcSt11char_traitsIcESaIcEEE
	.globl	_ZN8internal14ResultsChecker10SetValues_ERKNSt7__cxx1112basic_stringIcSt11char_traitsIcESaIcEEE
	.p2align	2
	.type	_ZN8internal14ResultsChecker10SetValues_ERKNSt7__cxx1112basic_stringIcSt11char_traitsIcESaIcEEE,@function
_ZN8internal14ResultsChecker10SetValues_ERKNSt7__cxx1112basic_stringIcSt11char_traitsIcESaIcEEE: # @_ZN8internal14ResultsChecker10SetValues_ERKNSt7__cxx1112basic_stringIcSt11char_traitsIcESaIcEEE
.Lfunc_begin3:
	.cfi_startproc
	.cfi_personality 155, DW.ref.__gxx_personality_v0
	.cfi_lsda 27, .Lexception3
# %bb.0:                                # %entry
	addi.d	$sp, $sp, -96
	.cfi_def_cfa_offset 96
	st.d	$ra, $sp, 88                    # 8-byte Folded Spill
	st.d	$fp, $sp, 80                    # 8-byte Folded Spill
	st.d	$s0, $sp, 72                    # 8-byte Folded Spill
	st.d	$s1, $sp, 64                    # 8-byte Folded Spill
	st.d	$s2, $sp, 56                    # 8-byte Folded Spill
	st.d	$s3, $sp, 48                    # 8-byte Folded Spill
	.cfi_offset 1, -8
	.cfi_offset 22, -16
	.cfi_offset 23, -24
	.cfi_offset 24, -32
	.cfi_offset 25, -40
	.cfi_offset 26, -48
	move	$s0, $a1
	ld.d	$a1, $a1, 8
	beqz	$a1, .LBB9_30
# %bb.1:                                # %if.end
	move	$fp, $a0
	ld.d	$a0, $a0, 48
	ld.d	$a1, $fp, 56
	beq	$a0, $a1, .LBB9_31
# %bb.2:                                # %cond.true
	pcalau12i	$s1, %pc_hi20(_ZGVZN9benchmark8internal18GetNullLogInstanceEvE8null_log)
	ld.b	$a0, $s1, %pc_lo12(_ZGVZN9benchmark8internal18GetNullLogInstanceEvE8null_log)
	dbar	20
	beqz	$a0, .LBB9_32
.LBB9_3:                                # %cleanup.done12
	addi.d	$a0, $sp, 16
	move	$a1, $fp
	move	$a2, $s0
	pcaddu18i	$ra, %call36(_ZN8internal14ResultsChecker9SplitCsv_ERKNSt7__cxx1112basic_stringIcSt11char_traitsIcESaIcEEE)
	jirl	$ra, $ra, 0
	ld.d	$a0, $sp, 24
	ld.d	$a1, $sp, 16
	ld.d	$a2, $fp, 56
	ld.d	$a3, $fp, 48
	sub.d	$a0, $a0, $a1
	srai.d	$a0, $a0, 5
	sub.d	$a1, $a2, $a3
	srai.d	$a1, $a1, 5
	bne	$a0, $a1, .LBB9_34
# %bb.4:                                # %cond.true19
	ld.b	$a0, $s1, %pc_lo12(_ZGVZN9benchmark8internal18GetNullLogInstanceEvE8null_log)
	dbar	20
	beqz	$a0, .LBB9_37
.LBB9_5:                                # %cleanup.done44
	ld.d	$s0, $fp, 32
	ld.d	$a0, $fp, 40
	ld.d	$a1, $sp, 16
	beq	$s0, $a0, .LBB9_12
# %bb.6:                                # %if.then.i
	addi.d	$a0, $s0, 16
	st.d	$a0, $s0, 0
	ld.d	$a2, $a1, 8
	ld.d	$s1, $a1, 0
	ori	$a1, $zero, 16
	st.d	$a2, $sp, 40
	bltu	$a2, $a1, .LBB9_9
# %bb.7:                                # %if.then.i.i.i.i
.Ltmp137:                               # EH_LABEL
	addi.d	$a1, $sp, 40
	move	$a0, $s0
	move	$a2, $zero
	pcaddu18i	$ra, %call36(_ZNSt7__cxx1112basic_stringIcSt11char_traitsIcESaIcEE9_M_createERmm)
	jirl	$ra, $ra, 0
.Ltmp138:                               # EH_LABEL
# %bb.8:                                # %call.i4.i.i.i.noexc
	st.d	$a0, $s0, 0
	ld.d	$a2, $sp, 40
	st.d	$a2, $s0, 16
.LBB9_9:                                # %if.end.i.i.i.i
	addi.w	$a1, $zero, -1
	beq	$a2, $a1, .LBB9_15
# %bb.10:                               # %if.end.i.i.i.i
	bnez	$a2, .LBB9_14
# %bb.11:                               # %if.then.i.i.i.i.i
	ld.b	$a1, $s1, 0
	st.b	$a1, $a0, 0
	b	.LBB9_15
.LBB9_12:                               # %if.else.i
	addi.d	$a0, $fp, 24
.Ltmp139:                               # EH_LABEL
	pcaddu18i	$ra, %call36(_ZNSt6vectorI7ResultsSaIS0_EE17_M_realloc_appendIJRNSt7__cxx1112basic_stringIcSt11char_traitsIcESaIcEEEEEEvDpOT_)
	jirl	$ra, $ra, 0
.Ltmp140:                               # EH_LABEL
# %bb.13:                               # %if.else.i.invoke.cont49_crit_edge
	ld.d	$a1, $fp, 32
	b	.LBB9_16
.LBB9_14:                               # %if.end.i.i.i.i.i.i
	addi.d	$a2, $a2, 1
	move	$a1, $s1
	pcaddu18i	$ra, %call36(memcpy)
	jirl	$ra, $ra, 0
.LBB9_15:                               # %_ZN7ResultsC2ERKNSt7__cxx1112basic_stringIcSt11char_traitsIcESaIcEEE.exit.i
	ld.d	$a0, $sp, 40
	st.d	$a0, $s0, 8
	addi.d	$a0, $s0, 40
	st.w	$zero, $s0, 40
	st.d	$zero, $s0, 48
	st.d	$a0, $s0, 56
	st.d	$a0, $s0, 64
	st.d	$zero, $s0, 72
	ld.d	$a0, $fp, 32
	addi.d	$a1, $a0, 80
	st.d	$a1, $fp, 32
.LBB9_16:                               # %invoke.cont49
	ld.d	$s0, $sp, 24
	ld.d	$a0, $sp, 16
	sub.d	$a2, $s0, $a0
	srai.d	$a2, $a2, 5
	ori	$a3, $zero, 2
	bltu	$a2, $a3, .LBB9_22
# %bb.17:                               # %for.body.lr.ph
	addi.d	$s0, $a1, -48
	slli.d	$s1, $a2, 5
	ori	$s2, $zero, 32
	.p2align	4, , 16
.LBB9_18:                               # %for.body
                                        # =>This Inner Loop Header: Depth=1
	ld.d	$a0, $fp, 48
	ld.d	$s3, $sp, 16
	add.d	$a1, $a0, $s2
.Ltmp142:                               # EH_LABEL
	move	$a0, $s0
	pcaddu18i	$ra, %call36(_ZNSt3mapINSt7__cxx1112basic_stringIcSt11char_traitsIcESaIcEEES5_St4lessIS5_ESaISt4pairIKS5_S5_EEEixERS9_)
	jirl	$ra, $ra, 0
.Ltmp143:                               # EH_LABEL
# %bb.19:                               # %invoke.cont60
                                        #   in Loop: Header=BB9_18 Depth=1
	add.d	$a1, $s3, $s2
.Ltmp144:                               # EH_LABEL
	pcaddu18i	$ra, %call36(_ZNSt7__cxx1112basic_stringIcSt11char_traitsIcESaIcEE9_M_assignERKS4_)
	jirl	$ra, $ra, 0
.Ltmp145:                               # EH_LABEL
# %bb.20:                               # %for.inc
                                        #   in Loop: Header=BB9_18 Depth=1
	addi.d	$s2, $s2, 32
	bne	$s1, $s2, .LBB9_18
# %bb.21:                               # %for.cond.cleanup.loopexit
	ld.d	$a0, $sp, 16
	ld.d	$s0, $sp, 24
.LBB9_22:                               # %for.cond.cleanup
	beq	$a0, $s0, .LBB9_28
# %bb.23:                               # %for.body.i.i.preheader
	addi.d	$fp, $a0, 16
	b	.LBB9_25
	.p2align	4, , 16
.LBB9_24:                               # %_ZSt8_DestroyINSt7__cxx1112basic_stringIcSt11char_traitsIcESaIcEEEEvPT_.exit.i.i
                                        #   in Loop: Header=BB9_25 Depth=1
	addi.d	$a0, $fp, 16
	addi.d	$fp, $fp, 32
	beq	$a0, $s0, .LBB9_27
.LBB9_25:                               # %for.body.i.i
                                        # =>This Inner Loop Header: Depth=1
	ld.d	$a0, $fp, -16
	beq	$fp, $a0, .LBB9_24
# %bb.26:                               # %if.then.i.i.i.i.i27
                                        #   in Loop: Header=BB9_25 Depth=1
	ld.d	$a1, $fp, 0
	addi.d	$a1, $a1, 1
	pcaddu18i	$ra, %call36(_ZdlPvm)
	jirl	$ra, $ra, 0
	b	.LBB9_24
.LBB9_27:                               # %invoke.contthread-pre-split.i
	ld.d	$a0, $sp, 16
.LBB9_28:                               # %invoke.cont.i
	beqz	$a0, .LBB9_30
# %bb.29:                               # %if.then.i.i.i
	ld.d	$a1, $sp, 32
	sub.d	$a1, $a1, $a0
	pcaddu18i	$ra, %call36(_ZdlPvm)
	jirl	$ra, $ra, 0
.LBB9_30:                               # %return
	ld.d	$s3, $sp, 48                    # 8-byte Folded Reload
	ld.d	$s2, $sp, 56                    # 8-byte Folded Reload
	ld.d	$s1, $sp, 64                    # 8-byte Folded Reload
	ld.d	$s0, $sp, 72                    # 8-byte Folded Reload
	ld.d	$fp, $sp, 80                    # 8-byte Folded Reload
	ld.d	$ra, $sp, 88                    # 8-byte Folded Reload
	addi.d	$sp, $sp, 96
	ret
.LBB9_31:                               # %cleanup.action
	pcalau12i	$a0, %pc_hi20(.L.str.13)
	addi.d	$a1, $a0, %pc_lo12(.L.str.13)
	pcalau12i	$a0, %pc_hi20(.L.str.1)
	addi.d	$a2, $a0, %pc_lo12(.L.str.1)
	pcalau12i	$a0, %pc_hi20(.L__func__._ZN8internal14ResultsChecker10SetValues_ERKNSt7__cxx1112basic_stringIcSt11char_traitsIcESaIcEEE)
	addi.d	$a3, $a0, %pc_lo12(.L__func__._ZN8internal14ResultsChecker10SetValues_ERKNSt7__cxx1112basic_stringIcSt11char_traitsIcESaIcEEE)
	addi.d	$a0, $sp, 16
	ori	$a4, $zero, 269
	pcaddu18i	$ra, %call36(_ZN9benchmark8internal12CheckHandlerC2EPKcS3_S3_i)
	jirl	$ra, $ra, 0
	addi.d	$a0, $sp, 16
	pcaddu18i	$ra, %call36(_ZN9benchmark8internal12CheckHandlerD2Ev)
	jirl	$ra, $ra, 0
.LBB9_32:                               # %init.check.i
	pcalau12i	$a0, %pc_hi20(_ZGVZN9benchmark8internal18GetNullLogInstanceEvE8null_log)
	addi.d	$a0, $a0, %pc_lo12(_ZGVZN9benchmark8internal18GetNullLogInstanceEvE8null_log)
	pcaddu18i	$ra, %call36(__cxa_guard_acquire)
	jirl	$ra, $ra, 0
	addi.w	$a0, $a0, 0
	beqz	$a0, .LBB9_3
# %bb.33:                               # %init.i
	pcalau12i	$a0, %pc_hi20(_ZZN9benchmark8internal18GetNullLogInstanceEvE8null_log)
	st.d	$zero, $a0, %pc_lo12(_ZZN9benchmark8internal18GetNullLogInstanceEvE8null_log)
	pcalau12i	$a0, %pc_hi20(_ZGVZN9benchmark8internal18GetNullLogInstanceEvE8null_log)
	addi.d	$a0, $a0, %pc_lo12(_ZGVZN9benchmark8internal18GetNullLogInstanceEvE8null_log)
	pcaddu18i	$ra, %call36(__cxa_guard_release)
	jirl	$ra, $ra, 0
	b	.LBB9_3
.LBB9_34:                               # %cond.false23
.Ltmp132:                               # EH_LABEL
	pcalau12i	$a0, %pc_hi20(.L.str.14)
	addi.d	$a1, $a0, %pc_lo12(.L.str.14)
	pcalau12i	$a0, %pc_hi20(.L.str.1)
	addi.d	$a2, $a0, %pc_lo12(.L.str.1)
	pcalau12i	$a0, %pc_hi20(.L__func__._ZN8internal14ResultsChecker10SetValues_ERKNSt7__cxx1112basic_stringIcSt11char_traitsIcESaIcEEE)
	addi.d	$a3, $a0, %pc_lo12(.L__func__._ZN8internal14ResultsChecker10SetValues_ERKNSt7__cxx1112basic_stringIcSt11char_traitsIcESaIcEEE)
	addi.d	$a0, $sp, 40
	ori	$a4, $zero, 271
	pcaddu18i	$ra, %call36(_ZN9benchmark8internal12CheckHandlerC2EPKcS3_S3_i)
	jirl	$ra, $ra, 0
.Ltmp133:                               # EH_LABEL
# %bb.35:                               # %cleanup.action35
.Ltmp134:                               # EH_LABEL
	addi.d	$a0, $sp, 40
	pcaddu18i	$ra, %call36(_ZN9benchmark8internal12CheckHandlerD2Ev)
	jirl	$ra, $ra, 0
.Ltmp135:                               # EH_LABEL
# %bb.36:                               # %invoke.cont36
.LBB9_37:                               # %init.check.i13
	pcalau12i	$a0, %pc_hi20(_ZGVZN9benchmark8internal18GetNullLogInstanceEvE8null_log)
	addi.d	$a0, $a0, %pc_lo12(_ZGVZN9benchmark8internal18GetNullLogInstanceEvE8null_log)
	pcaddu18i	$ra, %call36(__cxa_guard_acquire)
	jirl	$ra, $ra, 0
	addi.w	$a0, $a0, 0
	beqz	$a0, .LBB9_5
# %bb.38:                               # %init.i15
	pcalau12i	$a0, %pc_hi20(_ZZN9benchmark8internal18GetNullLogInstanceEvE8null_log)
	st.d	$zero, $a0, %pc_lo12(_ZZN9benchmark8internal18GetNullLogInstanceEvE8null_log)
	pcalau12i	$a0, %pc_hi20(_ZGVZN9benchmark8internal18GetNullLogInstanceEvE8null_log)
	addi.d	$a0, $a0, %pc_lo12(_ZGVZN9benchmark8internal18GetNullLogInstanceEvE8null_log)
	pcaddu18i	$ra, %call36(__cxa_guard_release)
	jirl	$ra, $ra, 0
	b	.LBB9_5
.LBB9_39:                               # %lpad20
.Ltmp141:                               # EH_LABEL
	b	.LBB9_42
.LBB9_40:                               # %lpad26
.Ltmp136:                               # EH_LABEL
	b	.LBB9_42
.LBB9_41:                               # %lpad59
.Ltmp146:                               # EH_LABEL
.LBB9_42:                               # %ehcleanup67
	move	$fp, $a0
	addi.d	$a0, $sp, 16
	pcaddu18i	$ra, %call36(_ZNSt6vectorINSt7__cxx1112basic_stringIcSt11char_traitsIcESaIcEEESaIS5_EED2Ev)
	jirl	$ra, $ra, 0
	move	$a0, $fp
	pcaddu18i	$ra, %call36(_Unwind_Resume)
	jirl	$ra, $ra, 0
.Lfunc_end9:
	.size	_ZN8internal14ResultsChecker10SetValues_ERKNSt7__cxx1112basic_stringIcSt11char_traitsIcESaIcEEE, .Lfunc_end9-_ZN8internal14ResultsChecker10SetValues_ERKNSt7__cxx1112basic_stringIcSt11char_traitsIcESaIcEEE
	.cfi_endproc
	.section	.gcc_except_table,"a",@progbits
	.p2align	2, 0x0
GCC_except_table9:
.Lexception3:
	.byte	255                             # @LPStart Encoding = omit
	.byte	255                             # @TType Encoding = omit
	.byte	1                               # Call site Encoding = uleb128
	.uleb128 .Lcst_end3-.Lcst_begin3
.Lcst_begin3:
	.uleb128 .Lfunc_begin3-.Lfunc_begin3    # >> Call Site 1 <<
	.uleb128 .Ltmp137-.Lfunc_begin3         #   Call between .Lfunc_begin3 and .Ltmp137
	.byte	0                               #     has no landing pad
	.byte	0                               #   On action: cleanup
	.uleb128 .Ltmp137-.Lfunc_begin3         # >> Call Site 2 <<
	.uleb128 .Ltmp140-.Ltmp137              #   Call between .Ltmp137 and .Ltmp140
	.uleb128 .Ltmp141-.Lfunc_begin3         #     jumps to .Ltmp141
	.byte	0                               #   On action: cleanup
	.uleb128 .Ltmp140-.Lfunc_begin3         # >> Call Site 3 <<
	.uleb128 .Ltmp142-.Ltmp140              #   Call between .Ltmp140 and .Ltmp142
	.byte	0                               #     has no landing pad
	.byte	0                               #   On action: cleanup
	.uleb128 .Ltmp142-.Lfunc_begin3         # >> Call Site 4 <<
	.uleb128 .Ltmp145-.Ltmp142              #   Call between .Ltmp142 and .Ltmp145
	.uleb128 .Ltmp146-.Lfunc_begin3         #     jumps to .Ltmp146
	.byte	0                               #   On action: cleanup
	.uleb128 .Ltmp145-.Lfunc_begin3         # >> Call Site 5 <<
	.uleb128 .Ltmp132-.Ltmp145              #   Call between .Ltmp145 and .Ltmp132
	.byte	0                               #     has no landing pad
	.byte	0                               #   On action: cleanup
	.uleb128 .Ltmp132-.Lfunc_begin3         # >> Call Site 6 <<
	.uleb128 .Ltmp135-.Ltmp132              #   Call between .Ltmp132 and .Ltmp135
	.uleb128 .Ltmp136-.Lfunc_begin3         #     jumps to .Ltmp136
	.byte	0                               #   On action: cleanup
	.uleb128 .Ltmp135-.Lfunc_begin3         # >> Call Site 7 <<
	.uleb128 .Lfunc_end9-.Ltmp135           #   Call between .Ltmp135 and .Lfunc_end9
	.byte	0                               #     has no landing pad
	.byte	0                               #   On action: cleanup
.Lcst_end3:
	.p2align	2, 0x0
                                        # -- End function
	.section	.text._ZN9benchmark8internallsINSt7__cxx1112basic_stringIcSt11char_traitsIcESaIcEEEEERNS0_7LogTypeES9_RKT_,"axG",@progbits,_ZN9benchmark8internallsINSt7__cxx1112basic_stringIcSt11char_traitsIcESaIcEEEEERNS0_7LogTypeES9_RKT_,comdat
	.hidden	_ZN9benchmark8internallsINSt7__cxx1112basic_stringIcSt11char_traitsIcESaIcEEEEERNS0_7LogTypeES9_RKT_ # -- Begin function _ZN9benchmark8internallsINSt7__cxx1112basic_stringIcSt11char_traitsIcESaIcEEEEERNS0_7LogTypeES9_RKT_
	.weak	_ZN9benchmark8internallsINSt7__cxx1112basic_stringIcSt11char_traitsIcESaIcEEEEERNS0_7LogTypeES9_RKT_
	.p2align	5
	.type	_ZN9benchmark8internallsINSt7__cxx1112basic_stringIcSt11char_traitsIcESaIcEEEEERNS0_7LogTypeES9_RKT_,@function
_ZN9benchmark8internallsINSt7__cxx1112basic_stringIcSt11char_traitsIcESaIcEEEEERNS0_7LogTypeES9_RKT_: # @_ZN9benchmark8internallsINSt7__cxx1112basic_stringIcSt11char_traitsIcESaIcEEEEERNS0_7LogTypeES9_RKT_
	.cfi_startproc
# %bb.0:                                # %entry
	ld.d	$a4, $a0, 0
	beqz	$a4, .LBB10_2
# %bb.1:                                # %if.then
	addi.d	$sp, $sp, -16
	.cfi_def_cfa_offset 16
	st.d	$ra, $sp, 8                     # 8-byte Folded Spill
	st.d	$fp, $sp, 0                     # 8-byte Folded Spill
	.cfi_offset 1, -8
	.cfi_offset 22, -16
	ld.d	$a3, $a1, 0
	ld.d	$a2, $a1, 8
	move	$fp, $a0
	move	$a0, $a4
	move	$a1, $a3
	pcaddu18i	$ra, %call36(_ZSt16__ostream_insertIcSt11char_traitsIcEERSt13basic_ostreamIT_T0_ES6_PKS3_l)
	jirl	$ra, $ra, 0
	move	$a0, $fp
	ld.d	$fp, $sp, 0                     # 8-byte Folded Reload
	ld.d	$ra, $sp, 8                     # 8-byte Folded Reload
	addi.d	$sp, $sp, 16
.LBB10_2:                               # %if.end
	ret
.Lfunc_end10:
	.size	_ZN9benchmark8internallsINSt7__cxx1112basic_stringIcSt11char_traitsIcESaIcEEEEERNS0_7LogTypeES9_RKT_, .Lfunc_end10-_ZN9benchmark8internallsINSt7__cxx1112basic_stringIcSt11char_traitsIcESaIcEEEEERNS0_7LogTypeES9_RKT_
	.cfi_endproc
                                        # -- End function
	.section	.text._ZN9benchmark8internallsIA20_cEERNS0_7LogTypeES4_RKT_,"axG",@progbits,_ZN9benchmark8internallsIA20_cEERNS0_7LogTypeES4_RKT_,comdat
	.hidden	_ZN9benchmark8internallsIA20_cEERNS0_7LogTypeES4_RKT_ # -- Begin function _ZN9benchmark8internallsIA20_cEERNS0_7LogTypeES4_RKT_
	.weak	_ZN9benchmark8internallsIA20_cEERNS0_7LogTypeES4_RKT_
	.p2align	5
	.type	_ZN9benchmark8internallsIA20_cEERNS0_7LogTypeES4_RKT_,@function
_ZN9benchmark8internallsIA20_cEERNS0_7LogTypeES4_RKT_: # @_ZN9benchmark8internallsIA20_cEERNS0_7LogTypeES4_RKT_
	.cfi_startproc
# %bb.0:                                # %entry
	addi.d	$sp, $sp, -32
	.cfi_def_cfa_offset 32
	st.d	$ra, $sp, 24                    # 8-byte Folded Spill
	st.d	$fp, $sp, 16                    # 8-byte Folded Spill
	st.d	$s0, $sp, 8                     # 8-byte Folded Spill
	st.d	$s1, $sp, 0                     # 8-byte Folded Spill
	.cfi_offset 1, -8
	.cfi_offset 22, -16
	.cfi_offset 23, -24
	.cfi_offset 24, -32
	ld.d	$fp, $a0, 0
	beqz	$fp, .LBB11_2
# %bb.1:                                # %if.then
	move	$s1, $a0
	move	$a0, $a1
	move	$s0, $a1
	pcaddu18i	$ra, %call36(strlen)
	jirl	$ra, $ra, 0
	move	$a2, $a0
	move	$a0, $fp
	move	$a1, $s0
	pcaddu18i	$ra, %call36(_ZSt16__ostream_insertIcSt11char_traitsIcEERSt13basic_ostreamIT_T0_ES6_PKS3_l)
	jirl	$ra, $ra, 0
	move	$a0, $s1
.LBB11_2:                               # %if.end
	ld.d	$s1, $sp, 0                     # 8-byte Folded Reload
	ld.d	$s0, $sp, 8                     # 8-byte Folded Reload
	ld.d	$fp, $sp, 16                    # 8-byte Folded Reload
	ld.d	$ra, $sp, 24                    # 8-byte Folded Reload
	addi.d	$sp, $sp, 32
	ret
.Lfunc_end11:
	.size	_ZN9benchmark8internallsIA20_cEERNS0_7LogTypeES4_RKT_, .Lfunc_end11-_ZN9benchmark8internallsIA20_cEERNS0_7LogTypeES4_RKT_
	.cfi_endproc
                                        # -- End function
	.text
	.hidden	_ZN8internal14ResultsChecker9SplitCsv_ERKNSt7__cxx1112basic_stringIcSt11char_traitsIcESaIcEEE # -- Begin function _ZN8internal14ResultsChecker9SplitCsv_ERKNSt7__cxx1112basic_stringIcSt11char_traitsIcESaIcEEE
	.globl	_ZN8internal14ResultsChecker9SplitCsv_ERKNSt7__cxx1112basic_stringIcSt11char_traitsIcESaIcEEE
	.p2align	2
	.type	_ZN8internal14ResultsChecker9SplitCsv_ERKNSt7__cxx1112basic_stringIcSt11char_traitsIcESaIcEEE,@function
_ZN8internal14ResultsChecker9SplitCsv_ERKNSt7__cxx1112basic_stringIcSt11char_traitsIcESaIcEEE: # @_ZN8internal14ResultsChecker9SplitCsv_ERKNSt7__cxx1112basic_stringIcSt11char_traitsIcESaIcEEE
.Lfunc_begin4:
	.cfi_startproc
	.cfi_personality 155, DW.ref.__gxx_personality_v0
	.cfi_lsda 27, .Lexception4
# %bb.0:                                # %entry
	addi.d	$sp, $sp, -144
	.cfi_def_cfa_offset 144
	st.d	$ra, $sp, 136                   # 8-byte Folded Spill
	st.d	$fp, $sp, 128                   # 8-byte Folded Spill
	st.d	$s0, $sp, 120                   # 8-byte Folded Spill
	st.d	$s1, $sp, 112                   # 8-byte Folded Spill
	st.d	$s2, $sp, 104                   # 8-byte Folded Spill
	st.d	$s3, $sp, 96                    # 8-byte Folded Spill
	st.d	$s4, $sp, 88                    # 8-byte Folded Spill
	st.d	$s5, $sp, 80                    # 8-byte Folded Spill
	st.d	$s6, $sp, 72                    # 8-byte Folded Spill
	st.d	$s7, $sp, 64                    # 8-byte Folded Spill
	st.d	$s8, $sp, 56                    # 8-byte Folded Spill
	.cfi_offset 1, -8
	.cfi_offset 22, -16
	.cfi_offset 23, -24
	.cfi_offset 24, -32
	.cfi_offset 25, -40
	.cfi_offset 26, -48
	.cfi_offset 27, -56
	.cfi_offset 28, -64
	.cfi_offset 29, -72
	.cfi_offset 30, -80
	.cfi_offset 31, -88
	move	$s0, $a2
	ld.d	$a2, $a2, 8
	st.d	$zero, $a0, 16
	vrepli.b	$vr0, 0
	vst	$vr0, $a0, 0
	beqz	$a2, .LBB12_42
# %bb.1:                                # %if.end
	move	$fp, $a0
	ld.d	$a0, $a1, 48
	ld.d	$a1, $a1, 56
	beq	$a0, $a1, .LBB12_3
# %bb.2:                                # %if.then3
	sub.d	$a0, $a1, $a0
	srai.d	$a1, $a0, 5
.Ltmp147:                               # EH_LABEL
	move	$a0, $fp
	pcaddu18i	$ra, %call36(_ZNSt6vectorINSt7__cxx1112basic_stringIcSt11char_traitsIcESaIcEEESaIS5_EE7reserveEm)
	jirl	$ra, $ra, 0
.Ltmp148:                               # EH_LABEL
.LBB12_3:                               # %if.end6
	ori	$a1, $zero, 44
	move	$a0, $s0
	move	$a2, $zero
	pcaddu18i	$ra, %call36(_ZNKSt7__cxx1112basic_stringIcSt11char_traitsIcESaIcEE4findEcm)
	jirl	$ra, $ra, 0
	move	$s2, $a0
	move	$s4, $zero
	addi.d	$s1, $sp, 32
	addi.w	$s6, $zero, -1
	pcalau12i	$a0, %pc_hi20(_ZGVZN9benchmark8internal18GetNullLogInstanceEvE8null_log)
	addi.d	$s3, $a0, %pc_lo12(_ZGVZN9benchmark8internal18GetNullLogInstanceEvE8null_log)
	pcalau12i	$a0, %pc_hi20(_ZZN9benchmark8internal18GetNullLogInstanceEvE8null_log)
	st.d	$a0, $sp, 8                     # 8-byte Folded Spill
	ori	$s8, $zero, 16
	b	.LBB12_7
	.p2align	4, , 16
.LBB12_4:                               # %if.else.i.i.i
                                        #   in Loop: Header=BB12_7 Depth=1
	st.d	$a1, $s4, 0
	ld.d	$a0, $sp, 32
	ld.d	$s5, $sp, 24
	st.d	$a0, $s4, 16
.LBB12_5:                               # %invoke.cont43.thread
                                        #   in Loop: Header=BB12_7 Depth=1
	st.d	$s5, $s4, 8
	ld.d	$a0, $fp, 8
	st.d	$s1, $sp, 16
	st.d	$zero, $sp, 24
	addi.d	$a0, $a0, 32
	st.d	$a0, $fp, 8
.LBB12_6:                               # %_ZNSt7__cxx1112basic_stringIcSt11char_traitsIcESaIcEED2Ev.exit
                                        #   in Loop: Header=BB12_7 Depth=1
	addi.d	$s4, $s2, 1
	ori	$a1, $zero, 44
	move	$a0, $s0
	move	$a2, $s4
	pcaddu18i	$ra, %call36(_ZNKSt7__cxx1112basic_stringIcSt11char_traitsIcESaIcEE4findEcm)
	jirl	$ra, $ra, 0
	move	$s2, $a0
.LBB12_7:                               # %while.cond
                                        # =>This Inner Loop Header: Depth=1
	beq	$s2, $s6, .LBB12_26
# %bb.8:                                # %while.cond
                                        #   in Loop: Header=BB12_7 Depth=1
	beqz	$s2, .LBB12_43
# %bb.9:                                # %cond.true
                                        #   in Loop: Header=BB12_7 Depth=1
	ld.b	$a0, $s3, 0
	dbar	20
	beqz	$a0, .LBB12_24
.LBB12_10:                              # %cleanup.done25
                                        #   in Loop: Header=BB12_7 Depth=1
	ld.d	$s7, $s0, 0
	ldx.bu	$a0, $s7, $s4
	ld.d	$a3, $s0, 8
	addi.d	$a0, $a0, -34
	sltui	$a0, $a0, 1
	add.d	$s4, $s4, $a0
	bltu	$a3, $s4, .LBB12_46
# %bb.11:                               # %invoke.cont4.i.i
                                        #   in Loop: Header=BB12_7 Depth=1
	addi.d	$a0, $s2, -1
	ldx.bu	$a1, $s7, $a0
	addi.d	$a1, $a1, -34
	sltui	$a1, $a1, 1
	masknez	$a2, $s2, $a1
	maskeqz	$a0, $a0, $a1
	or	$a0, $a0, $a2
	sub.d	$a0, $a0, $s4
	st.d	$s1, $sp, 16
	sub.d	$a1, $a3, $s4
	sltu	$a2, $a0, $a1
	maskeqz	$a0, $a0, $a2
	masknez	$a1, $a1, $a2
	or	$s5, $a0, $a1
	st.d	$s5, $sp, 48
	move	$a0, $s1
	bltu	$s5, $s8, .LBB12_14
# %bb.12:                               # %if.then.i8.i.i
                                        #   in Loop: Header=BB12_7 Depth=1
.Ltmp163:                               # EH_LABEL
	addi.d	$a0, $sp, 16
	addi.d	$a1, $sp, 48
	move	$a2, $zero
	pcaddu18i	$ra, %call36(_ZNSt7__cxx1112basic_stringIcSt11char_traitsIcESaIcEE9_M_createERmm)
	jirl	$ra, $ra, 0
.Ltmp164:                               # EH_LABEL
# %bb.13:                               # %call2.i9.i.i.noexc
                                        #   in Loop: Header=BB12_7 Depth=1
	ld.d	$a1, $sp, 48
	st.d	$a0, $sp, 16
	st.d	$a1, $sp, 32
.LBB12_14:                              # %if.end.i.i.i
                                        #   in Loop: Header=BB12_7 Depth=1
	beqz	$s5, .LBB12_18
# %bb.15:                               # %if.end.i.i.i
                                        #   in Loop: Header=BB12_7 Depth=1
	add.d	$a1, $s7, $s4
	ori	$a2, $zero, 1
	bne	$s5, $a2, .LBB12_17
# %bb.16:                               # %if.then.i.i.i.i.i
                                        #   in Loop: Header=BB12_7 Depth=1
	ld.b	$a1, $a1, 0
	st.b	$a1, $a0, 0
	b	.LBB12_18
	.p2align	4, , 16
.LBB12_17:                              # %if.end.i.i.i.i.i.i
                                        #   in Loop: Header=BB12_7 Depth=1
	move	$a2, $s5
	pcaddu18i	$ra, %call36(memcpy)
	jirl	$ra, $ra, 0
.LBB12_18:                              # %invoke.cont41
                                        #   in Loop: Header=BB12_7 Depth=1
	ld.d	$a0, $sp, 48
	ld.d	$a1, $sp, 16
	st.d	$a0, $sp, 24
	stx.b	$zero, $a1, $a0
	ld.d	$s4, $fp, 8
	ld.d	$a0, $fp, 16
	beq	$s4, $a0, .LBB12_21
# %bb.19:                               # %if.then.i.i37
                                        #   in Loop: Header=BB12_7 Depth=1
	addi.d	$a0, $s4, 16
	st.d	$a0, $s4, 0
	ld.d	$a1, $sp, 16
	bne	$a1, $s1, .LBB12_4
# %bb.20:                               # %_ZNSt11char_traitsIcE4copyEPcPKcm.exit.i.i.i
                                        #   in Loop: Header=BB12_7 Depth=1
	ld.d	$s5, $sp, 24
	addi.d	$a2, $s5, 1
	move	$a1, $s1
	pcaddu18i	$ra, %call36(memcpy)
	jirl	$ra, $ra, 0
	b	.LBB12_5
	.p2align	4, , 16
.LBB12_21:                              # %if.else.i.i
                                        #   in Loop: Header=BB12_7 Depth=1
.Ltmp166:                               # EH_LABEL
	addi.d	$a1, $sp, 16
	move	$a0, $fp
	pcaddu18i	$ra, %call36(_ZNSt6vectorINSt7__cxx1112basic_stringIcSt11char_traitsIcESaIcEEESaIS5_EE17_M_realloc_appendIJS5_EEEvDpOT_)
	jirl	$ra, $ra, 0
.Ltmp167:                               # EH_LABEL
# %bb.22:                               # %invoke.cont43
                                        #   in Loop: Header=BB12_7 Depth=1
	ld.d	$a0, $sp, 16
	beq	$a0, $s1, .LBB12_6
# %bb.23:                               # %if.then.i.i40
                                        #   in Loop: Header=BB12_7 Depth=1
	ld.d	$a1, $sp, 32
	addi.d	$a1, $a1, 1
	pcaddu18i	$ra, %call36(_ZdlPvm)
	jirl	$ra, $ra, 0
	b	.LBB12_6
.LBB12_24:                              # %init.check.i
                                        #   in Loop: Header=BB12_7 Depth=1
	move	$a0, $s3
	pcaddu18i	$ra, %call36(__cxa_guard_acquire)
	jirl	$ra, $ra, 0
	addi.w	$a0, $a0, 0
	beqz	$a0, .LBB12_10
# %bb.25:                               # %init.i
                                        #   in Loop: Header=BB12_7 Depth=1
	ld.d	$a0, $sp, 8                     # 8-byte Folded Reload
	st.d	$zero, $a0, %pc_lo12(_ZZN9benchmark8internal18GetNullLogInstanceEvE8null_log)
	move	$a0, $s3
	pcaddu18i	$ra, %call36(__cxa_guard_release)
	jirl	$ra, $ra, 0
	b	.LBB12_10
.LBB12_26:                              # %while.end
	ld.d	$s3, $s0, 0
	ldx.bu	$a0, $s3, $s4
	ld.d	$a3, $s0, 8
	addi.d	$a0, $a0, -34
	sltui	$a0, $a0, 1
	add.d	$s1, $s4, $a0
	bltu	$a3, $s1, .LBB12_48
# %bb.27:                               # %invoke.cont4.i.i59
	addi.d	$a0, $a3, -1
	ldx.bu	$a1, $s3, $a0
	addi.d	$a1, $a1, -34
	sltui	$a1, $a1, 1
	masknez	$a2, $a3, $a1
	maskeqz	$a0, $a0, $a1
	or	$a0, $a0, $a2
	sub.d	$a0, $a0, $s1
	addi.d	$s0, $sp, 32
	st.d	$s0, $sp, 16
	sub.d	$a1, $a3, $s1
	sltu	$a2, $a0, $a1
	maskeqz	$a0, $a0, $a2
	masknez	$a1, $a1, $a2
	or	$s2, $a0, $a1
	ori	$a1, $zero, 16
	st.d	$s2, $sp, 48
	move	$a0, $s0
	bltu	$s2, $a1, .LBB12_30
# %bb.28:                               # %if.then.i8.i.i69
.Ltmp155:                               # EH_LABEL
	addi.d	$a0, $sp, 16
	addi.d	$a1, $sp, 48
	move	$a2, $zero
	pcaddu18i	$ra, %call36(_ZNSt7__cxx1112basic_stringIcSt11char_traitsIcESaIcEE9_M_createERmm)
	jirl	$ra, $ra, 0
.Ltmp156:                               # EH_LABEL
# %bb.29:                               # %call2.i9.i.i.noexc72
	ld.d	$a1, $sp, 48
	st.d	$a0, $sp, 16
	st.d	$a1, $sp, 32
.LBB12_30:                              # %if.end.i.i.i64
	beqz	$s2, .LBB12_34
# %bb.31:                               # %if.end.i.i.i64
	ori	$a2, $zero, 1
	add.d	$a1, $s3, $s1
	bne	$s2, $a2, .LBB12_33
# %bb.32:                               # %if.then.i.i.i.i.i67
	ld.b	$a1, $a1, 0
	st.b	$a1, $a0, 0
	b	.LBB12_34
.LBB12_33:                              # %if.end.i.i.i.i.i.i68
	move	$a2, $s2
	pcaddu18i	$ra, %call36(memcpy)
	jirl	$ra, $ra, 0
.LBB12_34:                              # %invoke.cont65
	ld.d	$a0, $sp, 48
	ld.d	$a1, $sp, 16
	st.d	$a0, $sp, 24
	stx.b	$zero, $a1, $a0
	ld.d	$s1, $fp, 8
	ld.d	$a0, $fp, 16
	beq	$s1, $a0, .LBB12_37
# %bb.35:                               # %if.then.i.i78
	addi.d	$a0, $s1, 16
	st.d	$a0, $s1, 0
	ld.d	$a1, $sp, 16
	beq	$a1, $s0, .LBB12_40
# %bb.36:                               # %if.else.i.i.i80
	st.d	$a1, $s1, 0
	ld.d	$a0, $sp, 32
	ld.d	$s2, $sp, 24
	st.d	$a0, $s1, 16
	b	.LBB12_41
.LBB12_37:                              # %if.else.i.i90
.Ltmp157:                               # EH_LABEL
	addi.d	$a1, $sp, 16
	move	$a0, $fp
	pcaddu18i	$ra, %call36(_ZNSt6vectorINSt7__cxx1112basic_stringIcSt11char_traitsIcESaIcEEESaIS5_EE17_M_realloc_appendIJS5_EEEvDpOT_)
	jirl	$ra, $ra, 0
.Ltmp158:                               # EH_LABEL
# %bb.38:                               # %invoke.cont67
	ld.d	$a0, $sp, 16
	beq	$a0, $s0, .LBB12_42
# %bb.39:                               # %if.then.i.i94
	ld.d	$a1, $sp, 32
	addi.d	$a1, $a1, 1
	pcaddu18i	$ra, %call36(_ZdlPvm)
	jirl	$ra, $ra, 0
	b	.LBB12_42
.LBB12_40:                              # %_ZNSt11char_traitsIcE4copyEPcPKcm.exit.i.i.i86
	ld.d	$s2, $sp, 24
	addi.d	$a2, $s2, 1
	move	$a1, $s0
	pcaddu18i	$ra, %call36(memcpy)
	jirl	$ra, $ra, 0
.LBB12_41:                              # %invoke.cont67.thread
	st.d	$s2, $s1, 8
	ld.d	$a0, $fp, 8
	st.d	$zero, $sp, 24
	addi.d	$a0, $a0, 32
	st.d	$a0, $fp, 8
.LBB12_42:                              # %nrvo.skipdtor
	ld.d	$s8, $sp, 56                    # 8-byte Folded Reload
	ld.d	$s7, $sp, 64                    # 8-byte Folded Reload
	ld.d	$s6, $sp, 72                    # 8-byte Folded Reload
	ld.d	$s5, $sp, 80                    # 8-byte Folded Reload
	ld.d	$s4, $sp, 88                    # 8-byte Folded Reload
	ld.d	$s3, $sp, 96                    # 8-byte Folded Reload
	ld.d	$s2, $sp, 104                   # 8-byte Folded Reload
	ld.d	$s1, $sp, 112                   # 8-byte Folded Reload
	ld.d	$s0, $sp, 120                   # 8-byte Folded Reload
	ld.d	$fp, $sp, 128                   # 8-byte Folded Reload
	ld.d	$ra, $sp, 136                   # 8-byte Folded Reload
	addi.d	$sp, $sp, 144
	ret
.LBB12_43:                              # %cond.false
.Ltmp150:                               # EH_LABEL
	pcalau12i	$a0, %pc_hi20(.L.str.15)
	addi.d	$a1, $a0, %pc_lo12(.L.str.15)
	pcalau12i	$a0, %pc_hi20(.L.str.1)
	addi.d	$a2, $a0, %pc_lo12(.L.str.1)
	pcalau12i	$a0, %pc_hi20(.L__func__._ZN8internal14ResultsChecker9SplitCsv_ERKNSt7__cxx1112basic_stringIcSt11char_traitsIcESaIcEEE)
	addi.d	$a3, $a0, %pc_lo12(.L__func__._ZN8internal14ResultsChecker9SplitCsv_ERKNSt7__cxx1112basic_stringIcSt11char_traitsIcESaIcEEE)
	addi.d	$a0, $sp, 16
	ori	$a4, $zero, 286
	pcaddu18i	$ra, %call36(_ZN9benchmark8internal12CheckHandlerC2EPKcS3_S3_i)
	jirl	$ra, $ra, 0
.Ltmp151:                               # EH_LABEL
# %bb.44:                               # %cleanup.action
.Ltmp152:                               # EH_LABEL
	addi.d	$a0, $sp, 16
	pcaddu18i	$ra, %call36(_ZN9benchmark8internal12CheckHandlerD2Ev)
	jirl	$ra, $ra, 0
.Ltmp153:                               # EH_LABEL
# %bb.45:                               # %invoke.cont18
.LBB12_46:                              # %if.then.i.i
.Ltmp169:                               # EH_LABEL
	pcalau12i	$a0, %pc_hi20(.L.str.66)
	addi.d	$a0, $a0, %pc_lo12(.L.str.66)
	pcalau12i	$a1, %pc_hi20(.L.str.297)
	addi.d	$a1, $a1, %pc_lo12(.L.str.297)
	move	$a2, $s4
	pcaddu18i	$ra, %call36(_ZSt24__throw_out_of_range_fmtPKcz)
	jirl	$ra, $ra, 0
.Ltmp170:                               # EH_LABEL
# %bb.47:                               # %.noexc
.LBB12_48:                              # %if.then.i.i70
.Ltmp160:                               # EH_LABEL
	pcalau12i	$a0, %pc_hi20(.L.str.66)
	addi.d	$a0, $a0, %pc_lo12(.L.str.66)
	pcalau12i	$a1, %pc_hi20(.L.str.297)
	addi.d	$a1, $a1, %pc_lo12(.L.str.297)
	move	$a2, $s1
	pcaddu18i	$ra, %call36(_ZSt24__throw_out_of_range_fmtPKcz)
	jirl	$ra, $ra, 0
.Ltmp161:                               # EH_LABEL
# %bb.49:                               # %.noexc71
.LBB12_50:                              # %lpad66
.Ltmp159:                               # EH_LABEL
	ld.d	$a2, $sp, 16
	move	$s2, $a0
	bne	$a2, $s0, .LBB12_54
	b	.LBB12_59
.LBB12_51:                              # %lpad
.Ltmp149:                               # EH_LABEL
	b	.LBB12_58
.LBB12_52:                              # %lpad64
.Ltmp162:                               # EH_LABEL
	b	.LBB12_58
.LBB12_53:                              # %lpad42
.Ltmp168:                               # EH_LABEL
	ld.d	$a2, $sp, 16
	move	$s2, $a0
	beq	$a2, $s1, .LBB12_59
.LBB12_54:                              # %if.then.i.i45
	ld.d	$a0, $sp, 32
	addi.d	$a1, $a0, 1
	move	$a0, $a2
	pcaddu18i	$ra, %call36(_ZdlPvm)
	jirl	$ra, $ra, 0
	move	$a0, $fp
	pcaddu18i	$ra, %call36(_ZNSt6vectorINSt7__cxx1112basic_stringIcSt11char_traitsIcESaIcEEESaIS5_EED2Ev)
	jirl	$ra, $ra, 0
	move	$a0, $s2
	pcaddu18i	$ra, %call36(_Unwind_Resume)
	jirl	$ra, $ra, 0
.LBB12_55:                              # %lpad40.loopexit
.Ltmp165:                               # EH_LABEL
	b	.LBB12_58
.LBB12_56:                              # %lpad40.loopexit.split-lp
.Ltmp171:                               # EH_LABEL
	b	.LBB12_58
.LBB12_57:                              # %lpad12
.Ltmp154:                               # EH_LABEL
.LBB12_58:                              # %ehcleanup73
	move	$s2, $a0
.LBB12_59:                              # %ehcleanup73
	move	$a0, $fp
	pcaddu18i	$ra, %call36(_ZNSt6vectorINSt7__cxx1112basic_stringIcSt11char_traitsIcESaIcEEESaIS5_EED2Ev)
	jirl	$ra, $ra, 0
	move	$a0, $s2
	pcaddu18i	$ra, %call36(_Unwind_Resume)
	jirl	$ra, $ra, 0
.Lfunc_end12:
	.size	_ZN8internal14ResultsChecker9SplitCsv_ERKNSt7__cxx1112basic_stringIcSt11char_traitsIcESaIcEEE, .Lfunc_end12-_ZN8internal14ResultsChecker9SplitCsv_ERKNSt7__cxx1112basic_stringIcSt11char_traitsIcESaIcEEE
	.cfi_endproc
	.section	.gcc_except_table,"a",@progbits
	.p2align	2, 0x0
GCC_except_table12:
.Lexception4:
	.byte	255                             # @LPStart Encoding = omit
	.byte	255                             # @TType Encoding = omit
	.byte	1                               # Call site Encoding = uleb128
	.uleb128 .Lcst_end4-.Lcst_begin4
.Lcst_begin4:
	.uleb128 .Ltmp147-.Lfunc_begin4         # >> Call Site 1 <<
	.uleb128 .Ltmp148-.Ltmp147              #   Call between .Ltmp147 and .Ltmp148
	.uleb128 .Ltmp149-.Lfunc_begin4         #     jumps to .Ltmp149
	.byte	0                               #   On action: cleanup
	.uleb128 .Ltmp148-.Lfunc_begin4         # >> Call Site 2 <<
	.uleb128 .Ltmp163-.Ltmp148              #   Call between .Ltmp148 and .Ltmp163
	.byte	0                               #     has no landing pad
	.byte	0                               #   On action: cleanup
	.uleb128 .Ltmp163-.Lfunc_begin4         # >> Call Site 3 <<
	.uleb128 .Ltmp164-.Ltmp163              #   Call between .Ltmp163 and .Ltmp164
	.uleb128 .Ltmp165-.Lfunc_begin4         #     jumps to .Ltmp165
	.byte	0                               #   On action: cleanup
	.uleb128 .Ltmp164-.Lfunc_begin4         # >> Call Site 4 <<
	.uleb128 .Ltmp166-.Ltmp164              #   Call between .Ltmp164 and .Ltmp166
	.byte	0                               #     has no landing pad
	.byte	0                               #   On action: cleanup
	.uleb128 .Ltmp166-.Lfunc_begin4         # >> Call Site 5 <<
	.uleb128 .Ltmp167-.Ltmp166              #   Call between .Ltmp166 and .Ltmp167
	.uleb128 .Ltmp168-.Lfunc_begin4         #     jumps to .Ltmp168
	.byte	0                               #   On action: cleanup
	.uleb128 .Ltmp167-.Lfunc_begin4         # >> Call Site 6 <<
	.uleb128 .Ltmp155-.Ltmp167              #   Call between .Ltmp167 and .Ltmp155
	.byte	0                               #     has no landing pad
	.byte	0                               #   On action: cleanup
	.uleb128 .Ltmp155-.Lfunc_begin4         # >> Call Site 7 <<
	.uleb128 .Ltmp156-.Ltmp155              #   Call between .Ltmp155 and .Ltmp156
	.uleb128 .Ltmp162-.Lfunc_begin4         #     jumps to .Ltmp162
	.byte	0                               #   On action: cleanup
	.uleb128 .Ltmp156-.Lfunc_begin4         # >> Call Site 8 <<
	.uleb128 .Ltmp157-.Ltmp156              #   Call between .Ltmp156 and .Ltmp157
	.byte	0                               #     has no landing pad
	.byte	0                               #   On action: cleanup
	.uleb128 .Ltmp157-.Lfunc_begin4         # >> Call Site 9 <<
	.uleb128 .Ltmp158-.Ltmp157              #   Call between .Ltmp157 and .Ltmp158
	.uleb128 .Ltmp159-.Lfunc_begin4         #     jumps to .Ltmp159
	.byte	0                               #   On action: cleanup
	.uleb128 .Ltmp158-.Lfunc_begin4         # >> Call Site 10 <<
	.uleb128 .Ltmp150-.Ltmp158              #   Call between .Ltmp158 and .Ltmp150
	.byte	0                               #     has no landing pad
	.byte	0                               #   On action: cleanup
	.uleb128 .Ltmp150-.Lfunc_begin4         # >> Call Site 11 <<
	.uleb128 .Ltmp153-.Ltmp150              #   Call between .Ltmp150 and .Ltmp153
	.uleb128 .Ltmp154-.Lfunc_begin4         #     jumps to .Ltmp154
	.byte	0                               #   On action: cleanup
	.uleb128 .Ltmp169-.Lfunc_begin4         # >> Call Site 12 <<
	.uleb128 .Ltmp170-.Ltmp169              #   Call between .Ltmp169 and .Ltmp170
	.uleb128 .Ltmp171-.Lfunc_begin4         #     jumps to .Ltmp171
	.byte	0                               #   On action: cleanup
	.uleb128 .Ltmp160-.Lfunc_begin4         # >> Call Site 13 <<
	.uleb128 .Ltmp161-.Ltmp160              #   Call between .Ltmp160 and .Ltmp161
	.uleb128 .Ltmp162-.Lfunc_begin4         #     jumps to .Ltmp162
	.byte	0                               #   On action: cleanup
	.uleb128 .Ltmp161-.Lfunc_begin4         # >> Call Site 14 <<
	.uleb128 .Lfunc_end12-.Ltmp161          #   Call between .Ltmp161 and .Lfunc_end12
	.byte	0                               #     has no landing pad
	.byte	0                               #   On action: cleanup
.Lcst_end4:
	.p2align	2, 0x0
                                        # -- End function
	.section	.text._ZNSt6vectorINSt7__cxx1112basic_stringIcSt11char_traitsIcESaIcEEESaIS5_EED2Ev,"axG",@progbits,_ZNSt6vectorINSt7__cxx1112basic_stringIcSt11char_traitsIcESaIcEEESaIS5_EED2Ev,comdat
	.hidden	_ZNSt6vectorINSt7__cxx1112basic_stringIcSt11char_traitsIcESaIcEEESaIS5_EED2Ev # -- Begin function _ZNSt6vectorINSt7__cxx1112basic_stringIcSt11char_traitsIcESaIcEEESaIS5_EED2Ev
	.weak	_ZNSt6vectorINSt7__cxx1112basic_stringIcSt11char_traitsIcESaIcEEESaIS5_EED2Ev
	.p2align	2
	.type	_ZNSt6vectorINSt7__cxx1112basic_stringIcSt11char_traitsIcESaIcEEESaIS5_EED2Ev,@function
_ZNSt6vectorINSt7__cxx1112basic_stringIcSt11char_traitsIcESaIcEEESaIS5_EED2Ev: # @_ZNSt6vectorINSt7__cxx1112basic_stringIcSt11char_traitsIcESaIcEEESaIS5_EED2Ev
	.cfi_startproc
# %bb.0:                                # %entry
	addi.d	$sp, $sp, -32
	.cfi_def_cfa_offset 32
	st.d	$ra, $sp, 24                    # 8-byte Folded Spill
	st.d	$fp, $sp, 16                    # 8-byte Folded Spill
	st.d	$s0, $sp, 8                     # 8-byte Folded Spill
	st.d	$s1, $sp, 0                     # 8-byte Folded Spill
	.cfi_offset 1, -8
	.cfi_offset 22, -16
	.cfi_offset 23, -24
	.cfi_offset 24, -32
	move	$fp, $a0
	ld.d	$a0, $a0, 0
	ld.d	$s0, $fp, 8
	beq	$a0, $s0, .LBB13_6
# %bb.1:                                # %for.body.i.preheader
	addi.d	$s1, $a0, 16
	b	.LBB13_3
	.p2align	4, , 16
.LBB13_2:                               # %_ZSt8_DestroyINSt7__cxx1112basic_stringIcSt11char_traitsIcESaIcEEEEvPT_.exit.i
                                        #   in Loop: Header=BB13_3 Depth=1
	addi.d	$a0, $s1, 16
	addi.d	$s1, $s1, 32
	beq	$a0, $s0, .LBB13_5
.LBB13_3:                               # %for.body.i
                                        # =>This Inner Loop Header: Depth=1
	ld.d	$a0, $s1, -16
	beq	$s1, $a0, .LBB13_2
# %bb.4:                                # %if.then.i.i.i.i
                                        #   in Loop: Header=BB13_3 Depth=1
	ld.d	$a1, $s1, 0
	addi.d	$a1, $a1, 1
	pcaddu18i	$ra, %call36(_ZdlPvm)
	jirl	$ra, $ra, 0
	b	.LBB13_2
.LBB13_5:                               # %invoke.contthread-pre-split
	ld.d	$a0, $fp, 0
.LBB13_6:                               # %invoke.cont
	beqz	$a0, .LBB13_8
# %bb.7:                                # %if.then.i.i
	ld.d	$a1, $fp, 16
	sub.d	$a1, $a1, $a0
	ld.d	$s1, $sp, 0                     # 8-byte Folded Reload
	ld.d	$s0, $sp, 8                     # 8-byte Folded Reload
	ld.d	$fp, $sp, 16                    # 8-byte Folded Reload
	ld.d	$ra, $sp, 24                    # 8-byte Folded Reload
	addi.d	$sp, $sp, 32
	pcaddu18i	$t8, %call36(_ZdlPvm)
	jr	$t8
.LBB13_8:                               # %_ZNSt12_Vector_baseINSt7__cxx1112basic_stringIcSt11char_traitsIcESaIcEEESaIS5_EED2Ev.exit
	ld.d	$s1, $sp, 0                     # 8-byte Folded Reload
	ld.d	$s0, $sp, 8                     # 8-byte Folded Reload
	ld.d	$fp, $sp, 16                    # 8-byte Folded Reload
	ld.d	$ra, $sp, 24                    # 8-byte Folded Reload
	addi.d	$sp, $sp, 32
	ret
.Lfunc_end13:
	.size	_ZNSt6vectorINSt7__cxx1112basic_stringIcSt11char_traitsIcESaIcEEESaIS5_EED2Ev, .Lfunc_end13-_ZNSt6vectorINSt7__cxx1112basic_stringIcSt11char_traitsIcESaIcEEESaIS5_EED2Ev
	.cfi_endproc
                                        # -- End function
	.section	.text._ZNSt3mapINSt7__cxx1112basic_stringIcSt11char_traitsIcESaIcEEES5_St4lessIS5_ESaISt4pairIKS5_S5_EEEixERS9_,"axG",@progbits,_ZNSt3mapINSt7__cxx1112basic_stringIcSt11char_traitsIcESaIcEEES5_St4lessIS5_ESaISt4pairIKS5_S5_EEEixERS9_,comdat
	.hidden	_ZNSt3mapINSt7__cxx1112basic_stringIcSt11char_traitsIcESaIcEEES5_St4lessIS5_ESaISt4pairIKS5_S5_EEEixERS9_ # -- Begin function _ZNSt3mapINSt7__cxx1112basic_stringIcSt11char_traitsIcESaIcEEES5_St4lessIS5_ESaISt4pairIKS5_S5_EEEixERS9_
	.weak	_ZNSt3mapINSt7__cxx1112basic_stringIcSt11char_traitsIcESaIcEEES5_St4lessIS5_ESaISt4pairIKS5_S5_EEEixERS9_
	.p2align	2
	.type	_ZNSt3mapINSt7__cxx1112basic_stringIcSt11char_traitsIcESaIcEEES5_St4lessIS5_ESaISt4pairIKS5_S5_EEEixERS9_,@function
_ZNSt3mapINSt7__cxx1112basic_stringIcSt11char_traitsIcESaIcEEES5_St4lessIS5_ESaISt4pairIKS5_S5_EEEixERS9_: # @_ZNSt3mapINSt7__cxx1112basic_stringIcSt11char_traitsIcESaIcEEES5_St4lessIS5_ESaISt4pairIKS5_S5_EEEixERS9_
	.cfi_startproc
# %bb.0:                                # %entry
	addi.d	$sp, $sp, -128
	.cfi_def_cfa_offset 128
	st.d	$ra, $sp, 120                   # 8-byte Folded Spill
	st.d	$fp, $sp, 112                   # 8-byte Folded Spill
	st.d	$s0, $sp, 104                   # 8-byte Folded Spill
	st.d	$s1, $sp, 96                    # 8-byte Folded Spill
	st.d	$s2, $sp, 88                    # 8-byte Folded Spill
	st.d	$s3, $sp, 80                    # 8-byte Folded Spill
	st.d	$s4, $sp, 72                    # 8-byte Folded Spill
	st.d	$s5, $sp, 64                    # 8-byte Folded Spill
	st.d	$s6, $sp, 56                    # 8-byte Folded Spill
	st.d	$s7, $sp, 48                    # 8-byte Folded Spill
	st.d	$s8, $sp, 40                    # 8-byte Folded Spill
	.cfi_offset 1, -8
	.cfi_offset 22, -16
	.cfi_offset 23, -24
	.cfi_offset 24, -32
	.cfi_offset 25, -40
	.cfi_offset 26, -48
	.cfi_offset 27, -56
	.cfi_offset 28, -64
	.cfi_offset 29, -72
	.cfi_offset 30, -80
	.cfi_offset 31, -88
	move	$s0, $a0
	ld.d	$s7, $a0, 16
	move	$s8, $a1
	addi.d	$s2, $a0, 8
	beqz	$s7, .LBB14_11
# %bb.1:                                # %while.body.lr.ph.i.i.i
	st.d	$s0, $sp, 16                    # 8-byte Folded Spill
	ld.d	$s6, $s8, 8
	st.d	$s8, $sp, 8                     # 8-byte Folded Spill
	ld.d	$s3, $s8, 0
	lu12i.w	$s5, -524288
	lu12i.w	$a0, 524287
	ori	$s4, $a0, 4095
	ori	$s8, $zero, 16
	ori	$s0, $zero, 24
	move	$s1, $s2
	b	.LBB14_4
	.p2align	4, , 16
.LBB14_2:                               # %if.then.i.i.i.i.i.i
                                        #   in Loop: Header=BB14_4 Depth=1
	sub.d	$a0, $fp, $s6
	slt	$a1, $s5, $a0
	maskeqz	$a0, $a0, $a1
	masknez	$a1, $s5, $a1
	or	$a0, $a0, $a1
	slt	$a1, $a0, $s4
	maskeqz	$a0, $a0, $a1
	masknez	$a1, $s4, $a1
	or	$a0, $a0, $a1
.LBB14_3:                               # %_ZNKSt4lessINSt7__cxx1112basic_stringIcSt11char_traitsIcESaIcEEEEclERKS5_S8_.exit.i.i.i
                                        #   in Loop: Header=BB14_4 Depth=1
	addi.w	$a0, $a0, 0
	slti	$a0, $a0, 0
	masknez	$a1, $s7, $a0
	masknez	$a2, $s8, $a0
	maskeqz	$a3, $s0, $a0
	or	$a2, $a3, $a2
	ldx.d	$s7, $s7, $a2
	maskeqz	$a0, $s1, $a0
	or	$s1, $a0, $a1
	beqz	$s7, .LBB14_6
.LBB14_4:                               # %while.body.i.i.i
                                        # =>This Inner Loop Header: Depth=1
	ld.d	$fp, $s7, 40
	sltu	$a0, $s6, $fp
	masknez	$a1, $fp, $a0
	maskeqz	$a0, $s6, $a0
	or	$a2, $a0, $a1
	beqz	$a2, .LBB14_2
# %bb.5:                                # %_ZNSt11char_traitsIcE7compareEPKcS2_m.exit.i.i.i.i.i.i
                                        #   in Loop: Header=BB14_4 Depth=1
	ld.d	$a0, $s7, 32
	move	$a1, $s3
	pcaddu18i	$ra, %call36(memcmp)
	jirl	$ra, $ra, 0
	bnez	$a0, .LBB14_3
	b	.LBB14_2
.LBB14_6:                               # %_ZNSt3mapINSt7__cxx1112basic_stringIcSt11char_traitsIcESaIcEEES5_St4lessIS5_ESaISt4pairIKS5_S5_EEE11lower_boundERS9_.exit
	ld.d	$s0, $sp, 16                    # 8-byte Folded Reload
	ld.d	$s8, $sp, 8                     # 8-byte Folded Reload
	beq	$s1, $s2, .LBB14_11
# %bb.7:                                # %lor.rhs
	ld.d	$fp, $s1, 40
	sltu	$a0, $fp, $s6
	masknez	$a1, $s6, $a0
	maskeqz	$a0, $fp, $a0
	or	$a2, $a0, $a1
	beqz	$a2, .LBB14_9
# %bb.8:                                # %_ZNSt11char_traitsIcE7compareEPKcS2_m.exit.i.i.i
	ld.d	$a1, $s1, 32
	move	$a0, $s3
	pcaddu18i	$ra, %call36(memcmp)
	jirl	$ra, $ra, 0
	bnez	$a0, .LBB14_10
.LBB14_9:                               # %if.then.i.i.i
	sub.d	$a0, $s6, $fp
	slt	$a1, $s5, $a0
	maskeqz	$a0, $a0, $a1
	masknez	$a1, $s5, $a1
	or	$a0, $a0, $a1
	slt	$a1, $a0, $s4
	maskeqz	$a0, $a0, $a1
	masknez	$a1, $s4, $a1
	or	$a0, $a0, $a1
.LBB14_10:                              # %_ZNKSt4lessINSt7__cxx1112basic_stringIcSt11char_traitsIcESaIcEEEEclERKS5_S8_.exit
	addi.w	$a0, $a0, 0
	addi.w	$a1, $zero, -1
	move	$s2, $s1
	blt	$a1, $a0, .LBB14_12
.LBB14_11:                              # %if.then
	st.d	$s8, $sp, 32
	pcalau12i	$a0, %pc_hi20(_ZSt19piecewise_construct)
	addi.d	$a2, $a0, %pc_lo12(_ZSt19piecewise_construct)
	addi.d	$a3, $sp, 32
	addi.d	$a4, $sp, 31
	move	$a0, $s0
	move	$a1, $s2
	pcaddu18i	$ra, %call36(_ZNSt8_Rb_treeINSt7__cxx1112basic_stringIcSt11char_traitsIcESaIcEEESt4pairIKS5_S5_ESt10_Select1stIS8_ESt4lessIS5_ESaIS8_EE22_M_emplace_hint_uniqueIJRKSt21piecewise_construct_tSt5tupleIJRS7_EESJ_IJEEEEESt17_Rb_tree_iteratorIS8_ESt23_Rb_tree_const_iteratorIS8_EDpOT_)
	jirl	$ra, $ra, 0
	move	$s1, $a0
.LBB14_12:                              # %if.end
	addi.d	$a0, $s1, 64
	ld.d	$s8, $sp, 40                    # 8-byte Folded Reload
	ld.d	$s7, $sp, 48                    # 8-byte Folded Reload
	ld.d	$s6, $sp, 56                    # 8-byte Folded Reload
	ld.d	$s5, $sp, 64                    # 8-byte Folded Reload
	ld.d	$s4, $sp, 72                    # 8-byte Folded Reload
	ld.d	$s3, $sp, 80                    # 8-byte Folded Reload
	ld.d	$s2, $sp, 88                    # 8-byte Folded Reload
	ld.d	$s1, $sp, 96                    # 8-byte Folded Reload
	ld.d	$s0, $sp, 104                   # 8-byte Folded Reload
	ld.d	$fp, $sp, 112                   # 8-byte Folded Reload
	ld.d	$ra, $sp, 120                   # 8-byte Folded Reload
	addi.d	$sp, $sp, 128
	ret
.Lfunc_end14:
	.size	_ZNSt3mapINSt7__cxx1112basic_stringIcSt11char_traitsIcESaIcEEES5_St4lessIS5_ESaISt4pairIKS5_S5_EEEixERS9_, .Lfunc_end14-_ZNSt3mapINSt7__cxx1112basic_stringIcSt11char_traitsIcESaIcEEES5_St4lessIS5_ESaISt4pairIKS5_S5_EEEixERS9_
	.cfi_endproc
                                        # -- End function
	.section	.text._ZNSt6vectorINSt7__cxx1112basic_stringIcSt11char_traitsIcESaIcEEESaIS5_EE7reserveEm,"axG",@progbits,_ZNSt6vectorINSt7__cxx1112basic_stringIcSt11char_traitsIcESaIcEEESaIS5_EE7reserveEm,comdat
	.weak	_ZNSt6vectorINSt7__cxx1112basic_stringIcSt11char_traitsIcESaIcEEESaIS5_EE7reserveEm # -- Begin function _ZNSt6vectorINSt7__cxx1112basic_stringIcSt11char_traitsIcESaIcEEESaIS5_EE7reserveEm
	.p2align	2
	.type	_ZNSt6vectorINSt7__cxx1112basic_stringIcSt11char_traitsIcESaIcEEESaIS5_EE7reserveEm,@function
_ZNSt6vectorINSt7__cxx1112basic_stringIcSt11char_traitsIcESaIcEEESaIS5_EE7reserveEm: # @_ZNSt6vectorINSt7__cxx1112basic_stringIcSt11char_traitsIcESaIcEEESaIS5_EE7reserveEm
	.cfi_startproc
# %bb.0:                                # %entry
	addi.d	$sp, $sp, -96
	.cfi_def_cfa_offset 96
	st.d	$ra, $sp, 88                    # 8-byte Folded Spill
	st.d	$fp, $sp, 80                    # 8-byte Folded Spill
	st.d	$s0, $sp, 72                    # 8-byte Folded Spill
	st.d	$s1, $sp, 64                    # 8-byte Folded Spill
	st.d	$s2, $sp, 56                    # 8-byte Folded Spill
	st.d	$s3, $sp, 48                    # 8-byte Folded Spill
	st.d	$s4, $sp, 40                    # 8-byte Folded Spill
	st.d	$s5, $sp, 32                    # 8-byte Folded Spill
	st.d	$s6, $sp, 24                    # 8-byte Folded Spill
	st.d	$s7, $sp, 16                    # 8-byte Folded Spill
	st.d	$s8, $sp, 8                     # 8-byte Folded Spill
	.cfi_offset 1, -8
	.cfi_offset 22, -16
	.cfi_offset 23, -24
	.cfi_offset 24, -32
	.cfi_offset 25, -40
	.cfi_offset 26, -48
	.cfi_offset 27, -56
	.cfi_offset 28, -64
	.cfi_offset 29, -72
	.cfi_offset 30, -80
	.cfi_offset 31, -88
	srli.d	$a2, $a1, 58
	bnez	$a2, .LBB15_13
# %bb.1:                                # %if.end
	move	$fp, $a0
	ld.d	$a0, $a0, 16
	ld.d	$s3, $fp, 0
	sub.d	$a0, $a0, $s3
	srai.d	$a0, $a0, 5
	bgeu	$a0, $a1, .LBB15_12
# %bb.2:                                # %_ZNSt12_Vector_baseINSt7__cxx1112basic_stringIcSt11char_traitsIcESaIcEEESaIS5_EE11_M_allocateEm.exit
	ld.d	$s4, $fp, 8
	slli.d	$s0, $a1, 5
	move	$a0, $s0
	pcaddu18i	$ra, %call36(_Znwm)
	jirl	$ra, $ra, 0
	move	$s1, $a0
	move	$a0, $s3
	beq	$s4, $s3, .LBB15_9
# %bb.3:                                # %for.body.i.i.i.preheader
	move	$s5, $zero
	b	.LBB15_6
	.p2align	4, , 16
.LBB15_4:                               # %if.else.i.i.i.i.i
                                        #   in Loop: Header=BB15_6 Depth=1
	ld.d	$a0, $s2, 0
	ld.d	$s8, $s7, 8
	st.d	$a1, $s6, 0
	st.d	$a0, $s6, 16
.LBB15_5:                               # %_ZSt19__relocate_object_aINSt7__cxx1112basic_stringIcSt11char_traitsIcESaIcEEES5_SaIS5_EEvPT_PT0_RT1_.exit.i.i.i
                                        #   in Loop: Header=BB15_6 Depth=1
	st.d	$s8, $s6, 8
	stx.d	$s2, $s3, $s5
	st.d	$zero, $s7, 8
	addi.d	$s5, $s5, 32
	add.d	$a0, $s3, $s5
	st.b	$zero, $s2, 0
	beq	$a0, $s4, .LBB15_8
.LBB15_6:                               # %for.body.i.i.i
                                        # =>This Inner Loop Header: Depth=1
	add.d	$s6, $s1, $s5
	ldx.d	$a1, $s3, $s5
	add.d	$s7, $s3, $s5
	addi.d	$a0, $s6, 16
	addi.d	$s2, $s7, 16
	stx.d	$a0, $s1, $s5
	bne	$s2, $a1, .LBB15_4
# %bb.7:                                # %_ZNSt11char_traitsIcE4copyEPcPKcm.exit.i.i.i.i.i
                                        #   in Loop: Header=BB15_6 Depth=1
	ld.d	$s8, $s7, 8
	addi.d	$a2, $s8, 1
	move	$a1, $s2
	pcaddu18i	$ra, %call36(memcpy)
	jirl	$ra, $ra, 0
	b	.LBB15_5
.LBB15_8:                               # %_ZNSt6vectorINSt7__cxx1112basic_stringIcSt11char_traitsIcESaIcEEESaIS5_EE11_S_relocateEPS5_S8_S8_RS6_.exit.loopexit
	ld.d	$a0, $fp, 0
.LBB15_9:                               # %_ZNSt6vectorINSt7__cxx1112basic_stringIcSt11char_traitsIcESaIcEEESaIS5_EE11_S_relocateEPS5_S8_S8_RS6_.exit
	sub.d	$s2, $s4, $s3
	beqz	$a0, .LBB15_11
# %bb.10:                               # %if.then.i
	ld.d	$a1, $fp, 16
	sub.d	$a1, $a1, $a0
	pcaddu18i	$ra, %call36(_ZdlPvm)
	jirl	$ra, $ra, 0
.LBB15_11:                              # %_ZNSt12_Vector_baseINSt7__cxx1112basic_stringIcSt11char_traitsIcESaIcEEESaIS5_EE13_M_deallocateEPS5_m.exit
	st.d	$s1, $fp, 0
	add.d	$a0, $s1, $s2
	st.d	$a0, $fp, 8
	add.d	$a0, $s1, $s0
	st.d	$a0, $fp, 16
.LBB15_12:                              # %if.end24
	ld.d	$s8, $sp, 8                     # 8-byte Folded Reload
	ld.d	$s7, $sp, 16                    # 8-byte Folded Reload
	ld.d	$s6, $sp, 24                    # 8-byte Folded Reload
	ld.d	$s5, $sp, 32                    # 8-byte Folded Reload
	ld.d	$s4, $sp, 40                    # 8-byte Folded Reload
	ld.d	$s3, $sp, 48                    # 8-byte Folded Reload
	ld.d	$s2, $sp, 56                    # 8-byte Folded Reload
	ld.d	$s1, $sp, 64                    # 8-byte Folded Reload
	ld.d	$s0, $sp, 72                    # 8-byte Folded Reload
	ld.d	$fp, $sp, 80                    # 8-byte Folded Reload
	ld.d	$ra, $sp, 88                    # 8-byte Folded Reload
	addi.d	$sp, $sp, 96
	ret
.LBB15_13:                              # %if.then
	pcalau12i	$a0, %pc_hi20(.L.str.296)
	addi.d	$a0, $a0, %pc_lo12(.L.str.296)
	pcaddu18i	$ra, %call36(_ZSt20__throw_length_errorPKc)
	jirl	$ra, $ra, 0
.Lfunc_end15:
	.size	_ZNSt6vectorINSt7__cxx1112basic_stringIcSt11char_traitsIcESaIcEEESaIS5_EE7reserveEm, .Lfunc_end15-_ZNSt6vectorINSt7__cxx1112basic_stringIcSt11char_traitsIcESaIcEEESaIS5_EE7reserveEm
	.cfi_endproc
                                        # -- End function
	.text
	.hidden	_Z10AddCheckerRKNSt7__cxx1112basic_stringIcSt11char_traitsIcESaIcEEERKSt8functionIFvRK7ResultsEE # -- Begin function _Z10AddCheckerRKNSt7__cxx1112basic_stringIcSt11char_traitsIcESaIcEEERKSt8functionIFvRK7ResultsEE
	.globl	_Z10AddCheckerRKNSt7__cxx1112basic_stringIcSt11char_traitsIcESaIcEEERKSt8functionIFvRK7ResultsEE
	.p2align	5
	.type	_Z10AddCheckerRKNSt7__cxx1112basic_stringIcSt11char_traitsIcESaIcEEERKSt8functionIFvRK7ResultsEE,@function
_Z10AddCheckerRKNSt7__cxx1112basic_stringIcSt11char_traitsIcESaIcEEERKSt8functionIFvRK7ResultsEE: # @_Z10AddCheckerRKNSt7__cxx1112basic_stringIcSt11char_traitsIcESaIcEEERKSt8functionIFvRK7ResultsEE
	.cfi_startproc
# %bb.0:                                # %entry
	addi.d	$sp, $sp, -32
	.cfi_def_cfa_offset 32
	st.d	$ra, $sp, 24                    # 8-byte Folded Spill
	st.d	$fp, $sp, 16                    # 8-byte Folded Spill
	st.d	$s0, $sp, 8                     # 8-byte Folded Spill
	st.d	$s1, $sp, 0                     # 8-byte Folded Spill
	.cfi_offset 1, -8
	.cfi_offset 22, -16
	.cfi_offset 23, -24
	.cfi_offset 24, -32
	pcalau12i	$a2, %pc_hi20(_ZGVZN8internal17GetResultsCheckerEvE2rc)
	ld.b	$a2, $a2, %pc_lo12(_ZGVZN8internal17GetResultsCheckerEvE2rc)
	move	$fp, $a1
	move	$s0, $a0
	dbar	20
	beqz	$a2, .LBB16_2
.LBB16_1:                               # %_ZN8internal17GetResultsCheckerEv.exit
	pcalau12i	$a0, %pc_hi20(_ZZN8internal17GetResultsCheckerEvE2rc)
	addi.d	$s1, $a0, %pc_lo12(_ZZN8internal17GetResultsCheckerEvE2rc)
	move	$a0, $s1
	move	$a1, $s0
	move	$a2, $fp
	pcaddu18i	$ra, %call36(_ZNSt6vectorIN8internal14ResultsChecker12PatternAndFnESaIS2_EE12emplace_backIJRKNSt7__cxx1112basic_stringIcSt11char_traitsIcESaIcEEERKSt8functionIFvRK7ResultsEEEEERS2_DpOT_)
	jirl	$ra, $ra, 0
	ld.d	$a0, $s1, 32
	ld.d	$a1, $s1, 24
	sub.d	$a0, $a0, $a1
	srli.d	$a0, $a0, 4
	lu12i.w	$a1, -209716
	ori	$a1, $a1, 3277
	lu32i.d	$a1, -209716
	lu52i.d	$a1, $a1, -820
	mul.d	$a0, $a0, $a1
	ld.d	$s1, $sp, 0                     # 8-byte Folded Reload
	ld.d	$s0, $sp, 8                     # 8-byte Folded Reload
	ld.d	$fp, $sp, 16                    # 8-byte Folded Reload
	ld.d	$ra, $sp, 24                    # 8-byte Folded Reload
	addi.d	$sp, $sp, 32
	ret
.LBB16_2:                               # %init.check.i
	pcalau12i	$a0, %pc_hi20(_ZGVZN8internal17GetResultsCheckerEvE2rc)
	addi.d	$a0, $a0, %pc_lo12(_ZGVZN8internal17GetResultsCheckerEvE2rc)
	pcaddu18i	$ra, %call36(__cxa_guard_acquire)
	jirl	$ra, $ra, 0
	addi.w	$a0, $a0, 0
	beqz	$a0, .LBB16_1
# %bb.3:                                # %init.i
	pcalau12i	$a0, %pc_hi20(_ZZN8internal17GetResultsCheckerEvE2rc)
	addi.d	$s1, $a0, %pc_lo12(_ZZN8internal17GetResultsCheckerEvE2rc)
	ori	$a2, $zero, 72
	move	$a0, $s1
	move	$a1, $zero
	pcaddu18i	$ra, %call36(memset)
	jirl	$ra, $ra, 0
	pcalau12i	$a0, %pc_hi20(_ZN8internal14ResultsCheckerD2Ev)
	addi.d	$a0, $a0, %pc_lo12(_ZN8internal14ResultsCheckerD2Ev)
	pcalau12i	$a1, %pc_hi20(__dso_handle)
	addi.d	$a2, $a1, %pc_lo12(__dso_handle)
	move	$a1, $s1
	pcaddu18i	$ra, %call36(__cxa_atexit)
	jirl	$ra, $ra, 0
	pcalau12i	$a0, %pc_hi20(_ZGVZN8internal17GetResultsCheckerEvE2rc)
	addi.d	$a0, $a0, %pc_lo12(_ZGVZN8internal17GetResultsCheckerEvE2rc)
	pcaddu18i	$ra, %call36(__cxa_guard_release)
	jirl	$ra, $ra, 0
	b	.LBB16_1
.Lfunc_end16:
	.size	_Z10AddCheckerRKNSt7__cxx1112basic_stringIcSt11char_traitsIcESaIcEEERKSt8functionIFvRK7ResultsEE, .Lfunc_end16-_Z10AddCheckerRKNSt7__cxx1112basic_stringIcSt11char_traitsIcESaIcEEERKSt8functionIFvRK7ResultsEE
	.cfi_endproc
                                        # -- End function
	.hidden	_ZNK7Results10NumThreadsEv      # -- Begin function _ZNK7Results10NumThreadsEv
	.globl	_ZNK7Results10NumThreadsEv
	.p2align	2
	.type	_ZNK7Results10NumThreadsEv,@function
_ZNK7Results10NumThreadsEv:             # @_ZNK7Results10NumThreadsEv
.Lfunc_begin5:
	.cfi_startproc
	.cfi_personality 155, DW.ref.__gxx_personality_v0
	.cfi_lsda 27, .Lexception5
# %bb.0:                                # %entry
	addi.d	$sp, $sp, -496
	.cfi_def_cfa_offset 496
	st.d	$ra, $sp, 488                   # 8-byte Folded Spill
	st.d	$fp, $sp, 480                   # 8-byte Folded Spill
	st.d	$s0, $sp, 472                   # 8-byte Folded Spill
	st.d	$s1, $sp, 464                   # 8-byte Folded Spill
	st.d	$s2, $sp, 456                   # 8-byte Folded Spill
	st.d	$s3, $sp, 448                   # 8-byte Folded Spill
	.cfi_offset 1, -8
	.cfi_offset 22, -16
	.cfi_offset 23, -24
	.cfi_offset 24, -32
	.cfi_offset 25, -40
	.cfi_offset 26, -48
	move	$s0, $a0
	pcalau12i	$a0, %pc_hi20(.L.str.16)
	addi.d	$a1, $a0, %pc_lo12(.L.str.16)
	ori	$a3, $zero, 9
	move	$a0, $s0
	move	$a2, $zero
	pcaddu18i	$ra, %call36(_ZNKSt7__cxx1112basic_stringIcSt11char_traitsIcESaIcEE4findEPKcmm)
	jirl	$ra, $ra, 0
	addi.w	$a1, $zero, -1
	beq	$a0, $a1, .LBB17_8
# %bb.1:                                # %if.end
	addi.d	$fp, $a0, 9
	ori	$a1, $zero, 47
	move	$a0, $s0
	move	$a2, $fp
	pcaddu18i	$ra, %call36(_ZNKSt7__cxx1112basic_stringIcSt11char_traitsIcESaIcEE4findEcm)
	jirl	$ra, $ra, 0
	move	$s1, $a0
	addi.d	$a0, $sp, 48
	pcaddu18i	$ra, %call36(_ZNSt7__cxx1118basic_stringstreamIcSt11char_traitsIcESaIcEEC1Ev)
	jirl	$ra, $ra, 0
	ld.d	$a3, $s0, 8
	bltu	$a3, $fp, .LBB17_20
# %bb.2:                                # %invoke.cont4.i.i
	addi.d	$s2, $sp, 32
	st.d	$s2, $sp, 16
	ld.d	$s3, $s0, 0
	sub.d	$a0, $a3, $fp
	sltu	$a1, $s1, $a0
	masknez	$a0, $a0, $a1
	maskeqz	$a1, $s1, $a1
	or	$s0, $a1, $a0
	ori	$a1, $zero, 16
	st.d	$s0, $sp, 440
	move	$a0, $s2
	bltu	$s0, $a1, .LBB17_5
# %bb.3:                                # %if.then.i8.i.i
.Ltmp172:                               # EH_LABEL
	addi.d	$a0, $sp, 16
	addi.d	$a1, $sp, 440
	move	$a2, $zero
	pcaddu18i	$ra, %call36(_ZNSt7__cxx1112basic_stringIcSt11char_traitsIcESaIcEE9_M_createERmm)
	jirl	$ra, $ra, 0
.Ltmp173:                               # EH_LABEL
# %bb.4:                                # %call2.i9.i.i.noexc
	ld.d	$a1, $sp, 440
	st.d	$a0, $sp, 16
	st.d	$a1, $sp, 32
.LBB17_5:                               # %if.end.i.i.i
	beqz	$s0, .LBB17_10
# %bb.6:                                # %if.end.i.i.i
	ori	$a2, $zero, 1
	add.d	$a1, $s3, $fp
	bne	$s0, $a2, .LBB17_9
# %bb.7:                                # %if.then.i.i.i.i.i
	ld.b	$a1, $a1, 0
	st.b	$a1, $a0, 0
	b	.LBB17_10
.LBB17_8:
	ori	$fp, $zero, 1
	b	.LBB17_19
.LBB17_9:                               # %if.end.i.i.i.i.i.i
	move	$a2, $s0
	pcaddu18i	$ra, %call36(memcpy)
	jirl	$ra, $ra, 0
.LBB17_10:                              # %invoke.cont
	ld.d	$a0, $sp, 440
	ld.d	$a1, $sp, 16
	st.d	$a0, $sp, 24
	stx.b	$zero, $a1, $a0
	ld.d	$a1, $sp, 16
	ld.d	$a2, $sp, 24
	addi.d	$a0, $sp, 64
.Ltmp174:                               # EH_LABEL
	pcaddu18i	$ra, %call36(_ZSt16__ostream_insertIcSt11char_traitsIcEERSt13basic_ostreamIT_T0_ES6_PKS3_l)
	jirl	$ra, $ra, 0
.Ltmp175:                               # EH_LABEL
# %bb.11:                               # %invoke.cont8
	ld.d	$a0, $sp, 16
	beq	$a0, $s2, .LBB17_13
# %bb.12:                               # %if.then.i.i9
	ld.d	$a1, $sp, 32
	addi.d	$a1, $a1, 1
	pcaddu18i	$ra, %call36(_ZdlPvm)
	jirl	$ra, $ra, 0
.LBB17_13:                              # %_ZNSt7__cxx1112basic_stringIcSt11char_traitsIcESaIcEED2Ev.exit
	ori	$a0, $zero, 1
	st.w	$a0, $sp, 440
.Ltmp177:                               # EH_LABEL
	addi.d	$a0, $sp, 48
	addi.d	$a1, $sp, 440
	addi.d	$fp, $sp, 48
	pcaddu18i	$ra, %call36(_ZNSirsERi)
	jirl	$ra, $ra, 0
.Ltmp178:                               # EH_LABEL
# %bb.14:                               # %invoke.cont11
	ld.d	$a0, $sp, 48
	ld.d	$a0, $a0, -24
	add.d	$a0, $fp, $a0
	ld.bu	$a0, $a0, 32
	andi	$a0, $a0, 5
	bnez	$a0, .LBB17_22
# %bb.15:                               # %cond.true
	pcalau12i	$a0, %pc_hi20(_ZGVZN9benchmark8internal18GetNullLogInstanceEvE8null_log)
	ld.b	$a0, $a0, %pc_lo12(_ZGVZN9benchmark8internal18GetNullLogInstanceEvE8null_log)
	dbar	20
	beqz	$a0, .LBB17_25
.LBB17_16:                              # %cleanup.done33
	pcalau12i	$a0, %got_pc_hi20(_ZTTNSt7__cxx1118basic_stringstreamIcSt11char_traitsIcESaIcEEE)
	ld.d	$s0, $a0, %got_pc_lo12(_ZTTNSt7__cxx1118basic_stringstreamIcSt11char_traitsIcESaIcEEE)
	ld.d	$a0, $s0, 0
	st.d	$a0, $sp, 48
	ld.d	$a1, $s0, 64
	ld.d	$a0, $a0, -24
	addi.d	$s1, $sp, 48
	stx.d	$a1, $a0, $s1
	ld.d	$a1, $s0, 72
	pcalau12i	$a0, %got_pc_hi20(_ZTVNSt7__cxx1115basic_stringbufIcSt11char_traitsIcESaIcEEE)
	ld.d	$a2, $a0, %got_pc_lo12(_ZTVNSt7__cxx1115basic_stringbufIcSt11char_traitsIcESaIcEEE)
	ld.w	$fp, $sp, 440
	ld.d	$a0, $sp, 144
	st.d	$a1, $sp, 64
	addi.d	$a1, $a2, 16
	addi.d	$a2, $sp, 160
	st.d	$a1, $sp, 72
	beq	$a0, $a2, .LBB17_18
# %bb.17:                               # %if.then.i.i.i.i.i19
	ld.d	$a1, $sp, 160
	addi.d	$a1, $a1, 1
	pcaddu18i	$ra, %call36(_ZdlPvm)
	jirl	$ra, $ra, 0
.LBB17_18:                              # %_ZNSt7__cxx1118basic_stringstreamIcSt11char_traitsIcESaIcEED1Ev.exit
	pcalau12i	$a0, %got_pc_hi20(_ZTVSt15basic_streambufIcSt11char_traitsIcEE)
	ld.d	$a0, $a0, %got_pc_lo12(_ZTVSt15basic_streambufIcSt11char_traitsIcEE)
	addi.d	$a0, $a0, 16
	st.d	$a0, $sp, 72
	addi.d	$a0, $sp, 128
	pcaddu18i	$ra, %call36(_ZNSt6localeD1Ev)
	jirl	$ra, $ra, 0
	ld.d	$a0, $s0, 16
	st.d	$a0, $sp, 48
	ld.d	$a1, $s0, 24
	ld.d	$a0, $a0, -24
	stx.d	$a1, $a0, $s1
	st.d	$zero, $sp, 56
	addi.d	$a0, $sp, 176
	pcaddu18i	$ra, %call36(_ZNSt8ios_baseD2Ev)
	jirl	$ra, $ra, 0
.LBB17_19:                              # %cleanup
	move	$a0, $fp
	ld.d	$s3, $sp, 448                   # 8-byte Folded Reload
	ld.d	$s2, $sp, 456                   # 8-byte Folded Reload
	ld.d	$s1, $sp, 464                   # 8-byte Folded Reload
	ld.d	$s0, $sp, 472                   # 8-byte Folded Reload
	ld.d	$fp, $sp, 480                   # 8-byte Folded Reload
	ld.d	$ra, $sp, 488                   # 8-byte Folded Reload
	addi.d	$sp, $sp, 496
	ret
.LBB17_20:                              # %if.then.i.i
.Ltmp185:                               # EH_LABEL
	pcalau12i	$a0, %pc_hi20(.L.str.66)
	addi.d	$a0, $a0, %pc_lo12(.L.str.66)
	pcalau12i	$a1, %pc_hi20(.L.str.297)
	addi.d	$a1, $a1, %pc_lo12(.L.str.297)
	move	$a2, $fp
	pcaddu18i	$ra, %call36(_ZSt24__throw_out_of_range_fmtPKcz)
	jirl	$ra, $ra, 0
.Ltmp186:                               # EH_LABEL
# %bb.21:                               # %.noexc
.LBB17_22:                              # %cond.false
.Ltmp180:                               # EH_LABEL
	pcalau12i	$a0, %pc_hi20(.L.str.17)
	addi.d	$a1, $a0, %pc_lo12(.L.str.17)
	pcalau12i	$a0, %pc_hi20(.L.str.1)
	addi.d	$a2, $a0, %pc_lo12(.L.str.1)
	pcalau12i	$a0, %pc_hi20(.L__func__._ZNK7Results10NumThreadsEv)
	addi.d	$a3, $a0, %pc_lo12(.L__func__._ZNK7Results10NumThreadsEv)
	addi.d	$a0, $sp, 16
	ori	$a4, $zero, 317
	pcaddu18i	$ra, %call36(_ZN9benchmark8internal12CheckHandlerC2EPKcS3_S3_i)
	jirl	$ra, $ra, 0
.Ltmp181:                               # EH_LABEL
# %bb.23:                               # %cleanup.action
.Ltmp182:                               # EH_LABEL
	addi.d	$a0, $sp, 16
	pcaddu18i	$ra, %call36(_ZN9benchmark8internal12CheckHandlerD2Ev)
	jirl	$ra, $ra, 0
.Ltmp183:                               # EH_LABEL
# %bb.24:                               # %invoke.cont25
.LBB17_25:                              # %init.check.i
	pcalau12i	$a0, %pc_hi20(_ZGVZN9benchmark8internal18GetNullLogInstanceEvE8null_log)
	addi.d	$a0, $a0, %pc_lo12(_ZGVZN9benchmark8internal18GetNullLogInstanceEvE8null_log)
	pcaddu18i	$ra, %call36(__cxa_guard_acquire)
	jirl	$ra, $ra, 0
	addi.w	$a0, $a0, 0
	beqz	$a0, .LBB17_16
# %bb.26:                               # %init.i
	pcalau12i	$a0, %pc_hi20(_ZZN9benchmark8internal18GetNullLogInstanceEvE8null_log)
	st.d	$zero, $a0, %pc_lo12(_ZZN9benchmark8internal18GetNullLogInstanceEvE8null_log)
	pcalau12i	$a0, %pc_hi20(_ZGVZN9benchmark8internal18GetNullLogInstanceEvE8null_log)
	addi.d	$a0, $a0, %pc_lo12(_ZGVZN9benchmark8internal18GetNullLogInstanceEvE8null_log)
	pcaddu18i	$ra, %call36(__cxa_guard_release)
	jirl	$ra, $ra, 0
	b	.LBB17_16
.LBB17_27:                              # %lpad19
.Ltmp184:                               # EH_LABEL
	b	.LBB17_32
.LBB17_28:                              # %lpad10
.Ltmp179:                               # EH_LABEL
	b	.LBB17_32
.LBB17_29:                              # %lpad7
.Ltmp176:                               # EH_LABEL
	ld.d	$a2, $sp, 16
	move	$fp, $a0
	beq	$a2, $s2, .LBB17_33
# %bb.30:                               # %if.then.i.i12
	ld.d	$a0, $sp, 32
	addi.d	$a1, $a0, 1
	move	$a0, $a2
	pcaddu18i	$ra, %call36(_ZdlPvm)
	jirl	$ra, $ra, 0
	addi.d	$a0, $sp, 48
	pcaddu18i	$ra, %call36(_ZNSt7__cxx1118basic_stringstreamIcSt11char_traitsIcESaIcEED1Ev)
	jirl	$ra, $ra, 0
	move	$a0, $fp
	pcaddu18i	$ra, %call36(_Unwind_Resume)
	jirl	$ra, $ra, 0
.LBB17_31:                              # %lpad
.Ltmp187:                               # EH_LABEL
.LBB17_32:                              # %ehcleanup39
	move	$fp, $a0
.LBB17_33:                              # %ehcleanup39
	addi.d	$a0, $sp, 48
	pcaddu18i	$ra, %call36(_ZNSt7__cxx1118basic_stringstreamIcSt11char_traitsIcESaIcEED1Ev)
	jirl	$ra, $ra, 0
	move	$a0, $fp
	pcaddu18i	$ra, %call36(_Unwind_Resume)
	jirl	$ra, $ra, 0
.Lfunc_end17:
	.size	_ZNK7Results10NumThreadsEv, .Lfunc_end17-_ZNK7Results10NumThreadsEv
	.cfi_endproc
	.section	.gcc_except_table,"a",@progbits
	.p2align	2, 0x0
GCC_except_table17:
.Lexception5:
	.byte	255                             # @LPStart Encoding = omit
	.byte	255                             # @TType Encoding = omit
	.byte	1                               # Call site Encoding = uleb128
	.uleb128 .Lcst_end5-.Lcst_begin5
.Lcst_begin5:
	.uleb128 .Lfunc_begin5-.Lfunc_begin5    # >> Call Site 1 <<
	.uleb128 .Ltmp172-.Lfunc_begin5         #   Call between .Lfunc_begin5 and .Ltmp172
	.byte	0                               #     has no landing pad
	.byte	0                               #   On action: cleanup
	.uleb128 .Ltmp172-.Lfunc_begin5         # >> Call Site 2 <<
	.uleb128 .Ltmp173-.Ltmp172              #   Call between .Ltmp172 and .Ltmp173
	.uleb128 .Ltmp187-.Lfunc_begin5         #     jumps to .Ltmp187
	.byte	0                               #   On action: cleanup
	.uleb128 .Ltmp173-.Lfunc_begin5         # >> Call Site 3 <<
	.uleb128 .Ltmp174-.Ltmp173              #   Call between .Ltmp173 and .Ltmp174
	.byte	0                               #     has no landing pad
	.byte	0                               #   On action: cleanup
	.uleb128 .Ltmp174-.Lfunc_begin5         # >> Call Site 4 <<
	.uleb128 .Ltmp175-.Ltmp174              #   Call between .Ltmp174 and .Ltmp175
	.uleb128 .Ltmp176-.Lfunc_begin5         #     jumps to .Ltmp176
	.byte	0                               #   On action: cleanup
	.uleb128 .Ltmp175-.Lfunc_begin5         # >> Call Site 5 <<
	.uleb128 .Ltmp177-.Ltmp175              #   Call between .Ltmp175 and .Ltmp177
	.byte	0                               #     has no landing pad
	.byte	0                               #   On action: cleanup
	.uleb128 .Ltmp177-.Lfunc_begin5         # >> Call Site 6 <<
	.uleb128 .Ltmp178-.Ltmp177              #   Call between .Ltmp177 and .Ltmp178
	.uleb128 .Ltmp179-.Lfunc_begin5         #     jumps to .Ltmp179
	.byte	0                               #   On action: cleanup
	.uleb128 .Ltmp178-.Lfunc_begin5         # >> Call Site 7 <<
	.uleb128 .Ltmp185-.Ltmp178              #   Call between .Ltmp178 and .Ltmp185
	.byte	0                               #     has no landing pad
	.byte	0                               #   On action: cleanup
	.uleb128 .Ltmp185-.Lfunc_begin5         # >> Call Site 8 <<
	.uleb128 .Ltmp186-.Ltmp185              #   Call between .Ltmp185 and .Ltmp186
	.uleb128 .Ltmp187-.Lfunc_begin5         #     jumps to .Ltmp187
	.byte	0                               #   On action: cleanup
	.uleb128 .Ltmp180-.Lfunc_begin5         # >> Call Site 9 <<
	.uleb128 .Ltmp183-.Ltmp180              #   Call between .Ltmp180 and .Ltmp183
	.uleb128 .Ltmp184-.Lfunc_begin5         #     jumps to .Ltmp184
	.byte	0                               #   On action: cleanup
	.uleb128 .Ltmp183-.Lfunc_begin5         # >> Call Site 10 <<
	.uleb128 .Lfunc_end17-.Ltmp183          #   Call between .Ltmp183 and .Lfunc_end17
	.byte	0                               #     has no landing pad
	.byte	0                               #   On action: cleanup
.Lcst_end5:
	.p2align	2, 0x0
                                        # -- End function
	.text
	.hidden	_ZNK7Results13NumIterationsEv   # -- Begin function _ZNK7Results13NumIterationsEv
	.globl	_ZNK7Results13NumIterationsEv
	.p2align	2
	.type	_ZNK7Results13NumIterationsEv,@function
_ZNK7Results13NumIterationsEv:          # @_ZNK7Results13NumIterationsEv
.Lfunc_begin6:
	.cfi_startproc
	.cfi_personality 155, DW.ref.__gxx_personality_v0
	.cfi_lsda 27, .Lexception6
# %bb.0:                                # %entry
	addi.d	$sp, $sp, -80
	.cfi_def_cfa_offset 80
	st.d	$ra, $sp, 72                    # 8-byte Folded Spill
	st.d	$fp, $sp, 64                    # 8-byte Folded Spill
	st.d	$s0, $sp, 56                    # 8-byte Folded Spill
	fst.d	$fs0, $sp, 48                   # 8-byte Folded Spill
	.cfi_offset 1, -8
	.cfi_offset 22, -16
	.cfi_offset 23, -24
	.cfi_offset 56, -32
	pcalau12i	$a1, %pc_hi20(.L.str.18)
	addi.d	$a1, $a1, %pc_lo12(.L.str.18)
	ld.d	$a2, $a1, 0
	ld.h	$a1, $a1, 8
	addi.d	$s0, $sp, 32
	st.d	$s0, $sp, 16
	st.d	$a2, $sp, 32
	st.h	$a1, $sp, 40
	ori	$a1, $zero, 10
	st.d	$a1, $sp, 24
	st.b	$zero, $sp, 42
.Ltmp188:                               # EH_LABEL
	addi.d	$a1, $sp, 16
	pcaddu18i	$ra, %call36(_ZNK7Results5GetAsIdEET_RKNSt7__cxx1112basic_stringIcSt11char_traitsIcESaIcEEE)
	jirl	$ra, $ra, 0
.Ltmp189:                               # EH_LABEL
# %bb.1:                                # %invoke.cont4
	ld.d	$a0, $sp, 16
	beq	$a0, $s0, .LBB18_3
# %bb.2:                                # %if.then.i.i3
	ld.d	$a1, $sp, 32
	addi.d	$a1, $a1, 1
	fmov.d	$fs0, $fa0
	pcaddu18i	$ra, %call36(_ZdlPvm)
	jirl	$ra, $ra, 0
	fmov.d	$fa0, $fs0
.LBB18_3:                               # %_ZNSt7__cxx1112basic_stringIcSt11char_traitsIcESaIcEED2Ev.exit
	fld.d	$fs0, $sp, 48                   # 8-byte Folded Reload
	ld.d	$s0, $sp, 56                    # 8-byte Folded Reload
	ld.d	$fp, $sp, 64                    # 8-byte Folded Reload
	ld.d	$ra, $sp, 72                    # 8-byte Folded Reload
	addi.d	$sp, $sp, 80
	ret
.LBB18_4:                               # %lpad3
.Ltmp190:                               # EH_LABEL
	ld.d	$a2, $sp, 16
	move	$fp, $a0
	beq	$a2, $s0, .LBB18_6
# %bb.5:                                # %if.then.i.i5
	ld.d	$a0, $sp, 32
	addi.d	$a1, $a0, 1
	move	$a0, $a2
	pcaddu18i	$ra, %call36(_ZdlPvm)
	jirl	$ra, $ra, 0
.LBB18_6:                               # %ehcleanup
	move	$a0, $fp
	pcaddu18i	$ra, %call36(_Unwind_Resume)
	jirl	$ra, $ra, 0
.Lfunc_end18:
	.size	_ZNK7Results13NumIterationsEv, .Lfunc_end18-_ZNK7Results13NumIterationsEv
	.cfi_endproc
	.section	.gcc_except_table,"a",@progbits
	.p2align	2, 0x0
GCC_except_table18:
.Lexception6:
	.byte	255                             # @LPStart Encoding = omit
	.byte	255                             # @TType Encoding = omit
	.byte	1                               # Call site Encoding = uleb128
	.uleb128 .Lcst_end6-.Lcst_begin6
.Lcst_begin6:
	.uleb128 .Ltmp188-.Lfunc_begin6         # >> Call Site 1 <<
	.uleb128 .Ltmp189-.Ltmp188              #   Call between .Ltmp188 and .Ltmp189
	.uleb128 .Ltmp190-.Lfunc_begin6         #     jumps to .Ltmp190
	.byte	0                               #   On action: cleanup
	.uleb128 .Ltmp189-.Lfunc_begin6         # >> Call Site 2 <<
	.uleb128 .Lfunc_end18-.Ltmp189          #   Call between .Ltmp189 and .Lfunc_end18
	.byte	0                               #     has no landing pad
	.byte	0                               #   On action: cleanup
.Lcst_end6:
	.p2align	2, 0x0
                                        # -- End function
	.section	.text._ZNK7Results5GetAsIdEET_RKNSt7__cxx1112basic_stringIcSt11char_traitsIcESaIcEEE,"axG",@progbits,_ZNK7Results5GetAsIdEET_RKNSt7__cxx1112basic_stringIcSt11char_traitsIcESaIcEEE,comdat
	.hidden	_ZNK7Results5GetAsIdEET_RKNSt7__cxx1112basic_stringIcSt11char_traitsIcESaIcEEE # -- Begin function _ZNK7Results5GetAsIdEET_RKNSt7__cxx1112basic_stringIcSt11char_traitsIcESaIcEEE
	.weak	_ZNK7Results5GetAsIdEET_RKNSt7__cxx1112basic_stringIcSt11char_traitsIcESaIcEEE
	.p2align	2
	.type	_ZNK7Results5GetAsIdEET_RKNSt7__cxx1112basic_stringIcSt11char_traitsIcESaIcEEE,@function
_ZNK7Results5GetAsIdEET_RKNSt7__cxx1112basic_stringIcSt11char_traitsIcESaIcEEE: # @_ZNK7Results5GetAsIdEET_RKNSt7__cxx1112basic_stringIcSt11char_traitsIcESaIcEEE
.Lfunc_begin7:
	.cfi_startproc
	.cfi_personality 155, DW.ref.__gxx_personality_v0
	.cfi_lsda 27, .Lexception7
# %bb.0:                                # %entry
	addi.d	$sp, $sp, -512
	.cfi_def_cfa_offset 512
	st.d	$ra, $sp, 504                   # 8-byte Folded Spill
	st.d	$fp, $sp, 496                   # 8-byte Folded Spill
	st.d	$s0, $sp, 488                   # 8-byte Folded Spill
	st.d	$s1, $sp, 480                   # 8-byte Folded Spill
	st.d	$s2, $sp, 472                   # 8-byte Folded Spill
	st.d	$s3, $sp, 464                   # 8-byte Folded Spill
	st.d	$s4, $sp, 456                   # 8-byte Folded Spill
	st.d	$s5, $sp, 448                   # 8-byte Folded Spill
	st.d	$s6, $sp, 440                   # 8-byte Folded Spill
	st.d	$s7, $sp, 432                   # 8-byte Folded Spill
	st.d	$s8, $sp, 424                   # 8-byte Folded Spill
	fst.d	$fs0, $sp, 416                  # 8-byte Folded Spill
	.cfi_offset 1, -8
	.cfi_offset 22, -16
	.cfi_offset 23, -24
	.cfi_offset 24, -32
	.cfi_offset 25, -40
	.cfi_offset 26, -48
	.cfi_offset 27, -56
	.cfi_offset 28, -64
	.cfi_offset 29, -72
	.cfi_offset 30, -80
	.cfi_offset 31, -88
	.cfi_offset 56, -96
	ld.d	$s5, $a0, 48
	beqz	$s5, .LBB19_20
# %bb.1:                                # %while.body.lr.ph.i.i.i.i
	addi.d	$s1, $a0, 40
	ld.d	$s4, $a1, 8
	ld.d	$fp, $a1, 0
	lu12i.w	$s3, -524288
	lu12i.w	$a0, 524287
	ori	$s2, $a0, 4095
	ori	$s6, $zero, 16
	ori	$s7, $zero, 24
	move	$s0, $s1
	b	.LBB19_4
	.p2align	4, , 16
.LBB19_2:                               # %if.then.i.i.i.i.i.i.i
                                        #   in Loop: Header=BB19_4 Depth=1
	sub.d	$a0, $s8, $s4
	slt	$a1, $s3, $a0
	maskeqz	$a0, $a0, $a1
	masknez	$a1, $s3, $a1
	or	$a0, $a0, $a1
	slt	$a1, $a0, $s2
	maskeqz	$a0, $a0, $a1
	masknez	$a1, $s2, $a1
	or	$a0, $a0, $a1
.LBB19_3:                               # %_ZNKSt4lessINSt7__cxx1112basic_stringIcSt11char_traitsIcESaIcEEEEclERKS5_S8_.exit.i.i.i.i
                                        #   in Loop: Header=BB19_4 Depth=1
	addi.w	$a0, $a0, 0
	slti	$a0, $a0, 0
	masknez	$a1, $s5, $a0
	masknez	$a2, $s6, $a0
	maskeqz	$a3, $s7, $a0
	or	$a2, $a3, $a2
	ldx.d	$s5, $s5, $a2
	maskeqz	$a0, $s0, $a0
	or	$s0, $a0, $a1
	beqz	$s5, .LBB19_6
.LBB19_4:                               # %while.body.i.i.i.i
                                        # =>This Inner Loop Header: Depth=1
	ld.d	$s8, $s5, 40
	sltu	$a0, $s4, $s8
	masknez	$a1, $s8, $a0
	maskeqz	$a0, $s4, $a0
	or	$a2, $a0, $a1
	beqz	$a2, .LBB19_2
# %bb.5:                                # %_ZNSt11char_traitsIcE7compareEPKcS2_m.exit.i.i.i.i.i.i.i
                                        #   in Loop: Header=BB19_4 Depth=1
	ld.d	$a0, $s5, 32
	move	$a1, $fp
	pcaddu18i	$ra, %call36(memcmp)
	jirl	$ra, $ra, 0
	bnez	$a0, .LBB19_3
	b	.LBB19_2
.LBB19_6:                               # %_ZNKSt8_Rb_treeINSt7__cxx1112basic_stringIcSt11char_traitsIcESaIcEEESt4pairIKS5_S5_ESt10_Select1stIS8_ESt4lessIS5_ESaIS8_EE14_M_lower_boundEPSt18_Rb_tree_node_baseSG_RS7_.exit.i.i.i
	beq	$s0, $s1, .LBB19_20
# %bb.7:                                # %lor.lhs.false.i.i.i
	ld.d	$s5, $s0, 40
	sltu	$a0, $s5, $s4
	masknez	$a1, $s4, $a0
	maskeqz	$a0, $s5, $a0
	or	$a2, $a0, $a1
	beqz	$a2, .LBB19_9
# %bb.8:                                # %_ZNSt11char_traitsIcE7compareEPKcS2_m.exit.i.i.i.i.i.i
	ld.d	$a1, $s0, 32
	move	$a0, $fp
	pcaddu18i	$ra, %call36(memcmp)
	jirl	$ra, $ra, 0
	bnez	$a0, .LBB19_10
.LBB19_9:                               # %if.then.i.i.i.i.i.i
	sub.d	$a0, $s4, $s5
	slt	$a1, $s3, $a0
	maskeqz	$a0, $a0, $a1
	masknez	$a1, $s3, $a1
	or	$a0, $a0, $a1
	slt	$a1, $a0, $s2
	maskeqz	$a0, $a0, $a1
	masknez	$a1, $s2, $a1
	or	$a0, $a0, $a1
.LBB19_10:                              # %_ZNK7Results3GetERKNSt7__cxx1112basic_stringIcSt11char_traitsIcESaIcEEE.exit
	addi.w	$a0, $a0, 0
	bltz	$a0, .LBB19_20
# %bb.11:                               # %land.lhs.true
	ld.d	$a1, $s0, 72
	beqz	$a1, .LBB19_20
# %bb.12:                               # %cond.true
	slti	$a0, $a0, 0
	pcalau12i	$fp, %pc_hi20(_ZGVZN9benchmark8internal18GetNullLogInstanceEvE8null_log)
	ld.b	$a1, $fp, %pc_lo12(_ZGVZN9benchmark8internal18GetNullLogInstanceEvE8null_log)
	masknez	$a2, $s0, $a0
	maskeqz	$a0, $s1, $a0
	or	$s1, $a0, $a2
	dbar	20
	beqz	$a1, .LBB19_21
.LBB19_13:                              # %_ZN9benchmark8internal18GetNullLogInstanceEv.exit
	addi.d	$a0, $sp, 24
	pcaddu18i	$ra, %call36(_ZNSt7__cxx1118basic_stringstreamIcSt11char_traitsIcESaIcEEC1Ev)
	jirl	$ra, $ra, 0
	ld.d	$a1, $s1, 64
	ld.d	$a2, $s0, 72
	addi.d	$a0, $sp, 40
.Ltmp191:                               # EH_LABEL
	pcaddu18i	$ra, %call36(_ZSt16__ostream_insertIcSt11char_traitsIcEERSt13basic_ostreamIT_T0_ES6_PKS3_l)
	jirl	$ra, $ra, 0
.Ltmp192:                               # EH_LABEL
# %bb.14:                               # %invoke.cont
.Ltmp194:                               # EH_LABEL
	addi.d	$a0, $sp, 24
	addi.d	$a1, $sp, 16
	addi.d	$s0, $sp, 24
	pcaddu18i	$ra, %call36(_ZNSi10_M_extractIdEERSiRT_)
	jirl	$ra, $ra, 0
.Ltmp195:                               # EH_LABEL
# %bb.15:                               # %invoke.cont11
	ld.d	$a0, $sp, 24
	ld.d	$a0, $a0, -24
	add.d	$a0, $s0, $a0
	ld.bu	$a0, $a0, 32
	andi	$a0, $a0, 5
	bnez	$a0, .LBB19_23
# %bb.16:                               # %cond.true15
	ld.b	$a0, $fp, %pc_lo12(_ZGVZN9benchmark8internal18GetNullLogInstanceEvE8null_log)
	dbar	20
	beqz	$a0, .LBB19_26
.LBB19_17:                              # %cleanup.done33
	pcalau12i	$a0, %got_pc_hi20(_ZTTNSt7__cxx1118basic_stringstreamIcSt11char_traitsIcESaIcEEE)
	ld.d	$fp, $a0, %got_pc_lo12(_ZTTNSt7__cxx1118basic_stringstreamIcSt11char_traitsIcESaIcEEE)
	ld.d	$a0, $fp, 0
	st.d	$a0, $sp, 24
	ld.d	$a1, $fp, 64
	ld.d	$a0, $a0, -24
	addi.d	$s0, $sp, 24
	stx.d	$a1, $a0, $s0
	ld.d	$a1, $fp, 72
	pcalau12i	$a0, %got_pc_hi20(_ZTVNSt7__cxx1115basic_stringbufIcSt11char_traitsIcESaIcEEE)
	ld.d	$a2, $a0, %got_pc_lo12(_ZTVNSt7__cxx1115basic_stringbufIcSt11char_traitsIcESaIcEEE)
	fld.d	$fs0, $sp, 16
	ld.d	$a0, $sp, 120
	st.d	$a1, $sp, 40
	addi.d	$a1, $a2, 16
	addi.d	$a2, $sp, 136
	st.d	$a1, $sp, 48
	beq	$a0, $a2, .LBB19_19
# %bb.18:                               # %if.then.i.i.i.i.i
	ld.d	$a1, $sp, 136
	addi.d	$a1, $a1, 1
	pcaddu18i	$ra, %call36(_ZdlPvm)
	jirl	$ra, $ra, 0
.LBB19_19:                              # %_ZNSt7__cxx1118basic_stringstreamIcSt11char_traitsIcESaIcEED1Ev.exit
	pcalau12i	$a0, %got_pc_hi20(_ZTVSt15basic_streambufIcSt11char_traitsIcEE)
	ld.d	$a0, $a0, %got_pc_lo12(_ZTVSt15basic_streambufIcSt11char_traitsIcEE)
	addi.d	$a0, $a0, 16
	st.d	$a0, $sp, 48
	addi.d	$a0, $sp, 104
	pcaddu18i	$ra, %call36(_ZNSt6localeD1Ev)
	jirl	$ra, $ra, 0
	ld.d	$a0, $fp, 16
	st.d	$a0, $sp, 24
	ld.d	$a1, $fp, 24
	ld.d	$a0, $a0, -24
	stx.d	$a1, $a0, $s0
	st.d	$zero, $sp, 32
	addi.d	$a0, $sp, 152
	pcaddu18i	$ra, %call36(_ZNSt8ios_baseD2Ev)
	jirl	$ra, $ra, 0
	fmov.d	$fa0, $fs0
	fld.d	$fs0, $sp, 416                  # 8-byte Folded Reload
	ld.d	$s8, $sp, 424                   # 8-byte Folded Reload
	ld.d	$s7, $sp, 432                   # 8-byte Folded Reload
	ld.d	$s6, $sp, 440                   # 8-byte Folded Reload
	ld.d	$s5, $sp, 448                   # 8-byte Folded Reload
	ld.d	$s4, $sp, 456                   # 8-byte Folded Reload
	ld.d	$s3, $sp, 464                   # 8-byte Folded Reload
	ld.d	$s2, $sp, 472                   # 8-byte Folded Reload
	ld.d	$s1, $sp, 480                   # 8-byte Folded Reload
	ld.d	$s0, $sp, 488                   # 8-byte Folded Reload
	ld.d	$fp, $sp, 496                   # 8-byte Folded Reload
	ld.d	$ra, $sp, 504                   # 8-byte Folded Reload
	addi.d	$sp, $sp, 512
	ret
.LBB19_20:                              # %cond.false
	pcalau12i	$a0, %pc_hi20(.L.str.299)
	addi.d	$a1, $a0, %pc_lo12(.L.str.299)
	pcalau12i	$a0, %pc_hi20(.L.str.300)
	addi.d	$a2, $a0, %pc_lo12(.L.str.300)
	pcalau12i	$a0, %pc_hi20(.L__func__._ZNK7Results5GetAsIdEET_RKNSt7__cxx1112basic_stringIcSt11char_traitsIcESaIcEEE)
	addi.d	$a3, $a0, %pc_lo12(.L__func__._ZNK7Results5GetAsIdEET_RKNSt7__cxx1112basic_stringIcSt11char_traitsIcESaIcEEE)
	addi.d	$a0, $sp, 24
	ori	$a4, $zero, 144
	pcaddu18i	$ra, %call36(_ZN9benchmark8internal12CheckHandlerC2EPKcS3_S3_i)
	jirl	$ra, $ra, 0
	addi.d	$a0, $sp, 24
	pcaddu18i	$ra, %call36(_ZN9benchmark8internal12CheckHandlerD2Ev)
	jirl	$ra, $ra, 0
.LBB19_21:                              # %init.check.i
	pcalau12i	$a0, %pc_hi20(_ZGVZN9benchmark8internal18GetNullLogInstanceEvE8null_log)
	addi.d	$a0, $a0, %pc_lo12(_ZGVZN9benchmark8internal18GetNullLogInstanceEvE8null_log)
	pcaddu18i	$ra, %call36(__cxa_guard_acquire)
	jirl	$ra, $ra, 0
	addi.w	$a0, $a0, 0
	beqz	$a0, .LBB19_13
# %bb.22:                               # %init.i
	pcalau12i	$a0, %pc_hi20(_ZZN9benchmark8internal18GetNullLogInstanceEvE8null_log)
	st.d	$zero, $a0, %pc_lo12(_ZZN9benchmark8internal18GetNullLogInstanceEvE8null_log)
	pcalau12i	$a0, %pc_hi20(_ZGVZN9benchmark8internal18GetNullLogInstanceEvE8null_log)
	addi.d	$a0, $a0, %pc_lo12(_ZGVZN9benchmark8internal18GetNullLogInstanceEvE8null_log)
	pcaddu18i	$ra, %call36(__cxa_guard_release)
	jirl	$ra, $ra, 0
	b	.LBB19_13
.LBB19_23:                              # %cond.false18
.Ltmp197:                               # EH_LABEL
	pcalau12i	$a0, %pc_hi20(.L.str.17)
	addi.d	$a1, $a0, %pc_lo12(.L.str.17)
	pcalau12i	$a0, %pc_hi20(.L.str.300)
	addi.d	$a2, $a0, %pc_lo12(.L.str.300)
	pcalau12i	$a0, %pc_hi20(.L__func__._ZNK7Results5GetAsIdEET_RKNSt7__cxx1112basic_stringIcSt11char_traitsIcESaIcEEE)
	addi.d	$a3, $a0, %pc_lo12(.L__func__._ZNK7Results5GetAsIdEET_RKNSt7__cxx1112basic_stringIcSt11char_traitsIcESaIcEEE)
	addi.d	$a0, $sp, 8
	ori	$a4, $zero, 149
	pcaddu18i	$ra, %call36(_ZN9benchmark8internal12CheckHandlerC2EPKcS3_S3_i)
	jirl	$ra, $ra, 0
.Ltmp198:                               # EH_LABEL
# %bb.24:                               # %cleanup.action28
.Ltmp199:                               # EH_LABEL
	addi.d	$a0, $sp, 8
	pcaddu18i	$ra, %call36(_ZN9benchmark8internal12CheckHandlerD2Ev)
	jirl	$ra, $ra, 0
.Ltmp200:                               # EH_LABEL
# %bb.25:                               # %invoke.cont29
.LBB19_26:                              # %init.check.i8
	pcalau12i	$a0, %pc_hi20(_ZGVZN9benchmark8internal18GetNullLogInstanceEvE8null_log)
	addi.d	$a0, $a0, %pc_lo12(_ZGVZN9benchmark8internal18GetNullLogInstanceEvE8null_log)
	pcaddu18i	$ra, %call36(__cxa_guard_acquire)
	jirl	$ra, $ra, 0
	addi.w	$a0, $a0, 0
	beqz	$a0, .LBB19_17
# %bb.27:                               # %init.i10
	pcalau12i	$a0, %pc_hi20(_ZZN9benchmark8internal18GetNullLogInstanceEvE8null_log)
	st.d	$zero, $a0, %pc_lo12(_ZZN9benchmark8internal18GetNullLogInstanceEvE8null_log)
	pcalau12i	$a0, %pc_hi20(_ZGVZN9benchmark8internal18GetNullLogInstanceEvE8null_log)
	addi.d	$a0, $a0, %pc_lo12(_ZGVZN9benchmark8internal18GetNullLogInstanceEvE8null_log)
	pcaddu18i	$ra, %call36(__cxa_guard_release)
	jirl	$ra, $ra, 0
	b	.LBB19_17
.LBB19_28:                              # %lpad21
.Ltmp201:                               # EH_LABEL
	b	.LBB19_31
.LBB19_29:                              # %lpad10
.Ltmp196:                               # EH_LABEL
	b	.LBB19_31
.LBB19_30:                              # %lpad
.Ltmp193:                               # EH_LABEL
.LBB19_31:                              # %ehcleanup37
	move	$fp, $a0
	addi.d	$a0, $sp, 24
	pcaddu18i	$ra, %call36(_ZNSt7__cxx1118basic_stringstreamIcSt11char_traitsIcESaIcEED1Ev)
	jirl	$ra, $ra, 0
	move	$a0, $fp
	pcaddu18i	$ra, %call36(_Unwind_Resume)
	jirl	$ra, $ra, 0
.Lfunc_end19:
	.size	_ZNK7Results5GetAsIdEET_RKNSt7__cxx1112basic_stringIcSt11char_traitsIcESaIcEEE, .Lfunc_end19-_ZNK7Results5GetAsIdEET_RKNSt7__cxx1112basic_stringIcSt11char_traitsIcESaIcEEE
	.cfi_endproc
	.section	.gcc_except_table._ZNK7Results5GetAsIdEET_RKNSt7__cxx1112basic_stringIcSt11char_traitsIcESaIcEEE,"aG",@progbits,_ZNK7Results5GetAsIdEET_RKNSt7__cxx1112basic_stringIcSt11char_traitsIcESaIcEEE,comdat
	.p2align	2, 0x0
GCC_except_table19:
.Lexception7:
	.byte	255                             # @LPStart Encoding = omit
	.byte	255                             # @TType Encoding = omit
	.byte	1                               # Call site Encoding = uleb128
	.uleb128 .Lcst_end7-.Lcst_begin7
.Lcst_begin7:
	.uleb128 .Lfunc_begin7-.Lfunc_begin7    # >> Call Site 1 <<
	.uleb128 .Ltmp191-.Lfunc_begin7         #   Call between .Lfunc_begin7 and .Ltmp191
	.byte	0                               #     has no landing pad
	.byte	0                               #   On action: cleanup
	.uleb128 .Ltmp191-.Lfunc_begin7         # >> Call Site 2 <<
	.uleb128 .Ltmp192-.Ltmp191              #   Call between .Ltmp191 and .Ltmp192
	.uleb128 .Ltmp193-.Lfunc_begin7         #     jumps to .Ltmp193
	.byte	0                               #   On action: cleanup
	.uleb128 .Ltmp194-.Lfunc_begin7         # >> Call Site 3 <<
	.uleb128 .Ltmp195-.Ltmp194              #   Call between .Ltmp194 and .Ltmp195
	.uleb128 .Ltmp196-.Lfunc_begin7         #     jumps to .Ltmp196
	.byte	0                               #   On action: cleanup
	.uleb128 .Ltmp195-.Lfunc_begin7         # >> Call Site 4 <<
	.uleb128 .Ltmp197-.Ltmp195              #   Call between .Ltmp195 and .Ltmp197
	.byte	0                               #     has no landing pad
	.byte	0                               #   On action: cleanup
	.uleb128 .Ltmp197-.Lfunc_begin7         # >> Call Site 5 <<
	.uleb128 .Ltmp200-.Ltmp197              #   Call between .Ltmp197 and .Ltmp200
	.uleb128 .Ltmp201-.Lfunc_begin7         #     jumps to .Ltmp201
	.byte	0                               #   On action: cleanup
	.uleb128 .Ltmp200-.Lfunc_begin7         # >> Call Site 6 <<
	.uleb128 .Lfunc_end19-.Ltmp200          #   Call between .Ltmp200 and .Lfunc_end19
	.byte	0                               #     has no landing pad
	.byte	0                               #   On action: cleanup
.Lcst_end7:
	.p2align	2, 0x0
                                        # -- End function
	.section	.text._ZNSt7__cxx1112basic_stringIcSt11char_traitsIcESaIcEEC2IS3_EEPKcRKS3_,"axG",@progbits,_ZNSt7__cxx1112basic_stringIcSt11char_traitsIcESaIcEEC2IS3_EEPKcRKS3_,comdat
	.hidden	_ZNSt7__cxx1112basic_stringIcSt11char_traitsIcESaIcEEC2IS3_EEPKcRKS3_ # -- Begin function _ZNSt7__cxx1112basic_stringIcSt11char_traitsIcESaIcEEC2IS3_EEPKcRKS3_
	.weak	_ZNSt7__cxx1112basic_stringIcSt11char_traitsIcESaIcEEC2IS3_EEPKcRKS3_
	.p2align	2
	.type	_ZNSt7__cxx1112basic_stringIcSt11char_traitsIcESaIcEEC2IS3_EEPKcRKS3_,@function
_ZNSt7__cxx1112basic_stringIcSt11char_traitsIcESaIcEEC2IS3_EEPKcRKS3_: # @_ZNSt7__cxx1112basic_stringIcSt11char_traitsIcESaIcEEC2IS3_EEPKcRKS3_
	.cfi_startproc
# %bb.0:                                # %entry
	addi.d	$sp, $sp, -48
	.cfi_def_cfa_offset 48
	st.d	$ra, $sp, 40                    # 8-byte Folded Spill
	st.d	$fp, $sp, 32                    # 8-byte Folded Spill
	st.d	$s0, $sp, 24                    # 8-byte Folded Spill
	st.d	$s1, $sp, 16                    # 8-byte Folded Spill
	st.d	$s2, $sp, 8                     # 8-byte Folded Spill
	.cfi_offset 1, -8
	.cfi_offset 22, -16
	.cfi_offset 23, -24
	.cfi_offset 24, -32
	.cfi_offset 25, -40
	addi.d	$s2, $a0, 16
	st.d	$s2, $a0, 0
	beqz	$a1, .LBB20_8
# %bb.1:                                # %if.end
	move	$s0, $a1
	move	$fp, $a0
	move	$a0, $a1
	pcaddu18i	$ra, %call36(strlen)
	jirl	$ra, $ra, 0
	move	$s1, $a0
	ori	$a0, $zero, 16
	st.d	$s1, $sp, 0
	bltu	$s1, $a0, .LBB20_3
# %bb.2:                                # %if.then.i
	addi.d	$a1, $sp, 0
	move	$a0, $fp
	move	$a2, $zero
	pcaddu18i	$ra, %call36(_ZNSt7__cxx1112basic_stringIcSt11char_traitsIcESaIcEE9_M_createERmm)
	jirl	$ra, $ra, 0
	ld.d	$a1, $sp, 0
	move	$s2, $a0
	st.d	$a0, $fp, 0
	st.d	$a1, $fp, 16
.LBB20_3:                               # %if.end.i
	beqz	$s1, .LBB20_7
# %bb.4:                                # %if.end.i
	ori	$a0, $zero, 1
	bne	$s1, $a0, .LBB20_6
# %bb.5:                                # %if.then.i.i.i
	ld.b	$a0, $s0, 0
	st.b	$a0, $s2, 0
	b	.LBB20_7
.LBB20_6:                               # %if.end.i.i.i.i
	move	$a0, $s2
	move	$a1, $s0
	move	$a2, $s1
	pcaddu18i	$ra, %call36(memcpy)
	jirl	$ra, $ra, 0
.LBB20_7:                               # %invoke.cont4
	ld.d	$a0, $sp, 0
	ld.d	$a1, $fp, 0
	st.d	$a0, $fp, 8
	stx.b	$zero, $a1, $a0
	ld.d	$s2, $sp, 8                     # 8-byte Folded Reload
	ld.d	$s1, $sp, 16                    # 8-byte Folded Reload
	ld.d	$s0, $sp, 24                    # 8-byte Folded Reload
	ld.d	$fp, $sp, 32                    # 8-byte Folded Reload
	ld.d	$ra, $sp, 40                    # 8-byte Folded Reload
	addi.d	$sp, $sp, 48
	ret
.LBB20_8:                               # %if.then
	pcalau12i	$a0, %pc_hi20(.L.str.84)
	addi.d	$a0, $a0, %pc_lo12(.L.str.84)
	pcaddu18i	$ra, %call36(_ZSt19__throw_logic_errorPKc)
	jirl	$ra, $ra, 0
.Lfunc_end20:
	.size	_ZNSt7__cxx1112basic_stringIcSt11char_traitsIcESaIcEEC2IS3_EEPKcRKS3_, .Lfunc_end20-_ZNSt7__cxx1112basic_stringIcSt11char_traitsIcESaIcEEC2IS3_EEPKcRKS3_
	.cfi_endproc
                                        # -- End function
	.section	.rodata.cst8,"aM",@progbits,8
	.p2align	3, 0x0                          # -- Begin function _ZNK7Results7GetTimeENS_13BenchmarkTimeE
.LCPI21_0:
	.dword	0x3f50624dd2f1a9fc              # double 0.001
.LCPI21_1:
	.dword	0x3eb0c6f7a0b5ed8d              # double 9.9999999999999995E-7
.LCPI21_2:
	.dword	0x3e112e0be826d695              # double 1.0000000000000001E-9
	.text
	.hidden	_ZNK7Results7GetTimeENS_13BenchmarkTimeE
	.globl	_ZNK7Results7GetTimeENS_13BenchmarkTimeE
	.p2align	2
	.type	_ZNK7Results7GetTimeENS_13BenchmarkTimeE,@function
_ZNK7Results7GetTimeENS_13BenchmarkTimeE: # @_ZNK7Results7GetTimeENS_13BenchmarkTimeE
.Lfunc_begin8:
	.cfi_startproc
	.cfi_personality 155, DW.ref.__gxx_personality_v0
	.cfi_lsda 27, .Lexception8
# %bb.0:                                # %entry
	addi.d	$sp, $sp, -144
	.cfi_def_cfa_offset 144
	st.d	$ra, $sp, 136                   # 8-byte Folded Spill
	st.d	$fp, $sp, 128                   # 8-byte Folded Spill
	st.d	$s0, $sp, 120                   # 8-byte Folded Spill
	st.d	$s1, $sp, 112                   # 8-byte Folded Spill
	st.d	$s2, $sp, 104                   # 8-byte Folded Spill
	st.d	$s3, $sp, 96                    # 8-byte Folded Spill
	st.d	$s4, $sp, 88                    # 8-byte Folded Spill
	st.d	$s5, $sp, 80                    # 8-byte Folded Spill
	st.d	$s6, $sp, 72                    # 8-byte Folded Spill
	st.d	$s7, $sp, 64                    # 8-byte Folded Spill
	st.d	$s8, $sp, 56                    # 8-byte Folded Spill
	fst.d	$fs0, $sp, 48                   # 8-byte Folded Spill
	.cfi_offset 1, -8
	.cfi_offset 22, -16
	.cfi_offset 23, -24
	.cfi_offset 24, -32
	.cfi_offset 25, -40
	.cfi_offset 26, -48
	.cfi_offset 27, -56
	.cfi_offset 28, -64
	.cfi_offset 29, -72
	.cfi_offset 30, -80
	.cfi_offset 31, -88
	.cfi_offset 56, -96
	ori	$a2, $zero, 1
	bltu	$a2, $a1, .LBB21_32
# %bb.1:                                # %cond.true
	move	$s0, $a0
	pcalau12i	$s2, %pc_hi20(_ZGVZN9benchmark8internal18GetNullLogInstanceEvE8null_log)
	ld.b	$a0, $s2, %pc_lo12(_ZGVZN9benchmark8internal18GetNullLogInstanceEvE8null_log)
	dbar	20
	beqz	$a0, .LBB21_33
.LBB21_2:                               # %cleanup.done11
	sltui	$s3, $a1, 1
	pcalau12i	$a0, %pc_hi20(.L.str.21)
	addi.d	$a0, $a0, %pc_lo12(.L.str.21)
	masknez	$a0, $a0, $s3
	pcalau12i	$a1, %pc_hi20(.L.str.20)
	addi.d	$a1, $a1, %pc_lo12(.L.str.20)
	maskeqz	$a1, $a1, $s3
	or	$a1, $a1, $a0
	addi.d	$fp, $sp, 32
	st.d	$fp, $sp, 16
	xori	$s1, $s3, 9
	move	$a0, $fp
	move	$a2, $s1
	pcaddu18i	$ra, %call36(memcpy)
	jirl	$ra, $ra, 0
	st.d	$s1, $sp, 24
	xori	$a0, $s3, 25
	addi.d	$a1, $sp, 16
	stx.b	$zero, $a0, $a1
.Ltmp202:                               # EH_LABEL
	move	$a0, $s0
	pcaddu18i	$ra, %call36(_ZNK7Results5GetAsIdEET_RKNSt7__cxx1112basic_stringIcSt11char_traitsIcESaIcEEE)
	jirl	$ra, $ra, 0
.Ltmp203:                               # EH_LABEL
# %bb.3:                                # %invoke.cont22
	fmov.d	$fs0, $fa0
	ld.d	$a0, $sp, 16
	beq	$a0, $fp, .LBB21_5
# %bb.4:                                # %if.then.i.i16
	ld.d	$a1, $sp, 32
	addi.d	$a1, $a1, 1
	pcaddu18i	$ra, %call36(_ZdlPvm)
	jirl	$ra, $ra, 0
.LBB21_5:                               # %_ZNSt7__cxx1112basic_stringIcSt11char_traitsIcESaIcEED2Ev.exit
	pcalau12i	$a0, %pc_hi20(.L.str.22)
	addi.d	$a0, $a0, %pc_lo12(.L.str.22)
	ld.d	$a1, $a0, 0
	ld.b	$a0, $a0, 8
	st.d	$fp, $sp, 16
	st.d	$a1, $sp, 32
	ld.d	$s3, $s0, 48
	st.b	$a0, $sp, 40
	ori	$s4, $zero, 9
	st.d	$s4, $sp, 24
	st.b	$zero, $sp, 41
	beqz	$s3, .LBB21_31
# %bb.6:                                # %while.body.i.i.i.i.preheader
	addi.d	$s0, $s0, 40
	ori	$s5, $zero, 8
	bstrins.d	$s5, $s5, 32, 28
	ori	$s6, $zero, 16
	ori	$s7, $zero, 24
	move	$s1, $s0
	b	.LBB21_9
	.p2align	4, , 16
.LBB21_7:                               # %if.then.i.i.i.i.i.i.i
                                        #   in Loop: Header=BB21_9 Depth=1
	sltu	$a0, $s8, $s5
	masknez	$a1, $s5, $a0
	maskeqz	$a0, $s8, $a0
	or	$a0, $a0, $a1
	addi.w	$a0, $a0, -9
.LBB21_8:                               # %_ZNKSt4lessINSt7__cxx1112basic_stringIcSt11char_traitsIcESaIcEEEEclERKS5_S8_.exit.i.i.i.i
                                        #   in Loop: Header=BB21_9 Depth=1
	slti	$a0, $a0, 0
	masknez	$a1, $s3, $a0
	masknez	$a2, $s6, $a0
	maskeqz	$a3, $s7, $a0
	or	$a2, $a3, $a2
	ldx.d	$s3, $s3, $a2
	maskeqz	$a0, $s1, $a0
	or	$s1, $a0, $a1
	beqz	$s3, .LBB21_11
.LBB21_9:                               # %while.body.i.i.i.i
                                        # =>This Inner Loop Header: Depth=1
	ld.d	$s8, $s3, 40
	beqz	$s8, .LBB21_7
# %bb.10:                               # %_ZNSt11char_traitsIcE7compareEPKcS2_m.exit.i.i.i.i.i.i.i
                                        #   in Loop: Header=BB21_9 Depth=1
	sltui	$a1, $s8, 9
	ld.d	$a0, $s3, 32
	masknez	$a2, $s4, $a1
	maskeqz	$a1, $s8, $a1
	or	$a2, $a1, $a2
	move	$a1, $fp
	pcaddu18i	$ra, %call36(memcmp)
	jirl	$ra, $ra, 0
	bnez	$a0, .LBB21_8
	b	.LBB21_7
.LBB21_11:                              # %_ZNKSt8_Rb_treeINSt7__cxx1112basic_stringIcSt11char_traitsIcESaIcEEESt4pairIKS5_S5_ESt10_Select1stIS8_ESt4lessIS5_ESaIS8_EE14_M_lower_boundEPSt18_Rb_tree_node_baseSG_RS7_.exit.i.i.i
	beq	$s1, $s0, .LBB21_31
# %bb.12:                               # %lor.lhs.false.i.i.i
	ld.d	$s3, $s1, 40
	beqz	$s3, .LBB21_14
# %bb.13:                               # %_ZNSt11char_traitsIcE7compareEPKcS2_m.exit.i.i.i.i.i.i
	sltui	$a0, $s3, 9
	ori	$a2, $zero, 9
	ld.d	$a1, $s1, 32
	masknez	$a2, $a2, $a0
	maskeqz	$a0, $s3, $a0
	or	$a2, $a0, $a2
	move	$a0, $fp
	pcaddu18i	$ra, %call36(memcmp)
	jirl	$ra, $ra, 0
	bnez	$a0, .LBB21_15
.LBB21_14:                              # %if.then.i.i.i.i.i.i
	ori	$a0, $zero, 9
	sub.d	$a0, $a0, $s3
	lu12i.w	$a1, -524288
	slt	$a2, $a1, $a0
	maskeqz	$a0, $a0, $a2
	masknez	$a1, $a1, $a2
	or	$a0, $a0, $a1
.LBB21_15:                              # %_ZNSt7__cxx1112basic_stringIcSt11char_traitsIcESaIcEED2Ev.exit36
	addi.w	$a0, $a0, 0
	bltz	$a0, .LBB21_31
# %bb.16:                               # %cond.true37
	slti	$a0, $a0, 0
	ld.b	$a1, $s2, %pc_lo12(_ZGVZN9benchmark8internal18GetNullLogInstanceEvE8null_log)
	masknez	$a2, $s1, $a0
	maskeqz	$a0, $s0, $a0
	or	$fp, $a0, $a2
	dbar	20
	beqz	$a1, .LBB21_35
.LBB21_17:                              # %cleanup.done58
	ld.d	$a2, $fp, 72
	ori	$a0, $zero, 1
	addi.d	$fp, $fp, 64
	beq	$a2, $a0, .LBB21_23
# %bb.18:                               # %cleanup.done58
	ori	$a0, $zero, 2
	bne	$a2, $a0, .LBB21_24
# %bb.19:                               # %_ZSteqIcSt11char_traitsIcESaIcEEbRKNSt7__cxx1112basic_stringIT_T0_T1_EEPKS5_.exit
	ld.d	$a0, $fp, 0
	ld.hu	$a2, $a0, 0
	lu12i.w	$a1, 7
	ori	$a3, $a1, 878
	beq	$a2, $a3, .LBB21_27
# %bb.20:                               # %_ZSteqIcSt11char_traitsIcESaIcEEbRKNSt7__cxx1112basic_stringIT_T0_T1_EEPKS5_.exit67
	ld.hu	$a2, $a0, 0
	ori	$a3, $a1, 885
	beq	$a2, $a3, .LBB21_28
# %bb.21:                               # %_ZSteqIcSt11char_traitsIcESaIcEEbRKNSt7__cxx1112basic_stringIT_T0_T1_EEPKS5_.exit76
	ld.hu	$a0, $a0, 0
	ori	$a1, $a1, 877
	bne	$a0, $a1, .LBB21_24
# %bb.22:                               # %if.then69
	pcalau12i	$a0, %pc_hi20(.LCPI21_0)
	fld.d	$fa0, $a0, %pc_lo12(.LCPI21_0)
	b	.LBB21_29
.LBB21_23:                              # %_ZSteqIcSt11char_traitsIcESaIcEEbRKNSt7__cxx1112basic_stringIT_T0_T1_EEPKS5_.exit85
	ld.d	$a0, $fp, 0
	pcalau12i	$a1, %pc_hi20(.L.str.27)
	addi.d	$a1, $a1, %pc_lo12(.L.str.27)
	pcaddu18i	$ra, %call36(bcmp)
	jirl	$ra, $ra, 0
	beqz	$a0, .LBB21_30
.LBB21_24:                              # %if.end74
	pcalau12i	$a0, %pc_hi20(.L.str.28)
	addi.d	$a1, $a0, %pc_lo12(.L.str.28)
	pcalau12i	$a0, %pc_hi20(.L.str.1)
	addi.d	$a2, $a0, %pc_lo12(.L.str.1)
	pcalau12i	$a0, %pc_hi20(.L__func__._ZNK7Results7GetTimeENS_13BenchmarkTimeE)
	addi.d	$a3, $a0, %pc_lo12(.L__func__._ZNK7Results7GetTimeENS_13BenchmarkTimeE)
	addi.d	$a0, $sp, 16
	ori	$a4, $zero, 341
	pcaddu18i	$ra, %call36(_ZN9benchmark8internal12CheckHandlerC2EPKcS3_S3_i)
	jirl	$ra, $ra, 0
	ld.d	$a0, $sp, 16
.Ltmp205:                               # EH_LABEL
	pcalau12i	$a1, %pc_hi20(.L.str.29)
	addi.d	$a1, $a1, %pc_lo12(.L.str.29)
	pcaddu18i	$ra, %call36(_ZN9benchmark8internallsIA20_cEERNS0_7LogTypeES4_RKT_)
	jirl	$ra, $ra, 0
.Ltmp206:                               # EH_LABEL
# %bb.25:                               # %invoke.cont79
.Ltmp207:                               # EH_LABEL
	move	$a1, $fp
	pcaddu18i	$ra, %call36(_ZN9benchmark8internallsINSt7__cxx1112basic_stringIcSt11char_traitsIcESaIcEEEEERNS0_7LogTypeES9_RKT_)
	jirl	$ra, $ra, 0
.Ltmp208:                               # EH_LABEL
# %bb.26:                               # %invoke.cont81
	addi.d	$a0, $sp, 16
	pcaddu18i	$ra, %call36(_ZN9benchmark8internal12CheckHandlerD2Ev)
	jirl	$ra, $ra, 0
.LBB21_27:                              # %if.then
	pcalau12i	$a0, %pc_hi20(.LCPI21_2)
	fld.d	$fa0, $a0, %pc_lo12(.LCPI21_2)
	b	.LBB21_29
.LBB21_28:                              # %if.then65
	pcalau12i	$a0, %pc_hi20(.LCPI21_1)
	fld.d	$fa0, $a0, %pc_lo12(.LCPI21_1)
.LBB21_29:                              # %cleanup
	fmul.d	$fs0, $fs0, $fa0
.LBB21_30:                              # %cleanup
	fmov.d	$fa0, $fs0
	fld.d	$fs0, $sp, 48                   # 8-byte Folded Reload
	ld.d	$s8, $sp, 56                    # 8-byte Folded Reload
	ld.d	$s7, $sp, 64                    # 8-byte Folded Reload
	ld.d	$s6, $sp, 72                    # 8-byte Folded Reload
	ld.d	$s5, $sp, 80                    # 8-byte Folded Reload
	ld.d	$s4, $sp, 88                    # 8-byte Folded Reload
	ld.d	$s3, $sp, 96                    # 8-byte Folded Reload
	ld.d	$s2, $sp, 104                   # 8-byte Folded Reload
	ld.d	$s1, $sp, 112                   # 8-byte Folded Reload
	ld.d	$s0, $sp, 120                   # 8-byte Folded Reload
	ld.d	$fp, $sp, 128                   # 8-byte Folded Reload
	ld.d	$ra, $sp, 136                   # 8-byte Folded Reload
	addi.d	$sp, $sp, 144
	ret
.LBB21_31:                              # %cleanup.action49
	pcalau12i	$a0, %pc_hi20(.L.str.23)
	addi.d	$a1, $a0, %pc_lo12(.L.str.23)
	pcalau12i	$a0, %pc_hi20(.L.str.1)
	addi.d	$a2, $a0, %pc_lo12(.L.str.1)
	pcalau12i	$a0, %pc_hi20(.L__func__._ZNK7Results7GetTimeENS_13BenchmarkTimeE)
	addi.d	$a3, $a0, %pc_lo12(.L__func__._ZNK7Results7GetTimeENS_13BenchmarkTimeE)
	addi.d	$a0, $sp, 16
	ori	$a4, $zero, 328
	pcaddu18i	$ra, %call36(_ZN9benchmark8internal12CheckHandlerC2EPKcS3_S3_i)
	jirl	$ra, $ra, 0
	addi.d	$a0, $sp, 16
	pcaddu18i	$ra, %call36(_ZN9benchmark8internal12CheckHandlerD2Ev)
	jirl	$ra, $ra, 0
.LBB21_32:                              # %cleanup.action
	pcalau12i	$a0, %pc_hi20(.L.str.19)
	addi.d	$a1, $a0, %pc_lo12(.L.str.19)
	pcalau12i	$a0, %pc_hi20(.L.str.1)
	addi.d	$a2, $a0, %pc_lo12(.L.str.1)
	pcalau12i	$a0, %pc_hi20(.L__func__._ZNK7Results7GetTimeENS_13BenchmarkTimeE)
	addi.d	$a3, $a0, %pc_lo12(.L__func__._ZNK7Results7GetTimeENS_13BenchmarkTimeE)
	addi.d	$a0, $sp, 16
	ori	$a4, $zero, 324
	pcaddu18i	$ra, %call36(_ZN9benchmark8internal12CheckHandlerC2EPKcS3_S3_i)
	jirl	$ra, $ra, 0
	addi.d	$a0, $sp, 16
	pcaddu18i	$ra, %call36(_ZN9benchmark8internal12CheckHandlerD2Ev)
	jirl	$ra, $ra, 0
.LBB21_33:                              # %init.check.i
	pcalau12i	$a0, %pc_hi20(_ZGVZN9benchmark8internal18GetNullLogInstanceEvE8null_log)
	addi.d	$a0, $a0, %pc_lo12(_ZGVZN9benchmark8internal18GetNullLogInstanceEvE8null_log)
	move	$fp, $a1
	pcaddu18i	$ra, %call36(__cxa_guard_acquire)
	jirl	$ra, $ra, 0
	move	$a1, $fp
	addi.w	$a0, $a0, 0
	beqz	$a0, .LBB21_2
# %bb.34:                               # %init.i
	pcalau12i	$a0, %pc_hi20(_ZZN9benchmark8internal18GetNullLogInstanceEvE8null_log)
	st.d	$zero, $a0, %pc_lo12(_ZZN9benchmark8internal18GetNullLogInstanceEvE8null_log)
	pcalau12i	$a0, %pc_hi20(_ZGVZN9benchmark8internal18GetNullLogInstanceEvE8null_log)
	addi.d	$a0, $a0, %pc_lo12(_ZGVZN9benchmark8internal18GetNullLogInstanceEvE8null_log)
	pcaddu18i	$ra, %call36(__cxa_guard_release)
	jirl	$ra, $ra, 0
	move	$a1, $fp
	b	.LBB21_2
.LBB21_35:                              # %init.check.i38
	pcalau12i	$a0, %pc_hi20(_ZGVZN9benchmark8internal18GetNullLogInstanceEvE8null_log)
	addi.d	$a0, $a0, %pc_lo12(_ZGVZN9benchmark8internal18GetNullLogInstanceEvE8null_log)
	pcaddu18i	$ra, %call36(__cxa_guard_acquire)
	jirl	$ra, $ra, 0
	addi.w	$a0, $a0, 0
	beqz	$a0, .LBB21_17
# %bb.36:                               # %init.i40
	pcalau12i	$a0, %pc_hi20(_ZZN9benchmark8internal18GetNullLogInstanceEvE8null_log)
	st.d	$zero, $a0, %pc_lo12(_ZZN9benchmark8internal18GetNullLogInstanceEvE8null_log)
	pcalau12i	$a0, %pc_hi20(_ZGVZN9benchmark8internal18GetNullLogInstanceEvE8null_log)
	addi.d	$a0, $a0, %pc_lo12(_ZGVZN9benchmark8internal18GetNullLogInstanceEvE8null_log)
	pcaddu18i	$ra, %call36(__cxa_guard_release)
	jirl	$ra, $ra, 0
	b	.LBB21_17
.LBB21_37:                              # %lpad76
.Ltmp209:                               # EH_LABEL
.Ltmp210:                               # EH_LABEL
	addi.d	$a0, $sp, 16
	pcaddu18i	$ra, %call36(_ZN9benchmark8internal12CheckHandlerD2Ev)
	jirl	$ra, $ra, 0
.Ltmp211:                               # EH_LABEL
# %bb.38:                               # %invoke.cont84
.LBB21_39:                              # %terminate.lpad
.Ltmp212:                               # EH_LABEL
	pcaddu18i	$ra, %call36(__clang_call_terminate)
	jirl	$ra, $ra, 0
.LBB21_40:                              # %lpad21
.Ltmp204:                               # EH_LABEL
	ld.d	$a2, $sp, 16
	move	$s0, $a0
	beq	$a2, $fp, .LBB21_42
# %bb.41:                               # %if.then.i.i43
	ld.d	$a0, $sp, 32
	addi.d	$a1, $a0, 1
	move	$a0, $a2
	pcaddu18i	$ra, %call36(_ZdlPvm)
	jirl	$ra, $ra, 0
.LBB21_42:                              # %ehcleanup
	move	$a0, $s0
	pcaddu18i	$ra, %call36(_Unwind_Resume)
	jirl	$ra, $ra, 0
.Lfunc_end21:
	.size	_ZNK7Results7GetTimeENS_13BenchmarkTimeE, .Lfunc_end21-_ZNK7Results7GetTimeENS_13BenchmarkTimeE
	.cfi_endproc
	.section	.gcc_except_table,"a",@progbits
	.p2align	2, 0x0
GCC_except_table21:
.Lexception8:
	.byte	255                             # @LPStart Encoding = omit
	.byte	155                             # @TType Encoding = indirect pcrel sdata4
	.uleb128 .Lttbase2-.Lttbaseref2
.Lttbaseref2:
	.byte	1                               # Call site Encoding = uleb128
	.uleb128 .Lcst_end8-.Lcst_begin8
.Lcst_begin8:
	.uleb128 .Lfunc_begin8-.Lfunc_begin8    # >> Call Site 1 <<
	.uleb128 .Ltmp202-.Lfunc_begin8         #   Call between .Lfunc_begin8 and .Ltmp202
	.byte	0                               #     has no landing pad
	.byte	0                               #   On action: cleanup
	.uleb128 .Ltmp202-.Lfunc_begin8         # >> Call Site 2 <<
	.uleb128 .Ltmp203-.Ltmp202              #   Call between .Ltmp202 and .Ltmp203
	.uleb128 .Ltmp204-.Lfunc_begin8         #     jumps to .Ltmp204
	.byte	0                               #   On action: cleanup
	.uleb128 .Ltmp203-.Lfunc_begin8         # >> Call Site 3 <<
	.uleb128 .Ltmp205-.Ltmp203              #   Call between .Ltmp203 and .Ltmp205
	.byte	0                               #     has no landing pad
	.byte	0                               #   On action: cleanup
	.uleb128 .Ltmp205-.Lfunc_begin8         # >> Call Site 4 <<
	.uleb128 .Ltmp208-.Ltmp205              #   Call between .Ltmp205 and .Ltmp208
	.uleb128 .Ltmp209-.Lfunc_begin8         #     jumps to .Ltmp209
	.byte	0                               #   On action: cleanup
	.uleb128 .Ltmp208-.Lfunc_begin8         # >> Call Site 5 <<
	.uleb128 .Ltmp210-.Ltmp208              #   Call between .Ltmp208 and .Ltmp210
	.byte	0                               #     has no landing pad
	.byte	0                               #   On action: cleanup
	.uleb128 .Ltmp210-.Lfunc_begin8         # >> Call Site 6 <<
	.uleb128 .Ltmp211-.Ltmp210              #   Call between .Ltmp210 and .Ltmp211
	.uleb128 .Ltmp212-.Lfunc_begin8         #     jumps to .Ltmp212
	.byte	1                               #   On action: 1
	.uleb128 .Ltmp211-.Lfunc_begin8         # >> Call Site 7 <<
	.uleb128 .Lfunc_end21-.Ltmp211          #   Call between .Ltmp211 and .Lfunc_end21
	.byte	0                               #     has no landing pad
	.byte	0                               #   On action: cleanup
.Lcst_end8:
	.byte	1                               # >> Action Record 1 <<
                                        #   Catch TypeInfo 1
	.byte	0                               #   No further actions
	.p2align	2, 0x0
                                        # >> Catch TypeInfos <<
	.word	0                               # TypeInfo 1
.Lttbase2:
	.p2align	2, 0x0
                                        # -- End function
	.text
	.hidden	_ZN8TestCaseC2ENSt7__cxx1112basic_stringIcSt11char_traitsIcESaIcEEEi # -- Begin function _ZN8TestCaseC2ENSt7__cxx1112basic_stringIcSt11char_traitsIcESaIcEEEi
	.globl	_ZN8TestCaseC2ENSt7__cxx1112basic_stringIcSt11char_traitsIcESaIcEEEi
	.p2align	2
	.type	_ZN8TestCaseC2ENSt7__cxx1112basic_stringIcSt11char_traitsIcESaIcEEEi,@function
_ZN8TestCaseC2ENSt7__cxx1112basic_stringIcSt11char_traitsIcESaIcEEEi: # @_ZN8TestCaseC2ENSt7__cxx1112basic_stringIcSt11char_traitsIcESaIcEEEi
.Lfunc_begin9:
	.cfi_startproc
	.cfi_personality 155, DW.ref.__gxx_personality_v0
	.cfi_lsda 27, .Lexception9
# %bb.0:                                # %entry
	addi.d	$sp, $sp, -144
	.cfi_def_cfa_offset 144
	st.d	$ra, $sp, 136                   # 8-byte Folded Spill
	st.d	$fp, $sp, 128                   # 8-byte Folded Spill
	st.d	$s0, $sp, 120                   # 8-byte Folded Spill
	st.d	$s1, $sp, 112                   # 8-byte Folded Spill
	st.d	$s2, $sp, 104                   # 8-byte Folded Spill
	st.d	$s3, $sp, 96                    # 8-byte Folded Spill
	st.d	$s4, $sp, 88                    # 8-byte Folded Spill
	.cfi_offset 1, -8
	.cfi_offset 22, -16
	.cfi_offset 23, -24
	.cfi_offset 24, -32
	.cfi_offset 25, -40
	.cfi_offset 26, -48
	.cfi_offset 27, -56
	move	$s1, $a1
	move	$s0, $a0
	addi.d	$fp, $a0, 16
	st.d	$fp, $a0, 0
	ld.d	$a0, $a1, 0
	addi.d	$s3, $a1, 16
	move	$s2, $a2
	beq	$a0, $s3, .LBB22_2
# %bb.1:                                # %if.else.i
	st.d	$a0, $s0, 0
	ld.d	$a0, $s3, 0
	st.d	$a0, $s0, 16
	b	.LBB22_3
.LBB22_2:                               # %_ZNSt11char_traitsIcE4copyEPcPKcm.exit.i
	ld.d	$a0, $s1, 8
	addi.d	$a2, $a0, 1
	move	$a0, $fp
	move	$a1, $s3
	pcaddu18i	$ra, %call36(memcpy)
	jirl	$ra, $ra, 0
.LBB22_3:                               # %_ZNSt7__cxx1112basic_stringIcSt11char_traitsIcESaIcEEC2EOS4_.exit
	ld.d	$a0, $s1, 8
	st.d	$a0, $s0, 8
	st.d	$s3, $s1, 0
	st.d	$zero, $s1, 8
	st.b	$zero, $s1, 16
	st.w	$s2, $s0, 32
	addi.d	$s3, $sp, 72
	ld.d	$a1, $s0, 8
	ld.d	$s2, $s0, 0
	st.d	$s3, $sp, 56
	ori	$a2, $zero, 16
	st.d	$a1, $sp, 24
	move	$a0, $s3
	bltu	$a1, $a2, .LBB22_6
# %bb.4:                                # %if.then.i.i
.Ltmp213:                               # EH_LABEL
	addi.d	$a0, $sp, 56
	addi.d	$a1, $sp, 24
	move	$a2, $zero
	pcaddu18i	$ra, %call36(_ZNSt7__cxx1112basic_stringIcSt11char_traitsIcESaIcEE9_M_createERmm)
	jirl	$ra, $ra, 0
.Ltmp214:                               # EH_LABEL
# %bb.5:                                # %call.i4.i.noexc
	ld.d	$a1, $sp, 24
	st.d	$a0, $sp, 56
	st.d	$a1, $sp, 72
.LBB22_6:                               # %if.end.i.i
	addi.w	$a2, $zero, -1
	addi.d	$s1, $s0, 40
	beq	$a1, $a2, .LBB22_10
# %bb.7:                                # %if.end.i.i
	bnez	$a1, .LBB22_9
# %bb.8:                                # %if.then.i.i.i
	ld.b	$a1, $s2, 0
	st.b	$a1, $a0, 0
	b	.LBB22_10
.LBB22_9:                               # %if.end.i.i.i.i
	addi.d	$a2, $a1, 1
	move	$a1, $s2
	pcaddu18i	$ra, %call36(memcpy)
	jirl	$ra, $ra, 0
.LBB22_10:                              # %invoke.cont
	ld.d	$a0, $sp, 24
	st.d	$a0, $sp, 64
.Ltmp216:                               # EH_LABEL
	addi.d	$a1, $sp, 56
	move	$a0, $s1
	pcaddu18i	$ra, %call36(_ZN8internal12_GLOBAL__N_120PerformSubstitutionsENSt7__cxx1112basic_stringIcSt11char_traitsIcESaIcEEE)
	jirl	$ra, $ra, 0
.Ltmp217:                               # EH_LABEL
# %bb.11:                               # %invoke.cont4
	ld.d	$a0, $sp, 56
	beq	$a0, $s3, .LBB22_13
# %bb.12:                               # %if.then.i.i8
	ld.d	$a1, $sp, 72
	addi.d	$a1, $a1, 1
	pcaddu18i	$ra, %call36(_ZdlPvm)
	jirl	$ra, $ra, 0
.LBB22_13:                              # %_ZNSt7__cxx1112basic_stringIcSt11char_traitsIcESaIcEED2Ev.exit
.Ltmp219:                               # EH_LABEL
	ori	$a0, $zero, 56
	pcaddu18i	$ra, %call36(_Znwm)
	jirl	$ra, $ra, 0
.Ltmp220:                               # EH_LABEL
# %bb.14:                               # %invoke.cont6
	move	$s2, $a0
	ori	$a0, $zero, 1
	lu32i.d	$a0, 1
	st.d	$a0, $s2, 8
	pcalau12i	$a0, %pc_hi20(_ZTVSt23_Sp_counted_ptr_inplaceIN9benchmark5RegexESaIvELN9__gnu_cxx12_Lock_policyE2EE+16)
	addi.d	$a0, $a0, %pc_lo12(_ZTVSt23_Sp_counted_ptr_inplaceIN9benchmark5RegexESaIvELN9__gnu_cxx12_Lock_policyE2EE+16)
	st.d	$a0, $s2, 0
	addi.d	$s3, $s2, 16
	st.b	$zero, $s2, 16
	ori	$a0, $zero, 16
	st.w	$a0, $s2, 24
	addi.d	$a0, $s2, 32
	pcaddu18i	$ra, %call36(_ZNSt6localeC1Ev)
	jirl	$ra, $ra, 0
	vrepli.b	$vr0, 0
	vst	$vr0, $s2, 40
	st.d	$s2, $s0, 80
	st.d	$s3, $s0, 72
	addi.d	$s4, $sp, 40
	st.d	$s4, $sp, 24
	st.d	$zero, $sp, 32
	st.b	$zero, $sp, 40
.Ltmp222:                               # EH_LABEL
	addi.d	$a2, $sp, 24
	move	$a0, $s3
	move	$a1, $s1
	pcaddu18i	$ra, %call36(_ZN9benchmark5Regex4InitERKNSt7__cxx1112basic_stringIcSt11char_traitsIcESaIcEEEPS6_)
	jirl	$ra, $ra, 0
.Ltmp223:                               # EH_LABEL
# %bb.15:                               # %invoke.cont10
	ld.d	$s2, $sp, 32
	beqz	$s2, .LBB22_18
# %bb.16:                               # %cond.false
.Ltmp225:                               # EH_LABEL
	pcalau12i	$a0, %pc_hi20(.L.str.30)
	addi.d	$a1, $a0, %pc_lo12(.L.str.30)
	pcalau12i	$a0, %pc_hi20(.L.str.1)
	addi.d	$a2, $a0, %pc_lo12(.L.str.1)
	pcalau12i	$a0, %pc_hi20(.L__func__._ZN8TestCaseC2ENSt7__cxx1112basic_stringIcSt11char_traitsIcESaIcEEEi)
	addi.d	$a3, $a0, %pc_lo12(.L__func__._ZN8TestCaseC2ENSt7__cxx1112basic_stringIcSt11char_traitsIcESaIcEEEi)
	addi.d	$a0, $sp, 16
	ori	$a4, $zero, 356
	pcaddu18i	$ra, %call36(_ZN9benchmark8internal12CheckHandlerC2EPKcS3_S3_i)
	jirl	$ra, $ra, 0
.Ltmp226:                               # EH_LABEL
# %bb.17:                               # %invoke.cont16
	ld.d	$s1, $sp, 16
	b	.LBB22_19
.LBB22_18:                              # %cond.true
	pcalau12i	$a0, %pc_hi20(_ZGVZN9benchmark8internal18GetNullLogInstanceEvE8null_log)
	ld.b	$a0, $a0, %pc_lo12(_ZGVZN9benchmark8internal18GetNullLogInstanceEvE8null_log)
	dbar	20
	pcalau12i	$a1, %pc_hi20(_ZZN9benchmark8internal18GetNullLogInstanceEvE8null_log)
	addi.d	$s1, $a1, %pc_lo12(_ZZN9benchmark8internal18GetNullLogInstanceEvE8null_log)
	beqz	$a0, .LBB22_41
.LBB22_19:                              # %cond.end
	ld.d	$a0, $s1, 0
	beqz	$a0, .LBB22_35
# %bb.20:                               # %if.then.i
.Ltmp227:                               # EH_LABEL
	pcalau12i	$a1, %pc_hi20(.L.str.31)
	addi.d	$a1, $a1, %pc_lo12(.L.str.31)
	ori	$a2, $zero, 27
	pcaddu18i	$ra, %call36(_ZSt16__ostream_insertIcSt11char_traitsIcEERSt13basic_ostreamIT_T0_ES6_PKS3_l)
	jirl	$ra, $ra, 0
.Ltmp228:                               # EH_LABEL
# %bb.21:                               # %invoke.cont21
	ld.d	$a0, $s1, 0
	beqz	$a0, .LBB22_35
# %bb.22:                               # %if.then.i15
	ld.d	$a1, $s0, 40
	ld.d	$a2, $s0, 48
.Ltmp229:                               # EH_LABEL
	pcaddu18i	$ra, %call36(_ZSt16__ostream_insertIcSt11char_traitsIcEERSt13basic_ostreamIT_T0_ES6_PKS3_l)
	jirl	$ra, $ra, 0
.Ltmp230:                               # EH_LABEL
# %bb.23:                               # %invoke.cont24
	ld.d	$a0, $s1, 0
	beqz	$a0, .LBB22_35
# %bb.24:                               # %if.then.i20
.Ltmp231:                               # EH_LABEL
	pcalau12i	$a1, %pc_hi20(.L.str.32)
	addi.d	$a1, $a1, %pc_lo12(.L.str.32)
	ori	$a2, $zero, 1
	pcaddu18i	$ra, %call36(_ZSt16__ostream_insertIcSt11char_traitsIcEERSt13basic_ostreamIT_T0_ES6_PKS3_l)
	jirl	$ra, $ra, 0
.Ltmp232:                               # EH_LABEL
# %bb.25:                               # %invoke.cont26
	ld.d	$a0, $s1, 0
	beqz	$a0, .LBB22_35
# %bb.26:                               # %if.then.i25
.Ltmp233:                               # EH_LABEL
	pcalau12i	$a1, %pc_hi20(.L.str.33)
	addi.d	$a1, $a1, %pc_lo12(.L.str.33)
	ori	$a2, $zero, 17
	pcaddu18i	$ra, %call36(_ZSt16__ostream_insertIcSt11char_traitsIcEERSt13basic_ostreamIT_T0_ES6_PKS3_l)
	jirl	$ra, $ra, 0
.Ltmp234:                               # EH_LABEL
# %bb.27:                               # %invoke.cont28
	ld.d	$a0, $s1, 0
	beqz	$a0, .LBB22_35
# %bb.28:                               # %if.then.i30
	ld.d	$a1, $s0, 0
	ld.d	$a2, $s0, 8
.Ltmp235:                               # EH_LABEL
	pcaddu18i	$ra, %call36(_ZSt16__ostream_insertIcSt11char_traitsIcEERSt13basic_ostreamIT_T0_ES6_PKS3_l)
	jirl	$ra, $ra, 0
.Ltmp236:                               # EH_LABEL
# %bb.29:                               # %invoke.cont31
	ld.d	$a0, $s1, 0
	beqz	$a0, .LBB22_35
# %bb.30:                               # %if.then.i37
.Ltmp237:                               # EH_LABEL
	pcalau12i	$a1, %pc_hi20(.L.str.32)
	addi.d	$a1, $a1, %pc_lo12(.L.str.32)
	ori	$a2, $zero, 1
	pcaddu18i	$ra, %call36(_ZSt16__ostream_insertIcSt11char_traitsIcEERSt13basic_ostreamIT_T0_ES6_PKS3_l)
	jirl	$ra, $ra, 0
.Ltmp238:                               # EH_LABEL
# %bb.31:                               # %invoke.cont33
	ld.d	$a0, $s1, 0
	beqz	$a0, .LBB22_35
# %bb.32:                               # %if.then.i43
.Ltmp239:                               # EH_LABEL
	pcalau12i	$a1, %pc_hi20(.L.str.34)
	addi.d	$a1, $a1, %pc_lo12(.L.str.34)
	ori	$a2, $zero, 16
	pcaddu18i	$ra, %call36(_ZSt16__ostream_insertIcSt11char_traitsIcEERSt13basic_ostreamIT_T0_ES6_PKS3_l)
	jirl	$ra, $ra, 0
.Ltmp240:                               # EH_LABEL
# %bb.33:                               # %invoke.cont35
	ld.d	$a0, $s1, 0
	beqz	$a0, .LBB22_35
# %bb.34:                               # %if.then.i48
	ld.d	$a1, $sp, 24
	ld.d	$a2, $sp, 32
.Ltmp241:                               # EH_LABEL
	pcaddu18i	$ra, %call36(_ZSt16__ostream_insertIcSt11char_traitsIcEERSt13basic_ostreamIT_T0_ES6_PKS3_l)
	jirl	$ra, $ra, 0
.Ltmp242:                               # EH_LABEL
.LBB22_35:                              # %invoke.cont37
	bnez	$s2, .LBB22_39
# %bb.36:                               # %cleanup.done46
	ld.d	$a0, $sp, 24
	beq	$a0, $s4, .LBB22_38
# %bb.37:                               # %if.then.i.i62
	ld.d	$a1, $sp, 40
	addi.d	$a1, $a1, 1
	pcaddu18i	$ra, %call36(_ZdlPvm)
	jirl	$ra, $ra, 0
.LBB22_38:                              # %_ZNSt7__cxx1112basic_stringIcSt11char_traitsIcESaIcEED2Ev.exit67
	ld.d	$s4, $sp, 88                    # 8-byte Folded Reload
	ld.d	$s3, $sp, 96                    # 8-byte Folded Reload
	ld.d	$s2, $sp, 104                   # 8-byte Folded Reload
	ld.d	$s1, $sp, 112                   # 8-byte Folded Reload
	ld.d	$s0, $sp, 120                   # 8-byte Folded Reload
	ld.d	$fp, $sp, 128                   # 8-byte Folded Reload
	ld.d	$ra, $sp, 136                   # 8-byte Folded Reload
	addi.d	$sp, $sp, 144
	ret
.LBB22_39:                              # %cleanup.action
.Ltmp247:                               # EH_LABEL
	addi.d	$a0, $sp, 16
	pcaddu18i	$ra, %call36(_ZN9benchmark8internal12CheckHandlerD2Ev)
	jirl	$ra, $ra, 0
.Ltmp248:                               # EH_LABEL
# %bb.40:                               # %invoke.cont39
.LBB22_41:                              # %init.check.i
	pcalau12i	$a0, %pc_hi20(_ZGVZN9benchmark8internal18GetNullLogInstanceEvE8null_log)
	addi.d	$a0, $a0, %pc_lo12(_ZGVZN9benchmark8internal18GetNullLogInstanceEvE8null_log)
	pcaddu18i	$ra, %call36(__cxa_guard_acquire)
	jirl	$ra, $ra, 0
	addi.w	$a0, $a0, 0
	beqz	$a0, .LBB22_19
# %bb.42:                               # %init.i
	pcalau12i	$a0, %pc_hi20(_ZZN9benchmark8internal18GetNullLogInstanceEvE8null_log)
	addi.d	$s1, $a0, %pc_lo12(_ZZN9benchmark8internal18GetNullLogInstanceEvE8null_log)
	st.d	$zero, $s1, 0
	pcalau12i	$a0, %pc_hi20(_ZGVZN9benchmark8internal18GetNullLogInstanceEvE8null_log)
	addi.d	$a0, $a0, %pc_lo12(_ZGVZN9benchmark8internal18GetNullLogInstanceEvE8null_log)
	pcaddu18i	$ra, %call36(__cxa_guard_release)
	jirl	$ra, $ra, 0
	b	.LBB22_19
.LBB22_43:                              # %lpad
.Ltmp215:                               # EH_LABEL
	move	$s1, $a0
	b	.LBB22_56
.LBB22_44:                              # %lpad9
.Ltmp224:                               # EH_LABEL
	b	.LBB22_50
.LBB22_45:                              # %lpad5
.Ltmp221:                               # EH_LABEL
	move	$s1, $a0
	b	.LBB22_53
.LBB22_46:                              # %lpad3
.Ltmp218:                               # EH_LABEL
	ld.d	$a2, $sp, 56
	move	$s1, $a0
	beq	$a2, $s3, .LBB22_56
# %bb.47:                               # %if.then.i.i55
	ld.d	$a0, $sp, 72
	addi.d	$a1, $a0, 1
	move	$a0, $a2
	b	.LBB22_55
.LBB22_48:                              # %cleanup.action48
.Ltmp249:                               # EH_LABEL
	b	.LBB22_50
.LBB22_49:                              # %lpad18
.Ltmp243:                               # EH_LABEL
	bnez	$s2, .LBB22_59
.LBB22_50:                              # %ehcleanup50
	move	$s1, $a0
	ld.d	$a0, $sp, 24
	addi.d	$s2, $s0, 72
	beq	$a0, $s4, .LBB22_52
# %bb.51:                               # %if.then.i.i69
	ld.d	$a1, $sp, 40
	addi.d	$a1, $a1, 1
	pcaddu18i	$ra, %call36(_ZdlPvm)
	jirl	$ra, $ra, 0
.LBB22_52:                              # %_ZNSt7__cxx1112basic_stringIcSt11char_traitsIcESaIcEED2Ev.exit74
	move	$a0, $s2
	pcaddu18i	$ra, %call36(_ZNSt12__shared_ptrIN9benchmark5RegexELN9__gnu_cxx12_Lock_policyE2EED2Ev)
	jirl	$ra, $ra, 0
.LBB22_53:                              # %ehcleanup53
	ld.d	$a0, $s0, 40
	addi.d	$a1, $s0, 56
	beq	$a0, $a1, .LBB22_56
# %bb.54:                               # %if.then.i.i76
	ld.d	$a1, $a1, 0
	addi.d	$a1, $a1, 1
.LBB22_55:                              # %ehcleanup54
	pcaddu18i	$ra, %call36(_ZdlPvm)
	jirl	$ra, $ra, 0
.LBB22_56:                              # %ehcleanup54
	ld.d	$a0, $s0, 0
	beq	$a0, $fp, .LBB22_58
# %bb.57:                               # %if.then.i.i83
	ld.d	$a1, $fp, 0
	addi.d	$a1, $a1, 1
	pcaddu18i	$ra, %call36(_ZdlPvm)
	jirl	$ra, $ra, 0
.LBB22_58:                              # %_ZNSt7__cxx1112basic_stringIcSt11char_traitsIcESaIcEED2Ev.exit88
	move	$a0, $s1
	pcaddu18i	$ra, %call36(_Unwind_Resume)
	jirl	$ra, $ra, 0
.LBB22_59:                              # %cleanup.action41
.Ltmp244:                               # EH_LABEL
	addi.d	$a0, $sp, 16
	pcaddu18i	$ra, %call36(_ZN9benchmark8internal12CheckHandlerD2Ev)
	jirl	$ra, $ra, 0
.Ltmp245:                               # EH_LABEL
# %bb.60:                               # %invoke.cont42
.LBB22_61:                              # %terminate.lpad
.Ltmp246:                               # EH_LABEL
	pcaddu18i	$ra, %call36(__clang_call_terminate)
	jirl	$ra, $ra, 0
.Lfunc_end22:
	.size	_ZN8TestCaseC2ENSt7__cxx1112basic_stringIcSt11char_traitsIcESaIcEEEi, .Lfunc_end22-_ZN8TestCaseC2ENSt7__cxx1112basic_stringIcSt11char_traitsIcESaIcEEEi
	.cfi_endproc
	.section	.gcc_except_table,"a",@progbits
	.p2align	2, 0x0
GCC_except_table22:
.Lexception9:
	.byte	255                             # @LPStart Encoding = omit
	.byte	155                             # @TType Encoding = indirect pcrel sdata4
	.uleb128 .Lttbase3-.Lttbaseref3
.Lttbaseref3:
	.byte	1                               # Call site Encoding = uleb128
	.uleb128 .Lcst_end9-.Lcst_begin9
.Lcst_begin9:
	.uleb128 .Lfunc_begin9-.Lfunc_begin9    # >> Call Site 1 <<
	.uleb128 .Ltmp213-.Lfunc_begin9         #   Call between .Lfunc_begin9 and .Ltmp213
	.byte	0                               #     has no landing pad
	.byte	0                               #   On action: cleanup
	.uleb128 .Ltmp213-.Lfunc_begin9         # >> Call Site 2 <<
	.uleb128 .Ltmp214-.Ltmp213              #   Call between .Ltmp213 and .Ltmp214
	.uleb128 .Ltmp215-.Lfunc_begin9         #     jumps to .Ltmp215
	.byte	0                               #   On action: cleanup
	.uleb128 .Ltmp214-.Lfunc_begin9         # >> Call Site 3 <<
	.uleb128 .Ltmp216-.Ltmp214              #   Call between .Ltmp214 and .Ltmp216
	.byte	0                               #     has no landing pad
	.byte	0                               #   On action: cleanup
	.uleb128 .Ltmp216-.Lfunc_begin9         # >> Call Site 4 <<
	.uleb128 .Ltmp217-.Ltmp216              #   Call between .Ltmp216 and .Ltmp217
	.uleb128 .Ltmp218-.Lfunc_begin9         #     jumps to .Ltmp218
	.byte	0                               #   On action: cleanup
	.uleb128 .Ltmp217-.Lfunc_begin9         # >> Call Site 5 <<
	.uleb128 .Ltmp219-.Ltmp217              #   Call between .Ltmp217 and .Ltmp219
	.byte	0                               #     has no landing pad
	.byte	0                               #   On action: cleanup
	.uleb128 .Ltmp219-.Lfunc_begin9         # >> Call Site 6 <<
	.uleb128 .Ltmp220-.Ltmp219              #   Call between .Ltmp219 and .Ltmp220
	.uleb128 .Ltmp221-.Lfunc_begin9         #     jumps to .Ltmp221
	.byte	0                               #   On action: cleanup
	.uleb128 .Ltmp220-.Lfunc_begin9         # >> Call Site 7 <<
	.uleb128 .Ltmp222-.Ltmp220              #   Call between .Ltmp220 and .Ltmp222
	.byte	0                               #     has no landing pad
	.byte	0                               #   On action: cleanup
	.uleb128 .Ltmp222-.Lfunc_begin9         # >> Call Site 8 <<
	.uleb128 .Ltmp223-.Ltmp222              #   Call between .Ltmp222 and .Ltmp223
	.uleb128 .Ltmp224-.Lfunc_begin9         #     jumps to .Ltmp224
	.byte	0                               #   On action: cleanup
	.uleb128 .Ltmp225-.Lfunc_begin9         # >> Call Site 9 <<
	.uleb128 .Ltmp226-.Ltmp225              #   Call between .Ltmp225 and .Ltmp226
	.uleb128 .Ltmp249-.Lfunc_begin9         #     jumps to .Ltmp249
	.byte	0                               #   On action: cleanup
	.uleb128 .Ltmp227-.Lfunc_begin9         # >> Call Site 10 <<
	.uleb128 .Ltmp242-.Ltmp227              #   Call between .Ltmp227 and .Ltmp242
	.uleb128 .Ltmp243-.Lfunc_begin9         #     jumps to .Ltmp243
	.byte	0                               #   On action: cleanup
	.uleb128 .Ltmp242-.Lfunc_begin9         # >> Call Site 11 <<
	.uleb128 .Ltmp247-.Ltmp242              #   Call between .Ltmp242 and .Ltmp247
	.byte	0                               #     has no landing pad
	.byte	0                               #   On action: cleanup
	.uleb128 .Ltmp247-.Lfunc_begin9         # >> Call Site 12 <<
	.uleb128 .Ltmp248-.Ltmp247              #   Call between .Ltmp247 and .Ltmp248
	.uleb128 .Ltmp249-.Lfunc_begin9         #     jumps to .Ltmp249
	.byte	0                               #   On action: cleanup
	.uleb128 .Ltmp248-.Lfunc_begin9         # >> Call Site 13 <<
	.uleb128 .Ltmp244-.Ltmp248              #   Call between .Ltmp248 and .Ltmp244
	.byte	0                               #     has no landing pad
	.byte	0                               #   On action: cleanup
	.uleb128 .Ltmp244-.Lfunc_begin9         # >> Call Site 14 <<
	.uleb128 .Ltmp245-.Ltmp244              #   Call between .Ltmp244 and .Ltmp245
	.uleb128 .Ltmp246-.Lfunc_begin9         #     jumps to .Ltmp246
	.byte	1                               #   On action: 1
	.uleb128 .Ltmp245-.Lfunc_begin9         # >> Call Site 15 <<
	.uleb128 .Lfunc_end22-.Ltmp245          #   Call between .Ltmp245 and .Lfunc_end22
	.byte	0                               #     has no landing pad
	.byte	0                               #   On action: cleanup
.Lcst_end9:
	.byte	1                               # >> Action Record 1 <<
                                        #   Catch TypeInfo 1
	.byte	0                               #   No further actions
	.p2align	2, 0x0
                                        # >> Catch TypeInfos <<
	.word	0                               # TypeInfo 1
.Lttbase3:
	.p2align	2, 0x0
                                        # -- End function
	.text
	.p2align	5                               # -- Begin function _ZN8internal12_GLOBAL__N_120PerformSubstitutionsENSt7__cxx1112basic_stringIcSt11char_traitsIcESaIcEEE
	.type	_ZN8internal12_GLOBAL__N_120PerformSubstitutionsENSt7__cxx1112basic_stringIcSt11char_traitsIcESaIcEEE,@function
_ZN8internal12_GLOBAL__N_120PerformSubstitutionsENSt7__cxx1112basic_stringIcSt11char_traitsIcESaIcEEE: # @_ZN8internal12_GLOBAL__N_120PerformSubstitutionsENSt7__cxx1112basic_stringIcSt11char_traitsIcESaIcEEE
	.cfi_startproc
# %bb.0:                                # %entry
	addi.d	$sp, $sp, -64
	.cfi_def_cfa_offset 64
	st.d	$ra, $sp, 56                    # 8-byte Folded Spill
	st.d	$fp, $sp, 48                    # 8-byte Folded Spill
	st.d	$s0, $sp, 40                    # 8-byte Folded Spill
	st.d	$s1, $sp, 32                    # 8-byte Folded Spill
	st.d	$s2, $sp, 24                    # 8-byte Folded Spill
	st.d	$s3, $sp, 16                    # 8-byte Folded Spill
	st.d	$s4, $sp, 8                     # 8-byte Folded Spill
	.cfi_offset 1, -8
	.cfi_offset 22, -16
	.cfi_offset 23, -24
	.cfi_offset 24, -32
	.cfi_offset 25, -40
	.cfi_offset 26, -48
	.cfi_offset 27, -56
	move	$fp, $a1
	move	$s0, $a0
	pcaddu18i	$ra, %call36(_ZN8internal12_GLOBAL__N_116GetSubstitutionsB5cxx11Ev)
	jirl	$ra, $ra, 0
	pcalau12i	$a0, %pc_hi20(_ZZN8internal12_GLOBAL__N_116GetSubstitutionsB5cxx11EvE3mapB5cxx11)
	addi.d	$a0, $a0, %pc_lo12(_ZZN8internal12_GLOBAL__N_116GetSubstitutionsB5cxx11EvE3mapB5cxx11)
	ld.d	$s2, $a0, 0
	ld.d	$s3, $a0, 8
	beq	$s2, $s3, .LBB23_6
# %bb.1:                                # %while.cond.preheader.lr.ph
	addi.w	$s4, $zero, -1
	b	.LBB23_3
	.p2align	4, , 16
.LBB23_2:                               # %while.end
                                        #   in Loop: Header=BB23_3 Depth=1
	addi.d	$s2, $s2, 64
	beq	$s2, $s3, .LBB23_6
.LBB23_3:                               # %while.cond.preheader
                                        # =>This Loop Header: Depth=1
                                        #     Child Loop BB23_4 Depth 2
	ld.d	$a1, $s2, 0
	ld.d	$a3, $s2, 8
	move	$a0, $fp
	move	$a2, $zero
	pcaddu18i	$ra, %call36(_ZNKSt7__cxx1112basic_stringIcSt11char_traitsIcESaIcEE4findEPKcmm)
	jirl	$ra, $ra, 0
	move	$a6, $a0
	beq	$a0, $s4, .LBB23_2
	.p2align	4, , 16
.LBB23_4:                               # %while.body
                                        #   Parent Loop BB23_3 Depth=1
                                        # =>  This Inner Loop Header: Depth=2
	ld.d	$a3, $fp, 8
	bltu	$a3, $a6, .LBB23_10
# %bb.5:                                # %_ZNSt7__cxx1112basic_stringIcSt11char_traitsIcESaIcEE7replaceEmmRKS4_.exit
                                        #   in Loop: Header=BB23_4 Depth=2
	ld.d	$a4, $s2, 40
	ld.d	$a0, $s2, 8
	ld.d	$a5, $s2, 32
	add.d	$s1, $a4, $a6
	sub.d	$a1, $a3, $a6
	sltu	$a2, $a0, $a1
	masknez	$a1, $a1, $a2
	maskeqz	$a0, $a0, $a2
	or	$a2, $a0, $a1
	move	$a0, $fp
	move	$a1, $a6
	move	$a3, $a5
	pcaddu18i	$ra, %call36(_ZNSt7__cxx1112basic_stringIcSt11char_traitsIcESaIcEE10_M_replaceEmmPKcm)
	jirl	$ra, $ra, 0
	ld.d	$a1, $s2, 0
	ld.d	$a3, $s2, 8
	move	$a0, $fp
	move	$a2, $s1
	pcaddu18i	$ra, %call36(_ZNKSt7__cxx1112basic_stringIcSt11char_traitsIcESaIcEE4findEPKcmm)
	jirl	$ra, $ra, 0
	move	$a6, $a0
	bne	$a0, $s4, .LBB23_4
	b	.LBB23_2
.LBB23_6:                               # %for.cond.cleanup
	ld.d	$a1, $fp, 0
	addi.d	$a0, $s0, 16
	addi.d	$s1, $fp, 16
	st.d	$a0, $s0, 0
	beq	$a1, $s1, .LBB23_8
# %bb.7:                                # %if.else.i
	ld.d	$a0, $fp, 16
	ld.d	$s2, $fp, 8
	st.d	$a1, $s0, 0
	st.d	$a0, $s0, 16
	b	.LBB23_9
.LBB23_8:                               # %_ZNSt11char_traitsIcE4copyEPcPKcm.exit.i
	ld.d	$s2, $fp, 8
	addi.d	$a2, $s2, 1
	move	$a1, $s1
	pcaddu18i	$ra, %call36(memcpy)
	jirl	$ra, $ra, 0
.LBB23_9:                               # %_ZNSt7__cxx1112basic_stringIcSt11char_traitsIcESaIcEEC2EOS4_.exit
	st.d	$s2, $s0, 8
	st.d	$s1, $fp, 0
	st.d	$zero, $fp, 8
	st.b	$zero, $fp, 16
	ld.d	$s4, $sp, 8                     # 8-byte Folded Reload
	ld.d	$s3, $sp, 16                    # 8-byte Folded Reload
	ld.d	$s2, $sp, 24                    # 8-byte Folded Reload
	ld.d	$s1, $sp, 32                    # 8-byte Folded Reload
	ld.d	$s0, $sp, 40                    # 8-byte Folded Reload
	ld.d	$fp, $sp, 48                    # 8-byte Folded Reload
	ld.d	$ra, $sp, 56                    # 8-byte Folded Reload
	addi.d	$sp, $sp, 64
	ret
.LBB23_10:                              # %if.then.i.i.i
	pcalau12i	$a0, %pc_hi20(.L.str.66)
	addi.d	$a0, $a0, %pc_lo12(.L.str.66)
	pcalau12i	$a1, %pc_hi20(.L.str.65)
	addi.d	$a1, $a1, %pc_lo12(.L.str.65)
	move	$a2, $a6
	pcaddu18i	$ra, %call36(_ZSt24__throw_out_of_range_fmtPKcz)
	jirl	$ra, $ra, 0
.Lfunc_end23:
	.size	_ZN8internal12_GLOBAL__N_120PerformSubstitutionsENSt7__cxx1112basic_stringIcSt11char_traitsIcESaIcEEE, .Lfunc_end23-_ZN8internal12_GLOBAL__N_120PerformSubstitutionsENSt7__cxx1112basic_stringIcSt11char_traitsIcESaIcEEE
	.cfi_endproc
                                        # -- End function
	.section	.text._ZN9benchmark5Regex4InitERKNSt7__cxx1112basic_stringIcSt11char_traitsIcESaIcEEEPS6_,"axG",@progbits,_ZN9benchmark5Regex4InitERKNSt7__cxx1112basic_stringIcSt11char_traitsIcESaIcEEEPS6_,comdat
	.hidden	_ZN9benchmark5Regex4InitERKNSt7__cxx1112basic_stringIcSt11char_traitsIcESaIcEEEPS6_ # -- Begin function _ZN9benchmark5Regex4InitERKNSt7__cxx1112basic_stringIcSt11char_traitsIcESaIcEEEPS6_
	.weak	_ZN9benchmark5Regex4InitERKNSt7__cxx1112basic_stringIcSt11char_traitsIcESaIcEEEPS6_
	.p2align	2
	.type	_ZN9benchmark5Regex4InitERKNSt7__cxx1112basic_stringIcSt11char_traitsIcESaIcEEEPS6_,@function
_ZN9benchmark5Regex4InitERKNSt7__cxx1112basic_stringIcSt11char_traitsIcESaIcEEEPS6_: # @_ZN9benchmark5Regex4InitERKNSt7__cxx1112basic_stringIcSt11char_traitsIcESaIcEEEPS6_
.Lfunc_begin10:
	.cfi_startproc
	.cfi_personality 155, DW.ref.__gxx_personality_v0
	.cfi_lsda 27, .Lexception10
# %bb.0:                                # %entry
	addi.d	$sp, $sp, -80
	.cfi_def_cfa_offset 80
	st.d	$ra, $sp, 72                    # 8-byte Folded Spill
	st.d	$fp, $sp, 64                    # 8-byte Folded Spill
	st.d	$s0, $sp, 56                    # 8-byte Folded Spill
	st.d	$s1, $sp, 48                    # 8-byte Folded Spill
	.cfi_offset 1, -8
	.cfi_offset 22, -16
	.cfi_offset 23, -24
	.cfi_offset 24, -32
	move	$s0, $a2
	move	$fp, $a0
.Ltmp250:                               # EH_LABEL
	addi.d	$a0, $sp, 16
	ori	$a2, $zero, 64
	pcaddu18i	$ra, %call36(_ZNSt7__cxx1111basic_regexIcNS_12regex_traitsIcEEEC2ISt11char_traitsIcESaIcEEERKNS_12basic_stringIcT_T0_EENSt15regex_constants18syntax_option_typeE)
	jirl	$ra, $ra, 0
.Ltmp251:                               # EH_LABEL
# %bb.1:                                # %invoke.cont
	ld.w	$a0, $sp, 16
	st.w	$a0, $fp, 8
	addi.d	$a0, $fp, 16
	addi.d	$s0, $sp, 24
	move	$a1, $s0
	pcaddu18i	$ra, %call36(_ZNSt6localeaSERKS_)
	jirl	$ra, $ra, 0
	vld	$vr0, $sp, 32
	ld.d	$s1, $fp, 32
	vrepli.b	$vr1, 0
	vst	$vr1, $sp, 32
	vst	$vr0, $fp, 24
	beqz	$s1, .LBB24_6
# %bb.2:                                # %if.then.i.i.i.i.i
	ld.d	$a0, $s1, 8
	ori	$a1, $zero, 1
	lu32i.d	$a1, 1
	dbar	20
	bne	$a0, $a1, .LBB24_4
# %bb.3:                                # %if.then.i.i.i.i.i.i
	ld.d	$a0, $s1, 0
	st.d	$zero, $s1, 8
	ld.d	$a1, $a0, 16
	move	$a0, $s1
	jirl	$ra, $a1, 0
	ld.d	$a0, $s1, 0
	ld.d	$a1, $a0, 24
	move	$a0, $s1
	jirl	$ra, $a1, 0
	ld.d	$s1, $sp, 40
	bnez	$s1, .LBB24_7
	b	.LBB24_14
.LBB24_4:                               # %if.end.i.i.i.i.i.i
	pcalau12i	$a1, %got_pc_hi20(__libc_single_threaded)
	ld.d	$a1, $a1, %got_pc_lo12(__libc_single_threaded)
	ld.bu	$a1, $a1, 0
	beqz	$a1, .LBB24_11
# %bb.5:                                # %if.then.i.i.i.i.i.i.i
	addi.d	$a1, $a0, -1
	st.w	$a1, $s1, 8
	addi.w	$a0, $a0, 0
	ori	$a1, $zero, 1
	beq	$a0, $a1, .LBB24_12
.LBB24_6:                               # %_ZNSt7__cxx1111basic_regexIcNS_12regex_traitsIcEEEaSEOS3_.exit
	ld.d	$s1, $sp, 40
	beqz	$s1, .LBB24_14
.LBB24_7:                               # %if.then.i.i.i
	ld.d	$a0, $s1, 8
	ori	$a1, $zero, 1
	lu32i.d	$a1, 1
	dbar	20
	bne	$a0, $a1, .LBB24_9
# %bb.8:                                # %if.then.i.i.i.i
	ld.d	$a0, $s1, 0
	st.d	$zero, $s1, 8
	ld.d	$a1, $a0, 16
	move	$a0, $s1
	jirl	$ra, $a1, 0
	ld.d	$a0, $s1, 0
	ld.d	$a1, $a0, 24
	move	$a0, $s1
	jirl	$ra, $a1, 0
	b	.LBB24_14
.LBB24_9:                               # %if.end.i.i.i.i
	pcalau12i	$a1, %got_pc_hi20(__libc_single_threaded)
	ld.d	$a1, $a1, %got_pc_lo12(__libc_single_threaded)
	ld.bu	$a1, $a1, 0
	beqz	$a1, .LBB24_13
# %bb.10:                               # %if.then.i.i.i.i.i3
	addi.d	$a1, $a0, -1
	st.w	$a1, $s1, 8
	addi.w	$a0, $a0, 0
	ori	$a1, $zero, 1
	bne	$a0, $a1, .LBB24_14
	b	.LBB24_16
.LBB24_11:                              # %if.else.i.i.i.i.i.i.i
	addi.d	$a1, $s1, 8
	addi.w	$a2, $zero, -1
	amadd_db.w	$a0, $a2, $a1
	addi.w	$a0, $a0, 0
	ori	$a1, $zero, 1
	bne	$a0, $a1, .LBB24_6
.LBB24_12:                              # %if.then7.i.i.i.i.i.i
	move	$a0, $s1
	pcaddu18i	$ra, %call36(_ZNSt16_Sp_counted_baseILN9__gnu_cxx12_Lock_policyE2EE24_M_release_last_use_coldEv)
	jirl	$ra, $ra, 0
	ld.d	$s1, $sp, 40
	bnez	$s1, .LBB24_7
	b	.LBB24_14
.LBB24_13:                              # %if.else.i.i.i.i.i
	addi.d	$a1, $s1, 8
	addi.w	$a2, $zero, -1
	amadd_db.w	$a0, $a2, $a1
	addi.w	$a0, $a0, 0
	ori	$a1, $zero, 1
	beq	$a0, $a1, .LBB24_16
.LBB24_14:                              # %_ZNSt7__cxx1111basic_regexIcNS_12regex_traitsIcEEED2Ev.exit
	move	$a0, $s0
	pcaddu18i	$ra, %call36(_ZNSt6localeD1Ev)
	jirl	$ra, $ra, 0
	ori	$a0, $zero, 1
	st.b	$a0, $fp, 0
.LBB24_15:                              # %try.cont
	andi	$a0, $a0, 1
	ld.d	$s1, $sp, 48                    # 8-byte Folded Reload
	ld.d	$s0, $sp, 56                    # 8-byte Folded Reload
	ld.d	$fp, $sp, 64                    # 8-byte Folded Reload
	ld.d	$ra, $sp, 72                    # 8-byte Folded Reload
	addi.d	$sp, $sp, 80
	ret
.LBB24_16:                              # %if.then7.i.i.i.i
	move	$a0, $s1
	pcaddu18i	$ra, %call36(_ZNSt16_Sp_counted_baseILN9__gnu_cxx12_Lock_policyE2EE24_M_release_last_use_coldEv)
	jirl	$ra, $ra, 0
	b	.LBB24_14
.LBB24_17:                              # %lpad
.Ltmp252:                               # EH_LABEL
	addi.w	$a1, $a1, 0
	ori	$a2, $zero, 1
	move	$s1, $a0
	bne	$a1, $a2, .LBB24_22
# %bb.18:                               # %catch
	move	$a0, $s1
	pcaddu18i	$ra, %call36(__cxa_begin_catch)
	jirl	$ra, $ra, 0
	beqz	$s0, .LBB24_20
# %bb.19:                               # %if.then
	ld.d	$a1, $a0, 0
	ld.d	$a1, $a1, 16
	jirl	$ra, $a1, 0
	move	$a1, $a0
.Ltmp253:                               # EH_LABEL
	move	$a0, $s0
	pcaddu18i	$ra, %call36(_ZNSt7__cxx1112basic_stringIcSt11char_traitsIcESaIcEEaSEPKc)
	jirl	$ra, $ra, 0
.Ltmp254:                               # EH_LABEL
.LBB24_20:                              # %if.end
	pcaddu18i	$ra, %call36(__cxa_end_catch)
	jirl	$ra, $ra, 0
	ld.b	$a0, $fp, 0
	b	.LBB24_15
.LBB24_21:                              # %lpad3
.Ltmp255:                               # EH_LABEL
	move	$s1, $a0
.Ltmp256:                               # EH_LABEL
	pcaddu18i	$ra, %call36(__cxa_end_catch)
	jirl	$ra, $ra, 0
.Ltmp257:                               # EH_LABEL
.LBB24_22:                              # %eh.resume
	move	$a0, $s1
	pcaddu18i	$ra, %call36(_Unwind_Resume)
	jirl	$ra, $ra, 0
.LBB24_23:                              # %terminate.lpad
.Ltmp258:                               # EH_LABEL
	pcaddu18i	$ra, %call36(__clang_call_terminate)
	jirl	$ra, $ra, 0
.Lfunc_end24:
	.size	_ZN9benchmark5Regex4InitERKNSt7__cxx1112basic_stringIcSt11char_traitsIcESaIcEEEPS6_, .Lfunc_end24-_ZN9benchmark5Regex4InitERKNSt7__cxx1112basic_stringIcSt11char_traitsIcESaIcEEEPS6_
	.cfi_endproc
	.section	.gcc_except_table._ZN9benchmark5Regex4InitERKNSt7__cxx1112basic_stringIcSt11char_traitsIcESaIcEEEPS6_,"aG",@progbits,_ZN9benchmark5Regex4InitERKNSt7__cxx1112basic_stringIcSt11char_traitsIcESaIcEEEPS6_,comdat
	.p2align	2, 0x0
GCC_except_table24:
.Lexception10:
	.byte	255                             # @LPStart Encoding = omit
	.byte	155                             # @TType Encoding = indirect pcrel sdata4
	.uleb128 .Lttbase4-.Lttbaseref4
.Lttbaseref4:
	.byte	1                               # Call site Encoding = uleb128
	.uleb128 .Lcst_end10-.Lcst_begin10
.Lcst_begin10:
	.uleb128 .Ltmp250-.Lfunc_begin10        # >> Call Site 1 <<
	.uleb128 .Ltmp251-.Ltmp250              #   Call between .Ltmp250 and .Ltmp251
	.uleb128 .Ltmp252-.Lfunc_begin10        #     jumps to .Ltmp252
	.byte	3                               #   On action: 2
	.uleb128 .Ltmp251-.Lfunc_begin10        # >> Call Site 2 <<
	.uleb128 .Ltmp253-.Ltmp251              #   Call between .Ltmp251 and .Ltmp253
	.byte	0                               #     has no landing pad
	.byte	0                               #   On action: cleanup
	.uleb128 .Ltmp253-.Lfunc_begin10        # >> Call Site 3 <<
	.uleb128 .Ltmp254-.Ltmp253              #   Call between .Ltmp253 and .Ltmp254
	.uleb128 .Ltmp255-.Lfunc_begin10        #     jumps to .Ltmp255
	.byte	0                               #   On action: cleanup
	.uleb128 .Ltmp254-.Lfunc_begin10        # >> Call Site 4 <<
	.uleb128 .Ltmp256-.Ltmp254              #   Call between .Ltmp254 and .Ltmp256
	.byte	0                               #     has no landing pad
	.byte	0                               #   On action: cleanup
	.uleb128 .Ltmp256-.Lfunc_begin10        # >> Call Site 5 <<
	.uleb128 .Ltmp257-.Ltmp256              #   Call between .Ltmp256 and .Ltmp257
	.uleb128 .Ltmp258-.Lfunc_begin10        #     jumps to .Ltmp258
	.byte	5                               #   On action: 3
	.uleb128 .Ltmp257-.Lfunc_begin10        # >> Call Site 6 <<
	.uleb128 .Lfunc_end24-.Ltmp257          #   Call between .Ltmp257 and .Lfunc_end24
	.byte	0                               #     has no landing pad
	.byte	0                               #   On action: cleanup
.Lcst_end10:
	.byte	0                               # >> Action Record 1 <<
                                        #   Cleanup
	.byte	0                               #   No further actions
	.byte	1                               # >> Action Record 2 <<
                                        #   Catch TypeInfo 1
	.byte	125                             #   Continue to action 1
	.byte	2                               # >> Action Record 3 <<
                                        #   Catch TypeInfo 2
	.byte	0                               #   No further actions
	.p2align	2, 0x0
                                        # >> Catch TypeInfos <<
	.word	0                               # TypeInfo 2
.Ltmp259:                               # TypeInfo 1
	.word	.L_ZTISt11regex_error.DW.stub-.Ltmp259
.Lttbase4:
	.p2align	2, 0x0
                                        # -- End function
	.text
	.hidden	_Z8AddCases10TestCaseIDSt16initializer_listI8TestCaseE # -- Begin function _Z8AddCases10TestCaseIDSt16initializer_listI8TestCaseE
	.globl	_Z8AddCases10TestCaseIDSt16initializer_listI8TestCaseE
	.p2align	5
	.type	_Z8AddCases10TestCaseIDSt16initializer_listI8TestCaseE,@function
_Z8AddCases10TestCaseIDSt16initializer_listI8TestCaseE: # @_Z8AddCases10TestCaseIDSt16initializer_listI8TestCaseE
	.cfi_startproc
# %bb.0:                                # %entry
	addi.d	$sp, $sp, -32
	.cfi_def_cfa_offset 32
	st.d	$ra, $sp, 24                    # 8-byte Folded Spill
	st.d	$fp, $sp, 16                    # 8-byte Folded Spill
	st.d	$s0, $sp, 8                     # 8-byte Folded Spill
	st.d	$s1, $sp, 0                     # 8-byte Folded Spill
	.cfi_offset 1, -8
	.cfi_offset 22, -16
	.cfi_offset 23, -24
	.cfi_offset 24, -32
	pcalau12i	$a3, %pc_hi20(_ZGVZN8internal12_GLOBAL__N_115GetTestCaseListE10TestCaseIDE5lists)
	ld.b	$a3, $a3, %pc_lo12(_ZGVZN8internal12_GLOBAL__N_115GetTestCaseListE10TestCaseIDE5lists)
	move	$fp, $a1
	dbar	20
	beqz	$a3, .LBB25_2
.LBB25_1:                               # %_ZN8internal12_GLOBAL__N_115GetTestCaseListE10TestCaseID.exit
	bstrpick.d	$a0, $a0, 31, 0
	slli.d	$a1, $a0, 4
	alsl.d	$a0, $a0, $a1, 3
	pcalau12i	$a1, %pc_hi20(_ZZN8internal12_GLOBAL__N_115GetTestCaseListE10TestCaseIDE5lists)
	addi.d	$a1, $a1, %pc_lo12(_ZZN8internal12_GLOBAL__N_115GetTestCaseListE10TestCaseIDE5lists)
	add.d	$a0, $a1, $a0
	ld.d	$a1, $a0, 8
	ori	$a3, $zero, 88
	mul.d	$a2, $a2, $a3
	add.d	$a3, $fp, $a2
	move	$a2, $fp
	move	$a4, $zero
	pcaddu18i	$ra, %call36(_ZNSt6vectorI8TestCaseSaIS0_EE15_M_range_insertIPKS0_EEvN9__gnu_cxx17__normal_iteratorIPS0_S2_EET_SA_St20forward_iterator_tag)
	jirl	$ra, $ra, 0
	move	$a0, $zero
	ld.d	$s1, $sp, 0                     # 8-byte Folded Reload
	ld.d	$s0, $sp, 8                     # 8-byte Folded Reload
	ld.d	$fp, $sp, 16                    # 8-byte Folded Reload
	ld.d	$ra, $sp, 24                    # 8-byte Folded Reload
	addi.d	$sp, $sp, 32
	ret
.LBB25_2:                               # %init.check.i
	pcalau12i	$a1, %pc_hi20(_ZGVZN8internal12_GLOBAL__N_115GetTestCaseListE10TestCaseIDE5lists)
	addi.d	$a1, $a1, %pc_lo12(_ZGVZN8internal12_GLOBAL__N_115GetTestCaseListE10TestCaseIDE5lists)
	move	$s0, $a0
	move	$a0, $a1
	move	$s1, $a2
	pcaddu18i	$ra, %call36(__cxa_guard_acquire)
	jirl	$ra, $ra, 0
	move	$a2, $s1
	move	$a1, $a0
	move	$a0, $s0
	addi.w	$a1, $a1, 0
	beqz	$a1, .LBB25_1
# %bb.3:                                # %arrayctor.loop.preheader.i
	pcalau12i	$a0, %pc_hi20(_ZZN8internal12_GLOBAL__N_115GetTestCaseListE10TestCaseIDE5lists)
	addi.d	$a0, $a0, %pc_lo12(_ZZN8internal12_GLOBAL__N_115GetTestCaseListE10TestCaseIDE5lists)
	ori	$a2, $zero, 144
	move	$a1, $zero
	pcaddu18i	$ra, %call36(memset)
	jirl	$ra, $ra, 0
	pcalau12i	$a0, %pc_hi20(__cxx_global_array_dtor)
	addi.d	$a0, $a0, %pc_lo12(__cxx_global_array_dtor)
	pcalau12i	$a1, %pc_hi20(__dso_handle)
	addi.d	$a2, $a1, %pc_lo12(__dso_handle)
	move	$a1, $zero
	pcaddu18i	$ra, %call36(__cxa_atexit)
	jirl	$ra, $ra, 0
	pcalau12i	$a0, %pc_hi20(_ZGVZN8internal12_GLOBAL__N_115GetTestCaseListE10TestCaseIDE5lists)
	addi.d	$a0, $a0, %pc_lo12(_ZGVZN8internal12_GLOBAL__N_115GetTestCaseListE10TestCaseIDE5lists)
	pcaddu18i	$ra, %call36(__cxa_guard_release)
	jirl	$ra, $ra, 0
	move	$a0, $s0
	move	$a2, $s1
	b	.LBB25_1
.Lfunc_end25:
	.size	_Z8AddCases10TestCaseIDSt16initializer_listI8TestCaseE, .Lfunc_end25-_Z8AddCases10TestCaseIDSt16initializer_listI8TestCaseE
	.cfi_endproc
                                        # -- End function
	.hidden	_Z16SetSubstitutionsSt16initializer_listISt4pairINSt7__cxx1112basic_stringIcSt11char_traitsIcESaIcEEES6_EE # -- Begin function _Z16SetSubstitutionsSt16initializer_listISt4pairINSt7__cxx1112basic_stringIcSt11char_traitsIcESaIcEEES6_EE
	.globl	_Z16SetSubstitutionsSt16initializer_listISt4pairINSt7__cxx1112basic_stringIcSt11char_traitsIcESaIcEEES6_EE
	.p2align	5
	.type	_Z16SetSubstitutionsSt16initializer_listISt4pairINSt7__cxx1112basic_stringIcSt11char_traitsIcESaIcEEES6_EE,@function
_Z16SetSubstitutionsSt16initializer_listISt4pairINSt7__cxx1112basic_stringIcSt11char_traitsIcESaIcEEES6_EE: # @_Z16SetSubstitutionsSt16initializer_listISt4pairINSt7__cxx1112basic_stringIcSt11char_traitsIcESaIcEEES6_EE
.Lfunc_begin11:
	.cfi_startproc
	.cfi_personality 155, DW.ref.__gxx_personality_v0
	.cfi_lsda 27, .Lexception11
# %bb.0:                                # %entry
	addi.d	$sp, $sp, -256
	.cfi_def_cfa_offset 256
	st.d	$ra, $sp, 248                   # 8-byte Folded Spill
	st.d	$fp, $sp, 240                   # 8-byte Folded Spill
	st.d	$s0, $sp, 232                   # 8-byte Folded Spill
	st.d	$s1, $sp, 224                   # 8-byte Folded Spill
	st.d	$s2, $sp, 216                   # 8-byte Folded Spill
	st.d	$s3, $sp, 208                   # 8-byte Folded Spill
	st.d	$s4, $sp, 200                   # 8-byte Folded Spill
	st.d	$s5, $sp, 192                   # 8-byte Folded Spill
	st.d	$s6, $sp, 184                   # 8-byte Folded Spill
	st.d	$s7, $sp, 176                   # 8-byte Folded Spill
	st.d	$s8, $sp, 168                   # 8-byte Folded Spill
	.cfi_offset 1, -8
	.cfi_offset 22, -16
	.cfi_offset 23, -24
	.cfi_offset 24, -32
	.cfi_offset 25, -40
	.cfi_offset 26, -48
	.cfi_offset 27, -56
	.cfi_offset 28, -64
	.cfi_offset 29, -72
	.cfi_offset 30, -80
	.cfi_offset 31, -88
	move	$s0, $a1
	move	$fp, $a0
	pcaddu18i	$ra, %call36(_ZN8internal12_GLOBAL__N_116GetSubstitutionsB5cxx11Ev)
	jirl	$ra, $ra, 0
	beqz	$s0, .LBB26_62
# %bb.1:                                # %for.body.lr.ph
	slli.d	$a0, $s0, 6
	add.d	$a0, $fp, $a0
	st.d	$a0, $sp, 16                    # 8-byte Folded Spill
	addi.d	$s5, $sp, 48
	addi.d	$s0, $sp, 144
	addi.d	$s7, $sp, 80
	addi.d	$s8, $sp, 112
	addi.w	$a0, $zero, -1
	st.d	$a0, $sp, 24                    # 8-byte Folded Spill
	pcalau12i	$a0, %pc_hi20(_ZZN8internal12_GLOBAL__N_116GetSubstitutionsB5cxx11EvE3mapB5cxx11)
	addi.d	$s2, $a0, %pc_lo12(_ZZN8internal12_GLOBAL__N_116GetSubstitutionsB5cxx11EvE3mapB5cxx11)
	b	.LBB26_3
	.p2align	4, , 16
.LBB26_2:                               # %_ZNSt4pairINSt7__cxx1112basic_stringIcSt11char_traitsIcESaIcEEES5_ED2Ev.exit
                                        #   in Loop: Header=BB26_3 Depth=1
	addi.d	$fp, $fp, 64
	ld.d	$a0, $sp, 16                    # 8-byte Folded Reload
	beq	$fp, $a0, .LBB26_62
.LBB26_3:                               # %for.body
                                        # =>This Loop Header: Depth=1
                                        #     Child Loop BB26_30 Depth 2
	addi.d	$a0, $sp, 96
	move	$a1, $fp
	pcaddu18i	$ra, %call36(_ZNSt4pairINSt7__cxx1112basic_stringIcSt11char_traitsIcESaIcEEES5_EC2ERKS6_)
	jirl	$ra, $ra, 0
	ld.d	$a1, $sp, 136
	ld.d	$s3, $sp, 128
	st.d	$s5, $sp, 32
	st.d	$a1, $sp, 160
	move	$a0, $s5
	ori	$a2, $zero, 16
	bltu	$a1, $a2, .LBB26_6
# %bb.4:                                # %if.then.i.i
                                        #   in Loop: Header=BB26_3 Depth=1
.Ltmp260:                               # EH_LABEL
	addi.d	$a0, $sp, 32
	addi.d	$a1, $sp, 160
	move	$a2, $zero
	pcaddu18i	$ra, %call36(_ZNSt7__cxx1112basic_stringIcSt11char_traitsIcESaIcEE9_M_createERmm)
	jirl	$ra, $ra, 0
.Ltmp261:                               # EH_LABEL
# %bb.5:                                # %call.i4.i.noexc
                                        #   in Loop: Header=BB26_3 Depth=1
	ld.d	$a1, $sp, 160
	st.d	$a0, $sp, 32
