	.file	"register_benchmark_test.cc"
                                        # Start of file scope inline assembly
	.globl	_ZSt21ios_base_library_initv

                                        # End of file scope inline assembly
	.text
	.p2align	5                               # -- Begin function _ZNSt6vectorIN12_GLOBAL__N_18TestCaseESaIS1_EED2Ev
	.type	_ZNSt6vectorIN12_GLOBAL__N_18TestCaseESaIS1_EED2Ev,@function
_ZNSt6vectorIN12_GLOBAL__N_18TestCaseESaIS1_EED2Ev: # @_ZNSt6vectorIN12_GLOBAL__N_18TestCaseESaIS1_EED2Ev
	.cfi_startproc
# %bb.0:                                # %entry
	addi.d	$sp, $sp, -32
	.cfi_def_cfa_offset 32
	st.d	$ra, $sp, 24                    # 8-byte Folded Spill
	st.d	$fp, $sp, 16                    # 8-byte Folded Spill
	st.d	$s0, $sp, 8                     # 8-byte Folded Spill
	st.d	$s1, $sp, 0                     # 8-byte Folded Spill
	.cfi_offset 1, -8
	.cfi_offset 22, -16
	.cfi_offset 23, -24
	.cfi_offset 24, -32
	move	$fp, $a0
	ld.d	$a0, $a0, 0
	ld.d	$s0, $fp, 8
	beq	$a0, $s0, .LBB0_8
# %bb.1:                                # %for.body.i.preheader
	addi.d	$s1, $a0, 48
	b	.LBB0_3
	.p2align	4, , 16
.LBB0_2:                                # %_ZSt8_DestroyIN12_GLOBAL__N_18TestCaseEEvPT_.exit.i
                                        #   in Loop: Header=BB0_3 Depth=1
	addi.d	$a0, $s1, 16
	addi.d	$s1, $s1, 64
	beq	$a0, $s0, .LBB0_7
.LBB0_3:                                # %for.body.i
                                        # =>This Inner Loop Header: Depth=1
	ld.d	$a0, $s1, -16
	beq	$s1, $a0, .LBB0_5
# %bb.4:                                # %if.then.i.i.i.i.i
                                        #   in Loop: Header=BB0_3 Depth=1
	ld.d	$a1, $s1, 0
	addi.d	$a1, $a1, 1
	pcaddu18i	$ra, %call36(_ZdlPvm)
	jirl	$ra, $ra, 0
.LBB0_5:                                # %_ZNSt7__cxx1112basic_stringIcSt11char_traitsIcESaIcEED2Ev.exit.i.i.i
                                        #   in Loop: Header=BB0_3 Depth=1
	ld.d	$a0, $s1, -48
	addi.d	$a1, $s1, -32
	beq	$a1, $a0, .LBB0_2
# %bb.6:                                # %if.then.i.i2.i.i.i
                                        #   in Loop: Header=BB0_3 Depth=1
	ld.d	$a1, $a1, 0
	addi.d	$a1, $a1, 1
	pcaddu18i	$ra, %call36(_ZdlPvm)
	jirl	$ra, $ra, 0
	b	.LBB0_2
.LBB0_7:                                # %invoke.contthread-pre-split
	ld.d	$a0, $fp, 0
.LBB0_8:                                # %invoke.cont
	beqz	$a0, .LBB0_10
# %bb.9:                                # %if.then.i.i
	ld.d	$a1, $fp, 16
	sub.d	$a1, $a1, $a0
	ld.d	$s1, $sp, 0                     # 8-byte Folded Reload
	ld.d	$s0, $sp, 8                     # 8-byte Folded Reload
	ld.d	$fp, $sp, 16                    # 8-byte Folded Reload
	ld.d	$ra, $sp, 24                    # 8-byte Folded Reload
	addi.d	$sp, $sp, 32
	pcaddu18i	$t8, %call36(_ZdlPvm)
	jr	$t8
.LBB0_10:                               # %_ZNSt12_Vector_baseIN12_GLOBAL__N_18TestCaseESaIS1_EED2Ev.exit
	ld.d	$s1, $sp, 0                     # 8-byte Folded Reload
	ld.d	$s0, $sp, 8                     # 8-byte Folded Reload
	ld.d	$fp, $sp, 16                    # 8-byte Folded Reload
	ld.d	$ra, $sp, 24                    # 8-byte Folded Reload
	addi.d	$sp, $sp, 32
	ret
.Lfunc_end0:
	.size	_ZNSt6vectorIN12_GLOBAL__N_18TestCaseESaIS1_EED2Ev, .Lfunc_end0-_ZNSt6vectorIN12_GLOBAL__N_18TestCaseESaIS1_EED2Ev
	.cfi_endproc
                                        # -- End function
	.hidden	_Z11BM_functionRN9benchmark5StateE # -- Begin function _Z11BM_functionRN9benchmark5StateE
	.globl	_Z11BM_functionRN9benchmark5StateE
	.p2align	5
	.type	_Z11BM_functionRN9benchmark5StateE,@function
_Z11BM_functionRN9benchmark5StateE:     # @_Z11BM_functionRN9benchmark5StateE
	.cfi_startproc
# %bb.0:                                # %entry
	addi.d	$sp, $sp, -32
	.cfi_def_cfa_offset 32
	st.d	$ra, $sp, 24                    # 8-byte Folded Spill
	st.d	$fp, $sp, 16                    # 8-byte Folded Spill
	st.d	$s0, $sp, 8                     # 8-byte Folded Spill
	st.d	$s1, $sp, 0                     # 8-byte Folded Spill
	.cfi_offset 1, -8
	.cfi_offset 22, -16
	.cfi_offset 23, -24
	.cfi_offset 24, -32
	move	$fp, $a0
	ld.w	$s1, $a0, 28
	ld.d	$s0, $a0, 16
	pcaddu18i	$ra, %call36(_ZN9benchmark5State16StartKeepRunningEv)
	jirl	$ra, $ra, 0
	bnez	$s1, .LBB1_3
# %bb.1:                                # %entry
	beqz	$s0, .LBB1_3
# %bb.2:                                # %for.body.preheader
	srai.d	$a0, $s0, 63
	andn	$a0, $s0, $a0
	addi.d	$a1, $s0, -1
	bgeu	$a1, $a0, .LBB1_4
.LBB1_3:                                # %for.cond.cleanup
	move	$a0, $fp
	ld.d	$s1, $sp, 0                     # 8-byte Folded Reload
	ld.d	$s0, $sp, 8                     # 8-byte Folded Reload
	ld.d	$fp, $sp, 16                    # 8-byte Folded Reload
	ld.d	$ra, $sp, 24                    # 8-byte Folded Reload
	addi.d	$sp, $sp, 32
	pcaddu18i	$t8, %call36(_ZN9benchmark5State17FinishKeepRunningEv)
	jr	$t8
.LBB1_4:                                # %cond.false.i
	pcalau12i	$a0, %pc_hi20(.L.str.29)
	addi.d	$a0, $a0, %pc_lo12(.L.str.29)
	pcalau12i	$a1, %pc_hi20(.L.str.30)
	addi.d	$a1, $a1, %pc_lo12(.L.str.30)
	pcalau12i	$a2, %pc_hi20(.L__PRETTY_FUNCTION__._ZN9benchmark5State13StateIteratorppEv)
	addi.d	$a3, $a2, %pc_lo12(.L__PRETTY_FUNCTION__._ZN9benchmark5State13StateIteratorppEv)
	ori	$a2, $zero, 1134
	pcaddu18i	$ra, %call36(__assert_fail)
	jirl	$ra, $ra, 0
.Lfunc_end1:
	.size	_Z11BM_functionRN9benchmark5StateE, .Lfunc_end1-_Z11BM_functionRN9benchmark5StateE
	.cfi_endproc
                                        # -- End function
	.p2align	5                               # -- Begin function _ZN12_GLOBAL__N_18AddCasesERKSt16initializer_listINS_8TestCaseEE
	.type	_ZN12_GLOBAL__N_18AddCasesERKSt16initializer_listINS_8TestCaseEE,@function
_ZN12_GLOBAL__N_18AddCasesERKSt16initializer_listINS_8TestCaseEE: # @_ZN12_GLOBAL__N_18AddCasesERKSt16initializer_listINS_8TestCaseEE
.Lfunc_begin0:
	.cfi_startproc
	.cfi_personality 155, DW.ref.__gxx_personality_v0
	.cfi_lsda 27, .Lexception0
# %bb.0:                                # %entry
	addi.d	$sp, $sp, -176
	.cfi_def_cfa_offset 176
	st.d	$ra, $sp, 168                   # 8-byte Folded Spill
	st.d	$fp, $sp, 160                   # 8-byte Folded Spill
	st.d	$s0, $sp, 152                   # 8-byte Folded Spill
	st.d	$s1, $sp, 144                   # 8-byte Folded Spill
	st.d	$s2, $sp, 136                   # 8-byte Folded Spill
	st.d	$s3, $sp, 128                   # 8-byte Folded Spill
	st.d	$s4, $sp, 120                   # 8-byte Folded Spill
	st.d	$s5, $sp, 112                   # 8-byte Folded Spill
	st.d	$s6, $sp, 104                   # 8-byte Folded Spill
	st.d	$s7, $sp, 96                    # 8-byte Folded Spill
	st.d	$s8, $sp, 88                    # 8-byte Folded Spill
	.cfi_offset 1, -8
	.cfi_offset 22, -16
	.cfi_offset 23, -24
	.cfi_offset 24, -32
	.cfi_offset 25, -40
	.cfi_offset 26, -48
	.cfi_offset 27, -56
	.cfi_offset 28, -64
	.cfi_offset 29, -72
	.cfi_offset 30, -80
	.cfi_offset 31, -88
	beqz	$a1, .LBB2_33
# %bb.1:                                # %for.body.lr.ph
	move	$s0, $a0
	slli.d	$a0, $a1, 6
	add.d	$s4, $s0, $a0
	pcalau12i	$a0, %pc_hi20(_ZN12_GLOBAL__N_115ExpectedResultsE)
	addi.d	$s3, $a0, %pc_lo12(_ZN12_GLOBAL__N_115ExpectedResultsE)
	ld.d	$a0, $s3, 8
	ld.d	$s8, $s3, 16
	addi.w	$a1, $zero, -64
	lu52i.d	$a1, $a1, 2047
	st.d	$a1, $sp, 24                    # 8-byte Folded Spill
	addi.w	$s7, $zero, -1
	st.d	$s4, $sp, 16                    # 8-byte Folded Spill
	st.d	$s3, $sp, 40                    # 8-byte Folded Spill
	b	.LBB2_3
	.p2align	4, , 16
.LBB2_2:                                # %if.then.i
                                        #   in Loop: Header=BB2_3 Depth=1
	move	$a1, $s0
	pcaddu18i	$ra, %call36(_ZN12_GLOBAL__N_18TestCaseC2ERKS0_)
	jirl	$ra, $ra, 0
	ld.d	$a0, $s3, 8
	ld.d	$s8, $s3, 16
	addi.d	$a0, $a0, 64
	st.d	$a0, $s3, 8
	addi.d	$s0, $s0, 64
	beq	$s0, $s4, .LBB2_33
.LBB2_3:                                # %for.body
                                        # =>This Loop Header: Depth=1
                                        #     Child Loop BB2_10 Depth 2
                                        #     Child Loop BB2_25 Depth 2
	bne	$a0, $s8, .LBB2_2
# %bb.4:                                # %if.else.i
                                        #   in Loop: Header=BB2_3 Depth=1
	ld.d	$s2, $s3, 0
	sub.d	$fp, $s8, $s2
	ld.d	$a0, $sp, 24                    # 8-byte Folded Reload
	beq	$fp, $a0, .LBB2_34
# %bb.5:                                # %_ZNKSt6vectorIN12_GLOBAL__N_18TestCaseESaIS1_EE12_M_check_lenEmPKc.exit.i.i
                                        #   in Loop: Header=BB2_3 Depth=1
	srai.d	$a0, $fp, 6
	xor	$a1, $s8, $s2
	sltui	$a1, $a1, 1
	masknez	$a2, $a0, $a1
	ori	$a3, $zero, 1
	maskeqz	$a1, $a3, $a1
	or	$a1, $a1, $a2
	add.d	$a0, $a1, $a0
	lu52i.d	$a2, $s7, 31
	sltu	$a1, $a0, $a2
	maskeqz	$a0, $a0, $a1
	masknez	$a1, $a2, $a1
	or	$a0, $a0, $a1
	slli.d	$a0, $a0, 6
	st.d	$a0, $sp, 48                    # 8-byte Folded Spill
	pcaddu18i	$ra, %call36(_Znwm)
	jirl	$ra, $ra, 0
	move	$s1, $a0
	add.d	$s3, $a0, $fp
.Ltmp0:                                 # EH_LABEL
	move	$a0, $s3
	move	$a1, $s0
	pcaddu18i	$ra, %call36(_ZN12_GLOBAL__N_18TestCaseC2ERKS0_)
	jirl	$ra, $ra, 0
.Ltmp1:                                 # EH_LABEL
# %bb.6:                                # %invoke.cont.i.i
                                        #   in Loop: Header=BB2_3 Depth=1
	st.d	$s3, $sp, 56
	addi.d	$a0, $s3, 64
	st.d	$a0, $sp, 64
	ld.d	$s3, $sp, 40                    # 8-byte Folded Reload
	st.d	$s3, $sp, 72
	beq	$s8, $s2, .LBB2_32
# %bb.7:                                # %for.body.i.i.i.i.i.i.preheader
                                        #   in Loop: Header=BB2_3 Depth=1
	st.d	$s0, $sp, 32                    # 8-byte Folded Spill
	move	$s0, $zero
	b	.LBB2_10
	.p2align	4, , 16
.LBB2_8:                                # %if.then.i.i.i8.i
                                        #   in Loop: Header=BB2_10 Depth=2
	ld.b	$a0, $s5, 0
	st.b	$a0, $s4, 0
.LBB2_9:                                # %for.inc.i.i.i.i.i.i
                                        #   in Loop: Header=BB2_10 Depth=2
	ld.d	$a0, $sp, 80
	st.d	$a0, $s3, 40
	addi.d	$a0, $fp, 64
	addi.d	$s0, $s0, 64
	beq	$a0, $s8, .LBB2_23
.LBB2_10:                               # %for.body.i.i.i.i.i.i
                                        #   Parent Loop BB2_3 Depth=1
                                        # =>  This Inner Loop Header: Depth=2
	add.d	$fp, $s2, $s0
	add.d	$s3, $s1, $s0
	addi.d	$a0, $s3, 16
	stx.d	$a0, $s1, $s0
	ld.d	$a1, $fp, 8
	ldx.d	$s4, $s2, $s0
	st.d	$a1, $sp, 80
	ori	$a2, $zero, 16
	bltu	$a1, $a2, .LBB2_13
# %bb.11:                               # %if.then.i.i.i9
                                        #   in Loop: Header=BB2_10 Depth=2
.Ltmp3:                                 # EH_LABEL
	addi.d	$a1, $sp, 80
	move	$a0, $s3
	move	$a2, $zero
	pcaddu18i	$ra, %call36(_ZNSt7__cxx1112basic_stringIcSt11char_traitsIcESaIcEE9_M_createERmm)
	jirl	$ra, $ra, 0
.Ltmp4:                                 # EH_LABEL
# %bb.12:                               # %call.i4.i.i.noexc
                                        #   in Loop: Header=BB2_10 Depth=2
	ld.d	$a1, $sp, 80
	st.d	$a0, $s3, 0
	st.d	$a1, $s3, 16
.LBB2_13:                               # %if.end.i.i.i
                                        #   in Loop: Header=BB2_10 Depth=2
	beq	$a1, $s7, .LBB2_17
# %bb.14:                               # %if.end.i.i.i
                                        #   in Loop: Header=BB2_10 Depth=2
	bnez	$a1, .LBB2_16
# %bb.15:                               # %if.then.i.i.i.i
                                        #   in Loop: Header=BB2_10 Depth=2
	ld.b	$a1, $s4, 0
	st.b	$a1, $a0, 0
	b	.LBB2_17
	.p2align	4, , 16
.LBB2_16:                               # %if.end.i.i.i.i.i
                                        #   in Loop: Header=BB2_10 Depth=2
	addi.d	$a2, $a1, 1
	move	$a1, $s4
	pcaddu18i	$ra, %call36(memcpy)
	jirl	$ra, $ra, 0
.LBB2_17:                               # %_ZNSt7__cxx1112basic_stringIcSt11char_traitsIcESaIcEEC2ERKS4_.exit.i
                                        #   in Loop: Header=BB2_10 Depth=2
	ld.d	$a0, $sp, 80
	st.d	$a0, $s3, 8
	addi.d	$s4, $s3, 48
	st.d	$s4, $s3, 32
	ld.d	$a1, $fp, 40
	ld.d	$s5, $fp, 32
	st.d	$a1, $sp, 80
	ori	$a0, $zero, 16
	bltu	$a1, $a0, .LBB2_20
# %bb.18:                               # %if.then.i.i11.i
                                        #   in Loop: Header=BB2_10 Depth=2
.Ltmp6:                                 # EH_LABEL
	addi.d	$s6, $s3, 32
	addi.d	$a1, $sp, 80
	move	$a0, $s6
	move	$a2, $zero
	pcaddu18i	$ra, %call36(_ZNSt7__cxx1112basic_stringIcSt11char_traitsIcESaIcEE9_M_createERmm)
	jirl	$ra, $ra, 0
.Ltmp7:                                 # EH_LABEL
# %bb.19:                               # %call.i4.i12.noexc.i
                                        #   in Loop: Header=BB2_10 Depth=2
	ld.d	$a1, $sp, 80
	st.d	$a0, $s6, 0
	st.d	$a1, $s4, 0
	move	$s4, $a0
.LBB2_20:                               # %if.end.i.i6.i
                                        #   in Loop: Header=BB2_10 Depth=2
	beq	$a1, $s7, .LBB2_9
# %bb.21:                               # %if.end.i.i6.i
                                        #   in Loop: Header=BB2_10 Depth=2
	beqz	$a1, .LBB2_8
# %bb.22:                               # %if.end.i.i.i.i9.i
                                        #   in Loop: Header=BB2_10 Depth=2
	addi.d	$a2, $a1, 1
	move	$a0, $s4
	move	$a1, $s5
	pcaddu18i	$ra, %call36(memcpy)
	jirl	$ra, $ra, 0
	b	.LBB2_9
	.p2align	4, , 16
.LBB2_23:                               # %for.body.i.i.i.i.preheader
                                        #   in Loop: Header=BB2_3 Depth=1
	addi.d	$fp, $s2, 48
	ld.d	$s4, $sp, 16                    # 8-byte Folded Reload
	b	.LBB2_25
	.p2align	4, , 16
.LBB2_24:                               # %_ZSt8_DestroyIN12_GLOBAL__N_18TestCaseEEvPT_.exit.i.i.i.i
                                        #   in Loop: Header=BB2_25 Depth=2
	addi.d	$a0, $fp, 16
	addi.d	$fp, $fp, 64
	beq	$a0, $s8, .LBB2_29
.LBB2_25:                               # %for.body.i.i.i.i
                                        #   Parent Loop BB2_3 Depth=1
                                        # =>  This Inner Loop Header: Depth=2
	ld.d	$a0, $fp, -16
	beq	$fp, $a0, .LBB2_27
# %bb.26:                               # %if.then.i.i.i.i.i.i.i.i
                                        #   in Loop: Header=BB2_25 Depth=2
	ld.d	$a1, $fp, 0
	addi.d	$a1, $a1, 1
	pcaddu18i	$ra, %call36(_ZdlPvm)
	jirl	$ra, $ra, 0
.LBB2_27:                               # %_ZNSt7__cxx1112basic_stringIcSt11char_traitsIcESaIcEED2Ev.exit.i.i.i.i.i.i
                                        #   in Loop: Header=BB2_25 Depth=2
	ld.d	$a0, $fp, -48
	addi.d	$a1, $fp, -32
	beq	$a1, $a0, .LBB2_24
# %bb.28:                               # %if.then.i.i2.i.i.i.i.i.i
                                        #   in Loop: Header=BB2_25 Depth=2
	ld.d	$a1, $a1, 0
	addi.d	$a1, $a1, 1
	pcaddu18i	$ra, %call36(_ZdlPvm)
	jirl	$ra, $ra, 0
	b	.LBB2_24
	.p2align	4, , 16
.LBB2_29:                               # %_ZZNSt6vectorIN12_GLOBAL__N_18TestCaseESaIS1_EE17_M_realloc_appendIJRKS1_EEEvDpOT_EN11_Guard_eltsD2Ev.exit.loopexit.i.i
                                        #   in Loop: Header=BB2_3 Depth=1
	add.d	$a0, $s1, $s0
	addi.d	$a0, $a0, 64
	ld.d	$s0, $sp, 32                    # 8-byte Folded Reload
	ld.d	$s3, $sp, 40                    # 8-byte Folded Reload
	beqz	$s2, .LBB2_31
.LBB2_30:                               # %_ZNSt12_Vector_baseIN12_GLOBAL__N_18TestCaseESaIS1_EE13_M_deallocateEPS1_m.exit.i.i.i
                                        #   in Loop: Header=BB2_3 Depth=1
	ld.d	$a1, $s3, 16
	sub.d	$a1, $a1, $s2
	move	$fp, $a0
	move	$a0, $s2
	pcaddu18i	$ra, %call36(_ZdlPvm)
	jirl	$ra, $ra, 0
	move	$a0, $fp
.LBB2_31:                               # %_ZNSt6vectorIN12_GLOBAL__N_18TestCaseESaIS1_EE17_M_realloc_appendIJRKS1_EEEvDpOT_.exit.i
                                        #   in Loop: Header=BB2_3 Depth=1
	st.d	$s1, $s3, 0
	st.d	$a0, $s3, 8
	ld.d	$a1, $sp, 48                    # 8-byte Folded Reload
	add.d	$s8, $s1, $a1
	st.d	$s8, $s3, 16
	addi.d	$s0, $s0, 64
	bne	$s0, $s4, .LBB2_3
	b	.LBB2_33
.LBB2_32:                               # %invoke.cont18.thread.i.i
                                        #   in Loop: Header=BB2_3 Depth=1
	addi.d	$a0, $s1, 64
	bnez	$s2, .LBB2_30
	b	.LBB2_31
.LBB2_33:                               # %for.cond.cleanup
	ld.d	$s8, $sp, 88                    # 8-byte Folded Reload
	ld.d	$s7, $sp, 96                    # 8-byte Folded Reload
	ld.d	$s6, $sp, 104                   # 8-byte Folded Reload
	ld.d	$s5, $sp, 112                   # 8-byte Folded Reload
	ld.d	$s4, $sp, 120                   # 8-byte Folded Reload
	ld.d	$s3, $sp, 128                   # 8-byte Folded Reload
	ld.d	$s2, $sp, 136                   # 8-byte Folded Reload
	ld.d	$s1, $sp, 144                   # 8-byte Folded Reload
	ld.d	$s0, $sp, 152                   # 8-byte Folded Reload
	ld.d	$fp, $sp, 160                   # 8-byte Folded Reload
	ld.d	$ra, $sp, 168                   # 8-byte Folded Reload
	addi.d	$sp, $sp, 176
	ret
.LBB2_34:                               # %if.then.i.i.i
	pcalau12i	$a0, %pc_hi20(.L.str.31)
	addi.d	$a0, $a0, %pc_lo12(.L.str.31)
	pcaddu18i	$ra, %call36(_ZSt20__throw_length_errorPKc)
	jirl	$ra, $ra, 0
.LBB2_35:                               # %lpad.i.i
.Ltmp2:                                 # EH_LABEL
	move	$fp, $a0
	ld.d	$s0, $sp, 48                    # 8-byte Folded Reload
	b	.LBB2_40
.LBB2_36:                               # %_ZNSt19_UninitDestroyGuardIPN12_GLOBAL__N_18TestCaseEvED2Ev.exit.i.i.i.i.i.i
.Ltmp5:                                 # EH_LABEL
	move	$fp, $a0
	b	.LBB2_39
.LBB2_37:                               # %lpad.i
.Ltmp8:                                 # EH_LABEL
	ldx.d	$a2, $s1, $s0
	addi.d	$a1, $s3, 16
	move	$fp, $a0
	beq	$a1, $a2, .LBB2_39
# %bb.38:                               # %if.then.i.i16.i
	ld.d	$a0, $s3, 16
	addi.d	$a1, $a0, 1
	move	$a0, $a2
	pcaddu18i	$ra, %call36(_ZdlPvm)
	jirl	$ra, $ra, 0
.LBB2_39:                               # %_ZNSt19_UninitDestroyGuardIPN12_GLOBAL__N_18TestCaseEvED2Ev.exit.i.i.i.i.i.i.body
	ld.d	$s0, $sp, 48                    # 8-byte Folded Reload
	move	$a0, $s1
	move	$a1, $s3
	pcaddu18i	$ra, %call36(_ZSt8_DestroyIPN12_GLOBAL__N_18TestCaseEEvT_S3_)
	jirl	$ra, $ra, 0
	addi.d	$a0, $sp, 56
	pcaddu18i	$ra, %call36(_ZZNSt6vectorIN12_GLOBAL__N_18TestCaseESaIS1_EE17_M_realloc_appendIJRKS1_EEEvDpOT_EN11_Guard_eltsD2Ev)
	jirl	$ra, $ra, 0
.LBB2_40:                               # %_ZNSt6vectorIN12_GLOBAL__N_18TestCaseESaIS1_EE12_Guard_allocD2Ev.exit27.i.i
	move	$a0, $s1
	move	$a1, $s0
	pcaddu18i	$ra, %call36(_ZdlPvm)
	jirl	$ra, $ra, 0
	move	$a0, $fp
	pcaddu18i	$ra, %call36(_Unwind_Resume)
	jirl	$ra, $ra, 0
.Lfunc_end2:
	.size	_ZN12_GLOBAL__N_18AddCasesERKSt16initializer_listINS_8TestCaseEE, .Lfunc_end2-_ZN12_GLOBAL__N_18AddCasesERKSt16initializer_listINS_8TestCaseEE
	.cfi_endproc
	.section	.gcc_except_table,"a",@progbits
	.p2align	2, 0x0
GCC_except_table2:
.Lexception0:
	.byte	255                             # @LPStart Encoding = omit
	.byte	255                             # @TType Encoding = omit
	.byte	1                               # Call site Encoding = uleb128
	.uleb128 .Lcst_end0-.Lcst_begin0
.Lcst_begin0:
	.uleb128 .Lfunc_begin0-.Lfunc_begin0    # >> Call Site 1 <<
	.uleb128 .Ltmp0-.Lfunc_begin0           #   Call between .Lfunc_begin0 and .Ltmp0
	.byte	0                               #     has no landing pad
	.byte	0                               #   On action: cleanup
	.uleb128 .Ltmp0-.Lfunc_begin0           # >> Call Site 2 <<
	.uleb128 .Ltmp1-.Ltmp0                  #   Call between .Ltmp0 and .Ltmp1
	.uleb128 .Ltmp2-.Lfunc_begin0           #     jumps to .Ltmp2
	.byte	0                               #   On action: cleanup
	.uleb128 .Ltmp3-.Lfunc_begin0           # >> Call Site 3 <<
	.uleb128 .Ltmp4-.Ltmp3                  #   Call between .Ltmp3 and .Ltmp4
	.uleb128 .Ltmp5-.Lfunc_begin0           #     jumps to .Ltmp5
	.byte	0                               #   On action: cleanup
	.uleb128 .Ltmp4-.Lfunc_begin0           # >> Call Site 4 <<
	.uleb128 .Ltmp6-.Ltmp4                  #   Call between .Ltmp4 and .Ltmp6
	.byte	0                               #     has no landing pad
	.byte	0                               #   On action: cleanup
	.uleb128 .Ltmp6-.Lfunc_begin0           # >> Call Site 5 <<
	.uleb128 .Ltmp7-.Ltmp6                  #   Call between .Ltmp6 and .Ltmp7
	.uleb128 .Ltmp8-.Lfunc_begin0           #     jumps to .Ltmp8
	.byte	0                               #   On action: cleanup
	.uleb128 .Ltmp7-.Lfunc_begin0           # >> Call Site 6 <<
	.uleb128 .Lfunc_end2-.Ltmp7             #   Call between .Ltmp7 and .Lfunc_end2
	.byte	0                               #     has no landing pad
	.byte	0                               #   On action: cleanup
.Lcst_end0:
	.p2align	2, 0x0
                                        # -- End function
	.text
	.p2align	5                               # -- Begin function _ZN12_GLOBAL__N_18TestCaseD2Ev
	.type	_ZN12_GLOBAL__N_18TestCaseD2Ev,@function
_ZN12_GLOBAL__N_18TestCaseD2Ev:         # @_ZN12_GLOBAL__N_18TestCaseD2Ev
	.cfi_startproc
# %bb.0:                                # %entry
	addi.d	$sp, $sp, -16
	.cfi_def_cfa_offset 16
	st.d	$ra, $sp, 8                     # 8-byte Folded Spill
	st.d	$fp, $sp, 0                     # 8-byte Folded Spill
	.cfi_offset 1, -8
	.cfi_offset 22, -16
	move	$fp, $a0
	ld.d	$a0, $a0, 32
	addi.d	$a1, $fp, 48
	beq	$a0, $a1, .LBB3_2
# %bb.1:                                # %if.then.i.i
	ld.d	$a1, $a1, 0
	addi.d	$a1, $a1, 1
	pcaddu18i	$ra, %call36(_ZdlPvm)
	jirl	$ra, $ra, 0
.LBB3_2:                                # %_ZNSt7__cxx1112basic_stringIcSt11char_traitsIcESaIcEED2Ev.exit
	ld.d	$a0, $fp, 0
	addi.d	$a1, $fp, 16
	beq	$a0, $a1, .LBB3_4
# %bb.3:                                # %if.then.i.i2
	ld.d	$a1, $a1, 0
	addi.d	$a1, $a1, 1
	ld.d	$fp, $sp, 0                     # 8-byte Folded Reload
	ld.d	$ra, $sp, 8                     # 8-byte Folded Reload
	addi.d	$sp, $sp, 16
	pcaddu18i	$t8, %call36(_ZdlPvm)
	jr	$t8
.LBB3_4:                                # %_ZNSt7__cxx1112basic_stringIcSt11char_traitsIcESaIcEED2Ev.exit7
	ld.d	$fp, $sp, 0                     # 8-byte Folded Reload
	ld.d	$ra, $sp, 8                     # 8-byte Folded Reload
	addi.d	$sp, $sp, 16
	ret
.Lfunc_end3:
	.size	_ZN12_GLOBAL__N_18TestCaseD2Ev, .Lfunc_end3-_ZN12_GLOBAL__N_18TestCaseD2Ev
	.cfi_endproc
                                        # -- End function
	.hidden	_Z13BM_extra_argsRN9benchmark5StateEPKc # -- Begin function _Z13BM_extra_argsRN9benchmark5StateEPKc
	.globl	_Z13BM_extra_argsRN9benchmark5StateEPKc
	.p2align	5
	.type	_Z13BM_extra_argsRN9benchmark5StateEPKc,@function
_Z13BM_extra_argsRN9benchmark5StateEPKc: # @_Z13BM_extra_argsRN9benchmark5StateEPKc
.Lfunc_begin1:
	.cfi_startproc
	.cfi_personality 155, DW.ref.__gxx_personality_v0
	.cfi_lsda 27, .Lexception1
# %bb.0:                                # %entry
	addi.d	$sp, $sp, -96
	.cfi_def_cfa_offset 96
	st.d	$ra, $sp, 88                    # 8-byte Folded Spill
	st.d	$fp, $sp, 80                    # 8-byte Folded Spill
	st.d	$s0, $sp, 72                    # 8-byte Folded Spill
	st.d	$s1, $sp, 64                    # 8-byte Folded Spill
	st.d	$s2, $sp, 56                    # 8-byte Folded Spill
	.cfi_offset 1, -8
	.cfi_offset 22, -16
	.cfi_offset 23, -24
	.cfi_offset 24, -32
	.cfi_offset 25, -40
	move	$fp, $a0
	ld.w	$s2, $a0, 28
	ld.d	$s1, $a0, 16
	move	$s0, $a1
	pcaddu18i	$ra, %call36(_ZN9benchmark5State16StartKeepRunningEv)
	jirl	$ra, $ra, 0
	bnez	$s2, .LBB4_3
# %bb.1:                                # %entry
	beqz	$s1, .LBB4_3
# %bb.2:                                # %for.body.preheader
	srai.d	$a0, $s1, 63
	andn	$a0, $s1, $a0
	addi.d	$a1, $s1, -1
	bgeu	$a1, $a0, .LBB4_15
.LBB4_3:                                # %for.cond.cleanup
	move	$a0, $fp
	pcaddu18i	$ra, %call36(_ZN9benchmark5State17FinishKeepRunningEv)
	jirl	$ra, $ra, 0
	addi.d	$s2, $sp, 32
	st.d	$s2, $sp, 16
	beqz	$s0, .LBB4_14
# %bb.4:                                # %if.end.i15
	move	$a0, $s0
	pcaddu18i	$ra, %call36(strlen)
	jirl	$ra, $ra, 0
	move	$s1, $a0
	ori	$a1, $zero, 16
	st.d	$a0, $sp, 48
	move	$a0, $s2
	bltu	$s1, $a1, .LBB4_6
# %bb.5:                                # %if.then.i.i
	addi.d	$a0, $sp, 16
	addi.d	$a1, $sp, 48
	move	$a2, $zero
	pcaddu18i	$ra, %call36(_ZNSt7__cxx1112basic_stringIcSt11char_traitsIcESaIcEE9_M_createERmm)
	jirl	$ra, $ra, 0
	ld.d	$a1, $sp, 48
	st.d	$a0, $sp, 16
	st.d	$a1, $sp, 32
.LBB4_6:                                # %if.end.i.i
	beqz	$s1, .LBB4_10
# %bb.7:                                # %if.end.i.i
	ori	$a1, $zero, 1
	bne	$s1, $a1, .LBB4_9
# %bb.8:                                # %if.then.i.i.i.i
	ld.b	$a1, $s0, 0
	st.b	$a1, $a0, 0
	b	.LBB4_10
.LBB4_9:                                # %if.end.i.i.i.i.i
	move	$a1, $s0
	move	$a2, $s1
	pcaddu18i	$ra, %call36(memcpy)
	jirl	$ra, $ra, 0
.LBB4_10:                               # %invoke.cont
	ld.d	$a0, $sp, 48
	ld.d	$a1, $sp, 16
	st.d	$a0, $sp, 24
	stx.b	$zero, $a1, $a0
.Ltmp9:                                 # EH_LABEL
	addi.d	$a1, $sp, 16
	move	$a0, $fp
	pcaddu18i	$ra, %call36(_ZN9benchmark5State8SetLabelERKNSt7__cxx1112basic_stringIcSt11char_traitsIcESaIcEEE)
	jirl	$ra, $ra, 0
.Ltmp10:                                # EH_LABEL
# %bb.11:                               # %invoke.cont7
	ld.d	$a0, $sp, 16
	beq	$a0, $s2, .LBB4_13
# %bb.12:                               # %if.then.i.i17
	ld.d	$a1, $sp, 32
	addi.d	$a1, $a1, 1
	pcaddu18i	$ra, %call36(_ZdlPvm)
	jirl	$ra, $ra, 0
.LBB4_13:                               # %_ZNSt7__cxx1112basic_stringIcSt11char_traitsIcESaIcEED2Ev.exit
	ld.d	$s2, $sp, 56                    # 8-byte Folded Reload
	ld.d	$s1, $sp, 64                    # 8-byte Folded Reload
	ld.d	$s0, $sp, 72                    # 8-byte Folded Reload
	ld.d	$fp, $sp, 80                    # 8-byte Folded Reload
	ld.d	$ra, $sp, 88                    # 8-byte Folded Reload
	addi.d	$sp, $sp, 96
	ret
.LBB4_14:                               # %if.then.i
	pcalau12i	$a0, %pc_hi20(.L.str.43)
	addi.d	$a0, $a0, %pc_lo12(.L.str.43)
	pcaddu18i	$ra, %call36(_ZSt19__throw_logic_errorPKc)
	jirl	$ra, $ra, 0
.LBB4_15:                               # %cond.false.i
	pcalau12i	$a0, %pc_hi20(.L.str.29)
	addi.d	$a0, $a0, %pc_lo12(.L.str.29)
	pcalau12i	$a1, %pc_hi20(.L.str.30)
	addi.d	$a1, $a1, %pc_lo12(.L.str.30)
	pcalau12i	$a2, %pc_hi20(.L__PRETTY_FUNCTION__._ZN9benchmark5State13StateIteratorppEv)
	addi.d	$a3, $a2, %pc_lo12(.L__PRETTY_FUNCTION__._ZN9benchmark5State13StateIteratorppEv)
	ori	$a2, $zero, 1134
	pcaddu18i	$ra, %call36(__assert_fail)
	jirl	$ra, $ra, 0
.LBB4_16:                               # %lpad6
.Ltmp11:                                # EH_LABEL
	ld.d	$a2, $sp, 16
	move	$fp, $a0
	beq	$a2, $s2, .LBB4_18
# %bb.17:                               # %if.then.i.i19
	ld.d	$a0, $sp, 32
	addi.d	$a1, $a0, 1
	move	$a0, $a2
	pcaddu18i	$ra, %call36(_ZdlPvm)
	jirl	$ra, $ra, 0
.LBB4_18:                               # %ehcleanup
	move	$a0, $fp
	pcaddu18i	$ra, %call36(_Unwind_Resume)
	jirl	$ra, $ra, 0
.Lfunc_end4:
	.size	_Z13BM_extra_argsRN9benchmark5StateEPKc, .Lfunc_end4-_Z13BM_extra_argsRN9benchmark5StateEPKc
	.cfi_endproc
	.section	.gcc_except_table,"a",@progbits
	.p2align	2, 0x0
GCC_except_table4:
.Lexception1:
	.byte	255                             # @LPStart Encoding = omit
	.byte	255                             # @TType Encoding = omit
	.byte	1                               # Call site Encoding = uleb128
	.uleb128 .Lcst_end1-.Lcst_begin1
.Lcst_begin1:
	.uleb128 .Lfunc_begin1-.Lfunc_begin1    # >> Call Site 1 <<
	.uleb128 .Ltmp9-.Lfunc_begin1           #   Call between .Lfunc_begin1 and .Ltmp9
	.byte	0                               #     has no landing pad
	.byte	0                               #   On action: cleanup
	.uleb128 .Ltmp9-.Lfunc_begin1           # >> Call Site 2 <<
	.uleb128 .Ltmp10-.Ltmp9                 #   Call between .Ltmp9 and .Ltmp10
	.uleb128 .Ltmp11-.Lfunc_begin1          #     jumps to .Ltmp11
	.byte	0                               #   On action: cleanup
	.uleb128 .Ltmp10-.Lfunc_begin1          # >> Call Site 3 <<
	.uleb128 .Lfunc_end4-.Ltmp10            #   Call between .Ltmp10 and .Lfunc_end4
	.byte	0                               #     has no landing pad
	.byte	0                               #   On action: cleanup
.Lcst_end1:
	.p2align	2, 0x0
                                        # -- End function
	.text
	.hidden	_Z20RegisterFromFunctionv       # -- Begin function _Z20RegisterFromFunctionv
	.globl	_Z20RegisterFromFunctionv
	.p2align	5
	.type	_Z20RegisterFromFunctionv,@function
_Z20RegisterFromFunctionv:              # @_Z20RegisterFromFunctionv
.Lfunc_begin2:
	.cfi_startproc
	.cfi_personality 155, DW.ref.__gxx_personality_v0
	.cfi_lsda 27, .Lexception2
# %bb.0:                                # %invoke.cont
	addi.d	$sp, $sp, -80
	.cfi_def_cfa_offset 80
	st.d	$ra, $sp, 72                    # 8-byte Folded Spill
	st.d	$fp, $sp, 64                    # 8-byte Folded Spill
	st.d	$s0, $sp, 56                    # 8-byte Folded Spill
	st.d	$s1, $sp, 48                    # 8-byte Folded Spill
	st.d	$s2, $sp, 40                    # 8-byte Folded Spill
	.cfi_offset 1, -8
	.cfi_offset 22, -16
	.cfi_offset 23, -24
	.cfi_offset 24, -32
	.cfi_offset 25, -40
	addi.d	$s1, $sp, 24
	st.d	$s1, $sp, 8
	pcalau12i	$a0, %pc_hi20(.L.str.6)
	addi.d	$a0, $a0, %pc_lo12(.L.str.6)
	ld.w	$a1, $a0, 0
	ld.b	$a0, $a0, 4
	st.w	$a1, $sp, 24
	st.b	$a0, $sp, 28
	ori	$a0, $zero, 5
	st.d	$a0, $sp, 16
	st.b	$zero, $sp, 29
.Ltmp12:                                # EH_LABEL
	ori	$a0, $zero, 240
	pcaddu18i	$ra, %call36(_Znwm)
	jirl	$ra, $ra, 0
.Ltmp13:                                # EH_LABEL
# %bb.1:                                # %call.i.i9.noexc
.Ltmp14:                                # EH_LABEL
	move	$fp, $a0
	addi.d	$a1, $sp, 8
	pcaddu18i	$ra, %call36(_ZN9benchmark8internal9BenchmarkC2ERKNSt7__cxx1112basic_stringIcSt11char_traitsIcESaIcEEE)
	jirl	$ra, $ra, 0
.Ltmp15:                                # EH_LABEL
# %bb.2:                                # %_ZN9benchmark17RegisterBenchmarkIZNS_17RegisterBenchmarkIPFvRNS_5StateEPKcEJRKS5_EEEPNS_8internal9BenchmarkERKNSt7__cxx1112basic_stringIcSt11char_traitsIcESaIcEEEOT_DpOT0_EUlS3_E_EESC_SK_SM_.exit.i
	pcalau12i	$a0, %pc_hi20(_ZTVN9benchmark8internal15LambdaBenchmarkIZNS_17RegisterBenchmarkIPFvRNS_5StateEPKcEJRKS6_EEEPNS0_9BenchmarkERKNSt7__cxx1112basic_stringIcSt11char_traitsIcESaIcEEEOT_DpOT0_EUlS4_E_EE+16)
	addi.d	$s0, $a0, %pc_lo12(_ZTVN9benchmark8internal15LambdaBenchmarkIZNS_17RegisterBenchmarkIPFvRNS_5StateEPKcEJRKS6_EEEPNS0_9BenchmarkERKNSt7__cxx1112basic_stringIcSt11char_traitsIcESaIcEEEOT_DpOT0_EUlS4_E_EE+16)
	st.d	$s0, $fp, 0
	pcalau12i	$a0, %pc_hi20(_Z13BM_extra_argsRN9benchmark5StateEPKc)
	addi.d	$s2, $a0, %pc_lo12(_Z13BM_extra_argsRN9benchmark5StateEPKc)
	st.d	$s2, $fp, 224
	pcalau12i	$a0, %pc_hi20(.L.str.7)
	addi.d	$a0, $a0, %pc_lo12(.L.str.7)
	st.d	$a0, $fp, 232
.Ltmp16:                                # EH_LABEL
	move	$a0, $fp
	pcaddu18i	$ra, %call36(_ZN9benchmark8internal25RegisterBenchmarkInternalEPNS0_9BenchmarkE)
	jirl	$ra, $ra, 0
.Ltmp17:                                # EH_LABEL
# %bb.3:                                # %invoke.cont12
	ld.d	$a0, $sp, 8
	beq	$a0, $s1, .LBB5_5
# %bb.4:                                # %if.then.i.i12
	ld.d	$a1, $sp, 24
	addi.d	$a1, $a1, 1
	pcaddu18i	$ra, %call36(_ZdlPvm)
	jirl	$ra, $ra, 0
.LBB5_5:                                # %invoke.cont.1
	st.d	$s1, $sp, 8
	pcalau12i	$a0, %pc_hi20(.L.str.8)
	addi.d	$a0, $a0, %pc_lo12(.L.str.8)
	ld.w	$a1, $a0, 0
	ld.b	$a0, $a0, 4
	st.w	$a1, $s1, 0
	st.b	$a0, $s1, 4
	ori	$a0, $zero, 5
	st.d	$a0, $sp, 16
	st.b	$zero, $sp, 29
.Ltmp18:                                # EH_LABEL
	ori	$a0, $zero, 240
	pcaddu18i	$ra, %call36(_Znwm)
	jirl	$ra, $ra, 0
.Ltmp19:                                # EH_LABEL
# %bb.6:                                # %call.i.i9.noexc.1
.Ltmp20:                                # EH_LABEL
	move	$fp, $a0
	addi.d	$a1, $sp, 8
	pcaddu18i	$ra, %call36(_ZN9benchmark8internal9BenchmarkC2ERKNSt7__cxx1112basic_stringIcSt11char_traitsIcESaIcEEE)
	jirl	$ra, $ra, 0
.Ltmp21:                                # EH_LABEL
# %bb.7:                                # %_ZN9benchmark17RegisterBenchmarkIZNS_17RegisterBenchmarkIPFvRNS_5StateEPKcEJRKS5_EEEPNS_8internal9BenchmarkERKNSt7__cxx1112basic_stringIcSt11char_traitsIcESaIcEEEOT_DpOT0_EUlS3_E_EESC_SK_SM_.exit.i.1
	st.d	$s0, $fp, 0
	st.d	$s2, $fp, 224
	pcalau12i	$a0, %pc_hi20(.L.str.9)
	addi.d	$a0, $a0, %pc_lo12(.L.str.9)
	st.d	$a0, $fp, 232
.Ltmp22:                                # EH_LABEL
	move	$a0, $fp
	pcaddu18i	$ra, %call36(_ZN9benchmark8internal25RegisterBenchmarkInternalEPNS0_9BenchmarkE)
	jirl	$ra, $ra, 0
.Ltmp23:                                # EH_LABEL
# %bb.8:                                # %invoke.cont12.1
	ld.d	$a0, $sp, 8
	beq	$a0, $s1, .LBB5_10
# %bb.9:                                # %if.then.i.i12.1
	ld.d	$a1, $sp, 24
	addi.d	$a1, $a1, 1
	pcaddu18i	$ra, %call36(_ZdlPvm)
	jirl	$ra, $ra, 0
.LBB5_10:                               # %invoke.cont.2
	st.d	$s1, $sp, 8
	pcalau12i	$a0, %pc_hi20(.L.str.10)
	addi.d	$a0, $a0, %pc_lo12(.L.str.10)
	ld.w	$a1, $a0, 0
	ld.b	$a0, $a0, 4
	st.w	$a1, $s1, 0
	st.b	$a0, $s1, 4
	ori	$a0, $zero, 5
	st.d	$a0, $sp, 16
	st.b	$zero, $sp, 29
.Ltmp24:                                # EH_LABEL
	ori	$a0, $zero, 240
	pcaddu18i	$ra, %call36(_Znwm)
	jirl	$ra, $ra, 0
.Ltmp25:                                # EH_LABEL
# %bb.11:                               # %call.i.i9.noexc.2
.Ltmp26:                                # EH_LABEL
	move	$fp, $a0
	addi.d	$a1, $sp, 8
	pcaddu18i	$ra, %call36(_ZN9benchmark8internal9BenchmarkC2ERKNSt7__cxx1112basic_stringIcSt11char_traitsIcESaIcEEE)
	jirl	$ra, $ra, 0
.Ltmp27:                                # EH_LABEL
# %bb.12:                               # %_ZN9benchmark17RegisterBenchmarkIZNS_17RegisterBenchmarkIPFvRNS_5StateEPKcEJRKS5_EEEPNS_8internal9BenchmarkERKNSt7__cxx1112basic_stringIcSt11char_traitsIcESaIcEEEOT_DpOT0_EUlS3_E_EESC_SK_SM_.exit.i.2
	st.d	$s0, $fp, 0
	st.d	$s2, $fp, 224
	pcalau12i	$a0, %pc_hi20(.L.str.11)
	addi.d	$a0, $a0, %pc_lo12(.L.str.11)
	st.d	$a0, $fp, 232
.Ltmp29:                                # EH_LABEL
	move	$a0, $fp
	pcaddu18i	$ra, %call36(_ZN9benchmark8internal25RegisterBenchmarkInternalEPNS0_9BenchmarkE)
	jirl	$ra, $ra, 0
.Ltmp30:                                # EH_LABEL
# %bb.13:                               # %invoke.cont12.2
	ld.d	$a0, $sp, 8
	beq	$a0, $s1, .LBB5_15
# %bb.14:                               # %if.then.i.i12.2
	ld.d	$a1, $sp, 24
	addi.d	$a1, $a1, 1
	pcaddu18i	$ra, %call36(_ZdlPvm)
	jirl	$ra, $ra, 0
.LBB5_15:                               # %_ZNSt7__cxx1112basic_stringIcSt11char_traitsIcESaIcEED2Ev.exit.2
	move	$a0, $zero
	ld.d	$s2, $sp, 40                    # 8-byte Folded Reload
	ld.d	$s1, $sp, 48                    # 8-byte Folded Reload
	ld.d	$s0, $sp, 56                    # 8-byte Folded Reload
	ld.d	$fp, $sp, 64                    # 8-byte Folded Reload
	ld.d	$ra, $sp, 72                    # 8-byte Folded Reload
	addi.d	$sp, $sp, 80
	ret
.LBB5_16:                               # %lpad.i.i
.Ltmp28:                                # EH_LABEL
	move	$s0, $a0
	ori	$a1, $zero, 240
	move	$a0, $fp
	pcaddu18i	$ra, %call36(_ZdlPvm)
	jirl	$ra, $ra, 0
	b	.LBB5_18
.LBB5_17:                               # %lpad11
.Ltmp31:                                # EH_LABEL
	move	$s0, $a0
.LBB5_18:                               # %lpad11.body
	ld.d	$a0, $sp, 8
	beq	$a0, $s1, .LBB5_20
# %bb.19:                               # %if.then.i.i14
	ld.d	$a1, $sp, 24
	addi.d	$a1, $a1, 1
	pcaddu18i	$ra, %call36(_ZdlPvm)
	jirl	$ra, $ra, 0
.LBB5_20:                               # %ehcleanup
	move	$a0, $s0
	pcaddu18i	$ra, %call36(_Unwind_Resume)
	jirl	$ra, $ra, 0
.Lfunc_end5:
	.size	_Z20RegisterFromFunctionv, .Lfunc_end5-_Z20RegisterFromFunctionv
	.cfi_endproc
	.section	.gcc_except_table,"a",@progbits
	.p2align	2, 0x0
GCC_except_table5:
.Lexception2:
	.byte	255                             # @LPStart Encoding = omit
	.byte	255                             # @TType Encoding = omit
	.byte	1                               # Call site Encoding = uleb128
	.uleb128 .Lcst_end2-.Lcst_begin2
.Lcst_begin2:
	.uleb128 .Ltmp12-.Lfunc_begin2          # >> Call Site 1 <<
	.uleb128 .Ltmp13-.Ltmp12                #   Call between .Ltmp12 and .Ltmp13
	.uleb128 .Ltmp31-.Lfunc_begin2          #     jumps to .Ltmp31
	.byte	0                               #   On action: cleanup
	.uleb128 .Ltmp14-.Lfunc_begin2          # >> Call Site 2 <<
	.uleb128 .Ltmp15-.Ltmp14                #   Call between .Ltmp14 and .Ltmp15
	.uleb128 .Ltmp28-.Lfunc_begin2          #     jumps to .Ltmp28
	.byte	0                               #   On action: cleanup
	.uleb128 .Ltmp16-.Lfunc_begin2          # >> Call Site 3 <<
	.uleb128 .Ltmp17-.Ltmp16                #   Call between .Ltmp16 and .Ltmp17
	.uleb128 .Ltmp31-.Lfunc_begin2          #     jumps to .Ltmp31
	.byte	0                               #   On action: cleanup
	.uleb128 .Ltmp17-.Lfunc_begin2          # >> Call Site 4 <<
	.uleb128 .Ltmp18-.Ltmp17                #   Call between .Ltmp17 and .Ltmp18
	.byte	0                               #     has no landing pad
	.byte	0                               #   On action: cleanup
	.uleb128 .Ltmp18-.Lfunc_begin2          # >> Call Site 5 <<
	.uleb128 .Ltmp19-.Ltmp18                #   Call between .Ltmp18 and .Ltmp19
	.uleb128 .Ltmp31-.Lfunc_begin2          #     jumps to .Ltmp31
	.byte	0                               #   On action: cleanup
	.uleb128 .Ltmp20-.Lfunc_begin2          # >> Call Site 6 <<
	.uleb128 .Ltmp21-.Ltmp20                #   Call between .Ltmp20 and .Ltmp21
	.uleb128 .Ltmp28-.Lfunc_begin2          #     jumps to .Ltmp28
	.byte	0                               #   On action: cleanup
	.uleb128 .Ltmp22-.Lfunc_begin2          # >> Call Site 7 <<
	.uleb128 .Ltmp23-.Ltmp22                #   Call between .Ltmp22 and .Ltmp23
	.uleb128 .Ltmp31-.Lfunc_begin2          #     jumps to .Ltmp31
	.byte	0                               #   On action: cleanup
	.uleb128 .Ltmp23-.Lfunc_begin2          # >> Call Site 8 <<
	.uleb128 .Ltmp24-.Ltmp23                #   Call between .Ltmp23 and .Ltmp24
	.byte	0                               #     has no landing pad
	.byte	0                               #   On action: cleanup
	.uleb128 .Ltmp24-.Lfunc_begin2          # >> Call Site 9 <<
	.uleb128 .Ltmp25-.Ltmp24                #   Call between .Ltmp24 and .Ltmp25
	.uleb128 .Ltmp31-.Lfunc_begin2          #     jumps to .Ltmp31
	.byte	0                               #   On action: cleanup
	.uleb128 .Ltmp26-.Lfunc_begin2          # >> Call Site 10 <<
	.uleb128 .Ltmp27-.Ltmp26                #   Call between .Ltmp26 and .Ltmp27
	.uleb128 .Ltmp28-.Lfunc_begin2          #     jumps to .Ltmp28
	.byte	0                               #   On action: cleanup
	.uleb128 .Ltmp29-.Lfunc_begin2          # >> Call Site 11 <<
	.uleb128 .Ltmp30-.Ltmp29                #   Call between .Ltmp29 and .Ltmp30
	.uleb128 .Ltmp31-.Lfunc_begin2          #     jumps to .Ltmp31
	.byte	0                               #   On action: cleanup
	.uleb128 .Ltmp30-.Lfunc_begin2          # >> Call Site 12 <<
	.uleb128 .Lfunc_end5-.Ltmp30            #   Call between .Ltmp30 and .Lfunc_end5
	.byte	0                               #     has no landing pad
	.byte	0                               #   On action: cleanup
.Lcst_end2:
	.p2align	2, 0x0
                                        # -- End function
	.text
	.p2align	5                               # -- Begin function _ZN12_GLOBAL__N_18TestCaseC2ERKNSt7__cxx1112basic_stringIcSt11char_traitsIcESaIcEEES8_
	.type	_ZN12_GLOBAL__N_18TestCaseC2ERKNSt7__cxx1112basic_stringIcSt11char_traitsIcESaIcEEES8_,@function
_ZN12_GLOBAL__N_18TestCaseC2ERKNSt7__cxx1112basic_stringIcSt11char_traitsIcESaIcEEES8_: # @_ZN12_GLOBAL__N_18TestCaseC2ERKNSt7__cxx1112basic_stringIcSt11char_traitsIcESaIcEEES8_
.Lfunc_begin3:
	.cfi_startproc
	.cfi_personality 155, DW.ref.__gxx_personality_v0
	.cfi_lsda 27, .Lexception3
# %bb.0:                                # %entry
	addi.d	$sp, $sp, -80
	.cfi_def_cfa_offset 80
	st.d	$ra, $sp, 72                    # 8-byte Folded Spill
	st.d	$fp, $sp, 64                    # 8-byte Folded Spill
	st.d	$s0, $sp, 56                    # 8-byte Folded Spill
	st.d	$s1, $sp, 48                    # 8-byte Folded Spill
	st.d	$s2, $sp, 40                    # 8-byte Folded Spill
	st.d	$s3, $sp, 32                    # 8-byte Folded Spill
	st.d	$s4, $sp, 24                    # 8-byte Folded Spill
	.cfi_offset 1, -8
	.cfi_offset 22, -16
	.cfi_offset 23, -24
	.cfi_offset 24, -32
	.cfi_offset 25, -40
	.cfi_offset 26, -48
	.cfi_offset 27, -56
	move	$fp, $a0
	addi.d	$s3, $a0, 16
	st.d	$s3, $a0, 0
	ld.d	$a3, $a1, 8
	ld.d	$s1, $a1, 0
	move	$s0, $a2
	ori	$a1, $zero, 16
	st.d	$a3, $sp, 16
	move	$a0, $s3
	bltu	$a3, $a1, .LBB6_2
# %bb.1:                                # %if.then.i.i
	addi.d	$a1, $sp, 16
	move	$a0, $fp
	move	$a2, $zero
	pcaddu18i	$ra, %call36(_ZNSt7__cxx1112basic_stringIcSt11char_traitsIcESaIcEE9_M_createERmm)
	jirl	$ra, $ra, 0
	ld.d	$a3, $sp, 16
	st.d	$a0, $fp, 0
	st.d	$a3, $fp, 16
.LBB6_2:                                # %if.end.i.i
	addi.w	$s4, $zero, -1
	beq	$a3, $s4, .LBB6_6
# %bb.3:                                # %if.end.i.i
	bnez	$a3, .LBB6_5
# %bb.4:                                # %if.then.i.i.i
	ld.b	$a1, $s1, 0
	st.b	$a1, $a0, 0
	b	.LBB6_6
.LBB6_5:                                # %if.end.i.i.i.i
	addi.d	$a2, $a3, 1
	move	$a1, $s1
	pcaddu18i	$ra, %call36(memcpy)
	jirl	$ra, $ra, 0
.LBB6_6:                                # %_ZNSt7__cxx1112basic_stringIcSt11char_traitsIcESaIcEEC2ERKS4_.exit
	ld.d	$a0, $sp, 16
	st.d	$a0, $fp, 8
	addi.d	$s1, $fp, 48
	st.d	$s1, $fp, 32
	ld.d	$a1, $s0, 8
	ld.d	$s0, $s0, 0
	ori	$a0, $zero, 16
	st.d	$a1, $sp, 16
	bltu	$a1, $a0, .LBB6_9
# %bb.7:                                # %if.then.i.i10
.Ltmp32:                                # EH_LABEL
	addi.d	$s2, $fp, 32
	addi.d	$a1, $sp, 16
	move	$a0, $s2
	move	$a2, $zero
	pcaddu18i	$ra, %call36(_ZNSt7__cxx1112basic_stringIcSt11char_traitsIcESaIcEE9_M_createERmm)
	jirl	$ra, $ra, 0
.Ltmp33:                                # EH_LABEL
# %bb.8:                                # %call.i4.i11.noexc
	ld.d	$a1, $sp, 16
	st.d	$a0, $s2, 0
	st.d	$a1, $s1, 0
	move	$s1, $a0
.LBB6_9:                                # %if.end.i.i5
	beq	$a1, $s4, .LBB6_13
# %bb.10:                               # %if.end.i.i5
	bnez	$a1, .LBB6_12
# %bb.11:                               # %if.then.i.i.i7
	ld.b	$a0, $s0, 0
	st.b	$a0, $s1, 0
	b	.LBB6_13
.LBB6_12:                               # %if.end.i.i.i.i8
	addi.d	$a2, $a1, 1
	move	$a0, $s1
	move	$a1, $s0
	pcaddu18i	$ra, %call36(memcpy)
	jirl	$ra, $ra, 0
.LBB6_13:                               # %invoke.cont
	ld.d	$a0, $sp, 16
	st.d	$a0, $fp, 40
	ld.d	$s4, $sp, 24                    # 8-byte Folded Reload
	ld.d	$s3, $sp, 32                    # 8-byte Folded Reload
	ld.d	$s2, $sp, 40                    # 8-byte Folded Reload
	ld.d	$s1, $sp, 48                    # 8-byte Folded Reload
	ld.d	$s0, $sp, 56                    # 8-byte Folded Reload
	ld.d	$fp, $sp, 64                    # 8-byte Folded Reload
	ld.d	$ra, $sp, 72                    # 8-byte Folded Reload
	addi.d	$sp, $sp, 80
	ret
.LBB6_14:                               # %lpad
.Ltmp34:                                # EH_LABEL
	ld.d	$a2, $fp, 0
	move	$fp, $a0
	beq	$a2, $s3, .LBB6_16
# %bb.15:                               # %if.then.i.i15
	ld.d	$a0, $s3, 0
	addi.d	$a1, $a0, 1
	move	$a0, $a2
	pcaddu18i	$ra, %call36(_ZdlPvm)
	jirl	$ra, $ra, 0
.LBB6_16:                               # %_ZNSt7__cxx1112basic_stringIcSt11char_traitsIcESaIcEED2Ev.exit
	move	$a0, $fp
	pcaddu18i	$ra, %call36(_Unwind_Resume)
	jirl	$ra, $ra, 0
.Lfunc_end6:
	.size	_ZN12_GLOBAL__N_18TestCaseC2ERKNSt7__cxx1112basic_stringIcSt11char_traitsIcESaIcEEES8_, .Lfunc_end6-_ZN12_GLOBAL__N_18TestCaseC2ERKNSt7__cxx1112basic_stringIcSt11char_traitsIcESaIcEEES8_
	.cfi_endproc
	.section	.gcc_except_table,"a",@progbits
	.p2align	2, 0x0
GCC_except_table6:
.Lexception3:
	.byte	255                             # @LPStart Encoding = omit
	.byte	255                             # @TType Encoding = omit
	.byte	1                               # Call site Encoding = uleb128
	.uleb128 .Lcst_end3-.Lcst_begin3
.Lcst_begin3:
	.uleb128 .Lfunc_begin3-.Lfunc_begin3    # >> Call Site 1 <<
	.uleb128 .Ltmp32-.Lfunc_begin3          #   Call between .Lfunc_begin3 and .Ltmp32
	.byte	0                               #     has no landing pad
	.byte	0                               #   On action: cleanup
	.uleb128 .Ltmp32-.Lfunc_begin3          # >> Call Site 2 <<
	.uleb128 .Ltmp33-.Ltmp32                #   Call between .Ltmp32 and .Ltmp33
	.uleb128 .Ltmp34-.Lfunc_begin3          #     jumps to .Ltmp34
	.byte	0                               #   On action: cleanup
	.uleb128 .Ltmp33-.Lfunc_begin3          # >> Call Site 3 <<
	.uleb128 .Lfunc_end6-.Ltmp33            #   Call between .Ltmp33 and .Lfunc_end6
	.byte	0                               #     has no landing pad
	.byte	0                               #   On action: cleanup
.Lcst_end3:
	.p2align	2, 0x0
                                        # -- End function
	.text
	.hidden	_Z20DISABLED_BM_functionRN9benchmark5StateE # -- Begin function _Z20DISABLED_BM_functionRN9benchmark5StateE
	.globl	_Z20DISABLED_BM_functionRN9benchmark5StateE
	.p2align	5
	.type	_Z20DISABLED_BM_functionRN9benchmark5StateE,@function
_Z20DISABLED_BM_functionRN9benchmark5StateE: # @_Z20DISABLED_BM_functionRN9benchmark5StateE
	.cfi_startproc
# %bb.0:                                # %entry
	addi.d	$sp, $sp, -32
	.cfi_def_cfa_offset 32
	st.d	$ra, $sp, 24                    # 8-byte Folded Spill
	st.d	$fp, $sp, 16                    # 8-byte Folded Spill
	st.d	$s0, $sp, 8                     # 8-byte Folded Spill
	st.d	$s1, $sp, 0                     # 8-byte Folded Spill
	.cfi_offset 1, -8
	.cfi_offset 22, -16
	.cfi_offset 23, -24
	.cfi_offset 24, -32
	move	$fp, $a0
	ld.w	$s1, $a0, 28
	ld.d	$s0, $a0, 16
	pcaddu18i	$ra, %call36(_ZN9benchmark5State16StartKeepRunningEv)
	jirl	$ra, $ra, 0
	bnez	$s1, .LBB7_3
# %bb.1:                                # %entry
	beqz	$s0, .LBB7_3
# %bb.2:                                # %for.body.preheader
	srai.d	$a0, $s0, 63
	andn	$a0, $s0, $a0
	addi.d	$a1, $s0, -1
	bgeu	$a1, $a0, .LBB7_4
.LBB7_3:                                # %for.cond.cleanup
	move	$a0, $fp
	ld.d	$s1, $sp, 0                     # 8-byte Folded Reload
	ld.d	$s0, $sp, 8                     # 8-byte Folded Reload
	ld.d	$fp, $sp, 16                    # 8-byte Folded Reload
	ld.d	$ra, $sp, 24                    # 8-byte Folded Reload
	addi.d	$sp, $sp, 32
	pcaddu18i	$t8, %call36(_ZN9benchmark5State17FinishKeepRunningEv)
	jr	$t8
.LBB7_4:                                # %cond.false.i
	pcalau12i	$a0, %pc_hi20(.L.str.29)
	addi.d	$a0, $a0, %pc_lo12(.L.str.29)
	pcalau12i	$a1, %pc_hi20(.L.str.30)
	addi.d	$a1, $a1, %pc_lo12(.L.str.30)
	pcalau12i	$a2, %pc_hi20(.L__PRETTY_FUNCTION__._ZN9benchmark5State13StateIteratorppEv)
	addi.d	$a3, $a2, %pc_lo12(.L__PRETTY_FUNCTION__._ZN9benchmark5State13StateIteratorppEv)
	ori	$a2, $zero, 1134
	pcaddu18i	$ra, %call36(__assert_fail)
	jirl	$ra, $ra, 0
.Lfunc_end7:
	.size	_Z20DISABLED_BM_functionRN9benchmark5StateE, .Lfunc_end7-_Z20DISABLED_BM_functionRN9benchmark5StateE
	.cfi_endproc
                                        # -- End function
	.hidden	_Z25TestRegistrationAtRuntimev  # -- Begin function _Z25TestRegistrationAtRuntimev
	.globl	_Z25TestRegistrationAtRuntimev
	.p2align	5
	.type	_Z25TestRegistrationAtRuntimev,@function
_Z25TestRegistrationAtRuntimev:         # @_Z25TestRegistrationAtRuntimev
.Lfunc_begin4:
	.cfi_startproc
	.cfi_personality 155, DW.ref.__gxx_personality_v0
	.cfi_lsda 27, .Lexception4
# %bb.0:                                # %entry
	addi.d	$sp, $sp, -192
	.cfi_def_cfa_offset 192
	st.d	$ra, $sp, 184                   # 8-byte Folded Spill
	st.d	$fp, $sp, 176                   # 8-byte Folded Spill
	st.d	$s0, $sp, 168                   # 8-byte Folded Spill
	st.d	$s1, $sp, 160                   # 8-byte Folded Spill
	st.d	$s2, $sp, 152                   # 8-byte Folded Spill
	st.d	$s3, $sp, 144                   # 8-byte Folded Spill
	st.d	$s4, $sp, 136                   # 8-byte Folded Spill
	.cfi_offset 1, -8
	.cfi_offset 22, -16
	.cfi_offset 23, -24
	.cfi_offset 24, -32
	.cfi_offset 25, -40
	.cfi_offset 26, -48
	.cfi_offset 27, -56
	addi.d	$s1, $sp, 56
	st.d	$s1, $sp, 40
	pcalau12i	$a0, %pc_hi20(.L.str.18)
	addi.d	$a0, $a0, %pc_lo12(.L.str.18)
	ld.d	$fp, $a0, 0
	ld.d	$s3, $a0, 6
	st.d	$fp, $sp, 56
	st.d	$s3, $sp, 62
	ori	$a0, $zero, 14
	st.d	$a0, $sp, 48
	st.b	$zero, $sp, 70
.Ltmp35:                                # EH_LABEL
	ori	$a0, $zero, 232
	pcaddu18i	$ra, %call36(_Znwm)
	jirl	$ra, $ra, 0
.Ltmp36:                                # EH_LABEL
# %bb.1:                                # %call.i.noexc
.Ltmp37:                                # EH_LABEL
	move	$s0, $a0
	addi.d	$a1, $sp, 40
	pcaddu18i	$ra, %call36(_ZN9benchmark8internal9BenchmarkC2ERKNSt7__cxx1112basic_stringIcSt11char_traitsIcESaIcEEE)
	jirl	$ra, $ra, 0
.Ltmp38:                                # EH_LABEL
# %bb.2:                                # %invoke.cont.i
	pcalau12i	$a0, %pc_hi20(_ZTVN9benchmark8internal15LambdaBenchmarkI13CustomFixtureEE+16)
	addi.d	$a0, $a0, %pc_lo12(_ZTVN9benchmark8internal15LambdaBenchmarkI13CustomFixtureEE+16)
	st.d	$a0, $s0, 0
.Ltmp40:                                # EH_LABEL
	move	$a0, $s0
	pcaddu18i	$ra, %call36(_ZN9benchmark8internal25RegisterBenchmarkInternalEPNS0_9BenchmarkE)
	jirl	$ra, $ra, 0
.Ltmp41:                                # EH_LABEL
# %bb.3:                                # %invoke.cont3
	ld.d	$a0, $sp, 40
	beq	$a0, $s1, .LBB8_5
# %bb.4:                                # %if.then.i.i21
	ld.d	$a1, $sp, 56
	addi.d	$a1, $a1, 1
	pcaddu18i	$ra, %call36(_ZdlPvm)
	jirl	$ra, $ra, 0
.LBB8_5:                                # %_ZNSt7__cxx1112basic_stringIcSt11char_traitsIcESaIcEED2Ev.exit
	addi.d	$s2, $sp, 24
	st.d	$s2, $sp, 8
	st.d	$fp, $sp, 24
	st.d	$s3, $sp, 30
	ori	$a0, $zero, 14
	st.d	$a0, $sp, 16
	st.b	$zero, $sp, 38
	addi.d	$s3, $sp, 120
	st.d	$s3, $sp, 104
	st.d	$zero, $sp, 112
	st.b	$zero, $sp, 120
.Ltmp43:                                # EH_LABEL
	addi.d	$a0, $sp, 40
	addi.d	$a1, $sp, 8
	addi.d	$a2, $sp, 104
	pcaddu18i	$ra, %call36(_ZN12_GLOBAL__N_18TestCaseC2ERKNSt7__cxx1112basic_stringIcSt11char_traitsIcESaIcEEES8_)
	jirl	$ra, $ra, 0
.Ltmp44:                                # EH_LABEL
# %bb.6:                                # %invoke.cont4.i
	ld.d	$a0, $sp, 104
	beq	$a0, $s3, .LBB8_8
# %bb.7:                                # %if.then.i.i3.i
	ld.d	$a1, $sp, 120
	addi.d	$a1, $a1, 1
	pcaddu18i	$ra, %call36(_ZdlPvm)
	jirl	$ra, $ra, 0
.LBB8_8:                                # %invoke.cont13
.Ltmp46:                                # EH_LABEL
	addi.d	$a0, $sp, 40
	ori	$a1, $zero, 1
	pcaddu18i	$ra, %call36(_ZN12_GLOBAL__N_18AddCasesERKSt16initializer_listINS_8TestCaseEE)
	jirl	$ra, $ra, 0
.Ltmp47:                                # EH_LABEL
# %bb.9:                                # %invoke.cont15
	ld.d	$a0, $sp, 72
	addi.d	$fp, $sp, 88
	beq	$a0, $fp, .LBB8_11
# %bb.10:                               # %if.then.i.i.i
	ld.d	$a1, $sp, 88
	addi.d	$a1, $a1, 1
	pcaddu18i	$ra, %call36(_ZdlPvm)
	jirl	$ra, $ra, 0
.LBB8_11:                               # %_ZNSt7__cxx1112basic_stringIcSt11char_traitsIcESaIcEED2Ev.exit.i
	ld.d	$a0, $sp, 40
	beq	$a0, $s1, .LBB8_13
# %bb.12:                               # %if.then.i.i2.i
	ld.d	$a1, $sp, 56
	addi.d	$a1, $a1, 1
	pcaddu18i	$ra, %call36(_ZdlPvm)
	jirl	$ra, $ra, 0
.LBB8_13:                               # %_ZN12_GLOBAL__N_18TestCaseD2Ev.exit
	ld.d	$a0, $sp, 8
	beq	$a0, $s2, .LBB8_15
# %bb.14:                               # %if.then.i.i42
	ld.d	$a1, $sp, 24
	addi.d	$a1, $a1, 1
	pcaddu18i	$ra, %call36(_ZdlPvm)
	jirl	$ra, $ra, 0
.LBB8_15:                               # %_ZNSt7__cxx1112basic_stringIcSt11char_traitsIcESaIcEED2Ev.exit48
	st.d	$s1, $sp, 40
	ori	$a0, $zero, 16
	st.d	$a0, $sp, 104
.Ltmp49:                                # EH_LABEL
	addi.d	$a0, $sp, 40
	addi.d	$a1, $sp, 104
	move	$a2, $zero
	pcaddu18i	$ra, %call36(_ZNSt7__cxx1112basic_stringIcSt11char_traitsIcESaIcEE9_M_createERmm)
	jirl	$ra, $ra, 0
.Ltmp50:                                # EH_LABEL
# %bb.16:                               # %call2.i5.i.noexc59
	ld.d	$a1, $sp, 104
	pcalau12i	$s4, %pc_hi20(.L.str.20)
	vld	$vr0, $s4, %pc_lo12(.L.str.20)
	st.d	$a0, $sp, 40
	st.d	$a1, $sp, 56
	vst	$vr0, $a0, 0
	ld.d	$a0, $sp, 40
	st.d	$a1, $sp, 48
	stx.b	$zero, $a0, $a1
.Ltmp52:                                # EH_LABEL
	ori	$a0, $zero, 232
	pcaddu18i	$ra, %call36(_Znwm)
	jirl	$ra, $ra, 0
.Ltmp53:                                # EH_LABEL
# %bb.17:                               # %call.i.noexc64
.Ltmp54:                                # EH_LABEL
	move	$s0, $a0
	addi.d	$a1, $sp, 40
	pcaddu18i	$ra, %call36(_ZN9benchmark8internal9BenchmarkC2ERKNSt7__cxx1112basic_stringIcSt11char_traitsIcESaIcEEE)
	jirl	$ra, $ra, 0
.Ltmp55:                                # EH_LABEL
# %bb.18:                               # %invoke.cont.i63
	pcalau12i	$a0, %pc_hi20(_ZTVN9benchmark8internal15LambdaBenchmarkIZ25TestRegistrationAtRuntimevE3$_0EE+16)
	addi.d	$a0, $a0, %pc_lo12(_ZTVN9benchmark8internal15LambdaBenchmarkIZ25TestRegistrationAtRuntimevE3$_0EE+16)
	st.d	$a0, $s0, 0
	pcalau12i	$a0, %pc_hi20(.L.str.19)
	addi.d	$a0, $a0, %pc_lo12(.L.str.19)
	st.d	$a0, $s0, 224
.Ltmp57:                                # EH_LABEL
	move	$a0, $s0
	pcaddu18i	$ra, %call36(_ZN9benchmark8internal25RegisterBenchmarkInternalEPNS0_9BenchmarkE)
	jirl	$ra, $ra, 0
.Ltmp58:                                # EH_LABEL
# %bb.19:                               # %invoke.cont43
	ld.d	$a0, $sp, 40
	beq	$a0, $s1, .LBB8_21
# %bb.20:                               # %if.then.i.i69
	ld.d	$a1, $sp, 56
	addi.d	$a1, $a1, 1
	pcaddu18i	$ra, %call36(_ZdlPvm)
	jirl	$ra, $ra, 0
.LBB8_21:                               # %_ZNSt7__cxx1112basic_stringIcSt11char_traitsIcESaIcEED2Ev.exit75
	st.d	$s3, $sp, 104
	ori	$a0, $zero, 16
	st.d	$a0, $sp, 8
.Ltmp60:                                # EH_LABEL
	addi.d	$a0, $sp, 104
	addi.d	$a1, $sp, 8
	move	$a2, $zero
	pcaddu18i	$ra, %call36(_ZNSt7__cxx1112basic_stringIcSt11char_traitsIcESaIcEE9_M_createERmm)
	jirl	$ra, $ra, 0
.Ltmp61:                                # EH_LABEL
# %bb.22:                               # %call2.i5.i.noexc86
	ld.d	$a1, $sp, 8
	vld	$vr0, $s4, %pc_lo12(.L.str.20)
	st.d	$a0, $sp, 104
	st.d	$a1, $sp, 120
	vst	$vr0, $a0, 0
	ld.d	$a0, $sp, 104
	st.d	$a1, $sp, 112
	stx.b	$zero, $a0, $a1
	st.d	$s2, $sp, 8
	lu12i.w	$a0, 3
	ori	$a0, $a0, 564
	st.h	$a0, $sp, 24
	ori	$a0, $zero, 2
	st.d	$a0, $sp, 16
	st.b	$zero, $sp, 26
.Ltmp63:                                # EH_LABEL
	addi.d	$a0, $sp, 40
	addi.d	$a1, $sp, 104
	addi.d	$a2, $sp, 8
	pcaddu18i	$ra, %call36(_ZN12_GLOBAL__N_18TestCaseC2ERKNSt7__cxx1112basic_stringIcSt11char_traitsIcESaIcEEES8_)
	jirl	$ra, $ra, 0
.Ltmp64:                                # EH_LABEL
# %bb.23:                               # %invoke.cont61
.Ltmp66:                                # EH_LABEL
	addi.d	$a0, $sp, 40
	ori	$a1, $zero, 1
	pcaddu18i	$ra, %call36(_ZN12_GLOBAL__N_18AddCasesERKSt16initializer_listINS_8TestCaseEE)
	jirl	$ra, $ra, 0
.Ltmp67:                                # EH_LABEL
# %bb.24:                               # %invoke.cont66
	ld.d	$a0, $sp, 72
	beq	$a0, $fp, .LBB8_26
# %bb.25:                               # %if.then.i.i.i104
	ld.d	$a1, $sp, 88
	addi.d	$a1, $a1, 1
	pcaddu18i	$ra, %call36(_ZdlPvm)
	jirl	$ra, $ra, 0
.LBB8_26:                               # %_ZNSt7__cxx1112basic_stringIcSt11char_traitsIcESaIcEED2Ev.exit.i106
	ld.d	$a0, $sp, 40
	beq	$a0, $s1, .LBB8_28
# %bb.27:                               # %if.then.i.i2.i108
	ld.d	$a1, $sp, 56
	addi.d	$a1, $a1, 1
	pcaddu18i	$ra, %call36(_ZdlPvm)
	jirl	$ra, $ra, 0
.LBB8_28:                               # %_ZN12_GLOBAL__N_18TestCaseD2Ev.exit116
	ld.d	$a0, $sp, 8
	beq	$a0, $s2, .LBB8_30
# %bb.29:                               # %if.then.i.i118
	ld.d	$a1, $sp, 24
	addi.d	$a1, $a1, 1
	pcaddu18i	$ra, %call36(_ZdlPvm)
	jirl	$ra, $ra, 0
.LBB8_30:                               # %_ZNSt7__cxx1112basic_stringIcSt11char_traitsIcESaIcEED2Ev.exit124
	ld.d	$a0, $sp, 104
	beq	$a0, $s3, .LBB8_32
# %bb.31:                               # %if.then.i.i126
	ld.d	$a1, $sp, 120
	addi.d	$a1, $a1, 1
	pcaddu18i	$ra, %call36(_ZdlPvm)
	jirl	$ra, $ra, 0
.LBB8_32:                               # %_ZNSt7__cxx1112basic_stringIcSt11char_traitsIcESaIcEED2Ev.exit132
	ld.d	$s4, $sp, 136                   # 8-byte Folded Reload
	ld.d	$s3, $sp, 144                   # 8-byte Folded Reload
	ld.d	$s2, $sp, 152                   # 8-byte Folded Reload
	ld.d	$s1, $sp, 160                   # 8-byte Folded Reload
	ld.d	$s0, $sp, 168                   # 8-byte Folded Reload
	ld.d	$fp, $sp, 176                   # 8-byte Folded Reload
	ld.d	$ra, $sp, 184                   # 8-byte Folded Reload
	addi.d	$sp, $sp, 192
	ret
.LBB8_33:                               # %lpad65
.Ltmp68:                                # EH_LABEL
	move	$fp, $a0
	addi.d	$a0, $sp, 40
	pcaddu18i	$ra, %call36(_ZN12_GLOBAL__N_18TestCaseD2Ev)
	jirl	$ra, $ra, 0
	b	.LBB8_35
.LBB8_34:                               # %lpad60
.Ltmp65:                                # EH_LABEL
	move	$fp, $a0
.LBB8_35:                               # %ehcleanup81
	ld.d	$a0, $sp, 8
	beq	$a0, $s2, .LBB8_37
# %bb.36:                               # %if.then.i.i158
	ld.d	$a1, $sp, 24
	addi.d	$a1, $a1, 1
	pcaddu18i	$ra, %call36(_ZdlPvm)
	jirl	$ra, $ra, 0
.LBB8_37:                               # %ehcleanup82
	ld.d	$a0, $sp, 104
	beq	$a0, $s3, .LBB8_55
# %bb.38:                               # %if.then.i.i166
	ld.d	$a1, $sp, 120
	b	.LBB8_54
.LBB8_39:                               # %lpad54
.Ltmp62:                                # EH_LABEL
	pcaddu18i	$ra, %call36(_Unwind_Resume)
	jirl	$ra, $ra, 0
.LBB8_40:                               # %lpad.i62
.Ltmp56:                                # EH_LABEL
	b	.LBB8_48
.LBB8_41:                               # %lpad40
.Ltmp51:                                # EH_LABEL
	pcaddu18i	$ra, %call36(_Unwind_Resume)
	jirl	$ra, $ra, 0
.LBB8_42:                               # %lpad14
.Ltmp48:                                # EH_LABEL
	move	$fp, $a0
	addi.d	$a0, $sp, 40
	pcaddu18i	$ra, %call36(_ZN12_GLOBAL__N_18TestCaseD2Ev)
	jirl	$ra, $ra, 0
	b	.LBB8_45
.LBB8_43:                               # %lpad3.i
.Ltmp45:                                # EH_LABEL
	ld.d	$a2, $sp, 104
	move	$fp, $a0
	beq	$a2, $s3, .LBB8_45
# %bb.44:                               # %if.then.i.i5.i
	ld.d	$a0, $sp, 120
	addi.d	$a1, $a0, 1
	move	$a0, $a2
	pcaddu18i	$ra, %call36(_ZdlPvm)
	jirl	$ra, $ra, 0
.LBB8_45:                               # %ehcleanup25
	ld.d	$a0, $sp, 8
	beq	$a0, $s2, .LBB8_55
# %bb.46:                               # %if.then.i.i142
	ld.d	$a1, $sp, 24
	b	.LBB8_54
.LBB8_47:                               # %lpad.i
.Ltmp39:                                # EH_LABEL
.LBB8_48:                               # %lpad2.body
	move	$fp, $a0
	ori	$a1, $zero, 232
	move	$a0, $s0
	pcaddu18i	$ra, %call36(_ZdlPvm)
	jirl	$ra, $ra, 0
	b	.LBB8_52
.LBB8_49:                               # %lpad42
.Ltmp59:                                # EH_LABEL
	b	.LBB8_51
.LBB8_50:                               # %lpad2
.Ltmp42:                                # EH_LABEL
.LBB8_51:                               # %lpad2.body
	move	$fp, $a0
.LBB8_52:                               # %lpad2.body
	ld.d	$a0, $sp, 40
	beq	$a0, $s1, .LBB8_55
# %bb.53:                               # %if.then.i.i134
	ld.d	$a1, $sp, 56
.LBB8_54:                               # %eh.resume
	addi.d	$a1, $a1, 1
	pcaddu18i	$ra, %call36(_ZdlPvm)
	jirl	$ra, $ra, 0
.LBB8_55:                               # %eh.resume
	move	$a0, $fp
	pcaddu18i	$ra, %call36(_Unwind_Resume)
	jirl	$ra, $ra, 0
.Lfunc_end8:
	.size	_Z25TestRegistrationAtRuntimev, .Lfunc_end8-_Z25TestRegistrationAtRuntimev
	.cfi_endproc
	.section	.gcc_except_table,"a",@progbits
	.p2align	2, 0x0
GCC_except_table8:
.Lexception4:
	.byte	255                             # @LPStart Encoding = omit
	.byte	255                             # @TType Encoding = omit
	.byte	1                               # Call site Encoding = uleb128
	.uleb128 .Lcst_end4-.Lcst_begin4
.Lcst_begin4:
	.uleb128 .Ltmp35-.Lfunc_begin4          # >> Call Site 1 <<
	.uleb128 .Ltmp36-.Ltmp35                #   Call between .Ltmp35 and .Ltmp36
	.uleb128 .Ltmp42-.Lfunc_begin4          #     jumps to .Ltmp42
	.byte	0                               #   On action: cleanup
	.uleb128 .Ltmp37-.Lfunc_begin4          # >> Call Site 2 <<
	.uleb128 .Ltmp38-.Ltmp37                #   Call between .Ltmp37 and .Ltmp38
	.uleb128 .Ltmp39-.Lfunc_begin4          #     jumps to .Ltmp39
	.byte	0                               #   On action: cleanup
	.uleb128 .Ltmp40-.Lfunc_begin4          # >> Call Site 3 <<
	.uleb128 .Ltmp41-.Ltmp40                #   Call between .Ltmp40 and .Ltmp41
	.uleb128 .Ltmp42-.Lfunc_begin4          #     jumps to .Ltmp42
	.byte	0                               #   On action: cleanup
	.uleb128 .Ltmp41-.Lfunc_begin4          # >> Call Site 4 <<
	.uleb128 .Ltmp43-.Ltmp41                #   Call between .Ltmp41 and .Ltmp43
	.byte	0                               #     has no landing pad
	.byte	0                               #   On action: cleanup
	.uleb128 .Ltmp43-.Lfunc_begin4          # >> Call Site 5 <<
	.uleb128 .Ltmp44-.Ltmp43                #   Call between .Ltmp43 and .Ltmp44
	.uleb128 .Ltmp45-.Lfunc_begin4          #     jumps to .Ltmp45
	.byte	0                               #   On action: cleanup
	.uleb128 .Ltmp44-.Lfunc_begin4          # >> Call Site 6 <<
	.uleb128 .Ltmp46-.Ltmp44                #   Call between .Ltmp44 and .Ltmp46
	.byte	0                               #     has no landing pad
	.byte	0                               #   On action: cleanup
	.uleb128 .Ltmp46-.Lfunc_begin4          # >> Call Site 7 <<
	.uleb128 .Ltmp47-.Ltmp46                #   Call between .Ltmp46 and .Ltmp47
	.uleb128 .Ltmp48-.Lfunc_begin4          #     jumps to .Ltmp48
	.byte	0                               #   On action: cleanup
	.uleb128 .Ltmp47-.Lfunc_begin4          # >> Call Site 8 <<
	.uleb128 .Ltmp49-.Ltmp47                #   Call between .Ltmp47 and .Ltmp49
	.byte	0                               #     has no landing pad
	.byte	0                               #   On action: cleanup
	.uleb128 .Ltmp49-.Lfunc_begin4          # >> Call Site 9 <<
	.uleb128 .Ltmp50-.Ltmp49                #   Call between .Ltmp49 and .Ltmp50
	.uleb128 .Ltmp51-.Lfunc_begin4          #     jumps to .Ltmp51
	.byte	0                               #   On action: cleanup
	.uleb128 .Ltmp52-.Lfunc_begin4          # >> Call Site 10 <<
	.uleb128 .Ltmp53-.Ltmp52                #   Call between .Ltmp52 and .Ltmp53
	.uleb128 .Ltmp59-.Lfunc_begin4          #     jumps to .Ltmp59
	.byte	0                               #   On action: cleanup
	.uleb128 .Ltmp54-.Lfunc_begin4          # >> Call Site 11 <<
	.uleb128 .Ltmp55-.Ltmp54                #   Call between .Ltmp54 and .Ltmp55
	.uleb128 .Ltmp56-.Lfunc_begin4          #     jumps to .Ltmp56
	.byte	0                               #   On action: cleanup
	.uleb128 .Ltmp57-.Lfunc_begin4          # >> Call Site 12 <<
	.uleb128 .Ltmp58-.Ltmp57                #   Call between .Ltmp57 and .Ltmp58
	.uleb128 .Ltmp59-.Lfunc_begin4          #     jumps to .Ltmp59
	.byte	0                               #   On action: cleanup
	.uleb128 .Ltmp58-.Lfunc_begin4          # >> Call Site 13 <<
	.uleb128 .Ltmp60-.Ltmp58                #   Call between .Ltmp58 and .Ltmp60
	.byte	0                               #     has no landing pad
	.byte	0                               #   On action: cleanup
	.uleb128 .Ltmp60-.Lfunc_begin4          # >> Call Site 14 <<
	.uleb128 .Ltmp61-.Ltmp60                #   Call between .Ltmp60 and .Ltmp61
	.uleb128 .Ltmp62-.Lfunc_begin4          #     jumps to .Ltmp62
	.byte	0                               #   On action: cleanup
	.uleb128 .Ltmp63-.Lfunc_begin4          # >> Call Site 15 <<
	.uleb128 .Ltmp64-.Ltmp63                #   Call between .Ltmp63 and .Ltmp64
	.uleb128 .Ltmp65-.Lfunc_begin4          #     jumps to .Ltmp65
	.byte	0                               #   On action: cleanup
	.uleb128 .Ltmp66-.Lfunc_begin4          # >> Call Site 16 <<
	.uleb128 .Ltmp67-.Ltmp66                #   Call between .Ltmp66 and .Ltmp67
	.uleb128 .Ltmp68-.Lfunc_begin4          #     jumps to .Ltmp68
	.byte	0                               #   On action: cleanup
	.uleb128 .Ltmp67-.Lfunc_begin4          # >> Call Site 17 <<
	.uleb128 .Lfunc_end8-.Ltmp67            #   Call between .Ltmp67 and .Lfunc_end8
	.byte	0                               #     has no landing pad
	.byte	0                               #   On action: cleanup
.Lcst_end4:
	.p2align	2, 0x0
                                        # -- End function
	.text
	.hidden	_Z10RunTestOnev                 # -- Begin function _Z10RunTestOnev
	.globl	_Z10RunTestOnev
	.p2align	5
	.type	_Z10RunTestOnev,@function
_Z10RunTestOnev:                        # @_Z10RunTestOnev
.Lfunc_begin5:
	.cfi_startproc
	.cfi_personality 155, DW.ref.__gxx_personality_v0
	.cfi_lsda 27, .Lexception5
# %bb.0:                                # %entry
	addi.d	$sp, $sp, -176
	.cfi_def_cfa_offset 176
	st.d	$ra, $sp, 168                   # 8-byte Folded Spill
	st.d	$fp, $sp, 160                   # 8-byte Folded Spill
	st.d	$s0, $sp, 152                   # 8-byte Folded Spill
	st.d	$s1, $sp, 144                   # 8-byte Folded Spill
	st.d	$s2, $sp, 136                   # 8-byte Folded Spill
	st.d	$s3, $sp, 128                   # 8-byte Folded Spill
	.cfi_offset 1, -8
	.cfi_offset 22, -16
	.cfi_offset 23, -24
	.cfi_offset 24, -32
	.cfi_offset 25, -40
	.cfi_offset 26, -48
	pcaddu18i	$ra, %call36(_Z25TestRegistrationAtRuntimev)
	jirl	$ra, $ra, 0
	addi.d	$a0, $sp, 8
	pcaddu18i	$ra, %call36(_ZN9benchmark17BenchmarkReporterC2Ev)
	jirl	$ra, $ra, 0
	ori	$a0, $zero, 3
	st.w	$a0, $sp, 32
	st.d	$zero, $sp, 40
	addi.d	$a0, $sp, 56
	st.w	$zero, $sp, 56
	st.d	$zero, $sp, 64
	st.d	$a0, $sp, 72
	st.d	$a0, $sp, 80
	st.d	$zero, $sp, 88
	st.b	$zero, $sp, 96
	pcalau12i	$a0, %pc_hi20(_ZTVN12_GLOBAL__N_112TestReporterE+16)
	addi.d	$s1, $a0, %pc_lo12(_ZTVN12_GLOBAL__N_112TestReporterE+16)
	st.d	$s1, $sp, 8
	st.d	$zero, $sp, 104
	vrepli.b	$vr0, 0
	vst	$vr0, $sp, 112
.Ltmp69:                                # EH_LABEL
	addi.d	$a0, $sp, 8
	pcaddu18i	$ra, %call36(_ZN9benchmark22RunSpecifiedBenchmarksEPNS_17BenchmarkReporterE)
	jirl	$ra, $ra, 0
.Ltmp70:                                # EH_LABEL
# %bb.1:                                # %invoke.cont
	pcalau12i	$a0, %pc_hi20(_ZN12_GLOBAL__N_115ExpectedResultsE)
	addi.d	$s2, $a0, %pc_lo12(_ZN12_GLOBAL__N_115ExpectedResultsE)
	ld.d	$s0, $sp, 104
	ld.d	$s3, $sp, 112
	ld.d	$fp, $s2, 0
	beq	$s0, $s3, .LBB9_5
	.p2align	4, , 16
.LBB9_2:                                # %for.body
                                        # =>This Inner Loop Header: Depth=1
	ld.d	$a0, $s2, 8
	beq	$fp, $a0, .LBB9_8
# %bb.3:                                # %cond.end
                                        #   in Loop: Header=BB9_2 Depth=1
.Ltmp72:                                # EH_LABEL
	move	$a0, $fp
	move	$a1, $s0
	pcaddu18i	$ra, %call36(_ZNK12_GLOBAL__N_18TestCase8CheckRunERKN9benchmark17BenchmarkReporter3RunE)
	jirl	$ra, $ra, 0
.Ltmp73:                                # EH_LABEL
# %bb.4:                                # %invoke.cont16
                                        #   in Loop: Header=BB9_2 Depth=1
	addi.d	$s0, $s0, 560
	addi.d	$fp, $fp, 64
	bne	$s0, $s3, .LBB9_2
.LBB9_5:                                # %for.cond.cleanup
	ld.d	$a0, $s2, 8
	bne	$fp, $a0, .LBB9_9
# %bb.6:                                # %cond.end26
	addi.d	$a0, $sp, 104
	st.d	$s1, $sp, 8
	pcaddu18i	$ra, %call36(_ZNSt6vectorIN9benchmark17BenchmarkReporter3RunESaIS2_EED2Ev)
	jirl	$ra, $ra, 0
	pcalau12i	$a0, %got_pc_hi20(_ZTVN9benchmark15ConsoleReporterE)
	ld.d	$a0, $a0, %got_pc_lo12(_ZTVN9benchmark15ConsoleReporterE)
	ld.d	$a1, $sp, 64
	addi.d	$a0, $a0, 16
	st.d	$a0, $sp, 8
	addi.d	$a0, $sp, 48
.Ltmp75:                                # EH_LABEL
	pcaddu18i	$ra, %call36(_ZNSt8_Rb_treeINSt7__cxx1112basic_stringIcSt11char_traitsIcESaIcEEESt4pairIKS5_N9benchmark7CounterEESt10_Select1stISA_ESt4lessIS5_ESaISA_EE8_M_eraseEPSt13_Rb_tree_nodeISA_E)
	jirl	$ra, $ra, 0
.Ltmp76:                                # EH_LABEL
# %bb.7:                                # %_ZN12_GLOBAL__N_112TestReporterD2Ev.exit
	addi.d	$a0, $sp, 8
	pcaddu18i	$ra, %call36(_ZN9benchmark17BenchmarkReporterD2Ev)
	jirl	$ra, $ra, 0
	ld.d	$s3, $sp, 128                   # 8-byte Folded Reload
	ld.d	$s2, $sp, 136                   # 8-byte Folded Reload
	ld.d	$s1, $sp, 144                   # 8-byte Folded Reload
	ld.d	$s0, $sp, 152                   # 8-byte Folded Reload
	ld.d	$fp, $sp, 160                   # 8-byte Folded Reload
	ld.d	$ra, $sp, 168                   # 8-byte Folded Reload
	addi.d	$sp, $sp, 176
	ret
.LBB9_8:                                # %cond.false
	pcalau12i	$a0, %pc_hi20(.L.str.21)
	addi.d	$a0, $a0, %pc_lo12(.L.str.21)
	pcalau12i	$a1, %pc_hi20(.L.str.22)
	addi.d	$a1, $a1, %pc_lo12(.L.str.22)
	pcalau12i	$a2, %pc_hi20(.L__PRETTY_FUNCTION__._Z10RunTestOnev)
	addi.d	$a3, $a2, %pc_lo12(.L__PRETTY_FUNCTION__._Z10RunTestOnev)
	ori	$a2, $zero, 155
	pcaddu18i	$ra, %call36(__assert_fail)
	jirl	$ra, $ra, 0
.LBB9_9:                                # %cond.false25
	pcalau12i	$a0, %pc_hi20(.L.str.23)
	addi.d	$a0, $a0, %pc_lo12(.L.str.23)
	pcalau12i	$a1, %pc_hi20(.L.str.22)
	addi.d	$a1, $a1, %pc_lo12(.L.str.22)
	pcalau12i	$a2, %pc_hi20(.L__PRETTY_FUNCTION__._Z10RunTestOnev)
	addi.d	$a3, $a2, %pc_lo12(.L__PRETTY_FUNCTION__._Z10RunTestOnev)
	ori	$a2, $zero, 159
	pcaddu18i	$ra, %call36(__assert_fail)
	jirl	$ra, $ra, 0
.LBB9_10:                               # %terminate.lpad.i.i.i.i
.Ltmp77:                                # EH_LABEL
	pcaddu18i	$ra, %call36(__clang_call_terminate)
	jirl	$ra, $ra, 0
.LBB9_11:                               # %lpad
.Ltmp71:                                # EH_LABEL
	b	.LBB9_13
.LBB9_12:                               # %lpad15
.Ltmp74:                                # EH_LABEL
.LBB9_13:                               # %ehcleanup
	move	$fp, $a0
	addi.d	$a0, $sp, 8
	pcaddu18i	$ra, %call36(_ZN12_GLOBAL__N_112TestReporterD2Ev)
	jirl	$ra, $ra, 0
	move	$a0, $fp
	pcaddu18i	$ra, %call36(_Unwind_Resume)
	jirl	$ra, $ra, 0
.Lfunc_end9:
	.size	_Z10RunTestOnev, .Lfunc_end9-_Z10RunTestOnev
	.cfi_endproc
	.section	.gcc_except_table,"a",@progbits
	.p2align	2, 0x0
GCC_except_table9:
.Lexception5:
	.byte	255                             # @LPStart Encoding = omit
	.byte	155                             # @TType Encoding = indirect pcrel sdata4
	.uleb128 .Lttbase0-.Lttbaseref0
.Lttbaseref0:
	.byte	1                               # Call site Encoding = uleb128
	.uleb128 .Lcst_end5-.Lcst_begin5
.Lcst_begin5:
	.uleb128 .Lfunc_begin5-.Lfunc_begin5    # >> Call Site 1 <<
	.uleb128 .Ltmp69-.Lfunc_begin5          #   Call between .Lfunc_begin5 and .Ltmp69
	.byte	0                               #     has no landing pad
	.byte	0                               #   On action: cleanup
	.uleb128 .Ltmp69-.Lfunc_begin5          # >> Call Site 2 <<
	.uleb128 .Ltmp70-.Ltmp69                #   Call between .Ltmp69 and .Ltmp70
	.uleb128 .Ltmp71-.Lfunc_begin5          #     jumps to .Ltmp71
	.byte	0                               #   On action: cleanup
	.uleb128 .Ltmp72-.Lfunc_begin5          # >> Call Site 3 <<
	.uleb128 .Ltmp73-.Ltmp72                #   Call between .Ltmp72 and .Ltmp73
	.uleb128 .Ltmp74-.Lfunc_begin5          #     jumps to .Ltmp74
	.byte	0                               #   On action: cleanup
	.uleb128 .Ltmp73-.Lfunc_begin5          # >> Call Site 4 <<
	.uleb128 .Ltmp75-.Ltmp73                #   Call between .Ltmp73 and .Ltmp75
	.byte	0                               #     has no landing pad
	.byte	0                               #   On action: cleanup
	.uleb128 .Ltmp75-.Lfunc_begin5          # >> Call Site 5 <<
	.uleb128 .Ltmp76-.Ltmp75                #   Call between .Ltmp75 and .Ltmp76
	.uleb128 .Ltmp77-.Lfunc_begin5          #     jumps to .Ltmp77
	.byte	1                               #   On action: 1
	.uleb128 .Ltmp76-.Lfunc_begin5          # >> Call Site 6 <<
	.uleb128 .Lfunc_end9-.Ltmp76            #   Call between .Ltmp76 and .Lfunc_end9
	.byte	0                               #     has no landing pad
	.byte	0                               #   On action: cleanup
.Lcst_end5:
	.byte	1                               # >> Action Record 1 <<
                                        #   Catch TypeInfo 1
	.byte	0                               #   No further actions
	.p2align	2, 0x0
                                        # >> Catch TypeInfos <<
	.word	0                               # TypeInfo 1
.Lttbase0:
	.p2align	2, 0x0
                                        # -- End function
	.text
	.p2align	5                               # -- Begin function _ZNK12_GLOBAL__N_18TestCase8CheckRunERKN9benchmark17BenchmarkReporter3RunE
	.type	_ZNK12_GLOBAL__N_18TestCase8CheckRunERKN9benchmark17BenchmarkReporter3RunE,@function
_ZNK12_GLOBAL__N_18TestCase8CheckRunERKN9benchmark17BenchmarkReporter3RunE: # @_ZNK12_GLOBAL__N_18TestCase8CheckRunERKN9benchmark17BenchmarkReporter3RunE
.Lfunc_begin6:
	.cfi_startproc
	.cfi_personality 155, DW.ref.__gxx_personality_v0
	.cfi_lsda 27, .Lexception6
# %bb.0:                                # %entry
	addi.d	$sp, $sp, -128
	.cfi_def_cfa_offset 128
	st.d	$ra, $sp, 120                   # 8-byte Folded Spill
	st.d	$fp, $sp, 112                   # 8-byte Folded Spill
	st.d	$s0, $sp, 104                   # 8-byte Folded Spill
	st.d	$s1, $sp, 96                    # 8-byte Folded Spill
	st.d	$s2, $sp, 88                    # 8-byte Folded Spill
	.cfi_offset 1, -8
	.cfi_offset 22, -16
	.cfi_offset 23, -24
	.cfi_offset 24, -32
	.cfi_offset 25, -40
	move	$fp, $a1
	move	$s0, $a0
	addi.d	$a0, $sp, 56
	pcaddu18i	$ra, %call36(_ZNK9benchmark17BenchmarkReporter3Run14benchmark_nameB5cxx11Ev)
	jirl	$ra, $ra, 0
	ld.d	$a2, $s0, 8
	ld.d	$a0, $sp, 64
	bne	$a2, $a0, .LBB10_3
# %bb.1:                                # %land.rhs.i
	beqz	$a2, .LBB10_5
# %bb.2:                                # %_ZSteqIcSt11char_traitsIcESaIcEEbRKNSt7__cxx1112basic_stringIT_T0_T1_EESA_.exit
	ld.d	$a1, $sp, 56
	ld.d	$a0, $s0, 0
	pcaddu18i	$ra, %call36(bcmp)
	jirl	$ra, $ra, 0
	beqz	$a0, .LBB10_5
.LBB10_3:                               # %cond.false
.Ltmp78:                                # EH_LABEL
	pcalau12i	$a0, %pc_hi20(.L.str.34)
	addi.d	$a1, $a0, %pc_lo12(.L.str.34)
	pcalau12i	$a0, %pc_hi20(.L.str.22)
	addi.d	$a2, $a0, %pc_lo12(.L.str.22)
	pcalau12i	$a0, %pc_hi20(.L__func__._ZNK12_GLOBAL__N_18TestCase8CheckRunERKN9benchmark17BenchmarkReporter3RunE)
	addi.d	$a3, $a0, %pc_lo12(.L__func__._ZNK12_GLOBAL__N_18TestCase8CheckRunERKN9benchmark17BenchmarkReporter3RunE)
	addi.d	$a0, $sp, 48
	ori	$a4, $zero, 33
	pcaddu18i	$ra, %call36(_ZN9benchmark8internal12CheckHandlerC2EPKcS3_S3_i)
	jirl	$ra, $ra, 0
.Ltmp79:                                # EH_LABEL
# %bb.4:                                # %invoke.cont5
	ld.d	$s2, $sp, 48
	move	$s1, $zero
	b	.LBB10_6
.LBB10_5:                               # %cond.true
	pcalau12i	$a0, %pc_hi20(_ZGVZN9benchmark8internal18GetNullLogInstanceEvE8null_log)
	ld.b	$a0, $a0, %pc_lo12(_ZGVZN9benchmark8internal18GetNullLogInstanceEvE8null_log)
	dbar	20
	pcalau12i	$a1, %pc_hi20(_ZZN9benchmark8internal18GetNullLogInstanceEvE8null_log)
	addi.d	$s2, $a1, %pc_lo12(_ZZN9benchmark8internal18GetNullLogInstanceEvE8null_log)
	ori	$s1, $zero, 1
	beqz	$a0, .LBB10_45
.LBB10_6:                               # %cond.end
	ld.d	$a0, $s2, 0
	beqz	$a0, .LBB10_12
# %bb.7:                                # %if.then.i
.Ltmp80:                                # EH_LABEL
	pcalau12i	$a1, %pc_hi20(.L.str.35)
	addi.d	$a1, $a1, %pc_lo12(.L.str.35)
	ori	$a2, $zero, 9
	pcaddu18i	$ra, %call36(_ZSt16__ostream_insertIcSt11char_traitsIcEERSt13basic_ostreamIT_T0_ES6_PKS3_l)
	jirl	$ra, $ra, 0
.Ltmp81:                                # EH_LABEL
# %bb.8:                                # %invoke.cont10
	ld.d	$a0, $s2, 0
	beqz	$a0, .LBB10_12
# %bb.9:                                # %if.then.i14
	ld.d	$a1, $s0, 0
	ld.d	$a2, $s0, 8
.Ltmp82:                                # EH_LABEL
	pcaddu18i	$ra, %call36(_ZSt16__ostream_insertIcSt11char_traitsIcEERSt13basic_ostreamIT_T0_ES6_PKS3_l)
	jirl	$ra, $ra, 0
.Ltmp83:                                # EH_LABEL
# %bb.10:                               # %invoke.cont13
	ld.d	$a0, $s2, 0
	beqz	$a0, .LBB10_12
# %bb.11:                               # %if.then.i17
.Ltmp84:                                # EH_LABEL
	pcalau12i	$a1, %pc_hi20(.L.str.36)
	addi.d	$a1, $a1, %pc_lo12(.L.str.36)
	ori	$a2, $zero, 5
	pcaddu18i	$ra, %call36(_ZSt16__ostream_insertIcSt11char_traitsIcEERSt13basic_ostreamIT_T0_ES6_PKS3_l)
	jirl	$ra, $ra, 0
.Ltmp85:                                # EH_LABEL
.LBB10_12:                              # %invoke.cont15
.Ltmp87:                                # EH_LABEL
	addi.d	$a0, $sp, 16
	move	$a1, $fp
	pcaddu18i	$ra, %call36(_ZNK9benchmark17BenchmarkReporter3Run14benchmark_nameB5cxx11Ev)
	jirl	$ra, $ra, 0
.Ltmp88:                                # EH_LABEL
# %bb.13:                               # %invoke.cont19
	ld.d	$a0, $s2, 0
	addi.d	$s2, $sp, 32
	beqz	$a0, .LBB10_15
# %bb.14:                               # %if.then.i22
	ld.d	$a1, $sp, 16
	ld.d	$a2, $sp, 24
.Ltmp90:                                # EH_LABEL
	pcaddu18i	$ra, %call36(_ZSt16__ostream_insertIcSt11char_traitsIcEERSt13basic_ostreamIT_T0_ES6_PKS3_l)
	jirl	$ra, $ra, 0
.Ltmp91:                                # EH_LABEL
.LBB10_15:                              # %invoke.cont21
	ld.d	$a0, $sp, 16
	beq	$a0, $s2, .LBB10_17
# %bb.16:                               # %if.then.i.i
	ld.d	$a1, $sp, 32
	addi.d	$a1, $a1, 1
	pcaddu18i	$ra, %call36(_ZdlPvm)
	jirl	$ra, $ra, 0
.LBB10_17:                              # %_ZNSt7__cxx1112basic_stringIcSt11char_traitsIcESaIcEED2Ev.exit
	beqz	$s1, .LBB10_40
# %bb.18:                               # %cleanup.done31
	ld.d	$a0, $sp, 56
	addi.d	$a1, $sp, 72
	beq	$a0, $a1, .LBB10_20
# %bb.19:                               # %if.then.i.i38
	ld.d	$a1, $sp, 72
	addi.d	$a1, $a1, 1
	pcaddu18i	$ra, %call36(_ZdlPvm)
	jirl	$ra, $ra, 0
.LBB10_20:                              # %_ZNSt7__cxx1112basic_stringIcSt11char_traitsIcESaIcEED2Ev.exit43
	ld.d	$a2, $s0, 40
	beqz	$a2, .LBB10_34
# %bb.21:                               # %if.then
	ld.d	$a0, $fp, 328
	bne	$a0, $a2, .LBB10_23
# %bb.22:                               # %_ZSteqIcSt11char_traitsIcESaIcEEbRKNSt7__cxx1112basic_stringIT_T0_T1_EESA_.exit54
	ld.d	$a1, $s0, 32
	ld.d	$a0, $fp, 320
	pcaddu18i	$ra, %call36(bcmp)
	jirl	$ra, $ra, 0
	beqz	$a0, .LBB10_37
.LBB10_23:                              # %cond.false43
	pcalau12i	$a0, %pc_hi20(.L.str.37)
	addi.d	$a1, $a0, %pc_lo12(.L.str.37)
	pcalau12i	$a0, %pc_hi20(.L.str.22)
	addi.d	$a2, $a0, %pc_lo12(.L.str.22)
	pcalau12i	$a0, %pc_hi20(.L__func__._ZNK12_GLOBAL__N_18TestCase8CheckRunERKN9benchmark17BenchmarkReporter3RunE)
	addi.d	$a3, $a0, %pc_lo12(.L__func__._ZNK12_GLOBAL__N_18TestCase8CheckRunERKN9benchmark17BenchmarkReporter3RunE)
	addi.d	$a0, $sp, 56
	ori	$a4, $zero, 36
	pcaddu18i	$ra, %call36(_ZN9benchmark8internal12CheckHandlerC2EPKcS3_S3_i)
	jirl	$ra, $ra, 0
	ld.d	$s2, $sp, 56
	move	$s1, $zero
.LBB10_24:                              # %cond.end50
	ld.d	$a0, $s2, 0
	beqz	$a0, .LBB10_32
# %bb.25:                               # %if.then.i61
.Ltmp96:                                # EH_LABEL
	pcalau12i	$a1, %pc_hi20(.L.str.35)
	addi.d	$a1, $a1, %pc_lo12(.L.str.35)
	ori	$a2, $zero, 9
	pcaddu18i	$ra, %call36(_ZSt16__ostream_insertIcSt11char_traitsIcEERSt13basic_ostreamIT_T0_ES6_PKS3_l)
	jirl	$ra, $ra, 0
.Ltmp97:                                # EH_LABEL
# %bb.26:                               # %invoke.cont52
	ld.d	$a0, $s2, 0
	beqz	$a0, .LBB10_32
# %bb.27:                               # %if.then.i67
	ld.d	$a1, $s0, 32
	ld.d	$a2, $s0, 40
.Ltmp98:                                # EH_LABEL
	pcaddu18i	$ra, %call36(_ZSt16__ostream_insertIcSt11char_traitsIcEERSt13basic_ostreamIT_T0_ES6_PKS3_l)
	jirl	$ra, $ra, 0
.Ltmp99:                                # EH_LABEL
# %bb.28:                               # %invoke.cont55
	ld.d	$a0, $s2, 0
	beqz	$a0, .LBB10_32
# %bb.29:                               # %if.then.i74
.Ltmp100:                               # EH_LABEL
	pcalau12i	$a1, %pc_hi20(.L.str.36)
	addi.d	$a1, $a1, %pc_lo12(.L.str.36)
	ori	$a2, $zero, 5
	pcaddu18i	$ra, %call36(_ZSt16__ostream_insertIcSt11char_traitsIcEERSt13basic_ostreamIT_T0_ES6_PKS3_l)
	jirl	$ra, $ra, 0
.Ltmp101:                               # EH_LABEL
# %bb.30:                               # %invoke.cont57
	ld.d	$a0, $s2, 0
	beqz	$a0, .LBB10_32
# %bb.31:                               # %if.then.i80
	ld.d	$a1, $fp, 320
	ld.d	$a2, $fp, 328
.Ltmp102:                               # EH_LABEL
	pcaddu18i	$ra, %call36(_ZSt16__ostream_insertIcSt11char_traitsIcEERSt13basic_ostreamIT_T0_ES6_PKS3_l)
	jirl	$ra, $ra, 0
.Ltmp103:                               # EH_LABEL
.LBB10_32:                              # %invoke.cont60
	bnez	$s1, .LBB10_36
# %bb.33:                               # %cleanup.action63
	addi.d	$a0, $sp, 56
	pcaddu18i	$ra, %call36(_ZN9benchmark8internal12CheckHandlerD2Ev)
	jirl	$ra, $ra, 0
.LBB10_34:                              # %if.else
	ld.d	$a0, $fp, 328
	bnez	$a0, .LBB10_42
# %bb.35:                               # %cond.true79
	pcalau12i	$a0, %pc_hi20(_ZGVZN9benchmark8internal18GetNullLogInstanceEvE8null_log)
	ld.b	$a0, $a0, %pc_lo12(_ZGVZN9benchmark8internal18GetNullLogInstanceEvE8null_log)
	dbar	20
	beqz	$a0, .LBB10_43
.LBB10_36:                              # %if.end
	ld.d	$s2, $sp, 88                    # 8-byte Folded Reload
	ld.d	$s1, $sp, 96                    # 8-byte Folded Reload
	ld.d	$s0, $sp, 104                   # 8-byte Folded Reload
	ld.d	$fp, $sp, 112                   # 8-byte Folded Reload
	ld.d	$ra, $sp, 120                   # 8-byte Folded Reload
	addi.d	$sp, $sp, 128
	ret
.LBB10_37:                              # %cond.true41
	pcalau12i	$a0, %pc_hi20(_ZGVZN9benchmark8internal18GetNullLogInstanceEvE8null_log)
	ld.b	$a0, $a0, %pc_lo12(_ZGVZN9benchmark8internal18GetNullLogInstanceEvE8null_log)
	dbar	20
	pcalau12i	$a1, %pc_hi20(_ZZN9benchmark8internal18GetNullLogInstanceEvE8null_log)
	addi.d	$s2, $a1, %pc_lo12(_ZZN9benchmark8internal18GetNullLogInstanceEvE8null_log)
	ori	$s1, $zero, 1
	bnez	$a0, .LBB10_24
# %bb.38:                               # %init.check.i56
	pcalau12i	$a0, %pc_hi20(_ZGVZN9benchmark8internal18GetNullLogInstanceEvE8null_log)
	addi.d	$a0, $a0, %pc_lo12(_ZGVZN9benchmark8internal18GetNullLogInstanceEvE8null_log)
	pcaddu18i	$ra, %call36(__cxa_guard_acquire)
	jirl	$ra, $ra, 0
	addi.w	$a0, $a0, 0
	beqz	$a0, .LBB10_24
# %bb.39:                               # %init.i58
	pcalau12i	$a0, %pc_hi20(_ZZN9benchmark8internal18GetNullLogInstanceEvE8null_log)
	addi.d	$s2, $a0, %pc_lo12(_ZZN9benchmark8internal18GetNullLogInstanceEvE8null_log)
	st.d	$zero, $s2, 0
	pcalau12i	$a0, %pc_hi20(_ZGVZN9benchmark8internal18GetNullLogInstanceEvE8null_log)
	addi.d	$a0, $a0, %pc_lo12(_ZGVZN9benchmark8internal18GetNullLogInstanceEvE8null_log)
	pcaddu18i	$ra, %call36(__cxa_guard_release)
	jirl	$ra, $ra, 0
	b	.LBB10_24
.LBB10_40:                              # %cleanup.action
.Ltmp93:                                # EH_LABEL
	addi.d	$a0, $sp, 48
	pcaddu18i	$ra, %call36(_ZN9benchmark8internal12CheckHandlerD2Ev)
	jirl	$ra, $ra, 0
.Ltmp94:                                # EH_LABEL
# %bb.41:                               # %invoke.cont23
.LBB10_42:                              # %cleanup.action91
	pcalau12i	$a0, %pc_hi20(.L.str.38)
	addi.d	$a1, $a0, %pc_lo12(.L.str.38)
	pcalau12i	$a0, %pc_hi20(.L.str.22)
	addi.d	$a2, $a0, %pc_lo12(.L.str.22)
	pcalau12i	$a0, %pc_hi20(.L__func__._ZNK12_GLOBAL__N_18TestCase8CheckRunERKN9benchmark17BenchmarkReporter3RunE)
	addi.d	$a3, $a0, %pc_lo12(.L__func__._ZNK12_GLOBAL__N_18TestCase8CheckRunERKN9benchmark17BenchmarkReporter3RunE)
	addi.d	$a0, $sp, 56
	ori	$a4, $zero, 39
	pcaddu18i	$ra, %call36(_ZN9benchmark8internal12CheckHandlerC2EPKcS3_S3_i)
	jirl	$ra, $ra, 0
	addi.d	$a0, $sp, 56
	pcaddu18i	$ra, %call36(_ZN9benchmark8internal12CheckHandlerD2Ev)
	jirl	$ra, $ra, 0
.LBB10_43:                              # %init.check.i96
	pcalau12i	$a0, %pc_hi20(_ZGVZN9benchmark8internal18GetNullLogInstanceEvE8null_log)
	addi.d	$a0, $a0, %pc_lo12(_ZGVZN9benchmark8internal18GetNullLogInstanceEvE8null_log)
	pcaddu18i	$ra, %call36(__cxa_guard_acquire)
	jirl	$ra, $ra, 0
	addi.w	$a0, $a0, 0
	beqz	$a0, .LBB10_36
# %bb.44:                               # %init.i98
	pcalau12i	$a0, %pc_hi20(_ZZN9benchmark8internal18GetNullLogInstanceEvE8null_log)
	st.d	$zero, $a0, %pc_lo12(_ZZN9benchmark8internal18GetNullLogInstanceEvE8null_log)
	pcalau12i	$a0, %pc_hi20(_ZGVZN9benchmark8internal18GetNullLogInstanceEvE8null_log)
	addi.d	$a0, $a0, %pc_lo12(_ZGVZN9benchmark8internal18GetNullLogInstanceEvE8null_log)
	pcaddu18i	$ra, %call36(__cxa_guard_release)
	jirl	$ra, $ra, 0
	b	.LBB10_36
.LBB10_45:                              # %init.check.i
	pcalau12i	$a0, %pc_hi20(_ZGVZN9benchmark8internal18GetNullLogInstanceEvE8null_log)
	addi.d	$a0, $a0, %pc_lo12(_ZGVZN9benchmark8internal18GetNullLogInstanceEvE8null_log)
	pcaddu18i	$ra, %call36(__cxa_guard_acquire)
	jirl	$ra, $ra, 0
	addi.w	$a0, $a0, 0
	beqz	$a0, .LBB10_6
# %bb.46:                               # %init.i
	pcalau12i	$a0, %pc_hi20(_ZZN9benchmark8internal18GetNullLogInstanceEvE8null_log)
	addi.d	$s2, $a0, %pc_lo12(_ZZN9benchmark8internal18GetNullLogInstanceEvE8null_log)
	st.d	$zero, $s2, 0
	pcalau12i	$a0, %pc_hi20(_ZGVZN9benchmark8internal18GetNullLogInstanceEvE8null_log)
	addi.d	$a0, $a0, %pc_lo12(_ZGVZN9benchmark8internal18GetNullLogInstanceEvE8null_log)
	pcaddu18i	$ra, %call36(__cxa_guard_release)
	jirl	$ra, $ra, 0
	b	.LBB10_6
.LBB10_47:                              # %lpad20
.Ltmp92:                                # EH_LABEL
	ld.d	$a2, $sp, 16
	move	$fp, $a0
	beq	$a2, $s2, .LBB10_53
# %bb.48:                               # %if.then.i.i31
	ld.d	$a0, $sp, 32
	addi.d	$a1, $a0, 1
	move	$a0, $a2
	pcaddu18i	$ra, %call36(_ZdlPvm)
	jirl	$ra, $ra, 0
	b	.LBB10_53
.LBB10_49:                              # %lpad47
.Ltmp104:                               # EH_LABEL
	move	$fp, $a0
	addi.d	$a0, $sp, 56
	beqz	$s1, .LBB10_54
	b	.LBB10_59
.LBB10_50:                              # %lpad18
.Ltmp89:                                # EH_LABEL
	b	.LBB10_52
.LBB10_51:                              # %ehcleanup24
.Ltmp86:                                # EH_LABEL
.LBB10_52:                              # %ehcleanup
	move	$fp, $a0
.LBB10_53:                              # %ehcleanup
	addi.d	$a0, $sp, 48
	bnez	$s1, .LBB10_57
.LBB10_54:                              # %cleanup.action67.invoke
.Ltmp105:                               # EH_LABEL
	pcaddu18i	$ra, %call36(_ZN9benchmark8internal12CheckHandlerD2Ev)
	jirl	$ra, $ra, 0
.Ltmp106:                               # EH_LABEL
# %bb.55:                               # %cleanup.action67.cont
.LBB10_56:                              # %cleanup.action34
.Ltmp95:                                # EH_LABEL
	move	$fp, $a0
.LBB10_57:                              # %ehcleanup36
	ld.d	$a0, $sp, 56
	addi.d	$a1, $sp, 72
	beq	$a0, $a1, .LBB10_59
# %bb.58:                               # %if.then.i.i87
	ld.d	$a1, $sp, 72
	addi.d	$a1, $a1, 1
	pcaddu18i	$ra, %call36(_ZdlPvm)
	jirl	$ra, $ra, 0
.LBB10_59:                              # %eh.resume
	move	$a0, $fp
	pcaddu18i	$ra, %call36(_Unwind_Resume)
	jirl	$ra, $ra, 0
.LBB10_60:                              # %terminate.lpad
.Ltmp107:                               # EH_LABEL
	pcaddu18i	$ra, %call36(__clang_call_terminate)
	jirl	$ra, $ra, 0
.Lfunc_end10:
	.size	_ZNK12_GLOBAL__N_18TestCase8CheckRunERKN9benchmark17BenchmarkReporter3RunE, .Lfunc_end10-_ZNK12_GLOBAL__N_18TestCase8CheckRunERKN9benchmark17BenchmarkReporter3RunE
	.cfi_endproc
	.section	.gcc_except_table,"a",@progbits
	.p2align	2, 0x0
GCC_except_table10:
.Lexception6:
	.byte	255                             # @LPStart Encoding = omit
	.byte	155                             # @TType Encoding = indirect pcrel sdata4
	.uleb128 .Lttbase1-.Lttbaseref1
.Lttbaseref1:
	.byte	1                               # Call site Encoding = uleb128
	.uleb128 .Lcst_end6-.Lcst_begin6
.Lcst_begin6:
	.uleb128 .Lfunc_begin6-.Lfunc_begin6    # >> Call Site 1 <<
	.uleb128 .Ltmp78-.Lfunc_begin6          #   Call between .Lfunc_begin6 and .Ltmp78
	.byte	0                               #     has no landing pad
	.byte	0                               #   On action: cleanup
	.uleb128 .Ltmp78-.Lfunc_begin6          # >> Call Site 2 <<
	.uleb128 .Ltmp79-.Ltmp78                #   Call between .Ltmp78 and .Ltmp79
	.uleb128 .Ltmp95-.Lfunc_begin6          #     jumps to .Ltmp95
	.byte	0                               #   On action: cleanup
	.uleb128 .Ltmp80-.Lfunc_begin6          # >> Call Site 3 <<
	.uleb128 .Ltmp85-.Ltmp80                #   Call between .Ltmp80 and .Ltmp85
	.uleb128 .Ltmp86-.Lfunc_begin6          #     jumps to .Ltmp86
	.byte	0                               #   On action: cleanup
	.uleb128 .Ltmp87-.Lfunc_begin6          # >> Call Site 4 <<
	.uleb128 .Ltmp88-.Ltmp87                #   Call between .Ltmp87 and .Ltmp88
	.uleb128 .Ltmp89-.Lfunc_begin6          #     jumps to .Ltmp89
	.byte	0                               #   On action: cleanup
	.uleb128 .Ltmp90-.Lfunc_begin6          # >> Call Site 5 <<
	.uleb128 .Ltmp91-.Ltmp90                #   Call between .Ltmp90 and .Ltmp91
	.uleb128 .Ltmp92-.Lfunc_begin6          #     jumps to .Ltmp92
	.byte	0                               #   On action: cleanup
	.uleb128 .Ltmp91-.Lfunc_begin6          # >> Call Site 6 <<
	.uleb128 .Ltmp96-.Ltmp91                #   Call between .Ltmp91 and .Ltmp96
	.byte	0                               #     has no landing pad
	.byte	0                               #   On action: cleanup
	.uleb128 .Ltmp96-.Lfunc_begin6          # >> Call Site 7 <<
	.uleb128 .Ltmp103-.Ltmp96               #   Call between .Ltmp96 and .Ltmp103
	.uleb128 .Ltmp104-.Lfunc_begin6         #     jumps to .Ltmp104
	.byte	0                               #   On action: cleanup
	.uleb128 .Ltmp103-.Lfunc_begin6         # >> Call Site 8 <<
	.uleb128 .Ltmp93-.Ltmp103               #   Call between .Ltmp103 and .Ltmp93
	.byte	0                               #     has no landing pad
	.byte	0                               #   On action: cleanup
	.uleb128 .Ltmp93-.Lfunc_begin6          # >> Call Site 9 <<
	.uleb128 .Ltmp94-.Ltmp93                #   Call between .Ltmp93 and .Ltmp94
	.uleb128 .Ltmp95-.Lfunc_begin6          #     jumps to .Ltmp95
	.byte	0                               #   On action: cleanup
	.uleb128 .Ltmp94-.Lfunc_begin6          # >> Call Site 10 <<
	.uleb128 .Ltmp105-.Ltmp94               #   Call between .Ltmp94 and .Ltmp105
	.byte	0                               #     has no landing pad
	.byte	0                               #   On action: cleanup
	.uleb128 .Ltmp105-.Lfunc_begin6         # >> Call Site 11 <<
	.uleb128 .Ltmp106-.Ltmp105              #   Call between .Ltmp105 and .Ltmp106
	.uleb128 .Ltmp107-.Lfunc_begin6         #     jumps to .Ltmp107
	.byte	1                               #   On action: 1
	.uleb128 .Ltmp106-.Lfunc_begin6         # >> Call Site 12 <<
	.uleb128 .Lfunc_end10-.Ltmp106          #   Call between .Ltmp106 and .Lfunc_end10
	.byte	0                               #     has no landing pad
	.byte	0                               #   On action: cleanup
.Lcst_end6:
	.byte	1                               # >> Action Record 1 <<
                                        #   Catch TypeInfo 1
	.byte	0                               #   No further actions
	.p2align	2, 0x0
                                        # >> Catch TypeInfos <<
	.word	0                               # TypeInfo 1
.Lttbase1:
	.p2align	2, 0x0
                                        # -- End function
	.text
	.p2align	5                               # -- Begin function _ZN12_GLOBAL__N_112TestReporterD2Ev
	.type	_ZN12_GLOBAL__N_112TestReporterD2Ev,@function
_ZN12_GLOBAL__N_112TestReporterD2Ev:    # @_ZN12_GLOBAL__N_112TestReporterD2Ev
.Lfunc_begin7:
	.cfi_startproc
	.cfi_personality 155, DW.ref.__gxx_personality_v0
	.cfi_lsda 27, .Lexception7
# %bb.0:                                # %entry
	addi.d	$sp, $sp, -16
	.cfi_def_cfa_offset 16
	st.d	$ra, $sp, 8                     # 8-byte Folded Spill
	st.d	$fp, $sp, 0                     # 8-byte Folded Spill
	.cfi_offset 1, -8
	.cfi_offset 22, -16
	move	$fp, $a0
	pcalau12i	$a0, %pc_hi20(_ZTVN12_GLOBAL__N_112TestReporterE+16)
	addi.d	$a0, $a0, %pc_lo12(_ZTVN12_GLOBAL__N_112TestReporterE+16)
	st.d	$a0, $fp, 0
	addi.d	$a0, $fp, 96
	pcaddu18i	$ra, %call36(_ZNSt6vectorIN9benchmark17BenchmarkReporter3RunESaIS2_EED2Ev)
	jirl	$ra, $ra, 0
	pcalau12i	$a0, %got_pc_hi20(_ZTVN9benchmark15ConsoleReporterE)
	ld.d	$a0, $a0, %got_pc_lo12(_ZTVN9benchmark15ConsoleReporterE)
	ld.d	$a1, $fp, 56
	addi.d	$a0, $a0, 16
	st.d	$a0, $fp, 0
	addi.d	$a0, $fp, 40
.Ltmp108:                               # EH_LABEL
	pcaddu18i	$ra, %call36(_ZNSt8_Rb_treeINSt7__cxx1112basic_stringIcSt11char_traitsIcESaIcEEESt4pairIKS5_N9benchmark7CounterEESt10_Select1stISA_ESt4lessIS5_ESaISA_EE8_M_eraseEPSt13_Rb_tree_nodeISA_E)
	jirl	$ra, $ra, 0
.Ltmp109:                               # EH_LABEL
# %bb.1:                                # %_ZN9benchmark15ConsoleReporterD2Ev.exit
	move	$a0, $fp
	ld.d	$fp, $sp, 0                     # 8-byte Folded Reload
	ld.d	$ra, $sp, 8                     # 8-byte Folded Reload
	addi.d	$sp, $sp, 16
	pcaddu18i	$t8, %call36(_ZN9benchmark17BenchmarkReporterD2Ev)
	jr	$t8
.LBB11_2:                               # %terminate.lpad.i.i.i
.Ltmp110:                               # EH_LABEL
	pcaddu18i	$ra, %call36(__clang_call_terminate)
	jirl	$ra, $ra, 0
.Lfunc_end11:
	.size	_ZN12_GLOBAL__N_112TestReporterD2Ev, .Lfunc_end11-_ZN12_GLOBAL__N_112TestReporterD2Ev
	.cfi_endproc
	.section	.gcc_except_table,"a",@progbits
	.p2align	2, 0x0
GCC_except_table11:
.Lexception7:
	.byte	255                             # @LPStart Encoding = omit
	.byte	155                             # @TType Encoding = indirect pcrel sdata4
	.uleb128 .Lttbase2-.Lttbaseref2
.Lttbaseref2:
	.byte	1                               # Call site Encoding = uleb128
	.uleb128 .Lcst_end7-.Lcst_begin7
.Lcst_begin7:
	.uleb128 .Lfunc_begin7-.Lfunc_begin7    # >> Call Site 1 <<
	.uleb128 .Ltmp108-.Lfunc_begin7         #   Call between .Lfunc_begin7 and .Ltmp108
	.byte	0                               #     has no landing pad
	.byte	0                               #   On action: cleanup
	.uleb128 .Ltmp108-.Lfunc_begin7         # >> Call Site 2 <<
	.uleb128 .Ltmp109-.Ltmp108              #   Call between .Ltmp108 and .Ltmp109
	.uleb128 .Ltmp110-.Lfunc_begin7         #     jumps to .Ltmp110
	.byte	1                               #   On action: 1
	.uleb128 .Ltmp109-.Lfunc_begin7         # >> Call Site 3 <<
	.uleb128 .Lfunc_end11-.Ltmp109          #   Call between .Ltmp109 and .Lfunc_end11
	.byte	0                               #     has no landing pad
	.byte	0                               #   On action: cleanup
.Lcst_end7:
	.byte	1                               # >> Action Record 1 <<
                                        #   Catch TypeInfo 1
	.byte	0                               #   No further actions
	.p2align	2, 0x0
                                        # >> Catch TypeInfos <<
	.word	0                               # TypeInfo 1
.Lttbase2:
	.p2align	2, 0x0
                                        # -- End function
	.text
	.hidden	_Z10RunTestTwov                 # -- Begin function _Z10RunTestTwov
	.globl	_Z10RunTestTwov
	.p2align	5
	.type	_Z10RunTestTwov,@function
_Z10RunTestTwov:                        # @_Z10RunTestTwov
.Lfunc_begin8:
	.cfi_startproc
	.cfi_personality 155, DW.ref.__gxx_personality_v0
	.cfi_lsda 27, .Lexception8
# %bb.0:                                # %entry
	addi.d	$sp, $sp, -176
	.cfi_def_cfa_offset 176
	st.d	$ra, $sp, 168                   # 8-byte Folded Spill
	st.d	$fp, $sp, 160                   # 8-byte Folded Spill
	st.d	$s0, $sp, 152                   # 8-byte Folded Spill
	st.d	$s1, $sp, 144                   # 8-byte Folded Spill
	st.d	$s2, $sp, 136                   # 8-byte Folded Spill
	st.d	$s3, $sp, 128                   # 8-byte Folded Spill
	.cfi_offset 1, -8
	.cfi_offset 22, -16
	.cfi_offset 23, -24
	.cfi_offset 24, -32
	.cfi_offset 25, -40
	.cfi_offset 26, -48
	pcalau12i	$a0, %pc_hi20(_ZN12_GLOBAL__N_115ExpectedResultsE)
	addi.d	$s1, $a0, %pc_lo12(_ZN12_GLOBAL__N_115ExpectedResultsE)
	ld.d	$s0, $s1, 8
	ld.d	$fp, $s1, 0
	beq	$s0, $fp, .LBB12_22
# %bb.1:                                # %for.body.i.i.i.preheader
	addi.d	$s2, $fp, 48
	b	.LBB12_3
	.p2align	4, , 16
.LBB12_2:                               # %_ZSt8_DestroyIN12_GLOBAL__N_18TestCaseEEvPT_.exit.i.i.i
                                        #   in Loop: Header=BB12_3 Depth=1
	addi.d	$a0, $s2, 16
	addi.d	$s2, $s2, 64
	beq	$a0, $s0, .LBB12_7
.LBB12_3:                               # %for.body.i.i.i
                                        # =>This Inner Loop Header: Depth=1
	ld.d	$a0, $s2, -16
	beq	$s2, $a0, .LBB12_5
# %bb.4:                                # %if.then.i.i.i.i.i.i.i
                                        #   in Loop: Header=BB12_3 Depth=1
	ld.d	$a1, $s2, 0
	addi.d	$a1, $a1, 1
	pcaddu18i	$ra, %call36(_ZdlPvm)
	jirl	$ra, $ra, 0
.LBB12_5:                               # %_ZNSt7__cxx1112basic_stringIcSt11char_traitsIcESaIcEED2Ev.exit.i.i.i.i.i
                                        #   in Loop: Header=BB12_3 Depth=1
	ld.d	$a0, $s2, -48
	addi.d	$a1, $s2, -32
	beq	$a1, $a0, .LBB12_2
# %bb.6:                                # %if.then.i.i2.i.i.i.i.i
                                        #   in Loop: Header=BB12_3 Depth=1
	ld.d	$a1, $a1, 0
	addi.d	$a1, $a1, 1
	pcaddu18i	$ra, %call36(_ZdlPvm)
	jirl	$ra, $ra, 0
	b	.LBB12_2
.LBB12_7:                               # %invoke.cont.i.i
	st.d	$fp, $s1, 8
	pcaddu18i	$ra, %call36(_ZN9benchmark25ClearRegisteredBenchmarksEv)
	jirl	$ra, $ra, 0
	addi.d	$a0, $sp, 8
	pcaddu18i	$ra, %call36(_ZN9benchmark17BenchmarkReporterC2Ev)
	jirl	$ra, $ra, 0
	ori	$a0, $zero, 3
	st.w	$a0, $sp, 32
	st.d	$zero, $sp, 40
	addi.d	$a0, $sp, 56
	st.w	$zero, $sp, 56
	st.d	$zero, $sp, 64
	st.d	$a0, $sp, 72
	st.d	$a0, $sp, 80
	st.d	$zero, $sp, 88
	st.b	$zero, $sp, 96
	pcalau12i	$a0, %pc_hi20(_ZTVN12_GLOBAL__N_112TestReporterE+16)
	addi.d	$s2, $a0, %pc_lo12(_ZTVN12_GLOBAL__N_112TestReporterE+16)
	st.d	$s2, $sp, 8
	st.d	$zero, $sp, 104
	vrepli.b	$vr0, 0
	vst	$vr0, $sp, 112
.Ltmp111:                               # EH_LABEL
	addi.d	$a0, $sp, 8
	pcaddu18i	$ra, %call36(_ZN9benchmark22RunSpecifiedBenchmarksEPNS_17BenchmarkReporterE)
	jirl	$ra, $ra, 0
.Ltmp112:                               # EH_LABEL
# %bb.8:                                # %invoke.cont
	bnez	$a0, .LBB12_23
# %bb.9:                                # %cond.end5
	ld.d	$a0, $sp, 104
	ld.d	$a1, $sp, 112
	bne	$a0, $a1, .LBB12_24
# %bb.10:                               # %cond.end15
.Ltmp113:                               # EH_LABEL
	pcaddu18i	$ra, %call36(_Z25TestRegistrationAtRuntimev)
	jirl	$ra, $ra, 0
.Ltmp114:                               # EH_LABEL
# %bb.11:                               # %invoke.cont16
.Ltmp115:                               # EH_LABEL
	addi.d	$a0, $sp, 8
	pcaddu18i	$ra, %call36(_ZN9benchmark22RunSpecifiedBenchmarksEPNS_17BenchmarkReporterE)
	jirl	$ra, $ra, 0
.Ltmp116:                               # EH_LABEL
# %bb.12:                               # %invoke.cont17
	ld.d	$a1, $s1, 8
	ld.d	$fp, $s1, 0
	sub.d	$a2, $a1, $fp
	srai.d	$a2, $a2, 6
	bne	$a0, $a2, .LBB12_25
# %bb.13:                               # %cond.end23
	ld.d	$s0, $sp, 104
	ld.d	$s3, $sp, 112
	beq	$s0, $s3, .LBB12_18
	.p2align	4, , 16
.LBB12_14:                              # %for.body
                                        # =>This Inner Loop Header: Depth=1
	ld.d	$a0, $s1, 8
	beq	$fp, $a0, .LBB12_21
# %bb.15:                               # %cond.end43
                                        #   in Loop: Header=BB12_14 Depth=1
.Ltmp118:                               # EH_LABEL
	move	$a0, $fp
	move	$a1, $s0
	pcaddu18i	$ra, %call36(_ZNK12_GLOBAL__N_18TestCase8CheckRunERKN9benchmark17BenchmarkReporter3RunE)
	jirl	$ra, $ra, 0
.Ltmp119:                               # EH_LABEL
# %bb.16:                               # %invoke.cont46
                                        #   in Loop: Header=BB12_14 Depth=1
	addi.d	$s0, $s0, 560
	addi.d	$fp, $fp, 64
	bne	$s0, $s3, .LBB12_14
# %bb.17:                               # %for.cond.cleanup.loopexit
	ld.d	$a1, $s1, 8
.LBB12_18:                              # %for.cond.cleanup
	bne	$fp, $a1, .LBB12_26
# %bb.19:                               # %cond.end56
	addi.d	$a0, $sp, 104
	st.d	$s2, $sp, 8
	pcaddu18i	$ra, %call36(_ZNSt6vectorIN9benchmark17BenchmarkReporter3RunESaIS2_EED2Ev)
	jirl	$ra, $ra, 0
	pcalau12i	$a0, %got_pc_hi20(_ZTVN9benchmark15ConsoleReporterE)
	ld.d	$a0, $a0, %got_pc_lo12(_ZTVN9benchmark15ConsoleReporterE)
	ld.d	$a1, $sp, 64
	addi.d	$a0, $a0, 16
	st.d	$a0, $sp, 8
	addi.d	$a0, $sp, 48
.Ltmp121:                               # EH_LABEL
	pcaddu18i	$ra, %call36(_ZNSt8_Rb_treeINSt7__cxx1112basic_stringIcSt11char_traitsIcESaIcEEESt4pairIKS5_N9benchmark7CounterEESt10_Select1stISA_ESt4lessIS5_ESaISA_EE8_M_eraseEPSt13_Rb_tree_nodeISA_E)
	jirl	$ra, $ra, 0
.Ltmp122:                               # EH_LABEL
# %bb.20:                               # %_ZN12_GLOBAL__N_112TestReporterD2Ev.exit
	addi.d	$a0, $sp, 8
	pcaddu18i	$ra, %call36(_ZN9benchmark17BenchmarkReporterD2Ev)
	jirl	$ra, $ra, 0
	ld.d	$s3, $sp, 128                   # 8-byte Folded Reload
	ld.d	$s2, $sp, 136                   # 8-byte Folded Reload
	ld.d	$s1, $sp, 144                   # 8-byte Folded Reload
	ld.d	$s0, $sp, 152                   # 8-byte Folded Reload
	ld.d	$fp, $sp, 160                   # 8-byte Folded Reload
	ld.d	$ra, $sp, 168                   # 8-byte Folded Reload
	addi.d	$sp, $sp, 176
	ret
.LBB12_21:                              # %cond.false42
	pcalau12i	$a0, %pc_hi20(.L.str.21)
	addi.d	$a0, $a0, %pc_lo12(.L.str.21)
	pcalau12i	$a1, %pc_hi20(.L.str.22)
	addi.d	$a1, $a1, %pc_lo12(.L.str.22)
	pcalau12i	$a2, %pc_hi20(.L__PRETTY_FUNCTION__._Z10RunTestTwov)
	addi.d	$a3, $a2, %pc_lo12(.L__PRETTY_FUNCTION__._Z10RunTestTwov)
	ori	$a2, $zero, 184
	pcaddu18i	$ra, %call36(__assert_fail)
	jirl	$ra, $ra, 0
.LBB12_22:                              # %cond.false
	pcalau12i	$a0, %pc_hi20(.L.str.25)
	addi.d	$a0, $a0, %pc_lo12(.L.str.25)
	pcalau12i	$a1, %pc_hi20(.L.str.22)
	addi.d	$a1, $a1, %pc_lo12(.L.str.22)
	pcalau12i	$a2, %pc_hi20(.L__PRETTY_FUNCTION__._Z10RunTestTwov)
	addi.d	$a3, $a2, %pc_lo12(.L__PRETTY_FUNCTION__._Z10RunTestTwov)
	ori	$a2, $zero, 166
	pcaddu18i	$ra, %call36(__assert_fail)
	jirl	$ra, $ra, 0
.LBB12_23:                              # %cond.false4
	pcalau12i	$a0, %pc_hi20(.L.str.26)
	addi.d	$a0, $a0, %pc_lo12(.L.str.26)
	pcalau12i	$a1, %pc_hi20(.L.str.22)
	addi.d	$a1, $a1, %pc_lo12(.L.str.22)
	pcalau12i	$a2, %pc_hi20(.L__PRETTY_FUNCTION__._Z10RunTestTwov)
	addi.d	$a3, $a2, %pc_lo12(.L__PRETTY_FUNCTION__._Z10RunTestTwov)
	ori	$a2, $zero, 173
	pcaddu18i	$ra, %call36(__assert_fail)
	jirl	$ra, $ra, 0
.LBB12_24:                              # %cond.false14
	pcalau12i	$a0, %pc_hi20(.L.str.27)
	addi.d	$a0, $a0, %pc_lo12(.L.str.27)
	pcalau12i	$a1, %pc_hi20(.L.str.22)
	addi.d	$a1, $a1, %pc_lo12(.L.str.22)
	pcalau12i	$a2, %pc_hi20(.L__PRETTY_FUNCTION__._Z10RunTestTwov)
	addi.d	$a3, $a2, %pc_lo12(.L__PRETTY_FUNCTION__._Z10RunTestTwov)
	ori	$a2, $zero, 174
	pcaddu18i	$ra, %call36(__assert_fail)
	jirl	$ra, $ra, 0
.LBB12_25:                              # %cond.false22
	pcalau12i	$a0, %pc_hi20(.L.str.28)
	addi.d	$a0, $a0, %pc_lo12(.L.str.28)
	pcalau12i	$a1, %pc_hi20(.L.str.22)
	addi.d	$a1, $a1, %pc_lo12(.L.str.22)
	pcalau12i	$a2, %pc_hi20(.L__PRETTY_FUNCTION__._Z10RunTestTwov)
	addi.d	$a3, $a2, %pc_lo12(.L__PRETTY_FUNCTION__._Z10RunTestTwov)
	ori	$a2, $zero, 178
	pcaddu18i	$ra, %call36(__assert_fail)
	jirl	$ra, $ra, 0
.LBB12_26:                              # %cond.false55
	pcalau12i	$a0, %pc_hi20(.L.str.23)
	addi.d	$a0, $a0, %pc_lo12(.L.str.23)
	pcalau12i	$a1, %pc_hi20(.L.str.22)
	addi.d	$a1, $a1, %pc_lo12(.L.str.22)
	pcalau12i	$a2, %pc_hi20(.L__PRETTY_FUNCTION__._Z10RunTestTwov)
	addi.d	$a3, $a2, %pc_lo12(.L__PRETTY_FUNCTION__._Z10RunTestTwov)
	ori	$a2, $zero, 188
	pcaddu18i	$ra, %call36(__assert_fail)
	jirl	$ra, $ra, 0
.LBB12_27:                              # %terminate.lpad.i.i.i.i
.Ltmp123:                               # EH_LABEL
	pcaddu18i	$ra, %call36(__clang_call_terminate)
	jirl	$ra, $ra, 0
.LBB12_28:                              # %lpad
.Ltmp117:                               # EH_LABEL
	b	.LBB12_30
.LBB12_29:                              # %lpad45
.Ltmp120:                               # EH_LABEL
.LBB12_30:                              # %ehcleanup
	move	$fp, $a0
	addi.d	$a0, $sp, 8
	pcaddu18i	$ra, %call36(_ZN12_GLOBAL__N_112TestReporterD2Ev)
	jirl	$ra, $ra, 0
	move	$a0, $fp
	pcaddu18i	$ra, %call36(_Unwind_Resume)
	jirl	$ra, $ra, 0
.Lfunc_end12:
	.size	_Z10RunTestTwov, .Lfunc_end12-_Z10RunTestTwov
	.cfi_endproc
	.section	.gcc_except_table,"a",@progbits
	.p2align	2, 0x0
GCC_except_table12:
.Lexception8:
	.byte	255                             # @LPStart Encoding = omit
	.byte	155                             # @TType Encoding = indirect pcrel sdata4
	.uleb128 .Lttbase3-.Lttbaseref3
.Lttbaseref3:
	.byte	1                               # Call site Encoding = uleb128
	.uleb128 .Lcst_end8-.Lcst_begin8
.Lcst_begin8:
	.uleb128 .Lfunc_begin8-.Lfunc_begin8    # >> Call Site 1 <<
	.uleb128 .Ltmp111-.Lfunc_begin8         #   Call between .Lfunc_begin8 and .Ltmp111
	.byte	0                               #     has no landing pad
	.byte	0                               #   On action: cleanup
	.uleb128 .Ltmp111-.Lfunc_begin8         # >> Call Site 2 <<
	.uleb128 .Ltmp116-.Ltmp111              #   Call between .Ltmp111 and .Ltmp116
	.uleb128 .Ltmp117-.Lfunc_begin8         #     jumps to .Ltmp117
	.byte	0                               #   On action: cleanup
	.uleb128 .Ltmp118-.Lfunc_begin8         # >> Call Site 3 <<
	.uleb128 .Ltmp119-.Ltmp118              #   Call between .Ltmp118 and .Ltmp119
	.uleb128 .Ltmp120-.Lfunc_begin8         #     jumps to .Ltmp120
	.byte	0                               #   On action: cleanup
	.uleb128 .Ltmp119-.Lfunc_begin8         # >> Call Site 4 <<
	.uleb128 .Ltmp121-.Ltmp119              #   Call between .Ltmp119 and .Ltmp121
	.byte	0                               #     has no landing pad
	.byte	0                               #   On action: cleanup
	.uleb128 .Ltmp121-.Lfunc_begin8         # >> Call Site 5 <<
	.uleb128 .Ltmp122-.Ltmp121              #   Call between .Ltmp121 and .Ltmp122
	.uleb128 .Ltmp123-.Lfunc_begin8         #     jumps to .Ltmp123
	.byte	1                               #   On action: 1
	.uleb128 .Ltmp122-.Lfunc_begin8         # >> Call Site 6 <<
	.uleb128 .Lfunc_end12-.Ltmp122          #   Call between .Ltmp122 and .Lfunc_end12
	.byte	0                               #     has no landing pad
	.byte	0                               #   On action: cleanup
.Lcst_end8:
	.byte	1                               # >> Action Record 1 <<
                                        #   Catch TypeInfo 1
	.byte	0                               #   No further actions
	.p2align	2, 0x0
                                        # >> Catch TypeInfos <<
	.word	0                               # TypeInfo 1
.Lttbase3:
	.p2align	2, 0x0
                                        # -- End function
	.text
	.hidden	main                            # -- Begin function main
	.globl	main
	.p2align	5
	.type	main,@function
main:                                   # @main
	.cfi_startproc
# %bb.0:                                # %entry
	addi.d	$sp, $sp, -16
	.cfi_def_cfa_offset 16
	st.d	$ra, $sp, 8                     # 8-byte Folded Spill
	.cfi_offset 1, -8
	st.w	$a0, $sp, 4
	pcalau12i	$a0, %got_pc_hi20(_ZN9benchmark16PrintDefaultHelpEv)
	ld.d	$a2, $a0, %got_pc_lo12(_ZN9benchmark16PrintDefaultHelpEv)
	addi.d	$a0, $sp, 4
	pcaddu18i	$ra, %call36(_ZN9benchmark10InitializeEPiPPcPFvvE)
	jirl	$ra, $ra, 0
	pcaddu18i	$ra, %call36(_Z10RunTestOnev)
	jirl	$ra, $ra, 0
	pcaddu18i	$ra, %call36(_Z10RunTestTwov)
	jirl	$ra, $ra, 0
	move	$a0, $zero
	ld.d	$ra, $sp, 8                     # 8-byte Folded Reload
	addi.d	$sp, $sp, 16
	ret
.Lfunc_end13:
	.size	main, .Lfunc_end13-main
	.cfi_endproc
                                        # -- End function
	.p2align	5                               # -- Begin function _ZN12_GLOBAL__N_18TestCaseC2ERKS0_
	.type	_ZN12_GLOBAL__N_18TestCaseC2ERKS0_,@function
_ZN12_GLOBAL__N_18TestCaseC2ERKS0_:     # @_ZN12_GLOBAL__N_18TestCaseC2ERKS0_
.Lfunc_begin9:
	.cfi_startproc
	.cfi_personality 155, DW.ref.__gxx_personality_v0
	.cfi_lsda 27, .Lexception9
# %bb.0:                                # %entry
	addi.d	$sp, $sp, -80
	.cfi_def_cfa_offset 80
	st.d	$ra, $sp, 72                    # 8-byte Folded Spill
	st.d	$fp, $sp, 64                    # 8-byte Folded Spill
	st.d	$s0, $sp, 56                    # 8-byte Folded Spill
	st.d	$s1, $sp, 48                    # 8-byte Folded Spill
	st.d	$s2, $sp, 40                    # 8-byte Folded Spill
	st.d	$s3, $sp, 32                    # 8-byte Folded Spill
	st.d	$s4, $sp, 24                    # 8-byte Folded Spill
	.cfi_offset 1, -8
	.cfi_offset 22, -16
	.cfi_offset 23, -24
	.cfi_offset 24, -32
	.cfi_offset 25, -40
	.cfi_offset 26, -48
	.cfi_offset 27, -56
	move	$s0, $a1
	move	$fp, $a0
	addi.d	$s3, $a0, 16
	st.d	$s3, $a0, 0
	ld.d	$a1, $a1, 8
	ld.d	$s1, $s0, 0
	ori	$a2, $zero, 16
	st.d	$a1, $sp, 16
	move	$a0, $s3
	bltu	$a1, $a2, .LBB14_2
# %bb.1:                                # %if.then.i.i
	addi.d	$a1, $sp, 16
	move	$a0, $fp
	move	$a2, $zero
	pcaddu18i	$ra, %call36(_ZNSt7__cxx1112basic_stringIcSt11char_traitsIcESaIcEE9_M_createERmm)
	jirl	$ra, $ra, 0
	ld.d	$a1, $sp, 16
	st.d	$a0, $fp, 0
	st.d	$a1, $fp, 16
.LBB14_2:                               # %if.end.i.i
	addi.w	$s4, $zero, -1
	beq	$a1, $s4, .LBB14_6
# %bb.3:                                # %if.end.i.i
	bnez	$a1, .LBB14_5
# %bb.4:                                # %if.then.i.i.i
	ld.b	$a1, $s1, 0
	st.b	$a1, $a0, 0
	b	.LBB14_6
.LBB14_5:                               # %if.end.i.i.i.i
	addi.d	$a2, $a1, 1
	move	$a1, $s1
	pcaddu18i	$ra, %call36(memcpy)
	jirl	$ra, $ra, 0
.LBB14_6:                               # %_ZNSt7__cxx1112basic_stringIcSt11char_traitsIcESaIcEEC2ERKS4_.exit
	ld.d	$a0, $sp, 16
	st.d	$a0, $fp, 8
	addi.d	$s1, $fp, 48
	st.d	$s1, $fp, 32
	ld.d	$a1, $s0, 40
	ld.d	$s0, $s0, 32
	ori	$a0, $zero, 16
	st.d	$a1, $sp, 16
	bltu	$a1, $a0, .LBB14_9
# %bb.7:                                # %if.then.i.i11
.Ltmp124:                               # EH_LABEL
	addi.d	$s2, $fp, 32
	addi.d	$a1, $sp, 16
	move	$a0, $s2
	move	$a2, $zero
	pcaddu18i	$ra, %call36(_ZNSt7__cxx1112basic_stringIcSt11char_traitsIcESaIcEE9_M_createERmm)
	jirl	$ra, $ra, 0
.Ltmp125:                               # EH_LABEL
# %bb.8:                                # %call.i4.i12.noexc
	ld.d	$a1, $sp, 16
	st.d	$a0, $s2, 0
	st.d	$a1, $s1, 0
	move	$s1, $a0
.LBB14_9:                               # %if.end.i.i6
	beq	$a1, $s4, .LBB14_13
# %bb.10:                               # %if.end.i.i6
	bnez	$a1, .LBB14_12
# %bb.11:                               # %if.then.i.i.i8
	ld.b	$a0, $s0, 0
	st.b	$a0, $s1, 0
	b	.LBB14_13
.LBB14_12:                              # %if.end.i.i.i.i9
	addi.d	$a2, $a1, 1
	move	$a0, $s1
	move	$a1, $s0
	pcaddu18i	$ra, %call36(memcpy)
	jirl	$ra, $ra, 0
.LBB14_13:                              # %invoke.cont
	ld.d	$a0, $sp, 16
	st.d	$a0, $fp, 40
	ld.d	$s4, $sp, 24                    # 8-byte Folded Reload
	ld.d	$s3, $sp, 32                    # 8-byte Folded Reload
	ld.d	$s2, $sp, 40                    # 8-byte Folded Reload
	ld.d	$s1, $sp, 48                    # 8-byte Folded Reload
	ld.d	$s0, $sp, 56                    # 8-byte Folded Reload
	ld.d	$fp, $sp, 64                    # 8-byte Folded Reload
	ld.d	$ra, $sp, 72                    # 8-byte Folded Reload
	addi.d	$sp, $sp, 80
	ret
.LBB14_14:                              # %lpad
.Ltmp126:                               # EH_LABEL
	ld.d	$a2, $fp, 0
	move	$fp, $a0
	beq	$a2, $s3, .LBB14_16
# %bb.15:                               # %if.then.i.i16
	ld.d	$a0, $s3, 0
	addi.d	$a1, $a0, 1
	move	$a0, $a2
	pcaddu18i	$ra, %call36(_ZdlPvm)
	jirl	$ra, $ra, 0
.LBB14_16:                              # %_ZNSt7__cxx1112basic_stringIcSt11char_traitsIcESaIcEED2Ev.exit
	move	$a0, $fp
	pcaddu18i	$ra, %call36(_Unwind_Resume)
	jirl	$ra, $ra, 0
.Lfunc_end14:
	.size	_ZN12_GLOBAL__N_18TestCaseC2ERKS0_, .Lfunc_end14-_ZN12_GLOBAL__N_18TestCaseC2ERKS0_
	.cfi_endproc
	.section	.gcc_except_table,"a",@progbits
	.p2align	2, 0x0
GCC_except_table14:
.Lexception9:
	.byte	255                             # @LPStart Encoding = omit
	.byte	255                             # @TType Encoding = omit
	.byte	1                               # Call site Encoding = uleb128
	.uleb128 .Lcst_end9-.Lcst_begin9
.Lcst_begin9:
	.uleb128 .Lfunc_begin9-.Lfunc_begin9    # >> Call Site 1 <<
	.uleb128 .Ltmp124-.Lfunc_begin9         #   Call between .Lfunc_begin9 and .Ltmp124
	.byte	0                               #     has no landing pad
	.byte	0                               #   On action: cleanup
	.uleb128 .Ltmp124-.Lfunc_begin9         # >> Call Site 2 <<
	.uleb128 .Ltmp125-.Ltmp124              #   Call between .Ltmp124 and .Ltmp125
	.uleb128 .Ltmp126-.Lfunc_begin9         #     jumps to .Ltmp126
	.byte	0                               #   On action: cleanup
	.uleb128 .Ltmp125-.Lfunc_begin9         # >> Call Site 3 <<
	.uleb128 .Lfunc_end14-.Ltmp125          #   Call between .Ltmp125 and .Lfunc_end14
	.byte	0                               #     has no landing pad
	.byte	0                               #   On action: cleanup
.Lcst_end9:
	.p2align	2, 0x0
                                        # -- End function
	.section	.text.__clang_call_terminate,"axG",@progbits,__clang_call_terminate,comdat
	.hidden	__clang_call_terminate          # -- Begin function __clang_call_terminate
	.weak	__clang_call_terminate
	.p2align	5
	.type	__clang_call_terminate,@function
__clang_call_terminate:                 # @__clang_call_terminate
# %bb.0:
	addi.d	$sp, $sp, -16
	st.d	$ra, $sp, 8                     # 8-byte Folded Spill
	pcaddu18i	$ra, %call36(__cxa_begin_catch)
	jirl	$ra, $ra, 0
	pcaddu18i	$ra, %call36(_ZSt9terminatev)
	jirl	$ra, $ra, 0
.Lfunc_end15:
	.size	__clang_call_terminate, .Lfunc_end15-__clang_call_terminate
                                        # -- End function
	.text
	.p2align	5                               # -- Begin function _ZZNSt6vectorIN12_GLOBAL__N_18TestCaseESaIS1_EE17_M_realloc_appendIJRKS1_EEEvDpOT_EN11_Guard_eltsD2Ev
	.type	_ZZNSt6vectorIN12_GLOBAL__N_18TestCaseESaIS1_EE17_M_realloc_appendIJRKS1_EEEvDpOT_EN11_Guard_eltsD2Ev,@function
_ZZNSt6vectorIN12_GLOBAL__N_18TestCaseESaIS1_EE17_M_realloc_appendIJRKS1_EEEvDpOT_EN11_Guard_eltsD2Ev: # @_ZZNSt6vectorIN12_GLOBAL__N_18TestCaseESaIS1_EE17_M_realloc_appendIJRKS1_EEEvDpOT_EN11_Guard_eltsD2Ev
	.cfi_startproc
# %bb.0:                                # %entry
	addi.d	$sp, $sp, -32
	.cfi_def_cfa_offset 32
	st.d	$ra, $sp, 24                    # 8-byte Folded Spill
	st.d	$fp, $sp, 16                    # 8-byte Folded Spill
	st.d	$s0, $sp, 8                     # 8-byte Folded Spill
	.cfi_offset 1, -8
	.cfi_offset 22, -16
	.cfi_offset 23, -24
	ld.d	$a1, $a0, 0
	ld.d	$fp, $a0, 8
	beq	$a1, $fp, .LBB16_7
# %bb.1:                                # %for.body.i.preheader
	addi.d	$s0, $a1, 48
	b	.LBB16_3
	.p2align	4, , 16
.LBB16_2:                               # %_ZSt8_DestroyIN12_GLOBAL__N_18TestCaseEEvPT_.exit.i
                                        #   in Loop: Header=BB16_3 Depth=1
	addi.d	$a0, $s0, 16
	addi.d	$s0, $s0, 64
	beq	$a0, $fp, .LBB16_7
.LBB16_3:                               # %for.body.i
                                        # =>This Inner Loop Header: Depth=1
	ld.d	$a0, $s0, -16
	beq	$s0, $a0, .LBB16_5
# %bb.4:                                # %if.then.i.i.i.i.i
                                        #   in Loop: Header=BB16_3 Depth=1
	ld.d	$a1, $s0, 0
	addi.d	$a1, $a1, 1
	pcaddu18i	$ra, %call36(_ZdlPvm)
	jirl	$ra, $ra, 0
.LBB16_5:                               # %_ZNSt7__cxx1112basic_stringIcSt11char_traitsIcESaIcEED2Ev.exit.i.i.i
                                        #   in Loop: Header=BB16_3 Depth=1
	ld.d	$a0, $s0, -48
	addi.d	$a1, $s0, -32
	beq	$a1, $a0, .LBB16_2
# %bb.6:                                # %if.then.i.i2.i.i.i
                                        #   in Loop: Header=BB16_3 Depth=1
	ld.d	$a1, $a1, 0
	addi.d	$a1, $a1, 1
	pcaddu18i	$ra, %call36(_ZdlPvm)
	jirl	$ra, $ra, 0
	b	.LBB16_2
.LBB16_7:                               # %invoke.cont
	ld.d	$s0, $sp, 8                     # 8-byte Folded Reload
	ld.d	$fp, $sp, 16                    # 8-byte Folded Reload
	ld.d	$ra, $sp, 24                    # 8-byte Folded Reload
	addi.d	$sp, $sp, 32
	ret
.Lfunc_end16:
	.size	_ZZNSt6vectorIN12_GLOBAL__N_18TestCaseESaIS1_EE17_M_realloc_appendIJRKS1_EEEvDpOT_EN11_Guard_eltsD2Ev, .Lfunc_end16-_ZZNSt6vectorIN12_GLOBAL__N_18TestCaseESaIS1_EE17_M_realloc_appendIJRKS1_EEEvDpOT_EN11_Guard_eltsD2Ev
	.cfi_endproc
                                        # -- End function
	.p2align	5                               # -- Begin function _ZSt8_DestroyIPN12_GLOBAL__N_18TestCaseEEvT_S3_
	.type	_ZSt8_DestroyIPN12_GLOBAL__N_18TestCaseEEvT_S3_,@function
_ZSt8_DestroyIPN12_GLOBAL__N_18TestCaseEEvT_S3_: # @_ZSt8_DestroyIPN12_GLOBAL__N_18TestCaseEEvT_S3_
	.cfi_startproc
# %bb.0:                                # %entry
	beq	$a0, $a1, .LBB17_8
# %bb.1:                                # %for.body.preheader
	addi.d	$sp, $sp, -32
	.cfi_def_cfa_offset 32
	st.d	$ra, $sp, 24                    # 8-byte Folded Spill
	st.d	$fp, $sp, 16                    # 8-byte Folded Spill
	st.d	$s0, $sp, 8                     # 8-byte Folded Spill
	.cfi_offset 1, -8
	.cfi_offset 22, -16
	.cfi_offset 23, -24
	move	$fp, $a1
	addi.d	$s0, $a0, 48
	b	.LBB17_3
	.p2align	4, , 16
.LBB17_2:                               # %_ZSt8_DestroyIN12_GLOBAL__N_18TestCaseEEvPT_.exit
                                        #   in Loop: Header=BB17_3 Depth=1
	addi.d	$a0, $s0, 16
	addi.d	$s0, $s0, 64
	beq	$a0, $fp, .LBB17_7
.LBB17_3:                               # %for.body
                                        # =>This Inner Loop Header: Depth=1
	ld.d	$a0, $s0, -16
	beq	$s0, $a0, .LBB17_5
# %bb.4:                                # %if.then.i.i.i.i
                                        #   in Loop: Header=BB17_3 Depth=1
	ld.d	$a1, $s0, 0
	addi.d	$a1, $a1, 1
	pcaddu18i	$ra, %call36(_ZdlPvm)
	jirl	$ra, $ra, 0
.LBB17_5:                               # %_ZNSt7__cxx1112basic_stringIcSt11char_traitsIcESaIcEED2Ev.exit.i.i
                                        #   in Loop: Header=BB17_3 Depth=1
	ld.d	$a0, $s0, -48
	addi.d	$a1, $s0, -32
	beq	$a1, $a0, .LBB17_2
# %bb.6:                                # %if.then.i.i2.i.i
                                        #   in Loop: Header=BB17_3 Depth=1
	ld.d	$a1, $a1, 0
	addi.d	$a1, $a1, 1
	pcaddu18i	$ra, %call36(_ZdlPvm)
	jirl	$ra, $ra, 0
	b	.LBB17_2
.LBB17_7:
	ld.d	$s0, $sp, 8                     # 8-byte Folded Reload
	ld.d	$fp, $sp, 16                    # 8-byte Folded Reload
	ld.d	$ra, $sp, 24                    # 8-byte Folded Reload
	addi.d	$sp, $sp, 32
.LBB17_8:                               # %for.end
	ret
.Lfunc_end17:
	.size	_ZSt8_DestroyIPN12_GLOBAL__N_18TestCaseEEvT_S3_, .Lfunc_end17-_ZSt8_DestroyIPN12_GLOBAL__N_18TestCaseEEvT_S3_
	.cfi_endproc
                                        # -- End function
	.section	.text._ZN9benchmark17BenchmarkReporter16ReportRunsConfigEdbl,"axG",@progbits,_ZN9benchmark17BenchmarkReporter16ReportRunsConfigEdbl,comdat
	.hidden	_ZN9benchmark17BenchmarkReporter16ReportRunsConfigEdbl # -- Begin function _ZN9benchmark17BenchmarkReporter16ReportRunsConfigEdbl
	.weak	_ZN9benchmark17BenchmarkReporter16ReportRunsConfigEdbl
	.p2align	5
	.type	_ZN9benchmark17BenchmarkReporter16ReportRunsConfigEdbl,@function
_ZN9benchmark17BenchmarkReporter16ReportRunsConfigEdbl: # @_ZN9benchmark17BenchmarkReporter16ReportRunsConfigEdbl
# %bb.0:                                # %entry
	ret
.Lfunc_end18:
	.size	_ZN9benchmark17BenchmarkReporter16ReportRunsConfigEdbl, .Lfunc_end18-_ZN9benchmark17BenchmarkReporter16ReportRunsConfigEdbl
                                        # -- End function
	.text
	.p2align	5                               # -- Begin function _ZN12_GLOBAL__N_112TestReporter10ReportRunsERKSt6vectorIN9benchmark17BenchmarkReporter3RunESaIS4_EE
	.type	_ZN12_GLOBAL__N_112TestReporter10ReportRunsERKSt6vectorIN9benchmark17BenchmarkReporter3RunESaIS4_EE,@function
_ZN12_GLOBAL__N_112TestReporter10ReportRunsERKSt6vectorIN9benchmark17BenchmarkReporter3RunESaIS4_EE: # @_ZN12_GLOBAL__N_112TestReporter10ReportRunsERKSt6vectorIN9benchmark17BenchmarkReporter3RunESaIS4_EE
	.cfi_startproc
# %bb.0:                                # %entry
	addi.d	$sp, $sp, -32
	.cfi_def_cfa_offset 32
	st.d	$ra, $sp, 24                    # 8-byte Folded Spill
	st.d	$fp, $sp, 16                    # 8-byte Folded Spill
	st.d	$s0, $sp, 8                     # 8-byte Folded Spill
	.cfi_offset 1, -8
	.cfi_offset 22, -16
	.cfi_offset 23, -24
	move	$fp, $a1
	move	$s0, $a0
	ld.d	$a1, $a0, 104
	ld.d	$a2, $fp, 0
	ld.d	$a3, $fp, 8
	addi.d	$a0, $a0, 96
	move	$a4, $zero
	pcaddu18i	$ra, %call36(_ZNSt6vectorIN9benchmark17BenchmarkReporter3RunESaIS2_EE15_M_range_insertIN9__gnu_cxx17__normal_iteratorIPKS2_S4_EEEEvNS7_IPS2_S4_EET_SD_St20forward_iterator_tag)
	jirl	$ra, $ra, 0
	move	$a0, $s0
	move	$a1, $fp
	ld.d	$s0, $sp, 8                     # 8-byte Folded Reload
	ld.d	$fp, $sp, 16                    # 8-byte Folded Reload
	ld.d	$ra, $sp, 24                    # 8-byte Folded Reload
	addi.d	$sp, $sp, 32
	pcaddu18i	$t8, %call36(_ZN9benchmark15ConsoleReporter10ReportRunsERKSt6vectorINS_17BenchmarkReporter3RunESaIS3_EE)
	jr	$t8
.Lfunc_end19:
	.size	_ZN12_GLOBAL__N_112TestReporter10ReportRunsERKSt6vectorIN9benchmark17BenchmarkReporter3RunESaIS4_EE, .Lfunc_end19-_ZN12_GLOBAL__N_112TestReporter10ReportRunsERKSt6vectorIN9benchmark17BenchmarkReporter3RunESaIS4_EE
	.cfi_endproc
                                        # -- End function
	.section	.text._ZN9benchmark17BenchmarkReporter8FinalizeEv,"axG",@progbits,_ZN9benchmark17BenchmarkReporter8FinalizeEv,comdat
	.hidden	_ZN9benchmark17BenchmarkReporter8FinalizeEv # -- Begin function _ZN9benchmark17BenchmarkReporter8FinalizeEv
	.weak	_ZN9benchmark17BenchmarkReporter8FinalizeEv
	.p2align	5
	.type	_ZN9benchmark17BenchmarkReporter8FinalizeEv,@function
_ZN9benchmark17BenchmarkReporter8FinalizeEv: # @_ZN9benchmark17BenchmarkReporter8FinalizeEv
# %bb.0:                                # %entry
	ret
.Lfunc_end20:
	.size	_ZN9benchmark17BenchmarkReporter8FinalizeEv, .Lfunc_end20-_ZN9benchmark17BenchmarkReporter8FinalizeEv
                                        # -- End function
	.text
	.p2align	5                               # -- Begin function _ZN12_GLOBAL__N_112TestReporterD0Ev
	.type	_ZN12_GLOBAL__N_112TestReporterD0Ev,@function
_ZN12_GLOBAL__N_112TestReporterD0Ev:    # @_ZN12_GLOBAL__N_112TestReporterD0Ev
.Lfunc_begin10:
	.cfi_startproc
	.cfi_personality 155, DW.ref.__gxx_personality_v0
	.cfi_lsda 27, .Lexception10
# %bb.0:                                # %entry
	addi.d	$sp, $sp, -16
	.cfi_def_cfa_offset 16
	st.d	$ra, $sp, 8                     # 8-byte Folded Spill
	st.d	$fp, $sp, 0                     # 8-byte Folded Spill
	.cfi_offset 1, -8
	.cfi_offset 22, -16
	move	$fp, $a0
	pcalau12i	$a0, %pc_hi20(_ZTVN12_GLOBAL__N_112TestReporterE+16)
	addi.d	$a0, $a0, %pc_lo12(_ZTVN12_GLOBAL__N_112TestReporterE+16)
	st.d	$a0, $fp, 0
	addi.d	$a0, $fp, 96
	pcaddu18i	$ra, %call36(_ZNSt6vectorIN9benchmark17BenchmarkReporter3RunESaIS2_EED2Ev)
	jirl	$ra, $ra, 0
	pcalau12i	$a0, %got_pc_hi20(_ZTVN9benchmark15ConsoleReporterE)
	ld.d	$a0, $a0, %got_pc_lo12(_ZTVN9benchmark15ConsoleReporterE)
	ld.d	$a1, $fp, 56
	addi.d	$a0, $a0, 16
	st.d	$a0, $fp, 0
	addi.d	$a0, $fp, 40
.Ltmp127:                               # EH_LABEL
	pcaddu18i	$ra, %call36(_ZNSt8_Rb_treeINSt7__cxx1112basic_stringIcSt11char_traitsIcESaIcEEESt4pairIKS5_N9benchmark7CounterEESt10_Select1stISA_ESt4lessIS5_ESaISA_EE8_M_eraseEPSt13_Rb_tree_nodeISA_E)
	jirl	$ra, $ra, 0
.Ltmp128:                               # EH_LABEL
# %bb.1:                                # %_ZN12_GLOBAL__N_112TestReporterD2Ev.exit
	move	$a0, $fp
	pcaddu18i	$ra, %call36(_ZN9benchmark17BenchmarkReporterD2Ev)
	jirl	$ra, $ra, 0
	ori	$a1, $zero, 120
	move	$a0, $fp
	ld.d	$fp, $sp, 0                     # 8-byte Folded Reload
	ld.d	$ra, $sp, 8                     # 8-byte Folded Reload
	addi.d	$sp, $sp, 16
	pcaddu18i	$t8, %call36(_ZdlPvm)
	jr	$t8
.LBB21_2:                               # %terminate.lpad.i.i.i.i
.Ltmp129:                               # EH_LABEL
	pcaddu18i	$ra, %call36(__clang_call_terminate)
	jirl	$ra, $ra, 0
.Lfunc_end21:
	.size	_ZN12_GLOBAL__N_112TestReporterD0Ev, .Lfunc_end21-_ZN12_GLOBAL__N_112TestReporterD0Ev
	.cfi_endproc
	.section	.gcc_except_table,"a",@progbits
	.p2align	2, 0x0
GCC_except_table21:
.Lexception10:
	.byte	255                             # @LPStart Encoding = omit
	.byte	155                             # @TType Encoding = indirect pcrel sdata4
	.uleb128 .Lttbase4-.Lttbaseref4
.Lttbaseref4:
	.byte	1                               # Call site Encoding = uleb128
	.uleb128 .Lcst_end10-.Lcst_begin10
.Lcst_begin10:
	.uleb128 .Lfunc_begin10-.Lfunc_begin10  # >> Call Site 1 <<
	.uleb128 .Ltmp127-.Lfunc_begin10        #   Call between .Lfunc_begin10 and .Ltmp127
	.byte	0                               #     has no landing pad
	.byte	0                               #   On action: cleanup
	.uleb128 .Ltmp127-.Lfunc_begin10        # >> Call Site 2 <<
	.uleb128 .Ltmp128-.Ltmp127              #   Call between .Ltmp127 and .Ltmp128
	.uleb128 .Ltmp129-.Lfunc_begin10        #     jumps to .Ltmp129
	.byte	1                               #   On action: 1
	.uleb128 .Ltmp128-.Lfunc_begin10        # >> Call Site 3 <<
	.uleb128 .Lfunc_end21-.Ltmp128          #   Call between .Ltmp128 and .Lfunc_end21
	.byte	0                               #     has no landing pad
	.byte	0                               #   On action: cleanup
.Lcst_end10:
	.byte	1                               # >> Action Record 1 <<
                                        #   Catch TypeInfo 1
	.byte	0                               #   No further actions
	.p2align	2, 0x0
                                        # >> Catch TypeInfos <<
	.word	0                               # TypeInfo 1
.Lttbase4:
	.p2align	2, 0x0
                                        # -- End function
	.section	.text._ZNSt6vectorIN9benchmark17BenchmarkReporter3RunESaIS2_EE15_M_range_insertIN9__gnu_cxx17__normal_iteratorIPKS2_S4_EEEEvNS7_IPS2_S4_EET_SD_St20forward_iterator_tag,"axG",@progbits,_ZNSt6vectorIN9benchmark17BenchmarkReporter3RunESaIS2_EE15_M_range_insertIN9__gnu_cxx17__normal_iteratorIPKS2_S4_EEEEvNS7_IPS2_S4_EET_SD_St20forward_iterator_tag,comdat
	.hidden	_ZNSt6vectorIN9benchmark17BenchmarkReporter3RunESaIS2_EE15_M_range_insertIN9__gnu_cxx17__normal_iteratorIPKS2_S4_EEEEvNS7_IPS2_S4_EET_SD_St20forward_iterator_tag # -- Begin function _ZNSt6vectorIN9benchmark17BenchmarkReporter3RunESaIS2_EE15_M_range_insertIN9__gnu_cxx17__normal_iteratorIPKS2_S4_EEEEvNS7_IPS2_S4_EET_SD_St20forward_iterator_tag
	.weak	_ZNSt6vectorIN9benchmark17BenchmarkReporter3RunESaIS2_EE15_M_range_insertIN9__gnu_cxx17__normal_iteratorIPKS2_S4_EEEEvNS7_IPS2_S4_EET_SD_St20forward_iterator_tag
	.p2align	5
	.type	_ZNSt6vectorIN9benchmark17BenchmarkReporter3RunESaIS2_EE15_M_range_insertIN9__gnu_cxx17__normal_iteratorIPKS2_S4_EEEEvNS7_IPS2_S4_EET_SD_St20forward_iterator_tag,@function
_ZNSt6vectorIN9benchmark17BenchmarkReporter3RunESaIS2_EE15_M_range_insertIN9__gnu_cxx17__normal_iteratorIPKS2_S4_EEEEvNS7_IPS2_S4_EET_SD_St20forward_iterator_tag: # @_ZNSt6vectorIN9benchmark17BenchmarkReporter3RunESaIS2_EE15_M_range_insertIN9__gnu_cxx17__normal_iteratorIPKS2_S4_EEEEvNS7_IPS2_S4_EET_SD_St20forward_iterator_tag
.Lfunc_begin11:
	.cfi_startproc
	.cfi_personality 155, DW.ref.__gxx_personality_v0
	.cfi_lsda 27, .Lexception11
# %bb.0:                                # %entry
	addi.d	$sp, $sp, -128
	.cfi_def_cfa_offset 128
	st.d	$ra, $sp, 120                   # 8-byte Folded Spill
	st.d	$fp, $sp, 112                   # 8-byte Folded Spill
	st.d	$s0, $sp, 104                   # 8-byte Folded Spill
	st.d	$s1, $sp, 96                    # 8-byte Folded Spill
	st.d	$s2, $sp, 88                    # 8-byte Folded Spill
	st.d	$s3, $sp, 80                    # 8-byte Folded Spill
	st.d	$s4, $sp, 72                    # 8-byte Folded Spill
	st.d	$s5, $sp, 64                    # 8-byte Folded Spill
	st.d	$s6, $sp, 56                    # 8-byte Folded Spill
	st.d	$s7, $sp, 48                    # 8-byte Folded Spill
	st.d	$s8, $sp, 40                    # 8-byte Folded Spill
	.cfi_offset 1, -8
	.cfi_offset 22, -16
	.cfi_offset 23, -24
	.cfi_offset 24, -32
	.cfi_offset 25, -40
	.cfi_offset 26, -48
	.cfi_offset 27, -56
	.cfi_offset 28, -64
	.cfi_offset 29, -72
	.cfi_offset 30, -80
	.cfi_offset 31, -88
	beq	$a3, $a2, .LBB22_41
# %bb.1:                                # %if.then
	move	$s2, $a3
	move	$s1, $a2
	move	$s0, $a1
	move	$fp, $a0
	sub.d	$s3, $a3, $a2
	srai.d	$a1, $s3, 4
	lu12i.w	$a0, -479350
	ld.d	$a2, $fp, 16
	ld.d	$s8, $fp, 8
	ori	$a0, $a0, 3979
	lu32i.d	$a0, -329553
	lu52i.d	$a0, $a0, -1288
	sub.d	$a2, $a2, $s8
	mul.d	$s6, $a1, $a0
	bgeu	$a2, $s3, .LBB22_21
# %bb.2:                                # %if.else83
	ld.d	$s4, $fp, 0
	sub.d	$a1, $s8, $s4
	srli.d	$a1, $a1, 4
	mul.d	$a1, $a1, $a0
	lu12i.w	$a0, 239674
	ori	$a0, $a0, 2106
	bstrins.d	$a0, $a0, 53, 24
	sub.d	$a2, $a0, $a1
	bltu	$a2, $s6, .LBB22_42
# %bb.3:                                # %_ZNSt12_Vector_baseIN9benchmark17BenchmarkReporter3RunESaIS2_EE11_M_allocateEm.exit
	sltu	$a2, $s6, $a1
	masknez	$a3, $s6, $a2
	maskeqz	$a2, $a1, $a2
	or	$a2, $a2, $a3
	add.d	$a1, $a2, $a1
	sltu	$a2, $a1, $a0
	maskeqz	$a1, $a1, $a2
	masknez	$a0, $a0, $a2
	or	$a1, $a1, $a0
	ori	$a0, $zero, 560
	st.d	$a1, $sp, 8                     # 8-byte Folded Spill
	mul.d	$s6, $a1, $a0
	move	$a0, $s6
	pcaddu18i	$ra, %call36(_Znwm)
	jirl	$ra, $ra, 0
	move	$s3, $a0
	move	$s7, $a0
	beq	$s4, $s0, .LBB22_6
# %bb.4:                                # %for.body.i.i.i.i54.preheader
	move	$s5, $s4
	move	$s7, $s3
	.p2align	4, , 16
.LBB22_5:                               # %for.body.i.i.i.i54
                                        # =>This Inner Loop Header: Depth=1
	move	$a0, $s7
	move	$a1, $s5
	pcaddu18i	$ra, %call36(_ZN9benchmark17BenchmarkReporter3RunC2EOS1_)
	jirl	$ra, $ra, 0
	addi.d	$s5, $s5, 560
	addi.d	$s7, $s7, 560
	bne	$s5, $s0, .LBB22_5
.LBB22_6:                               # %invoke.cont
	st.d	$s7, $sp, 32
	st.d	$s7, $sp, 16
	addi.d	$a0, $sp, 32
	st.d	$a0, $sp, 24
	move	$s5, $s7
	.p2align	4, , 16
.LBB22_7:                               # %for.body.i.i.i66
                                        # =>This Inner Loop Header: Depth=1
.Ltmp133:                               # EH_LABEL
	move	$a0, $s5
	move	$a1, $s1
	pcaddu18i	$ra, %call36(_ZN9benchmark17BenchmarkReporter3RunC2ERKS1_)
	jirl	$ra, $ra, 0
.Ltmp134:                               # EH_LABEL
# %bb.8:                                # %for.inc.i.i.i69
                                        #   in Loop: Header=BB22_7 Depth=1
	ld.d	$a0, $sp, 32
	addi.d	$s1, $s1, 560
	addi.d	$s5, $a0, 560
	st.d	$s5, $sp, 32
	bne	$s1, $s2, .LBB22_7
# %bb.9:                                # %invoke.cont100
	beq	$s8, $s0, .LBB22_11
	.p2align	4, , 16
.LBB22_10:                              # %for.body.i.i.i.i75
                                        # =>This Inner Loop Header: Depth=1
	move	$a0, $s5
	move	$a1, $s0
	pcaddu18i	$ra, %call36(_ZN9benchmark17BenchmarkReporter3RunC2EOS1_)
	jirl	$ra, $ra, 0
	addi.d	$s0, $s0, 560
	addi.d	$s5, $s5, 560
	bne	$s0, $s8, .LBB22_10
.LBB22_11:                              # %invoke.cont104
	beq	$s4, $s8, .LBB22_28
# %bb.12:                               # %for.body.i.preheader
	move	$s0, $s4
	b	.LBB22_14
	.p2align	4, , 16
.LBB22_13:                              # %_ZSt8_DestroyIN9benchmark17BenchmarkReporter3RunEEvPT_.exit.i
                                        #   in Loop: Header=BB22_14 Depth=1
	move	$a0, $s0
	pcaddu18i	$ra, %call36(_ZN9benchmark13BenchmarkNameD2Ev)
	jirl	$ra, $ra, 0
	addi.d	$s0, $s0, 560
	beq	$s0, $s8, .LBB22_28
.LBB22_14:                              # %for.body.i
                                        # =>This Inner Loop Header: Depth=1
	ld.d	$a1, $s0, 512
	addi.d	$a0, $s0, 496
.Ltmp144:                               # EH_LABEL
	pcaddu18i	$ra, %call36(_ZNSt8_Rb_treeINSt7__cxx1112basic_stringIcSt11char_traitsIcESaIcEEESt4pairIKS5_N9benchmark7CounterEESt10_Select1stISA_ESt4lessIS5_ESaISA_EE8_M_eraseEPSt13_Rb_tree_nodeISA_E)
	jirl	$ra, $ra, 0
.Ltmp145:                               # EH_LABEL
# %bb.15:                               # %_ZNSt3mapINSt7__cxx1112basic_stringIcSt11char_traitsIcESaIcEEEN9benchmark7CounterESt4lessIS5_ESaISt4pairIKS5_S7_EEED2Ev.exit.i.i.i
                                        #   in Loop: Header=BB22_14 Depth=1
	ld.d	$a0, $s0, 360
	addi.d	$a1, $s0, 376
	beq	$a1, $a0, .LBB22_17
# %bb.16:                               # %if.then.i.i.i.i.i
                                        #   in Loop: Header=BB22_14 Depth=1
	ld.d	$a1, $a1, 0
	addi.d	$a1, $a1, 1
	pcaddu18i	$ra, %call36(_ZdlPvm)
	jirl	$ra, $ra, 0
.LBB22_17:                              # %_ZNSt7__cxx1112basic_stringIcSt11char_traitsIcESaIcEED2Ev.exit.i.i.i
                                        #   in Loop: Header=BB22_14 Depth=1
	ld.d	$a0, $s0, 320
	addi.d	$a1, $s0, 336
	beq	$a1, $a0, .LBB22_19
# %bb.18:                               # %if.then.i.i2.i.i.i
                                        #   in Loop: Header=BB22_14 Depth=1
	ld.d	$a1, $a1, 0
	addi.d	$a1, $a1, 1
	pcaddu18i	$ra, %call36(_ZdlPvm)
	jirl	$ra, $ra, 0
.LBB22_19:                              # %_ZNSt7__cxx1112basic_stringIcSt11char_traitsIcESaIcEED2Ev.exit7.i.i.i
                                        #   in Loop: Header=BB22_14 Depth=1
	ld.d	$a0, $s0, 280
	addi.d	$a1, $s0, 296
	beq	$a1, $a0, .LBB22_13
# %bb.20:                               # %if.then.i.i9.i.i.i
                                        #   in Loop: Header=BB22_14 Depth=1
	ld.d	$a1, $a1, 0
	addi.d	$a1, $a1, 1
	pcaddu18i	$ra, %call36(_ZdlPvm)
	jirl	$ra, $ra, 0
	b	.LBB22_13
.LBB22_21:                              # %if.then13
	sub.d	$s5, $s8, $s0
	srai.d	$a1, $s5, 4
	mul.d	$s7, $a1, $a0
	bgeu	$s6, $s7, .LBB22_31
# %bb.22:                               # %if.then21
	move	$s6, $zero
	sub.d	$s4, $zero, $s3
	sub.d	$s5, $s8, $s3
	.p2align	4, , 16
.LBB22_23:                              # %for.body.i.i.i.i
                                        # =>This Inner Loop Header: Depth=1
	add.d	$a1, $s5, $s6
	add.d	$a0, $s8, $s6
	pcaddu18i	$ra, %call36(_ZN9benchmark17BenchmarkReporter3RunC2EOS1_)
	jirl	$ra, $ra, 0
	addi.d	$s6, $s6, 560
	add.d	$a0, $s4, $s6
	bnez	$a0, .LBB22_23
# %bb.24:                               # %_ZSt22__uninitialized_move_aIPN9benchmark17BenchmarkReporter3RunES3_SaIS2_EET0_T_S6_S5_RT1_.exit
	ld.d	$a0, $fp, 8
	add.d	$a0, $a0, $s3
	st.d	$a0, $fp, 8
	beq	$s5, $s0, .LBB22_27
# %bb.25:                               # %while.body.i.preheader
	addi.d	$fp, $s8, -560
	.p2align	4, , 16
.LBB22_26:                              # %while.body.i
                                        # =>This Inner Loop Header: Depth=1
	add.d	$a1, $fp, $s4
	move	$a0, $fp
	pcaddu18i	$ra, %call36(_ZN9benchmark17BenchmarkReporter3RunaSEOS1_)
	jirl	$ra, $ra, 0
	addi.d	$fp, $fp, -560
	add.d	$a0, $fp, $s4
	addi.d	$a0, $a0, 560
	bne	$a0, $s0, .LBB22_26
.LBB22_27:                              # %_ZSt23__copy_move_backward_a2ILb1EPN9benchmark17BenchmarkReporter3RunES3_ET1_T0_S5_S4_.exit
	move	$a0, $s1
	move	$a1, $s2
	move	$a2, $s0
	ld.d	$s8, $sp, 40                    # 8-byte Folded Reload
	ld.d	$s7, $sp, 48                    # 8-byte Folded Reload
	ld.d	$s6, $sp, 56                    # 8-byte Folded Reload
	ld.d	$s5, $sp, 64                    # 8-byte Folded Reload
	ld.d	$s4, $sp, 72                    # 8-byte Folded Reload
	ld.d	$s3, $sp, 80                    # 8-byte Folded Reload
	ld.d	$s2, $sp, 88                    # 8-byte Folded Reload
	ld.d	$s1, $sp, 96                    # 8-byte Folded Reload
	ld.d	$s0, $sp, 104                   # 8-byte Folded Reload
	ld.d	$fp, $sp, 112                   # 8-byte Folded Reload
	ld.d	$ra, $sp, 120                   # 8-byte Folded Reload
	addi.d	$sp, $sp, 128
	pcaddu18i	$t8, %call36(_ZSt14__copy_move_a2ILb0EPKN9benchmark17BenchmarkReporter3RunES4_PS2_ET2_T0_T1_S6_)
	jr	$t8
.LBB22_28:                              # %_ZSt8_DestroyIPN9benchmark17BenchmarkReporter3RunEEvT_S4_.exit
	beqz	$s4, .LBB22_30
# %bb.29:                               # %if.then.i85
	ld.d	$a0, $fp, 16
	sub.d	$a1, $a0, $s4
	move	$a0, $s4
	pcaddu18i	$ra, %call36(_ZdlPvm)
	jirl	$ra, $ra, 0
.LBB22_30:                              # %_ZNSt12_Vector_baseIN9benchmark17BenchmarkReporter3RunESaIS2_EE13_M_deallocateEPS2_m.exit
	st.d	$s3, $fp, 0
	st.d	$s5, $fp, 8
	ori	$a0, $zero, 560
	ld.d	$a1, $sp, 8                     # 8-byte Folded Reload
	mul.d	$a0, $a1, $a0
	add.d	$a0, $s3, $a0
	st.d	$a0, $fp, 16
	b	.LBB22_41
.LBB22_31:                              # %_ZSt9__advanceIN9__gnu_cxx17__normal_iteratorIPKN9benchmark17BenchmarkReporter3RunESt6vectorIS4_SaIS4_EEEElEvRT_T0_St26random_access_iterator_tag.exit
	add.d	$s3, $s1, $s5
	st.d	$s8, $sp, 32
	st.d	$s8, $sp, 16
	addi.d	$a0, $sp, 32
	st.d	$a0, $sp, 24
	move	$a0, $s8
	beq	$s2, $s3, .LBB22_36
# %bb.32:                               # %for.body.i.i.i.preheader
	move	$a0, $s8
	move	$s4, $s3
	.p2align	4, , 16
.LBB22_33:                              # %for.body.i.i.i
                                        # =>This Inner Loop Header: Depth=1
.Ltmp130:                               # EH_LABEL
	move	$a1, $s4
	pcaddu18i	$ra, %call36(_ZN9benchmark17BenchmarkReporter3RunC2ERKS1_)
	jirl	$ra, $ra, 0
.Ltmp131:                               # EH_LABEL
# %bb.34:                               # %for.inc.i.i.i
                                        #   in Loop: Header=BB22_33 Depth=1
	ld.d	$a0, $sp, 32
	addi.d	$s4, $s4, 560
	addi.d	$a0, $a0, 560
	st.d	$a0, $sp, 32
	bne	$s4, $s2, .LBB22_33
# %bb.35:                               # %_ZSt22__uninitialized_copy_aIN9__gnu_cxx17__normal_iteratorIPKN9benchmark17BenchmarkReporter3RunESt6vectorIS4_SaIS4_EEEESA_PS4_S4_ET1_T_T0_SC_RSaIT2_E.exit.loopexit
	ld.d	$a0, $fp, 8
.LBB22_36:                              # %_ZSt22__uninitialized_copy_aIN9__gnu_cxx17__normal_iteratorIPKN9benchmark17BenchmarkReporter3RunESt6vectorIS4_SaIS4_EEEESA_PS4_S4_ET1_T_T0_SC_RSaIT2_E.exit
	sub.d	$a1, $s6, $s7
	ori	$a2, $zero, 560
	mul.d	$a1, $a1, $a2
	add.d	$s2, $a0, $a1
	st.d	$s2, $fp, 8
	beq	$s8, $s0, .LBB22_40
# %bb.37:                               # %for.body.i.i.i.i35.preheader
	move	$s4, $s0
	.p2align	4, , 16
.LBB22_38:                              # %for.body.i.i.i.i35
                                        # =>This Inner Loop Header: Depth=1
	move	$a0, $s2
	move	$a1, $s4
	pcaddu18i	$ra, %call36(_ZN9benchmark17BenchmarkReporter3RunC2EOS1_)
	jirl	$ra, $ra, 0
	addi.d	$s4, $s4, 560
	addi.d	$s2, $s2, 560
	bne	$s4, $s8, .LBB22_38
# %bb.39:                               # %_ZSt22__uninitialized_move_aIPN9benchmark17BenchmarkReporter3RunES3_SaIS2_EET0_T_S6_S5_RT1_.exit42.loopexit
	ld.d	$s2, $fp, 8
.LBB22_40:                              # %_ZSt22__uninitialized_move_aIPN9benchmark17BenchmarkReporter3RunES3_SaIS2_EET0_T_S6_S5_RT1_.exit42
	add.d	$a0, $s2, $s5
	st.d	$a0, $fp, 8
	move	$a0, $s1
	move	$a1, $s3
	move	$a2, $s0
	pcaddu18i	$ra, %call36(_ZSt14__copy_move_a2ILb0EPKN9benchmark17BenchmarkReporter3RunES4_PS2_ET2_T0_T1_S6_)
	jirl	$ra, $ra, 0
.LBB22_41:                              # %if.end126
	ld.d	$s8, $sp, 40                    # 8-byte Folded Reload
	ld.d	$s7, $sp, 48                    # 8-byte Folded Reload
	ld.d	$s6, $sp, 56                    # 8-byte Folded Reload
	ld.d	$s5, $sp, 64                    # 8-byte Folded Reload
	ld.d	$s4, $sp, 72                    # 8-byte Folded Reload
	ld.d	$s3, $sp, 80                    # 8-byte Folded Reload
	ld.d	$s2, $sp, 88                    # 8-byte Folded Reload
	ld.d	$s1, $sp, 96                    # 8-byte Folded Reload
	ld.d	$s0, $sp, 104                   # 8-byte Folded Reload
	ld.d	$fp, $sp, 112                   # 8-byte Folded Reload
	ld.d	$ra, $sp, 120                   # 8-byte Folded Reload
	addi.d	$sp, $sp, 128
	ret
.LBB22_42:                              # %if.then.i49
	pcalau12i	$a0, %pc_hi20(.L.str.33)
	addi.d	$a0, $a0, %pc_lo12(.L.str.33)
	pcaddu18i	$ra, %call36(_ZSt20__throw_length_errorPKc)
	jirl	$ra, $ra, 0
.LBB22_43:                              # %lpad.i.i.i
.Ltmp132:                               # EH_LABEL
	move	$fp, $a0
	addi.d	$a0, $sp, 16
	pcaddu18i	$ra, %call36(_ZNSt19_UninitDestroyGuardIPN9benchmark17BenchmarkReporter3RunEvED2Ev)
	jirl	$ra, $ra, 0
	move	$a0, $fp
	pcaddu18i	$ra, %call36(_Unwind_Resume)
	jirl	$ra, $ra, 0
.LBB22_44:                              # %terminate.lpad.i.i.i.i.i
.Ltmp146:                               # EH_LABEL
	pcaddu18i	$ra, %call36(__clang_call_terminate)
	jirl	$ra, $ra, 0
.LBB22_45:                              # %lpad.i.i.i68
.Ltmp135:                               # EH_LABEL
	move	$fp, $a0
	addi.d	$a0, $sp, 16
	pcaddu18i	$ra, %call36(_ZNSt19_UninitDestroyGuardIPN9benchmark17BenchmarkReporter3RunEvED2Ev)
	jirl	$ra, $ra, 0
	move	$a0, $fp
	pcaddu18i	$ra, %call36(__cxa_begin_catch)
	jirl	$ra, $ra, 0
.Ltmp136:                               # EH_LABEL
	move	$a0, $s3
	move	$a1, $s7
	pcaddu18i	$ra, %call36(_ZSt8_DestroyIPN9benchmark17BenchmarkReporter3RunEEvT_S4_)
	jirl	$ra, $ra, 0
.Ltmp137:                               # EH_LABEL
# %bb.46:                               # %invoke.cont109
	move	$a0, $s3
	move	$a1, $s6
	pcaddu18i	$ra, %call36(_ZdlPvm)
	jirl	$ra, $ra, 0
.Ltmp138:                               # EH_LABEL
	pcaddu18i	$ra, %call36(__cxa_rethrow)
	jirl	$ra, $ra, 0
.Ltmp139:                               # EH_LABEL
# %bb.47:                               # %unreachable
.LBB22_48:                              # %lpad107
.Ltmp140:                               # EH_LABEL
	move	$fp, $a0
.Ltmp141:                               # EH_LABEL
	pcaddu18i	$ra, %call36(__cxa_end_catch)
	jirl	$ra, $ra, 0
.Ltmp142:                               # EH_LABEL
# %bb.49:                               # %common.resume
	move	$a0, $fp
	pcaddu18i	$ra, %call36(_Unwind_Resume)
	jirl	$ra, $ra, 0
.LBB22_50:                              # %terminate.lpad
.Ltmp143:                               # EH_LABEL
	pcaddu18i	$ra, %call36(__clang_call_terminate)
	jirl	$ra, $ra, 0
.Lfunc_end22:
	.size	_ZNSt6vectorIN9benchmark17BenchmarkReporter3RunESaIS2_EE15_M_range_insertIN9__gnu_cxx17__normal_iteratorIPKS2_S4_EEEEvNS7_IPS2_S4_EET_SD_St20forward_iterator_tag, .Lfunc_end22-_ZNSt6vectorIN9benchmark17BenchmarkReporter3RunESaIS2_EE15_M_range_insertIN9__gnu_cxx17__normal_iteratorIPKS2_S4_EEEEvNS7_IPS2_S4_EET_SD_St20forward_iterator_tag
	.cfi_endproc
	.section	.gcc_except_table._ZNSt6vectorIN9benchmark17BenchmarkReporter3RunESaIS2_EE15_M_range_insertIN9__gnu_cxx17__normal_iteratorIPKS2_S4_EEEEvNS7_IPS2_S4_EET_SD_St20forward_iterator_tag,"aG",@progbits,_ZNSt6vectorIN9benchmark17BenchmarkReporter3RunESaIS2_EE15_M_range_insertIN9__gnu_cxx17__normal_iteratorIPKS2_S4_EEEEvNS7_IPS2_S4_EET_SD_St20forward_iterator_tag,comdat
	.p2align	2, 0x0
GCC_except_table22:
.Lexception11:
	.byte	255                             # @LPStart Encoding = omit
	.byte	155                             # @TType Encoding = indirect pcrel sdata4
	.uleb128 .Lttbase5-.Lttbaseref5
.Lttbaseref5:
	.byte	1                               # Call site Encoding = uleb128
	.uleb128 .Lcst_end11-.Lcst_begin11
.Lcst_begin11:
	.uleb128 .Lfunc_begin11-.Lfunc_begin11  # >> Call Site 1 <<
	.uleb128 .Ltmp133-.Lfunc_begin11        #   Call between .Lfunc_begin11 and .Ltmp133
	.byte	0                               #     has no landing pad
	.byte	0                               #   On action: cleanup
	.uleb128 .Ltmp133-.Lfunc_begin11        # >> Call Site 2 <<
	.uleb128 .Ltmp134-.Ltmp133              #   Call between .Ltmp133 and .Ltmp134
	.uleb128 .Ltmp135-.Lfunc_begin11        #     jumps to .Ltmp135
	.byte	1                               #   On action: 1
	.uleb128 .Ltmp134-.Lfunc_begin11        # >> Call Site 3 <<
	.uleb128 .Ltmp144-.Ltmp134              #   Call between .Ltmp134 and .Ltmp144
	.byte	0                               #     has no landing pad
	.byte	0                               #   On action: cleanup
	.uleb128 .Ltmp144-.Lfunc_begin11        # >> Call Site 4 <<
	.uleb128 .Ltmp145-.Ltmp144              #   Call between .Ltmp144 and .Ltmp145
	.uleb128 .Ltmp146-.Lfunc_begin11        #     jumps to .Ltmp146
	.byte	1                               #   On action: 1
	.uleb128 .Ltmp145-.Lfunc_begin11        # >> Call Site 5 <<
	.uleb128 .Ltmp130-.Ltmp145              #   Call between .Ltmp145 and .Ltmp130
	.byte	0                               #     has no landing pad
	.byte	0                               #   On action: cleanup
	.uleb128 .Ltmp130-.Lfunc_begin11        # >> Call Site 6 <<
	.uleb128 .Ltmp131-.Ltmp130              #   Call between .Ltmp130 and .Ltmp131
	.uleb128 .Ltmp132-.Lfunc_begin11        #     jumps to .Ltmp132
	.byte	0                               #   On action: cleanup
	.uleb128 .Ltmp131-.Lfunc_begin11        # >> Call Site 7 <<
	.uleb128 .Ltmp136-.Ltmp131              #   Call between .Ltmp131 and .Ltmp136
	.byte	0                               #     has no landing pad
	.byte	0                               #   On action: cleanup
	.uleb128 .Ltmp136-.Lfunc_begin11        # >> Call Site 8 <<
	.uleb128 .Ltmp137-.Ltmp136              #   Call between .Ltmp136 and .Ltmp137
	.uleb128 .Ltmp140-.Lfunc_begin11        #     jumps to .Ltmp140
	.byte	0                               #   On action: cleanup
	.uleb128 .Ltmp137-.Lfunc_begin11        # >> Call Site 9 <<
	.uleb128 .Ltmp138-.Ltmp137              #   Call between .Ltmp137 and .Ltmp138
	.byte	0                               #     has no landing pad
	.byte	0                               #   On action: cleanup
	.uleb128 .Ltmp138-.Lfunc_begin11        # >> Call Site 10 <<
	.uleb128 .Ltmp139-.Ltmp138              #   Call between .Ltmp138 and .Ltmp139
	.uleb128 .Ltmp140-.Lfunc_begin11        #     jumps to .Ltmp140
	.byte	0                               #   On action: cleanup
	.uleb128 .Ltmp141-.Lfunc_begin11        # >> Call Site 11 <<
	.uleb128 .Ltmp142-.Ltmp141              #   Call between .Ltmp141 and .Ltmp142
	.uleb128 .Ltmp143-.Lfunc_begin11        #     jumps to .Ltmp143
	.byte	1                               #   On action: 1
	.uleb128 .Ltmp142-.Lfunc_begin11        # >> Call Site 12 <<
	.uleb128 .Lfunc_end22-.Ltmp142          #   Call between .Ltmp142 and .Lfunc_end22
	.byte	0                               #     has no landing pad
	.byte	0                               #   On action: cleanup
.Lcst_end11:
	.byte	1                               # >> Action Record 1 <<
                                        #   Catch TypeInfo 1
	.byte	0                               #   No further actions
	.p2align	2, 0x0
                                        # >> Catch TypeInfos <<
	.word	0                               # TypeInfo 1
.Lttbase5:
	.p2align	2, 0x0
                                        # -- End function
	.section	.text._ZNSt19_UninitDestroyGuardIPN9benchmark17BenchmarkReporter3RunEvED2Ev,"axG",@progbits,_ZNSt19_UninitDestroyGuardIPN9benchmark17BenchmarkReporter3RunEvED2Ev,comdat
	.hidden	_ZNSt19_UninitDestroyGuardIPN9benchmark17BenchmarkReporter3RunEvED2Ev # -- Begin function _ZNSt19_UninitDestroyGuardIPN9benchmark17BenchmarkReporter3RunEvED2Ev
	.weak	_ZNSt19_UninitDestroyGuardIPN9benchmark17BenchmarkReporter3RunEvED2Ev
	.p2align	5
	.type	_ZNSt19_UninitDestroyGuardIPN9benchmark17BenchmarkReporter3RunEvED2Ev,@function
_ZNSt19_UninitDestroyGuardIPN9benchmark17BenchmarkReporter3RunEvED2Ev: # @_ZNSt19_UninitDestroyGuardIPN9benchmark17BenchmarkReporter3RunEvED2Ev
.Lfunc_begin12:
	.cfi_startproc
	.cfi_personality 155, DW.ref.__gxx_personality_v0
	.cfi_lsda 27, .Lexception12
# %bb.0:                                # %entry
	addi.d	$sp, $sp, -16
	.cfi_def_cfa_offset 16
	st.d	$ra, $sp, 8                     # 8-byte Folded Spill
	.cfi_offset 1, -8
	ld.d	$a1, $a0, 8
	bnez	$a1, .LBB23_2
.LBB23_1:                               # %if.end
	ld.d	$ra, $sp, 8                     # 8-byte Folded Reload
	addi.d	$sp, $sp, 16
	ret
.LBB23_2:                               # %if.then
	ld.d	$a0, $a0, 0
	ld.d	$a1, $a1, 0
.Ltmp147:                               # EH_LABEL
	pcaddu18i	$ra, %call36(_ZSt8_DestroyIPN9benchmark17BenchmarkReporter3RunEEvT_S4_)
	jirl	$ra, $ra, 0
.Ltmp148:                               # EH_LABEL
	b	.LBB23_1
.LBB23_3:                               # %terminate.lpad
.Ltmp149:                               # EH_LABEL
	pcaddu18i	$ra, %call36(__clang_call_terminate)
	jirl	$ra, $ra, 0
.Lfunc_end23:
	.size	_ZNSt19_UninitDestroyGuardIPN9benchmark17BenchmarkReporter3RunEvED2Ev, .Lfunc_end23-_ZNSt19_UninitDestroyGuardIPN9benchmark17BenchmarkReporter3RunEvED2Ev
	.cfi_endproc
	.section	.gcc_except_table._ZNSt19_UninitDestroyGuardIPN9benchmark17BenchmarkReporter3RunEvED2Ev,"aG",@progbits,_ZNSt19_UninitDestroyGuardIPN9benchmark17BenchmarkReporter3RunEvED2Ev,comdat
	.p2align	2, 0x0
GCC_except_table23:
.Lexception12:
	.byte	255                             # @LPStart Encoding = omit
	.byte	155                             # @TType Encoding = indirect pcrel sdata4
	.uleb128 .Lttbase6-.Lttbaseref6
.Lttbaseref6:
	.byte	1                               # Call site Encoding = uleb128
	.uleb128 .Lcst_end12-.Lcst_begin12
.Lcst_begin12:
	.uleb128 .Ltmp147-.Lfunc_begin12        # >> Call Site 1 <<
	.uleb128 .Ltmp148-.Ltmp147              #   Call between .Ltmp147 and .Ltmp148
	.uleb128 .Ltmp149-.Lfunc_begin12        #     jumps to .Ltmp149
	.byte	1                               #   On action: 1
	.uleb128 .Ltmp148-.Lfunc_begin12        # >> Call Site 2 <<
	.uleb128 .Lfunc_end23-.Ltmp148          #   Call between .Ltmp148 and .Lfunc_end23
	.byte	0                               #     has no landing pad
	.byte	0                               #   On action: cleanup
.Lcst_end12:
	.byte	1                               # >> Action Record 1 <<
                                        #   Catch TypeInfo 1
	.byte	0                               #   No further actions
	.p2align	2, 0x0
                                        # >> Catch TypeInfos <<
	.word	0                               # TypeInfo 1
.Lttbase6:
	.p2align	2, 0x0
                                        # -- End function
	.section	.text._ZN9benchmark17BenchmarkReporter3RunC2EOS1_,"axG",@progbits,_ZN9benchmark17BenchmarkReporter3RunC2EOS1_,comdat
	.hidden	_ZN9benchmark17BenchmarkReporter3RunC2EOS1_ # -- Begin function _ZN9benchmark17BenchmarkReporter3RunC2EOS1_
	.weak	_ZN9benchmark17BenchmarkReporter3RunC2EOS1_
	.p2align	5
	.type	_ZN9benchmark17BenchmarkReporter3RunC2EOS1_,@function
_ZN9benchmark17BenchmarkReporter3RunC2EOS1_: # @_ZN9benchmark17BenchmarkReporter3RunC2EOS1_
	.cfi_startproc
# %bb.0:                                # %entry
	addi.d	$sp, $sp, -32
	.cfi_def_cfa_offset 32
	st.d	$ra, $sp, 24                    # 8-byte Folded Spill
	st.d	$fp, $sp, 16                    # 8-byte Folded Spill
	st.d	$s0, $sp, 8                     # 8-byte Folded Spill
	st.d	$s1, $sp, 0                     # 8-byte Folded Spill
	.cfi_offset 1, -8
	.cfi_offset 22, -16
	.cfi_offset 23, -24
	.cfi_offset 24, -32
	move	$s0, $a1
	move	$fp, $a0
	pcaddu18i	$ra, %call36(_ZN9benchmark13BenchmarkNameC2EOS0_)
	jirl	$ra, $ra, 0
	ld.w	$a0, $s0, 272
	st.w	$a0, $fp, 272
	vld	$vr0, $s0, 256
	vst	$vr0, $fp, 256
	addi.d	$a0, $fp, 296
	st.d	$a0, $fp, 280
	ld.d	$a1, $s0, 280
	addi.d	$s1, $s0, 296
	beq	$a1, $s1, .LBB24_2
# %bb.1:                                # %if.else.i
	st.d	$a1, $fp, 280
	ld.d	$a0, $s1, 0
	st.d	$a0, $fp, 296
	b	.LBB24_3
.LBB24_2:                               # %_ZNSt11char_traitsIcE4copyEPcPKcm.exit.i
	ld.d	$a1, $s0, 288
	addi.d	$a2, $a1, 1
	move	$a1, $s1
	pcaddu18i	$ra, %call36(memcpy)
	jirl	$ra, $ra, 0
.LBB24_3:                               # %_ZNSt7__cxx1112basic_stringIcSt11char_traitsIcESaIcEEC2EOS4_.exit
	ld.d	$a0, $s0, 288
	st.d	$a0, $fp, 288
	st.d	$s1, $s0, 280
	st.b	$zero, $s0, 296
	ld.w	$a2, $s0, 312
	addi.d	$a0, $fp, 336
	st.d	$a0, $fp, 320
	ld.d	$a1, $s0, 320
	st.d	$zero, $s0, 288
	addi.d	$s1, $s0, 336
	st.w	$a2, $fp, 312
	beq	$a1, $s1, .LBB24_5
# %bb.4:                                # %if.else.i11
	st.d	$a1, $fp, 320
	ld.d	$a0, $s1, 0
	st.d	$a0, $fp, 336
	b	.LBB24_6
.LBB24_5:                               # %_ZNSt11char_traitsIcE4copyEPcPKcm.exit.i15
	ld.d	$a1, $s0, 328
	addi.d	$a2, $a1, 1
	move	$a1, $s1
	pcaddu18i	$ra, %call36(memcpy)
	jirl	$ra, $ra, 0
.LBB24_6:                               # %_ZNSt7__cxx1112basic_stringIcSt11char_traitsIcESaIcEEC2EOS4_.exit19
	ld.d	$a0, $s0, 328
	st.d	$a0, $fp, 328
	st.d	$s1, $s0, 320
	st.b	$zero, $s0, 336
	ld.w	$a2, $s0, 352
	addi.d	$a0, $fp, 376
	st.d	$a0, $fp, 360
	ld.d	$a1, $s0, 360
	st.d	$zero, $s0, 328
	addi.d	$s1, $s0, 376
	st.w	$a2, $fp, 352
	beq	$a1, $s1, .LBB24_8
# %bb.7:                                # %if.else.i21
	st.d	$a1, $fp, 360
	ld.d	$a0, $s1, 0
	st.d	$a0, $fp, 376
	b	.LBB24_9
.LBB24_8:                               # %_ZNSt11char_traitsIcE4copyEPcPKcm.exit.i25
	ld.d	$a1, $s0, 368
	addi.d	$a2, $a1, 1
	move	$a1, $s1
	pcaddu18i	$ra, %call36(memcpy)
	jirl	$ra, $ra, 0
.LBB24_9:                               # %_ZNSt7__cxx1112basic_stringIcSt11char_traitsIcESaIcEEC2EOS4_.exit29
	ld.d	$a0, $s0, 368
	st.d	$a0, $fp, 368
	st.d	$s1, $s0, 360
	st.d	$zero, $s0, 368
	st.b	$zero, $s0, 376
	addi.d	$a0, $fp, 392
	addi.d	$a1, $s0, 392
	ori	$a2, $zero, 98
	pcaddu18i	$ra, %call36(memcpy)
	jirl	$ra, $ra, 0
	ld.d	$a2, $s0, 512
	addi.d	$a0, $fp, 504
	beqz	$a2, .LBB24_11
# %bb.10:                               # %if.then.i.i.i.i
	st.d	$a2, $fp, 512
	vld	$vr0, $s0, 520
	addi.d	$a3, $s0, 504
	ld.d	$a4, $s0, 536
	ld.w	$a1, $s0, 504
	vst	$vr0, $fp, 520
	st.d	$a0, $a2, 8
	st.d	$a4, $fp, 536
	st.d	$zero, $s0, 512
	st.d	$a3, $s0, 520
	st.d	$a3, $s0, 528
	st.d	$zero, $s0, 536
	b	.LBB24_12
.LBB24_11:                              # %if.else.i.i.i.i
	move	$a1, $zero
	st.d	$zero, $fp, 512
	st.d	$a0, $fp, 520
	st.d	$a0, $fp, 528
	st.d	$zero, $fp, 536
.LBB24_12:                              # %_ZNSt3mapINSt7__cxx1112basic_stringIcSt11char_traitsIcESaIcEEEN9benchmark7CounterESt4lessIS5_ESaISt4pairIKS5_S7_EEEC2EOSE_.exit
	st.w	$a1, $fp, 504
	vld	$vr0, $s0, 544
	vst	$vr0, $fp, 544
	ld.d	$s1, $sp, 0                     # 8-byte Folded Reload
	ld.d	$s0, $sp, 8                     # 8-byte Folded Reload
	ld.d	$fp, $sp, 16                    # 8-byte Folded Reload
	ld.d	$ra, $sp, 24                    # 8-byte Folded Reload
	addi.d	$sp, $sp, 32
	ret
.Lfunc_end24:
	.size	_ZN9benchmark17BenchmarkReporter3RunC2EOS1_, .Lfunc_end24-_ZN9benchmark17BenchmarkReporter3RunC2EOS1_
	.cfi_endproc
                                        # -- End function
	.section	.text._ZN9benchmark13BenchmarkNameC2EOS0_,"axG",@progbits,_ZN9benchmark13BenchmarkNameC2EOS0_,comdat
	.hidden	_ZN9benchmark13BenchmarkNameC2EOS0_ # -- Begin function _ZN9benchmark13BenchmarkNameC2EOS0_
	.weak	_ZN9benchmark13BenchmarkNameC2EOS0_
	.p2align	5
	.type	_ZN9benchmark13BenchmarkNameC2EOS0_,@function
_ZN9benchmark13BenchmarkNameC2EOS0_:    # @_ZN9benchmark13BenchmarkNameC2EOS0_
	.cfi_startproc
# %bb.0:                                # %entry
	addi.d	$sp, $sp, -32
	.cfi_def_cfa_offset 32
	st.d	$ra, $sp, 24                    # 8-byte Folded Spill
	st.d	$fp, $sp, 16                    # 8-byte Folded Spill
	st.d	$s0, $sp, 8                     # 8-byte Folded Spill
	st.d	$s1, $sp, 0                     # 8-byte Folded Spill
	.cfi_offset 1, -8
	.cfi_offset 22, -16
	.cfi_offset 23, -24
	.cfi_offset 24, -32
	move	$fp, $a1
	move	$s0, $a0
	addi.d	$a0, $a0, 16
	st.d	$a0, $s0, 0
	ld.d	$a1, $a1, 0
	addi.d	$s1, $fp, 16
	beq	$a1, $s1, .LBB25_2
# %bb.1:                                # %if.else.i
	st.d	$a1, $s0, 0
	ld.d	$a0, $s1, 0
	st.d	$a0, $s0, 16
	b	.LBB25_3
.LBB25_2:                               # %_ZNSt11char_traitsIcE4copyEPcPKcm.exit.i
	ld.d	$a1, $fp, 8
	addi.d	$a2, $a1, 1
	move	$a1, $s1
	pcaddu18i	$ra, %call36(memcpy)
	jirl	$ra, $ra, 0
.LBB25_3:                               # %_ZNSt7__cxx1112basic_stringIcSt11char_traitsIcESaIcEEC2EOS4_.exit
	ld.d	$a0, $fp, 8
	st.d	$a0, $s0, 8
	st.d	$s1, $fp, 0
	st.b	$zero, $fp, 16
	addi.d	$a0, $s0, 48
	st.d	$a0, $s0, 32
	ld.d	$a1, $fp, 32
	addi.d	$s1, $fp, 48
	st.d	$zero, $fp, 8
	beq	$a1, $s1, .LBB25_5
# %bb.4:                                # %if.else.i9
	st.d	$a1, $s0, 32
	ld.d	$a0, $s1, 0
	st.d	$a0, $s0, 48
	b	.LBB25_6
.LBB25_5:                               # %_ZNSt11char_traitsIcE4copyEPcPKcm.exit.i13
	ld.d	$a1, $fp, 40
	addi.d	$a2, $a1, 1
	move	$a1, $s1
	pcaddu18i	$ra, %call36(memcpy)
	jirl	$ra, $ra, 0
.LBB25_6:                               # %_ZNSt7__cxx1112basic_stringIcSt11char_traitsIcESaIcEEC2EOS4_.exit17
	ld.d	$a0, $fp, 40
	st.d	$a0, $s0, 40
	st.d	$s1, $fp, 32
	st.b	$zero, $fp, 48
	addi.d	$a0, $s0, 80
	st.d	$a0, $s0, 64
	ld.d	$a1, $fp, 64
	addi.d	$s1, $fp, 80
	st.d	$zero, $fp, 40
	beq	$a1, $s1, .LBB25_8
# %bb.7:                                # %if.else.i19
	st.d	$a1, $s0, 64
	ld.d	$a0, $s1, 0
	st.d	$a0, $s0, 80
	b	.LBB25_9
.LBB25_8:                               # %_ZNSt11char_traitsIcE4copyEPcPKcm.exit.i23
	ld.d	$a1, $fp, 72
	addi.d	$a2, $a1, 1
	move	$a1, $s1
	pcaddu18i	$ra, %call36(memcpy)
	jirl	$ra, $ra, 0
.LBB25_9:                               # %_ZNSt7__cxx1112basic_stringIcSt11char_traitsIcESaIcEEC2EOS4_.exit27
	ld.d	$a0, $fp, 72
	st.d	$a0, $s0, 72
	st.d	$s1, $fp, 64
	st.b	$zero, $fp, 80
	addi.d	$a0, $s0, 112
	st.d	$a0, $s0, 96
	ld.d	$a1, $fp, 96
	addi.d	$s1, $fp, 112
	st.d	$zero, $fp, 72
	beq	$a1, $s1, .LBB25_11
# %bb.10:                               # %if.else.i29
	st.d	$a1, $s0, 96
	ld.d	$a0, $s1, 0
	st.d	$a0, $s0, 112
	b	.LBB25_12
.LBB25_11:                              # %_ZNSt11char_traitsIcE4copyEPcPKcm.exit.i33
	ld.d	$a1, $fp, 104
	addi.d	$a2, $a1, 1
	move	$a1, $s1
	pcaddu18i	$ra, %call36(memcpy)
	jirl	$ra, $ra, 0
.LBB25_12:                              # %_ZNSt7__cxx1112basic_stringIcSt11char_traitsIcESaIcEEC2EOS4_.exit37
	ld.d	$a0, $fp, 104
	st.d	$a0, $s0, 104
	st.d	$s1, $fp, 96
	st.b	$zero, $fp, 112
	addi.d	$a0, $s0, 144
	st.d	$a0, $s0, 128
	ld.d	$a1, $fp, 128
	addi.d	$s1, $fp, 144
	st.d	$zero, $fp, 104
	beq	$a1, $s1, .LBB25_14
# %bb.13:                               # %if.else.i39
	st.d	$a1, $s0, 128
	ld.d	$a0, $s1, 0
	st.d	$a0, $s0, 144
	b	.LBB25_15
.LBB25_14:                              # %_ZNSt11char_traitsIcE4copyEPcPKcm.exit.i43
	ld.d	$a1, $fp, 136
	addi.d	$a2, $a1, 1
	move	$a1, $s1
	pcaddu18i	$ra, %call36(memcpy)
	jirl	$ra, $ra, 0
.LBB25_15:                              # %_ZNSt7__cxx1112basic_stringIcSt11char_traitsIcESaIcEEC2EOS4_.exit47
	ld.d	$a0, $fp, 136
	st.d	$a0, $s0, 136
	st.d	$s1, $fp, 128
	st.b	$zero, $fp, 144
	addi.d	$a0, $s0, 176
	st.d	$a0, $s0, 160
	ld.d	$a1, $fp, 160
	addi.d	$s1, $fp, 176
	st.d	$zero, $fp, 136
	beq	$a1, $s1, .LBB25_17
# %bb.16:                               # %if.else.i49
	st.d	$a1, $s0, 160
	ld.d	$a0, $s1, 0
	st.d	$a0, $s0, 176
	b	.LBB25_18
.LBB25_17:                              # %_ZNSt11char_traitsIcE4copyEPcPKcm.exit.i53
	ld.d	$a1, $fp, 168
	addi.d	$a2, $a1, 1
	move	$a1, $s1
	pcaddu18i	$ra, %call36(memcpy)
	jirl	$ra, $ra, 0
.LBB25_18:                              # %_ZNSt7__cxx1112basic_stringIcSt11char_traitsIcESaIcEEC2EOS4_.exit57
	ld.d	$a0, $fp, 168
	st.d	$a0, $s0, 168
	st.d	$s1, $fp, 160
	st.b	$zero, $fp, 176
	addi.d	$a0, $s0, 208
	st.d	$a0, $s0, 192
	ld.d	$a1, $fp, 192
	addi.d	$s1, $fp, 208
	st.d	$zero, $fp, 168
	beq	$a1, $s1, .LBB25_20
# %bb.19:                               # %if.else.i59
	st.d	$a1, $s0, 192
	ld.d	$a0, $s1, 0
	st.d	$a0, $s0, 208
	b	.LBB25_21
.LBB25_20:                              # %_ZNSt11char_traitsIcE4copyEPcPKcm.exit.i63
	ld.d	$a1, $fp, 200
	addi.d	$a2, $a1, 1
	move	$a1, $s1
	pcaddu18i	$ra, %call36(memcpy)
	jirl	$ra, $ra, 0
.LBB25_21:                              # %_ZNSt7__cxx1112basic_stringIcSt11char_traitsIcESaIcEEC2EOS4_.exit67
	ld.d	$a0, $fp, 200
	st.d	$a0, $s0, 200
	st.d	$s1, $fp, 192
	st.b	$zero, $fp, 208
	addi.d	$a0, $s0, 240
	st.d	$a0, $s0, 224
	ld.d	$a1, $fp, 224
	addi.d	$s1, $fp, 240
	st.d	$zero, $fp, 200
	beq	$a1, $s1, .LBB25_23
# %bb.22:                               # %if.else.i69
	st.d	$a1, $s0, 224
	ld.d	$a0, $s1, 0
	st.d	$a0, $s0, 240
	b	.LBB25_24
.LBB25_23:                              # %_ZNSt11char_traitsIcE4copyEPcPKcm.exit.i73
	ld.d	$a1, $fp, 232
	addi.d	$a2, $a1, 1
	move	$a1, $s1
	pcaddu18i	$ra, %call36(memcpy)
	jirl	$ra, $ra, 0
.LBB25_24:                              # %_ZNSt7__cxx1112basic_stringIcSt11char_traitsIcESaIcEEC2EOS4_.exit77
	ld.d	$a0, $fp, 232
	st.d	$a0, $s0, 232
	st.d	$s1, $fp, 224
	st.d	$zero, $fp, 232
	st.b	$zero, $fp, 240
	ld.d	$s1, $sp, 0                     # 8-byte Folded Reload
	ld.d	$s0, $sp, 8                     # 8-byte Folded Reload
	ld.d	$fp, $sp, 16                    # 8-byte Folded Reload
	ld.d	$ra, $sp, 24                    # 8-byte Folded Reload
	addi.d	$sp, $sp, 32
	ret
.Lfunc_end25:
	.size	_ZN9benchmark13BenchmarkNameC2EOS0_, .Lfunc_end25-_ZN9benchmark13BenchmarkNameC2EOS0_
	.cfi_endproc
                                        # -- End function
	.section	.text._ZSt8_DestroyIPN9benchmark17BenchmarkReporter3RunEEvT_S4_,"axG",@progbits,_ZSt8_DestroyIPN9benchmark17BenchmarkReporter3RunEEvT_S4_,comdat
	.hidden	_ZSt8_DestroyIPN9benchmark17BenchmarkReporter3RunEEvT_S4_ # -- Begin function _ZSt8_DestroyIPN9benchmark17BenchmarkReporter3RunEEvT_S4_
	.weak	_ZSt8_DestroyIPN9benchmark17BenchmarkReporter3RunEEvT_S4_
	.p2align	5
	.type	_ZSt8_DestroyIPN9benchmark17BenchmarkReporter3RunEEvT_S4_,@function
_ZSt8_DestroyIPN9benchmark17BenchmarkReporter3RunEEvT_S4_: # @_ZSt8_DestroyIPN9benchmark17BenchmarkReporter3RunEEvT_S4_
.Lfunc_begin13:
	.cfi_startproc
	.cfi_personality 155, DW.ref.__gxx_personality_v0
	.cfi_lsda 27, .Lexception13
# %bb.0:                                # %entry
	addi.d	$sp, $sp, -32
	.cfi_def_cfa_offset 32
	st.d	$ra, $sp, 24                    # 8-byte Folded Spill
	st.d	$fp, $sp, 16                    # 8-byte Folded Spill
	st.d	$s0, $sp, 8                     # 8-byte Folded Spill
	.cfi_offset 1, -8
	.cfi_offset 22, -16
	.cfi_offset 23, -24
	beq	$a0, $a1, .LBB26_10
# %bb.1:                                # %for.body.preheader
	move	$fp, $a1
	move	$s0, $a0
	b	.LBB26_3
	.p2align	4, , 16
.LBB26_2:                               # %_ZSt8_DestroyIN9benchmark17BenchmarkReporter3RunEEvPT_.exit
                                        #   in Loop: Header=BB26_3 Depth=1
	move	$a0, $s0
	pcaddu18i	$ra, %call36(_ZN9benchmark13BenchmarkNameD2Ev)
	jirl	$ra, $ra, 0
	addi.d	$s0, $s0, 560
	beq	$s0, $fp, .LBB26_10
.LBB26_3:                               # %for.body
                                        # =>This Inner Loop Header: Depth=1
	ld.d	$a1, $s0, 512
	addi.d	$a0, $s0, 496
.Ltmp150:                               # EH_LABEL
	pcaddu18i	$ra, %call36(_ZNSt8_Rb_treeINSt7__cxx1112basic_stringIcSt11char_traitsIcESaIcEEESt4pairIKS5_N9benchmark7CounterEESt10_Select1stISA_ESt4lessIS5_ESaISA_EE8_M_eraseEPSt13_Rb_tree_nodeISA_E)
	jirl	$ra, $ra, 0
.Ltmp151:                               # EH_LABEL
# %bb.4:                                # %_ZNSt3mapINSt7__cxx1112basic_stringIcSt11char_traitsIcESaIcEEEN9benchmark7CounterESt4lessIS5_ESaISt4pairIKS5_S7_EEED2Ev.exit.i.i
                                        #   in Loop: Header=BB26_3 Depth=1
	ld.d	$a0, $s0, 360
	addi.d	$a1, $s0, 376
	beq	$a1, $a0, .LBB26_6
# %bb.5:                                # %if.then.i.i.i.i
                                        #   in Loop: Header=BB26_3 Depth=1
	ld.d	$a1, $a1, 0
	addi.d	$a1, $a1, 1
	pcaddu18i	$ra, %call36(_ZdlPvm)
	jirl	$ra, $ra, 0
.LBB26_6:                               # %_ZNSt7__cxx1112basic_stringIcSt11char_traitsIcESaIcEED2Ev.exit.i.i
                                        #   in Loop: Header=BB26_3 Depth=1
	ld.d	$a0, $s0, 320
	addi.d	$a1, $s0, 336
	beq	$a1, $a0, .LBB26_8
# %bb.7:                                # %if.then.i.i2.i.i
                                        #   in Loop: Header=BB26_3 Depth=1
	ld.d	$a1, $a1, 0
	addi.d	$a1, $a1, 1
	pcaddu18i	$ra, %call36(_ZdlPvm)
	jirl	$ra, $ra, 0
.LBB26_8:                               # %_ZNSt7__cxx1112basic_stringIcSt11char_traitsIcESaIcEED2Ev.exit7.i.i
                                        #   in Loop: Header=BB26_3 Depth=1
	ld.d	$a0, $s0, 280
	addi.d	$a1, $s0, 296
	beq	$a1, $a0, .LBB26_2
# %bb.9:                                # %if.then.i.i9.i.i
                                        #   in Loop: Header=BB26_3 Depth=1
	ld.d	$a1, $a1, 0
	addi.d	$a1, $a1, 1
	pcaddu18i	$ra, %call36(_ZdlPvm)
	jirl	$ra, $ra, 0
	b	.LBB26_2
.LBB26_10:                              # %for.end
	ld.d	$s0, $sp, 8                     # 8-byte Folded Reload
	ld.d	$fp, $sp, 16                    # 8-byte Folded Reload
	ld.d	$ra, $sp, 24                    # 8-byte Folded Reload
	addi.d	$sp, $sp, 32
	ret
.LBB26_11:                              # %terminate.lpad.i.i.i.i
.Ltmp152:                               # EH_LABEL
	pcaddu18i	$ra, %call36(__clang_call_terminate)
	jirl	$ra, $ra, 0
.Lfunc_end26:
	.size	_ZSt8_DestroyIPN9benchmark17BenchmarkReporter3RunEEvT_S4_, .Lfunc_end26-_ZSt8_DestroyIPN9benchmark17BenchmarkReporter3RunEEvT_S4_
	.cfi_endproc
	.section	.gcc_except_table._ZSt8_DestroyIPN9benchmark17BenchmarkReporter3RunEEvT_S4_,"aG",@progbits,_ZSt8_DestroyIPN9benchmark17BenchmarkReporter3RunEEvT_S4_,comdat
	.p2align	2, 0x0
GCC_except_table26:
.Lexception13:
	.byte	255                             # @LPStart Encoding = omit
	.byte	155                             # @TType Encoding = indirect pcrel sdata4
	.uleb128 .Lttbase7-.Lttbaseref7
.Lttbaseref7:
	.byte	1                               # Call site Encoding = uleb128
	.uleb128 .Lcst_end13-.Lcst_begin13
.Lcst_begin13:
	.uleb128 .Lfunc_begin13-.Lfunc_begin13  # >> Call Site 1 <<
	.uleb128 .Ltmp150-.Lfunc_begin13        #   Call between .Lfunc_begin13 and .Ltmp150
	.byte	0                               #     has no landing pad
	.byte	0                               #   On action: cleanup
	.uleb128 .Ltmp150-.Lfunc_begin13        # >> Call Site 2 <<
	.uleb128 .Ltmp151-.Ltmp150              #   Call between .Ltmp150 and .Ltmp151
	.uleb128 .Ltmp152-.Lfunc_begin13        #     jumps to .Ltmp152
	.byte	1                               #   On action: 1
	.uleb128 .Ltmp151-.Lfunc_begin13        # >> Call Site 3 <<
	.uleb128 .Lfunc_end26-.Ltmp151          #   Call between .Ltmp151 and .Lfunc_end26
	.byte	0                               #     has no landing pad
	.byte	0                               #   On action: cleanup
.Lcst_end13:
	.byte	1                               # >> Action Record 1 <<
                                        #   Catch TypeInfo 1
	.byte	0                               #   No further actions
	.p2align	2, 0x0
                                        # >> Catch TypeInfos <<
	.word	0                               # TypeInfo 1
.Lttbase7:
	.p2align	2, 0x0
                                        # -- End function
	.section	.text._ZN9benchmark13BenchmarkNameD2Ev,"axG",@progbits,_ZN9benchmark13BenchmarkNameD2Ev,comdat
	.hidden	_ZN9benchmark13BenchmarkNameD2Ev # -- Begin function _ZN9benchmark13BenchmarkNameD2Ev
	.weak	_ZN9benchmark13BenchmarkNameD2Ev
	.p2align	5
	.type	_ZN9benchmark13BenchmarkNameD2Ev,@function
_ZN9benchmark13BenchmarkNameD2Ev:       # @_ZN9benchmark13BenchmarkNameD2Ev
	.cfi_startproc
# %bb.0:                                # %entry
	addi.d	$sp, $sp, -16
	.cfi_def_cfa_offset 16
	st.d	$ra, $sp, 8                     # 8-byte Folded Spill
	st.d	$fp, $sp, 0                     # 8-byte Folded Spill
	.cfi_offset 1, -8
	.cfi_offset 22, -16
	move	$fp, $a0
	ld.d	$a0, $a0, 224
	addi.d	$a1, $fp, 240
	beq	$a0, $a1, .LBB27_2
# %bb.1:                                # %if.then.i.i
	ld.d	$a1, $a1, 0
	addi.d	$a1, $a1, 1
	pcaddu18i	$ra, %call36(_ZdlPvm)
	jirl	$ra, $ra, 0
.LBB27_2:                               # %_ZNSt7__cxx1112basic_stringIcSt11char_traitsIcESaIcEED2Ev.exit
	ld.d	$a0, $fp, 192
	addi.d	$a1, $fp, 208
	beq	$a0, $a1, .LBB27_4
# %bb.3:                                # %if.then.i.i2
	ld.d	$a1, $a1, 0
	addi.d	$a1, $a1, 1
	pcaddu18i	$ra, %call36(_ZdlPvm)
	jirl	$ra, $ra, 0
.LBB27_4:                               # %_ZNSt7__cxx1112basic_stringIcSt11char_traitsIcESaIcEED2Ev.exit7
	ld.d	$a0, $fp, 160
	addi.d	$a1, $fp, 176
	beq	$a0, $a1, .LBB27_6
# %bb.5:                                # %if.then.i.i9
	ld.d	$a1, $a1, 0
	addi.d	$a1, $a1, 1
	pcaddu18i	$ra, %call36(_ZdlPvm)
	jirl	$ra, $ra, 0
.LBB27_6:                               # %_ZNSt7__cxx1112basic_stringIcSt11char_traitsIcESaIcEED2Ev.exit14
	ld.d	$a0, $fp, 128
	addi.d	$a1, $fp, 144
	beq	$a0, $a1, .LBB27_8
# %bb.7:                                # %if.then.i.i16
	ld.d	$a1, $a1, 0
	addi.d	$a1, $a1, 1
	pcaddu18i	$ra, %call36(_ZdlPvm)
	jirl	$ra, $ra, 0
.LBB27_8:                               # %_ZNSt7__cxx1112basic_stringIcSt11char_traitsIcESaIcEED2Ev.exit21
	ld.d	$a0, $fp, 96
	addi.d	$a1, $fp, 112
	beq	$a0, $a1, .LBB27_10
# %bb.9:                                # %if.then.i.i23
	ld.d	$a1, $a1, 0
	addi.d	$a1, $a1, 1
	pcaddu18i	$ra, %call36(_ZdlPvm)
	jirl	$ra, $ra, 0
.LBB27_10:                              # %_ZNSt7__cxx1112basic_stringIcSt11char_traitsIcESaIcEED2Ev.exit28
	ld.d	$a0, $fp, 64
	addi.d	$a1, $fp, 80
	beq	$a0, $a1, .LBB27_12
# %bb.11:                               # %if.then.i.i30
	ld.d	$a1, $a1, 0
	addi.d	$a1, $a1, 1
	pcaddu18i	$ra, %call36(_ZdlPvm)
	jirl	$ra, $ra, 0
.LBB27_12:                              # %_ZNSt7__cxx1112basic_stringIcSt11char_traitsIcESaIcEED2Ev.exit35
	ld.d	$a0, $fp, 32
	addi.d	$a1, $fp, 48
	beq	$a0, $a1, .LBB27_14
# %bb.13:                               # %if.then.i.i37
	ld.d	$a1, $a1, 0
	addi.d	$a1, $a1, 1
	pcaddu18i	$ra, %call36(_ZdlPvm)
	jirl	$ra, $ra, 0
.LBB27_14:                              # %_ZNSt7__cxx1112basic_stringIcSt11char_traitsIcESaIcEED2Ev.exit42
	ld.d	$a0, $fp, 0
	addi.d	$a1, $fp, 16
	beq	$a0, $a1, .LBB27_16
# %bb.15:                               # %if.then.i.i44
	ld.d	$a1, $a1, 0
	addi.d	$a1, $a1, 1
	ld.d	$fp, $sp, 0                     # 8-byte Folded Reload
	ld.d	$ra, $sp, 8                     # 8-byte Folded Reload
	addi.d	$sp, $sp, 16
	pcaddu18i	$t8, %call36(_ZdlPvm)
	jr	$t8
.LBB27_16:                              # %_ZNSt7__cxx1112basic_stringIcSt11char_traitsIcESaIcEED2Ev.exit49
	ld.d	$fp, $sp, 0                     # 8-byte Folded Reload
	ld.d	$ra, $sp, 8                     # 8-byte Folded Reload
	addi.d	$sp, $sp, 16
	ret
.Lfunc_end27:
	.size	_ZN9benchmark13BenchmarkNameD2Ev, .Lfunc_end27-_ZN9benchmark13BenchmarkNameD2Ev
	.cfi_endproc
                                        # -- End function
	.section	.text._ZNSt8_Rb_treeINSt7__cxx1112basic_stringIcSt11char_traitsIcESaIcEEESt4pairIKS5_N9benchmark7CounterEESt10_Select1stISA_ESt4lessIS5_ESaISA_EE8_M_eraseEPSt13_Rb_tree_nodeISA_E,"axG",@progbits,_ZNSt8_Rb_treeINSt7__cxx1112basic_stringIcSt11char_traitsIcESaIcEEESt4pairIKS5_N9benchmark7CounterEESt10_Select1stISA_ESt4lessIS5_ESaISA_EE8_M_eraseEPSt13_Rb_tree_nodeISA_E,comdat
	.hidden	_ZNSt8_Rb_treeINSt7__cxx1112basic_stringIcSt11char_traitsIcESaIcEEESt4pairIKS5_N9benchmark7CounterEESt10_Select1stISA_ESt4lessIS5_ESaISA_EE8_M_eraseEPSt13_Rb_tree_nodeISA_E # -- Begin function _ZNSt8_Rb_treeINSt7__cxx1112basic_stringIcSt11char_traitsIcESaIcEEESt4pairIKS5_N9benchmark7CounterEESt10_Select1stISA_ESt4lessIS5_ESaISA_EE8_M_eraseEPSt13_Rb_tree_nodeISA_E
	.weak	_ZNSt8_Rb_treeINSt7__cxx1112basic_stringIcSt11char_traitsIcESaIcEEESt4pairIKS5_N9benchmark7CounterEESt10_Select1stISA_ESt4lessIS5_ESaISA_EE8_M_eraseEPSt13_Rb_tree_nodeISA_E
	.p2align	5
	.type	_ZNSt8_Rb_treeINSt7__cxx1112basic_stringIcSt11char_traitsIcESaIcEEESt4pairIKS5_N9benchmark7CounterEESt10_Select1stISA_ESt4lessIS5_ESaISA_EE8_M_eraseEPSt13_Rb_tree_nodeISA_E,@function
_ZNSt8_Rb_treeINSt7__cxx1112basic_stringIcSt11char_traitsIcESaIcEEESt4pairIKS5_N9benchmark7CounterEESt10_Select1stISA_ESt4lessIS5_ESaISA_EE8_M_eraseEPSt13_Rb_tree_nodeISA_E: # @_ZNSt8_Rb_treeINSt7__cxx1112basic_stringIcSt11char_traitsIcESaIcEEESt4pairIKS5_N9benchmark7CounterEESt10_Select1stISA_ESt4lessIS5_ESaISA_EE8_M_eraseEPSt13_Rb_tree_nodeISA_E
	.cfi_startproc
# %bb.0:                                # %entry
	beqz	$a1, .LBB28_6
# %bb.1:                                # %while.body.preheader
	addi.d	$sp, $sp, -32
	.cfi_def_cfa_offset 32
	st.d	$ra, $sp, 24                    # 8-byte Folded Spill
	st.d	$fp, $sp, 16                    # 8-byte Folded Spill
	st.d	$s0, $sp, 8                     # 8-byte Folded Spill
	st.d	$s1, $sp, 0                     # 8-byte Folded Spill
	.cfi_offset 1, -8
	.cfi_offset 22, -16
	.cfi_offset 23, -24
	.cfi_offset 24, -32
	move	$s0, $a1
	move	$fp, $a0
	b	.LBB28_3
	.p2align	4, , 16
.LBB28_2:                               # %_ZNSt8_Rb_treeINSt7__cxx1112basic_stringIcSt11char_traitsIcESaIcEEESt4pairIKS5_N9benchmark7CounterEESt10_Select1stISA_ESt4lessIS5_ESaISA_EE12_M_drop_nodeEPSt13_Rb_tree_nodeISA_E.exit
                                        #   in Loop: Header=BB28_3 Depth=1
	ori	$a1, $zero, 80
	move	$a0, $s0
	pcaddu18i	$ra, %call36(_ZdlPvm)
	jirl	$ra, $ra, 0
	move	$s0, $s1
	beqz	$s1, .LBB28_5
.LBB28_3:                               # %while.body
                                        # =>This Inner Loop Header: Depth=1
	ld.d	$a1, $s0, 24
	move	$a0, $fp
	pcaddu18i	$ra, %call36(_ZNSt8_Rb_treeINSt7__cxx1112basic_stringIcSt11char_traitsIcESaIcEEESt4pairIKS5_N9benchmark7CounterEESt10_Select1stISA_ESt4lessIS5_ESaISA_EE8_M_eraseEPSt13_Rb_tree_nodeISA_E)
	jirl	$ra, $ra, 0
	ld.d	$a0, $s0, 32
	ld.d	$s1, $s0, 16
	addi.d	$a1, $s0, 48
	beq	$a0, $a1, .LBB28_2
# %bb.4:                                # %if.then.i.i.i.i.i
                                        #   in Loop: Header=BB28_3 Depth=1
	ld.d	$a1, $a1, 0
	addi.d	$a1, $a1, 1
	pcaddu18i	$ra, %call36(_ZdlPvm)
	jirl	$ra, $ra, 0
	b	.LBB28_2
.LBB28_5:
	ld.d	$s1, $sp, 0                     # 8-byte Folded Reload
	ld.d	$s0, $sp, 8                     # 8-byte Folded Reload
	ld.d	$fp, $sp, 16                    # 8-byte Folded Reload
	ld.d	$ra, $sp, 24                    # 8-byte Folded Reload
	addi.d	$sp, $sp, 32
.LBB28_6:                               # %while.end
	ret
.Lfunc_end28:
	.size	_ZNSt8_Rb_treeINSt7__cxx1112basic_stringIcSt11char_traitsIcESaIcEEESt4pairIKS5_N9benchmark7CounterEESt10_Select1stISA_ESt4lessIS5_ESaISA_EE8_M_eraseEPSt13_Rb_tree_nodeISA_E, .Lfunc_end28-_ZNSt8_Rb_treeINSt7__cxx1112basic_stringIcSt11char_traitsIcESaIcEEESt4pairIKS5_N9benchmark7CounterEESt10_Select1stISA_ESt4lessIS5_ESaISA_EE8_M_eraseEPSt13_Rb_tree_nodeISA_E
	.cfi_endproc
                                        # -- End function
	.section	.text._ZN9benchmark17BenchmarkReporter3RunaSEOS1_,"axG",@progbits,_ZN9benchmark17BenchmarkReporter3RunaSEOS1_,comdat
	.hidden	_ZN9benchmark17BenchmarkReporter3RunaSEOS1_ # -- Begin function _ZN9benchmark17BenchmarkReporter3RunaSEOS1_
	.weak	_ZN9benchmark17BenchmarkReporter3RunaSEOS1_
	.p2align	5
	.type	_ZN9benchmark17BenchmarkReporter3RunaSEOS1_,@function
_ZN9benchmark17BenchmarkReporter3RunaSEOS1_: # @_ZN9benchmark17BenchmarkReporter3RunaSEOS1_
.Lfunc_begin14:
	.cfi_startproc
	.cfi_personality 155, DW.ref.__gxx_personality_v0
	.cfi_lsda 27, .Lexception14
# %bb.0:                                # %entry
	addi.d	$sp, $sp, -32
	.cfi_def_cfa_offset 32
	st.d	$ra, $sp, 24                    # 8-byte Folded Spill
	st.d	$fp, $sp, 16                    # 8-byte Folded Spill
	st.d	$s0, $sp, 8                     # 8-byte Folded Spill
	.cfi_offset 1, -8
	.cfi_offset 22, -16
	.cfi_offset 23, -24
	move	$s0, $a1
	move	$fp, $a0
	pcaddu18i	$ra, %call36(_ZN9benchmark13BenchmarkNameaSEOS0_)
	jirl	$ra, $ra, 0
	ld.w	$a0, $s0, 272
	st.w	$a0, $fp, 272
	vld	$vr0, $s0, 256
	vst	$vr0, $fp, 256
	ld.d	$a0, $fp, 280
	ld.d	$a1, $s0, 280
	addi.d	$a3, $fp, 296
	addi.d	$a2, $s0, 296
	beq	$a0, $a3, .LBB29_3
# %bb.1:                                # %invoke.cont.thread.i
	beq	$a1, $a2, .LBB29_7
# %bb.2:                                # %if.then22.i
	ld.d	$a3, $a3, 0
	b	.LBB29_5
.LBB29_3:                               # %invoke.cont.i
	beq	$a1, $a2, .LBB29_7
# %bb.4:
	move	$a0, $zero
                                        # implicit-def: $r7
.LBB29_5:                               # %if.end24.i
	ld.d	$a4, $s0, 288
	st.d	$a1, $fp, 280
	st.d	$a4, $fp, 288
	ld.d	$a1, $s0, 296
	st.d	$a1, $fp, 296
	beqz	$a0, .LBB29_11
# %bb.6:                                # %if.then28.i
	st.d	$a0, $s0, 280
	st.d	$a3, $s0, 296
	b	.LBB29_14
.LBB29_7:                               # %if.then8.i
	beq	$s0, $fp, .LBB29_46
# %bb.8:                                # %if.then9.i
	ld.d	$a2, $s0, 288
	beqz	$a2, .LBB29_13
# %bb.9:                                # %if.then9.i
	ori	$a3, $zero, 1
	bne	$a2, $a3, .LBB29_12
# %bb.10:                               # %if.then.i25.i
	ld.b	$a1, $a1, 0
	st.b	$a1, $a0, 0
	b	.LBB29_13
.LBB29_11:                              # %if.else29.i
	st.d	$a2, $s0, 280
	move	$a0, $a2
	b	.LBB29_14
.LBB29_12:                              # %if.end.i.i.i
	pcaddu18i	$ra, %call36(memcpy)
	jirl	$ra, $ra, 0
.LBB29_13:                              # %if.end17.i
	ld.d	$a0, $s0, 288
	ld.d	$a1, $fp, 280
	st.d	$a0, $fp, 288
	stx.b	$zero, $a1, $a0
	ld.d	$a0, $s0, 280
.LBB29_14:                              # %_ZNSt7__cxx1112basic_stringIcSt11char_traitsIcESaIcEEaSEOS4_.exit
	st.d	$zero, $s0, 288
	st.b	$zero, $a0, 0
	ld.w	$a2, $s0, 312
	ld.d	$a0, $fp, 320
	ld.d	$a1, $s0, 320
	st.w	$a2, $fp, 312
	addi.d	$a3, $fp, 336
	addi.d	$a2, $s0, 336
	beq	$a0, $a3, .LBB29_17
# %bb.15:                               # %invoke.cont.thread.i11
	beq	$a1, $a2, .LBB29_21
# %bb.16:                               # %if.then22.i13
	ld.d	$a3, $a3, 0
	b	.LBB29_19
.LBB29_17:                              # %invoke.cont.i36
	beq	$a1, $a2, .LBB29_21
# %bb.18:
	move	$a0, $zero
                                        # implicit-def: $r7
.LBB29_19:                              # %if.end24.i14
	ld.d	$a4, $s0, 328
	st.d	$a1, $fp, 320
	st.d	$a4, $fp, 328
	ld.d	$a1, $s0, 336
	st.d	$a1, $fp, 336
	beqz	$a0, .LBB29_25
# %bb.20:                               # %if.then28.i21
	st.d	$a0, $s0, 320
	st.d	$a3, $s0, 336
	b	.LBB29_28
.LBB29_21:                              # %if.then8.i24
	beq	$s0, $fp, .LBB29_47
# %bb.22:                               # %if.then9.i28
	ld.d	$a2, $s0, 328
	beqz	$a2, .LBB29_27
# %bb.23:                               # %if.then9.i28
	ori	$a3, $zero, 1
	bne	$a2, $a3, .LBB29_26
# %bb.24:                               # %if.then.i25.i29
	ld.b	$a1, $a1, 0
	st.b	$a1, $a0, 0
	b	.LBB29_27
.LBB29_25:                              # %if.else29.i23
	st.d	$a2, $s0, 320
	move	$a0, $a2
	b	.LBB29_28
.LBB29_26:                              # %if.end.i.i.i35
	pcaddu18i	$ra, %call36(memcpy)
	jirl	$ra, $ra, 0
.LBB29_27:                              # %if.end17.i30
	ld.d	$a0, $s0, 328
	ld.d	$a1, $fp, 320
	st.d	$a0, $fp, 328
	stx.b	$zero, $a1, $a0
	ld.d	$a0, $s0, 320
.LBB29_28:                              # %_ZNSt7__cxx1112basic_stringIcSt11char_traitsIcESaIcEEaSEOS4_.exit40
	st.d	$zero, $s0, 328
	st.b	$zero, $a0, 0
	ld.w	$a2, $s0, 352
	ld.d	$a0, $fp, 360
	ld.d	$a1, $s0, 360
	st.w	$a2, $fp, 352
	addi.d	$a3, $fp, 376
	addi.d	$a2, $s0, 376
	beq	$a0, $a3, .LBB29_31
# %bb.29:                               # %invoke.cont.thread.i42
	beq	$a1, $a2, .LBB29_35
# %bb.30:                               # %if.then22.i44
	ld.d	$a3, $a3, 0
	b	.LBB29_33
.LBB29_31:                              # %invoke.cont.i67
	beq	$a1, $a2, .LBB29_35
# %bb.32:
	move	$a0, $zero
                                        # implicit-def: $r7
.LBB29_33:                              # %if.end24.i45
	ld.d	$a4, $s0, 368
	st.d	$a1, $fp, 360
	st.d	$a4, $fp, 368
	ld.d	$a1, $s0, 376
	st.d	$a1, $fp, 376
	beqz	$a0, .LBB29_39
# %bb.34:                               # %if.then28.i52
	st.d	$a0, $s0, 360
	st.d	$a3, $s0, 376
	b	.LBB29_42
.LBB29_35:                              # %if.then8.i55
	beq	$s0, $fp, .LBB29_48
# %bb.36:                               # %if.then9.i59
	ld.d	$a2, $s0, 368
	beqz	$a2, .LBB29_41
# %bb.37:                               # %if.then9.i59
	ori	$a3, $zero, 1
	bne	$a2, $a3, .LBB29_40
# %bb.38:                               # %if.then.i25.i60
	ld.b	$a1, $a1, 0
	st.b	$a1, $a0, 0
	b	.LBB29_41
.LBB29_39:                              # %if.else29.i54
	st.d	$a2, $s0, 360
	move	$a0, $a2
	b	.LBB29_42
.LBB29_40:                              # %if.end.i.i.i66
	pcaddu18i	$ra, %call36(memcpy)
	jirl	$ra, $ra, 0
.LBB29_41:                              # %if.end17.i61
	ld.d	$a0, $s0, 368
	ld.d	$a1, $fp, 360
	st.d	$a0, $fp, 368
	stx.b	$zero, $a1, $a0
	ld.d	$a0, $s0, 360
.LBB29_42:                              # %_ZNSt7__cxx1112basic_stringIcSt11char_traitsIcESaIcEEaSEOS4_.exit71
	st.d	$zero, $s0, 368
	st.b	$zero, $a0, 0
	addi.d	$a0, $fp, 392
	addi.d	$a1, $s0, 392
	ori	$a2, $zero, 98
	pcaddu18i	$ra, %call36(memcpy)
	jirl	$ra, $ra, 0
	ld.d	$a1, $fp, 512
	addi.d	$a0, $fp, 496
.Ltmp153:                               # EH_LABEL
	pcaddu18i	$ra, %call36(_ZNSt8_Rb_treeINSt7__cxx1112basic_stringIcSt11char_traitsIcESaIcEEESt4pairIKS5_N9benchmark7CounterEESt10_Select1stISA_ESt4lessIS5_ESaISA_EE8_M_eraseEPSt13_Rb_tree_nodeISA_E)
	jirl	$ra, $ra, 0
.Ltmp154:                               # EH_LABEL
# %bb.43:                               # %_ZNSt8_Rb_treeINSt7__cxx1112basic_stringIcSt11char_traitsIcESaIcEEESt4pairIKS5_N9benchmark7CounterEESt10_Select1stISA_ESt4lessIS5_ESaISA_EE5clearEv.exit.i.i.i
	addi.d	$a0, $fp, 504
	st.d	$zero, $fp, 512
	st.d	$a0, $fp, 520
	st.d	$a0, $fp, 528
	ld.d	$a1, $s0, 512
	st.d	$zero, $fp, 536
	beqz	$a1, .LBB29_45
# %bb.44:                               # %if.then.i.i.i
	ld.w	$a2, $s0, 504
	st.d	$a1, $fp, 512
	vld	$vr0, $s0, 520
	addi.d	$a3, $s0, 504
	ld.d	$a4, $s0, 536
	st.w	$a2, $fp, 504
	vst	$vr0, $fp, 520
	st.d	$a0, $a1, 8
	st.d	$a4, $fp, 536
	st.d	$zero, $s0, 512
	st.d	$a3, $s0, 520
	st.d	$a3, $s0, 528
	st.d	$zero, $s0, 536
.LBB29_45:                              # %_ZNSt3mapINSt7__cxx1112basic_stringIcSt11char_traitsIcESaIcEEEN9benchmark7CounterESt4lessIS5_ESaISt4pairIKS5_S7_EEEaSEOSE_.exit
	vld	$vr0, $s0, 544
	vst	$vr0, $fp, 544
	move	$a0, $fp
	ld.d	$s0, $sp, 8                     # 8-byte Folded Reload
	ld.d	$fp, $sp, 16                    # 8-byte Folded Reload
	ld.d	$ra, $sp, 24                    # 8-byte Folded Reload
	addi.d	$sp, $sp, 32
	ret
.LBB29_46:
	move	$a0, $a1
	b	.LBB29_14
.LBB29_47:
	move	$a0, $a1
	b	.LBB29_28
.LBB29_48:
	move	$a0, $a1
	b	.LBB29_42
.LBB29_49:                              # %terminate.lpad.i.i.i.i
.Ltmp155:                               # EH_LABEL
	pcaddu18i	$ra, %call36(__clang_call_terminate)
	jirl	$ra, $ra, 0
.Lfunc_end29:
	.size	_ZN9benchmark17BenchmarkReporter3RunaSEOS1_, .Lfunc_end29-_ZN9benchmark17BenchmarkReporter3RunaSEOS1_
	.cfi_endproc
	.section	.gcc_except_table._ZN9benchmark17BenchmarkReporter3RunaSEOS1_,"aG",@progbits,_ZN9benchmark17BenchmarkReporter3RunaSEOS1_,comdat
	.p2align	2, 0x0
GCC_except_table29:
.Lexception14:
	.byte	255                             # @LPStart Encoding = omit
	.byte	155                             # @TType Encoding = indirect pcrel sdata4
	.uleb128 .Lttbase8-.Lttbaseref8
.Lttbaseref8:
	.byte	1                               # Call site Encoding = uleb128
	.uleb128 .Lcst_end14-.Lcst_begin14
.Lcst_begin14:
	.uleb128 .Lfunc_begin14-.Lfunc_begin14  # >> Call Site 1 <<
	.uleb128 .Ltmp153-.Lfunc_begin14        #   Call between .Lfunc_begin14 and .Ltmp153
	.byte	0                               #     has no landing pad
	.byte	0                               #   On action: cleanup
	.uleb128 .Ltmp153-.Lfunc_begin14        # >> Call Site 2 <<
	.uleb128 .Ltmp154-.Ltmp153              #   Call between .Ltmp153 and .Ltmp154
	.uleb128 .Ltmp155-.Lfunc_begin14        #     jumps to .Ltmp155
	.byte	1                               #   On action: 1
	.uleb128 .Ltmp154-.Lfunc_begin14        # >> Call Site 3 <<
	.uleb128 .Lfunc_end29-.Ltmp154          #   Call between .Ltmp154 and .Lfunc_end29
	.byte	0                               #     has no landing pad
	.byte	0                               #   On action: cleanup
.Lcst_end14:
	.byte	1                               # >> Action Record 1 <<
                                        #   Catch TypeInfo 1
	.byte	0                               #   No further actions
	.p2align	2, 0x0
                                        # >> Catch TypeInfos <<
	.word	0                               # TypeInfo 1
.Lttbase8:
	.p2align	2, 0x0
                                        # -- End function
	.section	.text._ZN9benchmark13BenchmarkNameaSEOS0_,"axG",@progbits,_ZN9benchmark13BenchmarkNameaSEOS0_,comdat
	.hidden	_ZN9benchmark13BenchmarkNameaSEOS0_ # -- Begin function _ZN9benchmark13BenchmarkNameaSEOS0_
	.weak	_ZN9benchmark13BenchmarkNameaSEOS0_
	.p2align	5
	.type	_ZN9benchmark13BenchmarkNameaSEOS0_,@function
_ZN9benchmark13BenchmarkNameaSEOS0_:    # @_ZN9benchmark13BenchmarkNameaSEOS0_
	.cfi_startproc
# %bb.0:                                # %entry
	addi.d	$sp, $sp, -32
	.cfi_def_cfa_offset 32
	st.d	$ra, $sp, 24                    # 8-byte Folded Spill
	st.d	$fp, $sp, 16                    # 8-byte Folded Spill
	st.d	$s0, $sp, 8                     # 8-byte Folded Spill
	.cfi_offset 1, -8
	.cfi_offset 22, -16
	.cfi_offset 23, -24
	move	$s0, $a1
	move	$fp, $a0
	ld.d	$a0, $a0, 0
	ld.d	$a1, $a1, 0
	addi.d	$a3, $fp, 16
	addi.d	$a2, $s0, 16
	beq	$a0, $a3, .LBB30_3
# %bb.1:                                # %invoke.cont.thread.i
	beq	$a1, $a2, .LBB30_7
# %bb.2:                                # %if.then22.i
	ld.d	$a3, $a3, 0
	b	.LBB30_5
.LBB30_3:                               # %invoke.cont.i
	beq	$a1, $a2, .LBB30_7
# %bb.4:
	move	$a0, $zero
                                        # implicit-def: $r7
.LBB30_5:                               # %if.end24.i
	ld.d	$a4, $s0, 8
	st.d	$a1, $fp, 0
	st.d	$a4, $fp, 8
	ld.d	$a1, $s0, 16
	st.d	$a1, $fp, 16
	beqz	$a0, .LBB30_11
# %bb.6:                                # %if.then28.i
	st.d	$a0, $s0, 0
	st.d	$a3, $s0, 16
	b	.LBB30_14
.LBB30_7:                               # %if.then8.i
	beq	$s0, $fp, .LBB30_113
# %bb.8:                                # %if.then9.i
	ld.d	$a2, $s0, 8
	beqz	$a2, .LBB30_13
# %bb.9:                                # %if.then9.i
	ori	$a3, $zero, 1
	bne	$a2, $a3, .LBB30_12
# %bb.10:                               # %if.then.i25.i
	ld.b	$a1, $a1, 0
	st.b	$a1, $a0, 0
	b	.LBB30_13
.LBB30_11:                              # %if.else29.i
	st.d	$a2, $s0, 0
	move	$a0, $a2
	b	.LBB30_14
.LBB30_12:                              # %if.end.i.i.i
	pcaddu18i	$ra, %call36(memcpy)
	jirl	$ra, $ra, 0
.LBB30_13:                              # %if.end17.i
	ld.d	$a0, $s0, 8
	ld.d	$a1, $fp, 0
	st.d	$a0, $fp, 8
	stx.b	$zero, $a1, $a0
	ld.d	$a0, $s0, 0
.LBB30_14:                              # %_ZNSt7__cxx1112basic_stringIcSt11char_traitsIcESaIcEEaSEOS4_.exit
	st.d	$zero, $s0, 8
	st.b	$zero, $a0, 0
	ld.d	$a0, $fp, 32
	ld.d	$a1, $s0, 32
	addi.d	$a3, $fp, 48
	addi.d	$a2, $s0, 48
	beq	$a0, $a3, .LBB30_17
# %bb.15:                               # %invoke.cont.thread.i9
	beq	$a1, $a2, .LBB30_21
# %bb.16:                               # %if.then22.i11
	ld.d	$a3, $a3, 0
	b	.LBB30_19
.LBB30_17:                              # %invoke.cont.i34
	beq	$a1, $a2, .LBB30_21
# %bb.18:
	move	$a0, $zero
                                        # implicit-def: $r7
.LBB30_19:                              # %if.end24.i12
	ld.d	$a4, $s0, 40
	st.d	$a1, $fp, 32
	st.d	$a4, $fp, 40
	ld.d	$a1, $s0, 48
	st.d	$a1, $fp, 48
	beqz	$a0, .LBB30_25
# %bb.20:                               # %if.then28.i19
	st.d	$a0, $s0, 32
	st.d	$a3, $s0, 48
	b	.LBB30_28
.LBB30_21:                              # %if.then8.i22
	beq	$s0, $fp, .LBB30_114
# %bb.22:                               # %if.then9.i26
	ld.d	$a2, $s0, 40
	beqz	$a2, .LBB30_27
# %bb.23:                               # %if.then9.i26
	ori	$a3, $zero, 1
	bne	$a2, $a3, .LBB30_26
# %bb.24:                               # %if.then.i25.i27
	ld.b	$a1, $a1, 0
	st.b	$a1, $a0, 0
	b	.LBB30_27
.LBB30_25:                              # %if.else29.i21
	st.d	$a2, $s0, 32
	move	$a0, $a2
	b	.LBB30_28
.LBB30_26:                              # %if.end.i.i.i33
	pcaddu18i	$ra, %call36(memcpy)
	jirl	$ra, $ra, 0
.LBB30_27:                              # %if.end17.i28
	ld.d	$a0, $s0, 40
	ld.d	$a1, $fp, 32
	st.d	$a0, $fp, 40
	stx.b	$zero, $a1, $a0
	ld.d	$a0, $s0, 32
.LBB30_28:                              # %_ZNSt7__cxx1112basic_stringIcSt11char_traitsIcESaIcEEaSEOS4_.exit38
	st.d	$zero, $s0, 40
	st.b	$zero, $a0, 0
	ld.d	$a0, $fp, 64
	ld.d	$a1, $s0, 64
	addi.d	$a3, $fp, 80
	addi.d	$a2, $s0, 80
	beq	$a0, $a3, .LBB30_31
# %bb.29:                               # %invoke.cont.thread.i40
	beq	$a1, $a2, .LBB30_35
# %bb.30:                               # %if.then22.i42
	ld.d	$a3, $a3, 0
	b	.LBB30_33
.LBB30_31:                              # %invoke.cont.i65
	beq	$a1, $a2, .LBB30_35
# %bb.32:
	move	$a0, $zero
                                        # implicit-def: $r7
.LBB30_33:                              # %if.end24.i43
	ld.d	$a4, $s0, 72
	st.d	$a1, $fp, 64
	st.d	$a4, $fp, 72
	ld.d	$a1, $s0, 80
	st.d	$a1, $fp, 80
	beqz	$a0, .LBB30_39
# %bb.34:                               # %if.then28.i50
	st.d	$a0, $s0, 64
	st.d	$a3, $s0, 80
	b	.LBB30_42
.LBB30_35:                              # %if.then8.i53
	beq	$s0, $fp, .LBB30_115
# %bb.36:                               # %if.then9.i57
	ld.d	$a2, $s0, 72
	beqz	$a2, .LBB30_41
# %bb.37:                               # %if.then9.i57
	ori	$a3, $zero, 1
	bne	$a2, $a3, .LBB30_40
# %bb.38:                               # %if.then.i25.i58
	ld.b	$a1, $a1, 0
	st.b	$a1, $a0, 0
	b	.LBB30_41
.LBB30_39:                              # %if.else29.i52
	st.d	$a2, $s0, 64
	move	$a0, $a2
	b	.LBB30_42
.LBB30_40:                              # %if.end.i.i.i64
	pcaddu18i	$ra, %call36(memcpy)
	jirl	$ra, $ra, 0
.LBB30_41:                              # %if.end17.i59
	ld.d	$a0, $s0, 72
	ld.d	$a1, $fp, 64
	st.d	$a0, $fp, 72
	stx.b	$zero, $a1, $a0
	ld.d	$a0, $s0, 64
.LBB30_42:                              # %_ZNSt7__cxx1112basic_stringIcSt11char_traitsIcESaIcEEaSEOS4_.exit69
	st.d	$zero, $s0, 72
	st.b	$zero, $a0, 0
	ld.d	$a0, $fp, 96
	ld.d	$a1, $s0, 96
	addi.d	$a3, $fp, 112
	addi.d	$a2, $s0, 112
	beq	$a0, $a3, .LBB30_45
# %bb.43:                               # %invoke.cont.thread.i71
	beq	$a1, $a2, .LBB30_49
# %bb.44:                               # %if.then22.i73
	ld.d	$a3, $a3, 0
	b	.LBB30_47
.LBB30_45:                              # %invoke.cont.i96
	beq	$a1, $a2, .LBB30_49
# %bb.46:
	move	$a0, $zero
                                        # implicit-def: $r7
.LBB30_47:                              # %if.end24.i74
	ld.d	$a4, $s0, 104
	st.d	$a1, $fp, 96
	st.d	$a4, $fp, 104
	ld.d	$a1, $s0, 112
	st.d	$a1, $fp, 112
	beqz	$a0, .LBB30_53
# %bb.48:                               # %if.then28.i81
	st.d	$a0, $s0, 96
	st.d	$a3, $s0, 112
	b	.LBB30_56
.LBB30_49:                              # %if.then8.i84
	beq	$s0, $fp, .LBB30_116
# %bb.50:                               # %if.then9.i88
	ld.d	$a2, $s0, 104
	beqz	$a2, .LBB30_55
# %bb.51:                               # %if.then9.i88
	ori	$a3, $zero, 1
	bne	$a2, $a3, .LBB30_54
# %bb.52:                               # %if.then.i25.i89
	ld.b	$a1, $a1, 0
	st.b	$a1, $a0, 0
	b	.LBB30_55
.LBB30_53:                              # %if.else29.i83
	st.d	$a2, $s0, 96
	move	$a0, $a2
	b	.LBB30_56
.LBB30_54:                              # %if.end.i.i.i95
	pcaddu18i	$ra, %call36(memcpy)
	jirl	$ra, $ra, 0
.LBB30_55:                              # %if.end17.i90
	ld.d	$a0, $s0, 104
	ld.d	$a1, $fp, 96
	st.d	$a0, $fp, 104
	stx.b	$zero, $a1, $a0
	ld.d	$a0, $s0, 96
.LBB30_56:                              # %_ZNSt7__cxx1112basic_stringIcSt11char_traitsIcESaIcEEaSEOS4_.exit100
	st.d	$zero, $s0, 104
	st.b	$zero, $a0, 0
	ld.d	$a0, $fp, 128
	ld.d	$a1, $s0, 128
	addi.d	$a3, $fp, 144
	addi.d	$a2, $s0, 144
	beq	$a0, $a3, .LBB30_59
# %bb.57:                               # %invoke.cont.thread.i102
	beq	$a1, $a2, .LBB30_63
# %bb.58:                               # %if.then22.i104
	ld.d	$a3, $a3, 0
	b	.LBB30_61
.LBB30_59:                              # %invoke.cont.i127
	beq	$a1, $a2, .LBB30_63
# %bb.60:
	move	$a0, $zero
                                        # implicit-def: $r7
.LBB30_61:                              # %if.end24.i105
	ld.d	$a4, $s0, 136
	st.d	$a1, $fp, 128
	st.d	$a4, $fp, 136
	ld.d	$a1, $s0, 144
	st.d	$a1, $fp, 144
	beqz	$a0, .LBB30_67
# %bb.62:                               # %if.then28.i112
	st.d	$a0, $s0, 128
	st.d	$a3, $s0, 144
	b	.LBB30_70
.LBB30_63:                              # %if.then8.i115
	beq	$s0, $fp, .LBB30_117
# %bb.64:                               # %if.then9.i119
	ld.d	$a2, $s0, 136
	beqz	$a2, .LBB30_69
# %bb.65:                               # %if.then9.i119
	ori	$a3, $zero, 1
	bne	$a2, $a3, .LBB30_68
# %bb.66:                               # %if.then.i25.i120
	ld.b	$a1, $a1, 0
	st.b	$a1, $a0, 0
	b	.LBB30_69
.LBB30_67:                              # %if.else29.i114
	st.d	$a2, $s0, 128
	move	$a0, $a2
	b	.LBB30_70
.LBB30_68:                              # %if.end.i.i.i126
	pcaddu18i	$ra, %call36(memcpy)
	jirl	$ra, $ra, 0
.LBB30_69:                              # %if.end17.i121
	ld.d	$a0, $s0, 136
	ld.d	$a1, $fp, 128
	st.d	$a0, $fp, 136
	stx.b	$zero, $a1, $a0
	ld.d	$a0, $s0, 128
.LBB30_70:                              # %_ZNSt7__cxx1112basic_stringIcSt11char_traitsIcESaIcEEaSEOS4_.exit131
	st.d	$zero, $s0, 136
	st.b	$zero, $a0, 0
	ld.d	$a0, $fp, 160
	ld.d	$a1, $s0, 160
	addi.d	$a3, $fp, 176
	addi.d	$a2, $s0, 176
	beq	$a0, $a3, .LBB30_73
# %bb.71:                               # %invoke.cont.thread.i133
	beq	$a1, $a2, .LBB30_77
# %bb.72:                               # %if.then22.i135
	ld.d	$a3, $a3, 0
	b	.LBB30_75
.LBB30_73:                              # %invoke.cont.i158
	beq	$a1, $a2, .LBB30_77
# %bb.74:
	move	$a0, $zero
                                        # implicit-def: $r7
.LBB30_75:                              # %if.end24.i136
	ld.d	$a4, $s0, 168
	st.d	$a1, $fp, 160
	st.d	$a4, $fp, 168
	ld.d	$a1, $s0, 176
	st.d	$a1, $fp, 176
	beqz	$a0, .LBB30_81
# %bb.76:                               # %if.then28.i143
	st.d	$a0, $s0, 160
	st.d	$a3, $s0, 176
	b	.LBB30_84
.LBB30_77:                              # %if.then8.i146
	beq	$s0, $fp, .LBB30_118
# %bb.78:                               # %if.then9.i150
	ld.d	$a2, $s0, 168
	beqz	$a2, .LBB30_83
# %bb.79:                               # %if.then9.i150
	ori	$a3, $zero, 1
	bne	$a2, $a3, .LBB30_82
# %bb.80:                               # %if.then.i25.i151
	ld.b	$a1, $a1, 0
	st.b	$a1, $a0, 0
	b	.LBB30_83
.LBB30_81:                              # %if.else29.i145
	st.d	$a2, $s0, 160
	move	$a0, $a2
	b	.LBB30_84
.LBB30_82:                              # %if.end.i.i.i157
	pcaddu18i	$ra, %call36(memcpy)
	jirl	$ra, $ra, 0
.LBB30_83:                              # %if.end17.i152
	ld.d	$a0, $s0, 168
	ld.d	$a1, $fp, 160
	st.d	$a0, $fp, 168
	stx.b	$zero, $a1, $a0
	ld.d	$a0, $s0, 160
.LBB30_84:                              # %_ZNSt7__cxx1112basic_stringIcSt11char_traitsIcESaIcEEaSEOS4_.exit162
	st.d	$zero, $s0, 168
	st.b	$zero, $a0, 0
	ld.d	$a0, $fp, 192
	ld.d	$a1, $s0, 192
	addi.d	$a3, $fp, 208
	addi.d	$a2, $s0, 208
	beq	$a0, $a3, .LBB30_87
# %bb.85:                               # %invoke.cont.thread.i164
	beq	$a1, $a2, .LBB30_91
# %bb.86:                               # %if.then22.i166
	ld.d	$a3, $a3, 0
	b	.LBB30_89
.LBB30_87:                              # %invoke.cont.i189
	beq	$a1, $a2, .LBB30_91
# %bb.88:
	move	$a0, $zero
                                        # implicit-def: $r7
.LBB30_89:                              # %if.end24.i167
	ld.d	$a4, $s0, 200
	st.d	$a1, $fp, 192
	st.d	$a4, $fp, 200
	ld.d	$a1, $s0, 208
	st.d	$a1, $fp, 208
	beqz	$a0, .LBB30_95
# %bb.90:                               # %if.then28.i174
	st.d	$a0, $s0, 192
	st.d	$a3, $s0, 208
	b	.LBB30_98
.LBB30_91:                              # %if.then8.i177
	beq	$s0, $fp, .LBB30_119
# %bb.92:                               # %if.then9.i181
	ld.d	$a2, $s0, 200
	beqz	$a2, .LBB30_97
# %bb.93:                               # %if.then9.i181
	ori	$a3, $zero, 1
	bne	$a2, $a3, .LBB30_96
# %bb.94:                               # %if.then.i25.i182
	ld.b	$a1, $a1, 0
	st.b	$a1, $a0, 0
	b	.LBB30_97
.LBB30_95:                              # %if.else29.i176
	st.d	$a2, $s0, 192
	move	$a0, $a2
	b	.LBB30_98
.LBB30_96:                              # %if.end.i.i.i188
	pcaddu18i	$ra, %call36(memcpy)
	jirl	$ra, $ra, 0
.LBB30_97:                              # %if.end17.i183
	ld.d	$a0, $s0, 200
	ld.d	$a1, $fp, 192
	st.d	$a0, $fp, 200
	stx.b	$zero, $a1, $a0
	ld.d	$a0, $s0, 192
.LBB30_98:                              # %_ZNSt7__cxx1112basic_stringIcSt11char_traitsIcESaIcEEaSEOS4_.exit193
	st.d	$zero, $s0, 200
	st.b	$zero, $a0, 0
	ld.d	$a0, $fp, 224
	ld.d	$a1, $s0, 224
	addi.d	$a3, $fp, 240
	addi.d	$a2, $s0, 240
	beq	$a0, $a3, .LBB30_101
# %bb.99:                               # %invoke.cont.thread.i195
	beq	$a1, $a2, .LBB30_105
# %bb.100:                              # %if.then22.i197
	ld.d	$a3, $a3, 0
	b	.LBB30_103
.LBB30_101:                             # %invoke.cont.i220
	beq	$a1, $a2, .LBB30_105
# %bb.102:
	move	$a0, $zero
                                        # implicit-def: $r7
.LBB30_103:                             # %if.end24.i198
	ld.d	$a4, $s0, 232
	st.d	$a1, $fp, 224
	st.d	$a4, $fp, 232
	ld.d	$a1, $s0, 240
	st.d	$a1, $fp, 240
	beqz	$a0, .LBB30_109
# %bb.104:                              # %if.then28.i205
	st.d	$a0, $s0, 224
	st.d	$a3, $s0, 240
	b	.LBB30_112
.LBB30_105:                             # %if.then8.i208
	beq	$s0, $fp, .LBB30_120
# %bb.106:                              # %if.then9.i212
	ld.d	$a2, $s0, 232
	beqz	$a2, .LBB30_111
# %bb.107:                              # %if.then9.i212
	ori	$a3, $zero, 1
	bne	$a2, $a3, .LBB30_110
# %bb.108:                              # %if.then.i25.i213
	ld.b	$a1, $a1, 0
	st.b	$a1, $a0, 0
	b	.LBB30_111
.LBB30_109:                             # %if.else29.i207
	st.d	$a2, $s0, 224
	move	$a0, $a2
	b	.LBB30_112
.LBB30_110:                             # %if.end.i.i.i219
	pcaddu18i	$ra, %call36(memcpy)
	jirl	$ra, $ra, 0
.LBB30_111:                             # %if.end17.i214
	ld.d	$a0, $s0, 232
	ld.d	$a1, $fp, 224
	st.d	$a0, $fp, 232
	stx.b	$zero, $a1, $a0
	ld.d	$a0, $s0, 224
.LBB30_112:                             # %_ZNSt7__cxx1112basic_stringIcSt11char_traitsIcESaIcEEaSEOS4_.exit224
	st.d	$zero, $s0, 232
	st.b	$zero, $a0, 0
	move	$a0, $fp
	ld.d	$s0, $sp, 8                     # 8-byte Folded Reload
	ld.d	$fp, $sp, 16                    # 8-byte Folded Reload
	ld.d	$ra, $sp, 24                    # 8-byte Folded Reload
	addi.d	$sp, $sp, 32
	ret
.LBB30_113:
	move	$a0, $a1
	b	.LBB30_14
.LBB30_114:
	move	$a0, $a1
	b	.LBB30_28
.LBB30_115:
	move	$a0, $a1
	b	.LBB30_42
.LBB30_116:
	move	$a0, $a1
	b	.LBB30_56
.LBB30_117:
	move	$a0, $a1
	b	.LBB30_70
.LBB30_118:
	move	$a0, $a1
	b	.LBB30_84
.LBB30_119:
	move	$a0, $a1
	b	.LBB30_98
.LBB30_120:
	move	$a0, $a1
	b	.LBB30_112
.Lfunc_end30:
	.size	_ZN9benchmark13BenchmarkNameaSEOS0_, .Lfunc_end30-_ZN9benchmark13BenchmarkNameaSEOS0_
	.cfi_endproc
                                        # -- End function
	.section	.text._ZSt14__copy_move_a2ILb0EPKN9benchmark17BenchmarkReporter3RunES4_PS2_ET2_T0_T1_S6_,"axG",@progbits,_ZSt14__copy_move_a2ILb0EPKN9benchmark17BenchmarkReporter3RunES4_PS2_ET2_T0_T1_S6_,comdat
	.hidden	_ZSt14__copy_move_a2ILb0EPKN9benchmark17BenchmarkReporter3RunES4_PS2_ET2_T0_T1_S6_ # -- Begin function _ZSt14__copy_move_a2ILb0EPKN9benchmark17BenchmarkReporter3RunES4_PS2_ET2_T0_T1_S6_
	.weak	_ZSt14__copy_move_a2ILb0EPKN9benchmark17BenchmarkReporter3RunES4_PS2_ET2_T0_T1_S6_
	.p2align	5
	.type	_ZSt14__copy_move_a2ILb0EPKN9benchmark17BenchmarkReporter3RunES4_PS2_ET2_T0_T1_S6_,@function
_ZSt14__copy_move_a2ILb0EPKN9benchmark17BenchmarkReporter3RunES4_PS2_ET2_T0_T1_S6_: # @_ZSt14__copy_move_a2ILb0EPKN9benchmark17BenchmarkReporter3RunES4_PS2_ET2_T0_T1_S6_
	.cfi_startproc
# %bb.0:                                # %entry
	addi.d	$sp, $sp, -32
	.cfi_def_cfa_offset 32
	st.d	$ra, $sp, 24                    # 8-byte Folded Spill
	st.d	$fp, $sp, 16                    # 8-byte Folded Spill
	st.d	$s0, $sp, 8                     # 8-byte Folded Spill
	st.d	$s1, $sp, 0                     # 8-byte Folded Spill
	.cfi_offset 1, -8
	.cfi_offset 22, -16
	.cfi_offset 23, -24
	.cfi_offset 24, -32
	move	$fp, $a2
	beq	$a0, $a1, .LBB31_3
# %bb.1:                                # %for.body.preheader
	move	$s0, $a1
	move	$s1, $a0
	.p2align	4, , 16
.LBB31_2:                               # %for.body
                                        # =>This Inner Loop Header: Depth=1
	move	$a0, $fp
	move	$a1, $s1
	pcaddu18i	$ra, %call36(_ZNSt7__cxx1112basic_stringIcSt11char_traitsIcESaIcEE9_M_assignERKS4_)
	jirl	$ra, $ra, 0
	addi.d	$a0, $fp, 32
	addi.d	$a1, $s1, 32
	pcaddu18i	$ra, %call36(_ZNSt7__cxx1112basic_stringIcSt11char_traitsIcESaIcEE9_M_assignERKS4_)
	jirl	$ra, $ra, 0
	addi.d	$a0, $fp, 64
	addi.d	$a1, $s1, 64
	pcaddu18i	$ra, %call36(_ZNSt7__cxx1112basic_stringIcSt11char_traitsIcESaIcEE9_M_assignERKS4_)
	jirl	$ra, $ra, 0
	addi.d	$a0, $fp, 96
	addi.d	$a1, $s1, 96
	pcaddu18i	$ra, %call36(_ZNSt7__cxx1112basic_stringIcSt11char_traitsIcESaIcEE9_M_assignERKS4_)
	jirl	$ra, $ra, 0
	addi.d	$a0, $fp, 128
	addi.d	$a1, $s1, 128
	pcaddu18i	$ra, %call36(_ZNSt7__cxx1112basic_stringIcSt11char_traitsIcESaIcEE9_M_assignERKS4_)
	jirl	$ra, $ra, 0
	addi.d	$a0, $fp, 160
	addi.d	$a1, $s1, 160
	pcaddu18i	$ra, %call36(_ZNSt7__cxx1112basic_stringIcSt11char_traitsIcESaIcEE9_M_assignERKS4_)
	jirl	$ra, $ra, 0
	addi.d	$a0, $fp, 192
	addi.d	$a1, $s1, 192
	pcaddu18i	$ra, %call36(_ZNSt7__cxx1112basic_stringIcSt11char_traitsIcESaIcEE9_M_assignERKS4_)
	jirl	$ra, $ra, 0
	addi.d	$a0, $fp, 224
	addi.d	$a1, $s1, 224
	pcaddu18i	$ra, %call36(_ZNSt7__cxx1112basic_stringIcSt11char_traitsIcESaIcEE9_M_assignERKS4_)
	jirl	$ra, $ra, 0
	ld.w	$a0, $s1, 272
	st.w	$a0, $fp, 272
	vld	$vr0, $s1, 256
	vst	$vr0, $fp, 256
	addi.d	$a0, $fp, 280
	addi.d	$a1, $s1, 280
	pcaddu18i	$ra, %call36(_ZNSt7__cxx1112basic_stringIcSt11char_traitsIcESaIcEE9_M_assignERKS4_)
	jirl	$ra, $ra, 0
	ld.w	$a0, $s1, 312
	st.w	$a0, $fp, 312
	addi.d	$a0, $fp, 320
	addi.d	$a1, $s1, 320
	pcaddu18i	$ra, %call36(_ZNSt7__cxx1112basic_stringIcSt11char_traitsIcESaIcEE9_M_assignERKS4_)
	jirl	$ra, $ra, 0
	ld.w	$a0, $s1, 352
	st.w	$a0, $fp, 352
	addi.d	$a0, $fp, 360
	addi.d	$a1, $s1, 360
	pcaddu18i	$ra, %call36(_ZNSt7__cxx1112basic_stringIcSt11char_traitsIcESaIcEE9_M_assignERKS4_)
	jirl	$ra, $ra, 0
	addi.d	$a0, $fp, 392
	addi.d	$a1, $s1, 392
	ori	$a2, $zero, 98
	pcaddu18i	$ra, %call36(memcpy)
	jirl	$ra, $ra, 0
	addi.d	$a0, $fp, 496
	addi.d	$a1, $s1, 496
	pcaddu18i	$ra, %call36(_ZNSt8_Rb_treeINSt7__cxx1112basic_stringIcSt11char_traitsIcESaIcEEESt4pairIKS5_N9benchmark7CounterEESt10_Select1stISA_ESt4lessIS5_ESaISA_EEaSERKSG_)
	jirl	$ra, $ra, 0
	vld	$vr0, $s1, 544
	vst	$vr0, $fp, 544
	addi.d	$s1, $s1, 560
	addi.d	$fp, $fp, 560
	bne	$s1, $s0, .LBB31_2
.LBB31_3:                               # %for.end
	move	$a0, $fp
	ld.d	$s1, $sp, 0                     # 8-byte Folded Reload
	ld.d	$s0, $sp, 8                     # 8-byte Folded Reload
	ld.d	$fp, $sp, 16                    # 8-byte Folded Reload
	ld.d	$ra, $sp, 24                    # 8-byte Folded Reload
	addi.d	$sp, $sp, 32
	ret
.Lfunc_end31:
	.size	_ZSt14__copy_move_a2ILb0EPKN9benchmark17BenchmarkReporter3RunES4_PS2_ET2_T0_T1_S6_, .Lfunc_end31-_ZSt14__copy_move_a2ILb0EPKN9benchmark17BenchmarkReporter3RunES4_PS2_ET2_T0_T1_S6_
	.cfi_endproc
                                        # -- End function
	.section	.text._ZNSt8_Rb_treeINSt7__cxx1112basic_stringIcSt11char_traitsIcESaIcEEESt4pairIKS5_N9benchmark7CounterEESt10_Select1stISA_ESt4lessIS5_ESaISA_EEaSERKSG_,"axG",@progbits,_ZNSt8_Rb_treeINSt7__cxx1112basic_stringIcSt11char_traitsIcESaIcEEESt4pairIKS5_N9benchmark7CounterEESt10_Select1stISA_ESt4lessIS5_ESaISA_EEaSERKSG_,comdat
	.hidden	_ZNSt8_Rb_treeINSt7__cxx1112basic_stringIcSt11char_traitsIcESaIcEEESt4pairIKS5_N9benchmark7CounterEESt10_Select1stISA_ESt4lessIS5_ESaISA_EEaSERKSG_ # -- Begin function _ZNSt8_Rb_treeINSt7__cxx1112basic_stringIcSt11char_traitsIcESaIcEEESt4pairIKS5_N9benchmark7CounterEESt10_Select1stISA_ESt4lessIS5_ESaISA_EEaSERKSG_
	.weak	_ZNSt8_Rb_treeINSt7__cxx1112basic_stringIcSt11char_traitsIcESaIcEEESt4pairIKS5_N9benchmark7CounterEESt10_Select1stISA_ESt4lessIS5_ESaISA_EEaSERKSG_
	.p2align	5
	.type	_ZNSt8_Rb_treeINSt7__cxx1112basic_stringIcSt11char_traitsIcESaIcEEESt4pairIKS5_N9benchmark7CounterEESt10_Select1stISA_ESt4lessIS5_ESaISA_EEaSERKSG_,@function
_ZNSt8_Rb_treeINSt7__cxx1112basic_stringIcSt11char_traitsIcESaIcEEESt4pairIKS5_N9benchmark7CounterEESt10_Select1stISA_ESt4lessIS5_ESaISA_EEaSERKSG_: # @_ZNSt8_Rb_treeINSt7__cxx1112basic_stringIcSt11char_traitsIcESaIcEEESt4pairIKS5_N9benchmark7CounterEESt10_Select1stISA_ESt4lessIS5_ESaISA_EEaSERKSG_
.Lfunc_begin15:
	.cfi_startproc
	.cfi_personality 155, DW.ref.__gxx_personality_v0
	.cfi_lsda 27, .Lexception15
# %bb.0:                                # %entry
	addi.d	$sp, $sp, -48
	.cfi_def_cfa_offset 48
	st.d	$ra, $sp, 40                    # 8-byte Folded Spill
	st.d	$fp, $sp, 32                    # 8-byte Folded Spill
	st.d	$s0, $sp, 24                    # 8-byte Folded Spill
	.cfi_offset 1, -8
	.cfi_offset 22, -16
	.cfi_offset 23, -24
	move	$fp, $a0
	beq	$a0, $a1, .LBB32_14
# %bb.1:                                # %if.then
	move	$s0, $a1
	ld.d	$a1, $fp, 16
	ld.d	$a0, $fp, 32
	st.d	$a1, $sp, 0
	st.d	$a0, $sp, 8
	st.d	$fp, $sp, 16
	beqz	$a1, .LBB32_3
# %bb.2:                                # %if.then.i
	ld.d	$a0, $a0, 16
	st.d	$zero, $a1, 8
	bnez	$a0, .LBB32_4
	b	.LBB32_5
.LBB32_3:
	move	$a0, $zero
.LBB32_4:                               # %if.end12.sink.split.i
	st.d	$a0, $sp, 8
.LBB32_5:                               # %_ZNSt8_Rb_treeINSt7__cxx1112basic_stringIcSt11char_traitsIcESaIcEEESt4pairIKS5_N9benchmark7CounterEESt10_Select1stISA_ESt4lessIS5_ESaISA_EE20_Reuse_or_alloc_nodeC2ERSG_.exit
	st.d	$zero, $fp, 16
	ld.d	$a4, $s0, 16
	addi.d	$a2, $fp, 8
	st.d	$a2, $fp, 24
	st.d	$a2, $fp, 32
	st.d	$zero, $fp, 40
	beqz	$a4, .LBB32_12
# %bb.6:                                # %if.then4
.Ltmp156:                               # EH_LABEL
	addi.d	$a3, $sp, 0
	move	$a0, $fp
	move	$a1, $a4
	pcaddu18i	$ra, %call36(_ZNSt8_Rb_treeINSt7__cxx1112basic_stringIcSt11char_traitsIcESaIcEEESt4pairIKS5_N9benchmark7CounterEESt10_Select1stISA_ESt4lessIS5_ESaISA_EE7_M_copyILb0ENSG_20_Reuse_or_alloc_nodeEEEPSt18_Rb_tree_node_basePSt13_Rb_tree_nodeISA_ESK_RT0_)
	jirl	$ra, $ra, 0
.Ltmp157:                               # EH_LABEL
# %bb.7:                                # %while.cond.i.i.preheader
	move	$a2, $a0
	.p2align	4, , 16
.LBB32_8:                               # %while.cond.i.i
                                        # =>This Inner Loop Header: Depth=1
	move	$a1, $a2
	ld.d	$a2, $a2, 16
	bnez	$a2, .LBB32_8
# %bb.9:                                # %_ZNSt18_Rb_tree_node_base10_S_minimumEPS_.exit.i
	st.d	$a1, $fp, 24
	move	$a1, $a0
	.p2align	4, , 16
.LBB32_10:                              # %while.cond.i5.i
                                        # =>This Inner Loop Header: Depth=1
	move	$a2, $a1
	ld.d	$a1, $a1, 24
	bnez	$a1, .LBB32_10
# %bb.11:                               # %invoke.cont
	ld.d	$a3, $s0, 40
	ld.d	$a1, $sp, 0
	st.d	$a2, $fp, 32
	st.d	$a3, $fp, 40
	st.d	$a0, $fp, 16
.LBB32_12:                              # %if.end
	beqz	$a1, .LBB32_14
# %bb.13:                               # %if.then.i13
	ld.d	$a0, $sp, 16
.Ltmp159:                               # EH_LABEL
	pcaddu18i	$ra, %call36(_ZNSt8_Rb_treeINSt7__cxx1112basic_stringIcSt11char_traitsIcESaIcEEESt4pairIKS5_N9benchmark7CounterEESt10_Select1stISA_ESt4lessIS5_ESaISA_EE8_M_eraseEPSt13_Rb_tree_nodeISA_E)
	jirl	$ra, $ra, 0
.Ltmp160:                               # EH_LABEL
.LBB32_14:                              # %if.end7
	move	$a0, $fp
	ld.d	$s0, $sp, 24                    # 8-byte Folded Reload
	ld.d	$fp, $sp, 32                    # 8-byte Folded Reload
	ld.d	$ra, $sp, 40                    # 8-byte Folded Reload
	addi.d	$sp, $sp, 48
	ret
.LBB32_15:                              # %terminate.lpad.i
.Ltmp161:                               # EH_LABEL
	pcaddu18i	$ra, %call36(__clang_call_terminate)
	jirl	$ra, $ra, 0
.LBB32_16:                              # %lpad
.Ltmp158:                               # EH_LABEL
	move	$fp, $a0
	addi.d	$a0, $sp, 0
	pcaddu18i	$ra, %call36(_ZNSt8_Rb_treeINSt7__cxx1112basic_stringIcSt11char_traitsIcESaIcEEESt4pairIKS5_N9benchmark7CounterEESt10_Select1stISA_ESt4lessIS5_ESaISA_EE20_Reuse_or_alloc_nodeD2Ev)
	jirl	$ra, $ra, 0
	move	$a0, $fp
	pcaddu18i	$ra, %call36(_Unwind_Resume)
	jirl	$ra, $ra, 0
.Lfunc_end32:
	.size	_ZNSt8_Rb_treeINSt7__cxx1112basic_stringIcSt11char_traitsIcESaIcEEESt4pairIKS5_N9benchmark7CounterEESt10_Select1stISA_ESt4lessIS5_ESaISA_EEaSERKSG_, .Lfunc_end32-_ZNSt8_Rb_treeINSt7__cxx1112basic_stringIcSt11char_traitsIcESaIcEEESt4pairIKS5_N9benchmark7CounterEESt10_Select1stISA_ESt4lessIS5_ESaISA_EEaSERKSG_
	.cfi_endproc
	.section	.gcc_except_table._ZNSt8_Rb_treeINSt7__cxx1112basic_stringIcSt11char_traitsIcESaIcEEESt4pairIKS5_N9benchmark7CounterEESt10_Select1stISA_ESt4lessIS5_ESaISA_EEaSERKSG_,"aG",@progbits,_ZNSt8_Rb_treeINSt7__cxx1112basic_stringIcSt11char_traitsIcESaIcEEESt4pairIKS5_N9benchmark7CounterEESt10_Select1stISA_ESt4lessIS5_ESaISA_EEaSERKSG_,comdat
	.p2align	2, 0x0
GCC_except_table32:
.Lexception15:
	.byte	255                             # @LPStart Encoding = omit
	.byte	155                             # @TType Encoding = indirect pcrel sdata4
	.uleb128 .Lttbase9-.Lttbaseref9
.Lttbaseref9:
	.byte	1                               # Call site Encoding = uleb128
	.uleb128 .Lcst_end15-.Lcst_begin15
.Lcst_begin15:
	.uleb128 .Ltmp156-.Lfunc_begin15        # >> Call Site 1 <<
	.uleb128 .Ltmp157-.Ltmp156              #   Call between .Ltmp156 and .Ltmp157
	.uleb128 .Ltmp158-.Lfunc_begin15        #     jumps to .Ltmp158
	.byte	0                               #   On action: cleanup
	.uleb128 .Ltmp159-.Lfunc_begin15        # >> Call Site 2 <<
	.uleb128 .Ltmp160-.Ltmp159              #   Call between .Ltmp159 and .Ltmp160
	.uleb128 .Ltmp161-.Lfunc_begin15        #     jumps to .Ltmp161
	.byte	1                               #   On action: 1
	.uleb128 .Ltmp160-.Lfunc_begin15        # >> Call Site 3 <<
	.uleb128 .Lfunc_end32-.Ltmp160          #   Call between .Ltmp160 and .Lfunc_end32
	.byte	0                               #     has no landing pad
	.byte	0                               #   On action: cleanup
.Lcst_end15:
	.byte	1                               # >> Action Record 1 <<
                                        #   Catch TypeInfo 1
	.byte	0                               #   No further actions
	.p2align	2, 0x0
                                        # >> Catch TypeInfos <<
	.word	0                               # TypeInfo 1
.Lttbase9:
	.p2align	2, 0x0
                                        # -- End function
	.section	.text._ZNSt8_Rb_treeINSt7__cxx1112basic_stringIcSt11char_traitsIcESaIcEEESt4pairIKS5_N9benchmark7CounterEESt10_Select1stISA_ESt4lessIS5_ESaISA_EE20_Reuse_or_alloc_nodeD2Ev,"axG",@progbits,_ZNSt8_Rb_treeINSt7__cxx1112basic_stringIcSt11char_traitsIcESaIcEEESt4pairIKS5_N9benchmark7CounterEESt10_Select1stISA_ESt4lessIS5_ESaISA_EE20_Reuse_or_alloc_nodeD2Ev,comdat
	.hidden	_ZNSt8_Rb_treeINSt7__cxx1112basic_stringIcSt11char_traitsIcESaIcEEESt4pairIKS5_N9benchmark7CounterEESt10_Select1stISA_ESt4lessIS5_ESaISA_EE20_Reuse_or_alloc_nodeD2Ev # -- Begin function _ZNSt8_Rb_treeINSt7__cxx1112basic_stringIcSt11char_traitsIcESaIcEEESt4pairIKS5_N9benchmark7CounterEESt10_Select1stISA_ESt4lessIS5_ESaISA_EE20_Reuse_or_alloc_nodeD2Ev
	.weak	_ZNSt8_Rb_treeINSt7__cxx1112basic_stringIcSt11char_traitsIcESaIcEEESt4pairIKS5_N9benchmark7CounterEESt10_Select1stISA_ESt4lessIS5_ESaISA_EE20_Reuse_or_alloc_nodeD2Ev
	.p2align	5
	.type	_ZNSt8_Rb_treeINSt7__cxx1112basic_stringIcSt11char_traitsIcESaIcEEESt4pairIKS5_N9benchmark7CounterEESt10_Select1stISA_ESt4lessIS5_ESaISA_EE20_Reuse_or_alloc_nodeD2Ev,@function
_ZNSt8_Rb_treeINSt7__cxx1112basic_stringIcSt11char_traitsIcESaIcEEESt4pairIKS5_N9benchmark7CounterEESt10_Select1stISA_ESt4lessIS5_ESaISA_EE20_Reuse_or_alloc_nodeD2Ev: # @_ZNSt8_Rb_treeINSt7__cxx1112basic_stringIcSt11char_traitsIcESaIcEEESt4pairIKS5_N9benchmark7CounterEESt10_Select1stISA_ESt4lessIS5_ESaISA_EE20_Reuse_or_alloc_nodeD2Ev
.Lfunc_begin16:
	.cfi_startproc
	.cfi_personality 155, DW.ref.__gxx_personality_v0
	.cfi_lsda 27, .Lexception16
# %bb.0:                                # %entry
	addi.d	$sp, $sp, -16
	.cfi_def_cfa_offset 16
	st.d	$ra, $sp, 8                     # 8-byte Folded Spill
	.cfi_offset 1, -8
	ld.d	$a1, $a0, 0
	beqz	$a1, .LBB33_2
# %bb.1:                                # %if.then
	ld.d	$a0, $a0, 16
.Ltmp162:                               # EH_LABEL
	pcaddu18i	$ra, %call36(_ZNSt8_Rb_treeINSt7__cxx1112basic_stringIcSt11char_traitsIcESaIcEEESt4pairIKS5_N9benchmark7CounterEESt10_Select1stISA_ESt4lessIS5_ESaISA_EE8_M_eraseEPSt13_Rb_tree_nodeISA_E)
	jirl	$ra, $ra, 0
.Ltmp163:                               # EH_LABEL
.LBB33_2:                               # %if.end
	ld.d	$ra, $sp, 8                     # 8-byte Folded Reload
	addi.d	$sp, $sp, 16
	ret
.LBB33_3:                               # %terminate.lpad
.Ltmp164:                               # EH_LABEL
	pcaddu18i	$ra, %call36(__clang_call_terminate)
	jirl	$ra, $ra, 0
.Lfunc_end33:
	.size	_ZNSt8_Rb_treeINSt7__cxx1112basic_stringIcSt11char_traitsIcESaIcEEESt4pairIKS5_N9benchmark7CounterEESt10_Select1stISA_ESt4lessIS5_ESaISA_EE20_Reuse_or_alloc_nodeD2Ev, .Lfunc_end33-_ZNSt8_Rb_treeINSt7__cxx1112basic_stringIcSt11char_traitsIcESaIcEEESt4pairIKS5_N9benchmark7CounterEESt10_Select1stISA_ESt4lessIS5_ESaISA_EE20_Reuse_or_alloc_nodeD2Ev
	.cfi_endproc
	.section	.gcc_except_table._ZNSt8_Rb_treeINSt7__cxx1112basic_stringIcSt11char_traitsIcESaIcEEESt4pairIKS5_N9benchmark7CounterEESt10_Select1stISA_ESt4lessIS5_ESaISA_EE20_Reuse_or_alloc_nodeD2Ev,"aG",@progbits,_ZNSt8_Rb_treeINSt7__cxx1112basic_stringIcSt11char_traitsIcESaIcEEESt4pairIKS5_N9benchmark7CounterEESt10_Select1stISA_ESt4lessIS5_ESaISA_EE20_Reuse_or_alloc_nodeD2Ev,comdat
	.p2align	2, 0x0
GCC_except_table33:
.Lexception16:
	.byte	255                             # @LPStart Encoding = omit
	.byte	155                             # @TType Encoding = indirect pcrel sdata4
	.uleb128 .Lttbase10-.Lttbaseref10
.Lttbaseref10:
	.byte	1                               # Call site Encoding = uleb128
	.uleb128 .Lcst_end16-.Lcst_begin16
.Lcst_begin16:
	.uleb128 .Ltmp162-.Lfunc_begin16        # >> Call Site 1 <<
	.uleb128 .Ltmp163-.Ltmp162              #   Call between .Ltmp162 and .Ltmp163
	.uleb128 .Ltmp164-.Lfunc_begin16        #     jumps to .Ltmp164
	.byte	1                               #   On action: 1
	.uleb128 .Ltmp163-.Lfunc_begin16        # >> Call Site 2 <<
	.uleb128 .Lfunc_end33-.Ltmp163          #   Call between .Ltmp163 and .Lfunc_end33
	.byte	0                               #     has no landing pad
	.byte	0                               #   On action: cleanup
.Lcst_end16:
	.byte	1                               # >> Action Record 1 <<
                                        #   Catch TypeInfo 1
	.byte	0                               #   No further actions
	.p2align	2, 0x0
                                        # >> Catch TypeInfos <<
	.word	0                               # TypeInfo 1
.Lttbase10:
	.p2align	2, 0x0
                                        # -- End function
	.section	.text._ZNSt8_Rb_treeINSt7__cxx1112basic_stringIcSt11char_traitsIcESaIcEEESt4pairIKS5_N9benchmark7CounterEESt10_Select1stISA_ESt4lessIS5_ESaISA_EE7_M_copyILb0ENSG_20_Reuse_or_alloc_nodeEEEPSt18_Rb_tree_node_basePSt13_Rb_tree_nodeISA_ESK_RT0_,"axG",@progbits,_ZNSt8_Rb_treeINSt7__cxx1112basic_stringIcSt11char_traitsIcESaIcEEESt4pairIKS5_N9benchmark7CounterEESt10_Select1stISA_ESt4lessIS5_ESaISA_EE7_M_copyILb0ENSG_20_Reuse_or_alloc_nodeEEEPSt18_Rb_tree_node_basePSt13_Rb_tree_nodeISA_ESK_RT0_,comdat
	.hidden	_ZNSt8_Rb_treeINSt7__cxx1112basic_stringIcSt11char_traitsIcESaIcEEESt4pairIKS5_N9benchmark7CounterEESt10_Select1stISA_ESt4lessIS5_ESaISA_EE7_M_copyILb0ENSG_20_Reuse_or_alloc_nodeEEEPSt18_Rb_tree_node_basePSt13_Rb_tree_nodeISA_ESK_RT0_ # -- Begin function _ZNSt8_Rb_treeINSt7__cxx1112basic_stringIcSt11char_traitsIcESaIcEEESt4pairIKS5_N9benchmark7CounterEESt10_Select1stISA_ESt4lessIS5_ESaISA_EE7_M_copyILb0ENSG_20_Reuse_or_alloc_nodeEEEPSt18_Rb_tree_node_basePSt13_Rb_tree_nodeISA_ESK_RT0_
	.weak	_ZNSt8_Rb_treeINSt7__cxx1112basic_stringIcSt11char_traitsIcESaIcEEESt4pairIKS5_N9benchmark7CounterEESt10_Select1stISA_ESt4lessIS5_ESaISA_EE7_M_copyILb0ENSG_20_Reuse_or_alloc_nodeEEEPSt18_Rb_tree_node_basePSt13_Rb_tree_nodeISA_ESK_RT0_
	.p2align	5
	.type	_ZNSt8_Rb_treeINSt7__cxx1112basic_stringIcSt11char_traitsIcESaIcEEESt4pairIKS5_N9benchmark7CounterEESt10_Select1stISA_ESt4lessIS5_ESaISA_EE7_M_copyILb0ENSG_20_Reuse_or_alloc_nodeEEEPSt18_Rb_tree_node_basePSt13_Rb_tree_nodeISA_ESK_RT0_,@function
_ZNSt8_Rb_treeINSt7__cxx1112basic_stringIcSt11char_traitsIcESaIcEEESt4pairIKS5_N9benchmark7CounterEESt10_Select1stISA_ESt4lessIS5_ESaISA_EE7_M_copyILb0ENSG_20_Reuse_or_alloc_nodeEEEPSt18_Rb_tree_node_basePSt13_Rb_tree_nodeISA_ESK_RT0_: # @_ZNSt8_Rb_treeINSt7__cxx1112basic_stringIcSt11char_traitsIcESaIcEEESt4pairIKS5_N9benchmark7CounterEESt10_Select1stISA_ESt4lessIS5_ESaISA_EE7_M_copyILb0ENSG_20_Reuse_or_alloc_nodeEEEPSt18_Rb_tree_node_basePSt13_Rb_tree_nodeISA_ESK_RT0_
.Lfunc_begin17:
	.cfi_startproc
	.cfi_personality 155, DW.ref.__gxx_personality_v0
	.cfi_lsda 27, .Lexception17
# %bb.0:                                # %entry
	addi.d	$sp, $sp, -96
	.cfi_def_cfa_offset 96
	st.d	$ra, $sp, 88                    # 8-byte Folded Spill
	st.d	$fp, $sp, 80                    # 8-byte Folded Spill
	st.d	$s0, $sp, 72                    # 8-byte Folded Spill
	st.d	$s1, $sp, 64                    # 8-byte Folded Spill
	st.d	$s2, $sp, 56                    # 8-byte Folded Spill
	st.d	$s3, $sp, 48                    # 8-byte Folded Spill
	st.d	$s4, $sp, 40                    # 8-byte Folded Spill
	.cfi_offset 1, -8
	.cfi_offset 22, -16
	.cfi_offset 23, -24
	.cfi_offset 24, -32
	.cfi_offset 25, -40
	.cfi_offset 26, -48
	.cfi_offset 27, -56
	move	$s1, $a3
	move	$s3, $a2
	move	$s2, $a1
	move	$fp, $a0
	addi.d	$a1, $a1, 32
	move	$a0, $a3
	pcaddu18i	$ra, %call36(_ZNSt8_Rb_treeINSt7__cxx1112basic_stringIcSt11char_traitsIcESaIcEEESt4pairIKS5_N9benchmark7CounterEESt10_Select1stISA_ESt4lessIS5_ESaISA_EE20_Reuse_or_alloc_nodeclIRKSA_EEPSt13_Rb_tree_nodeISA_EOT_)
	jirl	$ra, $ra, 0
	move	$s0, $a0
	ld.w	$a0, $s2, 0
	vrepli.b	$vr0, 0
	vst	$vr0, $sp, 16                   # 16-byte Folded Spill
	vst	$vr0, $s0, 16
	ld.d	$a1, $s2, 24
	st.w	$a0, $s0, 0
	st.d	$s3, $s0, 8
	beqz	$a1, .LBB34_3
# %bb.1:                                # %if.then
.Ltmp165:                               # EH_LABEL
	move	$a0, $fp
	move	$a2, $s0
	move	$a3, $s1
	pcaddu18i	$ra, %call36(_ZNSt8_Rb_treeINSt7__cxx1112basic_stringIcSt11char_traitsIcESaIcEEESt4pairIKS5_N9benchmark7CounterEESt10_Select1stISA_ESt4lessIS5_ESaISA_EE7_M_copyILb0ENSG_20_Reuse_or_alloc_nodeEEEPSt18_Rb_tree_node_basePSt13_Rb_tree_nodeISA_ESK_RT0_)
	jirl	$ra, $ra, 0
.Ltmp166:                               # EH_LABEL
# %bb.2:                                # %invoke.cont
	st.d	$a0, $s0, 24
.LBB34_3:                               # %if.end
	ld.d	$s3, $s2, 16
	beqz	$s3, .LBB34_10
# %bb.4:                                # %while.body.preheader
	move	$s4, $s0
	b	.LBB34_6
	.p2align	4, , 16
.LBB34_5:                               # %if.end20
                                        #   in Loop: Header=BB34_6 Depth=1
	ld.d	$s3, $s3, 16
	move	$s4, $s2
	beqz	$s3, .LBB34_10
.LBB34_6:                               # %while.body
                                        # =>This Inner Loop Header: Depth=1
	addi.d	$a1, $s3, 32
.Ltmp168:                               # EH_LABEL
	move	$a0, $s1
	pcaddu18i	$ra, %call36(_ZNSt8_Rb_treeINSt7__cxx1112basic_stringIcSt11char_traitsIcESaIcEEESt4pairIKS5_N9benchmark7CounterEESt10_Select1stISA_ESt4lessIS5_ESaISA_EE20_Reuse_or_alloc_nodeclIRKSA_EEPSt13_Rb_tree_nodeISA_EOT_)
	jirl	$ra, $ra, 0
.Ltmp169:                               # EH_LABEL
# %bb.7:                                # %invoke.cont9
                                        #   in Loop: Header=BB34_6 Depth=1
	move	$s2, $a0
	ld.w	$a0, $s3, 0
	vld	$vr0, $sp, 16                   # 16-byte Folded Reload
	vst	$vr0, $s2, 16
	ld.d	$a1, $s3, 24
	st.w	$a0, $s2, 0
	st.d	$s2, $s4, 16
	st.d	$s4, $s2, 8
	beqz	$a1, .LBB34_5
# %bb.8:                                # %if.then15
                                        #   in Loop: Header=BB34_6 Depth=1
.Ltmp170:                               # EH_LABEL
	move	$a0, $fp
	move	$a2, $s2
	move	$a3, $s1
	pcaddu18i	$ra, %call36(_ZNSt8_Rb_treeINSt7__cxx1112basic_stringIcSt11char_traitsIcESaIcEEESt4pairIKS5_N9benchmark7CounterEESt10_Select1stISA_ESt4lessIS5_ESaISA_EE7_M_copyILb0ENSG_20_Reuse_or_alloc_nodeEEEPSt18_Rb_tree_node_basePSt13_Rb_tree_nodeISA_ESK_RT0_)
	jirl	$ra, $ra, 0
.Ltmp171:                               # EH_LABEL
# %bb.9:                                # %invoke.cont17
                                        #   in Loop: Header=BB34_6 Depth=1
	st.d	$a0, $s2, 24
	b	.LBB34_5
.LBB34_10:                              # %try.cont
	move	$a0, $s0
	ld.d	$s4, $sp, 40                    # 8-byte Folded Reload
	ld.d	$s3, $sp, 48                    # 8-byte Folded Reload
	ld.d	$s2, $sp, 56                    # 8-byte Folded Reload
	ld.d	$s1, $sp, 64                    # 8-byte Folded Reload
	ld.d	$s0, $sp, 72                    # 8-byte Folded Reload
	ld.d	$fp, $sp, 80                    # 8-byte Folded Reload
	ld.d	$ra, $sp, 88                    # 8-byte Folded Reload
	addi.d	$sp, $sp, 96
	ret
.LBB34_11:                              # %lpad
.Ltmp167:                               # EH_LABEL
	b	.LBB34_13
.LBB34_12:                              # %lpad8
.Ltmp172:                               # EH_LABEL
.LBB34_13:                              # %catch
	pcaddu18i	$ra, %call36(__cxa_begin_catch)
	jirl	$ra, $ra, 0
.Ltmp173:                               # EH_LABEL
	move	$a0, $fp
	move	$a1, $s0
	pcaddu18i	$ra, %call36(_ZNSt8_Rb_treeINSt7__cxx1112basic_stringIcSt11char_traitsIcESaIcEEESt4pairIKS5_N9benchmark7CounterEESt10_Select1stISA_ESt4lessIS5_ESaISA_EE8_M_eraseEPSt13_Rb_tree_nodeISA_E)
	jirl	$ra, $ra, 0
.Ltmp174:                               # EH_LABEL
# %bb.14:                               # %invoke.cont23
.Ltmp175:                               # EH_LABEL
	pcaddu18i	$ra, %call36(__cxa_rethrow)
	jirl	$ra, $ra, 0
.Ltmp176:                               # EH_LABEL
# %bb.15:                               # %unreachable
.LBB34_16:                              # %lpad22
.Ltmp177:                               # EH_LABEL
	move	$fp, $a0
.Ltmp178:                               # EH_LABEL
	pcaddu18i	$ra, %call36(__cxa_end_catch)
	jirl	$ra, $ra, 0
.Ltmp179:                               # EH_LABEL
# %bb.17:                               # %invoke.cont24
	move	$a0, $fp
	pcaddu18i	$ra, %call36(_Unwind_Resume)
	jirl	$ra, $ra, 0
.LBB34_18:                              # %terminate.lpad
.Ltmp180:                               # EH_LABEL
	pcaddu18i	$ra, %call36(__clang_call_terminate)
	jirl	$ra, $ra, 0
.Lfunc_end34:
	.size	_ZNSt8_Rb_treeINSt7__cxx1112basic_stringIcSt11char_traitsIcESaIcEEESt4pairIKS5_N9benchmark7CounterEESt10_Select1stISA_ESt4lessIS5_ESaISA_EE7_M_copyILb0ENSG_20_Reuse_or_alloc_nodeEEEPSt18_Rb_tree_node_basePSt13_Rb_tree_nodeISA_ESK_RT0_, .Lfunc_end34-_ZNSt8_Rb_treeINSt7__cxx1112basic_stringIcSt11char_traitsIcESaIcEEESt4pairIKS5_N9benchmark7CounterEESt10_Select1stISA_ESt4lessIS5_ESaISA_EE7_M_copyILb0ENSG_20_Reuse_or_alloc_nodeEEEPSt18_Rb_tree_node_basePSt13_Rb_tree_nodeISA_ESK_RT0_
	.cfi_endproc
	.section	.gcc_except_table._ZNSt8_Rb_treeINSt7__cxx1112basic_stringIcSt11char_traitsIcESaIcEEESt4pairIKS5_N9benchmark7CounterEESt10_Select1stISA_ESt4lessIS5_ESaISA_EE7_M_copyILb0ENSG_20_Reuse_or_alloc_nodeEEEPSt18_Rb_tree_node_basePSt13_Rb_tree_nodeISA_ESK_RT0_,"aG",@progbits,_ZNSt8_Rb_treeINSt7__cxx1112basic_stringIcSt11char_traitsIcESaIcEEESt4pairIKS5_N9benchmark7CounterEESt10_Select1stISA_ESt4lessIS5_ESaISA_EE7_M_copyILb0ENSG_20_Reuse_or_alloc_nodeEEEPSt18_Rb_tree_node_basePSt13_Rb_tree_nodeISA_ESK_RT0_,comdat
	.p2align	2, 0x0
GCC_except_table34:
.Lexception17:
	.byte	255                             # @LPStart Encoding = omit
	.byte	155                             # @TType Encoding = indirect pcrel sdata4
	.uleb128 .Lttbase11-.Lttbaseref11
.Lttbaseref11:
	.byte	1                               # Call site Encoding = uleb128
	.uleb128 .Lcst_end17-.Lcst_begin17
.Lcst_begin17:
	.uleb128 .Lfunc_begin17-.Lfunc_begin17  # >> Call Site 1 <<
	.uleb128 .Ltmp165-.Lfunc_begin17        #   Call between .Lfunc_begin17 and .Ltmp165
	.byte	0                               #     has no landing pad
	.byte	0                               #   On action: cleanup
	.uleb128 .Ltmp165-.Lfunc_begin17        # >> Call Site 2 <<
	.uleb128 .Ltmp166-.Ltmp165              #   Call between .Ltmp165 and .Ltmp166
	.uleb128 .Ltmp167-.Lfunc_begin17        #     jumps to .Ltmp167
	.byte	1                               #   On action: 1
	.uleb128 .Ltmp168-.Lfunc_begin17        # >> Call Site 3 <<
	.uleb128 .Ltmp171-.Ltmp168              #   Call between .Ltmp168 and .Ltmp171
	.uleb128 .Ltmp172-.Lfunc_begin17        #     jumps to .Ltmp172
	.byte	1                               #   On action: 1
	.uleb128 .Ltmp171-.Lfunc_begin17        # >> Call Site 4 <<
	.uleb128 .Ltmp173-.Ltmp171              #   Call between .Ltmp171 and .Ltmp173
	.byte	0                               #     has no landing pad
	.byte	0                               #   On action: cleanup
	.uleb128 .Ltmp173-.Lfunc_begin17        # >> Call Site 5 <<
	.uleb128 .Ltmp176-.Ltmp173              #   Call between .Ltmp173 and .Ltmp176
	.uleb128 .Ltmp177-.Lfunc_begin17        #     jumps to .Ltmp177
	.byte	0                               #   On action: cleanup
	.uleb128 .Ltmp178-.Lfunc_begin17        # >> Call Site 6 <<
	.uleb128 .Ltmp179-.Ltmp178              #   Call between .Ltmp178 and .Ltmp179
	.uleb128 .Ltmp180-.Lfunc_begin17        #     jumps to .Ltmp180
	.byte	1                               #   On action: 1
	.uleb128 .Ltmp179-.Lfunc_begin17        # >> Call Site 7 <<
	.uleb128 .Lfunc_end34-.Ltmp179          #   Call between .Ltmp179 and .Lfunc_end34
	.byte	0                               #     has no landing pad
	.byte	0                               #   On action: cleanup
.Lcst_end17:
	.byte	1                               # >> Action Record 1 <<
                                        #   Catch TypeInfo 1
	.byte	0                               #   No further actions
	.p2align	2, 0x0
                                        # >> Catch TypeInfos <<
	.word	0                               # TypeInfo 1
.Lttbase11:
	.p2align	2, 0x0
                                        # -- End function
	.section	.text._ZNSt8_Rb_treeINSt7__cxx1112basic_stringIcSt11char_traitsIcESaIcEEESt4pairIKS5_N9benchmark7CounterEESt10_Select1stISA_ESt4lessIS5_ESaISA_EE20_Reuse_or_alloc_nodeclIRKSA_EEPSt13_Rb_tree_nodeISA_EOT_,"axG",@progbits,_ZNSt8_Rb_treeINSt7__cxx1112basic_stringIcSt11char_traitsIcESaIcEEESt4pairIKS5_N9benchmark7CounterEESt10_Select1stISA_ESt4lessIS5_ESaISA_EE20_Reuse_or_alloc_nodeclIRKSA_EEPSt13_Rb_tree_nodeISA_EOT_,comdat
	.hidden	_ZNSt8_Rb_treeINSt7__cxx1112basic_stringIcSt11char_traitsIcESaIcEEESt4pairIKS5_N9benchmark7CounterEESt10_Select1stISA_ESt4lessIS5_ESaISA_EE20_Reuse_or_alloc_nodeclIRKSA_EEPSt13_Rb_tree_nodeISA_EOT_ # -- Begin function _ZNSt8_Rb_treeINSt7__cxx1112basic_stringIcSt11char_traitsIcESaIcEEESt4pairIKS5_N9benchmark7CounterEESt10_Select1stISA_ESt4lessIS5_ESaISA_EE20_Reuse_or_alloc_nodeclIRKSA_EEPSt13_Rb_tree_nodeISA_EOT_
	.weak	_ZNSt8_Rb_treeINSt7__cxx1112basic_stringIcSt11char_traitsIcESaIcEEESt4pairIKS5_N9benchmark7CounterEESt10_Select1stISA_ESt4lessIS5_ESaISA_EE20_Reuse_or_alloc_nodeclIRKSA_EEPSt13_Rb_tree_nodeISA_EOT_
	.p2align	5
	.type	_ZNSt8_Rb_treeINSt7__cxx1112basic_stringIcSt11char_traitsIcESaIcEEESt4pairIKS5_N9benchmark7CounterEESt10_Select1stISA_ESt4lessIS5_ESaISA_EE20_Reuse_or_alloc_nodeclIRKSA_EEPSt13_Rb_tree_nodeISA_EOT_,@function
_ZNSt8_Rb_treeINSt7__cxx1112basic_stringIcSt11char_traitsIcESaIcEEESt4pairIKS5_N9benchmark7CounterEESt10_Select1stISA_ESt4lessIS5_ESaISA_EE20_Reuse_or_alloc_nodeclIRKSA_EEPSt13_Rb_tree_nodeISA_EOT_: # @_ZNSt8_Rb_treeINSt7__cxx1112basic_stringIcSt11char_traitsIcESaIcEEESt4pairIKS5_N9benchmark7CounterEESt10_Select1stISA_ESt4lessIS5_ESaISA_EE20_Reuse_or_alloc_nodeclIRKSA_EEPSt13_Rb_tree_nodeISA_EOT_
	.cfi_startproc
# %bb.0:                                # %entry
	addi.d	$sp, $sp, -32
	.cfi_def_cfa_offset 32
	st.d	$ra, $sp, 24                    # 8-byte Folded Spill
	st.d	$fp, $sp, 16                    # 8-byte Folded Spill
	st.d	$s0, $sp, 8                     # 8-byte Folded Spill
	st.d	$s1, $sp, 0                     # 8-byte Folded Spill
	.cfi_offset 1, -8
	.cfi_offset 22, -16
	.cfi_offset 23, -24
	.cfi_offset 24, -32
	move	$s1, $a0
	ld.d	$fp, $a0, 8
	move	$s0, $a1
	beqz	$fp, .LBB35_4
# %bb.1:                                # %if.end.i
	ld.d	$a0, $fp, 8
	st.d	$a0, $s1, 8
	beqz	$a0, .LBB35_5
# %bb.2:                                # %if.then8.i
	ld.d	$a1, $a0, 24
	beq	$a1, $fp, .LBB35_6
# %bb.3:                                # %if.else.i
	st.d	$zero, $a0, 16
	b	.LBB35_9
.LBB35_4:                               # %if.end
	ld.d	$s1, $s1, 16
	ori	$a0, $zero, 80
	pcaddu18i	$ra, %call36(_Znwm)
	jirl	$ra, $ra, 0
	move	$fp, $a0
	move	$a0, $s1
	b	.LBB35_12
.LBB35_5:                               # %if.else37.i
	st.d	$zero, $s1, 0
	b	.LBB35_9
.LBB35_6:                               # %if.then10.i
	ld.d	$a1, $a0, 16
	st.d	$zero, $a0, 24
	beqz	$a1, .LBB35_9
	.p2align	4, , 16
.LBB35_7:                               # %while.cond.i
                                        # =>This Inner Loop Header: Depth=1
	move	$a0, $a1
	ld.d	$a1, $a1, 24
	bnez	$a1, .LBB35_7
# %bb.8:                                # %while.end.i
	ld.d	$a1, $a0, 16
	sltui	$a2, $a1, 1
	masknez	$a1, $a1, $a2
	maskeqz	$a0, $a0, $a2
	or	$a0, $a0, $a1
	st.d	$a0, $s1, 8
.LBB35_9:                               # %if.then
	ld.d	$a0, $fp, 32
	addi.d	$a1, $fp, 48
	beq	$a0, $a1, .LBB35_11
# %bb.10:                               # %if.then.i.i.i.i
	ld.d	$a1, $a1, 0
	addi.d	$a1, $a1, 1
	pcaddu18i	$ra, %call36(_ZdlPvm)
	jirl	$ra, $ra, 0
.LBB35_11:                              # %_ZNSt8_Rb_treeINSt7__cxx1112basic_stringIcSt11char_traitsIcESaIcEEESt4pairIKS5_N9benchmark7CounterEESt10_Select1stISA_ESt4lessIS5_ESaISA_EE15_M_destroy_nodeEPSt13_Rb_tree_nodeISA_E.exit
	ld.d	$a0, $s1, 16
.LBB35_12:                              # %cleanup
	move	$a1, $fp
	move	$a2, $s0
	pcaddu18i	$ra, %call36(_ZNSt8_Rb_treeINSt7__cxx1112basic_stringIcSt11char_traitsIcESaIcEEESt4pairIKS5_N9benchmark7CounterEESt10_Select1stISA_ESt4lessIS5_ESaISA_EE17_M_construct_nodeIJRKSA_EEEvPSt13_Rb_tree_nodeISA_EDpOT_)
	jirl	$ra, $ra, 0
	move	$a0, $fp
	ld.d	$s1, $sp, 0                     # 8-byte Folded Reload
	ld.d	$s0, $sp, 8                     # 8-byte Folded Reload
	ld.d	$fp, $sp, 16                    # 8-byte Folded Reload
	ld.d	$ra, $sp, 24                    # 8-byte Folded Reload
	addi.d	$sp, $sp, 32
	ret
.Lfunc_end35:
	.size	_ZNSt8_Rb_treeINSt7__cxx1112basic_stringIcSt11char_traitsIcESaIcEEESt4pairIKS5_N9benchmark7CounterEESt10_Select1stISA_ESt4lessIS5_ESaISA_EE20_Reuse_or_alloc_nodeclIRKSA_EEPSt13_Rb_tree_nodeISA_EOT_, .Lfunc_end35-_ZNSt8_Rb_treeINSt7__cxx1112basic_stringIcSt11char_traitsIcESaIcEEESt4pairIKS5_N9benchmark7CounterEESt10_Select1stISA_ESt4lessIS5_ESaISA_EE20_Reuse_or_alloc_nodeclIRKSA_EEPSt13_Rb_tree_nodeISA_EOT_
	.cfi_endproc
                                        # -- End function
	.section	.text._ZNSt8_Rb_treeINSt7__cxx1112basic_stringIcSt11char_traitsIcESaIcEEESt4pairIKS5_N9benchmark7CounterEESt10_Select1stISA_ESt4lessIS5_ESaISA_EE17_M_construct_nodeIJRKSA_EEEvPSt13_Rb_tree_nodeISA_EDpOT_,"axG",@progbits,_ZNSt8_Rb_treeINSt7__cxx1112basic_stringIcSt11char_traitsIcESaIcEEESt4pairIKS5_N9benchmark7CounterEESt10_Select1stISA_ESt4lessIS5_ESaISA_EE17_M_construct_nodeIJRKSA_EEEvPSt13_Rb_tree_nodeISA_EDpOT_,comdat
	.hidden	_ZNSt8_Rb_treeINSt7__cxx1112basic_stringIcSt11char_traitsIcESaIcEEESt4pairIKS5_N9benchmark7CounterEESt10_Select1stISA_ESt4lessIS5_ESaISA_EE17_M_construct_nodeIJRKSA_EEEvPSt13_Rb_tree_nodeISA_EDpOT_ # -- Begin function _ZNSt8_Rb_treeINSt7__cxx1112basic_stringIcSt11char_traitsIcESaIcEEESt4pairIKS5_N9benchmark7CounterEESt10_Select1stISA_ESt4lessIS5_ESaISA_EE17_M_construct_nodeIJRKSA_EEEvPSt13_Rb_tree_nodeISA_EDpOT_
	.weak	_ZNSt8_Rb_treeINSt7__cxx1112basic_stringIcSt11char_traitsIcESaIcEEESt4pairIKS5_N9benchmark7CounterEESt10_Select1stISA_ESt4lessIS5_ESaISA_EE17_M_construct_nodeIJRKSA_EEEvPSt13_Rb_tree_nodeISA_EDpOT_
	.p2align	5
	.type	_ZNSt8_Rb_treeINSt7__cxx1112basic_stringIcSt11char_traitsIcESaIcEEESt4pairIKS5_N9benchmark7CounterEESt10_Select1stISA_ESt4lessIS5_ESaISA_EE17_M_construct_nodeIJRKSA_EEEvPSt13_Rb_tree_nodeISA_EDpOT_,@function
_ZNSt8_Rb_treeINSt7__cxx1112basic_stringIcSt11char_traitsIcESaIcEEESt4pairIKS5_N9benchmark7CounterEESt10_Select1stISA_ESt4lessIS5_ESaISA_EE17_M_construct_nodeIJRKSA_EEEvPSt13_Rb_tree_nodeISA_EDpOT_: # @_ZNSt8_Rb_treeINSt7__cxx1112basic_stringIcSt11char_traitsIcESaIcEEESt4pairIKS5_N9benchmark7CounterEESt10_Select1stISA_ESt4lessIS5_ESaISA_EE17_M_construct_nodeIJRKSA_EEEvPSt13_Rb_tree_nodeISA_EDpOT_
.Lfunc_begin18:
	.cfi_startproc
	.cfi_personality 155, DW.ref.__gxx_personality_v0
	.cfi_lsda 27, .Lexception18
# %bb.0:                                # %entry
	addi.d	$sp, $sp, -64
	.cfi_def_cfa_offset 64
	st.d	$ra, $sp, 56                    # 8-byte Folded Spill
	st.d	$fp, $sp, 48                    # 8-byte Folded Spill
	st.d	$s0, $sp, 40                    # 8-byte Folded Spill
	st.d	$s1, $sp, 32                    # 8-byte Folded Spill
	st.d	$s2, $sp, 24                    # 8-byte Folded Spill
	st.d	$s3, $sp, 16                    # 8-byte Folded Spill
	.cfi_offset 1, -8
	.cfi_offset 22, -16
	.cfi_offset 23, -24
	.cfi_offset 24, -32
	.cfi_offset 25, -40
	.cfi_offset 26, -48
	move	$s0, $a2
	move	$fp, $a1
	addi.d	$s1, $a1, 48
	st.d	$s1, $a1, 32
	ld.d	$a1, $a2, 8
	ld.d	$s2, $a2, 0
	ori	$a0, $zero, 16
	st.d	$a1, $sp, 8
	bltu	$a1, $a0, .LBB36_3
# %bb.1:                                # %if.then.i.i.i
.Ltmp181:                               # EH_LABEL
	addi.d	$s3, $fp, 32
	addi.d	$a1, $sp, 8
	move	$a0, $s3
	move	$a2, $zero
	pcaddu18i	$ra, %call36(_ZNSt7__cxx1112basic_stringIcSt11char_traitsIcESaIcEE9_M_createERmm)
	jirl	$ra, $ra, 0
.Ltmp182:                               # EH_LABEL
# %bb.2:                                # %call.i4.i.i.noexc
	ld.d	$a1, $sp, 8
	st.d	$a0, $s3, 0
	st.d	$a1, $s1, 0
	move	$s1, $a0
.LBB36_3:                               # %if.end.i.i.i
	addi.w	$a0, $zero, -1
	beq	$a1, $a0, .LBB36_7
# %bb.4:                                # %if.end.i.i.i
	bnez	$a1, .LBB36_6
# %bb.5:                                # %if.then.i.i.i.i
	ld.b	$a0, $s2, 0
	st.b	$a0, $s1, 0
	b	.LBB36_7
.LBB36_6:                               # %if.end.i.i.i.i.i
	addi.d	$a2, $a1, 1
	move	$a0, $s1
	move	$a1, $s2
	pcaddu18i	$ra, %call36(memcpy)
	jirl	$ra, $ra, 0
.LBB36_7:                               # %try.cont
	ld.d	$a0, $sp, 8
	st.d	$a0, $fp, 40
	vld	$vr0, $s0, 32
	vst	$vr0, $fp, 64
	ld.d	$s3, $sp, 16                    # 8-byte Folded Reload
	ld.d	$s2, $sp, 24                    # 8-byte Folded Reload
	ld.d	$s1, $sp, 32                    # 8-byte Folded Reload
	ld.d	$s0, $sp, 40                    # 8-byte Folded Reload
	ld.d	$fp, $sp, 48                    # 8-byte Folded Reload
	ld.d	$ra, $sp, 56                    # 8-byte Folded Reload
	addi.d	$sp, $sp, 64
	ret
.LBB36_8:                               # %lpad
.Ltmp183:                               # EH_LABEL
	pcaddu18i	$ra, %call36(__cxa_begin_catch)
	jirl	$ra, $ra, 0
	ori	$a1, $zero, 80
	move	$a0, $fp
	pcaddu18i	$ra, %call36(_ZdlPvm)
	jirl	$ra, $ra, 0
.Ltmp184:                               # EH_LABEL
	pcaddu18i	$ra, %call36(__cxa_rethrow)
	jirl	$ra, $ra, 0
.Ltmp185:                               # EH_LABEL
# %bb.9:                                # %unreachable
.LBB36_10:                              # %lpad3
.Ltmp186:                               # EH_LABEL
	move	$fp, $a0
.Ltmp187:                               # EH_LABEL
	pcaddu18i	$ra, %call36(__cxa_end_catch)
	jirl	$ra, $ra, 0
.Ltmp188:                               # EH_LABEL
# %bb.11:                               # %eh.resume
	move	$a0, $fp
	pcaddu18i	$ra, %call36(_Unwind_Resume)
	jirl	$ra, $ra, 0
.LBB36_12:                              # %terminate.lpad
.Ltmp189:                               # EH_LABEL
	pcaddu18i	$ra, %call36(__clang_call_terminate)
	jirl	$ra, $ra, 0
.Lfunc_end36:
	.size	_ZNSt8_Rb_treeINSt7__cxx1112basic_stringIcSt11char_traitsIcESaIcEEESt4pairIKS5_N9benchmark7CounterEESt10_Select1stISA_ESt4lessIS5_ESaISA_EE17_M_construct_nodeIJRKSA_EEEvPSt13_Rb_tree_nodeISA_EDpOT_, .Lfunc_end36-_ZNSt8_Rb_treeINSt7__cxx1112basic_stringIcSt11char_traitsIcESaIcEEESt4pairIKS5_N9benchmark7CounterEESt10_Select1stISA_ESt4lessIS5_ESaISA_EE17_M_construct_nodeIJRKSA_EEEvPSt13_Rb_tree_nodeISA_EDpOT_
	.cfi_endproc
	.section	.gcc_except_table._ZNSt8_Rb_treeINSt7__cxx1112basic_stringIcSt11char_traitsIcESaIcEEESt4pairIKS5_N9benchmark7CounterEESt10_Select1stISA_ESt4lessIS5_ESaISA_EE17_M_construct_nodeIJRKSA_EEEvPSt13_Rb_tree_nodeISA_EDpOT_,"aG",@progbits,_ZNSt8_Rb_treeINSt7__cxx1112basic_stringIcSt11char_traitsIcESaIcEEESt4pairIKS5_N9benchmark7CounterEESt10_Select1stISA_ESt4lessIS5_ESaISA_EE17_M_construct_nodeIJRKSA_EEEvPSt13_Rb_tree_nodeISA_EDpOT_,comdat
	.p2align	2, 0x0
GCC_except_table36:
.Lexception18:
	.byte	255                             # @LPStart Encoding = omit
	.byte	155                             # @TType Encoding = indirect pcrel sdata4
	.uleb128 .Lttbase12-.Lttbaseref12
.Lttbaseref12:
	.byte	1                               # Call site Encoding = uleb128
	.uleb128 .Lcst_end18-.Lcst_begin18
.Lcst_begin18:
	.uleb128 .Ltmp181-.Lfunc_begin18        # >> Call Site 1 <<
	.uleb128 .Ltmp182-.Ltmp181              #   Call between .Ltmp181 and .Ltmp182
	.uleb128 .Ltmp183-.Lfunc_begin18        #     jumps to .Ltmp183
	.byte	1                               #   On action: 1
	.uleb128 .Ltmp182-.Lfunc_begin18        # >> Call Site 2 <<
	.uleb128 .Ltmp184-.Ltmp182              #   Call between .Ltmp182 and .Ltmp184
	.byte	0                               #     has no landing pad
	.byte	0                               #   On action: cleanup
	.uleb128 .Ltmp184-.Lfunc_begin18        # >> Call Site 3 <<
	.uleb128 .Ltmp185-.Ltmp184              #   Call between .Ltmp184 and .Ltmp185
	.uleb128 .Ltmp186-.Lfunc_begin18        #     jumps to .Ltmp186
	.byte	0                               #   On action: cleanup
	.uleb128 .Ltmp187-.Lfunc_begin18        # >> Call Site 4 <<
	.uleb128 .Ltmp188-.Ltmp187              #   Call between .Ltmp187 and .Ltmp188
	.uleb128 .Ltmp189-.Lfunc_begin18        #     jumps to .Ltmp189
	.byte	1                               #   On action: 1
	.uleb128 .Ltmp188-.Lfunc_begin18        # >> Call Site 5 <<
	.uleb128 .Lfunc_end36-.Ltmp188          #   Call between .Ltmp188 and .Lfunc_end36
	.byte	0                               #     has no landing pad
	.byte	0                               #   On action: cleanup
.Lcst_end18:
	.byte	1                               # >> Action Record 1 <<
                                        #   Catch TypeInfo 1
	.byte	0                               #   No further actions
	.p2align	2, 0x0
                                        # >> Catch TypeInfos <<
	.word	0                               # TypeInfo 1
.Lttbase12:
	.p2align	2, 0x0
                                        # -- End function
	.section	.text._ZN9benchmark17BenchmarkReporter3RunC2ERKS1_,"axG",@progbits,_ZN9benchmark17BenchmarkReporter3RunC2ERKS1_,comdat
	.hidden	_ZN9benchmark17BenchmarkReporter3RunC2ERKS1_ # -- Begin function _ZN9benchmark17BenchmarkReporter3RunC2ERKS1_
	.weak	_ZN9benchmark17BenchmarkReporter3RunC2ERKS1_
	.p2align	5
	.type	_ZN9benchmark17BenchmarkReporter3RunC2ERKS1_,@function
_ZN9benchmark17BenchmarkReporter3RunC2ERKS1_: # @_ZN9benchmark17BenchmarkReporter3RunC2ERKS1_
.Lfunc_begin19:
	.cfi_startproc
	.cfi_personality 155, DW.ref.__gxx_personality_v0
	.cfi_lsda 27, .Lexception19
# %bb.0:                                # %entry
	addi.d	$sp, $sp, -112
	.cfi_def_cfa_offset 112
	st.d	$ra, $sp, 104                   # 8-byte Folded Spill
	st.d	$fp, $sp, 96                    # 8-byte Folded Spill
	st.d	$s0, $sp, 88                    # 8-byte Folded Spill
	st.d	$s1, $sp, 80                    # 8-byte Folded Spill
	st.d	$s2, $sp, 72                    # 8-byte Folded Spill
	st.d	$s3, $sp, 64                    # 8-byte Folded Spill
	st.d	$s4, $sp, 56                    # 8-byte Folded Spill
	st.d	$s5, $sp, 48                    # 8-byte Folded Spill
	st.d	$s6, $sp, 40                    # 8-byte Folded Spill
	st.d	$s7, $sp, 32                    # 8-byte Folded Spill
	st.d	$s8, $sp, 24                    # 8-byte Folded Spill
	.cfi_offset 1, -8
	.cfi_offset 22, -16
	.cfi_offset 23, -24
	.cfi_offset 24, -32
	.cfi_offset 25, -40
	.cfi_offset 26, -48
	.cfi_offset 27, -56
	.cfi_offset 28, -64
	.cfi_offset 29, -72
	.cfi_offset 30, -80
	.cfi_offset 31, -88
	move	$s1, $a1
	move	$fp, $a0
	pcaddu18i	$ra, %call36(_ZN9benchmark13BenchmarkNameC2ERKS0_)
	jirl	$ra, $ra, 0
	ld.w	$a0, $s1, 272
	st.w	$a0, $fp, 272
	vld	$vr0, $s1, 256
	vst	$vr0, $fp, 256
	addi.d	$s5, $fp, 296
	st.d	$s5, $fp, 280
	ld.d	$a1, $s1, 288
	ld.d	$s2, $s1, 280
	addi.d	$s0, $fp, 280
	ori	$a2, $zero, 16
	st.d	$a1, $sp, 16
	move	$a0, $s5
	bltu	$a1, $a2, .LBB37_3
# %bb.1:                                # %if.then.i.i
.Ltmp190:                               # EH_LABEL
	addi.d	$a1, $sp, 16
	move	$a0, $s0
	move	$a2, $zero
	pcaddu18i	$ra, %call36(_ZNSt7__cxx1112basic_stringIcSt11char_traitsIcESaIcEE9_M_createERmm)
	jirl	$ra, $ra, 0
.Ltmp191:                               # EH_LABEL
# %bb.2:                                # %call.i4.i.noexc
	ld.d	$a1, $sp, 16
	st.d	$a0, $s0, 0
	st.d	$a1, $s5, 0
.LBB37_3:                               # %if.end.i.i
	addi.w	$s7, $zero, -1
	beq	$a1, $s7, .LBB37_7
# %bb.4:                                # %if.end.i.i
	bnez	$a1, .LBB37_6
# %bb.5:                                # %if.then.i.i.i
	ld.b	$a1, $s2, 0
	st.b	$a1, $a0, 0
	b	.LBB37_7
.LBB37_6:                               # %if.end.i.i.i.i
	addi.d	$a2, $a1, 1
	move	$a1, $s2
	pcaddu18i	$ra, %call36(memcpy)
	jirl	$ra, $ra, 0
.LBB37_7:                               # %invoke.cont
	ld.d	$a0, $sp, 16
	st.d	$a0, $fp, 288
	ld.w	$a0, $s1, 312
	st.w	$a0, $fp, 312
	addi.d	$s6, $fp, 336
	st.d	$s6, $fp, 320
	ld.d	$a1, $s1, 328
	ld.d	$s3, $s1, 320
	addi.d	$s2, $fp, 320
	ori	$a2, $zero, 16
	st.d	$a1, $sp, 16
	move	$a0, $s6
	bltu	$a1, $a2, .LBB37_10
# %bb.8:                                # %if.then.i.i23
.Ltmp193:                               # EH_LABEL
	addi.d	$a1, $sp, 16
	move	$a0, $s2
	move	$a2, $zero
	pcaddu18i	$ra, %call36(_ZNSt7__cxx1112basic_stringIcSt11char_traitsIcESaIcEE9_M_createERmm)
	jirl	$ra, $ra, 0
.Ltmp194:                               # EH_LABEL
# %bb.9:                                # %call.i4.i.noexc24
	ld.d	$a1, $sp, 16
	st.d	$a0, $s2, 0
	st.d	$a1, $s6, 0
.LBB37_10:                              # %if.end.i.i18
	beq	$a1, $s7, .LBB37_14
# %bb.11:                               # %if.end.i.i18
	bnez	$a1, .LBB37_13
# %bb.12:                               # %if.then.i.i.i20
	ld.b	$a1, $s3, 0
	st.b	$a1, $a0, 0
	b	.LBB37_14
.LBB37_13:                              # %if.end.i.i.i.i21
	addi.d	$a2, $a1, 1
	move	$a1, $s3
	pcaddu18i	$ra, %call36(memcpy)
	jirl	$ra, $ra, 0
.LBB37_14:                              # %invoke.cont8
	ld.d	$a0, $sp, 16
	st.d	$a0, $fp, 328
	ld.w	$a0, $s1, 352
	st.w	$a0, $fp, 352
	addi.d	$s8, $fp, 376
	st.d	$s8, $fp, 360
	ld.d	$a1, $s1, 368
	ld.d	$s4, $s1, 360
	addi.d	$s3, $fp, 360
	ori	$a2, $zero, 16
	st.d	$a1, $sp, 16
	move	$a0, $s8
	bltu	$a1, $a2, .LBB37_17
# %bb.15:                               # %if.then.i.i36
.Ltmp196:                               # EH_LABEL
	addi.d	$a1, $sp, 16
	move	$a0, $s3
	move	$a2, $zero
	pcaddu18i	$ra, %call36(_ZNSt7__cxx1112basic_stringIcSt11char_traitsIcESaIcEE9_M_createERmm)
	jirl	$ra, $ra, 0
.Ltmp197:                               # EH_LABEL
# %bb.16:                               # %call.i4.i.noexc37
	ld.d	$a1, $sp, 16
	st.d	$a0, $s3, 0
	st.d	$a1, $s8, 0
.LBB37_17:                              # %if.end.i.i31
	beq	$a1, $s7, .LBB37_21
# %bb.18:                               # %if.end.i.i31
	bnez	$a1, .LBB37_20
# %bb.19:                               # %if.then.i.i.i33
	ld.b	$a1, $s4, 0
	st.b	$a1, $a0, 0
	b	.LBB37_21
.LBB37_20:                              # %if.end.i.i.i.i34
	addi.d	$a2, $a1, 1
	move	$a1, $s4
	pcaddu18i	$ra, %call36(memcpy)
	jirl	$ra, $ra, 0
.LBB37_21:                              # %invoke.cont12
	ld.d	$a0, $sp, 16
	st.d	$a0, $fp, 368
	addi.d	$a0, $fp, 392
	addi.d	$a1, $s1, 392
	ori	$a2, $zero, 98
	pcaddu18i	$ra, %call36(memcpy)
	jirl	$ra, $ra, 0
	addi.d	$a2, $fp, 504
	st.w	$zero, $fp, 504
	st.d	$zero, $fp, 512
	st.d	$a2, $fp, 520
	st.d	$a2, $fp, 528
	st.d	$zero, $fp, 536
	ld.d	$a1, $s1, 512
	beqz	$a1, .LBB37_28
# %bb.22:                               # %if.then.i.i40
	addi.d	$a0, $fp, 496
	st.d	$a0, $sp, 16
.Ltmp199:                               # EH_LABEL
	addi.d	$a3, $sp, 16
	pcaddu18i	$ra, %call36(_ZNSt8_Rb_treeINSt7__cxx1112basic_stringIcSt11char_traitsIcESaIcEEESt4pairIKS5_N9benchmark7CounterEESt10_Select1stISA_ESt4lessIS5_ESaISA_EE7_M_copyILb0ENSG_11_Alloc_nodeEEEPSt18_Rb_tree_node_basePSt13_Rb_tree_nodeISA_ESK_RT0_)
	jirl	$ra, $ra, 0
.Ltmp200:                               # EH_LABEL
# %bb.23:                               # %while.cond.i.i.i.i.i.preheader
	move	$a2, $a0
	.p2align	4, , 16
.LBB37_24:                              # %while.cond.i.i.i.i.i
                                        # =>This Inner Loop Header: Depth=1
	move	$a1, $a2
	ld.d	$a2, $a2, 16
	bnez	$a2, .LBB37_24
# %bb.25:                               # %_ZNSt18_Rb_tree_node_base10_S_minimumEPS_.exit.i.i.i.i
	st.d	$a1, $fp, 520
	move	$a2, $a0
	.p2align	4, , 16
.LBB37_26:                              # %while.cond.i5.i.i.i.i
                                        # =>This Inner Loop Header: Depth=1
	move	$a1, $a2
	ld.d	$a2, $a2, 24
	bnez	$a2, .LBB37_26
# %bb.27:                               # %invoke.cont.i.i
	st.d	$a1, $fp, 528
	ld.d	$a1, $s1, 536
	st.d	$a1, $fp, 536
	st.d	$a0, $fp, 512
.LBB37_28:                              # %invoke.cont16
	vld	$vr0, $s1, 544
	vst	$vr0, $fp, 544
	ld.d	$s8, $sp, 24                    # 8-byte Folded Reload
	ld.d	$s7, $sp, 32                    # 8-byte Folded Reload
	ld.d	$s6, $sp, 40                    # 8-byte Folded Reload
	ld.d	$s5, $sp, 48                    # 8-byte Folded Reload
	ld.d	$s4, $sp, 56                    # 8-byte Folded Reload
	ld.d	$s3, $sp, 64                    # 8-byte Folded Reload
	ld.d	$s2, $sp, 72                    # 8-byte Folded Reload
	ld.d	$s1, $sp, 80                    # 8-byte Folded Reload
	ld.d	$s0, $sp, 88                    # 8-byte Folded Reload
	ld.d	$fp, $sp, 96                    # 8-byte Folded Reload
	ld.d	$ra, $sp, 104                   # 8-byte Folded Reload
	addi.d	$sp, $sp, 112
	ret
.LBB37_29:                              # %lpad11
.Ltmp198:                               # EH_LABEL
	move	$s1, $a0
	ld.d	$a0, $s2, 0
	beq	$a0, $s6, .LBB37_34
	b	.LBB37_37
.LBB37_30:                              # %lpad7
.Ltmp195:                               # EH_LABEL
	move	$s1, $a0
	ld.d	$a0, $s0, 0
	beq	$a0, $s5, .LBB37_35
	b	.LBB37_38
.LBB37_31:                              # %lpad
.Ltmp192:                               # EH_LABEL
	move	$s1, $a0
	move	$a0, $fp
	pcaddu18i	$ra, %call36(_ZN9benchmark13BenchmarkNameD2Ev)
	jirl	$ra, $ra, 0
	move	$a0, $s1
	pcaddu18i	$ra, %call36(_Unwind_Resume)
	jirl	$ra, $ra, 0
.LBB37_32:                              # %lpad15
.Ltmp201:                               # EH_LABEL
	ld.d	$a2, $s3, 0
	move	$s1, $a0
	bne	$a2, $s8, .LBB37_36
