	.file	"report_aggregates_only_test.cc"
                                        # Start of file scope inline assembly
	.globl	_ZSt21ios_base_library_initv

                                        # End of file scope inline assembly
	.text
	.hidden	_Z16BM_SummaryRepeatRN9benchmark5StateE # -- Begin function _Z16BM_SummaryRepeatRN9benchmark5StateE
	.globl	_Z16BM_SummaryRepeatRN9benchmark5StateE
	.p2align	5
	.type	_Z16BM_SummaryRepeatRN9benchmark5StateE,@function
_Z16BM_SummaryRepeatRN9benchmark5StateE: # @_Z16BM_SummaryRepeatRN9benchmark5StateE
	.cfi_startproc
# %bb.0:                                # %entry
	addi.d	$sp, $sp, -32
	.cfi_def_cfa_offset 32
	st.d	$ra, $sp, 24                    # 8-byte Folded Spill
	st.d	$fp, $sp, 16                    # 8-byte Folded Spill
	st.d	$s0, $sp, 8                     # 8-byte Folded Spill
	st.d	$s1, $sp, 0                     # 8-byte Folded Spill
	.cfi_offset 1, -8
	.cfi_offset 22, -16
	.cfi_offset 23, -24
	.cfi_offset 24, -32
	move	$fp, $a0
	ld.w	$s1, $a0, 28
	ld.d	$s0, $a0, 16
	pcaddu18i	$ra, %call36(_ZN9benchmark5State16StartKeepRunningEv)
	jirl	$ra, $ra, 0
	bnez	$s1, .LBB0_3
# %bb.1:                                # %entry
	beqz	$s0, .LBB0_3
# %bb.2:                                # %for.body.preheader
	srai.d	$a0, $s0, 63
	andn	$a0, $s0, $a0
	addi.d	$a1, $s0, -1
	bgeu	$a1, $a0, .LBB0_4
.LBB0_3:                                # %for.cond.cleanup
	move	$a0, $fp
	ld.d	$s1, $sp, 0                     # 8-byte Folded Reload
	ld.d	$s0, $sp, 8                     # 8-byte Folded Reload
	ld.d	$fp, $sp, 16                    # 8-byte Folded Reload
	ld.d	$ra, $sp, 24                    # 8-byte Folded Reload
	addi.d	$sp, $sp, 32
	pcaddu18i	$t8, %call36(_ZN9benchmark5State17FinishKeepRunningEv)
	jr	$t8
.LBB0_4:                                # %cond.false.i
	pcalau12i	$a0, %pc_hi20(.L.str.8)
	addi.d	$a0, $a0, %pc_lo12(.L.str.8)
	pcalau12i	$a1, %pc_hi20(.L.str.9)
	addi.d	$a1, $a1, %pc_lo12(.L.str.9)
	pcalau12i	$a2, %pc_hi20(.L__PRETTY_FUNCTION__._ZN9benchmark5State13StateIteratorppEv)
	addi.d	$a3, $a2, %pc_lo12(.L__PRETTY_FUNCTION__._ZN9benchmark5State13StateIteratorppEv)
	ori	$a2, $zero, 1134
	pcaddu18i	$ra, %call36(__assert_fail)
	jirl	$ra, $ra, 0
.Lfunc_end0:
	.size	_Z16BM_SummaryRepeatRN9benchmark5StateE, .Lfunc_end0-_Z16BM_SummaryRepeatRN9benchmark5StateE
	.cfi_endproc
                                        # -- End function
	.hidden	main                            # -- Begin function main
	.globl	main
	.p2align	5
	.type	main,@function
main:                                   # @main
.Lfunc_begin0:
	.cfi_startproc
	.cfi_personality 155, DW.ref.__gxx_personality_v0
	.cfi_lsda 27, .Lexception0
# %bb.0:                                # %entry
	addi.d	$sp, $sp, -272
	.cfi_def_cfa_offset 272
	st.d	$ra, $sp, 264                   # 8-byte Folded Spill
	st.d	$fp, $sp, 256                   # 8-byte Folded Spill
	st.d	$s0, $sp, 248                   # 8-byte Folded Spill
	st.d	$s1, $sp, 240                   # 8-byte Folded Spill
	st.d	$s2, $sp, 232                   # 8-byte Folded Spill
	st.d	$s3, $sp, 224                   # 8-byte Folded Spill
	st.d	$s4, $sp, 216                   # 8-byte Folded Spill
	.cfi_offset 1, -8
	.cfi_offset 22, -16
	.cfi_offset 23, -24
	.cfi_offset 24, -32
	.cfi_offset 25, -40
	.cfi_offset 26, -48
	.cfi_offset 27, -56
	move	$a2, $a1
	move	$a1, $a0
	addi.d	$a0, $sp, 176
	pcaddu18i	$ra, %call36(_Z21GetFileReporterOutputB5cxx11iPPc)
	jirl	$ra, $ra, 0
	addi.d	$s0, $sp, 160
	st.d	$s0, $sp, 144
	ori	$a0, $zero, 35
	st.d	$a0, $sp, 112
.Ltmp0:                                 # EH_LABEL
	addi.d	$a0, $sp, 144
	addi.d	$a1, $sp, 112
	move	$a2, $zero
	pcaddu18i	$ra, %call36(_ZNSt7__cxx1112basic_stringIcSt11char_traitsIcESaIcEE9_M_createERmm)
	jirl	$ra, $ra, 0
.Ltmp1:                                 # EH_LABEL
# %bb.1:                                # %call2.i5.i.noexc
	ld.d	$a1, $sp, 112
	pcalau12i	$a2, %pc_hi20(.L.str.2)
	addi.d	$a2, $a2, %pc_lo12(.L.str.2)
	xvld	$xr0, $a2, 0
	ld.w	$a2, $a2, 31
	st.d	$a0, $sp, 144
	st.d	$a1, $sp, 160
	xvst	$xr0, $a0, 0
	st.w	$a2, $a0, 31
	st.d	$a1, $sp, 152
	stx.b	$zero, $a0, $a1
.Ltmp3:                                 # EH_LABEL
	addi.d	$a0, $sp, 176
	addi.d	$a1, $sp, 144
	pcaddu18i	$ra, %call36(_Z9SubstrCntRKNSt7__cxx1112basic_stringIcSt11char_traitsIcESaIcEEES6_)
	jirl	$ra, $ra, 0
.Ltmp4:                                 # EH_LABEL
# %bb.2:                                # %invoke.cont3
	ori	$a1, $zero, 4
	ori	$fp, $zero, 1
	bne	$a0, $a1, .LBB1_23
# %bb.3:                                # %lor.lhs.false
	addi.d	$s1, $sp, 128
	st.d	$s1, $sp, 112
	ori	$a0, $zero, 41
	st.d	$a0, $sp, 80
.Ltmp6:                                 # EH_LABEL
	addi.d	$a0, $sp, 112
	addi.d	$a1, $sp, 80
	move	$a2, $zero
	pcaddu18i	$ra, %call36(_ZNSt7__cxx1112basic_stringIcSt11char_traitsIcESaIcEE9_M_createERmm)
	jirl	$ra, $ra, 0
.Ltmp7:                                 # EH_LABEL
# %bb.4:                                # %call2.i5.i.noexc22
	st.d	$a0, $sp, 112
	ld.d	$a1, $sp, 80
	pcalau12i	$a2, %pc_hi20(.L.str.3)
	addi.d	$a2, $a2, %pc_lo12(.L.str.3)
	xvld	$xr0, $a2, 0
	ld.d	$a3, $a2, 32
	ld.b	$a2, $a2, 40
	st.d	$a1, $sp, 128
	xvst	$xr0, $a0, 0
	st.d	$a3, $a0, 32
	st.b	$a2, $a0, 40
	st.d	$a1, $sp, 120
	stx.b	$zero, $a0, $a1
.Ltmp9:                                 # EH_LABEL
	addi.d	$a0, $sp, 176
	addi.d	$a1, $sp, 112
	pcaddu18i	$ra, %call36(_Z9SubstrCntRKNSt7__cxx1112basic_stringIcSt11char_traitsIcESaIcEEES6_)
	jirl	$ra, $ra, 0
.Ltmp10:                                # EH_LABEL
# %bb.5:                                # %invoke.cont12
	ori	$fp, $zero, 1
	bne	$a0, $fp, .LBB1_21
# %bb.6:                                # %lor.lhs.false15
	addi.d	$s2, $sp, 96
	st.d	$s2, $sp, 80
	ori	$a0, $zero, 43
	st.d	$a0, $sp, 48
.Ltmp12:                                # EH_LABEL
	addi.d	$a0, $sp, 80
	addi.d	$a1, $sp, 48
	move	$a2, $zero
	pcaddu18i	$ra, %call36(_ZNSt7__cxx1112basic_stringIcSt11char_traitsIcESaIcEE9_M_createERmm)
	jirl	$ra, $ra, 0
.Ltmp13:                                # EH_LABEL
# %bb.7:                                # %call2.i5.i.noexc34
	st.d	$a0, $sp, 80
	ld.d	$a1, $sp, 48
	pcalau12i	$a2, %pc_hi20(.L.str.4)
	addi.d	$a2, $a2, %pc_lo12(.L.str.4)
	xvld	$xr0, $a2, 0
	ld.d	$a3, $a2, 32
	ld.w	$a2, $a2, 39
	st.d	$a1, $sp, 96
	xvst	$xr0, $a0, 0
	st.d	$a3, $a0, 32
	st.w	$a2, $a0, 39
	st.d	$a1, $sp, 88
	stx.b	$zero, $a0, $a1
.Ltmp15:                                # EH_LABEL
	addi.d	$a0, $sp, 176
	addi.d	$a1, $sp, 80
	pcaddu18i	$ra, %call36(_Z9SubstrCntRKNSt7__cxx1112basic_stringIcSt11char_traitsIcESaIcEEES6_)
	jirl	$ra, $ra, 0
.Ltmp16:                                # EH_LABEL
# %bb.8:                                # %invoke.cont25
	ori	$fp, $zero, 1
	bne	$a0, $fp, .LBB1_19
# %bb.9:                                # %lor.lhs.false28
	addi.d	$s3, $sp, 64
	st.d	$s3, $sp, 48
	ori	$a0, $zero, 43
	st.d	$a0, $sp, 16
.Ltmp18:                                # EH_LABEL
	addi.d	$a0, $sp, 48
	addi.d	$a1, $sp, 16
	move	$a2, $zero
	pcaddu18i	$ra, %call36(_ZNSt7__cxx1112basic_stringIcSt11char_traitsIcESaIcEE9_M_createERmm)
	jirl	$ra, $ra, 0
.Ltmp19:                                # EH_LABEL
# %bb.10:                               # %call2.i5.i.noexc46
	st.d	$a0, $sp, 48
	ld.d	$a1, $sp, 16
	pcalau12i	$a2, %pc_hi20(.L.str.5)
	addi.d	$a2, $a2, %pc_lo12(.L.str.5)
	xvld	$xr0, $a2, 0
	ld.d	$a3, $a2, 32
	ld.w	$a2, $a2, 39
	st.d	$a1, $sp, 64
	xvst	$xr0, $a0, 0
	st.d	$a3, $a0, 32
	st.w	$a2, $a0, 39
	st.d	$a1, $sp, 56
	stx.b	$zero, $a0, $a1
.Ltmp21:                                # EH_LABEL
	addi.d	$a0, $sp, 176
	addi.d	$a1, $sp, 48
	pcaddu18i	$ra, %call36(_Z9SubstrCntRKNSt7__cxx1112basic_stringIcSt11char_traitsIcESaIcEEES6_)
	jirl	$ra, $ra, 0
.Ltmp22:                                # EH_LABEL
# %bb.11:                               # %invoke.cont38
	ori	$fp, $zero, 1
	bne	$a0, $fp, .LBB1_17
# %bb.12:                               # %lor.rhs
	addi.d	$s4, $sp, 32
	st.d	$s4, $sp, 16
	ori	$a0, $zero, 39
	st.d	$a0, $sp, 208
.Ltmp24:                                # EH_LABEL
	addi.d	$a0, $sp, 16
	addi.d	$a1, $sp, 208
	move	$a2, $zero
	pcaddu18i	$ra, %call36(_ZNSt7__cxx1112basic_stringIcSt11char_traitsIcESaIcEE9_M_createERmm)
	jirl	$ra, $ra, 0
.Ltmp25:                                # EH_LABEL
# %bb.13:                               # %call2.i5.i.noexc58
	ld.d	$a1, $sp, 208
	pcalau12i	$a2, %pc_hi20(.L.str.6)
	addi.d	$a2, $a2, %pc_lo12(.L.str.6)
	xvld	$xr0, $a2, 0
	ld.d	$a2, $a2, 31
	st.d	$a0, $sp, 16
	st.d	$a1, $sp, 32
	xvst	$xr0, $a0, 0
	st.d	$a2, $a0, 31
	st.d	$a1, $sp, 24
	stx.b	$zero, $a0, $a1
.Ltmp27:                                # EH_LABEL
	addi.d	$a0, $sp, 176
	addi.d	$a1, $sp, 16
	pcaddu18i	$ra, %call36(_Z9SubstrCntRKNSt7__cxx1112basic_stringIcSt11char_traitsIcESaIcEEES6_)
	jirl	$ra, $ra, 0
	move	$a1, $a0
.Ltmp28:                                # EH_LABEL
# %bb.14:                               # %cleanup.action
	ld.d	$a0, $sp, 16
	addi.d	$fp, $a1, -1
	beq	$a0, $s4, .LBB1_16
# %bb.15:                               # %if.then.i.i61
	ld.d	$a1, $sp, 32
	addi.d	$a1, $a1, 1
	pcaddu18i	$ra, %call36(_ZdlPvm)
	jirl	$ra, $ra, 0
.LBB1_16:                               # %cleanup.done71.thread
	sltu	$fp, $zero, $fp
.LBB1_17:                               # %cleanup.action77
	ld.d	$a0, $sp, 48
	beq	$a0, $s3, .LBB1_19
# %bb.18:                               # %if.then.i.i63
	ld.d	$a1, $sp, 64
	addi.d	$a1, $a1, 1
	pcaddu18i	$ra, %call36(_ZdlPvm)
	jirl	$ra, $ra, 0
.LBB1_19:                               # %cleanup.action105
	ld.d	$a0, $sp, 80
	beq	$a0, $s2, .LBB1_21
# %bb.20:                               # %if.then.i.i70
	ld.d	$a1, $sp, 96
	addi.d	$a1, $a1, 1
	pcaddu18i	$ra, %call36(_ZdlPvm)
	jirl	$ra, $ra, 0
.LBB1_21:                               # %cleanup.action133
	ld.d	$a0, $sp, 112
	beq	$a0, $s1, .LBB1_23
# %bb.22:                               # %if.then.i.i77
	ld.d	$a1, $sp, 128
	addi.d	$a1, $a1, 1
	pcaddu18i	$ra, %call36(_ZdlPvm)
	jirl	$ra, $ra, 0
.LBB1_23:                               # %cleanup.done155
	ld.d	$a0, $sp, 144
	beq	$a0, $s0, .LBB1_25
# %bb.24:                               # %if.then.i.i84
	ld.d	$a1, $sp, 160
	addi.d	$a1, $a1, 1
	pcaddu18i	$ra, %call36(_ZdlPvm)
	jirl	$ra, $ra, 0
.LBB1_25:                               # %_ZNSt7__cxx1112basic_stringIcSt11char_traitsIcESaIcEED2Ev.exit89
	beqz	$fp, .LBB1_31
# %bb.26:                               # %if.then
.Ltmp30:                                # EH_LABEL
	pcalau12i	$a0, %got_pc_hi20(_ZSt4cout)
	ld.d	$a0, $a0, %got_pc_lo12(_ZSt4cout)
	pcalau12i	$a1, %pc_hi20(.L.str.7)
	addi.d	$a1, $a1, %pc_lo12(.L.str.7)
	ori	$a2, $zero, 297
	pcaddu18i	$ra, %call36(_ZSt16__ostream_insertIcSt11char_traitsIcEERSt13basic_ostreamIT_T0_ES6_PKS3_l)
	jirl	$ra, $ra, 0
.Ltmp31:                                # EH_LABEL
# %bb.27:                               # %invoke.cont165
	ld.d	$a1, $sp, 176
	ld.d	$a2, $sp, 184
	ori	$fp, $zero, 1
.Ltmp32:                                # EH_LABEL
	pcalau12i	$a0, %got_pc_hi20(_ZSt4cout)
	ld.d	$a0, $a0, %got_pc_lo12(_ZSt4cout)
	pcaddu18i	$ra, %call36(_ZSt16__ostream_insertIcSt11char_traitsIcEERSt13basic_ostreamIT_T0_ES6_PKS3_l)
	jirl	$ra, $ra, 0
.Ltmp33:                                # EH_LABEL
# %bb.28:                               # %cleanup
	ld.d	$a0, $sp, 176
	addi.d	$a1, $sp, 192
	beq	$a0, $a1, .LBB1_30
.LBB1_29:                               # %if.then.i.i130
	ld.d	$a1, $sp, 192
	addi.d	$a1, $a1, 1
	pcaddu18i	$ra, %call36(_ZdlPvm)
	jirl	$ra, $ra, 0
.LBB1_30:                               # %_ZNSt7__cxx1112basic_stringIcSt11char_traitsIcESaIcEED2Ev.exit135
	move	$a0, $fp
	ld.d	$s4, $sp, 216                   # 8-byte Folded Reload
	ld.d	$s3, $sp, 224                   # 8-byte Folded Reload
	ld.d	$s2, $sp, 232                   # 8-byte Folded Reload
	ld.d	$s1, $sp, 240                   # 8-byte Folded Reload
	ld.d	$s0, $sp, 248                   # 8-byte Folded Reload
	ld.d	$fp, $sp, 256                   # 8-byte Folded Reload
	ld.d	$ra, $sp, 264                   # 8-byte Folded Reload
	addi.d	$sp, $sp, 272
	ret
.LBB1_31:
	move	$fp, $zero
	ld.d	$a0, $sp, 176
	addi.d	$a1, $sp, 192
	bne	$a0, $a1, .LBB1_29
	b	.LBB1_30
.LBB1_32:                               # %lpad49
.Ltmp29:                                # EH_LABEL
	ld.d	$a2, $sp, 16
	move	$fp, $a0
	bne	$a2, $s4, .LBB1_39
# %bb.33:                               # %cleanup.action81
	ld.d	$a0, $sp, 48
	bne	$a0, $s3, .LBB1_42
.LBB1_34:                               # %cleanup.action109
	ld.d	$a0, $sp, 80
	bne	$a0, $s2, .LBB1_45
.LBB1_35:                               # %cleanup.action137
	ld.d	$a0, $sp, 112
	bne	$a0, $s1, .LBB1_48
.LBB1_36:                               # %ehcleanup160
	ld.d	$a0, $sp, 144
	bne	$a0, $s0, .LBB1_52
.LBB1_37:                               # %ehcleanup169
	ld.d	$a0, $sp, 176
	addi.d	$a1, $sp, 192
	bne	$a0, $a1, .LBB1_55
.LBB1_38:                               # %_ZNSt7__cxx1112basic_stringIcSt11char_traitsIcESaIcEED2Ev.exit142
	move	$a0, $fp
	pcaddu18i	$ra, %call36(_Unwind_Resume)
	jirl	$ra, $ra, 0
.LBB1_39:                               # %if.then.i.i95
	ld.d	$a0, $sp, 32
	addi.d	$a1, $a0, 1
	move	$a0, $a2
	pcaddu18i	$ra, %call36(_ZdlPvm)
	jirl	$ra, $ra, 0
	ld.d	$a0, $sp, 48
	beq	$a0, $s3, .LBB1_34
	b	.LBB1_42
.LBB1_40:                               # %lpad46
.Ltmp26:                                # EH_LABEL
	move	$fp, $a0
	ld.d	$a0, $sp, 48
	beq	$a0, $s3, .LBB1_34
	b	.LBB1_42
.LBB1_41:                               # %lpad37
.Ltmp23:                                # EH_LABEL
	move	$fp, $a0
	ld.d	$a0, $sp, 48
	beq	$a0, $s3, .LBB1_34
.LBB1_42:                               # %if.then.i.i102
	ld.d	$a1, $sp, 64
	addi.d	$a1, $a1, 1
	pcaddu18i	$ra, %call36(_ZdlPvm)
	jirl	$ra, $ra, 0
	ld.d	$a0, $sp, 80
	beq	$a0, $s2, .LBB1_35
	b	.LBB1_45
.LBB1_43:                               # %lpad34
.Ltmp20:                                # EH_LABEL
	move	$fp, $a0
	ld.d	$a0, $sp, 80
	beq	$a0, $s2, .LBB1_35
	b	.LBB1_45
.LBB1_44:                               # %lpad24
.Ltmp17:                                # EH_LABEL
	move	$fp, $a0
	ld.d	$a0, $sp, 80
	beq	$a0, $s2, .LBB1_35
.LBB1_45:                               # %if.then.i.i109
	ld.d	$a1, $sp, 96
	addi.d	$a1, $a1, 1
	pcaddu18i	$ra, %call36(_ZdlPvm)
	jirl	$ra, $ra, 0
	ld.d	$a0, $sp, 112
	beq	$a0, $s1, .LBB1_36
	b	.LBB1_48
.LBB1_46:                               # %lpad21
.Ltmp14:                                # EH_LABEL
	move	$fp, $a0
	ld.d	$a0, $sp, 112
	beq	$a0, $s1, .LBB1_36
	b	.LBB1_48
.LBB1_47:                               # %lpad11
.Ltmp11:                                # EH_LABEL
	move	$fp, $a0
	ld.d	$a0, $sp, 112
	beq	$a0, $s1, .LBB1_36
.LBB1_48:                               # %if.then.i.i116
	ld.d	$a1, $sp, 128
	addi.d	$a1, $a1, 1
	pcaddu18i	$ra, %call36(_ZdlPvm)
	jirl	$ra, $ra, 0
	ld.d	$a0, $sp, 144
	beq	$a0, $s0, .LBB1_37
	b	.LBB1_52
.LBB1_49:                               # %lpad8
.Ltmp8:                                 # EH_LABEL
	move	$fp, $a0
	ld.d	$a0, $sp, 144
	beq	$a0, $s0, .LBB1_37
	b	.LBB1_52
.LBB1_50:                               # %lpad164
.Ltmp34:                                # EH_LABEL
	b	.LBB1_54
.LBB1_51:                               # %lpad2
.Ltmp5:                                 # EH_LABEL
	move	$fp, $a0
	ld.d	$a0, $sp, 144
	beq	$a0, $s0, .LBB1_37
.LBB1_52:                               # %if.then.i.i123
	ld.d	$a1, $sp, 160
	addi.d	$a1, $a1, 1
	pcaddu18i	$ra, %call36(_ZdlPvm)
	jirl	$ra, $ra, 0
	ld.d	$a0, $sp, 176
	addi.d	$a1, $sp, 192
	beq	$a0, $a1, .LBB1_38
	b	.LBB1_55
.LBB1_53:                               # %lpad
.Ltmp2:                                 # EH_LABEL
.LBB1_54:                               # %ehcleanup169
	move	$fp, $a0
	ld.d	$a0, $sp, 176
	addi.d	$a1, $sp, 192
	beq	$a0, $a1, .LBB1_38
.LBB1_55:                               # %if.then.i.i137
	ld.d	$a1, $sp, 192
	addi.d	$a1, $a1, 1
	pcaddu18i	$ra, %call36(_ZdlPvm)
	jirl	$ra, $ra, 0
	move	$a0, $fp
	pcaddu18i	$ra, %call36(_Unwind_Resume)
	jirl	$ra, $ra, 0
.Lfunc_end1:
	.size	main, .Lfunc_end1-main
	.cfi_endproc
	.section	.gcc_except_table,"a",@progbits
	.p2align	2, 0x0
GCC_except_table1:
.Lexception0:
	.byte	255                             # @LPStart Encoding = omit
	.byte	255                             # @TType Encoding = omit
	.byte	1                               # Call site Encoding = uleb128
	.uleb128 .Lcst_end0-.Lcst_begin0
.Lcst_begin0:
	.uleb128 .Lfunc_begin0-.Lfunc_begin0    # >> Call Site 1 <<
	.uleb128 .Ltmp0-.Lfunc_begin0           #   Call between .Lfunc_begin0 and .Ltmp0
	.byte	0                               #     has no landing pad
	.byte	0                               #   On action: cleanup
	.uleb128 .Ltmp0-.Lfunc_begin0           # >> Call Site 2 <<
	.uleb128 .Ltmp1-.Ltmp0                  #   Call between .Ltmp0 and .Ltmp1
	.uleb128 .Ltmp2-.Lfunc_begin0           #     jumps to .Ltmp2
	.byte	0                               #   On action: cleanup
	.uleb128 .Ltmp3-.Lfunc_begin0           # >> Call Site 3 <<
	.uleb128 .Ltmp4-.Ltmp3                  #   Call between .Ltmp3 and .Ltmp4
	.uleb128 .Ltmp5-.Lfunc_begin0           #     jumps to .Ltmp5
	.byte	0                               #   On action: cleanup
	.uleb128 .Ltmp6-.Lfunc_begin0           # >> Call Site 4 <<
	.uleb128 .Ltmp7-.Ltmp6                  #   Call between .Ltmp6 and .Ltmp7
	.uleb128 .Ltmp8-.Lfunc_begin0           #     jumps to .Ltmp8
	.byte	0                               #   On action: cleanup
	.uleb128 .Ltmp9-.Lfunc_begin0           # >> Call Site 5 <<
	.uleb128 .Ltmp10-.Ltmp9                 #   Call between .Ltmp9 and .Ltmp10
	.uleb128 .Ltmp11-.Lfunc_begin0          #     jumps to .Ltmp11
	.byte	0                               #   On action: cleanup
	.uleb128 .Ltmp12-.Lfunc_begin0          # >> Call Site 6 <<
	.uleb128 .Ltmp13-.Ltmp12                #   Call between .Ltmp12 and .Ltmp13
	.uleb128 .Ltmp14-.Lfunc_begin0          #     jumps to .Ltmp14
	.byte	0                               #   On action: cleanup
	.uleb128 .Ltmp15-.Lfunc_begin0          # >> Call Site 7 <<
	.uleb128 .Ltmp16-.Ltmp15                #   Call between .Ltmp15 and .Ltmp16
	.uleb128 .Ltmp17-.Lfunc_begin0          #     jumps to .Ltmp17
	.byte	0                               #   On action: cleanup
	.uleb128 .Ltmp18-.Lfunc_begin0          # >> Call Site 8 <<
	.uleb128 .Ltmp19-.Ltmp18                #   Call between .Ltmp18 and .Ltmp19
	.uleb128 .Ltmp20-.Lfunc_begin0          #     jumps to .Ltmp20
	.byte	0                               #   On action: cleanup
	.uleb128 .Ltmp21-.Lfunc_begin0          # >> Call Site 9 <<
	.uleb128 .Ltmp22-.Ltmp21                #   Call between .Ltmp21 and .Ltmp22
	.uleb128 .Ltmp23-.Lfunc_begin0          #     jumps to .Ltmp23
	.byte	0                               #   On action: cleanup
	.uleb128 .Ltmp24-.Lfunc_begin0          # >> Call Site 10 <<
	.uleb128 .Ltmp25-.Ltmp24                #   Call between .Ltmp24 and .Ltmp25
	.uleb128 .Ltmp26-.Lfunc_begin0          #     jumps to .Ltmp26
	.byte	0                               #   On action: cleanup
	.uleb128 .Ltmp27-.Lfunc_begin0          # >> Call Site 11 <<
	.uleb128 .Ltmp28-.Ltmp27                #   Call between .Ltmp27 and .Ltmp28
	.uleb128 .Ltmp29-.Lfunc_begin0          #     jumps to .Ltmp29
	.byte	0                               #   On action: cleanup
	.uleb128 .Ltmp28-.Lfunc_begin0          # >> Call Site 12 <<
	.uleb128 .Ltmp30-.Ltmp28                #   Call between .Ltmp28 and .Ltmp30
	.byte	0                               #     has no landing pad
	.byte	0                               #   On action: cleanup
	.uleb128 .Ltmp30-.Lfunc_begin0          # >> Call Site 13 <<
	.uleb128 .Ltmp33-.Ltmp30                #   Call between .Ltmp30 and .Ltmp33
	.uleb128 .Ltmp34-.Lfunc_begin0          #     jumps to .Ltmp34
	.byte	0                               #   On action: cleanup
	.uleb128 .Ltmp33-.Lfunc_begin0          # >> Call Site 14 <<
	.uleb128 .Lfunc_end1-.Ltmp33            #   Call between .Ltmp33 and .Lfunc_end1
	.byte	0                               #     has no landing pad
	.byte	0                               #   On action: cleanup
.Lcst_end0:
	.p2align	2, 0x0
                                        # -- End function
	.section	.text.startup,"ax",@progbits
	.p2align	5                               # -- Begin function _GLOBAL__sub_I_report_aggregates_only_test.cc
	.type	_GLOBAL__sub_I_report_aggregates_only_test.cc,@function
_GLOBAL__sub_I_report_aggregates_only_test.cc: # @_GLOBAL__sub_I_report_aggregates_only_test.cc
.Lfunc_begin1:
	.cfi_startproc
	.cfi_personality 155, DW.ref.__gxx_personality_v0
	.cfi_lsda 27, .Lexception1
# %bb.0:                                # %entry
	addi.d	$sp, $sp, -96
	.cfi_def_cfa_offset 96
	st.d	$ra, $sp, 88                    # 8-byte Folded Spill
	st.d	$fp, $sp, 80                    # 8-byte Folded Spill
	st.d	$s0, $sp, 72                    # 8-byte Folded Spill
	st.d	$s1, $sp, 64                    # 8-byte Folded Spill
	st.d	$s2, $sp, 56                    # 8-byte Folded Spill
	.cfi_offset 1, -8
	.cfi_offset 22, -16
	.cfi_offset 23, -24
	.cfi_offset 24, -32
	.cfi_offset 25, -40
	pcaddu18i	$ra, %call36(_ZN9benchmark8internal17InitializeStreamsEv)
	jirl	$ra, $ra, 0
	ori	$a0, $zero, 232
	pcaddu18i	$ra, %call36(_Znwm)
	jirl	$ra, $ra, 0
	move	$fp, $a0
	addi.d	$s1, $sp, 32
	st.d	$s1, $sp, 16
	ori	$a0, $zero, 16
	st.d	$a0, $sp, 48
.Ltmp35:                                # EH_LABEL
	addi.d	$a0, $sp, 16
	addi.d	$a1, $sp, 48
	move	$a2, $zero
	pcaddu18i	$ra, %call36(_ZNSt7__cxx1112basic_stringIcSt11char_traitsIcESaIcEE9_M_createERmm)
	jirl	$ra, $ra, 0
.Ltmp36:                                # EH_LABEL
# %bb.1:                                # %call2.i5.i.noexc.i
	ld.d	$a1, $sp, 48
	pcalau12i	$a2, %pc_hi20(.L.str)
	vld	$vr0, $a2, %pc_lo12(.L.str)
	st.d	$a0, $sp, 16
	st.d	$a1, $sp, 32
	vst	$vr0, $a0, 0
	ld.d	$a0, $sp, 16
	st.d	$a1, $sp, 24
	stx.b	$zero, $a0, $a1
	ori	$s2, $zero, 1
.Ltmp38:                                # EH_LABEL
	addi.d	$a1, $sp, 16
	move	$a0, $fp
	pcaddu18i	$ra, %call36(_ZN9benchmark8internal9BenchmarkC2ERKNSt7__cxx1112basic_stringIcSt11char_traitsIcESaIcEEE)
	jirl	$ra, $ra, 0
.Ltmp39:                                # EH_LABEL
# %bb.2:                                # %invoke.cont3.i
	pcalau12i	$a0, %got_pc_hi20(_ZTVN9benchmark8internal17FunctionBenchmarkE)
	ld.d	$a0, $a0, %got_pc_lo12(_ZTVN9benchmark8internal17FunctionBenchmarkE)
	addi.d	$a0, $a0, 16
	st.d	$a0, $fp, 0
	pcalau12i	$a0, %pc_hi20(_Z16BM_SummaryRepeatRN9benchmark5StateE)
	addi.d	$a0, $a0, %pc_lo12(_Z16BM_SummaryRepeatRN9benchmark5StateE)
	st.d	$a0, $fp, 224
.Ltmp40:                                # EH_LABEL
	move	$s2, $zero
	move	$a0, $fp
	pcaddu18i	$ra, %call36(_ZN9benchmark8internal25RegisterBenchmarkInternalEPNS0_9BenchmarkE)
	jirl	$ra, $ra, 0
.Ltmp41:                                # EH_LABEL
# %bb.3:                                # %invoke.cont4.i
.Ltmp42:                                # EH_LABEL
	ori	$a1, $zero, 3
	move	$s2, $zero
	pcaddu18i	$ra, %call36(_ZN9benchmark8internal9Benchmark11RepetitionsEi)
	jirl	$ra, $ra, 0
.Ltmp43:                                # EH_LABEL
# %bb.4:                                # %invoke.cont6.i
.Ltmp44:                                # EH_LABEL
	ori	$a1, $zero, 1
	move	$s2, $zero
	pcaddu18i	$ra, %call36(_ZN9benchmark8internal9Benchmark20ReportAggregatesOnlyEb)
	jirl	$ra, $ra, 0
.Ltmp45:                                # EH_LABEL
# %bb.5:                                # %invoke.cont8.i
	move	$s0, $a0
	ld.d	$a0, $sp, 16
	beq	$a0, $s1, .LBB2_7
# %bb.6:                                # %if.then.i.i3.i
	ld.d	$a1, $sp, 32
	addi.d	$a1, $a1, 1
	pcaddu18i	$ra, %call36(_ZdlPvm)
	jirl	$ra, $ra, 0
.LBB2_7:                                # %__cxx_global_var_init.1.exit
	pcalau12i	$a0, %pc_hi20(_ZL27benchmark_uniq_2_benchmark_)
	st.d	$s0, $a0, %pc_lo12(_ZL27benchmark_uniq_2_benchmark_)
	ld.d	$s2, $sp, 56                    # 8-byte Folded Reload
	ld.d	$s1, $sp, 64                    # 8-byte Folded Reload
	ld.d	$s0, $sp, 72                    # 8-byte Folded Reload
	ld.d	$fp, $sp, 80                    # 8-byte Folded Reload
	ld.d	$ra, $sp, 88                    # 8-byte Folded Reload
	addi.d	$sp, $sp, 96
	ret
.LBB2_8:                                # %ehcleanup.thread.i
.Ltmp37:                                # EH_LABEL
	move	$s0, $a0
	b	.LBB2_12
.LBB2_9:                                # %lpad2.i
.Ltmp46:                                # EH_LABEL
	ld.d	$a2, $sp, 16
	move	$s0, $a0
	bne	$a2, $s1, .LBB2_11
# %bb.10:                               # %_ZNKSt7__cxx1112basic_stringIcSt11char_traitsIcESaIcEE11_M_is_localEv.exit.thread.i.i7.i
	bnez	$s2, .LBB2_12
	b	.LBB2_13
.LBB2_11:                               # %ehcleanup.i
	ld.d	$a0, $sp, 32
	addi.d	$a1, $a0, 1
	move	$a0, $a2
	pcaddu18i	$ra, %call36(_ZdlPvm)
	jirl	$ra, $ra, 0
	beqz	$s2, .LBB2_13
.LBB2_12:                               # %cleanup.action.i
	ori	$a1, $zero, 232
	move	$a0, $fp
	pcaddu18i	$ra, %call36(_ZdlPvm)
	jirl	$ra, $ra, 0
.LBB2_13:                               # %eh.resume.i
	move	$a0, $s0
	pcaddu18i	$ra, %call36(_Unwind_Resume)
	jirl	$ra, $ra, 0
.Lfunc_end2:
	.size	_GLOBAL__sub_I_report_aggregates_only_test.cc, .Lfunc_end2-_GLOBAL__sub_I_report_aggregates_only_test.cc
	.cfi_endproc
	.section	.gcc_except_table,"a",@progbits
	.p2align	2, 0x0
GCC_except_table2:
.Lexception1:
	.byte	255                             # @LPStart Encoding = omit
	.byte	255                             # @TType Encoding = omit
	.byte	1                               # Call site Encoding = uleb128
	.uleb128 .Lcst_end1-.Lcst_begin1
.Lcst_begin1:
	.uleb128 .Lfunc_begin1-.Lfunc_begin1    # >> Call Site 1 <<
	.uleb128 .Ltmp35-.Lfunc_begin1          #   Call between .Lfunc_begin1 and .Ltmp35
	.byte	0                               #     has no landing pad
	.byte	0                               #   On action: cleanup
	.uleb128 .Ltmp35-.Lfunc_begin1          # >> Call Site 2 <<
	.uleb128 .Ltmp36-.Ltmp35                #   Call between .Ltmp35 and .Ltmp36
	.uleb128 .Ltmp37-.Lfunc_begin1          #     jumps to .Ltmp37
	.byte	0                               #   On action: cleanup
	.uleb128 .Ltmp38-.Lfunc_begin1          # >> Call Site 3 <<
	.uleb128 .Ltmp45-.Ltmp38                #   Call between .Ltmp38 and .Ltmp45
	.uleb128 .Ltmp46-.Lfunc_begin1          #     jumps to .Ltmp46
	.byte	0                               #   On action: cleanup
	.uleb128 .Ltmp45-.Lfunc_begin1          # >> Call Site 4 <<
	.uleb128 .Lfunc_end2-.Ltmp45            #   Call between .Ltmp45 and .Lfunc_end2
	.byte	0                               #     has no landing pad
	.byte	0                               #   On action: cleanup
.Lcst_end1:
	.p2align	2, 0x0
                                        # -- End function
	.type	_ZL27benchmark_uniq_2_benchmark_,@object # @_ZL27benchmark_uniq_2_benchmark_
	.local	_ZL27benchmark_uniq_2_benchmark_
	.comm	_ZL27benchmark_uniq_2_benchmark_,8,8
	.type	.L.str,@object                  # @.str
	.section	.rodata.str1.8,"aMS",@progbits,1
	.p2align	3, 0x0
.L.str:
	.asciz	"BM_SummaryRepeat"
	.size	.L.str, 17

	.type	.L.str.2,@object                # @.str.2
	.p2align	3, 0x0
.L.str.2:
	.asciz	"\"name\": \"BM_SummaryRepeat/repeats:3"
	.size	.L.str.2, 36

	.type	.L.str.3,@object                # @.str.3
	.p2align	3, 0x0
.L.str.3:
	.asciz	"\"name\": \"BM_SummaryRepeat/repeats:3_mean\""
	.size	.L.str.3, 42

	.type	.L.str.4,@object                # @.str.4
	.p2align	3, 0x0
.L.str.4:
	.asciz	"\"name\": \"BM_SummaryRepeat/repeats:3_median\""
	.size	.L.str.4, 44

	.type	.L.str.5,@object                # @.str.5
	.p2align	3, 0x0
.L.str.5:
	.asciz	"\"name\": \"BM_SummaryRepeat/repeats:3_stddev\""
	.size	.L.str.5, 44

	.type	.L.str.6,@object                # @.str.6
	.p2align	3, 0x0
.L.str.6:
	.asciz	"\"name\": \"BM_SummaryRepeat/repeats:3_cv\""
	.size	.L.str.6, 40

	.type	.L.str.7,@object                # @.str.7
	.section	.rodata.str1.1,"aMS",@progbits,1
.L.str.7:
	.asciz	"Precondition mismatch. Expected to only find four occurrences of \"BM_SummaryRepeat/repeats:3\" substring:\n\"name\": \"BM_SummaryRepeat/repeats:3_mean\", \"name\": \"BM_SummaryRepeat/repeats:3_median\", \"name\": \"BM_SummaryRepeat/repeats:3_stddev\", \"name\": \"BM_SummaryRepeat/repeats:3_cv\"\nThe entire output:\n"
	.size	.L.str.7, 298

	.type	.L.str.8,@object                # @.str.8
.L.str.8:
	.asciz	"cached_ > 0"
	.size	.L.str.8, 12

	.type	.L.str.9,@object                # @.str.9
.L.str.9:
	.asciz	"/home/zhaoqi/llvm-test-suite/MicroBenchmarks/libs/benchmark/include/benchmark/benchmark.h"
	.size	.L.str.9, 90

	.type	.L__PRETTY_FUNCTION__._ZN9benchmark5State13StateIteratorppEv,@object # @__PRETTY_FUNCTION__._ZN9benchmark5State13StateIteratorppEv
.L__PRETTY_FUNCTION__._ZN9benchmark5State13StateIteratorppEv:
	.asciz	"StateIterator &benchmark::State::StateIterator::operator++()"
	.size	.L__PRETTY_FUNCTION__._ZN9benchmark5State13StateIteratorppEv, 61

	.section	.init_array,"aw",@init_array
	.p2align	3, 0x0
	.dword	_GLOBAL__sub_I_report_aggregates_only_test.cc
	.hidden	DW.ref.__gxx_personality_v0
	.weak	DW.ref.__gxx_personality_v0
	.section	.data.DW.ref.__gxx_personality_v0,"awG",@progbits,DW.ref.__gxx_personality_v0,comdat
	.p2align	3, 0x0
	.type	DW.ref.__gxx_personality_v0,@object
	.size	DW.ref.__gxx_personality_v0, 8
DW.ref.__gxx_personality_v0:
	.dword	__gxx_personality_v0
	.section	".note.GNU-stack","",@progbits
	.addrsig
	.addrsig_sym _Z16BM_SummaryRepeatRN9benchmark5StateE
	.addrsig_sym __gxx_personality_v0
	.addrsig_sym _GLOBAL__sub_I_report_aggregates_only_test.cc
	.addrsig_sym _Unwind_Resume
	.addrsig_sym _ZSt4cout
