	.file	"spec_arg_verbosity_test.cc"
                                        # Start of file scope inline assembly
	.globl	_ZSt21ios_base_library_initv

                                        # End of file scope inline assembly
	.text
	.p2align	5                               # -- Begin function _ZL12BM_VerbosityRN9benchmark5StateE
	.type	_ZL12BM_VerbosityRN9benchmark5StateE,@function
_ZL12BM_VerbosityRN9benchmark5StateE:   # @_ZL12BM_VerbosityRN9benchmark5StateE
	.cfi_startproc
# %bb.0:                                # %entry
	addi.d	$sp, $sp, -32
	.cfi_def_cfa_offset 32
	st.d	$ra, $sp, 24                    # 8-byte Folded Spill
	st.d	$fp, $sp, 16                    # 8-byte Folded Spill
	st.d	$s0, $sp, 8                     # 8-byte Folded Spill
	st.d	$s1, $sp, 0                     # 8-byte Folded Spill
	.cfi_offset 1, -8
	.cfi_offset 22, -16
	.cfi_offset 23, -24
	.cfi_offset 24, -32
	move	$fp, $a0
	ld.w	$s1, $a0, 28
	ld.d	$s0, $a0, 16
	pcaddu18i	$ra, %call36(_ZN9benchmark5State16StartKeepRunningEv)
	jirl	$ra, $ra, 0
	bnez	$s1, .LBB0_3
# %bb.1:                                # %entry
	beqz	$s0, .LBB0_3
# %bb.2:                                # %for.body.preheader
	srai.d	$a0, $s0, 63
	andn	$a0, $s0, $a0
	addi.d	$a1, $s0, -1
	bgeu	$a1, $a0, .LBB0_4
.LBB0_3:                                # %for.cond.cleanup
	move	$a0, $fp
	ld.d	$s1, $sp, 0                     # 8-byte Folded Reload
	ld.d	$s0, $sp, 8                     # 8-byte Folded Reload
	ld.d	$fp, $sp, 16                    # 8-byte Folded Reload
	ld.d	$ra, $sp, 24                    # 8-byte Folded Reload
	addi.d	$sp, $sp, 32
	pcaddu18i	$t8, %call36(_ZN9benchmark5State17FinishKeepRunningEv)
	jr	$t8
.LBB0_4:                                # %cond.false.i
	pcalau12i	$a0, %pc_hi20(.L.str.8)
	addi.d	$a0, $a0, %pc_lo12(.L.str.8)
	pcalau12i	$a1, %pc_hi20(.L.str.9)
	addi.d	$a1, $a1, %pc_lo12(.L.str.9)
	pcalau12i	$a2, %pc_hi20(.L__PRETTY_FUNCTION__._ZN9benchmark5State13StateIteratorppEv)
	addi.d	$a3, $a2, %pc_lo12(.L__PRETTY_FUNCTION__._ZN9benchmark5State13StateIteratorppEv)
	ori	$a2, $zero, 1134
	pcaddu18i	$ra, %call36(__assert_fail)
	jirl	$ra, $ra, 0
.Lfunc_end0:
	.size	_ZL12BM_VerbosityRN9benchmark5StateE, .Lfunc_end0-_ZL12BM_VerbosityRN9benchmark5StateE
	.cfi_endproc
                                        # -- End function
	.hidden	main                            # -- Begin function main
	.globl	main
	.p2align	5
	.type	main,@function
main:                                   # @main
	.cfi_startproc
# %bb.0:                                # %entry
	addi.d	$sp, $sp, -64
	.cfi_def_cfa_offset 64
	st.d	$ra, $sp, 56                    # 8-byte Folded Spill
	st.d	$fp, $sp, 48                    # 8-byte Folded Spill
	st.d	$s0, $sp, 40                    # 8-byte Folded Spill
	st.d	$s1, $sp, 32                    # 8-byte Folded Spill
	st.d	$s2, $sp, 24                    # 8-byte Folded Spill
	st.d	$s3, $sp, 16                    # 8-byte Folded Spill
	.cfi_offset 1, -8
	.cfi_offset 22, -16
	.cfi_offset 23, -24
	.cfi_offset 24, -32
	.cfi_offset 25, -40
	.cfi_offset 26, -48
	ori	$fp, $zero, 1
	st.w	$a0, $sp, 12
	blt	$a0, $fp, .LBB1_4
# %bb.1:                                # %for.body.preheader
	move	$s0, $a1
	move	$s2, $zero
	slli.d	$s3, $a0, 3
	pcalau12i	$a0, %pc_hi20(.L.str.2)
	addi.d	$s1, $a0, %pc_lo12(.L.str.2)
	.p2align	4, , 16
.LBB1_2:                                # %for.body
                                        # =>This Inner Loop Header: Depth=1
	ldx.d	$a1, $s0, $s2
	move	$a0, $s1
	pcaddu18i	$ra, %call36(strcmp)
	jirl	$ra, $ra, 0
	beqz	$a0, .LBB1_7
# %bb.3:                                # %for.cond
                                        #   in Loop: Header=BB1_2 Depth=1
	addi.d	$s2, $s2, 8
	bne	$s3, $s2, .LBB1_2
.LBB1_4:                                # %if.then2.critedge
	pcalau12i	$a0, %got_pc_hi20(_ZSt4cerr)
	ld.d	$s0, $a0, %got_pc_lo12(_ZSt4cerr)
	pcalau12i	$a0, %pc_hi20(.L.str.3)
	addi.d	$a1, $a0, %pc_lo12(.L.str.3)
	ori	$a2, $zero, 59
	move	$a0, $s0
	pcaddu18i	$ra, %call36(_ZSt16__ostream_insertIcSt11char_traitsIcEERSt13basic_ostreamIT_T0_ES6_PKS3_l)
	jirl	$ra, $ra, 0
	pcalau12i	$a0, %pc_hi20(.L.str.4)
	addi.d	$a1, $a0, %pc_lo12(.L.str.4)
	ori	$a2, $zero, 10
	move	$a0, $s0
.LBB1_5:                                # %cleanup16
	pcaddu18i	$ra, %call36(_ZSt16__ostream_insertIcSt11char_traitsIcEERSt13basic_ostreamIT_T0_ES6_PKS3_l)
	jirl	$ra, $ra, 0
.LBB1_6:                                # %cleanup16
	move	$a0, $fp
	ld.d	$s3, $sp, 16                    # 8-byte Folded Reload
	ld.d	$s2, $sp, 24                    # 8-byte Folded Reload
	ld.d	$s1, $sp, 32                    # 8-byte Folded Reload
	ld.d	$s0, $sp, 40                    # 8-byte Folded Reload
	ld.d	$fp, $sp, 48                    # 8-byte Folded Reload
	ld.d	$ra, $sp, 56                    # 8-byte Folded Reload
	addi.d	$sp, $sp, 64
	ret
.LBB1_7:                                # %if.end5
	pcalau12i	$a0, %got_pc_hi20(_ZN9benchmark16PrintDefaultHelpEv)
	ld.d	$a2, $a0, %got_pc_lo12(_ZN9benchmark16PrintDefaultHelpEv)
	addi.d	$a0, $sp, 12
	move	$a1, $s0
	pcaddu18i	$ra, %call36(_ZN9benchmark10InitializeEPiPPcPFvvE)
	jirl	$ra, $ra, 0
	pcaddu18i	$ra, %call36(_ZN9benchmark21GetBenchmarkVerbosityEv)
	jirl	$ra, $ra, 0
	ori	$a1, $zero, 42
	bne	$a0, $a1, .LBB1_9
# %bb.8:
	move	$fp, $zero
	b	.LBB1_6
.LBB1_9:                                # %if.then8
	pcalau12i	$a0, %got_pc_hi20(_ZSt4cerr)
	ld.d	$s0, $a0, %got_pc_lo12(_ZSt4cerr)
	pcalau12i	$a0, %pc_hi20(.L.str.5)
	addi.d	$a1, $a0, %pc_lo12(.L.str.5)
	ori	$a2, $zero, 67
	move	$a0, $s0
	pcaddu18i	$ra, %call36(_ZSt16__ostream_insertIcSt11char_traitsIcEERSt13basic_ostreamIT_T0_ES6_PKS3_l)
	jirl	$ra, $ra, 0
	pcaddu18i	$ra, %call36(_ZN9benchmark21GetBenchmarkVerbosityEv)
	jirl	$ra, $ra, 0
	move	$a1, $a0
	move	$a0, $s0
	pcaddu18i	$ra, %call36(_ZNSolsEi)
	jirl	$ra, $ra, 0
	move	$s0, $a0
	pcalau12i	$a0, %pc_hi20(.L.str.6)
	addi.d	$a1, $a0, %pc_lo12(.L.str.6)
	ori	$a2, $zero, 17
	move	$a0, $s0
	pcaddu18i	$ra, %call36(_ZSt16__ostream_insertIcSt11char_traitsIcEERSt13basic_ostreamIT_T0_ES6_PKS3_l)
	jirl	$ra, $ra, 0
	ori	$a1, $zero, 42
	move	$a0, $s0
	pcaddu18i	$ra, %call36(_ZNSolsEi)
	jirl	$ra, $ra, 0
	pcalau12i	$a1, %pc_hi20(.L.str.7)
	addi.d	$a1, $a1, %pc_lo12(.L.str.7)
	ori	$a2, $zero, 2
	b	.LBB1_5
.Lfunc_end1:
	.size	main, .Lfunc_end1-main
	.cfi_endproc
                                        # -- End function
	.section	.text.startup,"ax",@progbits
	.p2align	5                               # -- Begin function _GLOBAL__sub_I_spec_arg_verbosity_test.cc
	.type	_GLOBAL__sub_I_spec_arg_verbosity_test.cc,@function
_GLOBAL__sub_I_spec_arg_verbosity_test.cc: # @_GLOBAL__sub_I_spec_arg_verbosity_test.cc
.Lfunc_begin0:
	.cfi_startproc
	.cfi_personality 155, DW.ref.__gxx_personality_v0
	.cfi_lsda 27, .Lexception0
# %bb.0:                                # %entry
	addi.d	$sp, $sp, -80
	.cfi_def_cfa_offset 80
	st.d	$ra, $sp, 72                    # 8-byte Folded Spill
	st.d	$fp, $sp, 64                    # 8-byte Folded Spill
	st.d	$s0, $sp, 56                    # 8-byte Folded Spill
	st.d	$s1, $sp, 48                    # 8-byte Folded Spill
	st.d	$s2, $sp, 40                    # 8-byte Folded Spill
	.cfi_offset 1, -8
	.cfi_offset 22, -16
	.cfi_offset 23, -24
	.cfi_offset 24, -32
	.cfi_offset 25, -40
	pcaddu18i	$ra, %call36(_ZN9benchmark8internal17InitializeStreamsEv)
	jirl	$ra, $ra, 0
	ori	$a0, $zero, 232
	pcaddu18i	$ra, %call36(_Znwm)
	jirl	$ra, $ra, 0
	move	$fp, $a0
	pcalau12i	$a0, %pc_hi20(.L.str)
	addi.d	$a0, $a0, %pc_lo12(.L.str)
	ld.d	$a1, $a0, 0
	ld.w	$a0, $a0, 8
	addi.d	$s1, $sp, 24
	st.d	$s1, $sp, 8
	st.d	$a1, $sp, 24
	st.w	$a0, $sp, 32
	ori	$a0, $zero, 12
	st.d	$a0, $sp, 16
	st.b	$zero, $sp, 36
	ori	$s2, $zero, 1
.Ltmp0:                                 # EH_LABEL
	addi.d	$a1, $sp, 8
	move	$a0, $fp
	pcaddu18i	$ra, %call36(_ZN9benchmark8internal9BenchmarkC2ERKNSt7__cxx1112basic_stringIcSt11char_traitsIcESaIcEEE)
	jirl	$ra, $ra, 0
.Ltmp1:                                 # EH_LABEL
# %bb.1:                                # %invoke.cont3.i
	pcalau12i	$a0, %got_pc_hi20(_ZTVN9benchmark8internal17FunctionBenchmarkE)
	ld.d	$a0, $a0, %got_pc_lo12(_ZTVN9benchmark8internal17FunctionBenchmarkE)
	addi.d	$a0, $a0, 16
	st.d	$a0, $fp, 0
	pcalau12i	$a0, %pc_hi20(_ZL12BM_VerbosityRN9benchmark5StateE)
	addi.d	$a0, $a0, %pc_lo12(_ZL12BM_VerbosityRN9benchmark5StateE)
	st.d	$a0, $fp, 224
.Ltmp2:                                 # EH_LABEL
	move	$s2, $zero
	move	$a0, $fp
	pcaddu18i	$ra, %call36(_ZN9benchmark8internal25RegisterBenchmarkInternalEPNS0_9BenchmarkE)
	jirl	$ra, $ra, 0
.Ltmp3:                                 # EH_LABEL
# %bb.2:                                # %invoke.cont4.i
	move	$s0, $a0
	ld.d	$a0, $sp, 8
	beq	$a0, $s1, .LBB2_4
# %bb.3:                                # %if.then.i.i3.i
	ld.d	$a1, $sp, 24
	addi.d	$a1, $a1, 1
	pcaddu18i	$ra, %call36(_ZdlPvm)
	jirl	$ra, $ra, 0
.LBB2_4:                                # %__cxx_global_var_init.1.exit
	pcalau12i	$a0, %pc_hi20(_ZL27benchmark_uniq_2_benchmark_)
	st.d	$s0, $a0, %pc_lo12(_ZL27benchmark_uniq_2_benchmark_)
	ld.d	$s2, $sp, 40                    # 8-byte Folded Reload
	ld.d	$s1, $sp, 48                    # 8-byte Folded Reload
	ld.d	$s0, $sp, 56                    # 8-byte Folded Reload
	ld.d	$fp, $sp, 64                    # 8-byte Folded Reload
	ld.d	$ra, $sp, 72                    # 8-byte Folded Reload
	addi.d	$sp, $sp, 80
	ret
.LBB2_5:                                # %lpad2.i
.Ltmp4:                                 # EH_LABEL
	ld.d	$a2, $sp, 8
	move	$s0, $a0
	bne	$a2, $s1, .LBB2_7
# %bb.6:                                # %_ZNKSt7__cxx1112basic_stringIcSt11char_traitsIcESaIcEE11_M_is_localEv.exit.thread.i.i7.i
	bnez	$s2, .LBB2_8
	b	.LBB2_9
.LBB2_7:                                # %ehcleanup.i
	ld.d	$a0, $sp, 24
	addi.d	$a1, $a0, 1
	move	$a0, $a2
	pcaddu18i	$ra, %call36(_ZdlPvm)
	jirl	$ra, $ra, 0
	beqz	$s2, .LBB2_9
.LBB2_8:                                # %cleanup.action.i
	ori	$a1, $zero, 232
	move	$a0, $fp
	pcaddu18i	$ra, %call36(_ZdlPvm)
	jirl	$ra, $ra, 0
.LBB2_9:                                # %eh.resume.i
	move	$a0, $s0
	pcaddu18i	$ra, %call36(_Unwind_Resume)
	jirl	$ra, $ra, 0
.Lfunc_end2:
	.size	_GLOBAL__sub_I_spec_arg_verbosity_test.cc, .Lfunc_end2-_GLOBAL__sub_I_spec_arg_verbosity_test.cc
	.cfi_endproc
	.section	.gcc_except_table,"a",@progbits
	.p2align	2, 0x0
GCC_except_table2:
.Lexception0:
	.byte	255                             # @LPStart Encoding = omit
	.byte	255                             # @TType Encoding = omit
	.byte	1                               # Call site Encoding = uleb128
	.uleb128 .Lcst_end0-.Lcst_begin0
.Lcst_begin0:
	.uleb128 .Lfunc_begin0-.Lfunc_begin0    # >> Call Site 1 <<
	.uleb128 .Ltmp0-.Lfunc_begin0           #   Call between .Lfunc_begin0 and .Ltmp0
	.byte	0                               #     has no landing pad
	.byte	0                               #   On action: cleanup
	.uleb128 .Ltmp0-.Lfunc_begin0           # >> Call Site 2 <<
	.uleb128 .Ltmp3-.Ltmp0                  #   Call between .Ltmp0 and .Ltmp3
	.uleb128 .Ltmp4-.Lfunc_begin0           #     jumps to .Ltmp4
	.byte	0                               #   On action: cleanup
	.uleb128 .Ltmp3-.Lfunc_begin0           # >> Call Site 3 <<
	.uleb128 .Lfunc_end2-.Ltmp3             #   Call between .Ltmp3 and .Lfunc_end2
	.byte	0                               #     has no landing pad
	.byte	0                               #   On action: cleanup
.Lcst_end0:
	.p2align	2, 0x0
                                        # -- End function
	.type	_ZL27benchmark_uniq_2_benchmark_,@object # @_ZL27benchmark_uniq_2_benchmark_
	.local	_ZL27benchmark_uniq_2_benchmark_
	.comm	_ZL27benchmark_uniq_2_benchmark_,8,8
	.type	.L.str,@object                  # @.str
	.section	.rodata.str1.8,"aMS",@progbits,1
	.p2align	3, 0x0
.L.str:
	.asciz	"BM_Verbosity"
	.size	.L.str, 13

	.type	.L.str.2,@object                # @.str.2
	.section	.rodata.str1.1,"aMS",@progbits,1
.L.str.2:
	.asciz	"--v=42"
	.size	.L.str.2, 7

	.type	.L.str.3,@object                # @.str.3
.L.str.3:
	.asciz	"This test requires '--v=42' to be passed as a command-line "
	.size	.L.str.3, 60

	.type	.L.str.4,@object                # @.str.4
.L.str.4:
	.asciz	"argument.\n"
	.size	.L.str.4, 11

	.type	.L.str.5,@object                # @.str.5
.L.str.5:
	.asciz	"Seeing different value for flags. GetBenchmarkVerbosity() returns ["
	.size	.L.str.5, 68

	.type	.L.str.6,@object                # @.str.6
.L.str.6:
	.asciz	"] expected flag=["
	.size	.L.str.6, 18

	.type	.L.str.7,@object                # @.str.7
.L.str.7:
	.asciz	"]\n"
	.size	.L.str.7, 3

	.type	.L.str.8,@object                # @.str.8
.L.str.8:
	.asciz	"cached_ > 0"
	.size	.L.str.8, 12

	.type	.L.str.9,@object                # @.str.9
.L.str.9:
	.asciz	"/home/zhaoqi/llvm-test-suite/MicroBenchmarks/libs/benchmark/include/benchmark/benchmark.h"
	.size	.L.str.9, 90

	.type	.L__PRETTY_FUNCTION__._ZN9benchmark5State13StateIteratorppEv,@object # @__PRETTY_FUNCTION__._ZN9benchmark5State13StateIteratorppEv
.L__PRETTY_FUNCTION__._ZN9benchmark5State13StateIteratorppEv:
	.asciz	"StateIterator &benchmark::State::StateIterator::operator++()"
	.size	.L__PRETTY_FUNCTION__._ZN9benchmark5State13StateIteratorppEv, 61

	.section	.init_array,"aw",@init_array
	.p2align	3, 0x0
	.dword	_GLOBAL__sub_I_spec_arg_verbosity_test.cc
	.hidden	DW.ref.__gxx_personality_v0
	.weak	DW.ref.__gxx_personality_v0
	.section	.data.DW.ref.__gxx_personality_v0,"awG",@progbits,DW.ref.__gxx_personality_v0,comdat
	.p2align	3, 0x0
	.type	DW.ref.__gxx_personality_v0,@object
	.size	DW.ref.__gxx_personality_v0, 8
DW.ref.__gxx_personality_v0:
	.dword	__gxx_personality_v0
	.section	".note.GNU-stack","",@progbits
	.addrsig
	.addrsig_sym __gxx_personality_v0
	.addrsig_sym _ZL12BM_VerbosityRN9benchmark5StateE
	.addrsig_sym _ZN9benchmark16PrintDefaultHelpEv
	.addrsig_sym _GLOBAL__sub_I_spec_arg_verbosity_test.cc
	.addrsig_sym _Unwind_Resume
	.addrsig_sym _ZSt4cerr
