	.file	"user_counters_thousands_test.cc"
                                        # Start of file scope inline assembly
	.globl	_ZSt21ios_base_library_initv

                                        # End of file scope inline assembly
	.text
	.hidden	_Z21BM_Counters_ThousandsRN9benchmark5StateE # -- Begin function _Z21BM_Counters_ThousandsRN9benchmark5StateE
	.globl	_Z21BM_Counters_ThousandsRN9benchmark5StateE
	.p2align	5
	.type	_Z21BM_Counters_ThousandsRN9benchmark5StateE,@function
_Z21BM_Counters_ThousandsRN9benchmark5StateE: # @_Z21BM_Counters_ThousandsRN9benchmark5StateE
.Lfunc_begin0:
	.cfi_startproc
	.cfi_personality 155, DW.ref.__gxx_personality_v0
	.cfi_lsda 27, .Lexception0
# %bb.0:                                # %entry
	addi.d	$sp, $sp, -352
	.cfi_def_cfa_offset 352
	st.d	$ra, $sp, 344                   # 8-byte Folded Spill
	st.d	$fp, $sp, 336                   # 8-byte Folded Spill
	st.d	$s0, $sp, 328                   # 8-byte Folded Spill
	st.d	$s1, $sp, 320                   # 8-byte Folded Spill
	st.d	$s2, $sp, 312                   # 8-byte Folded Spill
	st.d	$s3, $sp, 304                   # 8-byte Folded Spill
	st.d	$s4, $sp, 296                   # 8-byte Folded Spill
	st.d	$s5, $sp, 288                   # 8-byte Folded Spill
	st.d	$s6, $sp, 280                   # 8-byte Folded Spill
	st.d	$s7, $sp, 272                   # 8-byte Folded Spill
	st.d	$s8, $sp, 264                   # 8-byte Folded Spill
	.cfi_offset 1, -8
	.cfi_offset 22, -16
	.cfi_offset 23, -24
	.cfi_offset 24, -32
	.cfi_offset 25, -40
	.cfi_offset 26, -48
	.cfi_offset 27, -56
	.cfi_offset 28, -64
	.cfi_offset 29, -72
	.cfi_offset 30, -80
	.cfi_offset 31, -88
	move	$s0, $a0
	ld.w	$s1, $a0, 28
	ld.d	$fp, $a0, 16
	pcaddu18i	$ra, %call36(_ZN9benchmark5State16StartKeepRunningEv)
	jirl	$ra, $ra, 0
	bnez	$s1, .LBB0_3
# %bb.1:                                # %entry
	beqz	$fp, .LBB0_3
# %bb.2:                                # %for.body.preheader
	srai.d	$a0, $fp, 63
	andn	$a0, $fp, $a0
	addi.d	$a1, $fp, -1
	bgeu	$a1, $a0, .LBB0_23
.LBB0_3:                                # %for.cond.cleanup
	move	$a0, $s0
	pcaddu18i	$ra, %call36(_ZN9benchmark5State17FinishKeepRunningEv)
	jirl	$ra, $ra, 0
	addi.d	$a0, $sp, 32
	st.d	$a0, $sp, 16
	ori	$a0, $zero, 21
	st.d	$a0, $sp, 256
	addi.d	$a0, $sp, 16
	addi.d	$a1, $sp, 256
	move	$a2, $zero
	pcaddu18i	$ra, %call36(_ZNSt7__cxx1112basic_stringIcSt11char_traitsIcESaIcEE9_M_createERmm)
	jirl	$ra, $ra, 0
	ld.d	$a1, $sp, 256
	pcalau12i	$a2, %pc_hi20(.L.str)
	addi.d	$a2, $a2, %pc_lo12(.L.str)
	ld.d	$a3, $a2, 13
	st.d	$a0, $sp, 16
	st.d	$a1, $sp, 32
	st.d	$a3, $a0, 13
	vld	$vr0, $a2, 0
	vst	$vr0, $a0, 0
	ld.d	$a0, $sp, 16
	st.d	$a1, $sp, 24
	stx.b	$zero, $a0, $a1
	ori	$s1, $zero, 0
	ori	$a0, $zero, 0
	lu32i.d	$a0, -97152
	lu52i.d	$s2, $a0, 1042
	st.d	$s2, $sp, 48
	lu32i.d	$s1, 1000
	st.d	$s1, $sp, 56
	addi.d	$fp, $sp, 64
	addi.d	$a0, $sp, 80
	st.d	$a0, $sp, 64
	ori	$s3, $zero, 18
	st.d	$s3, $sp, 256
.Ltmp0:                                 # EH_LABEL
	addi.d	$a1, $sp, 256
	move	$a0, $fp
	move	$a2, $zero
	pcaddu18i	$ra, %call36(_ZNSt7__cxx1112basic_stringIcSt11char_traitsIcESaIcEE9_M_createERmm)
	jirl	$ra, $ra, 0
.Ltmp1:                                 # EH_LABEL
# %bb.4:                                # %call2.i5.i1.i.noexc37
	ld.d	$a1, $sp, 256
	pcalau12i	$a2, %pc_hi20(.L.str.1)
	addi.d	$a2, $a2, %pc_lo12(.L.str.1)
	vld	$vr0, $a2, 0
	ld.h	$a2, $a2, 16
	st.d	$a0, $sp, 64
	st.d	$a1, $sp, 80
	vst	$vr0, $a0, 0
	st.h	$a2, $a0, 16
	ld.d	$a0, $sp, 64
	st.d	$a1, $sp, 72
	stx.b	$zero, $a0, $a1
	st.d	$s2, $sp, 96
	st.d	$s1, $sp, 104
	addi.d	$s1, $sp, 112
	addi.d	$s7, $sp, 128
	st.d	$s7, $sp, 112
	st.d	$s3, $sp, 256
.Ltmp3:                                 # EH_LABEL
	addi.d	$a1, $sp, 256
	move	$a0, $s1
	move	$a2, $zero
	pcaddu18i	$ra, %call36(_ZNSt7__cxx1112basic_stringIcSt11char_traitsIcESaIcEE9_M_createERmm)
	jirl	$ra, $ra, 0
.Ltmp4:                                 # EH_LABEL
# %bb.5:                                # %call2.i5.i1.i.noexc49
	ld.d	$a1, $sp, 256
	pcalau12i	$a2, %pc_hi20(.L.str.2)
	addi.d	$a2, $a2, %pc_lo12(.L.str.2)
	vld	$vr0, $a2, 0
	ld.h	$a2, $a2, 16
	st.d	$a0, $sp, 112
	st.d	$a1, $sp, 128
	vst	$vr0, $a0, 0
	st.h	$a2, $a0, 16
	ld.d	$a0, $sp, 112
	st.d	$a1, $sp, 120
	stx.b	$zero, $a0, $a1
	ori	$s3, $zero, 0
	ori	$a0, $zero, 0
	lu32i.d	$a0, -97152
	lu52i.d	$a0, $a0, 1042
	st.d	$a0, $sp, 144
	ori	$a0, $zero, 0
	lu32i.d	$a0, 1024
	st.d	$a0, $sp, 152
	addi.d	$s2, $sp, 160
	addi.d	$s8, $sp, 176
	st.d	$s8, $sp, 160
	ori	$s4, $zero, 18
	st.d	$s4, $sp, 256
.Ltmp6:                                 # EH_LABEL
	addi.d	$a1, $sp, 256
	move	$a0, $s2
	move	$a2, $zero
	pcaddu18i	$ra, %call36(_ZNSt7__cxx1112basic_stringIcSt11char_traitsIcESaIcEE9_M_createERmm)
	jirl	$ra, $ra, 0
.Ltmp7:                                 # EH_LABEL
# %bb.6:                                # %call2.i5.i1.i.noexc62
	ld.d	$a1, $sp, 256
	pcalau12i	$a2, %pc_hi20(.L.str.3)
	addi.d	$a2, $a2, %pc_lo12(.L.str.3)
	vld	$vr0, $a2, 0
	ld.h	$a2, $a2, 16
	st.d	$a0, $sp, 160
	st.d	$a1, $sp, 176
	vst	$vr0, $a0, 0
	st.h	$a2, $a0, 16
	ld.d	$a0, $sp, 160
	st.d	$a1, $sp, 168
	stx.b	$zero, $a0, $a1
	lu52i.d	$s6, $zero, 1043
	st.d	$s6, $sp, 192
	lu32i.d	$s3, 1000
	st.d	$s3, $sp, 200
	addi.d	$s3, $sp, 208
	addi.d	$s5, $sp, 224
	st.d	$s5, $sp, 208
	st.d	$s4, $sp, 256
.Ltmp9:                                 # EH_LABEL
	addi.d	$a1, $sp, 256
	move	$a0, $s3
	move	$a2, $zero
	pcaddu18i	$ra, %call36(_ZNSt7__cxx1112basic_stringIcSt11char_traitsIcESaIcEE9_M_createERmm)
	jirl	$ra, $ra, 0
.Ltmp10:                                # EH_LABEL
# %bb.7:                                # %call2.i5.i1.i.noexc75
	ld.d	$a1, $sp, 256
	pcalau12i	$a2, %pc_hi20(.L.str.4)
	addi.d	$a2, $a2, %pc_lo12(.L.str.4)
	vld	$vr0, $a2, 0
	ld.h	$a2, $a2, 16
	st.d	$a0, $sp, 208
	st.d	$a1, $sp, 224
	vst	$vr0, $a0, 0
	st.h	$a2, $a0, 16
	ld.d	$a0, $sp, 208
	addi.d	$s4, $s0, 64
	st.d	$a1, $sp, 216
	stx.b	$zero, $a0, $a1
	st.d	$s6, $sp, 240
	ori	$a0, $zero, 0
	lu32i.d	$a0, 1024
	st.d	$a0, $sp, 248
	st.d	$s4, $sp, 256
	addi.d	$s0, $s0, 72
.Ltmp12:                                # EH_LABEL
	addi.d	$a2, $sp, 16
	addi.d	$a3, $sp, 256
	move	$a0, $s4
	move	$a1, $s0
	pcaddu18i	$ra, %call36(_ZNSt8_Rb_treeINSt7__cxx1112basic_stringIcSt11char_traitsIcESaIcEEESt4pairIKS5_N9benchmark7CounterEESt10_Select1stISA_ESt4lessIS5_ESaISA_EE17_M_insert_unique_IRKSA_NSG_11_Alloc_nodeEEESt17_Rb_tree_iteratorISA_ESt23_Rb_tree_const_iteratorISA_EOT_RT0_)
	jirl	$ra, $ra, 0
.Ltmp13:                                # EH_LABEL
# %bb.8:                                # %call3.i.i.i.noexc
.Ltmp14:                                # EH_LABEL
	addi.d	$a3, $sp, 256
	move	$a0, $s4
	move	$a1, $s0
	move	$a2, $fp
	pcaddu18i	$ra, %call36(_ZNSt8_Rb_treeINSt7__cxx1112basic_stringIcSt11char_traitsIcESaIcEEESt4pairIKS5_N9benchmark7CounterEESt10_Select1stISA_ESt4lessIS5_ESaISA_EE17_M_insert_unique_IRKSA_NSG_11_Alloc_nodeEEESt17_Rb_tree_iteratorISA_ESt23_Rb_tree_const_iteratorISA_EOT_RT0_)
	jirl	$ra, $ra, 0
.Ltmp15:                                # EH_LABEL
# %bb.9:                                # %call3.i.i.i.noexc.1
.Ltmp16:                                # EH_LABEL
	addi.d	$a3, $sp, 256
	move	$a0, $s4
	move	$a1, $s0
	move	$a2, $s1
	pcaddu18i	$ra, %call36(_ZNSt8_Rb_treeINSt7__cxx1112basic_stringIcSt11char_traitsIcESaIcEEESt4pairIKS5_N9benchmark7CounterEESt10_Select1stISA_ESt4lessIS5_ESaISA_EE17_M_insert_unique_IRKSA_NSG_11_Alloc_nodeEEESt17_Rb_tree_iteratorISA_ESt23_Rb_tree_const_iteratorISA_EOT_RT0_)
	jirl	$ra, $ra, 0
.Ltmp17:                                # EH_LABEL
# %bb.10:                               # %call3.i.i.i.noexc.2
.Ltmp18:                                # EH_LABEL
	addi.d	$a3, $sp, 256
	move	$a0, $s4
	move	$a1, $s0
	move	$a2, $s2
	pcaddu18i	$ra, %call36(_ZNSt8_Rb_treeINSt7__cxx1112basic_stringIcSt11char_traitsIcESaIcEEESt4pairIKS5_N9benchmark7CounterEESt10_Select1stISA_ESt4lessIS5_ESaISA_EE17_M_insert_unique_IRKSA_NSG_11_Alloc_nodeEEESt17_Rb_tree_iteratorISA_ESt23_Rb_tree_const_iteratorISA_EOT_RT0_)
	jirl	$ra, $ra, 0
.Ltmp19:                                # EH_LABEL
# %bb.11:                               # %call3.i.i.i.noexc.3
.Ltmp20:                                # EH_LABEL
	addi.d	$a3, $sp, 256
	move	$a0, $s4
	move	$a1, $s0
	move	$a2, $s3
	pcaddu18i	$ra, %call36(_ZNSt8_Rb_treeINSt7__cxx1112basic_stringIcSt11char_traitsIcESaIcEEESt4pairIKS5_N9benchmark7CounterEESt10_Select1stISA_ESt4lessIS5_ESaISA_EE17_M_insert_unique_IRKSA_NSG_11_Alloc_nodeEEESt17_Rb_tree_iteratorISA_ESt23_Rb_tree_const_iteratorISA_EOT_RT0_)
	jirl	$ra, $ra, 0
.Ltmp21:                                # EH_LABEL
# %bb.12:                               # %call3.i.i.i.noexc.4
	ld.d	$a0, $sp, 208
	beq	$a0, $s5, .LBB0_14
# %bb.13:                               # %if.then.i.i.i79
	ld.d	$a1, $sp, 224
	addi.d	$a1, $a1, 1
	pcaddu18i	$ra, %call36(_ZdlPvm)
	jirl	$ra, $ra, 0
.LBB0_14:                               # %_ZNSt4pairIKNSt7__cxx1112basic_stringIcSt11char_traitsIcESaIcEEEN9benchmark7CounterEED2Ev.exit
	ld.d	$a0, $sp, 160
	beq	$a0, $s8, .LBB0_16
# %bb.15:                               # %if.then.i.i.i79.1
	ld.d	$a1, $sp, 176
	addi.d	$a1, $a1, 1
	pcaddu18i	$ra, %call36(_ZdlPvm)
	jirl	$ra, $ra, 0
.LBB0_16:                               # %_ZNSt4pairIKNSt7__cxx1112basic_stringIcSt11char_traitsIcESaIcEEEN9benchmark7CounterEED2Ev.exit.1
	ld.d	$a0, $sp, 112
	addi.d	$fp, $sp, 32
	addi.d	$s0, $sp, 80
	beq	$a0, $s7, .LBB0_18
# %bb.17:                               # %if.then.i.i.i79.2
	ld.d	$a1, $sp, 128
	addi.d	$a1, $a1, 1
	pcaddu18i	$ra, %call36(_ZdlPvm)
	jirl	$ra, $ra, 0
.LBB0_18:                               # %_ZNSt4pairIKNSt7__cxx1112basic_stringIcSt11char_traitsIcESaIcEEEN9benchmark7CounterEED2Ev.exit.2
	ld.d	$a0, $sp, 64
	beq	$a0, $s0, .LBB0_20
# %bb.19:                               # %if.then.i.i.i79.3
	ld.d	$a1, $sp, 80
	addi.d	$a1, $a1, 1
	pcaddu18i	$ra, %call36(_ZdlPvm)
	jirl	$ra, $ra, 0
.LBB0_20:                               # %_ZNSt4pairIKNSt7__cxx1112basic_stringIcSt11char_traitsIcESaIcEEEN9benchmark7CounterEED2Ev.exit.3
	ld.d	$a0, $sp, 16
	beq	$a0, $fp, .LBB0_22
# %bb.21:                               # %if.then.i.i.i79.4
	ld.d	$a1, $sp, 32
	addi.d	$a1, $a1, 1
	pcaddu18i	$ra, %call36(_ZdlPvm)
	jirl	$ra, $ra, 0
.LBB0_22:                               # %_ZNSt4pairIKNSt7__cxx1112basic_stringIcSt11char_traitsIcESaIcEEEN9benchmark7CounterEED2Ev.exit.4
	ld.d	$s8, $sp, 264                   # 8-byte Folded Reload
	ld.d	$s7, $sp, 272                   # 8-byte Folded Reload
	ld.d	$s6, $sp, 280                   # 8-byte Folded Reload
	ld.d	$s5, $sp, 288                   # 8-byte Folded Reload
	ld.d	$s4, $sp, 296                   # 8-byte Folded Reload
	ld.d	$s3, $sp, 304                   # 8-byte Folded Reload
	ld.d	$s2, $sp, 312                   # 8-byte Folded Reload
	ld.d	$s1, $sp, 320                   # 8-byte Folded Reload
	ld.d	$s0, $sp, 328                   # 8-byte Folded Reload
	ld.d	$fp, $sp, 336                   # 8-byte Folded Reload
	ld.d	$ra, $sp, 344                   # 8-byte Folded Reload
	addi.d	$sp, $sp, 352
	ret
.LBB0_23:                               # %cond.false.i
	pcalau12i	$a0, %pc_hi20(.L.str.77)
	addi.d	$a0, $a0, %pc_lo12(.L.str.77)
	pcalau12i	$a1, %pc_hi20(.L.str.78)
	addi.d	$a1, $a1, %pc_lo12(.L.str.78)
	pcalau12i	$a2, %pc_hi20(.L__PRETTY_FUNCTION__._ZN9benchmark5State13StateIteratorppEv)
	addi.d	$a3, $a2, %pc_lo12(.L__PRETTY_FUNCTION__._ZN9benchmark5State13StateIteratorppEv)
	ori	$a2, $zero, 1134
	pcaddu18i	$ra, %call36(__assert_fail)
	jirl	$ra, $ra, 0
.LBB0_24:                               # %lpad23
.Ltmp11:                                # EH_LABEL
	move	$s0, $a0
	move	$fp, $s3
	b	.LBB0_28
.LBB0_25:                               # %lpad18
.Ltmp8:                                 # EH_LABEL
	move	$s0, $a0
	move	$fp, $s2
	b	.LBB0_28
.LBB0_26:                               # %lpad13
.Ltmp5:                                 # EH_LABEL
	move	$s0, $a0
	move	$fp, $s1
	b	.LBB0_28
.LBB0_27:                               # %lpad8
.Ltmp2:                                 # EH_LABEL
	move	$s0, $a0
.LBB0_28:                               # %ehcleanup38
	addi.d	$s1, $sp, 16
	b	.LBB0_30
	.p2align	4, , 16
.LBB0_29:                               # %_ZNSt4pairIKNSt7__cxx1112basic_stringIcSt11char_traitsIcESaIcEEEN9benchmark7CounterEED2Ev.exit93
                                        #   in Loop: Header=BB0_30 Depth=1
	addi.d	$fp, $fp, -48
	beq	$fp, $s1, .LBB0_37
.LBB0_30:                               # %arraydestroy.body40
                                        # =>This Inner Loop Header: Depth=1
	ld.d	$a0, $fp, -48
	addi.d	$a1, $fp, -32
	beq	$a1, $a0, .LBB0_29
# %bb.31:                               # %if.then.i.i.i88
                                        #   in Loop: Header=BB0_30 Depth=1
	ld.d	$a1, $a1, 0
	addi.d	$a1, $a1, 1
	pcaddu18i	$ra, %call36(_ZdlPvm)
	jirl	$ra, $ra, 0
	b	.LBB0_29
.LBB0_32:                               # %lpad26
.Ltmp22:                                # EH_LABEL
	ld.d	$a2, $sp, 208
	move	$s0, $a0
	bne	$a2, $s5, .LBB0_38
# %bb.33:                               # %_ZNSt4pairIKNSt7__cxx1112basic_stringIcSt11char_traitsIcESaIcEEEN9benchmark7CounterEED2Ev.exit86
	ld.d	$a0, $sp, 160
	bne	$a0, $s8, .LBB0_39
.LBB0_34:                               # %_ZNSt4pairIKNSt7__cxx1112basic_stringIcSt11char_traitsIcESaIcEEEN9benchmark7CounterEED2Ev.exit86.1
	ld.d	$a0, $sp, 112
	bne	$a0, $s7, .LBB0_40
.LBB0_35:                               # %_ZNSt4pairIKNSt7__cxx1112basic_stringIcSt11char_traitsIcESaIcEEEN9benchmark7CounterEED2Ev.exit86.2
	ld.d	$a0, $sp, 64
	addi.d	$a1, $sp, 80
	bne	$a0, $a1, .LBB0_41
.LBB0_36:                               # %_ZNSt4pairIKNSt7__cxx1112basic_stringIcSt11char_traitsIcESaIcEEEN9benchmark7CounterEED2Ev.exit86.3
	ld.d	$a0, $sp, 16
	addi.d	$a1, $sp, 32
	bne	$a0, $a1, .LBB0_42
.LBB0_37:                               # %cleanup.done
	move	$a0, $s0
	pcaddu18i	$ra, %call36(_Unwind_Resume)
	jirl	$ra, $ra, 0
.LBB0_38:                               # %if.then.i.i.i81
	ld.d	$a0, $sp, 224
	addi.d	$a1, $a0, 1
	move	$a0, $a2
	pcaddu18i	$ra, %call36(_ZdlPvm)
	jirl	$ra, $ra, 0
	ld.d	$a0, $sp, 160
	beq	$a0, $s8, .LBB0_34
.LBB0_39:                               # %if.then.i.i.i81.1
	ld.d	$a1, $sp, 176
	addi.d	$a1, $a1, 1
	pcaddu18i	$ra, %call36(_ZdlPvm)
	jirl	$ra, $ra, 0
	ld.d	$a0, $sp, 112
	beq	$a0, $s7, .LBB0_35
.LBB0_40:                               # %if.then.i.i.i81.2
	ld.d	$a1, $sp, 128
	addi.d	$a1, $a1, 1
	pcaddu18i	$ra, %call36(_ZdlPvm)
	jirl	$ra, $ra, 0
	ld.d	$a0, $sp, 64
	addi.d	$a1, $sp, 80
	beq	$a0, $a1, .LBB0_36
.LBB0_41:                               # %if.then.i.i.i81.3
	ld.d	$a1, $sp, 80
	addi.d	$a1, $a1, 1
	pcaddu18i	$ra, %call36(_ZdlPvm)
	jirl	$ra, $ra, 0
	ld.d	$a0, $sp, 16
	addi.d	$a1, $sp, 32
	beq	$a0, $a1, .LBB0_37
.LBB0_42:                               # %if.then.i.i.i81.4
	ld.d	$a1, $sp, 32
	addi.d	$a1, $a1, 1
	pcaddu18i	$ra, %call36(_ZdlPvm)
	jirl	$ra, $ra, 0
	move	$a0, $s0
	pcaddu18i	$ra, %call36(_Unwind_Resume)
	jirl	$ra, $ra, 0
.Lfunc_end0:
	.size	_Z21BM_Counters_ThousandsRN9benchmark5StateE, .Lfunc_end0-_Z21BM_Counters_ThousandsRN9benchmark5StateE
	.cfi_endproc
	.section	.gcc_except_table,"a",@progbits
	.p2align	2, 0x0
GCC_except_table0:
.Lexception0:
	.byte	255                             # @LPStart Encoding = omit
	.byte	255                             # @TType Encoding = omit
	.byte	1                               # Call site Encoding = uleb128
	.uleb128 .Lcst_end0-.Lcst_begin0
.Lcst_begin0:
	.uleb128 .Lfunc_begin0-.Lfunc_begin0    # >> Call Site 1 <<
	.uleb128 .Ltmp0-.Lfunc_begin0           #   Call between .Lfunc_begin0 and .Ltmp0
	.byte	0                               #     has no landing pad
	.byte	0                               #   On action: cleanup
	.uleb128 .Ltmp0-.Lfunc_begin0           # >> Call Site 2 <<
	.uleb128 .Ltmp1-.Ltmp0                  #   Call between .Ltmp0 and .Ltmp1
	.uleb128 .Ltmp2-.Lfunc_begin0           #     jumps to .Ltmp2
	.byte	0                               #   On action: cleanup
	.uleb128 .Ltmp3-.Lfunc_begin0           # >> Call Site 3 <<
	.uleb128 .Ltmp4-.Ltmp3                  #   Call between .Ltmp3 and .Ltmp4
	.uleb128 .Ltmp5-.Lfunc_begin0           #     jumps to .Ltmp5
	.byte	0                               #   On action: cleanup
	.uleb128 .Ltmp6-.Lfunc_begin0           # >> Call Site 4 <<
	.uleb128 .Ltmp7-.Ltmp6                  #   Call between .Ltmp6 and .Ltmp7
	.uleb128 .Ltmp8-.Lfunc_begin0           #     jumps to .Ltmp8
	.byte	0                               #   On action: cleanup
	.uleb128 .Ltmp9-.Lfunc_begin0           # >> Call Site 5 <<
	.uleb128 .Ltmp10-.Ltmp9                 #   Call between .Ltmp9 and .Ltmp10
	.uleb128 .Ltmp11-.Lfunc_begin0          #     jumps to .Ltmp11
	.byte	0                               #   On action: cleanup
	.uleb128 .Ltmp12-.Lfunc_begin0          # >> Call Site 6 <<
	.uleb128 .Ltmp21-.Ltmp12                #   Call between .Ltmp12 and .Ltmp21
	.uleb128 .Ltmp22-.Lfunc_begin0          #     jumps to .Ltmp22
	.byte	0                               #   On action: cleanup
	.uleb128 .Ltmp21-.Lfunc_begin0          # >> Call Site 7 <<
	.uleb128 .Lfunc_end0-.Ltmp21            #   Call between .Ltmp21 and .Lfunc_end0
	.byte	0                               #     has no landing pad
	.byte	0                               #   On action: cleanup
.Lcst_end0:
	.p2align	2, 0x0
                                        # -- End function
	.section	.text._ZN8TestCaseD2Ev,"axG",@progbits,_ZN8TestCaseD2Ev,comdat
	.hidden	_ZN8TestCaseD2Ev                # -- Begin function _ZN8TestCaseD2Ev
	.weak	_ZN8TestCaseD2Ev
	.p2align	2
	.type	_ZN8TestCaseD2Ev,@function
_ZN8TestCaseD2Ev:                       # @_ZN8TestCaseD2Ev
	.cfi_startproc
# %bb.0:                                # %entry
	addi.d	$sp, $sp, -32
	.cfi_def_cfa_offset 32
	st.d	$ra, $sp, 24                    # 8-byte Folded Spill
	st.d	$fp, $sp, 16                    # 8-byte Folded Spill
	st.d	$s0, $sp, 8                     # 8-byte Folded Spill
	.cfi_offset 1, -8
	.cfi_offset 22, -16
	.cfi_offset 23, -24
	move	$fp, $a0
	ld.d	$s0, $a0, 80
	beqz	$s0, .LBB1_5
# %bb.1:                                # %if.then.i.i
	ld.d	$a0, $s0, 8
	ori	$a1, $zero, 1
	lu32i.d	$a1, 1
	dbar	20
	bne	$a0, $a1, .LBB1_3
# %bb.2:                                # %if.then.i.i.i
	ld.d	$a0, $s0, 0
	st.d	$zero, $s0, 8
	ld.d	$a1, $a0, 16
	move	$a0, $s0
	jirl	$ra, $a1, 0
	ld.d	$a0, $s0, 0
	ld.d	$a1, $a0, 24
	move	$a0, $s0
	jirl	$ra, $a1, 0
	ld.d	$a0, $fp, 40
	addi.d	$a1, $fp, 56
	bne	$a0, $a1, .LBB1_6
	b	.LBB1_7
.LBB1_3:                                # %if.end.i.i.i
	pcalau12i	$a1, %got_pc_hi20(__libc_single_threaded)
	ld.d	$a1, $a1, %got_pc_lo12(__libc_single_threaded)
	ld.bu	$a1, $a1, 0
	beqz	$a1, .LBB1_10
# %bb.4:                                # %if.then.i.i.i.i
	addi.d	$a1, $a0, -1
	st.w	$a1, $s0, 8
	addi.w	$a0, $a0, 0
	ori	$a1, $zero, 1
	beq	$a0, $a1, .LBB1_11
.LBB1_5:                                # %_ZNSt12__shared_ptrIN9benchmark5RegexELN9__gnu_cxx12_Lock_policyE2EED2Ev.exit
	ld.d	$a0, $fp, 40
	addi.d	$a1, $fp, 56
	beq	$a0, $a1, .LBB1_7
.LBB1_6:                                # %if.then.i.i2
	ld.d	$a1, $a1, 0
	addi.d	$a1, $a1, 1
	pcaddu18i	$ra, %call36(_ZdlPvm)
	jirl	$ra, $ra, 0
.LBB1_7:                                # %_ZNSt7__cxx1112basic_stringIcSt11char_traitsIcESaIcEED2Ev.exit
	ld.d	$a0, $fp, 0
	addi.d	$a1, $fp, 16
	beq	$a0, $a1, .LBB1_9
# %bb.8:                                # %if.then.i.i4
	ld.d	$a1, $a1, 0
	addi.d	$a1, $a1, 1
	ld.d	$s0, $sp, 8                     # 8-byte Folded Reload
	ld.d	$fp, $sp, 16                    # 8-byte Folded Reload
	ld.d	$ra, $sp, 24                    # 8-byte Folded Reload
	addi.d	$sp, $sp, 32
	pcaddu18i	$t8, %call36(_ZdlPvm)
	jr	$t8
.LBB1_9:                                # %_ZNSt7__cxx1112basic_stringIcSt11char_traitsIcESaIcEED2Ev.exit9
	ld.d	$s0, $sp, 8                     # 8-byte Folded Reload
	ld.d	$fp, $sp, 16                    # 8-byte Folded Reload
	ld.d	$ra, $sp, 24                    # 8-byte Folded Reload
	addi.d	$sp, $sp, 32
	ret
.LBB1_10:                               # %if.else.i.i.i.i
	addi.d	$a1, $s0, 8
	addi.w	$a2, $zero, -1
	amadd_db.w	$a0, $a2, $a1
	addi.w	$a0, $a0, 0
	ori	$a1, $zero, 1
	bne	$a0, $a1, .LBB1_5
.LBB1_11:                               # %if.then7.i.i.i
	move	$a0, $s0
	pcaddu18i	$ra, %call36(_ZNSt16_Sp_counted_baseILN9__gnu_cxx12_Lock_policyE2EE24_M_release_last_use_coldEv)
	jirl	$ra, $ra, 0
	ld.d	$a0, $fp, 40
	addi.d	$a1, $fp, 56
	bne	$a0, $a1, .LBB1_6
	b	.LBB1_7
.Lfunc_end1:
	.size	_ZN8TestCaseD2Ev, .Lfunc_end1-_ZN8TestCaseD2Ev
	.cfi_endproc
                                        # -- End function
	.section	.rodata.cst8,"aM",@progbits,8
	.p2align	3, 0x0                          # -- Begin function _Z14CheckThousandsRK7Results
.LCPI2_0:
	.dword	0xc12e848000000000              # double -1.0E+6
.LCPI2_1:
	.dword	0x4059000000000000              # double 100
.LCPI2_2:
	.dword	0x3f847ae147ae147b              # double 0.01
.LCPI2_3:
	.dword	0x412e848000000000              # double 1.0E+6
.LCPI2_4:
	.dword	0xc130000000000000              # double -1048576
.LCPI2_5:
	.dword	0x405a36e2eb1c432d              # double 104.85760000000001
.LCPI2_6:
	.dword	0x3eb0000000000000              # double 9.5367431640625E-7
	.text
	.hidden	_Z14CheckThousandsRK7Results
	.globl	_Z14CheckThousandsRK7Results
	.p2align	5
	.type	_Z14CheckThousandsRK7Results,@function
_Z14CheckThousandsRK7Results:           # @_Z14CheckThousandsRK7Results
.Lfunc_begin1:
	.cfi_startproc
	.cfi_personality 155, DW.ref.__gxx_personality_v0
	.cfi_lsda 27, .Lexception1
# %bb.0:                                # %entry
	addi.d	$sp, $sp, -320
	.cfi_def_cfa_offset 320
	st.d	$ra, $sp, 312                   # 8-byte Folded Spill
	st.d	$fp, $sp, 304                   # 8-byte Folded Spill
	st.d	$s0, $sp, 296                   # 8-byte Folded Spill
	st.d	$s1, $sp, 288                   # 8-byte Folded Spill
	st.d	$s2, $sp, 280                   # 8-byte Folded Spill
	st.d	$s3, $sp, 272                   # 8-byte Folded Spill
	st.d	$s4, $sp, 264                   # 8-byte Folded Spill
	st.d	$s5, $sp, 256                   # 8-byte Folded Spill
	st.d	$s6, $sp, 248                   # 8-byte Folded Spill
	st.d	$s7, $sp, 240                   # 8-byte Folded Spill
	fst.d	$fs0, $sp, 232                  # 8-byte Folded Spill
	fst.d	$fs1, $sp, 224                  # 8-byte Folded Spill
	fst.d	$fs2, $sp, 216                  # 8-byte Folded Spill
	fst.d	$fs3, $sp, 208                  # 8-byte Folded Spill
	.cfi_offset 1, -8
	.cfi_offset 22, -16
	.cfi_offset 23, -24
	.cfi_offset 24, -32
	.cfi_offset 25, -40
	.cfi_offset 26, -48
	.cfi_offset 27, -56
	.cfi_offset 28, -64
	.cfi_offset 29, -72
	.cfi_offset 30, -80
	.cfi_offset 56, -88
	.cfi_offset 57, -96
	.cfi_offset 58, -104
	.cfi_offset 59, -112
	move	$fp, $a0
	ld.d	$a0, $a0, 8
	ori	$a1, $zero, 31
	bne	$a0, $a1, .LBB2_447
# %bb.1:                                # %_ZStneIcSt11char_traitsIcESaIcEEbRKNSt7__cxx1112basic_stringIT_T0_T1_EEPKS5_.exit
	ld.d	$a0, $fp, 0
	pcalau12i	$a1, %pc_hi20(.L.str.55)
	addi.d	$a1, $a1, %pc_lo12(.L.str.55)
	ori	$a2, $zero, 31
	pcaddu18i	$ra, %call36(bcmp)
	jirl	$ra, $ra, 0
	bnez	$a0, .LBB2_447
# %bb.2:                                # %if.end
	addi.d	$s0, $sp, 184
	st.d	$s0, $sp, 168
	ori	$a0, $zero, 21
	st.d	$a0, $sp, 128
.Ltmp23:                                # EH_LABEL
	addi.d	$a0, $sp, 168
	addi.d	$a1, $sp, 128
	move	$a2, $zero
	pcaddu18i	$ra, %call36(_ZNSt7__cxx1112basic_stringIcSt11char_traitsIcESaIcEE9_M_createERmm)
	jirl	$ra, $ra, 0
.Ltmp24:                                # EH_LABEL
# %bb.3:                                # %call2.i5.i.noexc
	ld.d	$a1, $sp, 128
	pcalau12i	$a2, %pc_hi20(.L.str)
	addi.d	$s5, $a2, %pc_lo12(.L.str)
	vld	$vr0, $s5, 0
	ld.d	$s4, $s5, 13
	st.d	$a0, $sp, 168
	st.d	$a1, $sp, 184
	vst	$vr0, $a0, 0
	st.d	$s4, $a0, 13
	ld.d	$a0, $sp, 168
	st.d	$a1, $sp, 176
	stx.b	$zero, $a0, $a1
.Ltmp26:                                # EH_LABEL
	addi.d	$a1, $sp, 168
	move	$a0, $fp
	pcaddu18i	$ra, %call36(_ZNK7Results5GetAsIdEET_RKNSt7__cxx1112basic_stringIcSt11char_traitsIcESaIcEEE)
	jirl	$ra, $ra, 0
.Ltmp27:                                # EH_LABEL
# %bb.4:                                # %invoke.cont3
	pcalau12i	$a0, %pc_hi20(.LCPI2_0)
	fld.d	$fs1, $a0, %pc_lo12(.LCPI2_0)
	pcalau12i	$a0, %pc_hi20(.LCPI2_1)
	fld.d	$fs0, $a0, %pc_lo12(.LCPI2_1)
	fadd.d	$fa0, $fa0, $fs1
	fabs.d	$fs2, $fa0
	fcmp.cule.d	$fcc0, $fs0, $fs2
	movcf2gr	$a0, $fcc0
	st.d	$a0, $sp, 24
	bceqz	$fcc0, .LBB2_7
# %bb.5:                                # %cond.false
.Ltmp29:                                # EH_LABEL
	pcalau12i	$a0, %pc_hi20(.L.str.56)
	addi.d	$a1, $a0, %pc_lo12(.L.str.56)
	pcalau12i	$a0, %pc_hi20(.L.str.57)
	addi.d	$a2, $a0, %pc_lo12(.L.str.57)
	pcalau12i	$a0, %pc_hi20(.L__func__._Z14CheckThousandsRK7Results)
	addi.d	$a3, $a0, %pc_lo12(.L__func__._Z14CheckThousandsRK7Results)
	addi.d	$a0, $sp, 160
	ori	$a4, $zero, 174
	pcaddu18i	$ra, %call36(_ZN9benchmark8internal12CheckHandlerC2EPKcS3_S3_i)
	jirl	$ra, $ra, 0
.Ltmp30:                                # EH_LABEL
# %bb.6:                                # %invoke.cont9
	ld.d	$s6, $sp, 160
	b	.LBB2_8
.LBB2_7:                                # %cond.true
	pcalau12i	$a0, %pc_hi20(_ZGVZN9benchmark8internal18GetNullLogInstanceEvE8null_log)
	ld.b	$a0, $a0, %pc_lo12(_ZGVZN9benchmark8internal18GetNullLogInstanceEvE8null_log)
	dbar	20
	pcalau12i	$a1, %pc_hi20(_ZZN9benchmark8internal18GetNullLogInstanceEvE8null_log)
	addi.d	$s6, $a1, %pc_lo12(_ZZN9benchmark8internal18GetNullLogInstanceEvE8null_log)
	beqz	$a0, .LBB2_458
.LBB2_8:                                # %cond.end
	ld.d	$a0, $s6, 0
	beqz	$a0, .LBB2_40
# %bb.9:                                # %if.then.i
.Ltmp31:                                # EH_LABEL
	pcalau12i	$a1, %pc_hi20(.L.str.58)
	addi.d	$a1, $a1, %pc_lo12(.L.str.58)
	ori	$a2, $zero, 1
	pcaddu18i	$ra, %call36(_ZSt16__ostream_insertIcSt11char_traitsIcEERSt13basic_ostreamIT_T0_ES6_PKS3_l)
	jirl	$ra, $ra, 0
.Ltmp32:                                # EH_LABEL
# %bb.10:                               # %invoke.cont14
	ld.d	$a0, $s6, 0
	beqz	$a0, .LBB2_40
# %bb.11:                               # %if.then.i118
.Ltmp33:                                # EH_LABEL
	pcalau12i	$a1, %pc_hi20(.L.str.57)
	addi.d	$a1, $a1, %pc_lo12(.L.str.57)
	ori	$a2, $zero, 96
	pcaddu18i	$ra, %call36(_ZSt16__ostream_insertIcSt11char_traitsIcEERSt13basic_ostreamIT_T0_ES6_PKS3_l)
	jirl	$ra, $ra, 0
.Ltmp34:                                # EH_LABEL
# %bb.12:                               # %invoke.cont16
	ld.d	$a0, $s6, 0
	beqz	$a0, .LBB2_40
# %bb.13:                               # %if.then.i123
.Ltmp35:                                # EH_LABEL
	pcalau12i	$a1, %pc_hi20(.L.str.59)
	addi.d	$a1, $a1, %pc_lo12(.L.str.59)
	ori	$a2, $zero, 1
	pcaddu18i	$ra, %call36(_ZSt16__ostream_insertIcSt11char_traitsIcEERSt13basic_ostreamIT_T0_ES6_PKS3_l)
	jirl	$ra, $ra, 0
.Ltmp36:                                # EH_LABEL
# %bb.14:                               # %invoke.cont18
	ld.d	$a0, $s6, 0
	beqz	$a0, .LBB2_40
# %bb.15:                               # %if.then.i129
.Ltmp38:                                # EH_LABEL
	ori	$a1, $zero, 174
	pcaddu18i	$ra, %call36(_ZNSolsEi)
	jirl	$ra, $ra, 0
.Ltmp39:                                # EH_LABEL
# %bb.16:                               # %invoke.cont22
	ld.d	$a0, $s6, 0
	beqz	$a0, .LBB2_40
# %bb.17:                               # %if.then.i132
.Ltmp40:                                # EH_LABEL
	pcalau12i	$a1, %pc_hi20(.L.str.60)
	addi.d	$a1, $a1, %pc_lo12(.L.str.60)
	ori	$a2, $zero, 2
	pcaddu18i	$ra, %call36(_ZSt16__ostream_insertIcSt11char_traitsIcEERSt13basic_ostreamIT_T0_ES6_PKS3_l)
	jirl	$ra, $ra, 0
.Ltmp41:                                # EH_LABEL
# %bb.18:                               # %invoke.cont24
	ld.d	$a0, $s6, 0
	beqz	$a0, .LBB2_40
# %bb.19:                               # %if.then.i137
	ld.d	$a1, $fp, 0
	ld.d	$a2, $fp, 8
.Ltmp42:                                # EH_LABEL
	pcaddu18i	$ra, %call36(_ZSt16__ostream_insertIcSt11char_traitsIcEERSt13basic_ostreamIT_T0_ES6_PKS3_l)
	jirl	$ra, $ra, 0
.Ltmp43:                                # EH_LABEL
# %bb.20:                               # %invoke.cont27
	ld.d	$a0, $s6, 0
	beqz	$a0, .LBB2_40
# %bb.21:                               # %if.then.i142
.Ltmp44:                                # EH_LABEL
	pcalau12i	$a1, %pc_hi20(.L.str.61)
	addi.d	$a1, $a1, %pc_lo12(.L.str.61)
	ori	$a2, $zero, 2
	pcaddu18i	$ra, %call36(_ZSt16__ostream_insertIcSt11char_traitsIcEERSt13basic_ostreamIT_T0_ES6_PKS3_l)
	jirl	$ra, $ra, 0
.Ltmp45:                                # EH_LABEL
# %bb.22:                               # %invoke.cont29
	ld.d	$a0, $s6, 0
	beqz	$a0, .LBB2_40
# %bb.23:                               # %if.then.i148
.Ltmp46:                                # EH_LABEL
	pcalau12i	$a1, %pc_hi20(.L.str.57)
	addi.d	$a1, $a1, %pc_lo12(.L.str.57)
	ori	$a2, $zero, 96
	pcaddu18i	$ra, %call36(_ZSt16__ostream_insertIcSt11char_traitsIcEERSt13basic_ostreamIT_T0_ES6_PKS3_l)
	jirl	$ra, $ra, 0
.Ltmp47:                                # EH_LABEL
# %bb.24:                               # %invoke.cont31
	ld.d	$a0, $s6, 0
	beqz	$a0, .LBB2_40
# %bb.25:                               # %if.then.i154
.Ltmp48:                                # EH_LABEL
	pcalau12i	$a1, %pc_hi20(.L.str.59)
	addi.d	$a1, $a1, %pc_lo12(.L.str.59)
	ori	$a2, $zero, 1
	pcaddu18i	$ra, %call36(_ZSt16__ostream_insertIcSt11char_traitsIcEERSt13basic_ostreamIT_T0_ES6_PKS3_l)
	jirl	$ra, $ra, 0
.Ltmp49:                                # EH_LABEL
# %bb.26:                               # %invoke.cont33
	ld.d	$a0, $s6, 0
	beqz	$a0, .LBB2_40
# %bb.27:                               # %if.then.i160
.Ltmp51:                                # EH_LABEL
	ori	$a1, $zero, 174
	pcaddu18i	$ra, %call36(_ZNSolsEi)
	jirl	$ra, $ra, 0
.Ltmp52:                                # EH_LABEL
# %bb.28:                               # %invoke.cont37
	ld.d	$a0, $s6, 0
	beqz	$a0, .LBB2_40
# %bb.29:                               # %if.then.i165
.Ltmp53:                                # EH_LABEL
	pcalau12i	$a1, %pc_hi20(.L.str.60)
	addi.d	$a1, $a1, %pc_lo12(.L.str.60)
	ori	$a2, $zero, 2
	pcaddu18i	$ra, %call36(_ZSt16__ostream_insertIcSt11char_traitsIcEERSt13basic_ostreamIT_T0_ES6_PKS3_l)
	jirl	$ra, $ra, 0
.Ltmp54:                                # EH_LABEL
# %bb.30:                               # %invoke.cont39
	ld.d	$a0, $s6, 0
	beqz	$a0, .LBB2_40
# %bb.31:                               # %if.then.i171
.Ltmp55:                                # EH_LABEL
	pcalau12i	$a1, %pc_hi20(.L.str.62)
	addi.d	$a1, $a1, %pc_lo12(.L.str.62)
	ori	$a2, $zero, 10
	pcaddu18i	$ra, %call36(_ZSt16__ostream_insertIcSt11char_traitsIcEERSt13basic_ostreamIT_T0_ES6_PKS3_l)
	jirl	$ra, $ra, 0
.Ltmp56:                                # EH_LABEL
# %bb.32:                               # %invoke.cont41
	ld.d	$a0, $s6, 0
	beqz	$a0, .LBB2_40
# %bb.33:                               # %if.then.i176
.Ltmp57:                                # EH_LABEL
	pcalau12i	$a1, %pc_hi20(.L.str.63)
	addi.d	$a1, $a1, %pc_lo12(.L.str.63)
	ori	$a2, $zero, 6
	pcaddu18i	$ra, %call36(_ZSt16__ostream_insertIcSt11char_traitsIcEERSt13basic_ostreamIT_T0_ES6_PKS3_l)
	jirl	$ra, $ra, 0
.Ltmp58:                                # EH_LABEL
# %bb.34:                               # %invoke.cont43
	ld.d	$a0, $s6, 0
	beqz	$a0, .LBB2_40
# %bb.35:                               # %if.then.i181
.Ltmp59:                                # EH_LABEL
	pcalau12i	$a1, %pc_hi20(.L.str.64)
	addi.d	$a1, $a1, %pc_lo12(.L.str.64)
	ori	$a2, $zero, 1
	pcaddu18i	$ra, %call36(_ZSt16__ostream_insertIcSt11char_traitsIcEERSt13basic_ostreamIT_T0_ES6_PKS3_l)
	jirl	$ra, $ra, 0
.Ltmp60:                                # EH_LABEL
# %bb.36:                               # %invoke.cont45
	ld.d	$a0, $s6, 0
	beqz	$a0, .LBB2_40
# %bb.37:                               # %if.then.i187
.Ltmp61:                                # EH_LABEL
	pcalau12i	$a1, %pc_hi20(.L.str)
	addi.d	$a1, $a1, %pc_lo12(.L.str)
	ori	$a2, $zero, 21
	pcaddu18i	$ra, %call36(_ZSt16__ostream_insertIcSt11char_traitsIcEERSt13basic_ostreamIT_T0_ES6_PKS3_l)
	jirl	$ra, $ra, 0
.Ltmp62:                                # EH_LABEL
# %bb.38:                               # %invoke.cont47
	ld.d	$a0, $s6, 0
	beqz	$a0, .LBB2_40
# %bb.39:                               # %if.then.i192
.Ltmp63:                                # EH_LABEL
	pcalau12i	$a1, %pc_hi20(.L.str.65)
	addi.d	$a1, $a1, %pc_lo12(.L.str.65)
	ori	$a2, $zero, 1
	pcaddu18i	$ra, %call36(_ZSt16__ostream_insertIcSt11char_traitsIcEERSt13basic_ostreamIT_T0_ES6_PKS3_l)
	jirl	$ra, $ra, 0
.Ltmp64:                                # EH_LABEL
.LBB2_40:                               # %invoke.cont49
	addi.d	$s1, $sp, 144
	st.d	$s1, $sp, 128
	ori	$a0, $zero, 21
	st.d	$a0, $sp, 96
.Ltmp66:                                # EH_LABEL
	addi.d	$a0, $sp, 128
	addi.d	$a1, $sp, 96
	move	$a2, $zero
	pcaddu18i	$ra, %call36(_ZNSt7__cxx1112basic_stringIcSt11char_traitsIcESaIcEE9_M_createERmm)
	jirl	$ra, $ra, 0
.Ltmp67:                                # EH_LABEL
# %bb.41:                               # %call2.i5.i.noexc206
	ld.d	$a1, $sp, 96
	vld	$vr0, $s5, 0
	st.d	$a0, $sp, 128
	st.d	$a1, $sp, 144
	vst	$vr0, $a0, 0
	st.d	$s4, $a0, 13
	ld.d	$a0, $sp, 128
	st.d	$a1, $sp, 136
	stx.b	$zero, $a0, $a1
.Ltmp69:                                # EH_LABEL
	addi.d	$a1, $sp, 128
	move	$a0, $fp
	pcaddu18i	$ra, %call36(_ZNK7Results5GetAsIdEET_RKNSt7__cxx1112basic_stringIcSt11char_traitsIcESaIcEEE)
	jirl	$ra, $ra, 0
.Ltmp70:                                # EH_LABEL
# %bb.42:                               # %invoke.cont57
	ld.d	$a0, $s6, 0
	beqz	$a0, .LBB2_70
# %bb.43:                               # %if.then.i213
.Ltmp71:                                # EH_LABEL
	pcaddu18i	$ra, %call36(_ZNSo9_M_insertIdEERSoT_)
	jirl	$ra, $ra, 0
.Ltmp72:                                # EH_LABEL
# %bb.44:                               # %invoke.cont59
	ld.d	$a0, $s6, 0
	beqz	$a0, .LBB2_70
# %bb.45:                               # %if.then.i217
.Ltmp73:                                # EH_LABEL
	pcalau12i	$a1, %pc_hi20(.L.str.66)
	addi.d	$a1, $a1, %pc_lo12(.L.str.66)
	ori	$a2, $zero, 13
	pcaddu18i	$ra, %call36(_ZSt16__ostream_insertIcSt11char_traitsIcEERSt13basic_ostreamIT_T0_ES6_PKS3_l)
	jirl	$ra, $ra, 0
.Ltmp74:                                # EH_LABEL
# %bb.46:                               # %invoke.cont61
	ld.d	$a0, $s6, 0
	beqz	$a0, .LBB2_70
# %bb.47:                               # %if.then.i222
.Ltmp76:                                # EH_LABEL
	lu12i.w	$a1, 244
	ori	$a1, $a1, 576
	pcaddu18i	$ra, %call36(_ZNSolsEi)
	jirl	$ra, $ra, 0
.Ltmp77:                                # EH_LABEL
# %bb.48:                               # %invoke.cont65
	ld.d	$a0, $s6, 0
	beqz	$a0, .LBB2_70
# %bb.49:                               # %if.then.i227
.Ltmp78:                                # EH_LABEL
	pcalau12i	$a1, %pc_hi20(.L.str.58)
	addi.d	$a1, $a1, %pc_lo12(.L.str.58)
	ori	$a2, $zero, 1
	pcaddu18i	$ra, %call36(_ZSt16__ostream_insertIcSt11char_traitsIcEERSt13basic_ostreamIT_T0_ES6_PKS3_l)
	jirl	$ra, $ra, 0
.Ltmp79:                                # EH_LABEL
# %bb.50:                               # %invoke.cont67
	ld.d	$a0, $s6, 0
	beqz	$a0, .LBB2_70
# %bb.51:                               # %if.then.i233
.Ltmp80:                                # EH_LABEL
	pcalau12i	$a1, %pc_hi20(.L.str.57)
	addi.d	$a1, $a1, %pc_lo12(.L.str.57)
	ori	$a2, $zero, 96
	pcaddu18i	$ra, %call36(_ZSt16__ostream_insertIcSt11char_traitsIcEERSt13basic_ostreamIT_T0_ES6_PKS3_l)
	jirl	$ra, $ra, 0
.Ltmp81:                                # EH_LABEL
# %bb.52:                               # %invoke.cont69
	ld.d	$a0, $s6, 0
	beqz	$a0, .LBB2_70
# %bb.53:                               # %if.then.i239
.Ltmp82:                                # EH_LABEL
	pcalau12i	$a1, %pc_hi20(.L.str.59)
	addi.d	$a1, $a1, %pc_lo12(.L.str.59)
	ori	$a2, $zero, 1
	pcaddu18i	$ra, %call36(_ZSt16__ostream_insertIcSt11char_traitsIcEERSt13basic_ostreamIT_T0_ES6_PKS3_l)
	jirl	$ra, $ra, 0
.Ltmp83:                                # EH_LABEL
# %bb.54:                               # %invoke.cont71
	ld.d	$a0, $s6, 0
	beqz	$a0, .LBB2_70
# %bb.55:                               # %if.then.i245
.Ltmp85:                                # EH_LABEL
	ori	$a1, $zero, 174
	pcaddu18i	$ra, %call36(_ZNSolsEi)
	jirl	$ra, $ra, 0
.Ltmp86:                                # EH_LABEL
# %bb.56:                               # %invoke.cont75
	ld.d	$a0, $s6, 0
	beqz	$a0, .LBB2_70
# %bb.57:                               # %if.then.i250
.Ltmp87:                                # EH_LABEL
	pcalau12i	$a1, %pc_hi20(.L.str.60)
	addi.d	$a1, $a1, %pc_lo12(.L.str.60)
	ori	$a2, $zero, 2
	pcaddu18i	$ra, %call36(_ZSt16__ostream_insertIcSt11char_traitsIcEERSt13basic_ostreamIT_T0_ES6_PKS3_l)
	jirl	$ra, $ra, 0
.Ltmp88:                                # EH_LABEL
# %bb.58:                               # %invoke.cont77
	ld.d	$a0, $s6, 0
	beqz	$a0, .LBB2_70
# %bb.59:                               # %if.then.i256
.Ltmp89:                                # EH_LABEL
	pcalau12i	$a1, %pc_hi20(.L.str.67)
	addi.d	$a1, $a1, %pc_lo12(.L.str.67)
	ori	$a2, $zero, 18
	pcaddu18i	$ra, %call36(_ZSt16__ostream_insertIcSt11char_traitsIcEERSt13basic_ostreamIT_T0_ES6_PKS3_l)
	jirl	$ra, $ra, 0
.Ltmp90:                                # EH_LABEL
# %bb.60:                               # %invoke.cont79
	ld.d	$a0, $s6, 0
	beqz	$a0, .LBB2_70
# %bb.61:                               # %if.then.i261
.Ltmp92:                                # EH_LABEL
	fmov.d	$fa0, $fs0
	pcaddu18i	$ra, %call36(_ZNSo9_M_insertIdEERSoT_)
	jirl	$ra, $ra, 0
.Ltmp93:                                # EH_LABEL
# %bb.62:                               # %invoke.cont83
	ld.d	$a0, $s6, 0
	beqz	$a0, .LBB2_70
# %bb.63:                               # %if.then.i266
.Ltmp94:                                # EH_LABEL
	pcalau12i	$a1, %pc_hi20(.L.str.68)
	addi.d	$a1, $a1, %pc_lo12(.L.str.68)
	ori	$a2, $zero, 2
	pcaddu18i	$ra, %call36(_ZSt16__ostream_insertIcSt11char_traitsIcEERSt13basic_ostreamIT_T0_ES6_PKS3_l)
	jirl	$ra, $ra, 0
.Ltmp95:                                # EH_LABEL
# %bb.64:                               # %invoke.cont85
	ld.d	$a0, $s6, 0
	beqz	$a0, .LBB2_70
# %bb.65:                               # %if.then.i272
.Ltmp97:                                # EH_LABEL
	pcalau12i	$a1, %pc_hi20(.LCPI2_2)
	fld.d	$fa0, $a1, %pc_lo12(.LCPI2_2)
	pcaddu18i	$ra, %call36(_ZNSo9_M_insertIdEERSoT_)
	jirl	$ra, $ra, 0
.Ltmp98:                                # EH_LABEL
# %bb.66:                               # %invoke.cont89
	ld.d	$a0, $s6, 0
	beqz	$a0, .LBB2_70
# %bb.67:                               # %if.then.i277
.Ltmp99:                                # EH_LABEL
	pcalau12i	$a1, %pc_hi20(.L.str.69)
	addi.d	$a1, $a1, %pc_lo12(.L.str.69)
	ori	$a2, $zero, 4
	pcaddu18i	$ra, %call36(_ZSt16__ostream_insertIcSt11char_traitsIcEERSt13basic_ostreamIT_T0_ES6_PKS3_l)
	jirl	$ra, $ra, 0
.Ltmp100:                               # EH_LABEL
# %bb.68:                               # %invoke.cont91
	ld.d	$a0, $s6, 0
	beqz	$a0, .LBB2_70
# %bb.69:                               # %if.then.i282
.Ltmp101:                               # EH_LABEL
	pcalau12i	$a1, %pc_hi20(.L.str.70)
	addi.d	$a1, $a1, %pc_lo12(.L.str.70)
	ori	$a2, $zero, 14
	pcaddu18i	$ra, %call36(_ZSt16__ostream_insertIcSt11char_traitsIcEERSt13basic_ostreamIT_T0_ES6_PKS3_l)
	jirl	$ra, $ra, 0
.Ltmp102:                               # EH_LABEL
.LBB2_70:                               # %invoke.cont93
	addi.d	$s2, $sp, 112
	st.d	$s2, $sp, 96
	ori	$a0, $zero, 21
	st.d	$a0, $sp, 64
.Ltmp104:                               # EH_LABEL
	addi.d	$a0, $sp, 96
	addi.d	$a1, $sp, 64
	move	$a2, $zero
	pcaddu18i	$ra, %call36(_ZNSt7__cxx1112basic_stringIcSt11char_traitsIcESaIcEE9_M_createERmm)
	jirl	$ra, $ra, 0
.Ltmp105:                               # EH_LABEL
# %bb.71:                               # %call2.i5.i.noexc295
	ld.d	$a1, $sp, 64
	vld	$vr0, $s5, 0
	st.d	$a0, $sp, 96
	st.d	$a1, $sp, 112
	vst	$vr0, $a0, 0
	st.d	$s4, $a0, 13
	ld.d	$a0, $sp, 96
	st.d	$a1, $sp, 104
	stx.b	$zero, $a0, $a1
.Ltmp107:                               # EH_LABEL
	addi.d	$a1, $sp, 96
	move	$a0, $fp
	pcaddu18i	$ra, %call36(_ZNK7Results5GetAsIdEET_RKNSt7__cxx1112basic_stringIcSt11char_traitsIcESaIcEEE)
	jirl	$ra, $ra, 0
.Ltmp108:                               # EH_LABEL
# %bb.72:                               # %invoke.cont101
	ld.d	$a0, $s6, 0
	beqz	$a0, .LBB2_76
# %bb.73:                               # %if.then.i302
	fadd.d	$fa0, $fa0, $fs1
.Ltmp109:                               # EH_LABEL
	pcaddu18i	$ra, %call36(_ZNSo9_M_insertIdEERSoT_)
	jirl	$ra, $ra, 0
.Ltmp110:                               # EH_LABEL
# %bb.74:                               # %invoke.cont104
	ld.d	$a0, $s6, 0
	beqz	$a0, .LBB2_76
# %bb.75:                               # %if.then.i307
.Ltmp111:                               # EH_LABEL
	pcalau12i	$a1, %pc_hi20(.L.str.68)
	addi.d	$a1, $a1, %pc_lo12(.L.str.68)
	ori	$a2, $zero, 2
	pcaddu18i	$ra, %call36(_ZSt16__ostream_insertIcSt11char_traitsIcEERSt13basic_ostreamIT_T0_ES6_PKS3_l)
	jirl	$ra, $ra, 0
.Ltmp112:                               # EH_LABEL
.LBB2_76:                               # %invoke.cont106
	addi.d	$s3, $sp, 80
	st.d	$s3, $sp, 64
	ori	$a0, $zero, 21
	st.d	$a0, $sp, 200
.Ltmp114:                               # EH_LABEL
	addi.d	$a0, $sp, 64
	addi.d	$a1, $sp, 200
	move	$a2, $zero
	pcaddu18i	$ra, %call36(_ZNSt7__cxx1112basic_stringIcSt11char_traitsIcESaIcEE9_M_createERmm)
	jirl	$ra, $ra, 0
.Ltmp115:                               # EH_LABEL
# %bb.77:                               # %call2.i5.i.noexc321
	ld.d	$a1, $sp, 200
	vld	$vr0, $s5, 0
	st.d	$a0, $sp, 64
	st.d	$a1, $sp, 80
	vst	$vr0, $a0, 0
	st.d	$s4, $a0, 13
	ld.d	$a0, $sp, 64
	st.d	$a1, $sp, 72
	stx.b	$zero, $a0, $a1
.Ltmp117:                               # EH_LABEL
	addi.d	$a1, $sp, 64
	move	$a0, $fp
	pcaddu18i	$ra, %call36(_ZNK7Results5GetAsIdEET_RKNSt7__cxx1112basic_stringIcSt11char_traitsIcESaIcEEE)
	jirl	$ra, $ra, 0
.Ltmp118:                               # EH_LABEL
# %bb.78:                               # %invoke.cont114
	ld.d	$a0, $s6, 0
	pcalau12i	$s4, %pc_hi20(.LCPI2_3)
	beqz	$a0, .LBB2_82
# %bb.79:                               # %if.then.i328
	fld.d	$fa1, $s4, %pc_lo12(.LCPI2_3)
	fadd.d	$fa0, $fa0, $fs1
	fdiv.d	$fa0, $fa0, $fa1
	fmul.d	$fa0, $fa0, $fs0
.Ltmp119:                               # EH_LABEL
	pcaddu18i	$ra, %call36(_ZNSo9_M_insertIdEERSoT_)
	jirl	$ra, $ra, 0
.Ltmp120:                               # EH_LABEL
# %bb.80:                               # %invoke.cont117
	ld.d	$a0, $s6, 0
	beqz	$a0, .LBB2_82
# %bb.81:                               # %if.then.i333
.Ltmp121:                               # EH_LABEL
	pcalau12i	$a1, %pc_hi20(.L.str.71)
	addi.d	$a1, $a1, %pc_lo12(.L.str.71)
	ori	$a2, $zero, 2
	pcaddu18i	$ra, %call36(_ZSt16__ostream_insertIcSt11char_traitsIcEERSt13basic_ostreamIT_T0_ES6_PKS3_l)
	jirl	$ra, $ra, 0
.Ltmp122:                               # EH_LABEL
.LBB2_82:                               # %invoke.cont119
	ld.d	$a0, $sp, 64
	beq	$a0, $s3, .LBB2_84
# %bb.83:                               # %if.then.i.i339
	ld.d	$a1, $sp, 80
	addi.d	$a1, $a1, 1
	pcaddu18i	$ra, %call36(_ZdlPvm)
	jirl	$ra, $ra, 0
.LBB2_84:                               # %_ZNSt7__cxx1112basic_stringIcSt11char_traitsIcESaIcEED2Ev.exit
	ld.d	$a0, $sp, 96
	beq	$a0, $s2, .LBB2_86
# %bb.85:                               # %if.then.i.i342
	ld.d	$a1, $sp, 112
	addi.d	$a1, $a1, 1
	pcaddu18i	$ra, %call36(_ZdlPvm)
	jirl	$ra, $ra, 0
.LBB2_86:                               # %_ZNSt7__cxx1112basic_stringIcSt11char_traitsIcESaIcEED2Ev.exit347
	ld.d	$a0, $sp, 128
	beq	$a0, $s1, .LBB2_88
# %bb.87:                               # %if.then.i.i349
	ld.d	$a1, $sp, 144
	addi.d	$a1, $a1, 1
	pcaddu18i	$ra, %call36(_ZdlPvm)
	jirl	$ra, $ra, 0
.LBB2_88:                               # %_ZNSt7__cxx1112basic_stringIcSt11char_traitsIcESaIcEED2Ev.exit354
	fcmp.clt.d	$fcc0, $fs2, $fs0
	bceqz	$fcc0, .LBB2_448
# %bb.89:                               # %cleanup.done148
	ld.d	$a0, $sp, 168
	beq	$a0, $s0, .LBB2_91
# %bb.90:                               # %if.then.i.i377
	ld.d	$a1, $sp, 184
	addi.d	$a1, $a1, 1
	pcaddu18i	$ra, %call36(_ZdlPvm)
	jirl	$ra, $ra, 0
.LBB2_91:                               # %_ZNSt7__cxx1112basic_stringIcSt11char_traitsIcESaIcEED2Ev.exit382
	st.d	$s0, $sp, 168
	ori	$a0, $zero, 18
	st.d	$a0, $sp, 128
.Ltmp124:                               # EH_LABEL
	addi.d	$a0, $sp, 168
	addi.d	$a1, $sp, 128
	move	$a2, $zero
	pcaddu18i	$ra, %call36(_ZNSt7__cxx1112basic_stringIcSt11char_traitsIcESaIcEE9_M_createERmm)
	jirl	$ra, $ra, 0
.Ltmp125:                               # EH_LABEL
# %bb.92:                               # %call2.i5.i.noexc392
	ld.d	$a1, $sp, 128
	pcalau12i	$a2, %pc_hi20(.L.str.1)
	addi.d	$s6, $a2, %pc_lo12(.L.str.1)
	vld	$vr0, $s6, 0
	ld.h	$s5, $s6, 16
	st.d	$a0, $sp, 168
	st.d	$a1, $sp, 184
	vst	$vr0, $a0, 0
	st.h	$s5, $a0, 16
	ld.d	$a0, $sp, 168
	st.d	$a1, $sp, 176
	stx.b	$zero, $a0, $a1
.Ltmp127:                               # EH_LABEL
	addi.d	$a1, $sp, 168
	move	$a0, $fp
	pcaddu18i	$ra, %call36(_ZNK7Results5GetAsIdEET_RKNSt7__cxx1112basic_stringIcSt11char_traitsIcESaIcEEE)
	jirl	$ra, $ra, 0
.Ltmp128:                               # EH_LABEL
# %bb.93:                               # %invoke.cont162
	fadd.d	$fa0, $fa0, $fs1
	fabs.d	$fs2, $fa0
	fcmp.cule.d	$fcc0, $fs0, $fs2
	movcf2gr	$a0, $fcc0
	st.d	$a0, $sp, 24
	bceqz	$fcc0, .LBB2_96
# %bb.94:                               # %cond.false169
.Ltmp130:                               # EH_LABEL
	pcalau12i	$a0, %pc_hi20(.L.str.72)
	addi.d	$a1, $a0, %pc_lo12(.L.str.72)
	pcalau12i	$a0, %pc_hi20(.L.str.57)
	addi.d	$a2, $a0, %pc_lo12(.L.str.57)
	pcalau12i	$a0, %pc_hi20(.L__func__._Z14CheckThousandsRK7Results)
	addi.d	$a3, $a0, %pc_lo12(.L__func__._Z14CheckThousandsRK7Results)
	addi.d	$a0, $sp, 56
	ori	$a4, $zero, 175
	pcaddu18i	$ra, %call36(_ZN9benchmark8internal12CheckHandlerC2EPKcS3_S3_i)
	jirl	$ra, $ra, 0
.Ltmp131:                               # EH_LABEL
# %bb.95:                               # %invoke.cont173
	ld.d	$s7, $sp, 56
	b	.LBB2_97
.LBB2_96:                               # %cond.true166
	pcalau12i	$a0, %pc_hi20(_ZGVZN9benchmark8internal18GetNullLogInstanceEvE8null_log)
	ld.b	$a0, $a0, %pc_lo12(_ZGVZN9benchmark8internal18GetNullLogInstanceEvE8null_log)
	dbar	20
	pcalau12i	$a1, %pc_hi20(_ZZN9benchmark8internal18GetNullLogInstanceEvE8null_log)
	addi.d	$s7, $a1, %pc_lo12(_ZZN9benchmark8internal18GetNullLogInstanceEvE8null_log)
	beqz	$a0, .LBB2_460
.LBB2_97:                               # %cond.end178
	ld.d	$a0, $s7, 0
	beqz	$a0, .LBB2_129
# %bb.98:                               # %if.then.i404
.Ltmp132:                               # EH_LABEL
	pcalau12i	$a1, %pc_hi20(.L.str.58)
	addi.d	$a1, $a1, %pc_lo12(.L.str.58)
	ori	$a2, $zero, 1
	pcaddu18i	$ra, %call36(_ZSt16__ostream_insertIcSt11char_traitsIcEERSt13basic_ostreamIT_T0_ES6_PKS3_l)
	jirl	$ra, $ra, 0
.Ltmp133:                               # EH_LABEL
# %bb.99:                               # %invoke.cont180
	ld.d	$a0, $s7, 0
	beqz	$a0, .LBB2_129
# %bb.100:                              # %if.then.i410
.Ltmp134:                               # EH_LABEL
	pcalau12i	$a1, %pc_hi20(.L.str.57)
	addi.d	$a1, $a1, %pc_lo12(.L.str.57)
	ori	$a2, $zero, 96
	pcaddu18i	$ra, %call36(_ZSt16__ostream_insertIcSt11char_traitsIcEERSt13basic_ostreamIT_T0_ES6_PKS3_l)
	jirl	$ra, $ra, 0
.Ltmp135:                               # EH_LABEL
# %bb.101:                              # %invoke.cont182
	ld.d	$a0, $s7, 0
	beqz	$a0, .LBB2_129
# %bb.102:                              # %if.then.i416
.Ltmp136:                               # EH_LABEL
	pcalau12i	$a1, %pc_hi20(.L.str.59)
	addi.d	$a1, $a1, %pc_lo12(.L.str.59)
	ori	$a2, $zero, 1
	pcaddu18i	$ra, %call36(_ZSt16__ostream_insertIcSt11char_traitsIcEERSt13basic_ostreamIT_T0_ES6_PKS3_l)
	jirl	$ra, $ra, 0
.Ltmp137:                               # EH_LABEL
# %bb.103:                              # %invoke.cont184
	ld.d	$a0, $s7, 0
	beqz	$a0, .LBB2_129
# %bb.104:                              # %if.then.i422
.Ltmp139:                               # EH_LABEL
	ori	$a1, $zero, 175
	pcaddu18i	$ra, %call36(_ZNSolsEi)
	jirl	$ra, $ra, 0
.Ltmp140:                               # EH_LABEL
# %bb.105:                              # %invoke.cont188
	ld.d	$a0, $s7, 0
	beqz	$a0, .LBB2_129
# %bb.106:                              # %if.then.i427
.Ltmp141:                               # EH_LABEL
	pcalau12i	$a1, %pc_hi20(.L.str.60)
	addi.d	$a1, $a1, %pc_lo12(.L.str.60)
	ori	$a2, $zero, 2
	pcaddu18i	$ra, %call36(_ZSt16__ostream_insertIcSt11char_traitsIcEERSt13basic_ostreamIT_T0_ES6_PKS3_l)
	jirl	$ra, $ra, 0
.Ltmp142:                               # EH_LABEL
# %bb.107:                              # %invoke.cont190
	ld.d	$a0, $s7, 0
	beqz	$a0, .LBB2_129
# %bb.108:                              # %if.then.i433
	ld.d	$a1, $fp, 0
	ld.d	$a2, $fp, 8
.Ltmp143:                               # EH_LABEL
	pcaddu18i	$ra, %call36(_ZSt16__ostream_insertIcSt11char_traitsIcEERSt13basic_ostreamIT_T0_ES6_PKS3_l)
	jirl	$ra, $ra, 0
.Ltmp144:                               # EH_LABEL
# %bb.109:                              # %invoke.cont193
	ld.d	$a0, $s7, 0
	beqz	$a0, .LBB2_129
# %bb.110:                              # %if.then.i440
.Ltmp145:                               # EH_LABEL
	pcalau12i	$a1, %pc_hi20(.L.str.61)
	addi.d	$a1, $a1, %pc_lo12(.L.str.61)
	ori	$a2, $zero, 2
	pcaddu18i	$ra, %call36(_ZSt16__ostream_insertIcSt11char_traitsIcEERSt13basic_ostreamIT_T0_ES6_PKS3_l)
	jirl	$ra, $ra, 0
.Ltmp146:                               # EH_LABEL
# %bb.111:                              # %invoke.cont195
	ld.d	$a0, $s7, 0
	beqz	$a0, .LBB2_129
# %bb.112:                              # %if.then.i446
.Ltmp147:                               # EH_LABEL
	pcalau12i	$a1, %pc_hi20(.L.str.57)
	addi.d	$a1, $a1, %pc_lo12(.L.str.57)
	ori	$a2, $zero, 96
	pcaddu18i	$ra, %call36(_ZSt16__ostream_insertIcSt11char_traitsIcEERSt13basic_ostreamIT_T0_ES6_PKS3_l)
	jirl	$ra, $ra, 0
.Ltmp148:                               # EH_LABEL
# %bb.113:                              # %invoke.cont197
	ld.d	$a0, $s7, 0
	beqz	$a0, .LBB2_129
# %bb.114:                              # %if.then.i452
.Ltmp149:                               # EH_LABEL
	pcalau12i	$a1, %pc_hi20(.L.str.59)
	addi.d	$a1, $a1, %pc_lo12(.L.str.59)
	ori	$a2, $zero, 1
	pcaddu18i	$ra, %call36(_ZSt16__ostream_insertIcSt11char_traitsIcEERSt13basic_ostreamIT_T0_ES6_PKS3_l)
	jirl	$ra, $ra, 0
.Ltmp150:                               # EH_LABEL
# %bb.115:                              # %invoke.cont199
	ld.d	$a0, $s7, 0
	beqz	$a0, .LBB2_129
# %bb.116:                              # %if.then.i458
.Ltmp152:                               # EH_LABEL
	ori	$a1, $zero, 175
	pcaddu18i	$ra, %call36(_ZNSolsEi)
	jirl	$ra, $ra, 0
.Ltmp153:                               # EH_LABEL
# %bb.117:                              # %invoke.cont203
	ld.d	$a0, $s7, 0
	beqz	$a0, .LBB2_129
# %bb.118:                              # %if.then.i463
.Ltmp154:                               # EH_LABEL
	pcalau12i	$a1, %pc_hi20(.L.str.60)
	addi.d	$a1, $a1, %pc_lo12(.L.str.60)
	ori	$a2, $zero, 2
	pcaddu18i	$ra, %call36(_ZSt16__ostream_insertIcSt11char_traitsIcEERSt13basic_ostreamIT_T0_ES6_PKS3_l)
	jirl	$ra, $ra, 0
.Ltmp155:                               # EH_LABEL
# %bb.119:                              # %invoke.cont205
	ld.d	$a0, $s7, 0
	beqz	$a0, .LBB2_129
# %bb.120:                              # %if.then.i469
.Ltmp156:                               # EH_LABEL
	pcalau12i	$a1, %pc_hi20(.L.str.62)
	addi.d	$a1, $a1, %pc_lo12(.L.str.62)
	ori	$a2, $zero, 10
	pcaddu18i	$ra, %call36(_ZSt16__ostream_insertIcSt11char_traitsIcEERSt13basic_ostreamIT_T0_ES6_PKS3_l)
	jirl	$ra, $ra, 0
.Ltmp157:                               # EH_LABEL
# %bb.121:                              # %invoke.cont207
	ld.d	$a0, $s7, 0
	beqz	$a0, .LBB2_129
# %bb.122:                              # %if.then.i475
.Ltmp158:                               # EH_LABEL
	pcalau12i	$a1, %pc_hi20(.L.str.63)
	addi.d	$a1, $a1, %pc_lo12(.L.str.63)
	ori	$a2, $zero, 6
	pcaddu18i	$ra, %call36(_ZSt16__ostream_insertIcSt11char_traitsIcEERSt13basic_ostreamIT_T0_ES6_PKS3_l)
	jirl	$ra, $ra, 0
.Ltmp159:                               # EH_LABEL
# %bb.123:                              # %invoke.cont209
	ld.d	$a0, $s7, 0
	beqz	$a0, .LBB2_129
# %bb.124:                              # %if.then.i481
.Ltmp160:                               # EH_LABEL
	pcalau12i	$a1, %pc_hi20(.L.str.64)
	addi.d	$a1, $a1, %pc_lo12(.L.str.64)
	ori	$a2, $zero, 1
	pcaddu18i	$ra, %call36(_ZSt16__ostream_insertIcSt11char_traitsIcEERSt13basic_ostreamIT_T0_ES6_PKS3_l)
	jirl	$ra, $ra, 0
.Ltmp161:                               # EH_LABEL
# %bb.125:                              # %invoke.cont211
	ld.d	$a0, $s7, 0
	beqz	$a0, .LBB2_129
# %bb.126:                              # %if.then.i487
.Ltmp162:                               # EH_LABEL
	pcalau12i	$a1, %pc_hi20(.L.str.1)
	addi.d	$a1, $a1, %pc_lo12(.L.str.1)
	ori	$a2, $zero, 18
	pcaddu18i	$ra, %call36(_ZSt16__ostream_insertIcSt11char_traitsIcEERSt13basic_ostreamIT_T0_ES6_PKS3_l)
	jirl	$ra, $ra, 0
.Ltmp163:                               # EH_LABEL
# %bb.127:                              # %invoke.cont213
	ld.d	$a0, $s7, 0
	beqz	$a0, .LBB2_129
# %bb.128:                              # %if.then.i493
.Ltmp164:                               # EH_LABEL
	pcalau12i	$a1, %pc_hi20(.L.str.65)
	addi.d	$a1, $a1, %pc_lo12(.L.str.65)
	ori	$a2, $zero, 1
	pcaddu18i	$ra, %call36(_ZSt16__ostream_insertIcSt11char_traitsIcEERSt13basic_ostreamIT_T0_ES6_PKS3_l)
	jirl	$ra, $ra, 0
.Ltmp165:                               # EH_LABEL
.LBB2_129:                              # %invoke.cont215
	st.d	$s1, $sp, 128
	ori	$a0, $zero, 18
	st.d	$a0, $sp, 96
.Ltmp167:                               # EH_LABEL
	addi.d	$a0, $sp, 128
	addi.d	$a1, $sp, 96
	move	$a2, $zero
	pcaddu18i	$ra, %call36(_ZNSt7__cxx1112basic_stringIcSt11char_traitsIcESaIcEE9_M_createERmm)
	jirl	$ra, $ra, 0
.Ltmp168:                               # EH_LABEL
# %bb.130:                              # %call2.i5.i.noexc507
	ld.d	$a1, $sp, 96
	vld	$vr0, $s6, 0
	st.d	$a0, $sp, 128
	st.d	$a1, $sp, 144
	vst	$vr0, $a0, 0
	st.h	$s5, $a0, 16
	ld.d	$a0, $sp, 128
	st.d	$a1, $sp, 136
	stx.b	$zero, $a0, $a1
.Ltmp170:                               # EH_LABEL
	addi.d	$a1, $sp, 128
	move	$a0, $fp
	pcaddu18i	$ra, %call36(_ZNK7Results5GetAsIdEET_RKNSt7__cxx1112basic_stringIcSt11char_traitsIcESaIcEEE)
	jirl	$ra, $ra, 0
.Ltmp171:                               # EH_LABEL
# %bb.131:                              # %invoke.cont223
	ld.d	$a0, $s7, 0
	beqz	$a0, .LBB2_159
# %bb.132:                              # %if.then.i514
.Ltmp172:                               # EH_LABEL
	pcaddu18i	$ra, %call36(_ZNSo9_M_insertIdEERSoT_)
	jirl	$ra, $ra, 0
.Ltmp173:                               # EH_LABEL
# %bb.133:                              # %invoke.cont225
	ld.d	$a0, $s7, 0
	beqz	$a0, .LBB2_159
# %bb.134:                              # %if.then.i519
.Ltmp174:                               # EH_LABEL
	pcalau12i	$a1, %pc_hi20(.L.str.66)
	addi.d	$a1, $a1, %pc_lo12(.L.str.66)
	ori	$a2, $zero, 13
	pcaddu18i	$ra, %call36(_ZSt16__ostream_insertIcSt11char_traitsIcEERSt13basic_ostreamIT_T0_ES6_PKS3_l)
	jirl	$ra, $ra, 0
.Ltmp175:                               # EH_LABEL
# %bb.135:                              # %invoke.cont227
	ld.d	$a0, $s7, 0
	beqz	$a0, .LBB2_159
# %bb.136:                              # %if.then.i525
.Ltmp177:                               # EH_LABEL
	lu12i.w	$a1, 244
	ori	$a1, $a1, 576
	pcaddu18i	$ra, %call36(_ZNSolsEi)
	jirl	$ra, $ra, 0
.Ltmp178:                               # EH_LABEL
# %bb.137:                              # %invoke.cont231
	ld.d	$a0, $s7, 0
	beqz	$a0, .LBB2_159
# %bb.138:                              # %if.then.i530
.Ltmp179:                               # EH_LABEL
	pcalau12i	$a1, %pc_hi20(.L.str.58)
	addi.d	$a1, $a1, %pc_lo12(.L.str.58)
	ori	$a2, $zero, 1
	pcaddu18i	$ra, %call36(_ZSt16__ostream_insertIcSt11char_traitsIcEERSt13basic_ostreamIT_T0_ES6_PKS3_l)
	jirl	$ra, $ra, 0
.Ltmp180:                               # EH_LABEL
# %bb.139:                              # %invoke.cont233
	ld.d	$a0, $s7, 0
	beqz	$a0, .LBB2_159
# %bb.140:                              # %if.then.i536
.Ltmp181:                               # EH_LABEL
	pcalau12i	$a1, %pc_hi20(.L.str.57)
	addi.d	$a1, $a1, %pc_lo12(.L.str.57)
	ori	$a2, $zero, 96
	pcaddu18i	$ra, %call36(_ZSt16__ostream_insertIcSt11char_traitsIcEERSt13basic_ostreamIT_T0_ES6_PKS3_l)
	jirl	$ra, $ra, 0
.Ltmp182:                               # EH_LABEL
# %bb.141:                              # %invoke.cont235
	ld.d	$a0, $s7, 0
	beqz	$a0, .LBB2_159
# %bb.142:                              # %if.then.i542
.Ltmp183:                               # EH_LABEL
	pcalau12i	$a1, %pc_hi20(.L.str.59)
	addi.d	$a1, $a1, %pc_lo12(.L.str.59)
	ori	$a2, $zero, 1
	pcaddu18i	$ra, %call36(_ZSt16__ostream_insertIcSt11char_traitsIcEERSt13basic_ostreamIT_T0_ES6_PKS3_l)
	jirl	$ra, $ra, 0
.Ltmp184:                               # EH_LABEL
# %bb.143:                              # %invoke.cont237
	ld.d	$a0, $s7, 0
	beqz	$a0, .LBB2_159
# %bb.144:                              # %if.then.i548
.Ltmp186:                               # EH_LABEL
	ori	$a1, $zero, 175
	pcaddu18i	$ra, %call36(_ZNSolsEi)
	jirl	$ra, $ra, 0
.Ltmp187:                               # EH_LABEL
# %bb.145:                              # %invoke.cont241
	ld.d	$a0, $s7, 0
	beqz	$a0, .LBB2_159
# %bb.146:                              # %if.then.i553
.Ltmp188:                               # EH_LABEL
	pcalau12i	$a1, %pc_hi20(.L.str.60)
	addi.d	$a1, $a1, %pc_lo12(.L.str.60)
	ori	$a2, $zero, 2
	pcaddu18i	$ra, %call36(_ZSt16__ostream_insertIcSt11char_traitsIcEERSt13basic_ostreamIT_T0_ES6_PKS3_l)
	jirl	$ra, $ra, 0
.Ltmp189:                               # EH_LABEL
# %bb.147:                              # %invoke.cont243
	ld.d	$a0, $s7, 0
	beqz	$a0, .LBB2_159
# %bb.148:                              # %if.then.i559
.Ltmp190:                               # EH_LABEL
	pcalau12i	$a1, %pc_hi20(.L.str.67)
	addi.d	$a1, $a1, %pc_lo12(.L.str.67)
	ori	$a2, $zero, 18
	pcaddu18i	$ra, %call36(_ZSt16__ostream_insertIcSt11char_traitsIcEERSt13basic_ostreamIT_T0_ES6_PKS3_l)
	jirl	$ra, $ra, 0
.Ltmp191:                               # EH_LABEL
# %bb.149:                              # %invoke.cont245
	ld.d	$a0, $s7, 0
	beqz	$a0, .LBB2_159
# %bb.150:                              # %if.then.i565
.Ltmp193:                               # EH_LABEL
	fmov.d	$fa0, $fs0
	pcaddu18i	$ra, %call36(_ZNSo9_M_insertIdEERSoT_)
	jirl	$ra, $ra, 0
.Ltmp194:                               # EH_LABEL
# %bb.151:                              # %invoke.cont249
	ld.d	$a0, $s7, 0
	beqz	$a0, .LBB2_159
# %bb.152:                              # %if.then.i570
.Ltmp195:                               # EH_LABEL
	pcalau12i	$a1, %pc_hi20(.L.str.68)
	addi.d	$a1, $a1, %pc_lo12(.L.str.68)
	ori	$a2, $zero, 2
	pcaddu18i	$ra, %call36(_ZSt16__ostream_insertIcSt11char_traitsIcEERSt13basic_ostreamIT_T0_ES6_PKS3_l)
	jirl	$ra, $ra, 0
.Ltmp196:                               # EH_LABEL
# %bb.153:                              # %invoke.cont251
	ld.d	$a0, $s7, 0
	beqz	$a0, .LBB2_159
# %bb.154:                              # %if.then.i576
.Ltmp198:                               # EH_LABEL
	pcalau12i	$a1, %pc_hi20(.LCPI2_2)
	fld.d	$fa0, $a1, %pc_lo12(.LCPI2_2)
	pcaddu18i	$ra, %call36(_ZNSo9_M_insertIdEERSoT_)
	jirl	$ra, $ra, 0
.Ltmp199:                               # EH_LABEL
# %bb.155:                              # %invoke.cont255
	ld.d	$a0, $s7, 0
	beqz	$a0, .LBB2_159
# %bb.156:                              # %if.then.i581
.Ltmp200:                               # EH_LABEL
	pcalau12i	$a1, %pc_hi20(.L.str.69)
	addi.d	$a1, $a1, %pc_lo12(.L.str.69)
	ori	$a2, $zero, 4
	pcaddu18i	$ra, %call36(_ZSt16__ostream_insertIcSt11char_traitsIcEERSt13basic_ostreamIT_T0_ES6_PKS3_l)
	jirl	$ra, $ra, 0
.Ltmp201:                               # EH_LABEL
# %bb.157:                              # %invoke.cont257
	ld.d	$a0, $s7, 0
	beqz	$a0, .LBB2_159
# %bb.158:                              # %if.then.i587
.Ltmp202:                               # EH_LABEL
	pcalau12i	$a1, %pc_hi20(.L.str.70)
	addi.d	$a1, $a1, %pc_lo12(.L.str.70)
	ori	$a2, $zero, 14
	pcaddu18i	$ra, %call36(_ZSt16__ostream_insertIcSt11char_traitsIcEERSt13basic_ostreamIT_T0_ES6_PKS3_l)
	jirl	$ra, $ra, 0
.Ltmp203:                               # EH_LABEL
.LBB2_159:                              # %invoke.cont259
	st.d	$s2, $sp, 96
	ori	$a0, $zero, 18
	st.d	$a0, $sp, 64
.Ltmp205:                               # EH_LABEL
	addi.d	$a0, $sp, 96
	addi.d	$a1, $sp, 64
	move	$a2, $zero
	pcaddu18i	$ra, %call36(_ZNSt7__cxx1112basic_stringIcSt11char_traitsIcESaIcEE9_M_createERmm)
	jirl	$ra, $ra, 0
.Ltmp206:                               # EH_LABEL
# %bb.160:                              # %call2.i5.i.noexc601
	ld.d	$a1, $sp, 64
	vld	$vr0, $s6, 0
	st.d	$a0, $sp, 96
	st.d	$a1, $sp, 112
	vst	$vr0, $a0, 0
	st.h	$s5, $a0, 16
	ld.d	$a0, $sp, 96
	st.d	$a1, $sp, 104
	stx.b	$zero, $a0, $a1
.Ltmp208:                               # EH_LABEL
	addi.d	$a1, $sp, 96
	move	$a0, $fp
	pcaddu18i	$ra, %call36(_ZNK7Results5GetAsIdEET_RKNSt7__cxx1112basic_stringIcSt11char_traitsIcESaIcEEE)
	jirl	$ra, $ra, 0
.Ltmp209:                               # EH_LABEL
# %bb.161:                              # %invoke.cont267
	ld.d	$a0, $s7, 0
	beqz	$a0, .LBB2_165
# %bb.162:                              # %if.then.i608
	fadd.d	$fa0, $fa0, $fs1
.Ltmp210:                               # EH_LABEL
	pcaddu18i	$ra, %call36(_ZNSo9_M_insertIdEERSoT_)
	jirl	$ra, $ra, 0
.Ltmp211:                               # EH_LABEL
# %bb.163:                              # %invoke.cont270
	ld.d	$a0, $s7, 0
	beqz	$a0, .LBB2_165
# %bb.164:                              # %if.then.i613
.Ltmp212:                               # EH_LABEL
	pcalau12i	$a1, %pc_hi20(.L.str.68)
	addi.d	$a1, $a1, %pc_lo12(.L.str.68)
	ori	$a2, $zero, 2
	pcaddu18i	$ra, %call36(_ZSt16__ostream_insertIcSt11char_traitsIcEERSt13basic_ostreamIT_T0_ES6_PKS3_l)
	jirl	$ra, $ra, 0
.Ltmp213:                               # EH_LABEL
.LBB2_165:                              # %invoke.cont272
	st.d	$s3, $sp, 64
	ori	$a0, $zero, 18
	st.d	$a0, $sp, 200
.Ltmp215:                               # EH_LABEL
	addi.d	$a0, $sp, 64
	addi.d	$a1, $sp, 200
	move	$a2, $zero
	pcaddu18i	$ra, %call36(_ZNSt7__cxx1112basic_stringIcSt11char_traitsIcESaIcEE9_M_createERmm)
	jirl	$ra, $ra, 0
.Ltmp216:                               # EH_LABEL
# %bb.166:                              # %call2.i5.i.noexc627
	ld.d	$a1, $sp, 200
	vld	$vr0, $s6, 0
	st.d	$a0, $sp, 64
	st.d	$a1, $sp, 80
	vst	$vr0, $a0, 0
	st.h	$s5, $a0, 16
	ld.d	$a0, $sp, 64
	st.d	$a1, $sp, 72
	stx.b	$zero, $a0, $a1
.Ltmp218:                               # EH_LABEL
	addi.d	$a1, $sp, 64
	move	$a0, $fp
	pcaddu18i	$ra, %call36(_ZNK7Results5GetAsIdEET_RKNSt7__cxx1112basic_stringIcSt11char_traitsIcESaIcEEE)
	jirl	$ra, $ra, 0
.Ltmp219:                               # EH_LABEL
# %bb.167:                              # %invoke.cont280
	ld.d	$a0, $s7, 0
	beqz	$a0, .LBB2_171
# %bb.168:                              # %if.then.i634
	fld.d	$fa1, $s4, %pc_lo12(.LCPI2_3)
	fadd.d	$fa0, $fa0, $fs1
	fdiv.d	$fa0, $fa0, $fa1
	fmul.d	$fa0, $fa0, $fs0
.Ltmp220:                               # EH_LABEL
	pcaddu18i	$ra, %call36(_ZNSo9_M_insertIdEERSoT_)
	jirl	$ra, $ra, 0
.Ltmp221:                               # EH_LABEL
# %bb.169:                              # %invoke.cont285
	ld.d	$a0, $s7, 0
	beqz	$a0, .LBB2_171
# %bb.170:                              # %if.then.i639
.Ltmp222:                               # EH_LABEL
	pcalau12i	$a1, %pc_hi20(.L.str.71)
	addi.d	$a1, $a1, %pc_lo12(.L.str.71)
	ori	$a2, $zero, 2
	pcaddu18i	$ra, %call36(_ZSt16__ostream_insertIcSt11char_traitsIcEERSt13basic_ostreamIT_T0_ES6_PKS3_l)
	jirl	$ra, $ra, 0
.Ltmp223:                               # EH_LABEL
.LBB2_171:                              # %invoke.cont287
	ld.d	$a0, $sp, 64
	beq	$a0, $s3, .LBB2_173
# %bb.172:                              # %if.then.i.i645
	ld.d	$a1, $sp, 80
	addi.d	$a1, $a1, 1
	pcaddu18i	$ra, %call36(_ZdlPvm)
	jirl	$ra, $ra, 0
.LBB2_173:                              # %_ZNSt7__cxx1112basic_stringIcSt11char_traitsIcESaIcEED2Ev.exit650
	ld.d	$a0, $sp, 96
	beq	$a0, $s2, .LBB2_175
# %bb.174:                              # %if.then.i.i652
	ld.d	$a1, $sp, 112
	addi.d	$a1, $a1, 1
	pcaddu18i	$ra, %call36(_ZdlPvm)
	jirl	$ra, $ra, 0
.LBB2_175:                              # %_ZNSt7__cxx1112basic_stringIcSt11char_traitsIcESaIcEED2Ev.exit657
	ld.d	$a0, $sp, 128
	beq	$a0, $s1, .LBB2_177
# %bb.176:                              # %if.then.i.i659
	ld.d	$a1, $sp, 144
	addi.d	$a1, $a1, 1
	pcaddu18i	$ra, %call36(_ZdlPvm)
	jirl	$ra, $ra, 0
.LBB2_177:                              # %_ZNSt7__cxx1112basic_stringIcSt11char_traitsIcESaIcEED2Ev.exit664
	fcmp.clt.d	$fcc0, $fs2, $fs0
	bceqz	$fcc0, .LBB2_450
# %bb.178:                              # %cleanup.done321
	ld.d	$a0, $sp, 168
	beq	$a0, $s0, .LBB2_180
# %bb.179:                              # %if.then.i.i694
	ld.d	$a1, $sp, 184
	addi.d	$a1, $a1, 1
	pcaddu18i	$ra, %call36(_ZdlPvm)
	jirl	$ra, $ra, 0
.LBB2_180:                              # %_ZNSt7__cxx1112basic_stringIcSt11char_traitsIcESaIcEED2Ev.exit699
	st.d	$s0, $sp, 168
	ori	$a0, $zero, 18
	st.d	$a0, $sp, 128
.Ltmp225:                               # EH_LABEL
	addi.d	$a0, $sp, 168
	addi.d	$a1, $sp, 128
	move	$a2, $zero
	pcaddu18i	$ra, %call36(_ZNSt7__cxx1112basic_stringIcSt11char_traitsIcESaIcEE9_M_createERmm)
	jirl	$ra, $ra, 0
.Ltmp226:                               # EH_LABEL
# %bb.181:                              # %call2.i5.i.noexc709
	ld.d	$a1, $sp, 128
	pcalau12i	$a2, %pc_hi20(.L.str.2)
	addi.d	$s6, $a2, %pc_lo12(.L.str.2)
	vld	$vr0, $s6, 0
	ld.h	$s5, $s6, 16
	st.d	$a0, $sp, 168
	st.d	$a1, $sp, 184
	vst	$vr0, $a0, 0
	st.h	$s5, $a0, 16
	ld.d	$a0, $sp, 168
	st.d	$a1, $sp, 176
	stx.b	$zero, $a0, $a1
.Ltmp228:                               # EH_LABEL
	addi.d	$a1, $sp, 168
	move	$a0, $fp
	pcaddu18i	$ra, %call36(_ZNK7Results5GetAsIdEET_RKNSt7__cxx1112basic_stringIcSt11char_traitsIcESaIcEEE)
	jirl	$ra, $ra, 0
.Ltmp229:                               # EH_LABEL
# %bb.182:                              # %invoke.cont335
	fadd.d	$fa0, $fa0, $fs1
	fabs.d	$fs2, $fa0
	fcmp.cule.d	$fcc0, $fs0, $fs2
	movcf2gr	$a0, $fcc0
	st.d	$a0, $sp, 24
	bceqz	$fcc0, .LBB2_185
# %bb.183:                              # %cond.false342
.Ltmp231:                               # EH_LABEL
	pcalau12i	$a0, %pc_hi20(.L.str.73)
	addi.d	$a1, $a0, %pc_lo12(.L.str.73)
	pcalau12i	$a0, %pc_hi20(.L.str.57)
	addi.d	$a2, $a0, %pc_lo12(.L.str.57)
	pcalau12i	$a0, %pc_hi20(.L__func__._Z14CheckThousandsRK7Results)
	addi.d	$a3, $a0, %pc_lo12(.L__func__._Z14CheckThousandsRK7Results)
	addi.d	$a0, $sp, 48
	ori	$a4, $zero, 176
	pcaddu18i	$ra, %call36(_ZN9benchmark8internal12CheckHandlerC2EPKcS3_S3_i)
	jirl	$ra, $ra, 0
.Ltmp232:                               # EH_LABEL
# %bb.184:                              # %invoke.cont346
	ld.d	$s7, $sp, 48
	b	.LBB2_186
.LBB2_185:                              # %cond.true339
	pcalau12i	$a0, %pc_hi20(_ZGVZN9benchmark8internal18GetNullLogInstanceEvE8null_log)
	ld.b	$a0, $a0, %pc_lo12(_ZGVZN9benchmark8internal18GetNullLogInstanceEvE8null_log)
	dbar	20
	pcalau12i	$a1, %pc_hi20(_ZZN9benchmark8internal18GetNullLogInstanceEvE8null_log)
	addi.d	$s7, $a1, %pc_lo12(_ZZN9benchmark8internal18GetNullLogInstanceEvE8null_log)
	beqz	$a0, .LBB2_462
.LBB2_186:                              # %cond.end351
	ld.d	$a0, $s7, 0
	beqz	$a0, .LBB2_218
# %bb.187:                              # %if.then.i721
.Ltmp233:                               # EH_LABEL
	pcalau12i	$a1, %pc_hi20(.L.str.58)
	addi.d	$a1, $a1, %pc_lo12(.L.str.58)
	ori	$a2, $zero, 1
	pcaddu18i	$ra, %call36(_ZSt16__ostream_insertIcSt11char_traitsIcEERSt13basic_ostreamIT_T0_ES6_PKS3_l)
	jirl	$ra, $ra, 0
.Ltmp234:                               # EH_LABEL
# %bb.188:                              # %invoke.cont353
	ld.d	$a0, $s7, 0
	beqz	$a0, .LBB2_218
# %bb.189:                              # %if.then.i727
.Ltmp235:                               # EH_LABEL
	pcalau12i	$a1, %pc_hi20(.L.str.57)
	addi.d	$a1, $a1, %pc_lo12(.L.str.57)
	ori	$a2, $zero, 96
	pcaddu18i	$ra, %call36(_ZSt16__ostream_insertIcSt11char_traitsIcEERSt13basic_ostreamIT_T0_ES6_PKS3_l)
	jirl	$ra, $ra, 0
.Ltmp236:                               # EH_LABEL
# %bb.190:                              # %invoke.cont355
	ld.d	$a0, $s7, 0
	beqz	$a0, .LBB2_218
# %bb.191:                              # %if.then.i733
.Ltmp237:                               # EH_LABEL
	pcalau12i	$a1, %pc_hi20(.L.str.59)
	addi.d	$a1, $a1, %pc_lo12(.L.str.59)
	ori	$a2, $zero, 1
	pcaddu18i	$ra, %call36(_ZSt16__ostream_insertIcSt11char_traitsIcEERSt13basic_ostreamIT_T0_ES6_PKS3_l)
	jirl	$ra, $ra, 0
.Ltmp238:                               # EH_LABEL
# %bb.192:                              # %invoke.cont357
	ld.d	$a0, $s7, 0
	beqz	$a0, .LBB2_218
# %bb.193:                              # %if.then.i739
.Ltmp240:                               # EH_LABEL
	ori	$a1, $zero, 176
	pcaddu18i	$ra, %call36(_ZNSolsEi)
	jirl	$ra, $ra, 0
.Ltmp241:                               # EH_LABEL
# %bb.194:                              # %invoke.cont361
	ld.d	$a0, $s7, 0
	beqz	$a0, .LBB2_218
# %bb.195:                              # %if.then.i744
.Ltmp242:                               # EH_LABEL
	pcalau12i	$a1, %pc_hi20(.L.str.60)
	addi.d	$a1, $a1, %pc_lo12(.L.str.60)
	ori	$a2, $zero, 2
	pcaddu18i	$ra, %call36(_ZSt16__ostream_insertIcSt11char_traitsIcEERSt13basic_ostreamIT_T0_ES6_PKS3_l)
	jirl	$ra, $ra, 0
.Ltmp243:                               # EH_LABEL
# %bb.196:                              # %invoke.cont363
	ld.d	$a0, $s7, 0
	beqz	$a0, .LBB2_218
# %bb.197:                              # %if.then.i750
	ld.d	$a1, $fp, 0
	ld.d	$a2, $fp, 8
.Ltmp244:                               # EH_LABEL
	pcaddu18i	$ra, %call36(_ZSt16__ostream_insertIcSt11char_traitsIcEERSt13basic_ostreamIT_T0_ES6_PKS3_l)
	jirl	$ra, $ra, 0
.Ltmp245:                               # EH_LABEL
# %bb.198:                              # %invoke.cont366
	ld.d	$a0, $s7, 0
	beqz	$a0, .LBB2_218
# %bb.199:                              # %if.then.i757
.Ltmp246:                               # EH_LABEL
	pcalau12i	$a1, %pc_hi20(.L.str.61)
	addi.d	$a1, $a1, %pc_lo12(.L.str.61)
	ori	$a2, $zero, 2
	pcaddu18i	$ra, %call36(_ZSt16__ostream_insertIcSt11char_traitsIcEERSt13basic_ostreamIT_T0_ES6_PKS3_l)
	jirl	$ra, $ra, 0
.Ltmp247:                               # EH_LABEL
# %bb.200:                              # %invoke.cont368
	ld.d	$a0, $s7, 0
	beqz	$a0, .LBB2_218
# %bb.201:                              # %if.then.i763
.Ltmp248:                               # EH_LABEL
	pcalau12i	$a1, %pc_hi20(.L.str.57)
	addi.d	$a1, $a1, %pc_lo12(.L.str.57)
	ori	$a2, $zero, 96
	pcaddu18i	$ra, %call36(_ZSt16__ostream_insertIcSt11char_traitsIcEERSt13basic_ostreamIT_T0_ES6_PKS3_l)
	jirl	$ra, $ra, 0
.Ltmp249:                               # EH_LABEL
# %bb.202:                              # %invoke.cont370
	ld.d	$a0, $s7, 0
	beqz	$a0, .LBB2_218
# %bb.203:                              # %if.then.i769
.Ltmp250:                               # EH_LABEL
	pcalau12i	$a1, %pc_hi20(.L.str.59)
	addi.d	$a1, $a1, %pc_lo12(.L.str.59)
	ori	$a2, $zero, 1
	pcaddu18i	$ra, %call36(_ZSt16__ostream_insertIcSt11char_traitsIcEERSt13basic_ostreamIT_T0_ES6_PKS3_l)
	jirl	$ra, $ra, 0
.Ltmp251:                               # EH_LABEL
# %bb.204:                              # %invoke.cont372
	ld.d	$a0, $s7, 0
	beqz	$a0, .LBB2_218
# %bb.205:                              # %if.then.i775
.Ltmp253:                               # EH_LABEL
	ori	$a1, $zero, 176
	pcaddu18i	$ra, %call36(_ZNSolsEi)
	jirl	$ra, $ra, 0
.Ltmp254:                               # EH_LABEL
# %bb.206:                              # %invoke.cont376
	ld.d	$a0, $s7, 0
	beqz	$a0, .LBB2_218
# %bb.207:                              # %if.then.i780
.Ltmp255:                               # EH_LABEL
	pcalau12i	$a1, %pc_hi20(.L.str.60)
	addi.d	$a1, $a1, %pc_lo12(.L.str.60)
	ori	$a2, $zero, 2
	pcaddu18i	$ra, %call36(_ZSt16__ostream_insertIcSt11char_traitsIcEERSt13basic_ostreamIT_T0_ES6_PKS3_l)
	jirl	$ra, $ra, 0
.Ltmp256:                               # EH_LABEL
# %bb.208:                              # %invoke.cont378
	ld.d	$a0, $s7, 0
	beqz	$a0, .LBB2_218
# %bb.209:                              # %if.then.i786
.Ltmp257:                               # EH_LABEL
	pcalau12i	$a1, %pc_hi20(.L.str.62)
	addi.d	$a1, $a1, %pc_lo12(.L.str.62)
	ori	$a2, $zero, 10
	pcaddu18i	$ra, %call36(_ZSt16__ostream_insertIcSt11char_traitsIcEERSt13basic_ostreamIT_T0_ES6_PKS3_l)
	jirl	$ra, $ra, 0
.Ltmp258:                               # EH_LABEL
# %bb.210:                              # %invoke.cont380
	ld.d	$a0, $s7, 0
	beqz	$a0, .LBB2_218
# %bb.211:                              # %if.then.i792
.Ltmp259:                               # EH_LABEL
	pcalau12i	$a1, %pc_hi20(.L.str.63)
	addi.d	$a1, $a1, %pc_lo12(.L.str.63)
	ori	$a2, $zero, 6
	pcaddu18i	$ra, %call36(_ZSt16__ostream_insertIcSt11char_traitsIcEERSt13basic_ostreamIT_T0_ES6_PKS3_l)
	jirl	$ra, $ra, 0
.Ltmp260:                               # EH_LABEL
# %bb.212:                              # %invoke.cont382
	ld.d	$a0, $s7, 0
	beqz	$a0, .LBB2_218
# %bb.213:                              # %if.then.i798
.Ltmp261:                               # EH_LABEL
	pcalau12i	$a1, %pc_hi20(.L.str.64)
	addi.d	$a1, $a1, %pc_lo12(.L.str.64)
	ori	$a2, $zero, 1
	pcaddu18i	$ra, %call36(_ZSt16__ostream_insertIcSt11char_traitsIcEERSt13basic_ostreamIT_T0_ES6_PKS3_l)
	jirl	$ra, $ra, 0
.Ltmp262:                               # EH_LABEL
# %bb.214:                              # %invoke.cont384
	ld.d	$a0, $s7, 0
	beqz	$a0, .LBB2_218
# %bb.215:                              # %if.then.i804
.Ltmp263:                               # EH_LABEL
	pcalau12i	$a1, %pc_hi20(.L.str.2)
	addi.d	$a1, $a1, %pc_lo12(.L.str.2)
	ori	$a2, $zero, 18
	pcaddu18i	$ra, %call36(_ZSt16__ostream_insertIcSt11char_traitsIcEERSt13basic_ostreamIT_T0_ES6_PKS3_l)
	jirl	$ra, $ra, 0
.Ltmp264:                               # EH_LABEL
# %bb.216:                              # %invoke.cont386
	ld.d	$a0, $s7, 0
	beqz	$a0, .LBB2_218
# %bb.217:                              # %if.then.i810
.Ltmp265:                               # EH_LABEL
	pcalau12i	$a1, %pc_hi20(.L.str.65)
	addi.d	$a1, $a1, %pc_lo12(.L.str.65)
	ori	$a2, $zero, 1
	pcaddu18i	$ra, %call36(_ZSt16__ostream_insertIcSt11char_traitsIcEERSt13basic_ostreamIT_T0_ES6_PKS3_l)
	jirl	$ra, $ra, 0
.Ltmp266:                               # EH_LABEL
.LBB2_218:                              # %invoke.cont388
	st.d	$s1, $sp, 128
	ori	$a0, $zero, 18
	st.d	$a0, $sp, 96
.Ltmp268:                               # EH_LABEL
	addi.d	$a0, $sp, 128
	addi.d	$a1, $sp, 96
	move	$a2, $zero
	pcaddu18i	$ra, %call36(_ZNSt7__cxx1112basic_stringIcSt11char_traitsIcESaIcEE9_M_createERmm)
	jirl	$ra, $ra, 0
.Ltmp269:                               # EH_LABEL
# %bb.219:                              # %call2.i5.i.noexc824
	ld.d	$a1, $sp, 96
	vld	$vr0, $s6, 0
	st.d	$a0, $sp, 128
	st.d	$a1, $sp, 144
	vst	$vr0, $a0, 0
	st.h	$s5, $a0, 16
	ld.d	$a0, $sp, 128
	st.d	$a1, $sp, 136
	stx.b	$zero, $a0, $a1
.Ltmp271:                               # EH_LABEL
	addi.d	$a1, $sp, 128
	move	$a0, $fp
	pcaddu18i	$ra, %call36(_ZNK7Results5GetAsIdEET_RKNSt7__cxx1112basic_stringIcSt11char_traitsIcESaIcEEE)
	jirl	$ra, $ra, 0
.Ltmp272:                               # EH_LABEL
# %bb.220:                              # %invoke.cont396
	ld.d	$a0, $s7, 0
	beqz	$a0, .LBB2_248
# %bb.221:                              # %if.then.i831
.Ltmp273:                               # EH_LABEL
	pcaddu18i	$ra, %call36(_ZNSo9_M_insertIdEERSoT_)
	jirl	$ra, $ra, 0
.Ltmp274:                               # EH_LABEL
# %bb.222:                              # %invoke.cont398
	ld.d	$a0, $s7, 0
	beqz	$a0, .LBB2_248
# %bb.223:                              # %if.then.i836
.Ltmp275:                               # EH_LABEL
	pcalau12i	$a1, %pc_hi20(.L.str.66)
	addi.d	$a1, $a1, %pc_lo12(.L.str.66)
	ori	$a2, $zero, 13
	pcaddu18i	$ra, %call36(_ZSt16__ostream_insertIcSt11char_traitsIcEERSt13basic_ostreamIT_T0_ES6_PKS3_l)
	jirl	$ra, $ra, 0
.Ltmp276:                               # EH_LABEL
# %bb.224:                              # %invoke.cont400
	ld.d	$a0, $s7, 0
	beqz	$a0, .LBB2_248
# %bb.225:                              # %if.then.i842
.Ltmp278:                               # EH_LABEL
	lu12i.w	$a1, 244
	ori	$a1, $a1, 576
	pcaddu18i	$ra, %call36(_ZNSolsEi)
	jirl	$ra, $ra, 0
.Ltmp279:                               # EH_LABEL
# %bb.226:                              # %invoke.cont404
	ld.d	$a0, $s7, 0
	beqz	$a0, .LBB2_248
# %bb.227:                              # %if.then.i847
.Ltmp280:                               # EH_LABEL
	pcalau12i	$a1, %pc_hi20(.L.str.58)
	addi.d	$a1, $a1, %pc_lo12(.L.str.58)
	ori	$a2, $zero, 1
	pcaddu18i	$ra, %call36(_ZSt16__ostream_insertIcSt11char_traitsIcEERSt13basic_ostreamIT_T0_ES6_PKS3_l)
	jirl	$ra, $ra, 0
.Ltmp281:                               # EH_LABEL
# %bb.228:                              # %invoke.cont406
	ld.d	$a0, $s7, 0
	beqz	$a0, .LBB2_248
# %bb.229:                              # %if.then.i853
.Ltmp282:                               # EH_LABEL
	pcalau12i	$a1, %pc_hi20(.L.str.57)
	addi.d	$a1, $a1, %pc_lo12(.L.str.57)
	ori	$a2, $zero, 96
	pcaddu18i	$ra, %call36(_ZSt16__ostream_insertIcSt11char_traitsIcEERSt13basic_ostreamIT_T0_ES6_PKS3_l)
	jirl	$ra, $ra, 0
.Ltmp283:                               # EH_LABEL
# %bb.230:                              # %invoke.cont408
	ld.d	$a0, $s7, 0
	beqz	$a0, .LBB2_248
# %bb.231:                              # %if.then.i859
.Ltmp284:                               # EH_LABEL
	pcalau12i	$a1, %pc_hi20(.L.str.59)
	addi.d	$a1, $a1, %pc_lo12(.L.str.59)
	ori	$a2, $zero, 1
	pcaddu18i	$ra, %call36(_ZSt16__ostream_insertIcSt11char_traitsIcEERSt13basic_ostreamIT_T0_ES6_PKS3_l)
	jirl	$ra, $ra, 0
.Ltmp285:                               # EH_LABEL
# %bb.232:                              # %invoke.cont410
	ld.d	$a0, $s7, 0
	beqz	$a0, .LBB2_248
# %bb.233:                              # %if.then.i865
.Ltmp287:                               # EH_LABEL
	ori	$a1, $zero, 176
	pcaddu18i	$ra, %call36(_ZNSolsEi)
	jirl	$ra, $ra, 0
.Ltmp288:                               # EH_LABEL
# %bb.234:                              # %invoke.cont414
	ld.d	$a0, $s7, 0
	beqz	$a0, .LBB2_248
# %bb.235:                              # %if.then.i870
.Ltmp289:                               # EH_LABEL
	pcalau12i	$a1, %pc_hi20(.L.str.60)
	addi.d	$a1, $a1, %pc_lo12(.L.str.60)
	ori	$a2, $zero, 2
	pcaddu18i	$ra, %call36(_ZSt16__ostream_insertIcSt11char_traitsIcEERSt13basic_ostreamIT_T0_ES6_PKS3_l)
	jirl	$ra, $ra, 0
.Ltmp290:                               # EH_LABEL
# %bb.236:                              # %invoke.cont416
	ld.d	$a0, $s7, 0
	beqz	$a0, .LBB2_248
# %bb.237:                              # %if.then.i876
.Ltmp291:                               # EH_LABEL
	pcalau12i	$a1, %pc_hi20(.L.str.67)
	addi.d	$a1, $a1, %pc_lo12(.L.str.67)
	ori	$a2, $zero, 18
	pcaddu18i	$ra, %call36(_ZSt16__ostream_insertIcSt11char_traitsIcEERSt13basic_ostreamIT_T0_ES6_PKS3_l)
	jirl	$ra, $ra, 0
.Ltmp292:                               # EH_LABEL
# %bb.238:                              # %invoke.cont418
	ld.d	$a0, $s7, 0
	beqz	$a0, .LBB2_248
# %bb.239:                              # %if.then.i882
.Ltmp294:                               # EH_LABEL
	fmov.d	$fa0, $fs0
	pcaddu18i	$ra, %call36(_ZNSo9_M_insertIdEERSoT_)
	jirl	$ra, $ra, 0
.Ltmp295:                               # EH_LABEL
# %bb.240:                              # %invoke.cont422
	ld.d	$a0, $s7, 0
	beqz	$a0, .LBB2_248
# %bb.241:                              # %if.then.i887
.Ltmp296:                               # EH_LABEL
	pcalau12i	$a1, %pc_hi20(.L.str.68)
	addi.d	$a1, $a1, %pc_lo12(.L.str.68)
	ori	$a2, $zero, 2
	pcaddu18i	$ra, %call36(_ZSt16__ostream_insertIcSt11char_traitsIcEERSt13basic_ostreamIT_T0_ES6_PKS3_l)
	jirl	$ra, $ra, 0
.Ltmp297:                               # EH_LABEL
# %bb.242:                              # %invoke.cont424
	ld.d	$a0, $s7, 0
	beqz	$a0, .LBB2_248
# %bb.243:                              # %if.then.i893
.Ltmp299:                               # EH_LABEL
	pcalau12i	$a1, %pc_hi20(.LCPI2_2)
	fld.d	$fa0, $a1, %pc_lo12(.LCPI2_2)
	pcaddu18i	$ra, %call36(_ZNSo9_M_insertIdEERSoT_)
	jirl	$ra, $ra, 0
.Ltmp300:                               # EH_LABEL
# %bb.244:                              # %invoke.cont428
	ld.d	$a0, $s7, 0
	beqz	$a0, .LBB2_248
# %bb.245:                              # %if.then.i898
.Ltmp301:                               # EH_LABEL
	pcalau12i	$a1, %pc_hi20(.L.str.69)
	addi.d	$a1, $a1, %pc_lo12(.L.str.69)
	ori	$a2, $zero, 4
	pcaddu18i	$ra, %call36(_ZSt16__ostream_insertIcSt11char_traitsIcEERSt13basic_ostreamIT_T0_ES6_PKS3_l)
	jirl	$ra, $ra, 0
.Ltmp302:                               # EH_LABEL
# %bb.246:                              # %invoke.cont430
	ld.d	$a0, $s7, 0
	beqz	$a0, .LBB2_248
# %bb.247:                              # %if.then.i904
.Ltmp303:                               # EH_LABEL
	pcalau12i	$a1, %pc_hi20(.L.str.70)
	addi.d	$a1, $a1, %pc_lo12(.L.str.70)
	ori	$a2, $zero, 14
	pcaddu18i	$ra, %call36(_ZSt16__ostream_insertIcSt11char_traitsIcEERSt13basic_ostreamIT_T0_ES6_PKS3_l)
	jirl	$ra, $ra, 0
.Ltmp304:                               # EH_LABEL
.LBB2_248:                              # %invoke.cont432
	st.d	$s2, $sp, 96
	ori	$a0, $zero, 18
	st.d	$a0, $sp, 64
.Ltmp306:                               # EH_LABEL
	addi.d	$a0, $sp, 96
	addi.d	$a1, $sp, 64
	move	$a2, $zero
	pcaddu18i	$ra, %call36(_ZNSt7__cxx1112basic_stringIcSt11char_traitsIcESaIcEE9_M_createERmm)
	jirl	$ra, $ra, 0
.Ltmp307:                               # EH_LABEL
# %bb.249:                              # %call2.i5.i.noexc918
	ld.d	$a1, $sp, 64
	vld	$vr0, $s6, 0
	st.d	$a0, $sp, 96
	st.d	$a1, $sp, 112
	vst	$vr0, $a0, 0
	st.h	$s5, $a0, 16
	ld.d	$a0, $sp, 96
	st.d	$a1, $sp, 104
	stx.b	$zero, $a0, $a1
.Ltmp309:                               # EH_LABEL
	addi.d	$a1, $sp, 96
	move	$a0, $fp
	pcaddu18i	$ra, %call36(_ZNK7Results5GetAsIdEET_RKNSt7__cxx1112basic_stringIcSt11char_traitsIcESaIcEEE)
	jirl	$ra, $ra, 0
.Ltmp310:                               # EH_LABEL
# %bb.250:                              # %invoke.cont440
	ld.d	$a0, $s7, 0
	beqz	$a0, .LBB2_254
# %bb.251:                              # %if.then.i925
	fadd.d	$fa0, $fa0, $fs1
.Ltmp311:                               # EH_LABEL
	pcaddu18i	$ra, %call36(_ZNSo9_M_insertIdEERSoT_)
	jirl	$ra, $ra, 0
.Ltmp312:                               # EH_LABEL
# %bb.252:                              # %invoke.cont443
	ld.d	$a0, $s7, 0
	beqz	$a0, .LBB2_254
# %bb.253:                              # %if.then.i930
.Ltmp313:                               # EH_LABEL
	pcalau12i	$a1, %pc_hi20(.L.str.68)
	addi.d	$a1, $a1, %pc_lo12(.L.str.68)
	ori	$a2, $zero, 2
	pcaddu18i	$ra, %call36(_ZSt16__ostream_insertIcSt11char_traitsIcEERSt13basic_ostreamIT_T0_ES6_PKS3_l)
	jirl	$ra, $ra, 0
.Ltmp314:                               # EH_LABEL
.LBB2_254:                              # %invoke.cont445
	st.d	$s3, $sp, 64
	ori	$a0, $zero, 18
	st.d	$a0, $sp, 200
.Ltmp316:                               # EH_LABEL
	addi.d	$a0, $sp, 64
	addi.d	$a1, $sp, 200
	move	$a2, $zero
	pcaddu18i	$ra, %call36(_ZNSt7__cxx1112basic_stringIcSt11char_traitsIcESaIcEE9_M_createERmm)
	jirl	$ra, $ra, 0
.Ltmp317:                               # EH_LABEL
# %bb.255:                              # %call2.i5.i.noexc944
	ld.d	$a1, $sp, 200
	vld	$vr0, $s6, 0
	st.d	$a0, $sp, 64
	st.d	$a1, $sp, 80
	vst	$vr0, $a0, 0
	st.h	$s5, $a0, 16
	ld.d	$a0, $sp, 64
	st.d	$a1, $sp, 72
	stx.b	$zero, $a0, $a1
.Ltmp319:                               # EH_LABEL
	addi.d	$a1, $sp, 64
	move	$a0, $fp
	pcaddu18i	$ra, %call36(_ZNK7Results5GetAsIdEET_RKNSt7__cxx1112basic_stringIcSt11char_traitsIcESaIcEEE)
	jirl	$ra, $ra, 0
.Ltmp320:                               # EH_LABEL
# %bb.256:                              # %invoke.cont453
	ld.d	$a0, $s7, 0
	beqz	$a0, .LBB2_260
# %bb.257:                              # %if.then.i951
	fld.d	$fa1, $s4, %pc_lo12(.LCPI2_3)
	fadd.d	$fa0, $fa0, $fs1
	fdiv.d	$fa0, $fa0, $fa1
	fmul.d	$fa0, $fa0, $fs0
.Ltmp321:                               # EH_LABEL
	pcaddu18i	$ra, %call36(_ZNSo9_M_insertIdEERSoT_)
	jirl	$ra, $ra, 0
.Ltmp322:                               # EH_LABEL
# %bb.258:                              # %invoke.cont458
	ld.d	$a0, $s7, 0
	beqz	$a0, .LBB2_260
# %bb.259:                              # %if.then.i956
.Ltmp323:                               # EH_LABEL
	pcalau12i	$a1, %pc_hi20(.L.str.71)
	addi.d	$a1, $a1, %pc_lo12(.L.str.71)
	ori	$a2, $zero, 2
	pcaddu18i	$ra, %call36(_ZSt16__ostream_insertIcSt11char_traitsIcEERSt13basic_ostreamIT_T0_ES6_PKS3_l)
	jirl	$ra, $ra, 0
.Ltmp324:                               # EH_LABEL
.LBB2_260:                              # %invoke.cont460
	ld.d	$a0, $sp, 64
	beq	$a0, $s3, .LBB2_262
# %bb.261:                              # %if.then.i.i962
	ld.d	$a1, $sp, 80
	addi.d	$a1, $a1, 1
	pcaddu18i	$ra, %call36(_ZdlPvm)
	jirl	$ra, $ra, 0
.LBB2_262:                              # %_ZNSt7__cxx1112basic_stringIcSt11char_traitsIcESaIcEED2Ev.exit967
	ld.d	$a0, $sp, 96
	beq	$a0, $s2, .LBB2_264
# %bb.263:                              # %if.then.i.i969
	ld.d	$a1, $sp, 112
	addi.d	$a1, $a1, 1
	pcaddu18i	$ra, %call36(_ZdlPvm)
	jirl	$ra, $ra, 0
.LBB2_264:                              # %_ZNSt7__cxx1112basic_stringIcSt11char_traitsIcESaIcEED2Ev.exit974
	ld.d	$a0, $sp, 128
	beq	$a0, $s1, .LBB2_266
# %bb.265:                              # %if.then.i.i976
	ld.d	$a1, $sp, 144
	addi.d	$a1, $a1, 1
	pcaddu18i	$ra, %call36(_ZdlPvm)
	jirl	$ra, $ra, 0
.LBB2_266:                              # %_ZNSt7__cxx1112basic_stringIcSt11char_traitsIcESaIcEED2Ev.exit981
	fcmp.clt.d	$fcc0, $fs2, $fs0
	bceqz	$fcc0, .LBB2_452
# %bb.267:                              # %cleanup.done494
	ld.d	$a0, $sp, 168
	beq	$a0, $s0, .LBB2_269
# %bb.268:                              # %if.then.i.i1011
	ld.d	$a1, $sp, 184
	addi.d	$a1, $a1, 1
	pcaddu18i	$ra, %call36(_ZdlPvm)
	jirl	$ra, $ra, 0
.LBB2_269:                              # %_ZNSt7__cxx1112basic_stringIcSt11char_traitsIcESaIcEED2Ev.exit1016
	st.d	$s0, $sp, 168
	ori	$a0, $zero, 18
	st.d	$a0, $sp, 128
.Ltmp326:                               # EH_LABEL
	addi.d	$a0, $sp, 168
	addi.d	$a1, $sp, 128
	move	$a2, $zero
	pcaddu18i	$ra, %call36(_ZNSt7__cxx1112basic_stringIcSt11char_traitsIcESaIcEE9_M_createERmm)
	jirl	$ra, $ra, 0
.Ltmp327:                               # EH_LABEL
# %bb.270:                              # %call2.i5.i.noexc1026
	ld.d	$a1, $sp, 128
	pcalau12i	$a2, %pc_hi20(.L.str.3)
	addi.d	$s5, $a2, %pc_lo12(.L.str.3)
	vld	$vr0, $s5, 0
	ld.h	$s4, $s5, 16
	st.d	$a0, $sp, 168
	st.d	$a1, $sp, 184
	vst	$vr0, $a0, 0
	st.h	$s4, $a0, 16
	ld.d	$a0, $sp, 168
	st.d	$a1, $sp, 176
	stx.b	$zero, $a0, $a1
.Ltmp329:                               # EH_LABEL
	addi.d	$a1, $sp, 168
	move	$a0, $fp
	pcaddu18i	$ra, %call36(_ZNK7Results5GetAsIdEET_RKNSt7__cxx1112basic_stringIcSt11char_traitsIcESaIcEEE)
	jirl	$ra, $ra, 0
.Ltmp330:                               # EH_LABEL
# %bb.271:                              # %invoke.cont508
	pcalau12i	$a0, %pc_hi20(.LCPI2_4)
	fld.d	$fs2, $a0, %pc_lo12(.LCPI2_4)
	pcalau12i	$a0, %pc_hi20(.LCPI2_5)
	fld.d	$fs1, $a0, %pc_lo12(.LCPI2_5)
	fadd.d	$fa0, $fa0, $fs2
	fabs.d	$fs3, $fa0
	fcmp.cule.d	$fcc0, $fs1, $fs3
	movcf2gr	$a0, $fcc0
	st.d	$a0, $sp, 24
	bceqz	$fcc0, .LBB2_274
# %bb.272:                              # %cond.false515
.Ltmp332:                               # EH_LABEL
	pcalau12i	$a0, %pc_hi20(.L.str.74)
	addi.d	$a1, $a0, %pc_lo12(.L.str.74)
	pcalau12i	$a0, %pc_hi20(.L.str.57)
	addi.d	$a2, $a0, %pc_lo12(.L.str.57)
	pcalau12i	$a0, %pc_hi20(.L__func__._Z14CheckThousandsRK7Results)
	addi.d	$a3, $a0, %pc_lo12(.L__func__._Z14CheckThousandsRK7Results)
	addi.d	$a0, $sp, 40
	ori	$a4, $zero, 177
	pcaddu18i	$ra, %call36(_ZN9benchmark8internal12CheckHandlerC2EPKcS3_S3_i)
	jirl	$ra, $ra, 0
.Ltmp333:                               # EH_LABEL
# %bb.273:                              # %invoke.cont519
	ld.d	$s6, $sp, 40
	b	.LBB2_275
.LBB2_274:                              # %cond.true512
	pcalau12i	$a0, %pc_hi20(_ZGVZN9benchmark8internal18GetNullLogInstanceEvE8null_log)
	ld.b	$a0, $a0, %pc_lo12(_ZGVZN9benchmark8internal18GetNullLogInstanceEvE8null_log)
	dbar	20
	pcalau12i	$a1, %pc_hi20(_ZZN9benchmark8internal18GetNullLogInstanceEvE8null_log)
	addi.d	$s6, $a1, %pc_lo12(_ZZN9benchmark8internal18GetNullLogInstanceEvE8null_log)
	beqz	$a0, .LBB2_464
.LBB2_275:                              # %cond.end524
	ld.d	$a0, $s6, 0
	beqz	$a0, .LBB2_307
# %bb.276:                              # %if.then.i1038
.Ltmp334:                               # EH_LABEL
	pcalau12i	$a1, %pc_hi20(.L.str.58)
	addi.d	$a1, $a1, %pc_lo12(.L.str.58)
	ori	$a2, $zero, 1
	pcaddu18i	$ra, %call36(_ZSt16__ostream_insertIcSt11char_traitsIcEERSt13basic_ostreamIT_T0_ES6_PKS3_l)
	jirl	$ra, $ra, 0
.Ltmp335:                               # EH_LABEL
# %bb.277:                              # %invoke.cont526
	ld.d	$a0, $s6, 0
	beqz	$a0, .LBB2_307
# %bb.278:                              # %if.then.i1044
.Ltmp336:                               # EH_LABEL
	pcalau12i	$a1, %pc_hi20(.L.str.57)
	addi.d	$a1, $a1, %pc_lo12(.L.str.57)
	ori	$a2, $zero, 96
	pcaddu18i	$ra, %call36(_ZSt16__ostream_insertIcSt11char_traitsIcEERSt13basic_ostreamIT_T0_ES6_PKS3_l)
	jirl	$ra, $ra, 0
.Ltmp337:                               # EH_LABEL
# %bb.279:                              # %invoke.cont528
	ld.d	$a0, $s6, 0
	beqz	$a0, .LBB2_307
# %bb.280:                              # %if.then.i1050
.Ltmp338:                               # EH_LABEL
	pcalau12i	$a1, %pc_hi20(.L.str.59)
	addi.d	$a1, $a1, %pc_lo12(.L.str.59)
	ori	$a2, $zero, 1
	pcaddu18i	$ra, %call36(_ZSt16__ostream_insertIcSt11char_traitsIcEERSt13basic_ostreamIT_T0_ES6_PKS3_l)
	jirl	$ra, $ra, 0
.Ltmp339:                               # EH_LABEL
# %bb.281:                              # %invoke.cont530
	ld.d	$a0, $s6, 0
	beqz	$a0, .LBB2_307
# %bb.282:                              # %if.then.i1056
.Ltmp341:                               # EH_LABEL
	ori	$a1, $zero, 177
	pcaddu18i	$ra, %call36(_ZNSolsEi)
	jirl	$ra, $ra, 0
.Ltmp342:                               # EH_LABEL
# %bb.283:                              # %invoke.cont534
	ld.d	$a0, $s6, 0
	beqz	$a0, .LBB2_307
# %bb.284:                              # %if.then.i1061
.Ltmp343:                               # EH_LABEL
	pcalau12i	$a1, %pc_hi20(.L.str.60)
	addi.d	$a1, $a1, %pc_lo12(.L.str.60)
	ori	$a2, $zero, 2
	pcaddu18i	$ra, %call36(_ZSt16__ostream_insertIcSt11char_traitsIcEERSt13basic_ostreamIT_T0_ES6_PKS3_l)
	jirl	$ra, $ra, 0
.Ltmp344:                               # EH_LABEL
# %bb.285:                              # %invoke.cont536
	ld.d	$a0, $s6, 0
	beqz	$a0, .LBB2_307
# %bb.286:                              # %if.then.i1067
	ld.d	$a1, $fp, 0
	ld.d	$a2, $fp, 8
.Ltmp345:                               # EH_LABEL
	pcaddu18i	$ra, %call36(_ZSt16__ostream_insertIcSt11char_traitsIcEERSt13basic_ostreamIT_T0_ES6_PKS3_l)
	jirl	$ra, $ra, 0
.Ltmp346:                               # EH_LABEL
# %bb.287:                              # %invoke.cont539
	ld.d	$a0, $s6, 0
	beqz	$a0, .LBB2_307
# %bb.288:                              # %if.then.i1074
.Ltmp347:                               # EH_LABEL
	pcalau12i	$a1, %pc_hi20(.L.str.61)
	addi.d	$a1, $a1, %pc_lo12(.L.str.61)
	ori	$a2, $zero, 2
	pcaddu18i	$ra, %call36(_ZSt16__ostream_insertIcSt11char_traitsIcEERSt13basic_ostreamIT_T0_ES6_PKS3_l)
	jirl	$ra, $ra, 0
.Ltmp348:                               # EH_LABEL
# %bb.289:                              # %invoke.cont541
	ld.d	$a0, $s6, 0
	beqz	$a0, .LBB2_307
# %bb.290:                              # %if.then.i1080
.Ltmp349:                               # EH_LABEL
	pcalau12i	$a1, %pc_hi20(.L.str.57)
	addi.d	$a1, $a1, %pc_lo12(.L.str.57)
	ori	$a2, $zero, 96
	pcaddu18i	$ra, %call36(_ZSt16__ostream_insertIcSt11char_traitsIcEERSt13basic_ostreamIT_T0_ES6_PKS3_l)
	jirl	$ra, $ra, 0
.Ltmp350:                               # EH_LABEL
# %bb.291:                              # %invoke.cont543
	ld.d	$a0, $s6, 0
	beqz	$a0, .LBB2_307
# %bb.292:                              # %if.then.i1086
.Ltmp351:                               # EH_LABEL
	pcalau12i	$a1, %pc_hi20(.L.str.59)
	addi.d	$a1, $a1, %pc_lo12(.L.str.59)
	ori	$a2, $zero, 1
	pcaddu18i	$ra, %call36(_ZSt16__ostream_insertIcSt11char_traitsIcEERSt13basic_ostreamIT_T0_ES6_PKS3_l)
	jirl	$ra, $ra, 0
.Ltmp352:                               # EH_LABEL
# %bb.293:                              # %invoke.cont545
	ld.d	$a0, $s6, 0
	beqz	$a0, .LBB2_307
# %bb.294:                              # %if.then.i1092
.Ltmp354:                               # EH_LABEL
	ori	$a1, $zero, 177
	pcaddu18i	$ra, %call36(_ZNSolsEi)
	jirl	$ra, $ra, 0
.Ltmp355:                               # EH_LABEL
# %bb.295:                              # %invoke.cont549
	ld.d	$a0, $s6, 0
	beqz	$a0, .LBB2_307
# %bb.296:                              # %if.then.i1097
.Ltmp356:                               # EH_LABEL
	pcalau12i	$a1, %pc_hi20(.L.str.60)
	addi.d	$a1, $a1, %pc_lo12(.L.str.60)
	ori	$a2, $zero, 2
	pcaddu18i	$ra, %call36(_ZSt16__ostream_insertIcSt11char_traitsIcEERSt13basic_ostreamIT_T0_ES6_PKS3_l)
	jirl	$ra, $ra, 0
.Ltmp357:                               # EH_LABEL
# %bb.297:                              # %invoke.cont551
	ld.d	$a0, $s6, 0
	beqz	$a0, .LBB2_307
# %bb.298:                              # %if.then.i1103
.Ltmp358:                               # EH_LABEL
	pcalau12i	$a1, %pc_hi20(.L.str.62)
	addi.d	$a1, $a1, %pc_lo12(.L.str.62)
	ori	$a2, $zero, 10
	pcaddu18i	$ra, %call36(_ZSt16__ostream_insertIcSt11char_traitsIcEERSt13basic_ostreamIT_T0_ES6_PKS3_l)
	jirl	$ra, $ra, 0
.Ltmp359:                               # EH_LABEL
# %bb.299:                              # %invoke.cont553
	ld.d	$a0, $s6, 0
	beqz	$a0, .LBB2_307
# %bb.300:                              # %if.then.i1109
.Ltmp360:                               # EH_LABEL
	pcalau12i	$a1, %pc_hi20(.L.str.63)
	addi.d	$a1, $a1, %pc_lo12(.L.str.63)
	ori	$a2, $zero, 6
	pcaddu18i	$ra, %call36(_ZSt16__ostream_insertIcSt11char_traitsIcEERSt13basic_ostreamIT_T0_ES6_PKS3_l)
	jirl	$ra, $ra, 0
.Ltmp361:                               # EH_LABEL
# %bb.301:                              # %invoke.cont555
	ld.d	$a0, $s6, 0
	beqz	$a0, .LBB2_307
# %bb.302:                              # %if.then.i1115
.Ltmp362:                               # EH_LABEL
	pcalau12i	$a1, %pc_hi20(.L.str.64)
	addi.d	$a1, $a1, %pc_lo12(.L.str.64)
	ori	$a2, $zero, 1
	pcaddu18i	$ra, %call36(_ZSt16__ostream_insertIcSt11char_traitsIcEERSt13basic_ostreamIT_T0_ES6_PKS3_l)
	jirl	$ra, $ra, 0
.Ltmp363:                               # EH_LABEL
# %bb.303:                              # %invoke.cont557
	ld.d	$a0, $s6, 0
	beqz	$a0, .LBB2_307
# %bb.304:                              # %if.then.i1121
.Ltmp364:                               # EH_LABEL
	pcalau12i	$a1, %pc_hi20(.L.str.3)
	addi.d	$a1, $a1, %pc_lo12(.L.str.3)
	ori	$a2, $zero, 18
	pcaddu18i	$ra, %call36(_ZSt16__ostream_insertIcSt11char_traitsIcEERSt13basic_ostreamIT_T0_ES6_PKS3_l)
	jirl	$ra, $ra, 0
.Ltmp365:                               # EH_LABEL
# %bb.305:                              # %invoke.cont559
	ld.d	$a0, $s6, 0
	beqz	$a0, .LBB2_307
# %bb.306:                              # %if.then.i1127
.Ltmp366:                               # EH_LABEL
	pcalau12i	$a1, %pc_hi20(.L.str.65)
	addi.d	$a1, $a1, %pc_lo12(.L.str.65)
	ori	$a2, $zero, 1
	pcaddu18i	$ra, %call36(_ZSt16__ostream_insertIcSt11char_traitsIcEERSt13basic_ostreamIT_T0_ES6_PKS3_l)
	jirl	$ra, $ra, 0
.Ltmp367:                               # EH_LABEL
.LBB2_307:                              # %invoke.cont561
	st.d	$s1, $sp, 128
	ori	$a0, $zero, 18
	st.d	$a0, $sp, 96
.Ltmp369:                               # EH_LABEL
	addi.d	$a0, $sp, 128
	addi.d	$a1, $sp, 96
	move	$a2, $zero
	pcaddu18i	$ra, %call36(_ZNSt7__cxx1112basic_stringIcSt11char_traitsIcESaIcEE9_M_createERmm)
	jirl	$ra, $ra, 0
.Ltmp370:                               # EH_LABEL
# %bb.308:                              # %call2.i5.i.noexc1141
	ld.d	$a1, $sp, 96
	vld	$vr0, $s5, 0
	st.d	$a0, $sp, 128
	st.d	$a1, $sp, 144
	vst	$vr0, $a0, 0
	st.h	$s4, $a0, 16
	ld.d	$a0, $sp, 128
	st.d	$a1, $sp, 136
	stx.b	$zero, $a0, $a1
.Ltmp372:                               # EH_LABEL
	addi.d	$a1, $sp, 128
	move	$a0, $fp
	pcaddu18i	$ra, %call36(_ZNK7Results5GetAsIdEET_RKNSt7__cxx1112basic_stringIcSt11char_traitsIcESaIcEEE)
	jirl	$ra, $ra, 0
.Ltmp373:                               # EH_LABEL
# %bb.309:                              # %invoke.cont569
	ld.d	$a0, $s6, 0
	beqz	$a0, .LBB2_337
# %bb.310:                              # %if.then.i1148
.Ltmp374:                               # EH_LABEL
	pcaddu18i	$ra, %call36(_ZNSo9_M_insertIdEERSoT_)
	jirl	$ra, $ra, 0
.Ltmp375:                               # EH_LABEL
# %bb.311:                              # %invoke.cont571
	ld.d	$a0, $s6, 0
	beqz	$a0, .LBB2_337
# %bb.312:                              # %if.then.i1153
.Ltmp376:                               # EH_LABEL
	pcalau12i	$a1, %pc_hi20(.L.str.66)
	addi.d	$a1, $a1, %pc_lo12(.L.str.66)
	ori	$a2, $zero, 13
	pcaddu18i	$ra, %call36(_ZSt16__ostream_insertIcSt11char_traitsIcEERSt13basic_ostreamIT_T0_ES6_PKS3_l)
	jirl	$ra, $ra, 0
.Ltmp377:                               # EH_LABEL
# %bb.313:                              # %invoke.cont573
	ld.d	$a0, $s6, 0
	beqz	$a0, .LBB2_337
# %bb.314:                              # %if.then.i1159
.Ltmp379:                               # EH_LABEL
	lu12i.w	$a1, 256
	pcaddu18i	$ra, %call36(_ZNSolsEi)
	jirl	$ra, $ra, 0
.Ltmp380:                               # EH_LABEL
# %bb.315:                              # %invoke.cont577
	ld.d	$a0, $s6, 0
	beqz	$a0, .LBB2_337
# %bb.316:                              # %if.then.i1164
.Ltmp381:                               # EH_LABEL
	pcalau12i	$a1, %pc_hi20(.L.str.58)
	addi.d	$a1, $a1, %pc_lo12(.L.str.58)
	ori	$a2, $zero, 1
	pcaddu18i	$ra, %call36(_ZSt16__ostream_insertIcSt11char_traitsIcEERSt13basic_ostreamIT_T0_ES6_PKS3_l)
	jirl	$ra, $ra, 0
.Ltmp382:                               # EH_LABEL
# %bb.317:                              # %invoke.cont579
	ld.d	$a0, $s6, 0
	beqz	$a0, .LBB2_337
# %bb.318:                              # %if.then.i1170
.Ltmp383:                               # EH_LABEL
	pcalau12i	$a1, %pc_hi20(.L.str.57)
	addi.d	$a1, $a1, %pc_lo12(.L.str.57)
	ori	$a2, $zero, 96
	pcaddu18i	$ra, %call36(_ZSt16__ostream_insertIcSt11char_traitsIcEERSt13basic_ostreamIT_T0_ES6_PKS3_l)
	jirl	$ra, $ra, 0
.Ltmp384:                               # EH_LABEL
# %bb.319:                              # %invoke.cont581
	ld.d	$a0, $s6, 0
	beqz	$a0, .LBB2_337
# %bb.320:                              # %if.then.i1176
.Ltmp385:                               # EH_LABEL
	pcalau12i	$a1, %pc_hi20(.L.str.59)
	addi.d	$a1, $a1, %pc_lo12(.L.str.59)
	ori	$a2, $zero, 1
	pcaddu18i	$ra, %call36(_ZSt16__ostream_insertIcSt11char_traitsIcEERSt13basic_ostreamIT_T0_ES6_PKS3_l)
	jirl	$ra, $ra, 0
.Ltmp386:                               # EH_LABEL
# %bb.321:                              # %invoke.cont583
	ld.d	$a0, $s6, 0
	beqz	$a0, .LBB2_337
# %bb.322:                              # %if.then.i1182
.Ltmp388:                               # EH_LABEL
	ori	$a1, $zero, 177
	pcaddu18i	$ra, %call36(_ZNSolsEi)
	jirl	$ra, $ra, 0
.Ltmp389:                               # EH_LABEL
# %bb.323:                              # %invoke.cont587
	ld.d	$a0, $s6, 0
	beqz	$a0, .LBB2_337
# %bb.324:                              # %if.then.i1187
.Ltmp390:                               # EH_LABEL
	pcalau12i	$a1, %pc_hi20(.L.str.60)
	addi.d	$a1, $a1, %pc_lo12(.L.str.60)
	ori	$a2, $zero, 2
	pcaddu18i	$ra, %call36(_ZSt16__ostream_insertIcSt11char_traitsIcEERSt13basic_ostreamIT_T0_ES6_PKS3_l)
	jirl	$ra, $ra, 0
.Ltmp391:                               # EH_LABEL
# %bb.325:                              # %invoke.cont589
	ld.d	$a0, $s6, 0
	beqz	$a0, .LBB2_337
# %bb.326:                              # %if.then.i1193
.Ltmp392:                               # EH_LABEL
	pcalau12i	$a1, %pc_hi20(.L.str.67)
	addi.d	$a1, $a1, %pc_lo12(.L.str.67)
	ori	$a2, $zero, 18
	pcaddu18i	$ra, %call36(_ZSt16__ostream_insertIcSt11char_traitsIcEERSt13basic_ostreamIT_T0_ES6_PKS3_l)
	jirl	$ra, $ra, 0
.Ltmp393:                               # EH_LABEL
# %bb.327:                              # %invoke.cont591
	ld.d	$a0, $s6, 0
	beqz	$a0, .LBB2_337
# %bb.328:                              # %if.then.i1199
.Ltmp395:                               # EH_LABEL
	fmov.d	$fa0, $fs1
	pcaddu18i	$ra, %call36(_ZNSo9_M_insertIdEERSoT_)
	jirl	$ra, $ra, 0
.Ltmp396:                               # EH_LABEL
# %bb.329:                              # %invoke.cont595
	ld.d	$a0, $s6, 0
	beqz	$a0, .LBB2_337
# %bb.330:                              # %if.then.i1204
.Ltmp397:                               # EH_LABEL
	pcalau12i	$a1, %pc_hi20(.L.str.68)
	addi.d	$a1, $a1, %pc_lo12(.L.str.68)
	ori	$a2, $zero, 2
	pcaddu18i	$ra, %call36(_ZSt16__ostream_insertIcSt11char_traitsIcEERSt13basic_ostreamIT_T0_ES6_PKS3_l)
	jirl	$ra, $ra, 0
.Ltmp398:                               # EH_LABEL
# %bb.331:                              # %invoke.cont597
	ld.d	$a0, $s6, 0
	beqz	$a0, .LBB2_337
# %bb.332:                              # %if.then.i1210
.Ltmp400:                               # EH_LABEL
	pcalau12i	$a1, %pc_hi20(.LCPI2_2)
	fld.d	$fa0, $a1, %pc_lo12(.LCPI2_2)
	pcaddu18i	$ra, %call36(_ZNSo9_M_insertIdEERSoT_)
	jirl	$ra, $ra, 0
.Ltmp401:                               # EH_LABEL
# %bb.333:                              # %invoke.cont601
	ld.d	$a0, $s6, 0
	beqz	$a0, .LBB2_337
# %bb.334:                              # %if.then.i1215
.Ltmp402:                               # EH_LABEL
	pcalau12i	$a1, %pc_hi20(.L.str.69)
	addi.d	$a1, $a1, %pc_lo12(.L.str.69)
	ori	$a2, $zero, 4
	pcaddu18i	$ra, %call36(_ZSt16__ostream_insertIcSt11char_traitsIcEERSt13basic_ostreamIT_T0_ES6_PKS3_l)
	jirl	$ra, $ra, 0
.Ltmp403:                               # EH_LABEL
# %bb.335:                              # %invoke.cont603
	ld.d	$a0, $s6, 0
	beqz	$a0, .LBB2_337
# %bb.336:                              # %if.then.i1221
.Ltmp404:                               # EH_LABEL
	pcalau12i	$a1, %pc_hi20(.L.str.70)
	addi.d	$a1, $a1, %pc_lo12(.L.str.70)
	ori	$a2, $zero, 14
	pcaddu18i	$ra, %call36(_ZSt16__ostream_insertIcSt11char_traitsIcEERSt13basic_ostreamIT_T0_ES6_PKS3_l)
	jirl	$ra, $ra, 0
.Ltmp405:                               # EH_LABEL
.LBB2_337:                              # %invoke.cont605
	st.d	$s2, $sp, 96
	ori	$a0, $zero, 18
	st.d	$a0, $sp, 64
.Ltmp407:                               # EH_LABEL
	addi.d	$a0, $sp, 96
	addi.d	$a1, $sp, 64
	move	$a2, $zero
	pcaddu18i	$ra, %call36(_ZNSt7__cxx1112basic_stringIcSt11char_traitsIcESaIcEE9_M_createERmm)
	jirl	$ra, $ra, 0
.Ltmp408:                               # EH_LABEL
# %bb.338:                              # %call2.i5.i.noexc1235
	ld.d	$a1, $sp, 64
	vld	$vr0, $s5, 0
	st.d	$a0, $sp, 96
	st.d	$a1, $sp, 112
	vst	$vr0, $a0, 0
	st.h	$s4, $a0, 16
	ld.d	$a0, $sp, 96
	st.d	$a1, $sp, 104
	stx.b	$zero, $a0, $a1
.Ltmp410:                               # EH_LABEL
	addi.d	$a1, $sp, 96
	move	$a0, $fp
	pcaddu18i	$ra, %call36(_ZNK7Results5GetAsIdEET_RKNSt7__cxx1112basic_stringIcSt11char_traitsIcESaIcEEE)
	jirl	$ra, $ra, 0
.Ltmp411:                               # EH_LABEL
# %bb.339:                              # %invoke.cont613
	ld.d	$a0, $s6, 0
	beqz	$a0, .LBB2_343
# %bb.340:                              # %if.then.i1242
	fadd.d	$fa0, $fa0, $fs2
.Ltmp412:                               # EH_LABEL
	pcaddu18i	$ra, %call36(_ZNSo9_M_insertIdEERSoT_)
	jirl	$ra, $ra, 0
.Ltmp413:                               # EH_LABEL
# %bb.341:                              # %invoke.cont616
	ld.d	$a0, $s6, 0
	beqz	$a0, .LBB2_343
# %bb.342:                              # %if.then.i1247
.Ltmp414:                               # EH_LABEL
	pcalau12i	$a1, %pc_hi20(.L.str.68)
	addi.d	$a1, $a1, %pc_lo12(.L.str.68)
	ori	$a2, $zero, 2
	pcaddu18i	$ra, %call36(_ZSt16__ostream_insertIcSt11char_traitsIcEERSt13basic_ostreamIT_T0_ES6_PKS3_l)
	jirl	$ra, $ra, 0
.Ltmp415:                               # EH_LABEL
.LBB2_343:                              # %invoke.cont618
	st.d	$s3, $sp, 64
	ori	$a0, $zero, 18
	st.d	$a0, $sp, 200
.Ltmp417:                               # EH_LABEL
	addi.d	$a0, $sp, 64
	addi.d	$a1, $sp, 200
	move	$a2, $zero
	pcaddu18i	$ra, %call36(_ZNSt7__cxx1112basic_stringIcSt11char_traitsIcESaIcEE9_M_createERmm)
	jirl	$ra, $ra, 0
.Ltmp418:                               # EH_LABEL
# %bb.344:                              # %call2.i5.i.noexc1261
	ld.d	$a1, $sp, 200
	vld	$vr0, $s5, 0
	st.d	$a0, $sp, 64
	st.d	$a1, $sp, 80
	vst	$vr0, $a0, 0
	st.h	$s4, $a0, 16
	ld.d	$a0, $sp, 64
	st.d	$a1, $sp, 72
	stx.b	$zero, $a0, $a1
.Ltmp420:                               # EH_LABEL
	addi.d	$a1, $sp, 64
	move	$a0, $fp
	pcaddu18i	$ra, %call36(_ZNK7Results5GetAsIdEET_RKNSt7__cxx1112basic_stringIcSt11char_traitsIcESaIcEEE)
	jirl	$ra, $ra, 0
.Ltmp421:                               # EH_LABEL
# %bb.345:                              # %invoke.cont626
	ld.d	$a0, $s6, 0
	pcalau12i	$s4, %pc_hi20(.LCPI2_6)
	beqz	$a0, .LBB2_349
# %bb.346:                              # %if.then.i1268
	fld.d	$fa1, $s4, %pc_lo12(.LCPI2_6)
	fadd.d	$fa0, $fa0, $fs2
	fmul.d	$fa0, $fa0, $fa1
	fmul.d	$fa0, $fa0, $fs0
.Ltmp422:                               # EH_LABEL
	pcaddu18i	$ra, %call36(_ZNSo9_M_insertIdEERSoT_)
	jirl	$ra, $ra, 0
.Ltmp423:                               # EH_LABEL
# %bb.347:                              # %invoke.cont631
	ld.d	$a0, $s6, 0
	beqz	$a0, .LBB2_349
# %bb.348:                              # %if.then.i1273
.Ltmp424:                               # EH_LABEL
	pcalau12i	$a1, %pc_hi20(.L.str.71)
	addi.d	$a1, $a1, %pc_lo12(.L.str.71)
	ori	$a2, $zero, 2
	pcaddu18i	$ra, %call36(_ZSt16__ostream_insertIcSt11char_traitsIcEERSt13basic_ostreamIT_T0_ES6_PKS3_l)
	jirl	$ra, $ra, 0
.Ltmp425:                               # EH_LABEL
.LBB2_349:                              # %invoke.cont633
	ld.d	$a0, $sp, 64
	beq	$a0, $s3, .LBB2_351
# %bb.350:                              # %if.then.i.i1279
	ld.d	$a1, $sp, 80
	addi.d	$a1, $a1, 1
	pcaddu18i	$ra, %call36(_ZdlPvm)
	jirl	$ra, $ra, 0
.LBB2_351:                              # %_ZNSt7__cxx1112basic_stringIcSt11char_traitsIcESaIcEED2Ev.exit1284
	ld.d	$a0, $sp, 96
	beq	$a0, $s2, .LBB2_353
# %bb.352:                              # %if.then.i.i1286
	ld.d	$a1, $sp, 112
	addi.d	$a1, $a1, 1
	pcaddu18i	$ra, %call36(_ZdlPvm)
	jirl	$ra, $ra, 0
.LBB2_353:                              # %_ZNSt7__cxx1112basic_stringIcSt11char_traitsIcESaIcEED2Ev.exit1291
	ld.d	$a0, $sp, 128
	beq	$a0, $s1, .LBB2_355
# %bb.354:                              # %if.then.i.i1293
	ld.d	$a1, $sp, 144
	addi.d	$a1, $a1, 1
	pcaddu18i	$ra, %call36(_ZdlPvm)
	jirl	$ra, $ra, 0
.LBB2_355:                              # %_ZNSt7__cxx1112basic_stringIcSt11char_traitsIcESaIcEED2Ev.exit1298
	fcmp.clt.d	$fcc0, $fs3, $fs1
	bceqz	$fcc0, .LBB2_454
# %bb.356:                              # %cleanup.done667
	ld.d	$a0, $sp, 168
	beq	$a0, $s0, .LBB2_358
# %bb.357:                              # %if.then.i.i1328
	ld.d	$a1, $sp, 184
	addi.d	$a1, $a1, 1
	pcaddu18i	$ra, %call36(_ZdlPvm)
	jirl	$ra, $ra, 0
.LBB2_358:                              # %_ZNSt7__cxx1112basic_stringIcSt11char_traitsIcESaIcEED2Ev.exit1333
	st.d	$s0, $sp, 168
	ori	$a0, $zero, 18
	st.d	$a0, $sp, 128
.Ltmp427:                               # EH_LABEL
	addi.d	$a0, $sp, 168
	addi.d	$a1, $sp, 128
	move	$a2, $zero
	pcaddu18i	$ra, %call36(_ZNSt7__cxx1112basic_stringIcSt11char_traitsIcESaIcEE9_M_createERmm)
	jirl	$ra, $ra, 0
.Ltmp428:                               # EH_LABEL
# %bb.359:                              # %call2.i5.i.noexc1343
	ld.d	$a1, $sp, 128
	pcalau12i	$a2, %pc_hi20(.L.str.4)
	addi.d	$s6, $a2, %pc_lo12(.L.str.4)
	vld	$vr0, $s6, 0
	ld.h	$s5, $s6, 16
	st.d	$a0, $sp, 168
	st.d	$a1, $sp, 184
	vst	$vr0, $a0, 0
	st.h	$s5, $a0, 16
	ld.d	$a0, $sp, 168
	st.d	$a1, $sp, 176
	stx.b	$zero, $a0, $a1
.Ltmp430:                               # EH_LABEL
	addi.d	$a1, $sp, 168
	move	$a0, $fp
	pcaddu18i	$ra, %call36(_ZNK7Results5GetAsIdEET_RKNSt7__cxx1112basic_stringIcSt11char_traitsIcESaIcEEE)
	jirl	$ra, $ra, 0
.Ltmp431:                               # EH_LABEL
# %bb.360:                              # %invoke.cont681
	fadd.d	$fa0, $fa0, $fs2
	fabs.d	$fs3, $fa0
	fcmp.cule.d	$fcc0, $fs1, $fs3
	bceqz	$fcc0, .LBB2_363
# %bb.361:                              # %cond.false688
.Ltmp433:                               # EH_LABEL
	pcalau12i	$a0, %pc_hi20(.L.str.75)
	addi.d	$a1, $a0, %pc_lo12(.L.str.75)
	pcalau12i	$a0, %pc_hi20(.L.str.57)
	addi.d	$a2, $a0, %pc_lo12(.L.str.57)
	pcalau12i	$a0, %pc_hi20(.L__func__._Z14CheckThousandsRK7Results)
	addi.d	$a3, $a0, %pc_lo12(.L__func__._Z14CheckThousandsRK7Results)
	addi.d	$a0, $sp, 32
	ori	$a4, $zero, 178
	pcaddu18i	$ra, %call36(_ZN9benchmark8internal12CheckHandlerC2EPKcS3_S3_i)
	jirl	$ra, $ra, 0
.Ltmp434:                               # EH_LABEL
# %bb.362:                              # %invoke.cont692
	ld.d	$s7, $sp, 32
	b	.LBB2_364
.LBB2_363:                              # %cond.true685
	pcalau12i	$a0, %pc_hi20(_ZGVZN9benchmark8internal18GetNullLogInstanceEvE8null_log)
	ld.b	$a0, $a0, %pc_lo12(_ZGVZN9benchmark8internal18GetNullLogInstanceEvE8null_log)
	dbar	20
	pcalau12i	$a1, %pc_hi20(_ZZN9benchmark8internal18GetNullLogInstanceEvE8null_log)
	addi.d	$s7, $a1, %pc_lo12(_ZZN9benchmark8internal18GetNullLogInstanceEvE8null_log)
	beqz	$a0, .LBB2_466
.LBB2_364:                              # %cond.end697
	ld.d	$a0, $s7, 0
	beqz	$a0, .LBB2_396
# %bb.365:                              # %if.then.i1355
.Ltmp435:                               # EH_LABEL
	pcalau12i	$a1, %pc_hi20(.L.str.58)
	addi.d	$a1, $a1, %pc_lo12(.L.str.58)
	ori	$a2, $zero, 1
	pcaddu18i	$ra, %call36(_ZSt16__ostream_insertIcSt11char_traitsIcEERSt13basic_ostreamIT_T0_ES6_PKS3_l)
	jirl	$ra, $ra, 0
.Ltmp436:                               # EH_LABEL
# %bb.366:                              # %invoke.cont699
	ld.d	$a0, $s7, 0
	beqz	$a0, .LBB2_396
# %bb.367:                              # %if.then.i1361
.Ltmp437:                               # EH_LABEL
	pcalau12i	$a1, %pc_hi20(.L.str.57)
	addi.d	$a1, $a1, %pc_lo12(.L.str.57)
	ori	$a2, $zero, 96
	pcaddu18i	$ra, %call36(_ZSt16__ostream_insertIcSt11char_traitsIcEERSt13basic_ostreamIT_T0_ES6_PKS3_l)
	jirl	$ra, $ra, 0
.Ltmp438:                               # EH_LABEL
# %bb.368:                              # %invoke.cont701
	ld.d	$a0, $s7, 0
	beqz	$a0, .LBB2_396
# %bb.369:                              # %if.then.i1367
.Ltmp439:                               # EH_LABEL
	pcalau12i	$a1, %pc_hi20(.L.str.59)
	addi.d	$a1, $a1, %pc_lo12(.L.str.59)
	ori	$a2, $zero, 1
	pcaddu18i	$ra, %call36(_ZSt16__ostream_insertIcSt11char_traitsIcEERSt13basic_ostreamIT_T0_ES6_PKS3_l)
	jirl	$ra, $ra, 0
.Ltmp440:                               # EH_LABEL
# %bb.370:                              # %invoke.cont703
	ld.d	$a0, $s7, 0
	beqz	$a0, .LBB2_396
# %bb.371:                              # %if.then.i1373
.Ltmp442:                               # EH_LABEL
	ori	$a1, $zero, 178
	pcaddu18i	$ra, %call36(_ZNSolsEi)
	jirl	$ra, $ra, 0
.Ltmp443:                               # EH_LABEL
# %bb.372:                              # %invoke.cont707
	ld.d	$a0, $s7, 0
	beqz	$a0, .LBB2_396
# %bb.373:                              # %if.then.i1378
.Ltmp444:                               # EH_LABEL
	pcalau12i	$a1, %pc_hi20(.L.str.60)
	addi.d	$a1, $a1, %pc_lo12(.L.str.60)
	ori	$a2, $zero, 2
	pcaddu18i	$ra, %call36(_ZSt16__ostream_insertIcSt11char_traitsIcEERSt13basic_ostreamIT_T0_ES6_PKS3_l)
	jirl	$ra, $ra, 0
.Ltmp445:                               # EH_LABEL
# %bb.374:                              # %invoke.cont709
	ld.d	$a0, $s7, 0
	beqz	$a0, .LBB2_396
# %bb.375:                              # %if.then.i1384
	ld.d	$a1, $fp, 0
	ld.d	$a2, $fp, 8
.Ltmp446:                               # EH_LABEL
	pcaddu18i	$ra, %call36(_ZSt16__ostream_insertIcSt11char_traitsIcEERSt13basic_ostreamIT_T0_ES6_PKS3_l)
	jirl	$ra, $ra, 0
.Ltmp447:                               # EH_LABEL
# %bb.376:                              # %invoke.cont712
	ld.d	$a0, $s7, 0
	beqz	$a0, .LBB2_396
# %bb.377:                              # %if.then.i1391
.Ltmp448:                               # EH_LABEL
	pcalau12i	$a1, %pc_hi20(.L.str.61)
	addi.d	$a1, $a1, %pc_lo12(.L.str.61)
	ori	$a2, $zero, 2
	pcaddu18i	$ra, %call36(_ZSt16__ostream_insertIcSt11char_traitsIcEERSt13basic_ostreamIT_T0_ES6_PKS3_l)
	jirl	$ra, $ra, 0
.Ltmp449:                               # EH_LABEL
# %bb.378:                              # %invoke.cont714
	ld.d	$a0, $s7, 0
	beqz	$a0, .LBB2_396
# %bb.379:                              # %if.then.i1397
.Ltmp450:                               # EH_LABEL
	pcalau12i	$a1, %pc_hi20(.L.str.57)
	addi.d	$a1, $a1, %pc_lo12(.L.str.57)
	ori	$a2, $zero, 96
	pcaddu18i	$ra, %call36(_ZSt16__ostream_insertIcSt11char_traitsIcEERSt13basic_ostreamIT_T0_ES6_PKS3_l)
	jirl	$ra, $ra, 0
.Ltmp451:                               # EH_LABEL
# %bb.380:                              # %invoke.cont716
	ld.d	$a0, $s7, 0
	beqz	$a0, .LBB2_396
# %bb.381:                              # %if.then.i1403
.Ltmp452:                               # EH_LABEL
	pcalau12i	$a1, %pc_hi20(.L.str.59)
	addi.d	$a1, $a1, %pc_lo12(.L.str.59)
	ori	$a2, $zero, 1
	pcaddu18i	$ra, %call36(_ZSt16__ostream_insertIcSt11char_traitsIcEERSt13basic_ostreamIT_T0_ES6_PKS3_l)
	jirl	$ra, $ra, 0
.Ltmp453:                               # EH_LABEL
# %bb.382:                              # %invoke.cont718
	ld.d	$a0, $s7, 0
	beqz	$a0, .LBB2_396
# %bb.383:                              # %if.then.i1409
.Ltmp455:                               # EH_LABEL
	ori	$a1, $zero, 178
	pcaddu18i	$ra, %call36(_ZNSolsEi)
	jirl	$ra, $ra, 0
.Ltmp456:                               # EH_LABEL
# %bb.384:                              # %invoke.cont722
	ld.d	$a0, $s7, 0
	beqz	$a0, .LBB2_396
# %bb.385:                              # %if.then.i1414
.Ltmp457:                               # EH_LABEL
	pcalau12i	$a1, %pc_hi20(.L.str.60)
	addi.d	$a1, $a1, %pc_lo12(.L.str.60)
	ori	$a2, $zero, 2
	pcaddu18i	$ra, %call36(_ZSt16__ostream_insertIcSt11char_traitsIcEERSt13basic_ostreamIT_T0_ES6_PKS3_l)
	jirl	$ra, $ra, 0
.Ltmp458:                               # EH_LABEL
# %bb.386:                              # %invoke.cont724
	ld.d	$a0, $s7, 0
	beqz	$a0, .LBB2_396
# %bb.387:                              # %if.then.i1420
.Ltmp459:                               # EH_LABEL
	pcalau12i	$a1, %pc_hi20(.L.str.62)
	addi.d	$a1, $a1, %pc_lo12(.L.str.62)
	ori	$a2, $zero, 10
	pcaddu18i	$ra, %call36(_ZSt16__ostream_insertIcSt11char_traitsIcEERSt13basic_ostreamIT_T0_ES6_PKS3_l)
	jirl	$ra, $ra, 0
.Ltmp460:                               # EH_LABEL
# %bb.388:                              # %invoke.cont726
	ld.d	$a0, $s7, 0
	beqz	$a0, .LBB2_396
# %bb.389:                              # %if.then.i1426
.Ltmp461:                               # EH_LABEL
	pcalau12i	$a1, %pc_hi20(.L.str.63)
	addi.d	$a1, $a1, %pc_lo12(.L.str.63)
	ori	$a2, $zero, 6
	pcaddu18i	$ra, %call36(_ZSt16__ostream_insertIcSt11char_traitsIcEERSt13basic_ostreamIT_T0_ES6_PKS3_l)
	jirl	$ra, $ra, 0
.Ltmp462:                               # EH_LABEL
# %bb.390:                              # %invoke.cont728
	ld.d	$a0, $s7, 0
	beqz	$a0, .LBB2_396
# %bb.391:                              # %if.then.i1432
.Ltmp463:                               # EH_LABEL
	pcalau12i	$a1, %pc_hi20(.L.str.64)
	addi.d	$a1, $a1, %pc_lo12(.L.str.64)
	ori	$a2, $zero, 1
	pcaddu18i	$ra, %call36(_ZSt16__ostream_insertIcSt11char_traitsIcEERSt13basic_ostreamIT_T0_ES6_PKS3_l)
	jirl	$ra, $ra, 0
.Ltmp464:                               # EH_LABEL
# %bb.392:                              # %invoke.cont730
	ld.d	$a0, $s7, 0
	beqz	$a0, .LBB2_396
# %bb.393:                              # %if.then.i1438
.Ltmp465:                               # EH_LABEL
	pcalau12i	$a1, %pc_hi20(.L.str.4)
	addi.d	$a1, $a1, %pc_lo12(.L.str.4)
	ori	$a2, $zero, 18
	pcaddu18i	$ra, %call36(_ZSt16__ostream_insertIcSt11char_traitsIcEERSt13basic_ostreamIT_T0_ES6_PKS3_l)
	jirl	$ra, $ra, 0
.Ltmp466:                               # EH_LABEL
# %bb.394:                              # %invoke.cont732
	ld.d	$a0, $s7, 0
	beqz	$a0, .LBB2_396
# %bb.395:                              # %if.then.i1444
.Ltmp467:                               # EH_LABEL
	pcalau12i	$a1, %pc_hi20(.L.str.65)
	addi.d	$a1, $a1, %pc_lo12(.L.str.65)
	ori	$a2, $zero, 1
	pcaddu18i	$ra, %call36(_ZSt16__ostream_insertIcSt11char_traitsIcEERSt13basic_ostreamIT_T0_ES6_PKS3_l)
	jirl	$ra, $ra, 0
.Ltmp468:                               # EH_LABEL
.LBB2_396:                              # %invoke.cont734
	st.d	$s1, $sp, 128
	ori	$a0, $zero, 18
	st.d	$a0, $sp, 96
.Ltmp470:                               # EH_LABEL
	addi.d	$a0, $sp, 128
	addi.d	$a1, $sp, 96
	move	$a2, $zero
	pcaddu18i	$ra, %call36(_ZNSt7__cxx1112basic_stringIcSt11char_traitsIcESaIcEE9_M_createERmm)
	jirl	$ra, $ra, 0
.Ltmp471:                               # EH_LABEL
# %bb.397:                              # %call2.i5.i.noexc1458
	ld.d	$a1, $sp, 96
	vld	$vr0, $s6, 0
	st.d	$a0, $sp, 128
	st.d	$a1, $sp, 144
	vst	$vr0, $a0, 0
	st.h	$s5, $a0, 16
	ld.d	$a0, $sp, 128
	st.d	$a1, $sp, 136
	stx.b	$zero, $a0, $a1
.Ltmp473:                               # EH_LABEL
	addi.d	$a1, $sp, 128
	move	$a0, $fp
	pcaddu18i	$ra, %call36(_ZNK7Results5GetAsIdEET_RKNSt7__cxx1112basic_stringIcSt11char_traitsIcESaIcEEE)
	jirl	$ra, $ra, 0
.Ltmp474:                               # EH_LABEL
# %bb.398:                              # %invoke.cont742
	ld.d	$a0, $s7, 0
	beqz	$a0, .LBB2_426
# %bb.399:                              # %if.then.i1465
.Ltmp475:                               # EH_LABEL
	pcaddu18i	$ra, %call36(_ZNSo9_M_insertIdEERSoT_)
	jirl	$ra, $ra, 0
.Ltmp476:                               # EH_LABEL
# %bb.400:                              # %invoke.cont744
	ld.d	$a0, $s7, 0
	beqz	$a0, .LBB2_426
# %bb.401:                              # %if.then.i1470
.Ltmp477:                               # EH_LABEL
	pcalau12i	$a1, %pc_hi20(.L.str.66)
	addi.d	$a1, $a1, %pc_lo12(.L.str.66)
	ori	$a2, $zero, 13
	pcaddu18i	$ra, %call36(_ZSt16__ostream_insertIcSt11char_traitsIcEERSt13basic_ostreamIT_T0_ES6_PKS3_l)
	jirl	$ra, $ra, 0
.Ltmp478:                               # EH_LABEL
# %bb.402:                              # %invoke.cont746
	ld.d	$a0, $s7, 0
	beqz	$a0, .LBB2_426
# %bb.403:                              # %if.then.i1476
.Ltmp480:                               # EH_LABEL
	lu12i.w	$a1, 256
	pcaddu18i	$ra, %call36(_ZNSolsEi)
	jirl	$ra, $ra, 0
.Ltmp481:                               # EH_LABEL
# %bb.404:                              # %invoke.cont750
	ld.d	$a0, $s7, 0
	beqz	$a0, .LBB2_426
# %bb.405:                              # %if.then.i1481
.Ltmp482:                               # EH_LABEL
	pcalau12i	$a1, %pc_hi20(.L.str.58)
	addi.d	$a1, $a1, %pc_lo12(.L.str.58)
	ori	$a2, $zero, 1
	pcaddu18i	$ra, %call36(_ZSt16__ostream_insertIcSt11char_traitsIcEERSt13basic_ostreamIT_T0_ES6_PKS3_l)
	jirl	$ra, $ra, 0
.Ltmp483:                               # EH_LABEL
# %bb.406:                              # %invoke.cont752
	ld.d	$a0, $s7, 0
	beqz	$a0, .LBB2_426
# %bb.407:                              # %if.then.i1487
.Ltmp484:                               # EH_LABEL
	pcalau12i	$a1, %pc_hi20(.L.str.57)
	addi.d	$a1, $a1, %pc_lo12(.L.str.57)
	ori	$a2, $zero, 96
	pcaddu18i	$ra, %call36(_ZSt16__ostream_insertIcSt11char_traitsIcEERSt13basic_ostreamIT_T0_ES6_PKS3_l)
	jirl	$ra, $ra, 0
.Ltmp485:                               # EH_LABEL
# %bb.408:                              # %invoke.cont754
	ld.d	$a0, $s7, 0
	beqz	$a0, .LBB2_426
# %bb.409:                              # %if.then.i1493
.Ltmp486:                               # EH_LABEL
	pcalau12i	$a1, %pc_hi20(.L.str.59)
	addi.d	$a1, $a1, %pc_lo12(.L.str.59)
	ori	$a2, $zero, 1
	pcaddu18i	$ra, %call36(_ZSt16__ostream_insertIcSt11char_traitsIcEERSt13basic_ostreamIT_T0_ES6_PKS3_l)
	jirl	$ra, $ra, 0
.Ltmp487:                               # EH_LABEL
# %bb.410:                              # %invoke.cont756
	ld.d	$a0, $s7, 0
	beqz	$a0, .LBB2_426
# %bb.411:                              # %if.then.i1499
.Ltmp489:                               # EH_LABEL
	ori	$a1, $zero, 178
	pcaddu18i	$ra, %call36(_ZNSolsEi)
	jirl	$ra, $ra, 0
.Ltmp490:                               # EH_LABEL
# %bb.412:                              # %invoke.cont760
	ld.d	$a0, $s7, 0
	beqz	$a0, .LBB2_426
# %bb.413:                              # %if.then.i1504
.Ltmp491:                               # EH_LABEL
	pcalau12i	$a1, %pc_hi20(.L.str.60)
	addi.d	$a1, $a1, %pc_lo12(.L.str.60)
	ori	$a2, $zero, 2
	pcaddu18i	$ra, %call36(_ZSt16__ostream_insertIcSt11char_traitsIcEERSt13basic_ostreamIT_T0_ES6_PKS3_l)
	jirl	$ra, $ra, 0
.Ltmp492:                               # EH_LABEL
# %bb.414:                              # %invoke.cont762
	ld.d	$a0, $s7, 0
	beqz	$a0, .LBB2_426
# %bb.415:                              # %if.then.i1510
.Ltmp493:                               # EH_LABEL
	pcalau12i	$a1, %pc_hi20(.L.str.67)
	addi.d	$a1, $a1, %pc_lo12(.L.str.67)
	ori	$a2, $zero, 18
	pcaddu18i	$ra, %call36(_ZSt16__ostream_insertIcSt11char_traitsIcEERSt13basic_ostreamIT_T0_ES6_PKS3_l)
	jirl	$ra, $ra, 0
.Ltmp494:                               # EH_LABEL
# %bb.416:                              # %invoke.cont764
	ld.d	$a0, $s7, 0
	beqz	$a0, .LBB2_426
# %bb.417:                              # %if.then.i1516
.Ltmp496:                               # EH_LABEL
	fmov.d	$fa0, $fs1
	pcaddu18i	$ra, %call36(_ZNSo9_M_insertIdEERSoT_)
	jirl	$ra, $ra, 0
.Ltmp497:                               # EH_LABEL
# %bb.418:                              # %invoke.cont768
	ld.d	$a0, $s7, 0
	beqz	$a0, .LBB2_426
# %bb.419:                              # %if.then.i1521
.Ltmp498:                               # EH_LABEL
	pcalau12i	$a1, %pc_hi20(.L.str.68)
	addi.d	$a1, $a1, %pc_lo12(.L.str.68)
	ori	$a2, $zero, 2
	pcaddu18i	$ra, %call36(_ZSt16__ostream_insertIcSt11char_traitsIcEERSt13basic_ostreamIT_T0_ES6_PKS3_l)
	jirl	$ra, $ra, 0
.Ltmp499:                               # EH_LABEL
# %bb.420:                              # %invoke.cont770
	ld.d	$a0, $s7, 0
	beqz	$a0, .LBB2_426
# %bb.421:                              # %if.then.i1527
.Ltmp501:                               # EH_LABEL
	pcalau12i	$a1, %pc_hi20(.LCPI2_2)
	fld.d	$fa0, $a1, %pc_lo12(.LCPI2_2)
	pcaddu18i	$ra, %call36(_ZNSo9_M_insertIdEERSoT_)
	jirl	$ra, $ra, 0
.Ltmp502:                               # EH_LABEL
# %bb.422:                              # %invoke.cont774
	ld.d	$a0, $s7, 0
	beqz	$a0, .LBB2_426
# %bb.423:                              # %if.then.i1532
.Ltmp503:                               # EH_LABEL
	pcalau12i	$a1, %pc_hi20(.L.str.69)
	addi.d	$a1, $a1, %pc_lo12(.L.str.69)
	ori	$a2, $zero, 4
	pcaddu18i	$ra, %call36(_ZSt16__ostream_insertIcSt11char_traitsIcEERSt13basic_ostreamIT_T0_ES6_PKS3_l)
	jirl	$ra, $ra, 0
.Ltmp504:                               # EH_LABEL
# %bb.424:                              # %invoke.cont776
	ld.d	$a0, $s7, 0
	beqz	$a0, .LBB2_426
# %bb.425:                              # %if.then.i1538
.Ltmp505:                               # EH_LABEL
	pcalau12i	$a1, %pc_hi20(.L.str.70)
	addi.d	$a1, $a1, %pc_lo12(.L.str.70)
	ori	$a2, $zero, 14
	pcaddu18i	$ra, %call36(_ZSt16__ostream_insertIcSt11char_traitsIcEERSt13basic_ostreamIT_T0_ES6_PKS3_l)
	jirl	$ra, $ra, 0
.Ltmp506:                               # EH_LABEL
.LBB2_426:                              # %invoke.cont778
	st.d	$s2, $sp, 96
	ori	$a0, $zero, 18
	st.d	$a0, $sp, 64
.Ltmp508:                               # EH_LABEL
	addi.d	$a0, $sp, 96
	addi.d	$a1, $sp, 64
	move	$a2, $zero
	pcaddu18i	$ra, %call36(_ZNSt7__cxx1112basic_stringIcSt11char_traitsIcESaIcEE9_M_createERmm)
	jirl	$ra, $ra, 0
.Ltmp509:                               # EH_LABEL
# %bb.427:                              # %call2.i5.i.noexc1552
	ld.d	$a1, $sp, 64
	vld	$vr0, $s6, 0
	st.d	$a0, $sp, 96
	st.d	$a1, $sp, 112
	vst	$vr0, $a0, 0
	st.h	$s5, $a0, 16
	ld.d	$a0, $sp, 96
	st.d	$a1, $sp, 104
	stx.b	$zero, $a0, $a1
.Ltmp511:                               # EH_LABEL
	addi.d	$a1, $sp, 96
	move	$a0, $fp
	pcaddu18i	$ra, %call36(_ZNK7Results5GetAsIdEET_RKNSt7__cxx1112basic_stringIcSt11char_traitsIcESaIcEEE)
	jirl	$ra, $ra, 0
.Ltmp512:                               # EH_LABEL
# %bb.428:                              # %invoke.cont786
	ld.d	$a0, $s7, 0
	beqz	$a0, .LBB2_432
# %bb.429:                              # %if.then.i1559
	fadd.d	$fa0, $fa0, $fs2
.Ltmp513:                               # EH_LABEL
	pcaddu18i	$ra, %call36(_ZNSo9_M_insertIdEERSoT_)
	jirl	$ra, $ra, 0
.Ltmp514:                               # EH_LABEL
# %bb.430:                              # %invoke.cont789
	ld.d	$a0, $s7, 0
	beqz	$a0, .LBB2_432
# %bb.431:                              # %if.then.i1564
.Ltmp515:                               # EH_LABEL
	pcalau12i	$a1, %pc_hi20(.L.str.68)
	addi.d	$a1, $a1, %pc_lo12(.L.str.68)
	ori	$a2, $zero, 2
	pcaddu18i	$ra, %call36(_ZSt16__ostream_insertIcSt11char_traitsIcEERSt13basic_ostreamIT_T0_ES6_PKS3_l)
	jirl	$ra, $ra, 0
.Ltmp516:                               # EH_LABEL
.LBB2_432:                              # %invoke.cont791
	st.d	$s3, $sp, 64
	ori	$a0, $zero, 18
	st.d	$a0, $sp, 200
.Ltmp518:                               # EH_LABEL
	addi.d	$a0, $sp, 64
	addi.d	$a1, $sp, 200
	move	$a2, $zero
	pcaddu18i	$ra, %call36(_ZNSt7__cxx1112basic_stringIcSt11char_traitsIcESaIcEE9_M_createERmm)
	jirl	$ra, $ra, 0
.Ltmp519:                               # EH_LABEL
# %bb.433:                              # %call2.i5.i.noexc1578
	ld.d	$a1, $sp, 200
	vld	$vr0, $s6, 0
	st.d	$a0, $sp, 64
	st.d	$a1, $sp, 80
	vst	$vr0, $a0, 0
	st.h	$s5, $a0, 16
	ld.d	$a0, $sp, 64
	st.d	$a1, $sp, 72
	stx.b	$zero, $a0, $a1
.Ltmp521:                               # EH_LABEL
	addi.d	$a1, $sp, 64
	move	$a0, $fp
	pcaddu18i	$ra, %call36(_ZNK7Results5GetAsIdEET_RKNSt7__cxx1112basic_stringIcSt11char_traitsIcESaIcEEE)
	jirl	$ra, $ra, 0
.Ltmp522:                               # EH_LABEL
# %bb.434:                              # %invoke.cont799
	ld.d	$a0, $s7, 0
	beqz	$a0, .LBB2_438
# %bb.435:                              # %if.then.i1585
	fld.d	$fa1, $s4, %pc_lo12(.LCPI2_6)
	fadd.d	$fa0, $fa0, $fs2
	fmul.d	$fa0, $fa0, $fa1
	fmul.d	$fa0, $fa0, $fs0
.Ltmp523:                               # EH_LABEL
	pcaddu18i	$ra, %call36(_ZNSo9_M_insertIdEERSoT_)
	jirl	$ra, $ra, 0
.Ltmp524:                               # EH_LABEL
# %bb.436:                              # %invoke.cont804
	ld.d	$a0, $s7, 0
	beqz	$a0, .LBB2_438
# %bb.437:                              # %if.then.i1590
.Ltmp525:                               # EH_LABEL
	pcalau12i	$a1, %pc_hi20(.L.str.71)
	addi.d	$a1, $a1, %pc_lo12(.L.str.71)
	ori	$a2, $zero, 2
	pcaddu18i	$ra, %call36(_ZSt16__ostream_insertIcSt11char_traitsIcEERSt13basic_ostreamIT_T0_ES6_PKS3_l)
	jirl	$ra, $ra, 0
.Ltmp526:                               # EH_LABEL
.LBB2_438:                              # %invoke.cont806
	ld.d	$a0, $sp, 64
	beq	$a0, $s3, .LBB2_440
# %bb.439:                              # %if.then.i.i1596
	ld.d	$a1, $sp, 80
	addi.d	$a1, $a1, 1
	pcaddu18i	$ra, %call36(_ZdlPvm)
	jirl	$ra, $ra, 0
.LBB2_440:                              # %_ZNSt7__cxx1112basic_stringIcSt11char_traitsIcESaIcEED2Ev.exit1601
	ld.d	$a0, $sp, 96
	beq	$a0, $s2, .LBB2_442
# %bb.441:                              # %if.then.i.i1603
	ld.d	$a1, $sp, 112
	addi.d	$a1, $a1, 1
	pcaddu18i	$ra, %call36(_ZdlPvm)
	jirl	$ra, $ra, 0
.LBB2_442:                              # %_ZNSt7__cxx1112basic_stringIcSt11char_traitsIcESaIcEED2Ev.exit1608
	ld.d	$a0, $sp, 128
	beq	$a0, $s1, .LBB2_444
# %bb.443:                              # %if.then.i.i1610
	ld.d	$a1, $sp, 144
	addi.d	$a1, $a1, 1
	pcaddu18i	$ra, %call36(_ZdlPvm)
	jirl	$ra, $ra, 0
.LBB2_444:                              # %_ZNSt7__cxx1112basic_stringIcSt11char_traitsIcESaIcEED2Ev.exit1615
	fcmp.clt.d	$fcc0, $fs3, $fs1
	bceqz	$fcc0, .LBB2_456
# %bb.445:                              # %cleanup.done840
	ld.d	$a0, $sp, 168
	beq	$a0, $s0, .LBB2_447
# %bb.446:                              # %if.then.i.i1645
	ld.d	$a1, $sp, 184
	addi.d	$a1, $a1, 1
	pcaddu18i	$ra, %call36(_ZdlPvm)
	jirl	$ra, $ra, 0
.LBB2_447:                              # %return
	fld.d	$fs3, $sp, 208                  # 8-byte Folded Reload
	fld.d	$fs2, $sp, 216                  # 8-byte Folded Reload
	fld.d	$fs1, $sp, 224                  # 8-byte Folded Reload
	fld.d	$fs0, $sp, 232                  # 8-byte Folded Reload
	ld.d	$s7, $sp, 240                   # 8-byte Folded Reload
	ld.d	$s6, $sp, 248                   # 8-byte Folded Reload
	ld.d	$s5, $sp, 256                   # 8-byte Folded Reload
	ld.d	$s4, $sp, 264                   # 8-byte Folded Reload
	ld.d	$s3, $sp, 272                   # 8-byte Folded Reload
	ld.d	$s2, $sp, 280                   # 8-byte Folded Reload
	ld.d	$s1, $sp, 288                   # 8-byte Folded Reload
	ld.d	$s0, $sp, 296                   # 8-byte Folded Reload
	ld.d	$fp, $sp, 304                   # 8-byte Folded Reload
	ld.d	$ra, $sp, 312                   # 8-byte Folded Reload
	addi.d	$sp, $sp, 320
	ret
.LBB2_448:                              # %cleanup.action
.Ltmp543:                               # EH_LABEL
	addi.d	$a0, $sp, 160
	pcaddu18i	$ra, %call36(_ZN9benchmark8internal12CheckHandlerD2Ev)
	jirl	$ra, $ra, 0
.Ltmp544:                               # EH_LABEL
# %bb.449:                              # %invoke.cont140
.LBB2_450:                              # %cleanup.action311
.Ltmp540:                               # EH_LABEL
	addi.d	$a0, $sp, 56
	pcaddu18i	$ra, %call36(_ZN9benchmark8internal12CheckHandlerD2Ev)
	jirl	$ra, $ra, 0
.Ltmp541:                               # EH_LABEL
# %bb.451:                              # %invoke.cont312
.LBB2_452:                              # %cleanup.action484
.Ltmp537:                               # EH_LABEL
	addi.d	$a0, $sp, 48
	pcaddu18i	$ra, %call36(_ZN9benchmark8internal12CheckHandlerD2Ev)
	jirl	$ra, $ra, 0
.Ltmp538:                               # EH_LABEL
# %bb.453:                              # %invoke.cont485
.LBB2_454:                              # %cleanup.action657
.Ltmp534:                               # EH_LABEL
	addi.d	$a0, $sp, 40
	pcaddu18i	$ra, %call36(_ZN9benchmark8internal12CheckHandlerD2Ev)
	jirl	$ra, $ra, 0
.Ltmp535:                               # EH_LABEL
# %bb.455:                              # %invoke.cont658
.LBB2_456:                              # %cleanup.action830
.Ltmp531:                               # EH_LABEL
	addi.d	$a0, $sp, 32
	pcaddu18i	$ra, %call36(_ZN9benchmark8internal12CheckHandlerD2Ev)
	jirl	$ra, $ra, 0
.Ltmp532:                               # EH_LABEL
# %bb.457:                              # %invoke.cont831
.LBB2_458:                              # %init.check.i
	pcalau12i	$a0, %pc_hi20(_ZGVZN9benchmark8internal18GetNullLogInstanceEvE8null_log)
	addi.d	$a0, $a0, %pc_lo12(_ZGVZN9benchmark8internal18GetNullLogInstanceEvE8null_log)
	pcaddu18i	$ra, %call36(__cxa_guard_acquire)
	jirl	$ra, $ra, 0
	addi.w	$a0, $a0, 0
	beqz	$a0, .LBB2_8
# %bb.459:                              # %init.i
	pcalau12i	$a0, %pc_hi20(_ZZN9benchmark8internal18GetNullLogInstanceEvE8null_log)
	addi.d	$s6, $a0, %pc_lo12(_ZZN9benchmark8internal18GetNullLogInstanceEvE8null_log)
	st.d	$zero, $s6, 0
	pcalau12i	$a0, %pc_hi20(_ZGVZN9benchmark8internal18GetNullLogInstanceEvE8null_log)
	addi.d	$a0, $a0, %pc_lo12(_ZGVZN9benchmark8internal18GetNullLogInstanceEvE8null_log)
	pcaddu18i	$ra, %call36(__cxa_guard_release)
	jirl	$ra, $ra, 0
	b	.LBB2_8
.LBB2_460:                              # %init.check.i399
	pcalau12i	$a0, %pc_hi20(_ZGVZN9benchmark8internal18GetNullLogInstanceEvE8null_log)
	addi.d	$a0, $a0, %pc_lo12(_ZGVZN9benchmark8internal18GetNullLogInstanceEvE8null_log)
	pcaddu18i	$ra, %call36(__cxa_guard_acquire)
	jirl	$ra, $ra, 0
	addi.w	$a0, $a0, 0
	beqz	$a0, .LBB2_97
# %bb.461:                              # %init.i401
	pcalau12i	$a0, %pc_hi20(_ZZN9benchmark8internal18GetNullLogInstanceEvE8null_log)
	addi.d	$s7, $a0, %pc_lo12(_ZZN9benchmark8internal18GetNullLogInstanceEvE8null_log)
	st.d	$zero, $s7, 0
	pcalau12i	$a0, %pc_hi20(_ZGVZN9benchmark8internal18GetNullLogInstanceEvE8null_log)
	addi.d	$a0, $a0, %pc_lo12(_ZGVZN9benchmark8internal18GetNullLogInstanceEvE8null_log)
	pcaddu18i	$ra, %call36(__cxa_guard_release)
	jirl	$ra, $ra, 0
	b	.LBB2_97
.LBB2_462:                              # %init.check.i716
	pcalau12i	$a0, %pc_hi20(_ZGVZN9benchmark8internal18GetNullLogInstanceEvE8null_log)
	addi.d	$a0, $a0, %pc_lo12(_ZGVZN9benchmark8internal18GetNullLogInstanceEvE8null_log)
	pcaddu18i	$ra, %call36(__cxa_guard_acquire)
	jirl	$ra, $ra, 0
	addi.w	$a0, $a0, 0
	beqz	$a0, .LBB2_186
# %bb.463:                              # %init.i718
	pcalau12i	$a0, %pc_hi20(_ZZN9benchmark8internal18GetNullLogInstanceEvE8null_log)
	addi.d	$s7, $a0, %pc_lo12(_ZZN9benchmark8internal18GetNullLogInstanceEvE8null_log)
	st.d	$zero, $s7, 0
	pcalau12i	$a0, %pc_hi20(_ZGVZN9benchmark8internal18GetNullLogInstanceEvE8null_log)
	addi.d	$a0, $a0, %pc_lo12(_ZGVZN9benchmark8internal18GetNullLogInstanceEvE8null_log)
	pcaddu18i	$ra, %call36(__cxa_guard_release)
	jirl	$ra, $ra, 0
	b	.LBB2_186
.LBB2_464:                              # %init.check.i1033
	pcalau12i	$a0, %pc_hi20(_ZGVZN9benchmark8internal18GetNullLogInstanceEvE8null_log)
	addi.d	$a0, $a0, %pc_lo12(_ZGVZN9benchmark8internal18GetNullLogInstanceEvE8null_log)
	pcaddu18i	$ra, %call36(__cxa_guard_acquire)
	jirl	$ra, $ra, 0
	addi.w	$a0, $a0, 0
	beqz	$a0, .LBB2_275
# %bb.465:                              # %init.i1035
	pcalau12i	$a0, %pc_hi20(_ZZN9benchmark8internal18GetNullLogInstanceEvE8null_log)
	addi.d	$s6, $a0, %pc_lo12(_ZZN9benchmark8internal18GetNullLogInstanceEvE8null_log)
	st.d	$zero, $s6, 0
	pcalau12i	$a0, %pc_hi20(_ZGVZN9benchmark8internal18GetNullLogInstanceEvE8null_log)
	addi.d	$a0, $a0, %pc_lo12(_ZGVZN9benchmark8internal18GetNullLogInstanceEvE8null_log)
	pcaddu18i	$ra, %call36(__cxa_guard_release)
	jirl	$ra, $ra, 0
	b	.LBB2_275
.LBB2_466:                              # %init.check.i1350
	pcalau12i	$a0, %pc_hi20(_ZGVZN9benchmark8internal18GetNullLogInstanceEvE8null_log)
	addi.d	$a0, $a0, %pc_lo12(_ZGVZN9benchmark8internal18GetNullLogInstanceEvE8null_log)
	pcaddu18i	$ra, %call36(__cxa_guard_acquire)
	jirl	$ra, $ra, 0
	addi.w	$a0, $a0, 0
	beqz	$a0, .LBB2_364
# %bb.467:                              # %init.i1352
	pcalau12i	$a0, %pc_hi20(_ZZN9benchmark8internal18GetNullLogInstanceEvE8null_log)
	addi.d	$s7, $a0, %pc_lo12(_ZZN9benchmark8internal18GetNullLogInstanceEvE8null_log)
	st.d	$zero, $s7, 0
	pcalau12i	$a0, %pc_hi20(_ZGVZN9benchmark8internal18GetNullLogInstanceEvE8null_log)
	addi.d	$a0, $a0, %pc_lo12(_ZGVZN9benchmark8internal18GetNullLogInstanceEvE8null_log)
	pcaddu18i	$ra, %call36(__cxa_guard_release)
	jirl	$ra, $ra, 0
	b	.LBB2_364
.LBB2_468:                              # %lpad773
.Ltmp507:                               # EH_LABEL
	move	$fp, $a0
	ld.d	$a0, $sp, 128
	beq	$a0, $s1, .LBB2_542
	b	.LBB2_550
.LBB2_469:                              # %lpad600
.Ltmp406:                               # EH_LABEL
	move	$fp, $a0
	ld.d	$a0, $sp, 128
	beq	$a0, $s1, .LBB2_554
	b	.LBB2_558
.LBB2_470:                              # %lpad427
.Ltmp305:                               # EH_LABEL
	move	$fp, $a0
	ld.d	$a0, $sp, 128
	beq	$a0, $s1, .LBB2_563
	b	.LBB2_567
.LBB2_471:                              # %lpad254
.Ltmp204:                               # EH_LABEL
	move	$fp, $a0
	ld.d	$a0, $sp, 128
	beq	$a0, $s1, .LBB2_572
	b	.LBB2_576
.LBB2_472:                              # %lpad88
.Ltmp103:                               # EH_LABEL
	move	$fp, $a0
	ld.d	$a0, $sp, 128
	bne	$a0, $s1, .LBB2_581
	b	.LBB2_582
.LBB2_473:                              # %lpad767
.Ltmp500:                               # EH_LABEL
	move	$fp, $a0
	ld.d	$a0, $sp, 128
	beq	$a0, $s1, .LBB2_542
	b	.LBB2_550
.LBB2_474:                              # %lpad594
.Ltmp399:                               # EH_LABEL
	move	$fp, $a0
	ld.d	$a0, $sp, 128
	beq	$a0, $s1, .LBB2_554
	b	.LBB2_558
.LBB2_475:                              # %lpad421
.Ltmp298:                               # EH_LABEL
	move	$fp, $a0
	ld.d	$a0, $sp, 128
	beq	$a0, $s1, .LBB2_563
	b	.LBB2_567
.LBB2_476:                              # %lpad248
.Ltmp197:                               # EH_LABEL
	move	$fp, $a0
	ld.d	$a0, $sp, 128
	beq	$a0, $s1, .LBB2_572
	b	.LBB2_576
.LBB2_477:                              # %lpad82
.Ltmp96:                                # EH_LABEL
	move	$fp, $a0
	ld.d	$a0, $sp, 128
	bne	$a0, $s1, .LBB2_581
	b	.LBB2_582
.LBB2_478:                              # %lpad721
.Ltmp469:                               # EH_LABEL
	b	.LBB2_524
.LBB2_479:                              # %lpad548
.Ltmp368:                               # EH_LABEL
	b	.LBB2_526
.LBB2_480:                              # %lpad375
.Ltmp267:                               # EH_LABEL
	b	.LBB2_528
.LBB2_481:                              # %lpad202
.Ltmp166:                               # EH_LABEL
	b	.LBB2_530
.LBB2_482:                              # %lpad36
.Ltmp65:                                # EH_LABEL
	b	.LBB2_532
.LBB2_483:                              # %lpad759
.Ltmp495:                               # EH_LABEL
	move	$fp, $a0
	ld.d	$a0, $sp, 128
	beq	$a0, $s1, .LBB2_542
	b	.LBB2_550
.LBB2_484:                              # %lpad586
.Ltmp394:                               # EH_LABEL
	move	$fp, $a0
	ld.d	$a0, $sp, 128
	beq	$a0, $s1, .LBB2_554
	b	.LBB2_558
.LBB2_485:                              # %lpad413
.Ltmp293:                               # EH_LABEL
	move	$fp, $a0
	ld.d	$a0, $sp, 128
	beq	$a0, $s1, .LBB2_563
	b	.LBB2_567
.LBB2_486:                              # %lpad240
.Ltmp192:                               # EH_LABEL
	move	$fp, $a0
	ld.d	$a0, $sp, 128
	beq	$a0, $s1, .LBB2_572
	b	.LBB2_576
.LBB2_487:                              # %lpad74
.Ltmp91:                                # EH_LABEL
	move	$fp, $a0
	ld.d	$a0, $sp, 128
	bne	$a0, $s1, .LBB2_581
	b	.LBB2_582
.LBB2_488:                              # %lpad706
.Ltmp454:                               # EH_LABEL
	b	.LBB2_524
.LBB2_489:                              # %lpad533
.Ltmp353:                               # EH_LABEL
	b	.LBB2_526
.LBB2_490:                              # %lpad360
.Ltmp252:                               # EH_LABEL
	b	.LBB2_528
.LBB2_491:                              # %lpad187
.Ltmp151:                               # EH_LABEL
	b	.LBB2_530
.LBB2_492:                              # %lpad21
.Ltmp50:                                # EH_LABEL
	b	.LBB2_532
.LBB2_493:                              # %lpad749
.Ltmp488:                               # EH_LABEL
	move	$fp, $a0
	ld.d	$a0, $sp, 128
	beq	$a0, $s1, .LBB2_542
	b	.LBB2_550
.LBB2_494:                              # %lpad576
.Ltmp387:                               # EH_LABEL
	move	$fp, $a0
	ld.d	$a0, $sp, 128
	beq	$a0, $s1, .LBB2_554
	b	.LBB2_558
.LBB2_495:                              # %lpad403
.Ltmp286:                               # EH_LABEL
	move	$fp, $a0
	ld.d	$a0, $sp, 128
	beq	$a0, $s1, .LBB2_563
	b	.LBB2_567
.LBB2_496:                              # %lpad230
.Ltmp185:                               # EH_LABEL
	move	$fp, $a0
	ld.d	$a0, $sp, 128
	beq	$a0, $s1, .LBB2_572
	b	.LBB2_576
.LBB2_497:                              # %lpad64
.Ltmp84:                                # EH_LABEL
	move	$fp, $a0
	ld.d	$a0, $sp, 128
	bne	$a0, $s1, .LBB2_581
	b	.LBB2_582
.LBB2_498:                              # %lpad796
.Ltmp520:                               # EH_LABEL
	move	$fp, $a0
	ld.d	$a0, $sp, 96
	beq	$a0, $s2, .LBB2_541
	b	.LBB2_548
.LBB2_499:                              # %lpad783
.Ltmp510:                               # EH_LABEL
	move	$fp, $a0
	ld.d	$a0, $sp, 128
	beq	$a0, $s1, .LBB2_542
	b	.LBB2_550
.LBB2_500:                              # %lpad739
.Ltmp472:                               # EH_LABEL
	b	.LBB2_524
.LBB2_501:                              # %lpad680
.Ltmp432:                               # EH_LABEL
	b	.LBB2_538
.LBB2_502:                              # %lpad678
.Ltmp429:                               # EH_LABEL
	pcaddu18i	$ra, %call36(_Unwind_Resume)
	jirl	$ra, $ra, 0
.LBB2_503:                              # %lpad623
.Ltmp419:                               # EH_LABEL
	move	$fp, $a0
	ld.d	$a0, $sp, 96
	beq	$a0, $s2, .LBB2_553
	b	.LBB2_557
.LBB2_504:                              # %lpad610
.Ltmp409:                               # EH_LABEL
	move	$fp, $a0
	ld.d	$a0, $sp, 128
	beq	$a0, $s1, .LBB2_554
	b	.LBB2_558
.LBB2_505:                              # %lpad566
.Ltmp371:                               # EH_LABEL
	b	.LBB2_526
.LBB2_506:                              # %lpad507
.Ltmp331:                               # EH_LABEL
	b	.LBB2_538
.LBB2_507:                              # %lpad505
.Ltmp328:                               # EH_LABEL
	pcaddu18i	$ra, %call36(_Unwind_Resume)
	jirl	$ra, $ra, 0
.LBB2_508:                              # %lpad450
.Ltmp318:                               # EH_LABEL
	move	$fp, $a0
	ld.d	$a0, $sp, 96
	beq	$a0, $s2, .LBB2_562
	b	.LBB2_566
.LBB2_509:                              # %lpad437
.Ltmp308:                               # EH_LABEL
	move	$fp, $a0
	ld.d	$a0, $sp, 128
	beq	$a0, $s1, .LBB2_563
	b	.LBB2_567
.LBB2_510:                              # %lpad393
.Ltmp270:                               # EH_LABEL
	b	.LBB2_528
.LBB2_511:                              # %lpad334
.Ltmp230:                               # EH_LABEL
	b	.LBB2_538
.LBB2_512:                              # %lpad332
.Ltmp227:                               # EH_LABEL
	pcaddu18i	$ra, %call36(_Unwind_Resume)
	jirl	$ra, $ra, 0
.LBB2_513:                              # %lpad277
.Ltmp217:                               # EH_LABEL
	move	$fp, $a0
	ld.d	$a0, $sp, 96
	beq	$a0, $s2, .LBB2_571
	b	.LBB2_575
.LBB2_514:                              # %lpad264
.Ltmp207:                               # EH_LABEL
	move	$fp, $a0
	ld.d	$a0, $sp, 128
	beq	$a0, $s1, .LBB2_572
	b	.LBB2_576
.LBB2_515:                              # %lpad220
.Ltmp169:                               # EH_LABEL
	b	.LBB2_530
.LBB2_516:                              # %lpad161
.Ltmp129:                               # EH_LABEL
	b	.LBB2_538
.LBB2_517:                              # %lpad159
.Ltmp126:                               # EH_LABEL
	pcaddu18i	$ra, %call36(_Unwind_Resume)
	jirl	$ra, $ra, 0
.LBB2_518:                              # %lpad111
.Ltmp116:                               # EH_LABEL
	move	$fp, $a0
	ld.d	$a0, $sp, 96
	beq	$a0, $s2, .LBB2_580
	b	.LBB2_588
.LBB2_519:                              # %lpad98
.Ltmp106:                               # EH_LABEL
	move	$fp, $a0
	ld.d	$a0, $sp, 128
	bne	$a0, $s1, .LBB2_581
	b	.LBB2_582
.LBB2_520:                              # %lpad54
.Ltmp68:                                # EH_LABEL
	b	.LBB2_532
.LBB2_521:                              # %lpad2
.Ltmp28:                                # EH_LABEL
	b	.LBB2_538
.LBB2_522:                              # %lpad
.Ltmp25:                                # EH_LABEL
	pcaddu18i	$ra, %call36(_Unwind_Resume)
	jirl	$ra, $ra, 0
.LBB2_523:                              # %lpad694
.Ltmp441:                               # EH_LABEL
.LBB2_524:                              # %ehcleanup833
	move	$fp, $a0
	fcmp.clt.d	$fcc0, $fs3, $fs1
	addi.d	$a0, $sp, 32
	bcnez	$fcc0, .LBB2_543
	b	.LBB2_584
.LBB2_525:                              # %lpad521
.Ltmp340:                               # EH_LABEL
.LBB2_526:                              # %ehcleanup660
	move	$fp, $a0
	b	.LBB2_554
.LBB2_527:                              # %lpad348
.Ltmp239:                               # EH_LABEL
.LBB2_528:                              # %ehcleanup487
	move	$fp, $a0
	b	.LBB2_563
.LBB2_529:                              # %lpad175
.Ltmp138:                               # EH_LABEL
.LBB2_530:                              # %ehcleanup314
	move	$fp, $a0
	b	.LBB2_572
.LBB2_531:                              # %lpad11
.Ltmp37:                                # EH_LABEL
.LBB2_532:                              # %ehcleanup141
	move	$fp, $a0
	b	.LBB2_582
.LBB2_533:                              # %cleanup.action843
.Ltmp533:                               # EH_LABEL
	b	.LBB2_538
.LBB2_534:                              # %cleanup.action670
.Ltmp536:                               # EH_LABEL
	b	.LBB2_538
.LBB2_535:                              # %cleanup.action497
.Ltmp539:                               # EH_LABEL
	b	.LBB2_538
.LBB2_536:                              # %cleanup.action324
.Ltmp542:                               # EH_LABEL
	b	.LBB2_538
.LBB2_537:                              # %cleanup.action151
.Ltmp545:                               # EH_LABEL
.LBB2_538:                              # %ehcleanup845
	move	$fp, $a0
	b	.LBB2_543
.LBB2_539:                              # %lpad798
.Ltmp527:                               # EH_LABEL
	ld.d	$a2, $sp, 64
	move	$fp, $a0
	bne	$a2, $s3, .LBB2_546
# %bb.540:                              # %ehcleanup813
	ld.d	$a0, $sp, 96
	bne	$a0, $s2, .LBB2_548
.LBB2_541:                              # %ehcleanup822
	ld.d	$a0, $sp, 128
	bne	$a0, $s1, .LBB2_550
.LBB2_542:                              # %ehcleanup833
	fcmp.clt.d	$fcc0, $fs3, $fs1
	addi.d	$a0, $sp, 32
	bceqz	$fcc0, .LBB2_584
.LBB2_543:                              # %ehcleanup845
	ld.d	$a0, $sp, 168
	beq	$a0, $s0, .LBB2_545
# %bb.544:                              # %if.then.i.i1652
	ld.d	$a1, $sp, 184
	addi.d	$a1, $a1, 1
	pcaddu18i	$ra, %call36(_ZdlPvm)
	jirl	$ra, $ra, 0
.LBB2_545:                              # %eh.resume
	move	$a0, $fp
	pcaddu18i	$ra, %call36(_Unwind_Resume)
	jirl	$ra, $ra, 0
.LBB2_546:                              # %if.then.i.i1624
	ld.d	$a0, $sp, 80
	addi.d	$a1, $a0, 1
	move	$a0, $a2
	pcaddu18i	$ra, %call36(_ZdlPvm)
	jirl	$ra, $ra, 0
	ld.d	$a0, $sp, 96
	beq	$a0, $s2, .LBB2_541
	b	.LBB2_548
.LBB2_547:                              # %lpad785
.Ltmp517:                               # EH_LABEL
	move	$fp, $a0
	ld.d	$a0, $sp, 96
	beq	$a0, $s2, .LBB2_541
.LBB2_548:                              # %if.then.i.i1631
	ld.d	$a1, $sp, 112
	addi.d	$a1, $a1, 1
	pcaddu18i	$ra, %call36(_ZdlPvm)
	jirl	$ra, $ra, 0
	ld.d	$a0, $sp, 128
	beq	$a0, $s1, .LBB2_542
	b	.LBB2_550
.LBB2_549:                              # %lpad741
.Ltmp479:                               # EH_LABEL
	move	$fp, $a0
	ld.d	$a0, $sp, 128
	beq	$a0, $s1, .LBB2_542
.LBB2_550:                              # %if.then.i.i1638
	ld.d	$a1, $sp, 144
	addi.d	$a1, $a1, 1
	pcaddu18i	$ra, %call36(_ZdlPvm)
	jirl	$ra, $ra, 0
	fcmp.clt.d	$fcc0, $fs3, $fs1
	addi.d	$a0, $sp, 32
	bcnez	$fcc0, .LBB2_543
	b	.LBB2_584
.LBB2_551:                              # %lpad625
.Ltmp426:                               # EH_LABEL
	ld.d	$a2, $sp, 64
	move	$fp, $a0
	bne	$a2, $s3, .LBB2_555
# %bb.552:                              # %ehcleanup640
	ld.d	$a0, $sp, 96
	bne	$a0, $s2, .LBB2_557
.LBB2_553:                              # %ehcleanup649
	ld.d	$a0, $sp, 128
	bne	$a0, $s1, .LBB2_558
.LBB2_554:                              # %ehcleanup660
	addi.d	$a0, $sp, 40
	b	.LBB2_583
.LBB2_555:                              # %if.then.i.i1307
	ld.d	$a0, $sp, 80
	addi.d	$a1, $a0, 1
	move	$a0, $a2
	pcaddu18i	$ra, %call36(_ZdlPvm)
	jirl	$ra, $ra, 0
	ld.d	$a0, $sp, 96
	beq	$a0, $s2, .LBB2_553
	b	.LBB2_557
.LBB2_556:                              # %lpad612
.Ltmp416:                               # EH_LABEL
	move	$fp, $a0
	ld.d	$a0, $sp, 96
	beq	$a0, $s2, .LBB2_553
.LBB2_557:                              # %if.then.i.i1314
	ld.d	$a1, $sp, 112
	addi.d	$a1, $a1, 1
	pcaddu18i	$ra, %call36(_ZdlPvm)
	jirl	$ra, $ra, 0
	ld.d	$a0, $sp, 128
	beq	$a0, $s1, .LBB2_554
.LBB2_558:                              # %if.then.i.i1321
	ld.d	$a1, $sp, 144
	addi.d	$a1, $a1, 1
	pcaddu18i	$ra, %call36(_ZdlPvm)
	jirl	$ra, $ra, 0
	addi.d	$a0, $sp, 40
	b	.LBB2_583
.LBB2_559:                              # %lpad568
.Ltmp378:                               # EH_LABEL
	move	$fp, $a0
	ld.d	$a0, $sp, 128
	beq	$a0, $s1, .LBB2_554
	b	.LBB2_558
.LBB2_560:                              # %lpad452
.Ltmp325:                               # EH_LABEL
	ld.d	$a2, $sp, 64
	move	$fp, $a0
	bne	$a2, $s3, .LBB2_564
# %bb.561:                              # %ehcleanup467
	ld.d	$a0, $sp, 96
	bne	$a0, $s2, .LBB2_566
.LBB2_562:                              # %ehcleanup476
	ld.d	$a0, $sp, 128
	bne	$a0, $s1, .LBB2_567
.LBB2_563:                              # %ehcleanup487
	addi.d	$a0, $sp, 48
	b	.LBB2_583
.LBB2_564:                              # %if.then.i.i990
	ld.d	$a0, $sp, 80
	addi.d	$a1, $a0, 1
	move	$a0, $a2
	pcaddu18i	$ra, %call36(_ZdlPvm)
	jirl	$ra, $ra, 0
	ld.d	$a0, $sp, 96
	beq	$a0, $s2, .LBB2_562
	b	.LBB2_566
.LBB2_565:                              # %lpad439
.Ltmp315:                               # EH_LABEL
	move	$fp, $a0
	ld.d	$a0, $sp, 96
	beq	$a0, $s2, .LBB2_562
.LBB2_566:                              # %if.then.i.i997
	ld.d	$a1, $sp, 112
	addi.d	$a1, $a1, 1
	pcaddu18i	$ra, %call36(_ZdlPvm)
	jirl	$ra, $ra, 0
	ld.d	$a0, $sp, 128
	beq	$a0, $s1, .LBB2_563
.LBB2_567:                              # %if.then.i.i1004
	ld.d	$a1, $sp, 144
	addi.d	$a1, $a1, 1
	pcaddu18i	$ra, %call36(_ZdlPvm)
	jirl	$ra, $ra, 0
	addi.d	$a0, $sp, 48
	b	.LBB2_583
.LBB2_568:                              # %lpad395
.Ltmp277:                               # EH_LABEL
	move	$fp, $a0
	ld.d	$a0, $sp, 128
	beq	$a0, $s1, .LBB2_563
	b	.LBB2_567
.LBB2_569:                              # %lpad279
.Ltmp224:                               # EH_LABEL
	ld.d	$a2, $sp, 64
	move	$fp, $a0
	bne	$a2, $s3, .LBB2_573
# %bb.570:                              # %ehcleanup294
	ld.d	$a0, $sp, 96
	bne	$a0, $s2, .LBB2_575
.LBB2_571:                              # %ehcleanup303
	ld.d	$a0, $sp, 128
	bne	$a0, $s1, .LBB2_576
.LBB2_572:                              # %ehcleanup314
	addi.d	$a0, $sp, 56
	b	.LBB2_583
.LBB2_573:                              # %if.then.i.i673
	ld.d	$a0, $sp, 80
	addi.d	$a1, $a0, 1
	move	$a0, $a2
	pcaddu18i	$ra, %call36(_ZdlPvm)
	jirl	$ra, $ra, 0
	ld.d	$a0, $sp, 96
	beq	$a0, $s2, .LBB2_571
	b	.LBB2_575
.LBB2_574:                              # %lpad266
.Ltmp214:                               # EH_LABEL
	move	$fp, $a0
	ld.d	$a0, $sp, 96
	beq	$a0, $s2, .LBB2_571
.LBB2_575:                              # %if.then.i.i680
	ld.d	$a1, $sp, 112
	addi.d	$a1, $a1, 1
	pcaddu18i	$ra, %call36(_ZdlPvm)
	jirl	$ra, $ra, 0
	ld.d	$a0, $sp, 128
	beq	$a0, $s1, .LBB2_572
.LBB2_576:                              # %if.then.i.i687
	ld.d	$a1, $sp, 144
	addi.d	$a1, $a1, 1
	pcaddu18i	$ra, %call36(_ZdlPvm)
	jirl	$ra, $ra, 0
	addi.d	$a0, $sp, 56
	b	.LBB2_583
.LBB2_577:                              # %lpad222
.Ltmp176:                               # EH_LABEL
	move	$fp, $a0
	ld.d	$a0, $sp, 128
	beq	$a0, $s1, .LBB2_572
	b	.LBB2_576
.LBB2_578:                              # %lpad113
.Ltmp123:                               # EH_LABEL
	ld.d	$a2, $sp, 64
	move	$fp, $a0
	bne	$a2, $s3, .LBB2_586
# %bb.579:                              # %ehcleanup124
	ld.d	$a0, $sp, 96
	bne	$a0, $s2, .LBB2_588
.LBB2_580:                              # %ehcleanup133
	ld.d	$a0, $sp, 128
	beq	$a0, $s1, .LBB2_582
.LBB2_581:                              # %if.then.i.i370
	ld.d	$a1, $sp, 144
	addi.d	$a1, $a1, 1
	pcaddu18i	$ra, %call36(_ZdlPvm)
	jirl	$ra, $ra, 0
.LBB2_582:                              # %ehcleanup141
	addi.d	$a0, $sp, 160
.LBB2_583:                              # %ehcleanup141
	ld.d	$a1, $sp, 24
	movgr2cf	$fcc0, $a1
	bceqz	$fcc0, .LBB2_543
.LBB2_584:                              # %cleanup.action835.invoke
.Ltmp528:                               # EH_LABEL
	pcaddu18i	$ra, %call36(_ZN9benchmark8internal12CheckHandlerD2Ev)
	jirl	$ra, $ra, 0
.Ltmp529:                               # EH_LABEL
# %bb.585:                              # %cleanup.action835.cont
.LBB2_586:                              # %if.then.i.i356
	ld.d	$a0, $sp, 80
	addi.d	$a1, $a0, 1
	move	$a0, $a2
	pcaddu18i	$ra, %call36(_ZdlPvm)
	jirl	$ra, $ra, 0
	ld.d	$a0, $sp, 96
	beq	$a0, $s2, .LBB2_580
	b	.LBB2_588
.LBB2_587:                              # %lpad100
.Ltmp113:                               # EH_LABEL
	move	$fp, $a0
	ld.d	$a0, $sp, 96
	beq	$a0, $s2, .LBB2_580
.LBB2_588:                              # %if.then.i.i363
	ld.d	$a1, $sp, 112
	addi.d	$a1, $a1, 1
	pcaddu18i	$ra, %call36(_ZdlPvm)
	jirl	$ra, $ra, 0
	ld.d	$a0, $sp, 128
	bne	$a0, $s1, .LBB2_581
	b	.LBB2_582
.LBB2_589:                              # %lpad56
.Ltmp75:                                # EH_LABEL
	move	$fp, $a0
	ld.d	$a0, $sp, 128
	bne	$a0, $s1, .LBB2_581
	b	.LBB2_582
.LBB2_590:                              # %terminate.lpad
.Ltmp530:                               # EH_LABEL
	pcaddu18i	$ra, %call36(__clang_call_terminate)
	jirl	$ra, $ra, 0
.Lfunc_end2:
	.size	_Z14CheckThousandsRK7Results, .Lfunc_end2-_Z14CheckThousandsRK7Results
	.cfi_endproc
	.section	.gcc_except_table,"a",@progbits
	.p2align	2, 0x0
GCC_except_table2:
.Lexception1:
	.byte	255                             # @LPStart Encoding = omit
	.byte	155                             # @TType Encoding = indirect pcrel sdata4
	.uleb128 .Lttbase0-.Lttbaseref0
.Lttbaseref0:
	.byte	1                               # Call site Encoding = uleb128
	.uleb128 .Lcst_end1-.Lcst_begin1
.Lcst_begin1:
	.uleb128 .Lfunc_begin1-.Lfunc_begin1    # >> Call Site 1 <<
	.uleb128 .Ltmp23-.Lfunc_begin1          #   Call between .Lfunc_begin1 and .Ltmp23
	.byte	0                               #     has no landing pad
	.byte	0                               #   On action: cleanup
	.uleb128 .Ltmp23-.Lfunc_begin1          # >> Call Site 2 <<
	.uleb128 .Ltmp24-.Ltmp23                #   Call between .Ltmp23 and .Ltmp24
	.uleb128 .Ltmp25-.Lfunc_begin1          #     jumps to .Ltmp25
	.byte	0                               #   On action: cleanup
	.uleb128 .Ltmp26-.Lfunc_begin1          # >> Call Site 3 <<
	.uleb128 .Ltmp27-.Ltmp26                #   Call between .Ltmp26 and .Ltmp27
	.uleb128 .Ltmp28-.Lfunc_begin1          #     jumps to .Ltmp28
	.byte	0                               #   On action: cleanup
	.uleb128 .Ltmp29-.Lfunc_begin1          # >> Call Site 4 <<
	.uleb128 .Ltmp30-.Ltmp29                #   Call between .Ltmp29 and .Ltmp30
	.uleb128 .Ltmp545-.Lfunc_begin1         #     jumps to .Ltmp545
	.byte	0                               #   On action: cleanup
	.uleb128 .Ltmp31-.Lfunc_begin1          # >> Call Site 5 <<
	.uleb128 .Ltmp36-.Ltmp31                #   Call between .Ltmp31 and .Ltmp36
	.uleb128 .Ltmp37-.Lfunc_begin1          #     jumps to .Ltmp37
	.byte	0                               #   On action: cleanup
	.uleb128 .Ltmp38-.Lfunc_begin1          # >> Call Site 6 <<
	.uleb128 .Ltmp49-.Ltmp38                #   Call between .Ltmp38 and .Ltmp49
	.uleb128 .Ltmp50-.Lfunc_begin1          #     jumps to .Ltmp50
	.byte	0                               #   On action: cleanup
	.uleb128 .Ltmp51-.Lfunc_begin1          # >> Call Site 7 <<
	.uleb128 .Ltmp64-.Ltmp51                #   Call between .Ltmp51 and .Ltmp64
	.uleb128 .Ltmp65-.Lfunc_begin1          #     jumps to .Ltmp65
	.byte	0                               #   On action: cleanup
	.uleb128 .Ltmp66-.Lfunc_begin1          # >> Call Site 8 <<
	.uleb128 .Ltmp67-.Ltmp66                #   Call between .Ltmp66 and .Ltmp67
	.uleb128 .Ltmp68-.Lfunc_begin1          #     jumps to .Ltmp68
	.byte	0                               #   On action: cleanup
	.uleb128 .Ltmp69-.Lfunc_begin1          # >> Call Site 9 <<
	.uleb128 .Ltmp74-.Ltmp69                #   Call between .Ltmp69 and .Ltmp74
	.uleb128 .Ltmp75-.Lfunc_begin1          #     jumps to .Ltmp75
	.byte	0                               #   On action: cleanup
	.uleb128 .Ltmp76-.Lfunc_begin1          # >> Call Site 10 <<
	.uleb128 .Ltmp83-.Ltmp76                #   Call between .Ltmp76 and .Ltmp83
	.uleb128 .Ltmp84-.Lfunc_begin1          #     jumps to .Ltmp84
	.byte	0                               #   On action: cleanup
	.uleb128 .Ltmp85-.Lfunc_begin1          # >> Call Site 11 <<
	.uleb128 .Ltmp90-.Ltmp85                #   Call between .Ltmp85 and .Ltmp90
	.uleb128 .Ltmp91-.Lfunc_begin1          #     jumps to .Ltmp91
	.byte	0                               #   On action: cleanup
	.uleb128 .Ltmp92-.Lfunc_begin1          # >> Call Site 12 <<
	.uleb128 .Ltmp95-.Ltmp92                #   Call between .Ltmp92 and .Ltmp95
	.uleb128 .Ltmp96-.Lfunc_begin1          #     jumps to .Ltmp96
	.byte	0                               #   On action: cleanup
	.uleb128 .Ltmp97-.Lfunc_begin1          # >> Call Site 13 <<
	.uleb128 .Ltmp102-.Ltmp97               #   Call between .Ltmp97 and .Ltmp102
	.uleb128 .Ltmp103-.Lfunc_begin1         #     jumps to .Ltmp103
	.byte	0                               #   On action: cleanup
	.uleb128 .Ltmp104-.Lfunc_begin1         # >> Call Site 14 <<
	.uleb128 .Ltmp105-.Ltmp104              #   Call between .Ltmp104 and .Ltmp105
	.uleb128 .Ltmp106-.Lfunc_begin1         #     jumps to .Ltmp106
	.byte	0                               #   On action: cleanup
	.uleb128 .Ltmp107-.Lfunc_begin1         # >> Call Site 15 <<
	.uleb128 .Ltmp112-.Ltmp107              #   Call between .Ltmp107 and .Ltmp112
	.uleb128 .Ltmp113-.Lfunc_begin1         #     jumps to .Ltmp113
	.byte	0                               #   On action: cleanup
	.uleb128 .Ltmp114-.Lfunc_begin1         # >> Call Site 16 <<
	.uleb128 .Ltmp115-.Ltmp114              #   Call between .Ltmp114 and .Ltmp115
	.uleb128 .Ltmp116-.Lfunc_begin1         #     jumps to .Ltmp116
	.byte	0                               #   On action: cleanup
	.uleb128 .Ltmp117-.Lfunc_begin1         # >> Call Site 17 <<
	.uleb128 .Ltmp122-.Ltmp117              #   Call between .Ltmp117 and .Ltmp122
	.uleb128 .Ltmp123-.Lfunc_begin1         #     jumps to .Ltmp123
	.byte	0                               #   On action: cleanup
	.uleb128 .Ltmp122-.Lfunc_begin1         # >> Call Site 18 <<
	.uleb128 .Ltmp124-.Ltmp122              #   Call between .Ltmp122 and .Ltmp124
	.byte	0                               #     has no landing pad
	.byte	0                               #   On action: cleanup
	.uleb128 .Ltmp124-.Lfunc_begin1         # >> Call Site 19 <<
	.uleb128 .Ltmp125-.Ltmp124              #   Call between .Ltmp124 and .Ltmp125
	.uleb128 .Ltmp126-.Lfunc_begin1         #     jumps to .Ltmp126
	.byte	0                               #   On action: cleanup
	.uleb128 .Ltmp127-.Lfunc_begin1         # >> Call Site 20 <<
	.uleb128 .Ltmp128-.Ltmp127              #   Call between .Ltmp127 and .Ltmp128
	.uleb128 .Ltmp129-.Lfunc_begin1         #     jumps to .Ltmp129
	.byte	0                               #   On action: cleanup
	.uleb128 .Ltmp130-.Lfunc_begin1         # >> Call Site 21 <<
	.uleb128 .Ltmp131-.Ltmp130              #   Call between .Ltmp130 and .Ltmp131
	.uleb128 .Ltmp542-.Lfunc_begin1         #     jumps to .Ltmp542
	.byte	0                               #   On action: cleanup
	.uleb128 .Ltmp132-.Lfunc_begin1         # >> Call Site 22 <<
	.uleb128 .Ltmp137-.Ltmp132              #   Call between .Ltmp132 and .Ltmp137
	.uleb128 .Ltmp138-.Lfunc_begin1         #     jumps to .Ltmp138
	.byte	0                               #   On action: cleanup
	.uleb128 .Ltmp139-.Lfunc_begin1         # >> Call Site 23 <<
	.uleb128 .Ltmp150-.Ltmp139              #   Call between .Ltmp139 and .Ltmp150
	.uleb128 .Ltmp151-.Lfunc_begin1         #     jumps to .Ltmp151
	.byte	0                               #   On action: cleanup
	.uleb128 .Ltmp152-.Lfunc_begin1         # >> Call Site 24 <<
	.uleb128 .Ltmp165-.Ltmp152              #   Call between .Ltmp152 and .Ltmp165
	.uleb128 .Ltmp166-.Lfunc_begin1         #     jumps to .Ltmp166
	.byte	0                               #   On action: cleanup
	.uleb128 .Ltmp167-.Lfunc_begin1         # >> Call Site 25 <<
	.uleb128 .Ltmp168-.Ltmp167              #   Call between .Ltmp167 and .Ltmp168
	.uleb128 .Ltmp169-.Lfunc_begin1         #     jumps to .Ltmp169
	.byte	0                               #   On action: cleanup
	.uleb128 .Ltmp170-.Lfunc_begin1         # >> Call Site 26 <<
	.uleb128 .Ltmp175-.Ltmp170              #   Call between .Ltmp170 and .Ltmp175
	.uleb128 .Ltmp176-.Lfunc_begin1         #     jumps to .Ltmp176
	.byte	0                               #   On action: cleanup
	.uleb128 .Ltmp177-.Lfunc_begin1         # >> Call Site 27 <<
	.uleb128 .Ltmp184-.Ltmp177              #   Call between .Ltmp177 and .Ltmp184
	.uleb128 .Ltmp185-.Lfunc_begin1         #     jumps to .Ltmp185
	.byte	0                               #   On action: cleanup
	.uleb128 .Ltmp186-.Lfunc_begin1         # >> Call Site 28 <<
	.uleb128 .Ltmp191-.Ltmp186              #   Call between .Ltmp186 and .Ltmp191
	.uleb128 .Ltmp192-.Lfunc_begin1         #     jumps to .Ltmp192
	.byte	0                               #   On action: cleanup
	.uleb128 .Ltmp193-.Lfunc_begin1         # >> Call Site 29 <<
	.uleb128 .Ltmp196-.Ltmp193              #   Call between .Ltmp193 and .Ltmp196
	.uleb128 .Ltmp197-.Lfunc_begin1         #     jumps to .Ltmp197
	.byte	0                               #   On action: cleanup
	.uleb128 .Ltmp198-.Lfunc_begin1         # >> Call Site 30 <<
	.uleb128 .Ltmp203-.Ltmp198              #   Call between .Ltmp198 and .Ltmp203
	.uleb128 .Ltmp204-.Lfunc_begin1         #     jumps to .Ltmp204
	.byte	0                               #   On action: cleanup
	.uleb128 .Ltmp205-.Lfunc_begin1         # >> Call Site 31 <<
	.uleb128 .Ltmp206-.Ltmp205              #   Call between .Ltmp205 and .Ltmp206
	.uleb128 .Ltmp207-.Lfunc_begin1         #     jumps to .Ltmp207
	.byte	0                               #   On action: cleanup
	.uleb128 .Ltmp208-.Lfunc_begin1         # >> Call Site 32 <<
	.uleb128 .Ltmp213-.Ltmp208              #   Call between .Ltmp208 and .Ltmp213
	.uleb128 .Ltmp214-.Lfunc_begin1         #     jumps to .Ltmp214
	.byte	0                               #   On action: cleanup
	.uleb128 .Ltmp215-.Lfunc_begin1         # >> Call Site 33 <<
	.uleb128 .Ltmp216-.Ltmp215              #   Call between .Ltmp215 and .Ltmp216
	.uleb128 .Ltmp217-.Lfunc_begin1         #     jumps to .Ltmp217
	.byte	0                               #   On action: cleanup
	.uleb128 .Ltmp218-.Lfunc_begin1         # >> Call Site 34 <<
	.uleb128 .Ltmp223-.Ltmp218              #   Call between .Ltmp218 and .Ltmp223
	.uleb128 .Ltmp224-.Lfunc_begin1         #     jumps to .Ltmp224
	.byte	0                               #   On action: cleanup
	.uleb128 .Ltmp223-.Lfunc_begin1         # >> Call Site 35 <<
	.uleb128 .Ltmp225-.Ltmp223              #   Call between .Ltmp223 and .Ltmp225
	.byte	0                               #     has no landing pad
	.byte	0                               #   On action: cleanup
	.uleb128 .Ltmp225-.Lfunc_begin1         # >> Call Site 36 <<
	.uleb128 .Ltmp226-.Ltmp225              #   Call between .Ltmp225 and .Ltmp226
	.uleb128 .Ltmp227-.Lfunc_begin1         #     jumps to .Ltmp227
	.byte	0                               #   On action: cleanup
	.uleb128 .Ltmp228-.Lfunc_begin1         # >> Call Site 37 <<
	.uleb128 .Ltmp229-.Ltmp228              #   Call between .Ltmp228 and .Ltmp229
	.uleb128 .Ltmp230-.Lfunc_begin1         #     jumps to .Ltmp230
	.byte	0                               #   On action: cleanup
	.uleb128 .Ltmp231-.Lfunc_begin1         # >> Call Site 38 <<
	.uleb128 .Ltmp232-.Ltmp231              #   Call between .Ltmp231 and .Ltmp232
	.uleb128 .Ltmp539-.Lfunc_begin1         #     jumps to .Ltmp539
	.byte	0                               #   On action: cleanup
	.uleb128 .Ltmp233-.Lfunc_begin1         # >> Call Site 39 <<
	.uleb128 .Ltmp238-.Ltmp233              #   Call between .Ltmp233 and .Ltmp238
	.uleb128 .Ltmp239-.Lfunc_begin1         #     jumps to .Ltmp239
	.byte	0                               #   On action: cleanup
	.uleb128 .Ltmp240-.Lfunc_begin1         # >> Call Site 40 <<
	.uleb128 .Ltmp251-.Ltmp240              #   Call between .Ltmp240 and .Ltmp251
	.uleb128 .Ltmp252-.Lfunc_begin1         #     jumps to .Ltmp252
	.byte	0                               #   On action: cleanup
	.uleb128 .Ltmp253-.Lfunc_begin1         # >> Call Site 41 <<
	.uleb128 .Ltmp266-.Ltmp253              #   Call between .Ltmp253 and .Ltmp266
	.uleb128 .Ltmp267-.Lfunc_begin1         #     jumps to .Ltmp267
	.byte	0                               #   On action: cleanup
	.uleb128 .Ltmp268-.Lfunc_begin1         # >> Call Site 42 <<
	.uleb128 .Ltmp269-.Ltmp268              #   Call between .Ltmp268 and .Ltmp269
	.uleb128 .Ltmp270-.Lfunc_begin1         #     jumps to .Ltmp270
	.byte	0                               #   On action: cleanup
	.uleb128 .Ltmp271-.Lfunc_begin1         # >> Call Site 43 <<
	.uleb128 .Ltmp276-.Ltmp271              #   Call between .Ltmp271 and .Ltmp276
	.uleb128 .Ltmp277-.Lfunc_begin1         #     jumps to .Ltmp277
	.byte	0                               #   On action: cleanup
	.uleb128 .Ltmp278-.Lfunc_begin1         # >> Call Site 44 <<
	.uleb128 .Ltmp285-.Ltmp278              #   Call between .Ltmp278 and .Ltmp285
	.uleb128 .Ltmp286-.Lfunc_begin1         #     jumps to .Ltmp286
	.byte	0                               #   On action: cleanup
	.uleb128 .Ltmp287-.Lfunc_begin1         # >> Call Site 45 <<
	.uleb128 .Ltmp292-.Ltmp287              #   Call between .Ltmp287 and .Ltmp292
	.uleb128 .Ltmp293-.Lfunc_begin1         #     jumps to .Ltmp293
	.byte	0                               #   On action: cleanup
	.uleb128 .Ltmp294-.Lfunc_begin1         # >> Call Site 46 <<
	.uleb128 .Ltmp297-.Ltmp294              #   Call between .Ltmp294 and .Ltmp297
	.uleb128 .Ltmp298-.Lfunc_begin1         #     jumps to .Ltmp298
	.byte	0                               #   On action: cleanup
	.uleb128 .Ltmp299-.Lfunc_begin1         # >> Call Site 47 <<
	.uleb128 .Ltmp304-.Ltmp299              #   Call between .Ltmp299 and .Ltmp304
	.uleb128 .Ltmp305-.Lfunc_begin1         #     jumps to .Ltmp305
	.byte	0                               #   On action: cleanup
	.uleb128 .Ltmp306-.Lfunc_begin1         # >> Call Site 48 <<
	.uleb128 .Ltmp307-.Ltmp306              #   Call between .Ltmp306 and .Ltmp307
	.uleb128 .Ltmp308-.Lfunc_begin1         #     jumps to .Ltmp308
	.byte	0                               #   On action: cleanup
	.uleb128 .Ltmp309-.Lfunc_begin1         # >> Call Site 49 <<
	.uleb128 .Ltmp314-.Ltmp309              #   Call between .Ltmp309 and .Ltmp314
	.uleb128 .Ltmp315-.Lfunc_begin1         #     jumps to .Ltmp315
	.byte	0                               #   On action: cleanup
	.uleb128 .Ltmp316-.Lfunc_begin1         # >> Call Site 50 <<
	.uleb128 .Ltmp317-.Ltmp316              #   Call between .Ltmp316 and .Ltmp317
	.uleb128 .Ltmp318-.Lfunc_begin1         #     jumps to .Ltmp318
	.byte	0                               #   On action: cleanup
	.uleb128 .Ltmp319-.Lfunc_begin1         # >> Call Site 51 <<
	.uleb128 .Ltmp324-.Ltmp319              #   Call between .Ltmp319 and .Ltmp324
	.uleb128 .Ltmp325-.Lfunc_begin1         #     jumps to .Ltmp325
	.byte	0                               #   On action: cleanup
	.uleb128 .Ltmp324-.Lfunc_begin1         # >> Call Site 52 <<
	.uleb128 .Ltmp326-.Ltmp324              #   Call between .Ltmp324 and .Ltmp326
	.byte	0                               #     has no landing pad
	.byte	0                               #   On action: cleanup
	.uleb128 .Ltmp326-.Lfunc_begin1         # >> Call Site 53 <<
	.uleb128 .Ltmp327-.Ltmp326              #   Call between .Ltmp326 and .Ltmp327
	.uleb128 .Ltmp328-.Lfunc_begin1         #     jumps to .Ltmp328
	.byte	0                               #   On action: cleanup
	.uleb128 .Ltmp329-.Lfunc_begin1         # >> Call Site 54 <<
	.uleb128 .Ltmp330-.Ltmp329              #   Call between .Ltmp329 and .Ltmp330
	.uleb128 .Ltmp331-.Lfunc_begin1         #     jumps to .Ltmp331
	.byte	0                               #   On action: cleanup
	.uleb128 .Ltmp332-.Lfunc_begin1         # >> Call Site 55 <<
	.uleb128 .Ltmp333-.Ltmp332              #   Call between .Ltmp332 and .Ltmp333
	.uleb128 .Ltmp536-.Lfunc_begin1         #     jumps to .Ltmp536
	.byte	0                               #   On action: cleanup
	.uleb128 .Ltmp334-.Lfunc_begin1         # >> Call Site 56 <<
	.uleb128 .Ltmp339-.Ltmp334              #   Call between .Ltmp334 and .Ltmp339
	.uleb128 .Ltmp340-.Lfunc_begin1         #     jumps to .Ltmp340
	.byte	0                               #   On action: cleanup
	.uleb128 .Ltmp341-.Lfunc_begin1         # >> Call Site 57 <<
	.uleb128 .Ltmp352-.Ltmp341              #   Call between .Ltmp341 and .Ltmp352
	.uleb128 .Ltmp353-.Lfunc_begin1         #     jumps to .Ltmp353
	.byte	0                               #   On action: cleanup
	.uleb128 .Ltmp354-.Lfunc_begin1         # >> Call Site 58 <<
	.uleb128 .Ltmp367-.Ltmp354              #   Call between .Ltmp354 and .Ltmp367
	.uleb128 .Ltmp368-.Lfunc_begin1         #     jumps to .Ltmp368
	.byte	0                               #   On action: cleanup
	.uleb128 .Ltmp369-.Lfunc_begin1         # >> Call Site 59 <<
	.uleb128 .Ltmp370-.Ltmp369              #   Call between .Ltmp369 and .Ltmp370
	.uleb128 .Ltmp371-.Lfunc_begin1         #     jumps to .Ltmp371
	.byte	0                               #   On action: cleanup
	.uleb128 .Ltmp372-.Lfunc_begin1         # >> Call Site 60 <<
	.uleb128 .Ltmp377-.Ltmp372              #   Call between .Ltmp372 and .Ltmp377
	.uleb128 .Ltmp378-.Lfunc_begin1         #     jumps to .Ltmp378
	.byte	0                               #   On action: cleanup
	.uleb128 .Ltmp379-.Lfunc_begin1         # >> Call Site 61 <<
	.uleb128 .Ltmp386-.Ltmp379              #   Call between .Ltmp379 and .Ltmp386
	.uleb128 .Ltmp387-.Lfunc_begin1         #     jumps to .Ltmp387
	.byte	0                               #   On action: cleanup
	.uleb128 .Ltmp388-.Lfunc_begin1         # >> Call Site 62 <<
	.uleb128 .Ltmp393-.Ltmp388              #   Call between .Ltmp388 and .Ltmp393
	.uleb128 .Ltmp394-.Lfunc_begin1         #     jumps to .Ltmp394
	.byte	0                               #   On action: cleanup
	.uleb128 .Ltmp395-.Lfunc_begin1         # >> Call Site 63 <<
	.uleb128 .Ltmp398-.Ltmp395              #   Call between .Ltmp395 and .Ltmp398
	.uleb128 .Ltmp399-.Lfunc_begin1         #     jumps to .Ltmp399
	.byte	0                               #   On action: cleanup
	.uleb128 .Ltmp400-.Lfunc_begin1         # >> Call Site 64 <<
	.uleb128 .Ltmp405-.Ltmp400              #   Call between .Ltmp400 and .Ltmp405
	.uleb128 .Ltmp406-.Lfunc_begin1         #     jumps to .Ltmp406
	.byte	0                               #   On action: cleanup
	.uleb128 .Ltmp407-.Lfunc_begin1         # >> Call Site 65 <<
	.uleb128 .Ltmp408-.Ltmp407              #   Call between .Ltmp407 and .Ltmp408
	.uleb128 .Ltmp409-.Lfunc_begin1         #     jumps to .Ltmp409
	.byte	0                               #   On action: cleanup
	.uleb128 .Ltmp410-.Lfunc_begin1         # >> Call Site 66 <<
	.uleb128 .Ltmp415-.Ltmp410              #   Call between .Ltmp410 and .Ltmp415
	.uleb128 .Ltmp416-.Lfunc_begin1         #     jumps to .Ltmp416
	.byte	0                               #   On action: cleanup
	.uleb128 .Ltmp417-.Lfunc_begin1         # >> Call Site 67 <<
	.uleb128 .Ltmp418-.Ltmp417              #   Call between .Ltmp417 and .Ltmp418
	.uleb128 .Ltmp419-.Lfunc_begin1         #     jumps to .Ltmp419
	.byte	0                               #   On action: cleanup
	.uleb128 .Ltmp420-.Lfunc_begin1         # >> Call Site 68 <<
	.uleb128 .Ltmp425-.Ltmp420              #   Call between .Ltmp420 and .Ltmp425
	.uleb128 .Ltmp426-.Lfunc_begin1         #     jumps to .Ltmp426
	.byte	0                               #   On action: cleanup
	.uleb128 .Ltmp425-.Lfunc_begin1         # >> Call Site 69 <<
	.uleb128 .Ltmp427-.Ltmp425              #   Call between .Ltmp425 and .Ltmp427
	.byte	0                               #     has no landing pad
	.byte	0                               #   On action: cleanup
	.uleb128 .Ltmp427-.Lfunc_begin1         # >> Call Site 70 <<
	.uleb128 .Ltmp428-.Ltmp427              #   Call between .Ltmp427 and .Ltmp428
	.uleb128 .Ltmp429-.Lfunc_begin1         #     jumps to .Ltmp429
	.byte	0                               #   On action: cleanup
	.uleb128 .Ltmp430-.Lfunc_begin1         # >> Call Site 71 <<
	.uleb128 .Ltmp431-.Ltmp430              #   Call between .Ltmp430 and .Ltmp431
	.uleb128 .Ltmp432-.Lfunc_begin1         #     jumps to .Ltmp432
	.byte	0                               #   On action: cleanup
	.uleb128 .Ltmp433-.Lfunc_begin1         # >> Call Site 72 <<
	.uleb128 .Ltmp434-.Ltmp433              #   Call between .Ltmp433 and .Ltmp434
	.uleb128 .Ltmp533-.Lfunc_begin1         #     jumps to .Ltmp533
	.byte	0                               #   On action: cleanup
	.uleb128 .Ltmp435-.Lfunc_begin1         # >> Call Site 73 <<
	.uleb128 .Ltmp440-.Ltmp435              #   Call between .Ltmp435 and .Ltmp440
	.uleb128 .Ltmp441-.Lfunc_begin1         #     jumps to .Ltmp441
	.byte	0                               #   On action: cleanup
	.uleb128 .Ltmp442-.Lfunc_begin1         # >> Call Site 74 <<
	.uleb128 .Ltmp453-.Ltmp442              #   Call between .Ltmp442 and .Ltmp453
	.uleb128 .Ltmp454-.Lfunc_begin1         #     jumps to .Ltmp454
	.byte	0                               #   On action: cleanup
	.uleb128 .Ltmp455-.Lfunc_begin1         # >> Call Site 75 <<
	.uleb128 .Ltmp468-.Ltmp455              #   Call between .Ltmp455 and .Ltmp468
	.uleb128 .Ltmp469-.Lfunc_begin1         #     jumps to .Ltmp469
	.byte	0                               #   On action: cleanup
	.uleb128 .Ltmp470-.Lfunc_begin1         # >> Call Site 76 <<
	.uleb128 .Ltmp471-.Ltmp470              #   Call between .Ltmp470 and .Ltmp471
	.uleb128 .Ltmp472-.Lfunc_begin1         #     jumps to .Ltmp472
	.byte	0                               #   On action: cleanup
	.uleb128 .Ltmp473-.Lfunc_begin1         # >> Call Site 77 <<
	.uleb128 .Ltmp478-.Ltmp473              #   Call between .Ltmp473 and .Ltmp478
	.uleb128 .Ltmp479-.Lfunc_begin1         #     jumps to .Ltmp479
	.byte	0                               #   On action: cleanup
	.uleb128 .Ltmp480-.Lfunc_begin1         # >> Call Site 78 <<
	.uleb128 .Ltmp487-.Ltmp480              #   Call between .Ltmp480 and .Ltmp487
	.uleb128 .Ltmp488-.Lfunc_begin1         #     jumps to .Ltmp488
	.byte	0                               #   On action: cleanup
	.uleb128 .Ltmp489-.Lfunc_begin1         # >> Call Site 79 <<
	.uleb128 .Ltmp494-.Ltmp489              #   Call between .Ltmp489 and .Ltmp494
	.uleb128 .Ltmp495-.Lfunc_begin1         #     jumps to .Ltmp495
	.byte	0                               #   On action: cleanup
	.uleb128 .Ltmp496-.Lfunc_begin1         # >> Call Site 80 <<
	.uleb128 .Ltmp499-.Ltmp496              #   Call between .Ltmp496 and .Ltmp499
	.uleb128 .Ltmp500-.Lfunc_begin1         #     jumps to .Ltmp500
	.byte	0                               #   On action: cleanup
	.uleb128 .Ltmp501-.Lfunc_begin1         # >> Call Site 81 <<
	.uleb128 .Ltmp506-.Ltmp501              #   Call between .Ltmp501 and .Ltmp506
	.uleb128 .Ltmp507-.Lfunc_begin1         #     jumps to .Ltmp507
	.byte	0                               #   On action: cleanup
	.uleb128 .Ltmp508-.Lfunc_begin1         # >> Call Site 82 <<
	.uleb128 .Ltmp509-.Ltmp508              #   Call between .Ltmp508 and .Ltmp509
	.uleb128 .Ltmp510-.Lfunc_begin1         #     jumps to .Ltmp510
	.byte	0                               #   On action: cleanup
	.uleb128 .Ltmp511-.Lfunc_begin1         # >> Call Site 83 <<
	.uleb128 .Ltmp516-.Ltmp511              #   Call between .Ltmp511 and .Ltmp516
	.uleb128 .Ltmp517-.Lfunc_begin1         #     jumps to .Ltmp517
	.byte	0                               #   On action: cleanup
	.uleb128 .Ltmp518-.Lfunc_begin1         # >> Call Site 84 <<
	.uleb128 .Ltmp519-.Ltmp518              #   Call between .Ltmp518 and .Ltmp519
	.uleb128 .Ltmp520-.Lfunc_begin1         #     jumps to .Ltmp520
	.byte	0                               #   On action: cleanup
	.uleb128 .Ltmp521-.Lfunc_begin1         # >> Call Site 85 <<
	.uleb128 .Ltmp526-.Ltmp521              #   Call between .Ltmp521 and .Ltmp526
	.uleb128 .Ltmp527-.Lfunc_begin1         #     jumps to .Ltmp527
	.byte	0                               #   On action: cleanup
	.uleb128 .Ltmp526-.Lfunc_begin1         # >> Call Site 86 <<
	.uleb128 .Ltmp543-.Ltmp526              #   Call between .Ltmp526 and .Ltmp543
	.byte	0                               #     has no landing pad
	.byte	0                               #   On action: cleanup
	.uleb128 .Ltmp543-.Lfunc_begin1         # >> Call Site 87 <<
	.uleb128 .Ltmp544-.Ltmp543              #   Call between .Ltmp543 and .Ltmp544
	.uleb128 .Ltmp545-.Lfunc_begin1         #     jumps to .Ltmp545
	.byte	0                               #   On action: cleanup
	.uleb128 .Ltmp540-.Lfunc_begin1         # >> Call Site 88 <<
	.uleb128 .Ltmp541-.Ltmp540              #   Call between .Ltmp540 and .Ltmp541
	.uleb128 .Ltmp542-.Lfunc_begin1         #     jumps to .Ltmp542
	.byte	0                               #   On action: cleanup
	.uleb128 .Ltmp537-.Lfunc_begin1         # >> Call Site 89 <<
	.uleb128 .Ltmp538-.Ltmp537              #   Call between .Ltmp537 and .Ltmp538
	.uleb128 .Ltmp539-.Lfunc_begin1         #     jumps to .Ltmp539
	.byte	0                               #   On action: cleanup
	.uleb128 .Ltmp534-.Lfunc_begin1         # >> Call Site 90 <<
	.uleb128 .Ltmp535-.Ltmp534              #   Call between .Ltmp534 and .Ltmp535
	.uleb128 .Ltmp536-.Lfunc_begin1         #     jumps to .Ltmp536
	.byte	0                               #   On action: cleanup
	.uleb128 .Ltmp531-.Lfunc_begin1         # >> Call Site 91 <<
	.uleb128 .Ltmp532-.Ltmp531              #   Call between .Ltmp531 and .Ltmp532
	.uleb128 .Ltmp533-.Lfunc_begin1         #     jumps to .Ltmp533
	.byte	0                               #   On action: cleanup
	.uleb128 .Ltmp532-.Lfunc_begin1         # >> Call Site 92 <<
	.uleb128 .Ltmp528-.Ltmp532              #   Call between .Ltmp532 and .Ltmp528
	.byte	0                               #     has no landing pad
	.byte	0                               #   On action: cleanup
	.uleb128 .Ltmp528-.Lfunc_begin1         # >> Call Site 93 <<
	.uleb128 .Ltmp529-.Ltmp528              #   Call between .Ltmp528 and .Ltmp529
	.uleb128 .Ltmp530-.Lfunc_begin1         #     jumps to .Ltmp530
	.byte	1                               #   On action: 1
	.uleb128 .Ltmp529-.Lfunc_begin1         # >> Call Site 94 <<
	.uleb128 .Lfunc_end2-.Ltmp529           #   Call between .Ltmp529 and .Lfunc_end2
	.byte	0                               #     has no landing pad
	.byte	0                               #   On action: cleanup
.Lcst_end1:
	.byte	1                               # >> Action Record 1 <<
                                        #   Catch TypeInfo 1
	.byte	0                               #   No further actions
	.p2align	2, 0x0
                                        # >> Catch TypeInfos <<
	.word	0                               # TypeInfo 1
.Lttbase0:
	.p2align	2, 0x0
                                        # -- End function
	.section	.text._ZN9benchmark8internal12CheckHandlerC2EPKcS3_S3_i,"axG",@progbits,_ZN9benchmark8internal12CheckHandlerC2EPKcS3_S3_i,comdat
	.hidden	_ZN9benchmark8internal12CheckHandlerC2EPKcS3_S3_i # -- Begin function _ZN9benchmark8internal12CheckHandlerC2EPKcS3_S3_i
	.weak	_ZN9benchmark8internal12CheckHandlerC2EPKcS3_S3_i
	.p2align	2
	.type	_ZN9benchmark8internal12CheckHandlerC2EPKcS3_S3_i,@function
_ZN9benchmark8internal12CheckHandlerC2EPKcS3_S3_i: # @_ZN9benchmark8internal12CheckHandlerC2EPKcS3_S3_i
	.cfi_startproc
# %bb.0:                                # %entry
	addi.d	$sp, $sp, -64
	.cfi_def_cfa_offset 64
	st.d	$ra, $sp, 56                    # 8-byte Folded Spill
	st.d	$fp, $sp, 48                    # 8-byte Folded Spill
	st.d	$s0, $sp, 40                    # 8-byte Folded Spill
	st.d	$s1, $sp, 32                    # 8-byte Folded Spill
	st.d	$s2, $sp, 24                    # 8-byte Folded Spill
	st.d	$s3, $sp, 16                    # 8-byte Folded Spill
	st.d	$s4, $sp, 8                     # 8-byte Folded Spill
	.cfi_offset 1, -8
	.cfi_offset 22, -16
	.cfi_offset 23, -24
	.cfi_offset 24, -32
	.cfi_offset 25, -40
	.cfi_offset 26, -48
	.cfi_offset 27, -56
	pcalau12i	$a5, %pc_hi20(_ZGVZN9benchmark8internal19GetErrorLogInstanceEvE9error_log)
	ld.b	$a5, $a5, %pc_lo12(_ZGVZN9benchmark8internal19GetErrorLogInstanceEvE9error_log)
	move	$s1, $a4
	move	$s0, $a3
	move	$fp, $a1
	dbar	20
	pcalau12i	$a1, %pc_hi20(_ZZN9benchmark8internal19GetErrorLogInstanceEvE9error_log)
	addi.d	$s4, $a1, %pc_lo12(_ZZN9benchmark8internal19GetErrorLogInstanceEvE9error_log)
	beqz	$a5, .LBB3_18
.LBB3_1:                                # %_ZN9benchmark8internal19GetErrorLogInstanceEv.exit
	ld.d	$s2, $s4, 0
	st.d	$s4, $a0, 0
	beqz	$s2, .LBB3_17
# %bb.2:                                # %if.then.i
	beqz	$a2, .LBB3_4
# %bb.3:                                # %if.else.i.i
	move	$a0, $a2
	move	$s3, $a2
	pcaddu18i	$ra, %call36(strlen)
	jirl	$ra, $ra, 0
	move	$a2, $a0
	move	$a0, $s2
	move	$a1, $s3
	pcaddu18i	$ra, %call36(_ZSt16__ostream_insertIcSt11char_traitsIcEERSt13basic_ostreamIT_T0_ES6_PKS3_l)
	jirl	$ra, $ra, 0
	ld.d	$a0, $s4, 0
	bnez	$a0, .LBB3_5
	b	.LBB3_17
.LBB3_4:                                # %if.then.i.i
	ld.d	$a0, $s2, 0
	ld.d	$a0, $a0, -24
	add.d	$a0, $s2, $a0
	ld.w	$a1, $a0, 32
	ori	$a1, $a1, 1
	pcaddu18i	$ra, %call36(_ZNSt9basic_iosIcSt11char_traitsIcEE5clearESt12_Ios_Iostate)
	jirl	$ra, $ra, 0
	ld.d	$a0, $s4, 0
	beqz	$a0, .LBB3_17
.LBB3_5:                                # %_ZN9benchmark8internallsIA2_cEERNS0_7LogTypeES4_RKT_.exit
	pcalau12i	$a1, %pc_hi20(.L.str.59)
	addi.d	$a1, $a1, %pc_lo12(.L.str.59)
	ori	$a2, $zero, 1
	pcaddu18i	$ra, %call36(_ZSt16__ostream_insertIcSt11char_traitsIcEERSt13basic_ostreamIT_T0_ES6_PKS3_l)
	jirl	$ra, $ra, 0
	ld.d	$a0, $s4, 0
	beqz	$a0, .LBB3_17
# %bb.6:                                # %_ZN9benchmark8internallsIiEERNS0_7LogTypeES3_RKT_.exit
	move	$a1, $s1
	pcaddu18i	$ra, %call36(_ZNSolsEi)
	jirl	$ra, $ra, 0
	ld.d	$a0, $s4, 0
	beqz	$a0, .LBB3_17
# %bb.7:                                # %_ZN9benchmark8internallsIA3_cEERNS0_7LogTypeES4_RKT_.exit
	pcalau12i	$a1, %pc_hi20(.L.str.60)
	addi.d	$a1, $a1, %pc_lo12(.L.str.60)
	ori	$a2, $zero, 2
	pcaddu18i	$ra, %call36(_ZSt16__ostream_insertIcSt11char_traitsIcEERSt13basic_ostreamIT_T0_ES6_PKS3_l)
	jirl	$ra, $ra, 0
	ld.d	$s1, $s4, 0
	beqz	$s1, .LBB3_17
# %bb.8:                                # %if.then.i13
	beqz	$s0, .LBB3_10
# %bb.9:                                # %if.else.i.i15
	move	$a0, $s0
	pcaddu18i	$ra, %call36(strlen)
	jirl	$ra, $ra, 0
	move	$a2, $a0
	move	$a0, $s1
	move	$a1, $s0
	pcaddu18i	$ra, %call36(_ZSt16__ostream_insertIcSt11char_traitsIcEERSt13basic_ostreamIT_T0_ES6_PKS3_l)
	jirl	$ra, $ra, 0
	ld.d	$a0, $s4, 0
	bnez	$a0, .LBB3_11
	b	.LBB3_17
.LBB3_10:                               # %if.then.i.i18
	ld.d	$a0, $s1, 0
	ld.d	$a0, $a0, -24
	add.d	$a0, $s1, $a0
	ld.w	$a1, $a0, 32
	ori	$a1, $a1, 1
	pcaddu18i	$ra, %call36(_ZNSt9basic_iosIcSt11char_traitsIcEE5clearESt12_Ios_Iostate)
	jirl	$ra, $ra, 0
	ld.d	$a0, $s4, 0
	beqz	$a0, .LBB3_17
.LBB3_11:                               # %_ZN9benchmark8internallsIA10_cEERNS0_7LogTypeES4_RKT_.exit
	pcalau12i	$a1, %pc_hi20(.L.str.79)
	addi.d	$a1, $a1, %pc_lo12(.L.str.79)
	ori	$a2, $zero, 9
	pcaddu18i	$ra, %call36(_ZSt16__ostream_insertIcSt11char_traitsIcEERSt13basic_ostreamIT_T0_ES6_PKS3_l)
	jirl	$ra, $ra, 0
	ld.d	$s0, $s4, 0
	beqz	$s0, .LBB3_17
# %bb.12:                               # %if.then.i31
	beqz	$fp, .LBB3_14
# %bb.13:                               # %if.else.i.i33
	move	$a0, $fp
	pcaddu18i	$ra, %call36(strlen)
	jirl	$ra, $ra, 0
	move	$a2, $a0
	move	$a0, $s0
	move	$a1, $fp
	pcaddu18i	$ra, %call36(_ZSt16__ostream_insertIcSt11char_traitsIcEERSt13basic_ostreamIT_T0_ES6_PKS3_l)
	jirl	$ra, $ra, 0
	b	.LBB3_15
.LBB3_14:                               # %if.then.i.i36
	ld.d	$a0, $s0, 0
	ld.d	$a0, $a0, -24
	add.d	$a0, $s0, $a0
	ld.w	$a1, $a0, 32
	ori	$a1, $a1, 1
	pcaddu18i	$ra, %call36(_ZNSt9basic_iosIcSt11char_traitsIcEE5clearESt12_Ios_Iostate)
	jirl	$ra, $ra, 0
.LBB3_15:                               # %_ZN9benchmark8internallsIPKcEERNS0_7LogTypeES5_RKT_.exit43
	ld.d	$a0, $s4, 0
	beqz	$a0, .LBB3_17
# %bb.16:                               # %if.then.i45
	pcalau12i	$a1, %pc_hi20(.L.str.80)
	addi.d	$a1, $a1, %pc_lo12(.L.str.80)
	ori	$a2, $zero, 10
	ld.d	$s4, $sp, 8                     # 8-byte Folded Reload
	ld.d	$s3, $sp, 16                    # 8-byte Folded Reload
	ld.d	$s2, $sp, 24                    # 8-byte Folded Reload
	ld.d	$s1, $sp, 32                    # 8-byte Folded Reload
	ld.d	$s0, $sp, 40                    # 8-byte Folded Reload
	ld.d	$fp, $sp, 48                    # 8-byte Folded Reload
	ld.d	$ra, $sp, 56                    # 8-byte Folded Reload
	addi.d	$sp, $sp, 64
	pcaddu18i	$t8, %call36(_ZSt16__ostream_insertIcSt11char_traitsIcEERSt13basic_ostreamIT_T0_ES6_PKS3_l)
	jr	$t8
.LBB3_17:                               # %_ZN9benchmark8internallsIA11_cEERNS0_7LogTypeES4_RKT_.exit
	ld.d	$s4, $sp, 8                     # 8-byte Folded Reload
	ld.d	$s3, $sp, 16                    # 8-byte Folded Reload
	ld.d	$s2, $sp, 24                    # 8-byte Folded Reload
	ld.d	$s1, $sp, 32                    # 8-byte Folded Reload
	ld.d	$s0, $sp, 40                    # 8-byte Folded Reload
	ld.d	$fp, $sp, 48                    # 8-byte Folded Reload
	ld.d	$ra, $sp, 56                    # 8-byte Folded Reload
	addi.d	$sp, $sp, 64
	ret
.LBB3_18:                               # %init.check.i
	pcalau12i	$a1, %pc_hi20(_ZGVZN9benchmark8internal19GetErrorLogInstanceEvE9error_log)
	addi.d	$a1, $a1, %pc_lo12(_ZGVZN9benchmark8internal19GetErrorLogInstanceEvE9error_log)
	move	$s2, $a0
	move	$a0, $a1
	move	$s3, $a2
	pcaddu18i	$ra, %call36(__cxa_guard_acquire)
	jirl	$ra, $ra, 0
	move	$a2, $s3
	move	$a1, $a0
	move	$a0, $s2
	addi.w	$a1, $a1, 0
	beqz	$a1, .LBB3_1
# %bb.19:                               # %init.i
	pcalau12i	$a0, %got_pc_hi20(_ZSt4clog)
	ld.d	$a0, $a0, %got_pc_lo12(_ZSt4clog)
	st.d	$a0, $s4, 0
	pcalau12i	$a0, %pc_hi20(_ZGVZN9benchmark8internal19GetErrorLogInstanceEvE9error_log)
	addi.d	$a0, $a0, %pc_lo12(_ZGVZN9benchmark8internal19GetErrorLogInstanceEvE9error_log)
	pcaddu18i	$ra, %call36(__cxa_guard_release)
	jirl	$ra, $ra, 0
	move	$a0, $s2
	move	$a2, $s3
	b	.LBB3_1
.Lfunc_end3:
	.size	_ZN9benchmark8internal12CheckHandlerC2EPKcS3_S3_i, .Lfunc_end3-_ZN9benchmark8internal12CheckHandlerC2EPKcS3_S3_i
	.cfi_endproc
                                        # -- End function
	.section	.text._ZN9benchmark8internal12CheckHandlerD2Ev,"axG",@progbits,_ZN9benchmark8internal12CheckHandlerD2Ev,comdat
	.hidden	_ZN9benchmark8internal12CheckHandlerD2Ev # -- Begin function _ZN9benchmark8internal12CheckHandlerD2Ev
	.weak	_ZN9benchmark8internal12CheckHandlerD2Ev
	.p2align	2
	.type	_ZN9benchmark8internal12CheckHandlerD2Ev,@function
_ZN9benchmark8internal12CheckHandlerD2Ev: # @_ZN9benchmark8internal12CheckHandlerD2Ev
	.cfi_startproc
# %bb.0:                                # %entry
	addi.d	$sp, $sp, -32
	.cfi_def_cfa_offset 32
	st.d	$ra, $sp, 24                    # 8-byte Folded Spill
	st.d	$fp, $sp, 16                    # 8-byte Folded Spill
	st.d	$s0, $sp, 8                     # 8-byte Folded Spill
	.cfi_offset 1, -8
	.cfi_offset 22, -16
	.cfi_offset 23, -24
	ld.d	$a0, $a0, 0
	ld.d	$fp, $a0, 0
	beqz	$fp, .LBB4_7
# %bb.1:                                # %if.then.i
	ld.d	$a0, $fp, 0
	ld.d	$a0, $a0, -24
	add.d	$a0, $fp, $a0
	ld.d	$s0, $a0, 240
	bnez	$s0, .LBB4_3
# %bb.2:                                # %if.then.i.i.i
	pcaddu18i	$ra, %call36(_ZSt16__throw_bad_castv)
	jirl	$ra, $ra, 0
.LBB4_3:                                # %_ZSt13__check_facetISt5ctypeIcEERKT_PS3_.exit.i.i
	ld.bu	$a0, $s0, 56
	bnez	$a0, .LBB4_5
# %bb.4:                                # %if.end.i.i.i
	move	$a0, $s0
	pcaddu18i	$ra, %call36(_ZNKSt5ctypeIcE13_M_widen_initEv)
	jirl	$ra, $ra, 0
	ld.d	$a0, $s0, 0
	ld.d	$a2, $a0, 48
	ori	$a1, $zero, 10
	move	$a0, $s0
	jirl	$ra, $a2, 0
	b	.LBB4_6
.LBB4_5:                                # %if.then.i2.i.i
	ld.bu	$a0, $s0, 67
.LBB4_6:                                # %_ZSt4endlIcSt11char_traitsIcEERSt13basic_ostreamIT_T0_ES6_.exit
	ext.w.b	$a1, $a0
	move	$a0, $fp
	pcaddu18i	$ra, %call36(_ZNSo3putEc)
	jirl	$ra, $ra, 0
	pcaddu18i	$ra, %call36(_ZNSo5flushEv)
	jirl	$ra, $ra, 0
.LBB4_7:                                # %_ZN9benchmark8internallsERNS0_7LogTypeEPFRSoS3_E.exit
	pcaddu18i	$ra, %call36(_ZN9benchmark8internal16CallAbortHandlerEv)
	jirl	$ra, $ra, 0
.Lfunc_end4:
	.size	_ZN9benchmark8internal12CheckHandlerD2Ev, .Lfunc_end4-_ZN9benchmark8internal12CheckHandlerD2Ev
	.cfi_endproc
                                        # -- End function
	.section	.text.__clang_call_terminate,"axG",@progbits,__clang_call_terminate,comdat
	.hidden	__clang_call_terminate          # -- Begin function __clang_call_terminate
	.weak	__clang_call_terminate
	.p2align	5
	.type	__clang_call_terminate,@function
__clang_call_terminate:                 # @__clang_call_terminate
# %bb.0:
	addi.d	$sp, $sp, -16
	st.d	$ra, $sp, 8                     # 8-byte Folded Spill
	pcaddu18i	$ra, %call36(__cxa_begin_catch)
	jirl	$ra, $ra, 0
	pcaddu18i	$ra, %call36(_ZSt9terminatev)
	jirl	$ra, $ra, 0
.Lfunc_end5:
	.size	__clang_call_terminate, .Lfunc_end5-__clang_call_terminate
                                        # -- End function
	.text
	.hidden	main                            # -- Begin function main
	.globl	main
	.p2align	5
	.type	main,@function
main:                                   # @main
	.cfi_startproc
# %bb.0:                                # %entry
	addi.d	$sp, $sp, -16
	.cfi_def_cfa_offset 16
	st.d	$ra, $sp, 8                     # 8-byte Folded Spill
	.cfi_offset 1, -8
	pcaddu18i	$ra, %call36(_Z14RunOutputTestsiPPc)
	jirl	$ra, $ra, 0
	move	$a0, $zero
	ld.d	$ra, $sp, 8                     # 8-byte Folded Reload
	addi.d	$sp, $sp, 16
	ret
.Lfunc_end6:
	.size	main, .Lfunc_end6-main
	.cfi_endproc
                                        # -- End function
	.section	.text._ZNSt16_Sp_counted_baseILN9__gnu_cxx12_Lock_policyE2EE24_M_release_last_use_coldEv,"axG",@progbits,_ZNSt16_Sp_counted_baseILN9__gnu_cxx12_Lock_policyE2EE24_M_release_last_use_coldEv,comdat
	.hidden	_ZNSt16_Sp_counted_baseILN9__gnu_cxx12_Lock_policyE2EE24_M_release_last_use_coldEv # -- Begin function _ZNSt16_Sp_counted_baseILN9__gnu_cxx12_Lock_policyE2EE24_M_release_last_use_coldEv
	.weak	_ZNSt16_Sp_counted_baseILN9__gnu_cxx12_Lock_policyE2EE24_M_release_last_use_coldEv
	.p2align	2
	.type	_ZNSt16_Sp_counted_baseILN9__gnu_cxx12_Lock_policyE2EE24_M_release_last_use_coldEv,@function
_ZNSt16_Sp_counted_baseILN9__gnu_cxx12_Lock_policyE2EE24_M_release_last_use_coldEv: # @_ZNSt16_Sp_counted_baseILN9__gnu_cxx12_Lock_policyE2EE24_M_release_last_use_coldEv
	.cfi_startproc
# %bb.0:                                # %entry
	addi.d	$sp, $sp, -16
	.cfi_def_cfa_offset 16
	st.d	$ra, $sp, 8                     # 8-byte Folded Spill
	st.d	$fp, $sp, 0                     # 8-byte Folded Spill
	.cfi_offset 1, -8
	.cfi_offset 22, -16
	move	$fp, $a0
	ld.d	$a0, $a0, 0
	ld.d	$a1, $a0, 16
	move	$a0, $fp
	jirl	$ra, $a1, 0
	pcalau12i	$a0, %got_pc_hi20(__libc_single_threaded)
	ld.d	$a0, $a0, %got_pc_lo12(__libc_single_threaded)
	ld.bu	$a0, $a0, 0
	beqz	$a0, .LBB7_3
# %bb.1:                                # %if.then.i.i
	ld.w	$a0, $fp, 12
	addi.d	$a1, $a0, -1
	st.w	$a1, $fp, 12
	ori	$a1, $zero, 1
	bne	$a0, $a1, .LBB7_4
.LBB7_2:                                # %if.then.i
	ld.d	$a0, $fp, 0
	ld.d	$a1, $a0, 24
	move	$a0, $fp
	ld.d	$fp, $sp, 0                     # 8-byte Folded Reload
	ld.d	$ra, $sp, 8                     # 8-byte Folded Reload
	addi.d	$sp, $sp, 16
	jr	$a1
.LBB7_3:                                # %if.else.i.i
	addi.d	$a1, $fp, 12
	addi.w	$a2, $zero, -1
	amadd_db.w	$a0, $a2, $a1
	ori	$a1, $zero, 1
	beq	$a0, $a1, .LBB7_2
.LBB7_4:                                # %_ZNSt16_Sp_counted_baseILN9__gnu_cxx12_Lock_policyE2EE19_M_release_last_useEv.exit
	ld.d	$fp, $sp, 0                     # 8-byte Folded Reload
	ld.d	$ra, $sp, 8                     # 8-byte Folded Reload
	addi.d	$sp, $sp, 16
	ret
.Lfunc_end7:
	.size	_ZNSt16_Sp_counted_baseILN9__gnu_cxx12_Lock_policyE2EE24_M_release_last_use_coldEv, .Lfunc_end7-_ZNSt16_Sp_counted_baseILN9__gnu_cxx12_Lock_policyE2EE24_M_release_last_use_coldEv
	.cfi_endproc
                                        # -- End function
	.section	.text._ZN9benchmark8internal16CallAbortHandlerEv,"axG",@progbits,_ZN9benchmark8internal16CallAbortHandlerEv,comdat
	.hidden	_ZN9benchmark8internal16CallAbortHandlerEv # -- Begin function _ZN9benchmark8internal16CallAbortHandlerEv
	.weak	_ZN9benchmark8internal16CallAbortHandlerEv
	.p2align	5
	.type	_ZN9benchmark8internal16CallAbortHandlerEv,@function
_ZN9benchmark8internal16CallAbortHandlerEv: # @_ZN9benchmark8internal16CallAbortHandlerEv
	.cfi_startproc
# %bb.0:                                # %entry
	addi.d	$sp, $sp, -16
	.cfi_def_cfa_offset 16
	st.d	$ra, $sp, 8                     # 8-byte Folded Spill
	.cfi_offset 1, -8
	pcaddu18i	$ra, %call36(_ZN9benchmark8internal15GetAbortHandlerEv)
	jirl	$ra, $ra, 0
	ld.d	$a0, $a0, 0
	jirl	$ra, $a0, 0
	pcaddu18i	$ra, %call36(abort)
	jirl	$ra, $ra, 0
.Lfunc_end8:
	.size	_ZN9benchmark8internal16CallAbortHandlerEv, .Lfunc_end8-_ZN9benchmark8internal16CallAbortHandlerEv
	.cfi_endproc
                                        # -- End function
	.section	.text._ZNSt8_Rb_treeINSt7__cxx1112basic_stringIcSt11char_traitsIcESaIcEEESt4pairIKS5_N9benchmark7CounterEESt10_Select1stISA_ESt4lessIS5_ESaISA_EE17_M_insert_unique_IRKSA_NSG_11_Alloc_nodeEEESt17_Rb_tree_iteratorISA_ESt23_Rb_tree_const_iteratorISA_EOT_RT0_,"axG",@progbits,_ZNSt8_Rb_treeINSt7__cxx1112basic_stringIcSt11char_traitsIcESaIcEEESt4pairIKS5_N9benchmark7CounterEESt10_Select1stISA_ESt4lessIS5_ESaISA_EE17_M_insert_unique_IRKSA_NSG_11_Alloc_nodeEEESt17_Rb_tree_iteratorISA_ESt23_Rb_tree_const_iteratorISA_EOT_RT0_,comdat
	.hidden	_ZNSt8_Rb_treeINSt7__cxx1112basic_stringIcSt11char_traitsIcESaIcEEESt4pairIKS5_N9benchmark7CounterEESt10_Select1stISA_ESt4lessIS5_ESaISA_EE17_M_insert_unique_IRKSA_NSG_11_Alloc_nodeEEESt17_Rb_tree_iteratorISA_ESt23_Rb_tree_const_iteratorISA_EOT_RT0_ # -- Begin function _ZNSt8_Rb_treeINSt7__cxx1112basic_stringIcSt11char_traitsIcESaIcEEESt4pairIKS5_N9benchmark7CounterEESt10_Select1stISA_ESt4lessIS5_ESaISA_EE17_M_insert_unique_IRKSA_NSG_11_Alloc_nodeEEESt17_Rb_tree_iteratorISA_ESt23_Rb_tree_const_iteratorISA_EOT_RT0_
	.weak	_ZNSt8_Rb_treeINSt7__cxx1112basic_stringIcSt11char_traitsIcESaIcEEESt4pairIKS5_N9benchmark7CounterEESt10_Select1stISA_ESt4lessIS5_ESaISA_EE17_M_insert_unique_IRKSA_NSG_11_Alloc_nodeEEESt17_Rb_tree_iteratorISA_ESt23_Rb_tree_const_iteratorISA_EOT_RT0_
	.p2align	2
	.type	_ZNSt8_Rb_treeINSt7__cxx1112basic_stringIcSt11char_traitsIcESaIcEEESt4pairIKS5_N9benchmark7CounterEESt10_Select1stISA_ESt4lessIS5_ESaISA_EE17_M_insert_unique_IRKSA_NSG_11_Alloc_nodeEEESt17_Rb_tree_iteratorISA_ESt23_Rb_tree_const_iteratorISA_EOT_RT0_,@function
_ZNSt8_Rb_treeINSt7__cxx1112basic_stringIcSt11char_traitsIcESaIcEEESt4pairIKS5_N9benchmark7CounterEESt10_Select1stISA_ESt4lessIS5_ESaISA_EE17_M_insert_unique_IRKSA_NSG_11_Alloc_nodeEEESt17_Rb_tree_iteratorISA_ESt23_Rb_tree_const_iteratorISA_EOT_RT0_: # @_ZNSt8_Rb_treeINSt7__cxx1112basic_stringIcSt11char_traitsIcESaIcEEESt4pairIKS5_N9benchmark7CounterEESt10_Select1stISA_ESt4lessIS5_ESaISA_EE17_M_insert_unique_IRKSA_NSG_11_Alloc_nodeEEESt17_Rb_tree_iteratorISA_ESt23_Rb_tree_const_iteratorISA_EOT_RT0_
	.cfi_startproc
# %bb.0:                                # %entry
	addi.d	$sp, $sp, -80
	.cfi_def_cfa_offset 80
	st.d	$ra, $sp, 72                    # 8-byte Folded Spill
	st.d	$fp, $sp, 64                    # 8-byte Folded Spill
	st.d	$s0, $sp, 56                    # 8-byte Folded Spill
	st.d	$s1, $sp, 48                    # 8-byte Folded Spill
	st.d	$s2, $sp, 40                    # 8-byte Folded Spill
	st.d	$s3, $sp, 32                    # 8-byte Folded Spill
	st.d	$s4, $sp, 24                    # 8-byte Folded Spill
	st.d	$s5, $sp, 16                    # 8-byte Folded Spill
	.cfi_offset 1, -8
	.cfi_offset 22, -16
	.cfi_offset 23, -24
	.cfi_offset 24, -32
	.cfi_offset 25, -40
	.cfi_offset 26, -48
	.cfi_offset 27, -56
	.cfi_offset 28, -64
	move	$s3, $a3
	move	$s0, $a2
	move	$fp, $a0
	pcaddu18i	$ra, %call36(_ZNSt8_Rb_treeINSt7__cxx1112basic_stringIcSt11char_traitsIcESaIcEEESt4pairIKS5_N9benchmark7CounterEESt10_Select1stISA_ESt4lessIS5_ESaISA_EE29_M_get_insert_hint_unique_posESt23_Rb_tree_const_iteratorISA_ERS7_)
	jirl	$ra, $ra, 0
	beqz	$a1, .LBB9_8
# %bb.1:                                # %if.then
	move	$s1, $a1
	addi.d	$s2, $fp, 8
	ori	$s4, $zero, 1
	bnez	$a0, .LBB9_7
# %bb.2:                                # %if.then
	beq	$s2, $s1, .LBB9_7
# %bb.3:                                # %lor.rhs.i
	ld.d	$s4, $s0, 8
	ld.d	$s5, $s1, 40
	sltu	$a0, $s5, $s4
	masknez	$a1, $s4, $a0
	maskeqz	$a0, $s5, $a0
	or	$a2, $a0, $a1
	beqz	$a2, .LBB9_5
# %bb.4:                                # %_ZNSt11char_traitsIcE7compareEPKcS2_m.exit.i.i.i.i
	ld.d	$a1, $s1, 32
	ld.d	$a0, $s0, 0
	pcaddu18i	$ra, %call36(memcmp)
	jirl	$ra, $ra, 0
	bnez	$a0, .LBB9_6
.LBB9_5:                                # %if.then.i.i.i.i
	sub.d	$a0, $s4, $s5
	lu12i.w	$a1, -524288
	slt	$a2, $a1, $a0
	maskeqz	$a0, $a0, $a2
	masknez	$a1, $a1, $a2
	or	$a0, $a0, $a1
	lu12i.w	$a1, 524287
	ori	$a1, $a1, 4095
	slt	$a2, $a0, $a1
	maskeqz	$a0, $a0, $a2
	masknez	$a1, $a1, $a2
	or	$a0, $a0, $a1
.LBB9_6:                                # %_ZNKSt4lessINSt7__cxx1112basic_stringIcSt11char_traitsIcESaIcEEEEclERKS5_S8_.exit.i
	addi.w	$a0, $a0, 0
	slti	$s4, $a0, 0
.LBB9_7:                                # %_ZNSt8_Rb_treeINSt7__cxx1112basic_stringIcSt11char_traitsIcESaIcEEESt4pairIKS5_N9benchmark7CounterEESt10_Select1stISA_ESt4lessIS5_ESaISA_EE10_M_insert_IRKSA_NSG_11_Alloc_nodeEEESt17_Rb_tree_iteratorISA_EPSt18_Rb_tree_node_baseSO_OT_RT0_.exit
	ld.d	$s3, $s3, 0
	ori	$a0, $zero, 80
	pcaddu18i	$ra, %call36(_Znwm)
	jirl	$ra, $ra, 0
	move	$s5, $a0
	move	$a0, $s3
	move	$a1, $s5
	move	$a2, $s0
	pcaddu18i	$ra, %call36(_ZNSt8_Rb_treeINSt7__cxx1112basic_stringIcSt11char_traitsIcESaIcEEESt4pairIKS5_N9benchmark7CounterEESt10_Select1stISA_ESt4lessIS5_ESaISA_EE17_M_construct_nodeIJRKSA_EEEvPSt13_Rb_tree_nodeISA_EDpOT_)
	jirl	$ra, $ra, 0
	move	$a0, $s4
	move	$a1, $s5
	move	$a2, $s1
	move	$a3, $s2
	pcaddu18i	$ra, %call36(_ZSt29_Rb_tree_insert_and_rebalancebPSt18_Rb_tree_node_baseS0_RS_)
	jirl	$ra, $ra, 0
	move	$a0, $s5
	ld.d	$a1, $fp, 40
	addi.d	$a1, $a1, 1
	st.d	$a1, $fp, 40
.LBB9_8:                                # %cleanup
	ld.d	$s5, $sp, 16                    # 8-byte Folded Reload
	ld.d	$s4, $sp, 24                    # 8-byte Folded Reload
	ld.d	$s3, $sp, 32                    # 8-byte Folded Reload
	ld.d	$s2, $sp, 40                    # 8-byte Folded Reload
	ld.d	$s1, $sp, 48                    # 8-byte Folded Reload
	ld.d	$s0, $sp, 56                    # 8-byte Folded Reload
	ld.d	$fp, $sp, 64                    # 8-byte Folded Reload
	ld.d	$ra, $sp, 72                    # 8-byte Folded Reload
	addi.d	$sp, $sp, 80
	ret
.Lfunc_end9:
	.size	_ZNSt8_Rb_treeINSt7__cxx1112basic_stringIcSt11char_traitsIcESaIcEEESt4pairIKS5_N9benchmark7CounterEESt10_Select1stISA_ESt4lessIS5_ESaISA_EE17_M_insert_unique_IRKSA_NSG_11_Alloc_nodeEEESt17_Rb_tree_iteratorISA_ESt23_Rb_tree_const_iteratorISA_EOT_RT0_, .Lfunc_end9-_ZNSt8_Rb_treeINSt7__cxx1112basic_stringIcSt11char_traitsIcESaIcEEESt4pairIKS5_N9benchmark7CounterEESt10_Select1stISA_ESt4lessIS5_ESaISA_EE17_M_insert_unique_IRKSA_NSG_11_Alloc_nodeEEESt17_Rb_tree_iteratorISA_ESt23_Rb_tree_const_iteratorISA_EOT_RT0_
	.cfi_endproc
                                        # -- End function
	.section	.text._ZNSt8_Rb_treeINSt7__cxx1112basic_stringIcSt11char_traitsIcESaIcEEESt4pairIKS5_N9benchmark7CounterEESt10_Select1stISA_ESt4lessIS5_ESaISA_EE29_M_get_insert_hint_unique_posESt23_Rb_tree_const_iteratorISA_ERS7_,"axG",@progbits,_ZNSt8_Rb_treeINSt7__cxx1112basic_stringIcSt11char_traitsIcESaIcEEESt4pairIKS5_N9benchmark7CounterEESt10_Select1stISA_ESt4lessIS5_ESaISA_EE29_M_get_insert_hint_unique_posESt23_Rb_tree_const_iteratorISA_ERS7_,comdat
	.hidden	_ZNSt8_Rb_treeINSt7__cxx1112basic_stringIcSt11char_traitsIcESaIcEEESt4pairIKS5_N9benchmark7CounterEESt10_Select1stISA_ESt4lessIS5_ESaISA_EE29_M_get_insert_hint_unique_posESt23_Rb_tree_const_iteratorISA_ERS7_ # -- Begin function _ZNSt8_Rb_treeINSt7__cxx1112basic_stringIcSt11char_traitsIcESaIcEEESt4pairIKS5_N9benchmark7CounterEESt10_Select1stISA_ESt4lessIS5_ESaISA_EE29_M_get_insert_hint_unique_posESt23_Rb_tree_const_iteratorISA_ERS7_
	.weak	_ZNSt8_Rb_treeINSt7__cxx1112basic_stringIcSt11char_traitsIcESaIcEEESt4pairIKS5_N9benchmark7CounterEESt10_Select1stISA_ESt4lessIS5_ESaISA_EE29_M_get_insert_hint_unique_posESt23_Rb_tree_const_iteratorISA_ERS7_
	.p2align	2
	.type	_ZNSt8_Rb_treeINSt7__cxx1112basic_stringIcSt11char_traitsIcESaIcEEESt4pairIKS5_N9benchmark7CounterEESt10_Select1stISA_ESt4lessIS5_ESaISA_EE29_M_get_insert_hint_unique_posESt23_Rb_tree_const_iteratorISA_ERS7_,@function
_ZNSt8_Rb_treeINSt7__cxx1112basic_stringIcSt11char_traitsIcESaIcEEESt4pairIKS5_N9benchmark7CounterEESt10_Select1stISA_ESt4lessIS5_ESaISA_EE29_M_get_insert_hint_unique_posESt23_Rb_tree_const_iteratorISA_ERS7_: # @_ZNSt8_Rb_treeINSt7__cxx1112basic_stringIcSt11char_traitsIcESaIcEEESt4pairIKS5_N9benchmark7CounterEESt10_Select1stISA_ESt4lessIS5_ESaISA_EE29_M_get_insert_hint_unique_posESt23_Rb_tree_const_iteratorISA_ERS7_
	.cfi_startproc
# %bb.0:                                # %entry
	addi.d	$sp, $sp, -80
	.cfi_def_cfa_offset 80
	st.d	$ra, $sp, 72                    # 8-byte Folded Spill
	st.d	$fp, $sp, 64                    # 8-byte Folded Spill
	st.d	$s0, $sp, 56                    # 8-byte Folded Spill
	st.d	$s1, $sp, 48                    # 8-byte Folded Spill
	st.d	$s2, $sp, 40                    # 8-byte Folded Spill
	st.d	$s3, $sp, 32                    # 8-byte Folded Spill
	st.d	$s4, $sp, 24                    # 8-byte Folded Spill
	st.d	$s5, $sp, 16                    # 8-byte Folded Spill
	st.d	$s6, $sp, 8                     # 8-byte Folded Spill
	.cfi_offset 1, -8
	.cfi_offset 22, -16
	.cfi_offset 23, -24
	.cfi_offset 24, -32
	.cfi_offset 25, -40
	.cfi_offset 26, -48
	.cfi_offset 27, -56
	.cfi_offset 28, -64
	.cfi_offset 29, -72
	move	$s1, $a0
	addi.d	$a0, $a0, 8
	move	$s0, $a2
	beq	$a0, $a1, .LBB10_4
# %bb.1:                                # %if.else10
	move	$fp, $a1
	ld.d	$s5, $s0, 8
	ld.d	$s6, $a1, 40
	sltu	$a0, $s6, $s5
	masknez	$a1, $s5, $a0
	maskeqz	$a0, $s6, $a0
	or	$s2, $a0, $a1
	beqz	$s2, .LBB10_10
# %bb.2:                                # %_ZNSt11char_traitsIcE7compareEPKcS2_m.exit.i.i.i16
	ld.d	$s3, $fp, 32
	ld.d	$s4, $s0, 0
	move	$a0, $s4
	move	$a1, $s3
	move	$a2, $s2
	pcaddu18i	$ra, %call36(memcmp)
	jirl	$ra, $ra, 0
	beqz	$a0, .LBB10_11
# %bb.3:                                # %_ZNKSt4lessINSt7__cxx1112basic_stringIcSt11char_traitsIcESaIcEEEEclERKS5_S8_.exit26.thread
	addi.w	$a1, $zero, -1
	bge	$a1, $a0, .LBB10_12
	b	.LBB10_18
.LBB10_4:                               # %if.then
	ld.d	$a0, $s1, 40
	beqz	$a0, .LBB10_28
# %bb.5:                                # %land.lhs.true
	ld.d	$a1, $s1, 32
	ld.d	$fp, $a1, 40
	ld.d	$s2, $s0, 8
	sltu	$a0, $s2, $fp
	masknez	$a2, $fp, $a0
	maskeqz	$a0, $s2, $a0
	or	$a2, $a0, $a2
	beqz	$a2, .LBB10_7
# %bb.6:                                # %_ZNSt11char_traitsIcE7compareEPKcS2_m.exit.i.i.i
	ld.d	$a3, $s0, 0
	ld.d	$a0, $a1, 32
	move	$s3, $a1
	move	$a1, $a3
	pcaddu18i	$ra, %call36(memcmp)
	jirl	$ra, $ra, 0
	move	$a1, $s3
	bnez	$a0, .LBB10_8
.LBB10_7:                               # %if.then.i.i.i
	sub.d	$a0, $fp, $s2
	lu12i.w	$a2, -524288
	slt	$a3, $a2, $a0
	maskeqz	$a0, $a0, $a3
	masknez	$a2, $a2, $a3
	or	$a0, $a0, $a2
	lu12i.w	$a2, 524287
	ori	$a2, $a2, 4095
	slt	$a3, $a0, $a2
	maskeqz	$a0, $a0, $a3
	masknez	$a2, $a2, $a3
	or	$a0, $a0, $a2
.LBB10_8:                               # %_ZNKSt4lessINSt7__cxx1112basic_stringIcSt11char_traitsIcESaIcEEEEclERKS5_S8_.exit
	addi.w	$a0, $a0, 0
	bgez	$a0, .LBB10_28
# %bb.9:
	move	$fp, $zero
	b	.LBB10_29
.LBB10_10:                              # %_ZNKSt4lessINSt7__cxx1112basic_stringIcSt11char_traitsIcESaIcEEEEclERKS5_S8_.exit26
	bltu	$s5, $s6, .LBB10_12
	b	.LBB10_19
.LBB10_11:                              # %_ZNKSt4lessINSt7__cxx1112basic_stringIcSt11char_traitsIcESaIcEEEEclERKS5_S8_.exit26.thread113
	bgeu	$s5, $s6, .LBB10_18
.LBB10_12:                              # %if.then15
	ld.d	$a0, $s1, 24
	beq	$a0, $fp, .LBB10_22
# %bb.13:                               # %if.else23
	move	$a0, $fp
	pcaddu18i	$ra, %call36(_ZSt18_Rb_tree_decrementPSt18_Rb_tree_node_base)
	jirl	$ra, $ra, 0
	move	$s2, $a0
	ld.d	$s3, $a0, 40
	sltu	$a0, $s5, $s3
	masknez	$a1, $s3, $a0
	maskeqz	$a0, $s5, $a0
	or	$a2, $a0, $a1
	beqz	$a2, .LBB10_15
# %bb.14:                               # %_ZNSt11char_traitsIcE7compareEPKcS2_m.exit.i.i.i37
	ld.d	$a1, $s0, 0
	ld.d	$a0, $s2, 32
	pcaddu18i	$ra, %call36(memcmp)
	jirl	$ra, $ra, 0
	bnez	$a0, .LBB10_16
.LBB10_15:                              # %if.then.i.i.i42
	sub.d	$a0, $s3, $s5
	lu12i.w	$a1, -524288
	slt	$a2, $a1, $a0
	maskeqz	$a0, $a0, $a2
	masknez	$a1, $a1, $a2
	or	$a0, $a0, $a1
	lu12i.w	$a1, 524287
	ori	$a1, $a1, 4095
	slt	$a2, $a0, $a1
	maskeqz	$a0, $a0, $a2
	masknez	$a1, $a1, $a2
	or	$a0, $a0, $a1
.LBB10_16:                              # %_ZNKSt4lessINSt7__cxx1112basic_stringIcSt11char_traitsIcESaIcEEEEclERKS5_S8_.exit47
	addi.w	$a0, $a0, 0
	addi.w	$a1, $zero, -1
	blt	$a1, $a0, .LBB10_28
# %bb.17:                               # %if.then29
	ld.d	$a0, $s2, 24
	sltui	$a0, $a0, 1
	masknez	$fp, $fp, $a0
	maskeqz	$a0, $s2, $a0
	or	$a1, $a0, $fp
	b	.LBB10_29
.LBB10_18:                              # %_ZNSt11char_traitsIcE7compareEPKcS2_m.exit.i.i.i58
	move	$a0, $s3
	move	$a1, $s4
	move	$a2, $s2
	pcaddu18i	$ra, %call36(memcmp)
	jirl	$ra, $ra, 0
	bnez	$a0, .LBB10_20
.LBB10_19:                              # %if.then.i.i.i63
	sub.d	$a0, $s6, $s5
	lu12i.w	$a1, -524288
	slt	$a2, $a1, $a0
	maskeqz	$a0, $a0, $a2
	masknez	$a1, $a1, $a2
	or	$a0, $a0, $a1
	lu12i.w	$a1, 524287
	ori	$a1, $a1, 4095
	slt	$a2, $a0, $a1
	maskeqz	$a0, $a0, $a2
	masknez	$a1, $a1, $a2
	or	$a0, $a0, $a1
.LBB10_20:                              # %_ZNKSt4lessINSt7__cxx1112basic_stringIcSt11char_traitsIcESaIcEEEEclERKS5_S8_.exit68
	addi.w	$a0, $a0, 0
	addi.w	$s3, $zero, -1
	bge	$s3, $a0, .LBB10_23
# %bb.21:
	move	$a1, $zero
	b	.LBB10_29
.LBB10_22:
	move	$a1, $fp
	b	.LBB10_29
.LBB10_23:                              # %if.then45
	ld.d	$a0, $s1, 32
	beq	$a0, $fp, .LBB10_30
# %bb.24:                               # %if.else53
	move	$a0, $fp
	pcaddu18i	$ra, %call36(_ZSt18_Rb_tree_incrementPSt18_Rb_tree_node_base)
	jirl	$ra, $ra, 0
	move	$s2, $a0
	ld.d	$s4, $a0, 40
	sltu	$a0, $s4, $s5
	masknez	$a1, $s5, $a0
	maskeqz	$a0, $s4, $a0
	or	$a2, $a0, $a1
	beqz	$a2, .LBB10_26
# %bb.25:                               # %_ZNSt11char_traitsIcE7compareEPKcS2_m.exit.i.i.i80
	ld.d	$a1, $s2, 32
	ld.d	$a0, $s0, 0
	pcaddu18i	$ra, %call36(memcmp)
	jirl	$ra, $ra, 0
	bnez	$a0, .LBB10_27
.LBB10_26:                              # %if.then.i.i.i85
	sub.d	$a0, $s5, $s4
	lu12i.w	$a1, -524288
	slt	$a2, $a1, $a0
	maskeqz	$a0, $a0, $a2
	masknez	$a1, $a1, $a2
	or	$a0, $a0, $a1
	lu12i.w	$a1, 524287
	ori	$a1, $a1, 4095
	slt	$a2, $a0, $a1
	maskeqz	$a0, $a0, $a2
	masknez	$a1, $a1, $a2
	or	$a0, $a0, $a1
.LBB10_27:                              # %_ZNKSt4lessINSt7__cxx1112basic_stringIcSt11char_traitsIcESaIcEEEEclERKS5_S8_.exit90
	addi.w	$a0, $a0, 0
	bge	$s3, $a0, .LBB10_31
.LBB10_28:                              # %if.else69
	move	$a0, $s1
	move	$a1, $s0
	pcaddu18i	$ra, %call36(_ZNSt8_Rb_treeINSt7__cxx1112basic_stringIcSt11char_traitsIcESaIcEEESt4pairIKS5_N9benchmark7CounterEESt10_Select1stISA_ESt4lessIS5_ESaISA_EE24_M_get_insert_unique_posERS7_)
	jirl	$ra, $ra, 0
	move	$fp, $a0
.LBB10_29:                              # %return
	move	$a0, $fp
	ld.d	$s6, $sp, 8                     # 8-byte Folded Reload
	ld.d	$s5, $sp, 16                    # 8-byte Folded Reload
	ld.d	$s4, $sp, 24                    # 8-byte Folded Reload
	ld.d	$s3, $sp, 32                    # 8-byte Folded Reload
	ld.d	$s2, $sp, 40                    # 8-byte Folded Reload
	ld.d	$s1, $sp, 48                    # 8-byte Folded Reload
	ld.d	$s0, $sp, 56                    # 8-byte Folded Reload
	ld.d	$fp, $sp, 64                    # 8-byte Folded Reload
	ld.d	$ra, $sp, 72                    # 8-byte Folded Reload
	addi.d	$sp, $sp, 80
	ret
.LBB10_30:
	move	$a1, $fp
	move	$fp, $zero
	b	.LBB10_29
.LBB10_31:                              # %if.then59
	ld.d	$a0, $fp, 24
	sltui	$a0, $a0, 1
	maskeqz	$a1, $fp, $a0
	masknez	$fp, $s2, $a0
	or	$a1, $a1, $fp
	b	.LBB10_29
.Lfunc_end10:
	.size	_ZNSt8_Rb_treeINSt7__cxx1112basic_stringIcSt11char_traitsIcESaIcEEESt4pairIKS5_N9benchmark7CounterEESt10_Select1stISA_ESt4lessIS5_ESaISA_EE29_M_get_insert_hint_unique_posESt23_Rb_tree_const_iteratorISA_ERS7_, .Lfunc_end10-_ZNSt8_Rb_treeINSt7__cxx1112basic_stringIcSt11char_traitsIcESaIcEEESt4pairIKS5_N9benchmark7CounterEESt10_Select1stISA_ESt4lessIS5_ESaISA_EE29_M_get_insert_hint_unique_posESt23_Rb_tree_const_iteratorISA_ERS7_
	.cfi_endproc
                                        # -- End function
	.section	.text._ZNSt8_Rb_treeINSt7__cxx1112basic_stringIcSt11char_traitsIcESaIcEEESt4pairIKS5_N9benchmark7CounterEESt10_Select1stISA_ESt4lessIS5_ESaISA_EE24_M_get_insert_unique_posERS7_,"axG",@progbits,_ZNSt8_Rb_treeINSt7__cxx1112basic_stringIcSt11char_traitsIcESaIcEEESt4pairIKS5_N9benchmark7CounterEESt10_Select1stISA_ESt4lessIS5_ESaISA_EE24_M_get_insert_unique_posERS7_,comdat
	.hidden	_ZNSt8_Rb_treeINSt7__cxx1112basic_stringIcSt11char_traitsIcESaIcEEESt4pairIKS5_N9benchmark7CounterEESt10_Select1stISA_ESt4lessIS5_ESaISA_EE24_M_get_insert_unique_posERS7_ # -- Begin function _ZNSt8_Rb_treeINSt7__cxx1112basic_stringIcSt11char_traitsIcESaIcEEESt4pairIKS5_N9benchmark7CounterEESt10_Select1stISA_ESt4lessIS5_ESaISA_EE24_M_get_insert_unique_posERS7_
	.weak	_ZNSt8_Rb_treeINSt7__cxx1112basic_stringIcSt11char_traitsIcESaIcEEESt4pairIKS5_N9benchmark7CounterEESt10_Select1stISA_ESt4lessIS5_ESaISA_EE24_M_get_insert_unique_posERS7_
	.p2align	2
	.type	_ZNSt8_Rb_treeINSt7__cxx1112basic_stringIcSt11char_traitsIcESaIcEEESt4pairIKS5_N9benchmark7CounterEESt10_Select1stISA_ESt4lessIS5_ESaISA_EE24_M_get_insert_unique_posERS7_,@function
_ZNSt8_Rb_treeINSt7__cxx1112basic_stringIcSt11char_traitsIcESaIcEEESt4pairIKS5_N9benchmark7CounterEESt10_Select1stISA_ESt4lessIS5_ESaISA_EE24_M_get_insert_unique_posERS7_: # @_ZNSt8_Rb_treeINSt7__cxx1112basic_stringIcSt11char_traitsIcESaIcEEESt4pairIKS5_N9benchmark7CounterEESt10_Select1stISA_ESt4lessIS5_ESaISA_EE24_M_get_insert_unique_posERS7_
	.cfi_startproc
# %bb.0:                                # %entry
	addi.d	$sp, $sp, -96
	.cfi_def_cfa_offset 96
	st.d	$ra, $sp, 88                    # 8-byte Folded Spill
	st.d	$fp, $sp, 80                    # 8-byte Folded Spill
	st.d	$s0, $sp, 72                    # 8-byte Folded Spill
	st.d	$s1, $sp, 64                    # 8-byte Folded Spill
	st.d	$s2, $sp, 56                    # 8-byte Folded Spill
	st.d	$s3, $sp, 48                    # 8-byte Folded Spill
	st.d	$s4, $sp, 40                    # 8-byte Folded Spill
	st.d	$s5, $sp, 32                    # 8-byte Folded Spill
	st.d	$s6, $sp, 24                    # 8-byte Folded Spill
	st.d	$s7, $sp, 16                    # 8-byte Folded Spill
	st.d	$s8, $sp, 8                     # 8-byte Folded Spill
	.cfi_offset 1, -8
	.cfi_offset 22, -16
	.cfi_offset 23, -24
	.cfi_offset 24, -32
	.cfi_offset 25, -40
	.cfi_offset 26, -48
	.cfi_offset 27, -56
	.cfi_offset 28, -64
	.cfi_offset 29, -72
	.cfi_offset 30, -80
	.cfi_offset 31, -88
	move	$s1, $a0
	ld.d	$a0, $a0, 16
	move	$s0, $a1
	lu12i.w	$s4, -524288
	lu12i.w	$s3, 524287
	beqz	$a0, .LBB11_13
# %bb.1:                                # %while.body.lr.ph
	ld.d	$s5, $s0, 8
	ld.d	$s2, $s0, 0
	ori	$s6, $s3, 4095
	ori	$s7, $zero, 24
	ori	$s8, $zero, 16
	b	.LBB11_4
	.p2align	4, , 16
.LBB11_2:                               # %if.then.i.i.i
                                        #   in Loop: Header=BB11_4 Depth=1
	sub.d	$a0, $s5, $s3
	slt	$a1, $s4, $a0
	maskeqz	$a0, $a0, $a1
	masknez	$a1, $s4, $a1
	or	$a0, $a0, $a1
	slt	$a1, $a0, $s6
	maskeqz	$a0, $a0, $a1
	masknez	$a1, $s6, $a1
	or	$a0, $a0, $a1
.LBB11_3:                               # %_ZNKSt4lessINSt7__cxx1112basic_stringIcSt11char_traitsIcESaIcEEEEclERKS5_S8_.exit
                                        #   in Loop: Header=BB11_4 Depth=1
	addi.w	$a1, $a0, 0
	slti	$a0, $a1, 0
	masknez	$a2, $s7, $a0
	maskeqz	$a0, $s8, $a0
	or	$a0, $a0, $a2
	ldx.d	$a0, $fp, $a0
	beqz	$a0, .LBB11_6
.LBB11_4:                               # %while.body
                                        # =>This Inner Loop Header: Depth=1
	move	$fp, $a0
	ld.d	$s3, $a0, 40
	sltu	$a0, $s3, $s5
	masknez	$a1, $s5, $a0
	maskeqz	$a0, $s3, $a0
	or	$a2, $a0, $a1
	beqz	$a2, .LBB11_2
# %bb.5:                                # %_ZNSt11char_traitsIcE7compareEPKcS2_m.exit.i.i.i
                                        #   in Loop: Header=BB11_4 Depth=1
	ld.d	$a1, $fp, 32
	move	$a0, $s2
	pcaddu18i	$ra, %call36(memcmp)
	jirl	$ra, $ra, 0
	bnez	$a0, .LBB11_3
	b	.LBB11_2
.LBB11_6:                               # %while.end
	addi.w	$a0, $zero, -1
	move	$s2, $fp
	lu12i.w	$s3, 524287
	blt	$a0, $a1, .LBB11_9
# %bb.7:                                # %if.then
	ld.d	$a0, $s1, 24
	beq	$fp, $a0, .LBB11_14
.LBB11_8:                               # %if.else
	move	$a0, $fp
	pcaddu18i	$ra, %call36(_ZSt18_Rb_tree_decrementPSt18_Rb_tree_node_base)
	jirl	$ra, $ra, 0
	move	$s2, $a0
.LBB11_9:                               # %if.end12
	ld.d	$s1, $s2, 40
	ld.d	$s5, $s0, 8
	sltu	$a0, $s5, $s1
	masknez	$a1, $s1, $a0
	maskeqz	$a0, $s5, $a0
	or	$a2, $a0, $a1
	beqz	$a2, .LBB11_11
# %bb.10:                               # %_ZNSt11char_traitsIcE7compareEPKcS2_m.exit.i.i.i11
	ld.d	$a1, $s0, 0
	ld.d	$a0, $s2, 32
	pcaddu18i	$ra, %call36(memcmp)
	jirl	$ra, $ra, 0
	bnez	$a0, .LBB11_12
.LBB11_11:                              # %if.then.i.i.i16
	sub.d	$a0, $s1, $s5
	slt	$a1, $s4, $a0
	maskeqz	$a0, $a0, $a1
	masknez	$a1, $s4, $a1
	or	$a0, $a0, $a1
	ori	$a1, $s3, 4095
	slt	$a2, $a0, $a1
	maskeqz	$a0, $a0, $a2
	masknez	$a1, $a1, $a2
	or	$a0, $a0, $a1
.LBB11_12:                              # %_ZNKSt4lessINSt7__cxx1112basic_stringIcSt11char_traitsIcESaIcEEEEclERKS5_S8_.exit21
	addi.w	$a0, $a0, 0
	slti	$a1, $a0, 0
	srai.d	$a0, $a0, 63
	and	$fp, $a0, $fp
	masknez	$a0, $s2, $a1
	b	.LBB11_15
.LBB11_13:
	addi.d	$fp, $s1, 8
	ld.d	$a0, $s1, 24
	bne	$fp, $a0, .LBB11_8
.LBB11_14:
	move	$a0, $zero
.LBB11_15:                              # %cleanup
	move	$a1, $fp
	ld.d	$s8, $sp, 8                     # 8-byte Folded Reload
	ld.d	$s7, $sp, 16                    # 8-byte Folded Reload
	ld.d	$s6, $sp, 24                    # 8-byte Folded Reload
	ld.d	$s5, $sp, 32                    # 8-byte Folded Reload
	ld.d	$s4, $sp, 40                    # 8-byte Folded Reload
	ld.d	$s3, $sp, 48                    # 8-byte Folded Reload
	ld.d	$s2, $sp, 56                    # 8-byte Folded Reload
	ld.d	$s1, $sp, 64                    # 8-byte Folded Reload
	ld.d	$s0, $sp, 72                    # 8-byte Folded Reload
	ld.d	$fp, $sp, 80                    # 8-byte Folded Reload
	ld.d	$ra, $sp, 88                    # 8-byte Folded Reload
	addi.d	$sp, $sp, 96
	ret
.Lfunc_end11:
	.size	_ZNSt8_Rb_treeINSt7__cxx1112basic_stringIcSt11char_traitsIcESaIcEEESt4pairIKS5_N9benchmark7CounterEESt10_Select1stISA_ESt4lessIS5_ESaISA_EE24_M_get_insert_unique_posERS7_, .Lfunc_end11-_ZNSt8_Rb_treeINSt7__cxx1112basic_stringIcSt11char_traitsIcESaIcEEESt4pairIKS5_N9benchmark7CounterEESt10_Select1stISA_ESt4lessIS5_ESaISA_EE24_M_get_insert_unique_posERS7_
	.cfi_endproc
                                        # -- End function
	.section	.text._ZNSt8_Rb_treeINSt7__cxx1112basic_stringIcSt11char_traitsIcESaIcEEESt4pairIKS5_N9benchmark7CounterEESt10_Select1stISA_ESt4lessIS5_ESaISA_EE17_M_construct_nodeIJRKSA_EEEvPSt13_Rb_tree_nodeISA_EDpOT_,"axG",@progbits,_ZNSt8_Rb_treeINSt7__cxx1112basic_stringIcSt11char_traitsIcESaIcEEESt4pairIKS5_N9benchmark7CounterEESt10_Select1stISA_ESt4lessIS5_ESaISA_EE17_M_construct_nodeIJRKSA_EEEvPSt13_Rb_tree_nodeISA_EDpOT_,comdat
	.hidden	_ZNSt8_Rb_treeINSt7__cxx1112basic_stringIcSt11char_traitsIcESaIcEEESt4pairIKS5_N9benchmark7CounterEESt10_Select1stISA_ESt4lessIS5_ESaISA_EE17_M_construct_nodeIJRKSA_EEEvPSt13_Rb_tree_nodeISA_EDpOT_ # -- Begin function _ZNSt8_Rb_treeINSt7__cxx1112basic_stringIcSt11char_traitsIcESaIcEEESt4pairIKS5_N9benchmark7CounterEESt10_Select1stISA_ESt4lessIS5_ESaISA_EE17_M_construct_nodeIJRKSA_EEEvPSt13_Rb_tree_nodeISA_EDpOT_
	.weak	_ZNSt8_Rb_treeINSt7__cxx1112basic_stringIcSt11char_traitsIcESaIcEEESt4pairIKS5_N9benchmark7CounterEESt10_Select1stISA_ESt4lessIS5_ESaISA_EE17_M_construct_nodeIJRKSA_EEEvPSt13_Rb_tree_nodeISA_EDpOT_
	.p2align	2
	.type	_ZNSt8_Rb_treeINSt7__cxx1112basic_stringIcSt11char_traitsIcESaIcEEESt4pairIKS5_N9benchmark7CounterEESt10_Select1stISA_ESt4lessIS5_ESaISA_EE17_M_construct_nodeIJRKSA_EEEvPSt13_Rb_tree_nodeISA_EDpOT_,@function
_ZNSt8_Rb_treeINSt7__cxx1112basic_stringIcSt11char_traitsIcESaIcEEESt4pairIKS5_N9benchmark7CounterEESt10_Select1stISA_ESt4lessIS5_ESaISA_EE17_M_construct_nodeIJRKSA_EEEvPSt13_Rb_tree_nodeISA_EDpOT_: # @_ZNSt8_Rb_treeINSt7__cxx1112basic_stringIcSt11char_traitsIcESaIcEEESt4pairIKS5_N9benchmark7CounterEESt10_Select1stISA_ESt4lessIS5_ESaISA_EE17_M_construct_nodeIJRKSA_EEEvPSt13_Rb_tree_nodeISA_EDpOT_
.Lfunc_begin2:
	.cfi_startproc
	.cfi_personality 155, DW.ref.__gxx_personality_v0
	.cfi_lsda 27, .Lexception2
# %bb.0:                                # %entry
	addi.d	$sp, $sp, -64
	.cfi_def_cfa_offset 64
	st.d	$ra, $sp, 56                    # 8-byte Folded Spill
	st.d	$fp, $sp, 48                    # 8-byte Folded Spill
	st.d	$s0, $sp, 40                    # 8-byte Folded Spill
	st.d	$s1, $sp, 32                    # 8-byte Folded Spill
	st.d	$s2, $sp, 24                    # 8-byte Folded Spill
	st.d	$s3, $sp, 16                    # 8-byte Folded Spill
	.cfi_offset 1, -8
	.cfi_offset 22, -16
	.cfi_offset 23, -24
	.cfi_offset 24, -32
	.cfi_offset 25, -40
	.cfi_offset 26, -48
	move	$s0, $a2
	move	$fp, $a1
	addi.d	$s1, $a1, 48
	st.d	$s1, $a1, 32
	ld.d	$a1, $a2, 8
	ld.d	$s2, $a2, 0
	ori	$a0, $zero, 16
	st.d	$a1, $sp, 8
	bltu	$a1, $a0, .LBB12_3
# %bb.1:                                # %if.then.i.i.i
.Ltmp546:                               # EH_LABEL
	addi.d	$s3, $fp, 32
	addi.d	$a1, $sp, 8
	move	$a0, $s3
	move	$a2, $zero
	pcaddu18i	$ra, %call36(_ZNSt7__cxx1112basic_stringIcSt11char_traitsIcESaIcEE9_M_createERmm)
	jirl	$ra, $ra, 0
.Ltmp547:                               # EH_LABEL
# %bb.2:                                # %call.i4.i.i.noexc
	ld.d	$a1, $sp, 8
	st.d	$a0, $s3, 0
	st.d	$a1, $s1, 0
	move	$s1, $a0
.LBB12_3:                               # %if.end.i.i.i
	addi.w	$a0, $zero, -1
	beq	$a1, $a0, .LBB12_7
# %bb.4:                                # %if.end.i.i.i
	bnez	$a1, .LBB12_6
# %bb.5:                                # %if.then.i.i.i.i
	ld.b	$a0, $s2, 0
	st.b	$a0, $s1, 0
	b	.LBB12_7
.LBB12_6:                               # %if.end.i.i.i.i.i
	addi.d	$a2, $a1, 1
	move	$a0, $s1
	move	$a1, $s2
	pcaddu18i	$ra, %call36(memcpy)
	jirl	$ra, $ra, 0
.LBB12_7:                               # %try.cont
	ld.d	$a0, $sp, 8
	st.d	$a0, $fp, 40
	vld	$vr0, $s0, 32
	vst	$vr0, $fp, 64
	ld.d	$s3, $sp, 16                    # 8-byte Folded Reload
	ld.d	$s2, $sp, 24                    # 8-byte Folded Reload
	ld.d	$s1, $sp, 32                    # 8-byte Folded Reload
	ld.d	$s0, $sp, 40                    # 8-byte Folded Reload
	ld.d	$fp, $sp, 48                    # 8-byte Folded Reload
	ld.d	$ra, $sp, 56                    # 8-byte Folded Reload
	addi.d	$sp, $sp, 64
	ret
.LBB12_8:                               # %lpad
.Ltmp548:                               # EH_LABEL
	pcaddu18i	$ra, %call36(__cxa_begin_catch)
	jirl	$ra, $ra, 0
	ori	$a1, $zero, 80
	move	$a0, $fp
	pcaddu18i	$ra, %call36(_ZdlPvm)
	jirl	$ra, $ra, 0
.Ltmp549:                               # EH_LABEL
	pcaddu18i	$ra, %call36(__cxa_rethrow)
	jirl	$ra, $ra, 0
.Ltmp550:                               # EH_LABEL
# %bb.9:                                # %unreachable
.LBB12_10:                              # %lpad4
.Ltmp551:                               # EH_LABEL
	move	$fp, $a0
.Ltmp552:                               # EH_LABEL
	pcaddu18i	$ra, %call36(__cxa_end_catch)
	jirl	$ra, $ra, 0
.Ltmp553:                               # EH_LABEL
# %bb.11:                               # %eh.resume
	move	$a0, $fp
	pcaddu18i	$ra, %call36(_Unwind_Resume)
	jirl	$ra, $ra, 0
.LBB12_12:                              # %terminate.lpad
.Ltmp554:                               # EH_LABEL
	pcaddu18i	$ra, %call36(__clang_call_terminate)
	jirl	$ra, $ra, 0
.Lfunc_end12:
	.size	_ZNSt8_Rb_treeINSt7__cxx1112basic_stringIcSt11char_traitsIcESaIcEEESt4pairIKS5_N9benchmark7CounterEESt10_Select1stISA_ESt4lessIS5_ESaISA_EE17_M_construct_nodeIJRKSA_EEEvPSt13_Rb_tree_nodeISA_EDpOT_, .Lfunc_end12-_ZNSt8_Rb_treeINSt7__cxx1112basic_stringIcSt11char_traitsIcESaIcEEESt4pairIKS5_N9benchmark7CounterEESt10_Select1stISA_ESt4lessIS5_ESaISA_EE17_M_construct_nodeIJRKSA_EEEvPSt13_Rb_tree_nodeISA_EDpOT_
	.cfi_endproc
	.section	.gcc_except_table._ZNSt8_Rb_treeINSt7__cxx1112basic_stringIcSt11char_traitsIcESaIcEEESt4pairIKS5_N9benchmark7CounterEESt10_Select1stISA_ESt4lessIS5_ESaISA_EE17_M_construct_nodeIJRKSA_EEEvPSt13_Rb_tree_nodeISA_EDpOT_,"aG",@progbits,_ZNSt8_Rb_treeINSt7__cxx1112basic_stringIcSt11char_traitsIcESaIcEEESt4pairIKS5_N9benchmark7CounterEESt10_Select1stISA_ESt4lessIS5_ESaISA_EE17_M_construct_nodeIJRKSA_EEEvPSt13_Rb_tree_nodeISA_EDpOT_,comdat
	.p2align	2, 0x0
GCC_except_table12:
.Lexception2:
	.byte	255                             # @LPStart Encoding = omit
	.byte	155                             # @TType Encoding = indirect pcrel sdata4
	.uleb128 .Lttbase1-.Lttbaseref1
.Lttbaseref1:
	.byte	1                               # Call site Encoding = uleb128
	.uleb128 .Lcst_end2-.Lcst_begin2
.Lcst_begin2:
	.uleb128 .Ltmp546-.Lfunc_begin2         # >> Call Site 1 <<
	.uleb128 .Ltmp547-.Ltmp546              #   Call between .Ltmp546 and .Ltmp547
	.uleb128 .Ltmp548-.Lfunc_begin2         #     jumps to .Ltmp548
	.byte	1                               #   On action: 1
	.uleb128 .Ltmp547-.Lfunc_begin2         # >> Call Site 2 <<
	.uleb128 .Ltmp549-.Ltmp547              #   Call between .Ltmp547 and .Ltmp549
	.byte	0                               #     has no landing pad
	.byte	0                               #   On action: cleanup
	.uleb128 .Ltmp549-.Lfunc_begin2         # >> Call Site 3 <<
	.uleb128 .Ltmp550-.Ltmp549              #   Call between .Ltmp549 and .Ltmp550
	.uleb128 .Ltmp551-.Lfunc_begin2         #     jumps to .Ltmp551
	.byte	0                               #   On action: cleanup
	.uleb128 .Ltmp552-.Lfunc_begin2         # >> Call Site 4 <<
	.uleb128 .Ltmp553-.Ltmp552              #   Call between .Ltmp552 and .Ltmp553
	.uleb128 .Ltmp554-.Lfunc_begin2         #     jumps to .Ltmp554
	.byte	1                               #   On action: 1
	.uleb128 .Ltmp553-.Lfunc_begin2         # >> Call Site 5 <<
	.uleb128 .Lfunc_end12-.Ltmp553          #   Call between .Ltmp553 and .Lfunc_end12
	.byte	0                               #     has no landing pad
	.byte	0                               #   On action: cleanup
.Lcst_end2:
	.byte	1                               # >> Action Record 1 <<
                                        #   Catch TypeInfo 1
	.byte	0                               #   No further actions
	.p2align	2, 0x0
                                        # >> Catch TypeInfos <<
	.word	0                               # TypeInfo 1
.Lttbase1:
	.p2align	2, 0x0
                                        # -- End function
	.section	.text._ZNK7Results5GetAsIdEET_RKNSt7__cxx1112basic_stringIcSt11char_traitsIcESaIcEEE,"axG",@progbits,_ZNK7Results5GetAsIdEET_RKNSt7__cxx1112basic_stringIcSt11char_traitsIcESaIcEEE,comdat
	.hidden	_ZNK7Results5GetAsIdEET_RKNSt7__cxx1112basic_stringIcSt11char_traitsIcESaIcEEE # -- Begin function _ZNK7Results5GetAsIdEET_RKNSt7__cxx1112basic_stringIcSt11char_traitsIcESaIcEEE
	.weak	_ZNK7Results5GetAsIdEET_RKNSt7__cxx1112basic_stringIcSt11char_traitsIcESaIcEEE
	.p2align	2
	.type	_ZNK7Results5GetAsIdEET_RKNSt7__cxx1112basic_stringIcSt11char_traitsIcESaIcEEE,@function
_ZNK7Results5GetAsIdEET_RKNSt7__cxx1112basic_stringIcSt11char_traitsIcESaIcEEE: # @_ZNK7Results5GetAsIdEET_RKNSt7__cxx1112basic_stringIcSt11char_traitsIcESaIcEEE
.Lfunc_begin3:
	.cfi_startproc
	.cfi_personality 155, DW.ref.__gxx_personality_v0
	.cfi_lsda 27, .Lexception3
# %bb.0:                                # %entry
	addi.d	$sp, $sp, -512
	.cfi_def_cfa_offset 512
	st.d	$ra, $sp, 504                   # 8-byte Folded Spill
	st.d	$fp, $sp, 496                   # 8-byte Folded Spill
	st.d	$s0, $sp, 488                   # 8-byte Folded Spill
	st.d	$s1, $sp, 480                   # 8-byte Folded Spill
	st.d	$s2, $sp, 472                   # 8-byte Folded Spill
	st.d	$s3, $sp, 464                   # 8-byte Folded Spill
	st.d	$s4, $sp, 456                   # 8-byte Folded Spill
	st.d	$s5, $sp, 448                   # 8-byte Folded Spill
	st.d	$s6, $sp, 440                   # 8-byte Folded Spill
	st.d	$s7, $sp, 432                   # 8-byte Folded Spill
	st.d	$s8, $sp, 424                   # 8-byte Folded Spill
	fst.d	$fs0, $sp, 416                  # 8-byte Folded Spill
	.cfi_offset 1, -8
	.cfi_offset 22, -16
	.cfi_offset 23, -24
	.cfi_offset 24, -32
	.cfi_offset 25, -40
	.cfi_offset 26, -48
	.cfi_offset 27, -56
	.cfi_offset 28, -64
	.cfi_offset 29, -72
	.cfi_offset 30, -80
	.cfi_offset 31, -88
	.cfi_offset 56, -96
	ld.d	$s5, $a0, 48
	beqz	$s5, .LBB13_20
# %bb.1:                                # %while.body.lr.ph.i.i.i.i
	addi.d	$s1, $a0, 40
	ld.d	$s4, $a1, 8
	ld.d	$fp, $a1, 0
	lu12i.w	$s3, -524288
	lu12i.w	$a0, 524287
	ori	$s2, $a0, 4095
	ori	$s6, $zero, 16
	ori	$s7, $zero, 24
	move	$s0, $s1
	b	.LBB13_4
	.p2align	4, , 16
.LBB13_2:                               # %if.then.i.i.i.i.i.i.i
                                        #   in Loop: Header=BB13_4 Depth=1
	sub.d	$a0, $s8, $s4
	slt	$a1, $s3, $a0
	maskeqz	$a0, $a0, $a1
	masknez	$a1, $s3, $a1
	or	$a0, $a0, $a1
	slt	$a1, $a0, $s2
	maskeqz	$a0, $a0, $a1
	masknez	$a1, $s2, $a1
	or	$a0, $a0, $a1
.LBB13_3:                               # %_ZNKSt4lessINSt7__cxx1112basic_stringIcSt11char_traitsIcESaIcEEEEclERKS5_S8_.exit.i.i.i.i
                                        #   in Loop: Header=BB13_4 Depth=1
	addi.w	$a0, $a0, 0
	slti	$a0, $a0, 0
	masknez	$a1, $s5, $a0
	masknez	$a2, $s6, $a0
	maskeqz	$a3, $s7, $a0
	or	$a2, $a3, $a2
	ldx.d	$s5, $s5, $a2
	maskeqz	$a0, $s0, $a0
	or	$s0, $a0, $a1
	beqz	$s5, .LBB13_6
.LBB13_4:                               # %while.body.i.i.i.i
                                        # =>This Inner Loop Header: Depth=1
	ld.d	$s8, $s5, 40
	sltu	$a0, $s4, $s8
	masknez	$a1, $s8, $a0
	maskeqz	$a0, $s4, $a0
	or	$a2, $a0, $a1
	beqz	$a2, .LBB13_2
# %bb.5:                                # %_ZNSt11char_traitsIcE7compareEPKcS2_m.exit.i.i.i.i.i.i.i
                                        #   in Loop: Header=BB13_4 Depth=1
	ld.d	$a0, $s5, 32
	move	$a1, $fp
	pcaddu18i	$ra, %call36(memcmp)
	jirl	$ra, $ra, 0
	bnez	$a0, .LBB13_3
	b	.LBB13_2
.LBB13_6:                               # %_ZNKSt8_Rb_treeINSt7__cxx1112basic_stringIcSt11char_traitsIcESaIcEEESt4pairIKS5_S5_ESt10_Select1stIS8_ESt4lessIS5_ESaIS8_EE14_M_lower_boundEPSt18_Rb_tree_node_baseSG_RS7_.exit.i.i.i
	beq	$s0, $s1, .LBB13_20
# %bb.7:                                # %lor.lhs.false.i.i.i
	ld.d	$s5, $s0, 40
	sltu	$a0, $s5, $s4
	masknez	$a1, $s4, $a0
	maskeqz	$a0, $s5, $a0
	or	$a2, $a0, $a1
	beqz	$a2, .LBB13_9
# %bb.8:                                # %_ZNSt11char_traitsIcE7compareEPKcS2_m.exit.i.i.i.i.i.i
	ld.d	$a1, $s0, 32
	move	$a0, $fp
	pcaddu18i	$ra, %call36(memcmp)
	jirl	$ra, $ra, 0
	bnez	$a0, .LBB13_10
.LBB13_9:                               # %if.then.i.i.i.i.i.i
	sub.d	$a0, $s4, $s5
	slt	$a1, $s3, $a0
	maskeqz	$a0, $a0, $a1
	masknez	$a1, $s3, $a1
	or	$a0, $a0, $a1
	slt	$a1, $a0, $s2
	maskeqz	$a0, $a0, $a1
	masknez	$a1, $s2, $a1
	or	$a0, $a0, $a1
.LBB13_10:                              # %_ZNK7Results3GetERKNSt7__cxx1112basic_stringIcSt11char_traitsIcESaIcEEE.exit
	addi.w	$a0, $a0, 0
	bltz	$a0, .LBB13_20
# %bb.11:                               # %land.lhs.true
	ld.d	$a1, $s0, 72
	beqz	$a1, .LBB13_20
# %bb.12:                               # %cond.true
	slti	$a0, $a0, 0
	pcalau12i	$fp, %pc_hi20(_ZGVZN9benchmark8internal18GetNullLogInstanceEvE8null_log)
	ld.b	$a1, $fp, %pc_lo12(_ZGVZN9benchmark8internal18GetNullLogInstanceEvE8null_log)
	masknez	$a2, $s0, $a0
	maskeqz	$a0, $s1, $a0
	or	$s1, $a0, $a2
	dbar	20
	beqz	$a1, .LBB13_21
.LBB13_13:                              # %_ZN9benchmark8internal18GetNullLogInstanceEv.exit
	addi.d	$a0, $sp, 24
	pcaddu18i	$ra, %call36(_ZNSt7__cxx1118basic_stringstreamIcSt11char_traitsIcESaIcEEC1Ev)
	jirl	$ra, $ra, 0
	ld.d	$a1, $s1, 64
	ld.d	$a2, $s0, 72
	addi.d	$a0, $sp, 40
.Ltmp555:                               # EH_LABEL
	pcaddu18i	$ra, %call36(_ZSt16__ostream_insertIcSt11char_traitsIcEERSt13basic_ostreamIT_T0_ES6_PKS3_l)
	jirl	$ra, $ra, 0
.Ltmp556:                               # EH_LABEL
# %bb.14:                               # %invoke.cont
.Ltmp558:                               # EH_LABEL
	addi.d	$a0, $sp, 24
	addi.d	$a1, $sp, 16
	addi.d	$s0, $sp, 24
	pcaddu18i	$ra, %call36(_ZNSi10_M_extractIdEERSiRT_)
	jirl	$ra, $ra, 0
.Ltmp559:                               # EH_LABEL
# %bb.15:                               # %invoke.cont11
	ld.d	$a0, $sp, 24
	ld.d	$a0, $a0, -24
	add.d	$a0, $s0, $a0
	ld.bu	$a0, $a0, 32
	andi	$a0, $a0, 5
	bnez	$a0, .LBB13_23
# %bb.16:                               # %cond.true16
	ld.b	$a0, $fp, %pc_lo12(_ZGVZN9benchmark8internal18GetNullLogInstanceEvE8null_log)
	dbar	20
	beqz	$a0, .LBB13_26
.LBB13_17:                              # %cleanup.done34
	pcalau12i	$a0, %got_pc_hi20(_ZTTNSt7__cxx1118basic_stringstreamIcSt11char_traitsIcESaIcEEE)
	ld.d	$fp, $a0, %got_pc_lo12(_ZTTNSt7__cxx1118basic_stringstreamIcSt11char_traitsIcESaIcEEE)
	ld.d	$a0, $fp, 0
	st.d	$a0, $sp, 24
	ld.d	$a1, $fp, 64
	ld.d	$a0, $a0, -24
	addi.d	$s0, $sp, 24
	stx.d	$a1, $a0, $s0
	ld.d	$a1, $fp, 72
	pcalau12i	$a0, %got_pc_hi20(_ZTVNSt7__cxx1115basic_stringbufIcSt11char_traitsIcESaIcEEE)
	ld.d	$a2, $a0, %got_pc_lo12(_ZTVNSt7__cxx1115basic_stringbufIcSt11char_traitsIcESaIcEEE)
	fld.d	$fs0, $sp, 16
	ld.d	$a0, $sp, 120
	st.d	$a1, $sp, 40
	addi.d	$a1, $a2, 16
	addi.d	$a2, $sp, 136
	st.d	$a1, $sp, 48
	beq	$a0, $a2, .LBB13_19
# %bb.18:                               # %if.then.i.i.i.i.i
	ld.d	$a1, $sp, 136
	addi.d	$a1, $a1, 1
	pcaddu18i	$ra, %call36(_ZdlPvm)
	jirl	$ra, $ra, 0
.LBB13_19:                              # %_ZNSt7__cxx1118basic_stringstreamIcSt11char_traitsIcESaIcEED1Ev.exit
	pcalau12i	$a0, %got_pc_hi20(_ZTVSt15basic_streambufIcSt11char_traitsIcEE)
	ld.d	$a0, $a0, %got_pc_lo12(_ZTVSt15basic_streambufIcSt11char_traitsIcEE)
	addi.d	$a0, $a0, 16
	st.d	$a0, $sp, 48
	addi.d	$a0, $sp, 104
	pcaddu18i	$ra, %call36(_ZNSt6localeD1Ev)
	jirl	$ra, $ra, 0
	ld.d	$a0, $fp, 16
	st.d	$a0, $sp, 24
	ld.d	$a1, $fp, 24
	ld.d	$a0, $a0, -24
	stx.d	$a1, $a0, $s0
	st.d	$zero, $sp, 32
	addi.d	$a0, $sp, 152
	pcaddu18i	$ra, %call36(_ZNSt8ios_baseD2Ev)
	jirl	$ra, $ra, 0
	fmov.d	$fa0, $fs0
	fld.d	$fs0, $sp, 416                  # 8-byte Folded Reload
	ld.d	$s8, $sp, 424                   # 8-byte Folded Reload
	ld.d	$s7, $sp, 432                   # 8-byte Folded Reload
	ld.d	$s6, $sp, 440                   # 8-byte Folded Reload
	ld.d	$s5, $sp, 448                   # 8-byte Folded Reload
	ld.d	$s4, $sp, 456                   # 8-byte Folded Reload
	ld.d	$s3, $sp, 464                   # 8-byte Folded Reload
	ld.d	$s2, $sp, 472                   # 8-byte Folded Reload
	ld.d	$s1, $sp, 480                   # 8-byte Folded Reload
	ld.d	$s0, $sp, 488                   # 8-byte Folded Reload
	ld.d	$fp, $sp, 496                   # 8-byte Folded Reload
	ld.d	$ra, $sp, 504                   # 8-byte Folded Reload
	addi.d	$sp, $sp, 512
	ret
.LBB13_20:                              # %cond.false
	pcalau12i	$a0, %pc_hi20(.L.str.82)
	addi.d	$a1, $a0, %pc_lo12(.L.str.82)
	pcalau12i	$a0, %pc_hi20(.L.str.83)
	addi.d	$a2, $a0, %pc_lo12(.L.str.83)
	pcalau12i	$a0, %pc_hi20(.L__func__._ZNK7Results5GetAsIdEET_RKNSt7__cxx1112basic_stringIcSt11char_traitsIcESaIcEEE)
	addi.d	$a3, $a0, %pc_lo12(.L__func__._ZNK7Results5GetAsIdEET_RKNSt7__cxx1112basic_stringIcSt11char_traitsIcESaIcEEE)
	addi.d	$a0, $sp, 24
	ori	$a4, $zero, 144
	pcaddu18i	$ra, %call36(_ZN9benchmark8internal12CheckHandlerC2EPKcS3_S3_i)
	jirl	$ra, $ra, 0
	addi.d	$a0, $sp, 24
	pcaddu18i	$ra, %call36(_ZN9benchmark8internal12CheckHandlerD2Ev)
	jirl	$ra, $ra, 0
.LBB13_21:                              # %init.check.i
	pcalau12i	$a0, %pc_hi20(_ZGVZN9benchmark8internal18GetNullLogInstanceEvE8null_log)
	addi.d	$a0, $a0, %pc_lo12(_ZGVZN9benchmark8internal18GetNullLogInstanceEvE8null_log)
	pcaddu18i	$ra, %call36(__cxa_guard_acquire)
	jirl	$ra, $ra, 0
	addi.w	$a0, $a0, 0
	beqz	$a0, .LBB13_13
# %bb.22:                               # %init.i
	pcalau12i	$a0, %pc_hi20(_ZZN9benchmark8internal18GetNullLogInstanceEvE8null_log)
	st.d	$zero, $a0, %pc_lo12(_ZZN9benchmark8internal18GetNullLogInstanceEvE8null_log)
	pcalau12i	$a0, %pc_hi20(_ZGVZN9benchmark8internal18GetNullLogInstanceEvE8null_log)
	addi.d	$a0, $a0, %pc_lo12(_ZGVZN9benchmark8internal18GetNullLogInstanceEvE8null_log)
	pcaddu18i	$ra, %call36(__cxa_guard_release)
	jirl	$ra, $ra, 0
	b	.LBB13_13
.LBB13_23:                              # %cond.false19
.Ltmp561:                               # EH_LABEL
	pcalau12i	$a0, %pc_hi20(.L.str.84)
	addi.d	$a1, $a0, %pc_lo12(.L.str.84)
	pcalau12i	$a0, %pc_hi20(.L.str.83)
	addi.d	$a2, $a0, %pc_lo12(.L.str.83)
	pcalau12i	$a0, %pc_hi20(.L__func__._ZNK7Results5GetAsIdEET_RKNSt7__cxx1112basic_stringIcSt11char_traitsIcESaIcEEE)
	addi.d	$a3, $a0, %pc_lo12(.L__func__._ZNK7Results5GetAsIdEET_RKNSt7__cxx1112basic_stringIcSt11char_traitsIcESaIcEEE)
	addi.d	$a0, $sp, 8
	ori	$a4, $zero, 149
	pcaddu18i	$ra, %call36(_ZN9benchmark8internal12CheckHandlerC2EPKcS3_S3_i)
	jirl	$ra, $ra, 0
.Ltmp562:                               # EH_LABEL
# %bb.24:                               # %cleanup.action29
.Ltmp563:                               # EH_LABEL
	addi.d	$a0, $sp, 8
	pcaddu18i	$ra, %call36(_ZN9benchmark8internal12CheckHandlerD2Ev)
	jirl	$ra, $ra, 0
.Ltmp564:                               # EH_LABEL
# %bb.25:                               # %invoke.cont30
.LBB13_26:                              # %init.check.i8
	pcalau12i	$a0, %pc_hi20(_ZGVZN9benchmark8internal18GetNullLogInstanceEvE8null_log)
	addi.d	$a0, $a0, %pc_lo12(_ZGVZN9benchmark8internal18GetNullLogInstanceEvE8null_log)
	pcaddu18i	$ra, %call36(__cxa_guard_acquire)
	jirl	$ra, $ra, 0
	addi.w	$a0, $a0, 0
	beqz	$a0, .LBB13_17
# %bb.27:                               # %init.i10
	pcalau12i	$a0, %pc_hi20(_ZZN9benchmark8internal18GetNullLogInstanceEvE8null_log)
	st.d	$zero, $a0, %pc_lo12(_ZZN9benchmark8internal18GetNullLogInstanceEvE8null_log)
	pcalau12i	$a0, %pc_hi20(_ZGVZN9benchmark8internal18GetNullLogInstanceEvE8null_log)
	addi.d	$a0, $a0, %pc_lo12(_ZGVZN9benchmark8internal18GetNullLogInstanceEvE8null_log)
	pcaddu18i	$ra, %call36(__cxa_guard_release)
	jirl	$ra, $ra, 0
	b	.LBB13_17
.LBB13_28:                              # %lpad22
.Ltmp565:                               # EH_LABEL
	b	.LBB13_31
.LBB13_29:                              # %lpad10
.Ltmp560:                               # EH_LABEL
	b	.LBB13_31
.LBB13_30:                              # %lpad
.Ltmp557:                               # EH_LABEL
.LBB13_31:                              # %ehcleanup38
	move	$fp, $a0
	addi.d	$a0, $sp, 24
	pcaddu18i	$ra, %call36(_ZNSt7__cxx1118basic_stringstreamIcSt11char_traitsIcESaIcEED1Ev)
	jirl	$ra, $ra, 0
	move	$a0, $fp
	pcaddu18i	$ra, %call36(_Unwind_Resume)
	jirl	$ra, $ra, 0
.Lfunc_end13:
	.size	_ZNK7Results5GetAsIdEET_RKNSt7__cxx1112basic_stringIcSt11char_traitsIcESaIcEEE, .Lfunc_end13-_ZNK7Results5GetAsIdEET_RKNSt7__cxx1112basic_stringIcSt11char_traitsIcESaIcEEE
	.cfi_endproc
	.section	.gcc_except_table._ZNK7Results5GetAsIdEET_RKNSt7__cxx1112basic_stringIcSt11char_traitsIcESaIcEEE,"aG",@progbits,_ZNK7Results5GetAsIdEET_RKNSt7__cxx1112basic_stringIcSt11char_traitsIcESaIcEEE,comdat
	.p2align	2, 0x0
GCC_except_table13:
.Lexception3:
	.byte	255                             # @LPStart Encoding = omit
	.byte	255                             # @TType Encoding = omit
	.byte	1                               # Call site Encoding = uleb128
	.uleb128 .Lcst_end3-.Lcst_begin3
.Lcst_begin3:
	.uleb128 .Lfunc_begin3-.Lfunc_begin3    # >> Call Site 1 <<
	.uleb128 .Ltmp555-.Lfunc_begin3         #   Call between .Lfunc_begin3 and .Ltmp555
	.byte	0                               #     has no landing pad
	.byte	0                               #   On action: cleanup
	.uleb128 .Ltmp555-.Lfunc_begin3         # >> Call Site 2 <<
	.uleb128 .Ltmp556-.Ltmp555              #   Call between .Ltmp555 and .Ltmp556
	.uleb128 .Ltmp557-.Lfunc_begin3         #     jumps to .Ltmp557
	.byte	0                               #   On action: cleanup
	.uleb128 .Ltmp558-.Lfunc_begin3         # >> Call Site 3 <<
	.uleb128 .Ltmp559-.Ltmp558              #   Call between .Ltmp558 and .Ltmp559
	.uleb128 .Ltmp560-.Lfunc_begin3         #     jumps to .Ltmp560
	.byte	0                               #   On action: cleanup
	.uleb128 .Ltmp559-.Lfunc_begin3         # >> Call Site 4 <<
	.uleb128 .Ltmp561-.Ltmp559              #   Call between .Ltmp559 and .Ltmp561
	.byte	0                               #     has no landing pad
	.byte	0                               #   On action: cleanup
	.uleb128 .Ltmp561-.Lfunc_begin3         # >> Call Site 5 <<
	.uleb128 .Ltmp564-.Ltmp561              #   Call between .Ltmp561 and .Ltmp564
	.uleb128 .Ltmp565-.Lfunc_begin3         #     jumps to .Ltmp565
	.byte	0                               #   On action: cleanup
	.uleb128 .Ltmp564-.Lfunc_begin3         # >> Call Site 6 <<
	.uleb128 .Lfunc_end13-.Ltmp564          #   Call between .Ltmp564 and .Lfunc_end13
	.byte	0                               #     has no landing pad
	.byte	0                               #   On action: cleanup
.Lcst_end3:
	.p2align	2, 0x0
                                        # -- End function
	.section	.text._ZNSt17_Function_handlerIFvRK7ResultsEPS3_E9_M_invokeERKSt9_Any_dataS2_,"axG",@progbits,_ZNSt17_Function_handlerIFvRK7ResultsEPS3_E9_M_invokeERKSt9_Any_dataS2_,comdat
	.hidden	_ZNSt17_Function_handlerIFvRK7ResultsEPS3_E9_M_invokeERKSt9_Any_dataS2_ # -- Begin function _ZNSt17_Function_handlerIFvRK7ResultsEPS3_E9_M_invokeERKSt9_Any_dataS2_
	.weak	_ZNSt17_Function_handlerIFvRK7ResultsEPS3_E9_M_invokeERKSt9_Any_dataS2_
	.p2align	2
	.type	_ZNSt17_Function_handlerIFvRK7ResultsEPS3_E9_M_invokeERKSt9_Any_dataS2_,@function
_ZNSt17_Function_handlerIFvRK7ResultsEPS3_E9_M_invokeERKSt9_Any_dataS2_: # @_ZNSt17_Function_handlerIFvRK7ResultsEPS3_E9_M_invokeERKSt9_Any_dataS2_
	.cfi_startproc
# %bb.0:                                # %entry
	ld.d	$a2, $a0, 0
	move	$a0, $a1
	jr	$a2
.Lfunc_end14:
	.size	_ZNSt17_Function_handlerIFvRK7ResultsEPS3_E9_M_invokeERKSt9_Any_dataS2_, .Lfunc_end14-_ZNSt17_Function_handlerIFvRK7ResultsEPS3_E9_M_invokeERKSt9_Any_dataS2_
	.cfi_endproc
                                        # -- End function
	.section	.text._ZNSt17_Function_handlerIFvRK7ResultsEPS3_E10_M_managerERSt9_Any_dataRKS6_St18_Manager_operation,"axG",@progbits,_ZNSt17_Function_handlerIFvRK7ResultsEPS3_E10_M_managerERSt9_Any_dataRKS6_St18_Manager_operation,comdat
	.hidden	_ZNSt17_Function_handlerIFvRK7ResultsEPS3_E10_M_managerERSt9_Any_dataRKS6_St18_Manager_operation # -- Begin function _ZNSt17_Function_handlerIFvRK7ResultsEPS3_E10_M_managerERSt9_Any_dataRKS6_St18_Manager_operation
	.weak	_ZNSt17_Function_handlerIFvRK7ResultsEPS3_E10_M_managerERSt9_Any_dataRKS6_St18_Manager_operation
	.p2align	2
	.type	_ZNSt17_Function_handlerIFvRK7ResultsEPS3_E10_M_managerERSt9_Any_dataRKS6_St18_Manager_operation,@function
_ZNSt17_Function_handlerIFvRK7ResultsEPS3_E10_M_managerERSt9_Any_dataRKS6_St18_Manager_operation: # @_ZNSt17_Function_handlerIFvRK7ResultsEPS3_E10_M_managerERSt9_Any_dataRKS6_St18_Manager_operation
	.cfi_startproc
# %bb.0:                                # %entry
	beqz	$a2, .LBB15_6
# %bb.1:                                # %entry
	ori	$a3, $zero, 2
	beq	$a2, $a3, .LBB15_4
# %bb.2:                                # %entry
	ori	$a3, $zero, 1
	beq	$a2, $a3, .LBB15_5
# %bb.3:                                # %sw.epilog
	move	$a0, $zero
	ret
.LBB15_4:                               # %sw.bb4.i
	ld.d	$a1, $a1, 0
.LBB15_5:                               # %sw.epilog.sink.split
	st.d	$a1, $a0, 0
	move	$a0, $zero
	ret
.LBB15_6:
	pcalau12i	$a1, %pc_hi20(_ZTIPFvRK7ResultsE)
	addi.d	$a1, $a1, %pc_lo12(_ZTIPFvRK7ResultsE)
	st.d	$a1, $a0, 0
	move	$a0, $zero
	ret
.Lfunc_end15:
	.size	_ZNSt17_Function_handlerIFvRK7ResultsEPS3_E10_M_managerERSt9_Any_dataRKS6_St18_Manager_operation, .Lfunc_end15-_ZNSt17_Function_handlerIFvRK7ResultsEPS3_E10_M_managerERSt9_Any_dataRKS6_St18_Manager_operation
	.cfi_endproc
                                        # -- End function
	.section	.text.startup,"ax",@progbits
	.p2align	5                               # -- Begin function _GLOBAL__sub_I_user_counters_thousands_test.cc
	.type	_GLOBAL__sub_I_user_counters_thousands_test.cc,@function
_GLOBAL__sub_I_user_counters_thousands_test.cc: # @_GLOBAL__sub_I_user_counters_thousands_test.cc
.Lfunc_begin4:
	.cfi_startproc
	.cfi_personality 155, DW.ref.__gxx_personality_v0
	.cfi_lsda 27, .Lexception4
# %bb.0:                                # %entry
	addi.d	$sp, $sp, -2032
	.cfi_def_cfa_offset 2032
	st.d	$ra, $sp, 2024                  # 8-byte Folded Spill
	st.d	$fp, $sp, 2016                  # 8-byte Folded Spill
	st.d	$s0, $sp, 2008                  # 8-byte Folded Spill
	st.d	$s1, $sp, 2000                  # 8-byte Folded Spill
	st.d	$s2, $sp, 1992                  # 8-byte Folded Spill
	st.d	$s3, $sp, 1984                  # 8-byte Folded Spill
	st.d	$s4, $sp, 1976                  # 8-byte Folded Spill
	st.d	$s5, $sp, 1968                  # 8-byte Folded Spill
	st.d	$s6, $sp, 1960                  # 8-byte Folded Spill
	st.d	$s7, $sp, 1952                  # 8-byte Folded Spill
	st.d	$s8, $sp, 1944                  # 8-byte Folded Spill
	.cfi_offset 1, -8
	.cfi_offset 22, -16
	.cfi_offset 23, -24
	.cfi_offset 24, -32
	.cfi_offset 25, -40
	.cfi_offset 26, -48
	.cfi_offset 27, -56
	.cfi_offset 28, -64
	.cfi_offset 29, -72
	.cfi_offset 30, -80
	.cfi_offset 31, -88
	addi.d	$sp, $sp, -656
	.cfi_def_cfa_offset 2688
	pcaddu18i	$ra, %call36(_ZN9benchmark8internal17InitializeStreamsEv)
	jirl	$ra, $ra, 0
	ori	$a0, $zero, 232
	pcaddu18i	$ra, %call36(_Znwm)
	jirl	$ra, $ra, 0
	move	$fp, $a0
	addi.d	$s2, $sp, 784
	st.d	$s2, $sp, 768
	ori	$a0, $zero, 21
	ori	$a1, $zero, 2568
	add.d	$a1, $sp, $a1
	st.d	$a0, $a1, 0
.Ltmp566:                               # EH_LABEL
	addi.d	$a0, $sp, 768
	ori	$a1, $zero, 2568
	add.d	$a1, $sp, $a1
	move	$a2, $zero
	pcaddu18i	$ra, %call36(_ZNSt7__cxx1112basic_stringIcSt11char_traitsIcESaIcEE9_M_createERmm)
	jirl	$ra, $ra, 0
.Ltmp567:                               # EH_LABEL
# %bb.1:                                # %call2.i5.i.noexc.i
	ori	$a1, $zero, 2568
	add.d	$a1, $sp, $a1
	ld.d	$a1, $a1, 0
	pcalau12i	$a2, %pc_hi20(.L.str.6)
	addi.d	$s4, $a2, %pc_lo12(.L.str.6)
	vld	$vr0, $s4, 0
	ld.d	$s3, $s4, 13
	st.d	$a0, $sp, 768
	st.d	$a1, $sp, 784
	vst	$vr0, $a0, 0
	st.d	$s3, $a0, 13
	ld.d	$a0, $sp, 768
	st.d	$a1, $sp, 776
	stx.b	$zero, $a0, $a1
	ori	$s1, $zero, 1
.Ltmp569:                               # EH_LABEL
	addi.d	$a1, $sp, 768
	move	$a0, $fp
	pcaddu18i	$ra, %call36(_ZN9benchmark8internal9BenchmarkC2ERKNSt7__cxx1112basic_stringIcSt11char_traitsIcESaIcEEE)
	jirl	$ra, $ra, 0
.Ltmp570:                               # EH_LABEL
# %bb.2:                                # %invoke.cont3.i
	pcalau12i	$a0, %got_pc_hi20(_ZTVN9benchmark8internal17FunctionBenchmarkE)
	ld.d	$a0, $a0, %got_pc_lo12(_ZTVN9benchmark8internal17FunctionBenchmarkE)
	addi.d	$a0, $a0, 16
	st.d	$a0, $fp, 0
	pcalau12i	$a0, %pc_hi20(_Z21BM_Counters_ThousandsRN9benchmark5StateE)
	addi.d	$a0, $a0, %pc_lo12(_Z21BM_Counters_ThousandsRN9benchmark5StateE)
	st.d	$a0, $fp, 224
.Ltmp571:                               # EH_LABEL
	move	$s1, $zero
	move	$a0, $fp
	pcaddu18i	$ra, %call36(_ZN9benchmark8internal25RegisterBenchmarkInternalEPNS0_9BenchmarkE)
	jirl	$ra, $ra, 0
.Ltmp572:                               # EH_LABEL
# %bb.3:                                # %invoke.cont4.i
.Ltmp573:                               # EH_LABEL
	ori	$a1, $zero, 2
	move	$s1, $zero
	pcaddu18i	$ra, %call36(_ZN9benchmark8internal9Benchmark11RepetitionsEi)
	jirl	$ra, $ra, 0
.Ltmp574:                               # EH_LABEL
# %bb.4:                                # %invoke.cont6.i
	move	$s0, $a0
	st.d	$s3, $sp, 16                    # 8-byte Folded Spill
	ld.d	$a0, $sp, 768
	beq	$a0, $s2, .LBB16_6
# %bb.5:                                # %if.then.i.i3.i
	ld.d	$a1, $sp, 784
	addi.d	$a1, $a1, 1
	pcaddu18i	$ra, %call36(_ZdlPvm)
	jirl	$ra, $ra, 0
.LBB16_6:                               # %__cxx_global_var_init.5.exit
	pcalau12i	$a0, %pc_hi20(_ZL27benchmark_uniq_2_benchmark_)
	st.d	$s0, $a0, %pc_lo12(_ZL27benchmark_uniq_2_benchmark_)
	ori	$a0, $zero, 2584
	add.d	$s5, $sp, $a0
	ori	$a0, $zero, 2568
	add.d	$a0, $sp, $a0
	st.d	$s5, $a0, 0
	ori	$s1, $zero, 179
	ori	$a0, $zero, 2536
	add.d	$a0, $sp, $a0
	st.d	$s1, $a0, 0
	ori	$a0, $zero, 2568
	add.d	$a0, $sp, $a0
	ori	$a1, $zero, 2536
	add.d	$a1, $sp, $a1
	move	$a2, $zero
	pcaddu18i	$ra, %call36(_ZNSt7__cxx1112basic_stringIcSt11char_traitsIcESaIcEE9_M_createERmm)
	jirl	$ra, $ra, 0
	ori	$a1, $zero, 2536
	add.d	$a1, $sp, $a1
	ld.d	$s0, $a1, 0
	move	$fp, $a0
	ori	$a1, $zero, 2568
	add.d	$a1, $sp, $a1
	st.d	$a0, $a1, 0
	ori	$a0, $zero, 2584
	add.d	$a0, $sp, $a0
	st.d	$s0, $a0, 0
	pcalau12i	$a0, %pc_hi20(.L.str.8)
	addi.d	$a1, $a0, %pc_lo12(.L.str.8)
	ori	$a2, $zero, 179
	move	$a0, $fp
	pcaddu18i	$ra, %call36(memcpy)
	jirl	$ra, $ra, 0
	ori	$a0, $zero, 2576
	add.d	$a0, $sp, $a0
	st.d	$s0, $a0, 0
	stx.b	$zero, $fp, $s0
.Ltmp576:                               # EH_LABEL
	addi.d	$a0, $sp, 768
	ori	$a1, $zero, 2568
	add.d	$a1, $sp, $a1
	addi.d	$s0, $sp, 768
	move	$a2, $zero
	pcaddu18i	$ra, %call36(_ZN8TestCaseC1ENSt7__cxx1112basic_stringIcSt11char_traitsIcESaIcEEEi)
	jirl	$ra, $ra, 0
.Ltmp577:                               # EH_LABEL
# %bb.7:                                # %invoke.cont4.i6
	addi.d	$s0, $sp, 856
	ori	$a0, $zero, 2552
	add.d	$a0, $sp, $a0
	ori	$a1, $zero, 2536
	add.d	$a1, $sp, $a1
	st.d	$a0, $a1, 0
	ori	$a0, $zero, 2504
	add.d	$a0, $sp, $a0
	st.d	$s1, $a0, 0
.Ltmp579:                               # EH_LABEL
	ori	$a0, $zero, 2536
	add.d	$a0, $sp, $a0
	ori	$a1, $zero, 2504
	add.d	$a1, $sp, $a1
	move	$a2, $zero
	pcaddu18i	$ra, %call36(_ZNSt7__cxx1112basic_stringIcSt11char_traitsIcESaIcEE9_M_createERmm)
	jirl	$ra, $ra, 0
.Ltmp580:                               # EH_LABEL
# %bb.8:                                # %call2.i5.i.noexc21.i
	move	$fp, $a0
	ori	$a0, $zero, 2504
	add.d	$a0, $sp, $a0
	ld.d	$s1, $a0, 0
	ori	$a0, $zero, 2536
	add.d	$a0, $sp, $a0
	st.d	$fp, $a0, 0
	ori	$a0, $zero, 2552
	add.d	$a0, $sp, $a0
	st.d	$s1, $a0, 0
	pcalau12i	$a0, %pc_hi20(.L.str.8)
	addi.d	$a1, $a0, %pc_lo12(.L.str.8)
	ori	$a2, $zero, 179
	move	$a0, $fp
	pcaddu18i	$ra, %call36(memcpy)
	jirl	$ra, $ra, 0
	ori	$a0, $zero, 2544
	add.d	$a0, $sp, $a0
	st.d	$s1, $a0, 0
	stx.b	$zero, $fp, $s1
.Ltmp582:                               # EH_LABEL
	ori	$a0, $zero, 2536
	add.d	$a1, $sp, $a0
	move	$a0, $s0
	move	$a2, $zero
	pcaddu18i	$ra, %call36(_ZN8TestCaseC1ENSt7__cxx1112basic_stringIcSt11char_traitsIcESaIcEEEi)
	jirl	$ra, $ra, 0
.Ltmp583:                               # EH_LABEL
# %bb.9:                                # %invoke.cont10.i
	addi.d	$s1, $sp, 944
	ori	$a0, $zero, 2520
	add.d	$a0, $sp, $a0
	ori	$a1, $zero, 2504
	add.d	$a1, $sp, $a1
	st.d	$a0, $a1, 0
	ori	$a0, $zero, 184
	ori	$a1, $zero, 2472
	add.d	$a1, $sp, $a1
	st.d	$a0, $a1, 0
.Ltmp585:                               # EH_LABEL
	ori	$a0, $zero, 2504
	add.d	$a0, $sp, $a0
	ori	$a1, $zero, 2472
	add.d	$a1, $sp, $a1
	move	$a2, $zero
	pcaddu18i	$ra, %call36(_ZNSt7__cxx1112basic_stringIcSt11char_traitsIcESaIcEE9_M_createERmm)
	jirl	$ra, $ra, 0
.Ltmp586:                               # EH_LABEL
# %bb.10:                               # %call2.i5.i.noexc33.i
	move	$fp, $a0
	ori	$a0, $zero, 2472
	add.d	$a0, $sp, $a0
	ld.d	$s2, $a0, 0
	ori	$a0, $zero, 2504
	add.d	$a0, $sp, $a0
	st.d	$fp, $a0, 0
	ori	$a0, $zero, 2520
	add.d	$a0, $sp, $a0
	st.d	$s2, $a0, 0
	pcalau12i	$a0, %pc_hi20(.L.str.9)
	addi.d	$a1, $a0, %pc_lo12(.L.str.9)
	ori	$a2, $zero, 184
	move	$a0, $fp
