	.file	"user_counters_test.cc"
                                        # Start of file scope inline assembly
	.globl	_ZSt21ios_base_library_initv

                                        # End of file scope inline assembly
	.section	.text._ZN8TestCaseD2Ev,"axG",@progbits,_ZN8TestCaseD2Ev,comdat
	.hidden	_ZN8TestCaseD2Ev                # -- Begin function _ZN8TestCaseD2Ev
	.weak	_ZN8TestCaseD2Ev
	.p2align	5
	.type	_ZN8TestCaseD2Ev,@function
_ZN8TestCaseD2Ev:                       # @_ZN8TestCaseD2Ev
	.cfi_startproc
# %bb.0:                                # %entry
	addi.d	$sp, $sp, -32
	.cfi_def_cfa_offset 32
	st.d	$ra, $sp, 24                    # 8-byte Folded Spill
	st.d	$fp, $sp, 16                    # 8-byte Folded Spill
	st.d	$s0, $sp, 8                     # 8-byte Folded Spill
	.cfi_offset 1, -8
	.cfi_offset 22, -16
	.cfi_offset 23, -24
	move	$fp, $a0
	ld.d	$s0, $a0, 80
	beqz	$s0, .LBB0_5
# %bb.1:                                # %if.then.i.i
	ld.d	$a0, $s0, 8
	ori	$a1, $zero, 1
	lu32i.d	$a1, 1
	dbar	20
	bne	$a0, $a1, .LBB0_3
# %bb.2:                                # %if.then.i.i.i
	ld.d	$a0, $s0, 0
	st.d	$zero, $s0, 8
	ld.d	$a1, $a0, 16
	move	$a0, $s0
	jirl	$ra, $a1, 0
	ld.d	$a0, $s0, 0
	ld.d	$a1, $a0, 24
	move	$a0, $s0
	jirl	$ra, $a1, 0
	ld.d	$a0, $fp, 40
	addi.d	$a1, $fp, 56
	bne	$a0, $a1, .LBB0_6
	b	.LBB0_7
.LBB0_3:                                # %if.end.i.i.i
	pcalau12i	$a1, %got_pc_hi20(__libc_single_threaded)
	ld.d	$a1, $a1, %got_pc_lo12(__libc_single_threaded)
	ld.bu	$a1, $a1, 0
	beqz	$a1, .LBB0_10
# %bb.4:                                # %if.then.i.i.i.i
	addi.d	$a1, $a0, -1
	st.w	$a1, $s0, 8
	addi.w	$a0, $a0, 0
	ori	$a1, $zero, 1
	beq	$a0, $a1, .LBB0_11
.LBB0_5:                                # %_ZNSt12__shared_ptrIN9benchmark5RegexELN9__gnu_cxx12_Lock_policyE2EED2Ev.exit
	ld.d	$a0, $fp, 40
	addi.d	$a1, $fp, 56
	beq	$a0, $a1, .LBB0_7
.LBB0_6:                                # %if.then.i.i2
	ld.d	$a1, $a1, 0
	addi.d	$a1, $a1, 1
	pcaddu18i	$ra, %call36(_ZdlPvm)
	jirl	$ra, $ra, 0
.LBB0_7:                                # %_ZNSt7__cxx1112basic_stringIcSt11char_traitsIcESaIcEED2Ev.exit
	ld.d	$a0, $fp, 0
	addi.d	$a1, $fp, 16
	beq	$a0, $a1, .LBB0_9
# %bb.8:                                # %if.then.i.i4
	ld.d	$a1, $a1, 0
	addi.d	$a1, $a1, 1
	ld.d	$s0, $sp, 8                     # 8-byte Folded Reload
	ld.d	$fp, $sp, 16                    # 8-byte Folded Reload
	ld.d	$ra, $sp, 24                    # 8-byte Folded Reload
	addi.d	$sp, $sp, 32
	pcaddu18i	$t8, %call36(_ZdlPvm)
	jr	$t8
.LBB0_9:                                # %_ZNSt7__cxx1112basic_stringIcSt11char_traitsIcESaIcEED2Ev.exit9
	ld.d	$s0, $sp, 8                     # 8-byte Folded Reload
	ld.d	$fp, $sp, 16                    # 8-byte Folded Reload
	ld.d	$ra, $sp, 24                    # 8-byte Folded Reload
	addi.d	$sp, $sp, 32
	ret
.LBB0_10:                               # %if.else.i.i.i.i
	addi.d	$a1, $s0, 8
	addi.w	$a2, $zero, -1
	amadd_db.w	$a0, $a2, $a1
	addi.w	$a0, $a0, 0
	ori	$a1, $zero, 1
	bne	$a0, $a1, .LBB0_5
.LBB0_11:                               # %if.then7.i.i.i
	move	$a0, $s0
	pcaddu18i	$ra, %call36(_ZNSt16_Sp_counted_baseILN9__gnu_cxx12_Lock_policyE2EE24_M_release_last_use_coldEv)
	jirl	$ra, $ra, 0
	ld.d	$a0, $fp, 40
	addi.d	$a1, $fp, 56
	bne	$a0, $a1, .LBB0_6
	b	.LBB0_7
.Lfunc_end0:
	.size	_ZN8TestCaseD2Ev, .Lfunc_end0-_ZN8TestCaseD2Ev
	.cfi_endproc
                                        # -- End function
	.text
	.hidden	_Z18BM_Counters_SimpleRN9benchmark5StateE # -- Begin function _Z18BM_Counters_SimpleRN9benchmark5StateE
	.globl	_Z18BM_Counters_SimpleRN9benchmark5StateE
	.p2align	5
	.type	_Z18BM_Counters_SimpleRN9benchmark5StateE,@function
_Z18BM_Counters_SimpleRN9benchmark5StateE: # @_Z18BM_Counters_SimpleRN9benchmark5StateE
.Lfunc_begin0:
	.cfi_startproc
	.cfi_personality 155, DW.ref.__gxx_personality_v0
	.cfi_lsda 27, .Lexception0
# %bb.0:                                # %entry
	addi.d	$sp, $sp, -80
	.cfi_def_cfa_offset 80
	st.d	$ra, $sp, 72                    # 8-byte Folded Spill
	st.d	$fp, $sp, 64                    # 8-byte Folded Spill
	st.d	$s0, $sp, 56                    # 8-byte Folded Spill
	st.d	$s1, $sp, 48                    # 8-byte Folded Spill
	fst.d	$fs0, $sp, 40                   # 8-byte Folded Spill
	.cfi_offset 1, -8
	.cfi_offset 22, -16
	.cfi_offset 23, -24
	.cfi_offset 24, -32
	.cfi_offset 56, -40
	move	$s0, $a0
	ld.w	$s1, $a0, 28
	ld.d	$fp, $a0, 16
	pcaddu18i	$ra, %call36(_ZN9benchmark5State16StartKeepRunningEv)
	jirl	$ra, $ra, 0
	bnez	$s1, .LBB1_3
# %bb.1:                                # %entry
	beqz	$fp, .LBB1_3
# %bb.2:                                # %for.body.preheader
	srai.d	$a0, $fp, 63
	andn	$a0, $fp, $a0
	addi.d	$a1, $fp, -1
	bgeu	$a1, $a0, .LBB1_13
.LBB1_3:                                # %for.cond.cleanup
	move	$a0, $s0
	pcaddu18i	$ra, %call36(_ZN9benchmark5State17FinishKeepRunningEv)
	jirl	$ra, $ra, 0
	addi.d	$fp, $s0, 64
	addi.d	$s1, $sp, 24
	st.d	$s1, $sp, 8
	pcalau12i	$a0, %pc_hi20(.L.str.5)
	addi.d	$a0, $a0, %pc_lo12(.L.str.5)
	ld.h	$a1, $a0, 0
	ld.b	$a0, $a0, 2
	st.h	$a1, $sp, 24
	st.b	$a0, $sp, 26
	ori	$a0, $zero, 3
	st.d	$a0, $sp, 16
	st.b	$zero, $sp, 27
.Ltmp0:                                 # EH_LABEL
	addi.d	$a1, $sp, 8
	move	$a0, $fp
	pcaddu18i	$ra, %call36(_ZNSt3mapINSt7__cxx1112basic_stringIcSt11char_traitsIcESaIcEEEN9benchmark7CounterESt4lessIS5_ESaISt4pairIKS5_S7_EEEixEOS5_)
	jirl	$ra, $ra, 0
.Ltmp1:                                 # EH_LABEL
# %bb.4:                                # %invoke.cont8
	lu52i.d	$a1, $zero, 1023
	st.d	$a1, $a0, 0
	ld.d	$a2, $sp, 8
	ori	$a1, $zero, 0
	lu32i.d	$a1, 1000
	st.d	$a1, $a0, 8
	beq	$a2, $s1, .LBB1_6
# %bb.5:                                # %if.then.i.i25
	ld.d	$a0, $sp, 24
	addi.d	$a1, $a0, 1
	move	$a0, $a2
	pcaddu18i	$ra, %call36(_ZdlPvm)
	jirl	$ra, $ra, 0
.LBB1_6:                                # %_ZNSt7__cxx1112basic_stringIcSt11char_traitsIcESaIcEED2Ev.exit
	ld.bu	$a0, $s0, 24
	beqz	$a0, .LBB1_12
# %bb.7:                                # %if.end.i17
	ld.d	$a0, $s0, 16
	ld.d	$a1, $s0, 0
	ld.d	$a2, $s0, 8
	sub.d	$a0, $a0, $a1
	add.d	$a0, $a0, $a2
	movgr2fr.d	$fa0, $a0
	ffint.d.l	$fa0, $fa0
	fadd.d	$fs0, $fa0, $fa0
.LBB1_8:                                # %_ZNK9benchmark5State10iterationsEv.exit
	st.d	$s1, $sp, 8
	pcalau12i	$a0, %pc_hi20(.L.str.6)
	addi.d	$a0, $a0, %pc_lo12(.L.str.6)
	ld.h	$a1, $a0, 0
	ld.b	$a0, $a0, 2
	st.h	$a1, $sp, 24
	st.b	$a0, $sp, 26
	ori	$a0, $zero, 3
	st.d	$a0, $sp, 16
	st.b	$zero, $sp, 27
.Ltmp3:                                 # EH_LABEL
	addi.d	$a1, $sp, 8
	move	$a0, $fp
	pcaddu18i	$ra, %call36(_ZNSt3mapINSt7__cxx1112basic_stringIcSt11char_traitsIcESaIcEEEN9benchmark7CounterESt4lessIS5_ESaISt4pairIKS5_S7_EEEixEOS5_)
	jirl	$ra, $ra, 0
.Ltmp4:                                 # EH_LABEL
# %bb.9:                                # %invoke.cont21
	fst.d	$fs0, $a0, 0
	ld.d	$a2, $sp, 8
	ori	$a1, $zero, 0
	lu32i.d	$a1, 1000
	st.d	$a1, $a0, 8
	beq	$a2, $s1, .LBB1_11
# %bb.10:                               # %if.then.i.i40
	ld.d	$a0, $sp, 24
	addi.d	$a1, $a0, 1
	move	$a0, $a2
	pcaddu18i	$ra, %call36(_ZdlPvm)
	jirl	$ra, $ra, 0
.LBB1_11:                               # %_ZNSt7__cxx1112basic_stringIcSt11char_traitsIcESaIcEED2Ev.exit45
	fld.d	$fs0, $sp, 40                   # 8-byte Folded Reload
	ld.d	$s1, $sp, 48                    # 8-byte Folded Reload
	ld.d	$s0, $sp, 56                    # 8-byte Folded Reload
	ld.d	$fp, $sp, 64                    # 8-byte Folded Reload
	ld.d	$ra, $sp, 72                    # 8-byte Folded Reload
	addi.d	$sp, $sp, 80
	ret
.LBB1_12:
	movgr2fr.d	$fs0, $zero
	b	.LBB1_8
.LBB1_13:                               # %cond.false.i
	pcalau12i	$a0, %pc_hi20(.L.str.198)
	addi.d	$a0, $a0, %pc_lo12(.L.str.198)
	pcalau12i	$a1, %pc_hi20(.L.str.199)
	addi.d	$a1, $a1, %pc_lo12(.L.str.199)
	pcalau12i	$a2, %pc_hi20(.L__PRETTY_FUNCTION__._ZN9benchmark5State13StateIteratorppEv)
	addi.d	$a3, $a2, %pc_lo12(.L__PRETTY_FUNCTION__._ZN9benchmark5State13StateIteratorppEv)
	ori	$a2, $zero, 1134
	pcaddu18i	$ra, %call36(__assert_fail)
	jirl	$ra, $ra, 0
.LBB1_14:                               # %lpad20
.Ltmp5:                                 # EH_LABEL
	b	.LBB1_16
.LBB1_15:                               # %lpad7
.Ltmp2:                                 # EH_LABEL
.LBB1_16:                               # %lpad20
	ld.d	$a2, $sp, 8
	move	$fp, $a0
	beq	$a2, $s1, .LBB1_18
# %bb.17:                               # %if.then.i.i54
	ld.d	$a0, $sp, 24
	addi.d	$a1, $a0, 1
	move	$a0, $a2
	pcaddu18i	$ra, %call36(_ZdlPvm)
	jirl	$ra, $ra, 0
.LBB1_18:                               # %eh.resume
	move	$a0, $fp
	pcaddu18i	$ra, %call36(_Unwind_Resume)
	jirl	$ra, $ra, 0
.Lfunc_end1:
	.size	_Z18BM_Counters_SimpleRN9benchmark5StateE, .Lfunc_end1-_Z18BM_Counters_SimpleRN9benchmark5StateE
	.cfi_endproc
	.section	.gcc_except_table,"a",@progbits
	.p2align	2, 0x0
GCC_except_table1:
.Lexception0:
	.byte	255                             # @LPStart Encoding = omit
	.byte	255                             # @TType Encoding = omit
	.byte	1                               # Call site Encoding = uleb128
	.uleb128 .Lcst_end0-.Lcst_begin0
.Lcst_begin0:
	.uleb128 .Lfunc_begin0-.Lfunc_begin0    # >> Call Site 1 <<
	.uleb128 .Ltmp0-.Lfunc_begin0           #   Call between .Lfunc_begin0 and .Ltmp0
	.byte	0                               #     has no landing pad
	.byte	0                               #   On action: cleanup
	.uleb128 .Ltmp0-.Lfunc_begin0           # >> Call Site 2 <<
	.uleb128 .Ltmp1-.Ltmp0                  #   Call between .Ltmp0 and .Ltmp1
	.uleb128 .Ltmp2-.Lfunc_begin0           #     jumps to .Ltmp2
	.byte	0                               #   On action: cleanup
	.uleb128 .Ltmp1-.Lfunc_begin0           # >> Call Site 3 <<
	.uleb128 .Ltmp3-.Ltmp1                  #   Call between .Ltmp1 and .Ltmp3
	.byte	0                               #     has no landing pad
	.byte	0                               #   On action: cleanup
	.uleb128 .Ltmp3-.Lfunc_begin0           # >> Call Site 4 <<
	.uleb128 .Ltmp4-.Ltmp3                  #   Call between .Ltmp3 and .Ltmp4
	.uleb128 .Ltmp5-.Lfunc_begin0           #     jumps to .Ltmp5
	.byte	0                               #   On action: cleanup
	.uleb128 .Ltmp4-.Lfunc_begin0           # >> Call Site 5 <<
	.uleb128 .Lfunc_end1-.Ltmp4             #   Call between .Ltmp4 and .Lfunc_end1
	.byte	0                               #     has no landing pad
	.byte	0                               #   On action: cleanup
.Lcst_end0:
	.p2align	2, 0x0
                                        # -- End function
	.section	.text._ZNSt3mapINSt7__cxx1112basic_stringIcSt11char_traitsIcESaIcEEEN9benchmark7CounterESt4lessIS5_ESaISt4pairIKS5_S7_EEEixEOS5_,"axG",@progbits,_ZNSt3mapINSt7__cxx1112basic_stringIcSt11char_traitsIcESaIcEEEN9benchmark7CounterESt4lessIS5_ESaISt4pairIKS5_S7_EEEixEOS5_,comdat
	.hidden	_ZNSt3mapINSt7__cxx1112basic_stringIcSt11char_traitsIcESaIcEEEN9benchmark7CounterESt4lessIS5_ESaISt4pairIKS5_S7_EEEixEOS5_ # -- Begin function _ZNSt3mapINSt7__cxx1112basic_stringIcSt11char_traitsIcESaIcEEEN9benchmark7CounterESt4lessIS5_ESaISt4pairIKS5_S7_EEEixEOS5_
	.weak	_ZNSt3mapINSt7__cxx1112basic_stringIcSt11char_traitsIcESaIcEEEN9benchmark7CounterESt4lessIS5_ESaISt4pairIKS5_S7_EEEixEOS5_
	.p2align	5
	.type	_ZNSt3mapINSt7__cxx1112basic_stringIcSt11char_traitsIcESaIcEEEN9benchmark7CounterESt4lessIS5_ESaISt4pairIKS5_S7_EEEixEOS5_,@function
_ZNSt3mapINSt7__cxx1112basic_stringIcSt11char_traitsIcESaIcEEEN9benchmark7CounterESt4lessIS5_ESaISt4pairIKS5_S7_EEEixEOS5_: # @_ZNSt3mapINSt7__cxx1112basic_stringIcSt11char_traitsIcESaIcEEEN9benchmark7CounterESt4lessIS5_ESaISt4pairIKS5_S7_EEEixEOS5_
	.cfi_startproc
# %bb.0:                                # %entry
	addi.d	$sp, $sp, -128
	.cfi_def_cfa_offset 128
	st.d	$ra, $sp, 120                   # 8-byte Folded Spill
	st.d	$fp, $sp, 112                   # 8-byte Folded Spill
	st.d	$s0, $sp, 104                   # 8-byte Folded Spill
	st.d	$s1, $sp, 96                    # 8-byte Folded Spill
	st.d	$s2, $sp, 88                    # 8-byte Folded Spill
	st.d	$s3, $sp, 80                    # 8-byte Folded Spill
	st.d	$s4, $sp, 72                    # 8-byte Folded Spill
	st.d	$s5, $sp, 64                    # 8-byte Folded Spill
	st.d	$s6, $sp, 56                    # 8-byte Folded Spill
	st.d	$s7, $sp, 48                    # 8-byte Folded Spill
	st.d	$s8, $sp, 40                    # 8-byte Folded Spill
	.cfi_offset 1, -8
	.cfi_offset 22, -16
	.cfi_offset 23, -24
	.cfi_offset 24, -32
	.cfi_offset 25, -40
	.cfi_offset 26, -48
	.cfi_offset 27, -56
	.cfi_offset 28, -64
	.cfi_offset 29, -72
	.cfi_offset 30, -80
	.cfi_offset 31, -88
	move	$s0, $a0
	ld.d	$s7, $a0, 16
	move	$s8, $a1
	addi.d	$s2, $a0, 8
	beqz	$s7, .LBB2_11
# %bb.1:                                # %while.body.lr.ph.i.i.i
	st.d	$s0, $sp, 16                    # 8-byte Folded Spill
	ld.d	$s6, $s8, 8
	st.d	$s8, $sp, 8                     # 8-byte Folded Spill
	ld.d	$s3, $s8, 0
	lu12i.w	$s5, -524288
	lu12i.w	$a0, 524287
	ori	$s4, $a0, 4095
	ori	$s8, $zero, 16
	ori	$s0, $zero, 24
	move	$s1, $s2
	b	.LBB2_4
	.p2align	4, , 16
.LBB2_2:                                # %if.then.i.i.i.i.i.i
                                        #   in Loop: Header=BB2_4 Depth=1
	sub.d	$a0, $fp, $s6
	slt	$a1, $s5, $a0
	maskeqz	$a0, $a0, $a1
	masknez	$a1, $s5, $a1
	or	$a0, $a0, $a1
	slt	$a1, $a0, $s4
	maskeqz	$a0, $a0, $a1
	masknez	$a1, $s4, $a1
	or	$a0, $a0, $a1
.LBB2_3:                                # %_ZNKSt4lessINSt7__cxx1112basic_stringIcSt11char_traitsIcESaIcEEEEclERKS5_S8_.exit.i.i.i
                                        #   in Loop: Header=BB2_4 Depth=1
	addi.w	$a0, $a0, 0
	slti	$a0, $a0, 0
	masknez	$a1, $s7, $a0
	masknez	$a2, $s8, $a0
	maskeqz	$a3, $s0, $a0
	or	$a2, $a3, $a2
	ldx.d	$s7, $s7, $a2
	maskeqz	$a0, $s1, $a0
	or	$s1, $a0, $a1
	beqz	$s7, .LBB2_6
.LBB2_4:                                # %while.body.i.i.i
                                        # =>This Inner Loop Header: Depth=1
	ld.d	$fp, $s7, 40
	sltu	$a0, $s6, $fp
	masknez	$a1, $fp, $a0
	maskeqz	$a0, $s6, $a0
	or	$a2, $a0, $a1
	beqz	$a2, .LBB2_2
# %bb.5:                                # %_ZNSt11char_traitsIcE7compareEPKcS2_m.exit.i.i.i.i.i.i
                                        #   in Loop: Header=BB2_4 Depth=1
	ld.d	$a0, $s7, 32
	move	$a1, $s3
	pcaddu18i	$ra, %call36(memcmp)
	jirl	$ra, $ra, 0
	bnez	$a0, .LBB2_3
	b	.LBB2_2
.LBB2_6:                                # %_ZNSt3mapINSt7__cxx1112basic_stringIcSt11char_traitsIcESaIcEEEN9benchmark7CounterESt4lessIS5_ESaISt4pairIKS5_S7_EEE11lower_boundERSB_.exit
	ld.d	$s0, $sp, 16                    # 8-byte Folded Reload
	ld.d	$s8, $sp, 8                     # 8-byte Folded Reload
	beq	$s1, $s2, .LBB2_11
# %bb.7:                                # %lor.rhs
	ld.d	$fp, $s1, 40
	sltu	$a0, $fp, $s6
	masknez	$a1, $s6, $a0
	maskeqz	$a0, $fp, $a0
	or	$a2, $a0, $a1
	beqz	$a2, .LBB2_9
# %bb.8:                                # %_ZNSt11char_traitsIcE7compareEPKcS2_m.exit.i.i.i
	ld.d	$a1, $s1, 32
	move	$a0, $s3
	pcaddu18i	$ra, %call36(memcmp)
	jirl	$ra, $ra, 0
	bnez	$a0, .LBB2_10
.LBB2_9:                                # %if.then.i.i.i
	sub.d	$a0, $s6, $fp
	slt	$a1, $s5, $a0
	maskeqz	$a0, $a0, $a1
	masknez	$a1, $s5, $a1
	or	$a0, $a0, $a1
	slt	$a1, $a0, $s4
	maskeqz	$a0, $a0, $a1
	masknez	$a1, $s4, $a1
	or	$a0, $a0, $a1
.LBB2_10:                               # %_ZNKSt4lessINSt7__cxx1112basic_stringIcSt11char_traitsIcESaIcEEEEclERKS5_S8_.exit
	addi.w	$a0, $a0, 0
	move	$s2, $s1
	bgez	$a0, .LBB2_12
.LBB2_11:                               # %if.then
	st.d	$s8, $sp, 32
	pcalau12i	$a0, %pc_hi20(_ZSt19piecewise_construct)
	addi.d	$a2, $a0, %pc_lo12(_ZSt19piecewise_construct)
	addi.d	$a3, $sp, 32
	addi.d	$a4, $sp, 31
	move	$a0, $s0
	move	$a1, $s2
	pcaddu18i	$ra, %call36(_ZNSt8_Rb_treeINSt7__cxx1112basic_stringIcSt11char_traitsIcESaIcEEESt4pairIKS5_N9benchmark7CounterEESt10_Select1stISA_ESt4lessIS5_ESaISA_EE22_M_emplace_hint_uniqueIJRKSt21piecewise_construct_tSt5tupleIJOS5_EESL_IJEEEEESt17_Rb_tree_iteratorISA_ESt23_Rb_tree_const_iteratorISA_EDpOT_)
	jirl	$ra, $ra, 0
	move	$s1, $a0
.LBB2_12:                               # %if.end
	addi.d	$a0, $s1, 64
	ld.d	$s8, $sp, 40                    # 8-byte Folded Reload
	ld.d	$s7, $sp, 48                    # 8-byte Folded Reload
	ld.d	$s6, $sp, 56                    # 8-byte Folded Reload
	ld.d	$s5, $sp, 64                    # 8-byte Folded Reload
	ld.d	$s4, $sp, 72                    # 8-byte Folded Reload
	ld.d	$s3, $sp, 80                    # 8-byte Folded Reload
	ld.d	$s2, $sp, 88                    # 8-byte Folded Reload
	ld.d	$s1, $sp, 96                    # 8-byte Folded Reload
	ld.d	$s0, $sp, 104                   # 8-byte Folded Reload
	ld.d	$fp, $sp, 112                   # 8-byte Folded Reload
	ld.d	$ra, $sp, 120                   # 8-byte Folded Reload
	addi.d	$sp, $sp, 128
	ret
.Lfunc_end2:
	.size	_ZNSt3mapINSt7__cxx1112basic_stringIcSt11char_traitsIcESaIcEEEN9benchmark7CounterESt4lessIS5_ESaISt4pairIKS5_S7_EEEixEOS5_, .Lfunc_end2-_ZNSt3mapINSt7__cxx1112basic_stringIcSt11char_traitsIcESaIcEEEN9benchmark7CounterESt4lessIS5_ESaISt4pairIKS5_S7_EEEixEOS5_
	.cfi_endproc
                                        # -- End function
	.section	.rodata.cst8,"aM",@progbits,8
	.p2align	3, 0x0                          # -- Begin function _Z11CheckSimpleRK7Results
.LCPI3_0:
	.dword	0x3f50624dd2f1a9fc              # double 0.001
.LCPI3_1:
	.dword	0x3fb999999999999a              # double 0.10000000000000001
.LCPI3_2:
	.dword	0x3ee4f8b588e368f1              # double 1.0000000000000001E-5
.LCPI3_3:
	.dword	0x4059000000000000              # double 100
	.text
	.hidden	_Z11CheckSimpleRK7Results
	.globl	_Z11CheckSimpleRK7Results
	.p2align	5
	.type	_Z11CheckSimpleRK7Results,@function
_Z11CheckSimpleRK7Results:              # @_Z11CheckSimpleRK7Results
.Lfunc_begin1:
	.cfi_startproc
	.cfi_personality 155, DW.ref.__gxx_personality_v0
	.cfi_lsda 27, .Lexception1
# %bb.0:                                # %entry
	addi.d	$sp, $sp, -256
	.cfi_def_cfa_offset 256
	st.d	$ra, $sp, 248                   # 8-byte Folded Spill
	st.d	$fp, $sp, 240                   # 8-byte Folded Spill
	st.d	$s0, $sp, 232                   # 8-byte Folded Spill
	st.d	$s1, $sp, 224                   # 8-byte Folded Spill
	st.d	$s2, $sp, 216                   # 8-byte Folded Spill
	st.d	$s3, $sp, 208                   # 8-byte Folded Spill
	st.d	$s4, $sp, 200                   # 8-byte Folded Spill
	st.d	$s5, $sp, 192                   # 8-byte Folded Spill
	st.d	$s6, $sp, 184                   # 8-byte Folded Spill
	fst.d	$fs0, $sp, 176                  # 8-byte Folded Spill
	fst.d	$fs1, $sp, 168                  # 8-byte Folded Spill
	fst.d	$fs2, $sp, 160                  # 8-byte Folded Spill
	fst.d	$fs3, $sp, 152                  # 8-byte Folded Spill
	.cfi_offset 1, -8
	.cfi_offset 22, -16
	.cfi_offset 23, -24
	.cfi_offset 24, -32
	.cfi_offset 25, -40
	.cfi_offset 26, -48
	.cfi_offset 27, -56
	.cfi_offset 28, -64
	.cfi_offset 29, -72
	.cfi_offset 56, -80
	.cfi_offset 57, -88
	.cfi_offset 58, -96
	.cfi_offset 59, -104
	move	$fp, $a0
	pcaddu18i	$ra, %call36(_ZNK7Results13NumIterationsEv)
	jirl	$ra, $ra, 0
	fmov.d	$fs0, $fa0
	addi.d	$s0, $sp, 136
	st.d	$s0, $sp, 120
	pcalau12i	$a0, %pc_hi20(.L.str.5)
	addi.d	$a0, $a0, %pc_lo12(.L.str.5)
	ld.h	$s4, $a0, 0
	ld.b	$s5, $a0, 2
	st.h	$s4, $sp, 136
	st.b	$s5, $sp, 138
	ori	$a0, $zero, 3
	st.d	$a0, $sp, 128
	st.b	$zero, $sp, 139
.Ltmp6:                                 # EH_LABEL
	addi.d	$a1, $sp, 120
	move	$a0, $fp
	pcaddu18i	$ra, %call36(_ZNK7Results5GetAsIdEET_RKNSt7__cxx1112basic_stringIcSt11char_traitsIcESaIcEEE)
	jirl	$ra, $ra, 0
.Ltmp7:                                 # EH_LABEL
# %bb.1:                                # %invoke.cont3
	ftintrz.w.d	$fa0, $fa0
	movfr2gr.s	$s2, $fa0
	ori	$a0, $zero, 1
	bne	$s2, $a0, .LBB3_5
# %bb.2:                                # %cond.true
	pcalau12i	$a0, %pc_hi20(_ZGVZN9benchmark8internal18GetNullLogInstanceEvE8null_log)
	ld.b	$a0, $a0, %pc_lo12(_ZGVZN9benchmark8internal18GetNullLogInstanceEvE8null_log)
	dbar	20
	pcalau12i	$a1, %pc_hi20(_ZZN9benchmark8internal18GetNullLogInstanceEvE8null_log)
	addi.d	$s3, $a1, %pc_lo12(_ZZN9benchmark8internal18GetNullLogInstanceEvE8null_log)
	bnez	$a0, .LBB3_7
# %bb.3:                                # %init.check.i
	pcalau12i	$a0, %pc_hi20(_ZGVZN9benchmark8internal18GetNullLogInstanceEvE8null_log)
	addi.d	$a0, $a0, %pc_lo12(_ZGVZN9benchmark8internal18GetNullLogInstanceEvE8null_log)
	pcaddu18i	$ra, %call36(__cxa_guard_acquire)
	jirl	$ra, $ra, 0
	addi.w	$a0, $a0, 0
	beqz	$a0, .LBB3_7
# %bb.4:                                # %init.i
	pcalau12i	$a0, %pc_hi20(_ZZN9benchmark8internal18GetNullLogInstanceEvE8null_log)
	addi.d	$s3, $a0, %pc_lo12(_ZZN9benchmark8internal18GetNullLogInstanceEvE8null_log)
	st.d	$zero, $s3, 0
	pcalau12i	$a0, %pc_hi20(_ZGVZN9benchmark8internal18GetNullLogInstanceEvE8null_log)
	addi.d	$a0, $a0, %pc_lo12(_ZGVZN9benchmark8internal18GetNullLogInstanceEvE8null_log)
	pcaddu18i	$ra, %call36(__cxa_guard_release)
	jirl	$ra, $ra, 0
	b	.LBB3_7
.LBB3_5:                                # %cond.false
.Ltmp9:                                 # EH_LABEL
	pcalau12i	$a0, %pc_hi20(.L.str.29)
	addi.d	$a1, $a0, %pc_lo12(.L.str.29)
	pcalau12i	$a0, %pc_hi20(.L.str.30)
	addi.d	$a2, $a0, %pc_lo12(.L.str.30)
	pcalau12i	$a0, %pc_hi20(.L__func__._Z11CheckSimpleRK7Results)
	addi.d	$a3, $a0, %pc_lo12(.L__func__._Z11CheckSimpleRK7Results)
	addi.d	$a0, $sp, 112
	ori	$a4, $zero, 54
	pcaddu18i	$ra, %call36(_ZN9benchmark8internal12CheckHandlerC2EPKcS3_S3_i)
	jirl	$ra, $ra, 0
.Ltmp10:                                # EH_LABEL
# %bb.6:                                # %invoke.cont9
	ld.d	$s3, $sp, 112
.LBB3_7:                                # %cond.end
	ld.d	$a0, $s3, 0
	beqz	$a0, .LBB3_39
# %bb.8:                                # %if.then.i
.Ltmp11:                                # EH_LABEL
	pcalau12i	$a1, %pc_hi20(.L.str.31)
	addi.d	$a1, $a1, %pc_lo12(.L.str.31)
	ori	$a2, $zero, 1
	pcaddu18i	$ra, %call36(_ZSt16__ostream_insertIcSt11char_traitsIcEERSt13basic_ostreamIT_T0_ES6_PKS3_l)
	jirl	$ra, $ra, 0
.Ltmp12:                                # EH_LABEL
# %bb.9:                                # %invoke.cont14
	ld.d	$a0, $s3, 0
	beqz	$a0, .LBB3_39
# %bb.10:                               # %if.then.i49
.Ltmp13:                                # EH_LABEL
	pcalau12i	$a1, %pc_hi20(.L.str.30)
	addi.d	$a1, $a1, %pc_lo12(.L.str.30)
	ori	$a2, $zero, 86
	pcaddu18i	$ra, %call36(_ZSt16__ostream_insertIcSt11char_traitsIcEERSt13basic_ostreamIT_T0_ES6_PKS3_l)
	jirl	$ra, $ra, 0
.Ltmp14:                                # EH_LABEL
# %bb.11:                               # %invoke.cont16
	ld.d	$a0, $s3, 0
	beqz	$a0, .LBB3_39
# %bb.12:                               # %if.then.i54
.Ltmp15:                                # EH_LABEL
	pcalau12i	$a1, %pc_hi20(.L.str.32)
	addi.d	$a1, $a1, %pc_lo12(.L.str.32)
	ori	$a2, $zero, 1
	pcaddu18i	$ra, %call36(_ZSt16__ostream_insertIcSt11char_traitsIcEERSt13basic_ostreamIT_T0_ES6_PKS3_l)
	jirl	$ra, $ra, 0
.Ltmp16:                                # EH_LABEL
# %bb.13:                               # %invoke.cont18
	ld.d	$a0, $s3, 0
	beqz	$a0, .LBB3_39
# %bb.14:                               # %if.then.i60
.Ltmp18:                                # EH_LABEL
	ori	$a1, $zero, 54
	pcaddu18i	$ra, %call36(_ZNSolsEi)
	jirl	$ra, $ra, 0
.Ltmp19:                                # EH_LABEL
# %bb.15:                               # %invoke.cont22
	ld.d	$a0, $s3, 0
	beqz	$a0, .LBB3_39
# %bb.16:                               # %if.then.i63
.Ltmp20:                                # EH_LABEL
	pcalau12i	$a1, %pc_hi20(.L.str.33)
	addi.d	$a1, $a1, %pc_lo12(.L.str.33)
	ori	$a2, $zero, 2
	pcaddu18i	$ra, %call36(_ZSt16__ostream_insertIcSt11char_traitsIcEERSt13basic_ostreamIT_T0_ES6_PKS3_l)
	jirl	$ra, $ra, 0
.Ltmp21:                                # EH_LABEL
# %bb.17:                               # %invoke.cont24
	ld.d	$a0, $s3, 0
	beqz	$a0, .LBB3_39
# %bb.18:                               # %if.then.i68
	ld.d	$a1, $fp, 0
	ld.d	$a2, $fp, 8
.Ltmp22:                                # EH_LABEL
	pcaddu18i	$ra, %call36(_ZSt16__ostream_insertIcSt11char_traitsIcEERSt13basic_ostreamIT_T0_ES6_PKS3_l)
	jirl	$ra, $ra, 0
.Ltmp23:                                # EH_LABEL
# %bb.19:                               # %invoke.cont26
	ld.d	$a0, $s3, 0
	beqz	$a0, .LBB3_39
# %bb.20:                               # %if.then.i71
.Ltmp24:                                # EH_LABEL
	pcalau12i	$a1, %pc_hi20(.L.str.34)
	addi.d	$a1, $a1, %pc_lo12(.L.str.34)
	ori	$a2, $zero, 2
	pcaddu18i	$ra, %call36(_ZSt16__ostream_insertIcSt11char_traitsIcEERSt13basic_ostreamIT_T0_ES6_PKS3_l)
	jirl	$ra, $ra, 0
.Ltmp25:                                # EH_LABEL
# %bb.21:                               # %invoke.cont28
	ld.d	$a0, $s3, 0
	beqz	$a0, .LBB3_39
# %bb.22:                               # %if.then.i77
.Ltmp26:                                # EH_LABEL
	pcalau12i	$a1, %pc_hi20(.L.str.30)
	addi.d	$a1, $a1, %pc_lo12(.L.str.30)
	ori	$a2, $zero, 86
	pcaddu18i	$ra, %call36(_ZSt16__ostream_insertIcSt11char_traitsIcEERSt13basic_ostreamIT_T0_ES6_PKS3_l)
	jirl	$ra, $ra, 0
.Ltmp27:                                # EH_LABEL
# %bb.23:                               # %invoke.cont30
	ld.d	$a0, $s3, 0
	beqz	$a0, .LBB3_39
# %bb.24:                               # %if.then.i83
.Ltmp28:                                # EH_LABEL
	pcalau12i	$a1, %pc_hi20(.L.str.32)
	addi.d	$a1, $a1, %pc_lo12(.L.str.32)
	ori	$a2, $zero, 1
	pcaddu18i	$ra, %call36(_ZSt16__ostream_insertIcSt11char_traitsIcEERSt13basic_ostreamIT_T0_ES6_PKS3_l)
	jirl	$ra, $ra, 0
.Ltmp29:                                # EH_LABEL
# %bb.25:                               # %invoke.cont32
	ld.d	$a0, $s3, 0
	beqz	$a0, .LBB3_39
# %bb.26:                               # %if.then.i89
.Ltmp31:                                # EH_LABEL
	ori	$a1, $zero, 54
	pcaddu18i	$ra, %call36(_ZNSolsEi)
	jirl	$ra, $ra, 0
.Ltmp32:                                # EH_LABEL
# %bb.27:                               # %invoke.cont36
	ld.d	$a0, $s3, 0
	beqz	$a0, .LBB3_39
# %bb.28:                               # %if.then.i94
.Ltmp33:                                # EH_LABEL
	pcalau12i	$a1, %pc_hi20(.L.str.33)
	addi.d	$a1, $a1, %pc_lo12(.L.str.33)
	ori	$a2, $zero, 2
	pcaddu18i	$ra, %call36(_ZSt16__ostream_insertIcSt11char_traitsIcEERSt13basic_ostreamIT_T0_ES6_PKS3_l)
	jirl	$ra, $ra, 0
.Ltmp34:                                # EH_LABEL
# %bb.29:                               # %invoke.cont38
	ld.d	$a0, $s3, 0
	beqz	$a0, .LBB3_39
# %bb.30:                               # %if.then.i100
.Ltmp35:                                # EH_LABEL
	pcalau12i	$a1, %pc_hi20(.L.str.35)
	addi.d	$a1, $a1, %pc_lo12(.L.str.35)
	ori	$a2, $zero, 10
	pcaddu18i	$ra, %call36(_ZSt16__ostream_insertIcSt11char_traitsIcEERSt13basic_ostreamIT_T0_ES6_PKS3_l)
	jirl	$ra, $ra, 0
.Ltmp36:                                # EH_LABEL
# %bb.31:                               # %invoke.cont40
	ld.d	$a0, $s3, 0
	beqz	$a0, .LBB3_39
# %bb.32:                               # %if.then.i105
.Ltmp37:                                # EH_LABEL
	pcalau12i	$a1, %pc_hi20(.L.str.36)
	addi.d	$a1, $a1, %pc_lo12(.L.str.36)
	ori	$a2, $zero, 3
	pcaddu18i	$ra, %call36(_ZSt16__ostream_insertIcSt11char_traitsIcEERSt13basic_ostreamIT_T0_ES6_PKS3_l)
	jirl	$ra, $ra, 0
.Ltmp38:                                # EH_LABEL
# %bb.33:                               # %invoke.cont42
	ld.d	$a0, $s3, 0
	beqz	$a0, .LBB3_39
# %bb.34:                               # %if.then.i110
.Ltmp39:                                # EH_LABEL
	pcalau12i	$a1, %pc_hi20(.L.str.37)
	addi.d	$a1, $a1, %pc_lo12(.L.str.37)
	ori	$a2, $zero, 1
	pcaddu18i	$ra, %call36(_ZSt16__ostream_insertIcSt11char_traitsIcEERSt13basic_ostreamIT_T0_ES6_PKS3_l)
	jirl	$ra, $ra, 0
.Ltmp40:                                # EH_LABEL
# %bb.35:                               # %invoke.cont44
	ld.d	$a0, $s3, 0
	beqz	$a0, .LBB3_39
# %bb.36:                               # %if.then.i116
.Ltmp41:                                # EH_LABEL
	pcalau12i	$a1, %pc_hi20(.L.str.5)
	addi.d	$a1, $a1, %pc_lo12(.L.str.5)
	ori	$a2, $zero, 3
	pcaddu18i	$ra, %call36(_ZSt16__ostream_insertIcSt11char_traitsIcEERSt13basic_ostreamIT_T0_ES6_PKS3_l)
	jirl	$ra, $ra, 0
.Ltmp42:                                # EH_LABEL
# %bb.37:                               # %invoke.cont46
	ld.d	$a0, $s3, 0
	beqz	$a0, .LBB3_39
# %bb.38:                               # %if.then.i122
.Ltmp43:                                # EH_LABEL
	pcalau12i	$a1, %pc_hi20(.L.str.38)
	addi.d	$a1, $a1, %pc_lo12(.L.str.38)
	ori	$a2, $zero, 1
	pcaddu18i	$ra, %call36(_ZSt16__ostream_insertIcSt11char_traitsIcEERSt13basic_ostreamIT_T0_ES6_PKS3_l)
	jirl	$ra, $ra, 0
.Ltmp44:                                # EH_LABEL
.LBB3_39:                               # %invoke.cont48
	addi.d	$s1, $sp, 96
	st.d	$s1, $sp, 80
	st.h	$s4, $sp, 96
	st.b	$s5, $sp, 98
	ori	$a0, $zero, 3
	st.d	$a0, $sp, 88
	st.b	$zero, $sp, 99
.Ltmp46:                                # EH_LABEL
	addi.d	$a1, $sp, 80
	move	$a0, $fp
	pcaddu18i	$ra, %call36(_ZNK7Results5GetAsIdEET_RKNSt7__cxx1112basic_stringIcSt11char_traitsIcESaIcEEE)
	jirl	$ra, $ra, 0
.Ltmp47:                                # EH_LABEL
# %bb.40:                               # %invoke.cont56
	ld.d	$a0, $s3, 0
	beqz	$a0, .LBB3_48
# %bb.41:                               # %if.then.i144
	ftintrz.w.d	$fa0, $fa0
	movfr2gr.s	$a1, $fa0
.Ltmp48:                                # EH_LABEL
	pcaddu18i	$ra, %call36(_ZNSolsEi)
	jirl	$ra, $ra, 0
.Ltmp49:                                # EH_LABEL
# %bb.42:                               # %invoke.cont58
	ld.d	$a0, $s3, 0
	beqz	$a0, .LBB3_48
# %bb.43:                               # %if.then.i149
.Ltmp50:                                # EH_LABEL
	pcalau12i	$a1, %pc_hi20(.L.str.39)
	addi.d	$a1, $a1, %pc_lo12(.L.str.39)
	ori	$a2, $zero, 13
	pcaddu18i	$ra, %call36(_ZSt16__ostream_insertIcSt11char_traitsIcEERSt13basic_ostreamIT_T0_ES6_PKS3_l)
	jirl	$ra, $ra, 0
.Ltmp51:                                # EH_LABEL
# %bb.44:                               # %invoke.cont60
	ld.d	$a0, $s3, 0
	beqz	$a0, .LBB3_48
# %bb.45:                               # %if.then.i154
.Ltmp53:                                # EH_LABEL
	ori	$a1, $zero, 1
	pcaddu18i	$ra, %call36(_ZNSolsEi)
	jirl	$ra, $ra, 0
.Ltmp54:                                # EH_LABEL
# %bb.46:                               # %invoke.cont64
	ld.d	$a0, $s3, 0
	beqz	$a0, .LBB3_48
# %bb.47:                               # %if.then.i159
.Ltmp55:                                # EH_LABEL
	pcalau12i	$a1, %pc_hi20(.L.str.31)
	addi.d	$a1, $a1, %pc_lo12(.L.str.31)
	ori	$a2, $zero, 1
	pcaddu18i	$ra, %call36(_ZSt16__ostream_insertIcSt11char_traitsIcEERSt13basic_ostreamIT_T0_ES6_PKS3_l)
	jirl	$ra, $ra, 0
.Ltmp56:                                # EH_LABEL
.LBB3_48:                               # %invoke.cont66
	ld.d	$a0, $sp, 80
	beq	$a0, $s1, .LBB3_50
# %bb.49:                               # %if.then.i.i165
	ld.d	$a1, $sp, 96
	addi.d	$a1, $a1, 1
	pcaddu18i	$ra, %call36(_ZdlPvm)
	jirl	$ra, $ra, 0
.LBB3_50:                               # %_ZNSt7__cxx1112basic_stringIcSt11char_traitsIcESaIcEED2Ev.exit
	ori	$a0, $zero, 1
	bne	$s2, $a0, .LBB3_139
# %bb.51:                               # %cleanup.done82
	ld.d	$a0, $sp, 120
	beq	$a0, $s0, .LBB3_53
# %bb.52:                               # %if.then.i.i175
	ld.d	$a1, $sp, 136
	addi.d	$a1, $a1, 1
	pcaddu18i	$ra, %call36(_ZdlPvm)
	jirl	$ra, $ra, 0
.LBB3_53:                               # %_ZNSt7__cxx1112basic_stringIcSt11char_traitsIcESaIcEED2Ev.exit180
	st.d	$s0, $sp, 120
	pcalau12i	$a0, %pc_hi20(.L.str.6)
	addi.d	$a0, $a0, %pc_lo12(.L.str.6)
	ld.h	$s2, $a0, 0
	ld.b	$s3, $a0, 2
	st.h	$s2, $sp, 136
	st.b	$s3, $sp, 138
	ori	$a0, $zero, 3
	st.d	$a0, $sp, 128
	st.b	$zero, $sp, 139
.Ltmp61:                                # EH_LABEL
	addi.d	$a1, $sp, 120
	move	$a0, $fp
	pcaddu18i	$ra, %call36(_ZNK7Results5GetAsIdEET_RKNSt7__cxx1112basic_stringIcSt11char_traitsIcESaIcEEE)
	jirl	$ra, $ra, 0
.Ltmp62:                                # EH_LABEL
# %bb.54:                               # %invoke.cont96
	vldi	$vr1, -896
	pcalau12i	$a0, %pc_hi20(.LCPI3_0)
	fld.d	$fa2, $a0, %pc_lo12(.LCPI3_0)
	fmadd.d	$fa0, $fs0, $fa1, $fa0
	fabs.d	$fs3, $fa0
	fadd.d	$fs2, $fs0, $fs0
	fmul.d	$fs1, $fs2, $fa2
	fcmp.cule.d	$fcc0, $fs1, $fs3
	bceqz	$fcc0, .LBB3_57
# %bb.55:                               # %cond.false103
.Ltmp64:                                # EH_LABEL
	pcalau12i	$a0, %pc_hi20(.L.str.40)
	addi.d	$a1, $a0, %pc_lo12(.L.str.40)
	pcalau12i	$a0, %pc_hi20(.L.str.30)
	addi.d	$a2, $a0, %pc_lo12(.L.str.30)
	pcalau12i	$a0, %pc_hi20(.L__func__._Z11CheckSimpleRK7Results)
	addi.d	$a3, $a0, %pc_lo12(.L__func__._Z11CheckSimpleRK7Results)
	addi.d	$a0, $sp, 72
	ori	$a4, $zero, 56
	pcaddu18i	$ra, %call36(_ZN9benchmark8internal12CheckHandlerC2EPKcS3_S3_i)
	jirl	$ra, $ra, 0
.Ltmp65:                                # EH_LABEL
# %bb.56:                               # %invoke.cont107
	ld.d	$s4, $sp, 72
	b	.LBB3_58
.LBB3_57:                               # %cond.true100
	pcalau12i	$a0, %pc_hi20(_ZGVZN9benchmark8internal18GetNullLogInstanceEvE8null_log)
	ld.b	$a0, $a0, %pc_lo12(_ZGVZN9benchmark8internal18GetNullLogInstanceEvE8null_log)
	dbar	20
	pcalau12i	$a1, %pc_hi20(_ZZN9benchmark8internal18GetNullLogInstanceEvE8null_log)
	addi.d	$s4, $a1, %pc_lo12(_ZZN9benchmark8internal18GetNullLogInstanceEvE8null_log)
	beqz	$a0, .LBB3_143
.LBB3_58:                               # %cond.end112
	ld.d	$a0, $s4, 0
	beqz	$a0, .LBB3_90
# %bb.59:                               # %if.then.i201
.Ltmp66:                                # EH_LABEL
	pcalau12i	$a1, %pc_hi20(.L.str.31)
	addi.d	$a1, $a1, %pc_lo12(.L.str.31)
	ori	$a2, $zero, 1
	pcaddu18i	$ra, %call36(_ZSt16__ostream_insertIcSt11char_traitsIcEERSt13basic_ostreamIT_T0_ES6_PKS3_l)
	jirl	$ra, $ra, 0
.Ltmp67:                                # EH_LABEL
# %bb.60:                               # %invoke.cont114
	ld.d	$a0, $s4, 0
	beqz	$a0, .LBB3_90
# %bb.61:                               # %if.then.i207
.Ltmp68:                                # EH_LABEL
	pcalau12i	$a1, %pc_hi20(.L.str.30)
	addi.d	$a1, $a1, %pc_lo12(.L.str.30)
	ori	$a2, $zero, 86
	pcaddu18i	$ra, %call36(_ZSt16__ostream_insertIcSt11char_traitsIcEERSt13basic_ostreamIT_T0_ES6_PKS3_l)
	jirl	$ra, $ra, 0
.Ltmp69:                                # EH_LABEL
# %bb.62:                               # %invoke.cont116
	ld.d	$a0, $s4, 0
	beqz	$a0, .LBB3_90
# %bb.63:                               # %if.then.i213
.Ltmp70:                                # EH_LABEL
	pcalau12i	$a1, %pc_hi20(.L.str.32)
	addi.d	$a1, $a1, %pc_lo12(.L.str.32)
	ori	$a2, $zero, 1
	pcaddu18i	$ra, %call36(_ZSt16__ostream_insertIcSt11char_traitsIcEERSt13basic_ostreamIT_T0_ES6_PKS3_l)
	jirl	$ra, $ra, 0
.Ltmp71:                                # EH_LABEL
# %bb.64:                               # %invoke.cont118
	ld.d	$a0, $s4, 0
	beqz	$a0, .LBB3_90
# %bb.65:                               # %if.then.i219
.Ltmp73:                                # EH_LABEL
	ori	$a1, $zero, 56
	pcaddu18i	$ra, %call36(_ZNSolsEi)
	jirl	$ra, $ra, 0
.Ltmp74:                                # EH_LABEL
# %bb.66:                               # %invoke.cont122
	ld.d	$a0, $s4, 0
	beqz	$a0, .LBB3_90
# %bb.67:                               # %if.then.i224
.Ltmp75:                                # EH_LABEL
	pcalau12i	$a1, %pc_hi20(.L.str.33)
	addi.d	$a1, $a1, %pc_lo12(.L.str.33)
	ori	$a2, $zero, 2
	pcaddu18i	$ra, %call36(_ZSt16__ostream_insertIcSt11char_traitsIcEERSt13basic_ostreamIT_T0_ES6_PKS3_l)
	jirl	$ra, $ra, 0
.Ltmp76:                                # EH_LABEL
# %bb.68:                               # %invoke.cont124
	ld.d	$a0, $s4, 0
	beqz	$a0, .LBB3_90
# %bb.69:                               # %if.then.i230
	ld.d	$a1, $fp, 0
	ld.d	$a2, $fp, 8
.Ltmp77:                                # EH_LABEL
	pcaddu18i	$ra, %call36(_ZSt16__ostream_insertIcSt11char_traitsIcEERSt13basic_ostreamIT_T0_ES6_PKS3_l)
	jirl	$ra, $ra, 0
.Ltmp78:                                # EH_LABEL
# %bb.70:                               # %invoke.cont127
	ld.d	$a0, $s4, 0
	beqz	$a0, .LBB3_90
# %bb.71:                               # %if.then.i237
.Ltmp79:                                # EH_LABEL
	pcalau12i	$a1, %pc_hi20(.L.str.34)
	addi.d	$a1, $a1, %pc_lo12(.L.str.34)
	ori	$a2, $zero, 2
	pcaddu18i	$ra, %call36(_ZSt16__ostream_insertIcSt11char_traitsIcEERSt13basic_ostreamIT_T0_ES6_PKS3_l)
	jirl	$ra, $ra, 0
.Ltmp80:                                # EH_LABEL
# %bb.72:                               # %invoke.cont129
	ld.d	$a0, $s4, 0
	beqz	$a0, .LBB3_90
# %bb.73:                               # %if.then.i243
.Ltmp81:                                # EH_LABEL
	pcalau12i	$a1, %pc_hi20(.L.str.30)
	addi.d	$a1, $a1, %pc_lo12(.L.str.30)
	ori	$a2, $zero, 86
	pcaddu18i	$ra, %call36(_ZSt16__ostream_insertIcSt11char_traitsIcEERSt13basic_ostreamIT_T0_ES6_PKS3_l)
	jirl	$ra, $ra, 0
.Ltmp82:                                # EH_LABEL
# %bb.74:                               # %invoke.cont131
	ld.d	$a0, $s4, 0
	beqz	$a0, .LBB3_90
# %bb.75:                               # %if.then.i249
.Ltmp83:                                # EH_LABEL
	pcalau12i	$a1, %pc_hi20(.L.str.32)
	addi.d	$a1, $a1, %pc_lo12(.L.str.32)
	ori	$a2, $zero, 1
	pcaddu18i	$ra, %call36(_ZSt16__ostream_insertIcSt11char_traitsIcEERSt13basic_ostreamIT_T0_ES6_PKS3_l)
	jirl	$ra, $ra, 0
.Ltmp84:                                # EH_LABEL
# %bb.76:                               # %invoke.cont133
	ld.d	$a0, $s4, 0
	beqz	$a0, .LBB3_90
# %bb.77:                               # %if.then.i255
.Ltmp86:                                # EH_LABEL
	ori	$a1, $zero, 56
	pcaddu18i	$ra, %call36(_ZNSolsEi)
	jirl	$ra, $ra, 0
.Ltmp87:                                # EH_LABEL
# %bb.78:                               # %invoke.cont137
	ld.d	$a0, $s4, 0
	beqz	$a0, .LBB3_90
# %bb.79:                               # %if.then.i260
.Ltmp88:                                # EH_LABEL
	pcalau12i	$a1, %pc_hi20(.L.str.33)
	addi.d	$a1, $a1, %pc_lo12(.L.str.33)
	ori	$a2, $zero, 2
	pcaddu18i	$ra, %call36(_ZSt16__ostream_insertIcSt11char_traitsIcEERSt13basic_ostreamIT_T0_ES6_PKS3_l)
	jirl	$ra, $ra, 0
.Ltmp89:                                # EH_LABEL
# %bb.80:                               # %invoke.cont139
	ld.d	$a0, $s4, 0
	beqz	$a0, .LBB3_90
# %bb.81:                               # %if.then.i266
.Ltmp90:                                # EH_LABEL
	pcalau12i	$a1, %pc_hi20(.L.str.35)
	addi.d	$a1, $a1, %pc_lo12(.L.str.35)
	ori	$a2, $zero, 10
	pcaddu18i	$ra, %call36(_ZSt16__ostream_insertIcSt11char_traitsIcEERSt13basic_ostreamIT_T0_ES6_PKS3_l)
	jirl	$ra, $ra, 0
.Ltmp91:                                # EH_LABEL
# %bb.82:                               # %invoke.cont141
	ld.d	$a0, $s4, 0
	beqz	$a0, .LBB3_90
# %bb.83:                               # %if.then.i272
.Ltmp92:                                # EH_LABEL
	pcalau12i	$a1, %pc_hi20(.L.str.41)
	addi.d	$a1, $a1, %pc_lo12(.L.str.41)
	ori	$a2, $zero, 6
	pcaddu18i	$ra, %call36(_ZSt16__ostream_insertIcSt11char_traitsIcEERSt13basic_ostreamIT_T0_ES6_PKS3_l)
	jirl	$ra, $ra, 0
.Ltmp93:                                # EH_LABEL
# %bb.84:                               # %invoke.cont143
	ld.d	$a0, $s4, 0
	beqz	$a0, .LBB3_90
# %bb.85:                               # %if.then.i277
.Ltmp94:                                # EH_LABEL
	pcalau12i	$a1, %pc_hi20(.L.str.37)
	addi.d	$a1, $a1, %pc_lo12(.L.str.37)
	ori	$a2, $zero, 1
	pcaddu18i	$ra, %call36(_ZSt16__ostream_insertIcSt11char_traitsIcEERSt13basic_ostreamIT_T0_ES6_PKS3_l)
	jirl	$ra, $ra, 0
.Ltmp95:                                # EH_LABEL
# %bb.86:                               # %invoke.cont145
	ld.d	$a0, $s4, 0
	beqz	$a0, .LBB3_90
# %bb.87:                               # %if.then.i283
.Ltmp96:                                # EH_LABEL
	pcalau12i	$a1, %pc_hi20(.L.str.6)
	addi.d	$a1, $a1, %pc_lo12(.L.str.6)
	ori	$a2, $zero, 3
	pcaddu18i	$ra, %call36(_ZSt16__ostream_insertIcSt11char_traitsIcEERSt13basic_ostreamIT_T0_ES6_PKS3_l)
	jirl	$ra, $ra, 0
.Ltmp97:                                # EH_LABEL
# %bb.88:                               # %invoke.cont147
	ld.d	$a0, $s4, 0
	beqz	$a0, .LBB3_90
# %bb.89:                               # %if.then.i289
.Ltmp98:                                # EH_LABEL
	pcalau12i	$a1, %pc_hi20(.L.str.38)
	addi.d	$a1, $a1, %pc_lo12(.L.str.38)
	ori	$a2, $zero, 1
	pcaddu18i	$ra, %call36(_ZSt16__ostream_insertIcSt11char_traitsIcEERSt13basic_ostreamIT_T0_ES6_PKS3_l)
	jirl	$ra, $ra, 0
.Ltmp99:                                # EH_LABEL
.LBB3_90:                               # %invoke.cont149
	st.d	$s1, $sp, 80
	st.h	$s2, $sp, 96
	st.b	$s3, $sp, 98
	ori	$a0, $zero, 3
	st.d	$a0, $sp, 88
	st.b	$zero, $sp, 99
.Ltmp101:                               # EH_LABEL
	addi.d	$a1, $sp, 80
	move	$a0, $fp
	pcaddu18i	$ra, %call36(_ZNK7Results5GetAsIdEET_RKNSt7__cxx1112basic_stringIcSt11char_traitsIcESaIcEEE)
	jirl	$ra, $ra, 0
.Ltmp102:                               # EH_LABEL
# %bb.91:                               # %invoke.cont157
	ld.d	$a0, $s4, 0
	beqz	$a0, .LBB3_119
# %bb.92:                               # %if.then.i310
.Ltmp103:                               # EH_LABEL
	pcaddu18i	$ra, %call36(_ZNSo9_M_insertIdEERSoT_)
	jirl	$ra, $ra, 0
.Ltmp104:                               # EH_LABEL
# %bb.93:                               # %invoke.cont159
	ld.d	$a0, $s4, 0
	beqz	$a0, .LBB3_119
# %bb.94:                               # %if.then.i314
.Ltmp105:                               # EH_LABEL
	pcalau12i	$a1, %pc_hi20(.L.str.39)
	addi.d	$a1, $a1, %pc_lo12(.L.str.39)
	ori	$a2, $zero, 13
	pcaddu18i	$ra, %call36(_ZSt16__ostream_insertIcSt11char_traitsIcEERSt13basic_ostreamIT_T0_ES6_PKS3_l)
	jirl	$ra, $ra, 0
.Ltmp106:                               # EH_LABEL
# %bb.95:                               # %invoke.cont161
	ld.d	$a0, $s4, 0
	beqz	$a0, .LBB3_119
# %bb.96:                               # %if.then.i320
.Ltmp108:                               # EH_LABEL
	fmov.d	$fa0, $fs2
	pcaddu18i	$ra, %call36(_ZNSo9_M_insertIdEERSoT_)
	jirl	$ra, $ra, 0
.Ltmp109:                               # EH_LABEL
# %bb.97:                               # %invoke.cont166
	ld.d	$a0, $s4, 0
	beqz	$a0, .LBB3_119
# %bb.98:                               # %if.then.i325
.Ltmp110:                               # EH_LABEL
	pcalau12i	$a1, %pc_hi20(.L.str.31)
	addi.d	$a1, $a1, %pc_lo12(.L.str.31)
	ori	$a2, $zero, 1
	pcaddu18i	$ra, %call36(_ZSt16__ostream_insertIcSt11char_traitsIcEERSt13basic_ostreamIT_T0_ES6_PKS3_l)
	jirl	$ra, $ra, 0
.Ltmp111:                               # EH_LABEL
# %bb.99:                               # %invoke.cont168
	ld.d	$a0, $s4, 0
	beqz	$a0, .LBB3_119
# %bb.100:                              # %if.then.i331
.Ltmp112:                               # EH_LABEL
	pcalau12i	$a1, %pc_hi20(.L.str.30)
	addi.d	$a1, $a1, %pc_lo12(.L.str.30)
	ori	$a2, $zero, 86
	pcaddu18i	$ra, %call36(_ZSt16__ostream_insertIcSt11char_traitsIcEERSt13basic_ostreamIT_T0_ES6_PKS3_l)
	jirl	$ra, $ra, 0
.Ltmp113:                               # EH_LABEL
# %bb.101:                              # %invoke.cont170
	ld.d	$a0, $s4, 0
	beqz	$a0, .LBB3_119
# %bb.102:                              # %if.then.i337
.Ltmp114:                               # EH_LABEL
	pcalau12i	$a1, %pc_hi20(.L.str.32)
	addi.d	$a1, $a1, %pc_lo12(.L.str.32)
	ori	$a2, $zero, 1
	pcaddu18i	$ra, %call36(_ZSt16__ostream_insertIcSt11char_traitsIcEERSt13basic_ostreamIT_T0_ES6_PKS3_l)
	jirl	$ra, $ra, 0
.Ltmp115:                               # EH_LABEL
# %bb.103:                              # %invoke.cont172
	ld.d	$a0, $s4, 0
	beqz	$a0, .LBB3_119
# %bb.104:                              # %if.then.i343
.Ltmp117:                               # EH_LABEL
	ori	$a1, $zero, 56
	pcaddu18i	$ra, %call36(_ZNSolsEi)
	jirl	$ra, $ra, 0
.Ltmp118:                               # EH_LABEL
# %bb.105:                              # %invoke.cont176
	ld.d	$a0, $s4, 0
	beqz	$a0, .LBB3_119
# %bb.106:                              # %if.then.i348
.Ltmp119:                               # EH_LABEL
	pcalau12i	$a1, %pc_hi20(.L.str.33)
	addi.d	$a1, $a1, %pc_lo12(.L.str.33)
	ori	$a2, $zero, 2
	pcaddu18i	$ra, %call36(_ZSt16__ostream_insertIcSt11char_traitsIcEERSt13basic_ostreamIT_T0_ES6_PKS3_l)
	jirl	$ra, $ra, 0
.Ltmp120:                               # EH_LABEL
# %bb.107:                              # %invoke.cont178
	ld.d	$a0, $s4, 0
	beqz	$a0, .LBB3_119
# %bb.108:                              # %if.then.i354
.Ltmp121:                               # EH_LABEL
	pcalau12i	$a1, %pc_hi20(.L.str.42)
	addi.d	$a1, $a1, %pc_lo12(.L.str.42)
	ori	$a2, $zero, 18
	pcaddu18i	$ra, %call36(_ZSt16__ostream_insertIcSt11char_traitsIcEERSt13basic_ostreamIT_T0_ES6_PKS3_l)
	jirl	$ra, $ra, 0
.Ltmp122:                               # EH_LABEL
# %bb.109:                              # %invoke.cont180
	ld.d	$a0, $s4, 0
	beqz	$a0, .LBB3_119
# %bb.110:                              # %if.then.i359
.Ltmp124:                               # EH_LABEL
	fmov.d	$fa0, $fs1
	pcaddu18i	$ra, %call36(_ZNSo9_M_insertIdEERSoT_)
	jirl	$ra, $ra, 0
.Ltmp125:                               # EH_LABEL
# %bb.111:                              # %invoke.cont186
	ld.d	$a0, $s4, 0
	beqz	$a0, .LBB3_119
# %bb.112:                              # %if.then.i364
.Ltmp126:                               # EH_LABEL
	pcalau12i	$a1, %pc_hi20(.L.str.43)
	addi.d	$a1, $a1, %pc_lo12(.L.str.43)
	ori	$a2, $zero, 2
	pcaddu18i	$ra, %call36(_ZSt16__ostream_insertIcSt11char_traitsIcEERSt13basic_ostreamIT_T0_ES6_PKS3_l)
	jirl	$ra, $ra, 0
.Ltmp127:                               # EH_LABEL
# %bb.113:                              # %invoke.cont188
	ld.d	$a0, $s4, 0
	beqz	$a0, .LBB3_119
# %bb.114:                              # %if.then.i370
.Ltmp129:                               # EH_LABEL
	pcalau12i	$a1, %pc_hi20(.LCPI3_1)
	fld.d	$fa0, $a1, %pc_lo12(.LCPI3_1)
	pcaddu18i	$ra, %call36(_ZNSo9_M_insertIdEERSoT_)
	jirl	$ra, $ra, 0
.Ltmp130:                               # EH_LABEL
# %bb.115:                              # %invoke.cont192
	ld.d	$a0, $s4, 0
	beqz	$a0, .LBB3_119
# %bb.116:                              # %if.then.i375
.Ltmp131:                               # EH_LABEL
	pcalau12i	$a1, %pc_hi20(.L.str.44)
	addi.d	$a1, $a1, %pc_lo12(.L.str.44)
	ori	$a2, $zero, 4
	pcaddu18i	$ra, %call36(_ZSt16__ostream_insertIcSt11char_traitsIcEERSt13basic_ostreamIT_T0_ES6_PKS3_l)
	jirl	$ra, $ra, 0
.Ltmp132:                               # EH_LABEL
# %bb.117:                              # %invoke.cont194
	ld.d	$a0, $s4, 0
	beqz	$a0, .LBB3_119
# %bb.118:                              # %if.then.i380
.Ltmp133:                               # EH_LABEL
	pcalau12i	$a1, %pc_hi20(.L.str.45)
	addi.d	$a1, $a1, %pc_lo12(.L.str.45)
	ori	$a2, $zero, 14
	pcaddu18i	$ra, %call36(_ZSt16__ostream_insertIcSt11char_traitsIcEERSt13basic_ostreamIT_T0_ES6_PKS3_l)
	jirl	$ra, $ra, 0
.Ltmp134:                               # EH_LABEL
.LBB3_119:                              # %invoke.cont196
	addi.d	$s5, $sp, 56
	st.d	$s5, $sp, 40
	st.h	$s2, $sp, 56
	st.b	$s3, $sp, 58
	ori	$a0, $zero, 3
	st.d	$a0, $sp, 48
	st.b	$zero, $sp, 59
.Ltmp136:                               # EH_LABEL
	addi.d	$a1, $sp, 40
	move	$a0, $fp
	pcaddu18i	$ra, %call36(_ZNK7Results5GetAsIdEET_RKNSt7__cxx1112basic_stringIcSt11char_traitsIcESaIcEEE)
	jirl	$ra, $ra, 0
.Ltmp137:                               # EH_LABEL
# %bb.120:                              # %invoke.cont204
	ld.d	$a0, $s4, 0
	beqz	$a0, .LBB3_124
# %bb.121:                              # %if.then.i400
	vldi	$vr1, -896
	fmadd.d	$fa0, $fs0, $fa1, $fa0
.Ltmp138:                               # EH_LABEL
	pcaddu18i	$ra, %call36(_ZNSo9_M_insertIdEERSoT_)
	jirl	$ra, $ra, 0
.Ltmp139:                               # EH_LABEL
# %bb.122:                              # %invoke.cont207
	ld.d	$a0, $s4, 0
	beqz	$a0, .LBB3_124
# %bb.123:                              # %if.then.i405
.Ltmp140:                               # EH_LABEL
	pcalau12i	$a1, %pc_hi20(.L.str.43)
	addi.d	$a1, $a1, %pc_lo12(.L.str.43)
	ori	$a2, $zero, 2
	pcaddu18i	$ra, %call36(_ZSt16__ostream_insertIcSt11char_traitsIcEERSt13basic_ostreamIT_T0_ES6_PKS3_l)
	jirl	$ra, $ra, 0
.Ltmp141:                               # EH_LABEL
.LBB3_124:                              # %invoke.cont209
	addi.d	$s6, $sp, 24
	st.d	$s6, $sp, 8
	st.h	$s2, $sp, 24
	st.b	$s3, $sp, 26
	ori	$a0, $zero, 3
	st.d	$a0, $sp, 16
	st.b	$zero, $sp, 27
.Ltmp143:                               # EH_LABEL
	addi.d	$a1, $sp, 8
	move	$a0, $fp
	pcaddu18i	$ra, %call36(_ZNK7Results5GetAsIdEET_RKNSt7__cxx1112basic_stringIcSt11char_traitsIcESaIcEEE)
	jirl	$ra, $ra, 0
.Ltmp144:                               # EH_LABEL
# %bb.125:                              # %invoke.cont217
	ld.d	$a0, $s4, 0
	beqz	$a0, .LBB3_129
# %bb.126:                              # %if.then.i426
	vldi	$vr1, -896
	fmadd.d	$fa0, $fs0, $fa1, $fa0
	pcalau12i	$a1, %pc_hi20(.LCPI3_2)
	fld.d	$fa1, $a1, %pc_lo12(.LCPI3_2)
	fabs.d	$fa2, $fs2
	pcalau12i	$a1, %pc_hi20(.LCPI3_3)
	fld.d	$fa3, $a1, %pc_lo12(.LCPI3_3)
	fcmp.clt.d	$fcc0, $fa1, $fa2
	fsel	$fa1, $fa1, $fs2, $fcc0
	fdiv.d	$fa0, $fa0, $fa1
	fmul.d	$fa0, $fa0, $fa3
.Ltmp145:                               # EH_LABEL
	pcaddu18i	$ra, %call36(_ZNSo9_M_insertIdEERSoT_)
	jirl	$ra, $ra, 0
.Ltmp146:                               # EH_LABEL
# %bb.127:                              # %invoke.cont230
	ld.d	$a0, $s4, 0
	beqz	$a0, .LBB3_129
# %bb.128:                              # %if.then.i431
.Ltmp147:                               # EH_LABEL
	pcalau12i	$a1, %pc_hi20(.L.str.46)
	addi.d	$a1, $a1, %pc_lo12(.L.str.46)
	ori	$a2, $zero, 2
	pcaddu18i	$ra, %call36(_ZSt16__ostream_insertIcSt11char_traitsIcEERSt13basic_ostreamIT_T0_ES6_PKS3_l)
	jirl	$ra, $ra, 0
.Ltmp148:                               # EH_LABEL
.LBB3_129:                              # %invoke.cont232
	ld.d	$a0, $sp, 8
	beq	$a0, $s6, .LBB3_131
# %bb.130:                              # %if.then.i.i437
	ld.d	$a1, $sp, 24
	addi.d	$a1, $a1, 1
	pcaddu18i	$ra, %call36(_ZdlPvm)
	jirl	$ra, $ra, 0
.LBB3_131:                              # %_ZNSt7__cxx1112basic_stringIcSt11char_traitsIcESaIcEED2Ev.exit442
	ld.d	$a0, $sp, 40
	beq	$a0, $s5, .LBB3_133
# %bb.132:                              # %if.then.i.i444
	ld.d	$a1, $sp, 56
	addi.d	$a1, $a1, 1
	pcaddu18i	$ra, %call36(_ZdlPvm)
	jirl	$ra, $ra, 0
.LBB3_133:                              # %_ZNSt7__cxx1112basic_stringIcSt11char_traitsIcESaIcEED2Ev.exit449
	ld.d	$a0, $sp, 80
	beq	$a0, $s1, .LBB3_135
# %bb.134:                              # %if.then.i.i451
	ld.d	$a1, $sp, 96
	addi.d	$a1, $a1, 1
	pcaddu18i	$ra, %call36(_ZdlPvm)
	jirl	$ra, $ra, 0
.LBB3_135:                              # %_ZNSt7__cxx1112basic_stringIcSt11char_traitsIcESaIcEED2Ev.exit456
	fcmp.clt.d	$fcc0, $fs3, $fs1
	bceqz	$fcc0, .LBB3_141
# %bb.136:                              # %cleanup.done266
	ld.d	$a0, $sp, 120
	beq	$a0, $s0, .LBB3_138
# %bb.137:                              # %if.then.i.i486
	ld.d	$a1, $sp, 136
	addi.d	$a1, $a1, 1
	pcaddu18i	$ra, %call36(_ZdlPvm)
	jirl	$ra, $ra, 0
.LBB3_138:                              # %_ZNSt7__cxx1112basic_stringIcSt11char_traitsIcESaIcEED2Ev.exit491
	fld.d	$fs3, $sp, 152                  # 8-byte Folded Reload
	fld.d	$fs2, $sp, 160                  # 8-byte Folded Reload
	fld.d	$fs1, $sp, 168                  # 8-byte Folded Reload
	fld.d	$fs0, $sp, 176                  # 8-byte Folded Reload
	ld.d	$s6, $sp, 184                   # 8-byte Folded Reload
	ld.d	$s5, $sp, 192                   # 8-byte Folded Reload
	ld.d	$s4, $sp, 200                   # 8-byte Folded Reload
	ld.d	$s3, $sp, 208                   # 8-byte Folded Reload
	ld.d	$s2, $sp, 216                   # 8-byte Folded Reload
	ld.d	$s1, $sp, 224                   # 8-byte Folded Reload
	ld.d	$s0, $sp, 232                   # 8-byte Folded Reload
	ld.d	$fp, $sp, 240                   # 8-byte Folded Reload
	ld.d	$ra, $sp, 248                   # 8-byte Folded Reload
	addi.d	$sp, $sp, 256
	ret
.LBB3_139:                              # %cleanup.action
.Ltmp58:                                # EH_LABEL
	addi.d	$a0, $sp, 112
	pcaddu18i	$ra, %call36(_ZN9benchmark8internal12CheckHandlerD2Ev)
	jirl	$ra, $ra, 0
.Ltmp59:                                # EH_LABEL
# %bb.140:                              # %invoke.cont74
.LBB3_141:                              # %cleanup.action256
.Ltmp153:                               # EH_LABEL
	addi.d	$a0, $sp, 72
	pcaddu18i	$ra, %call36(_ZN9benchmark8internal12CheckHandlerD2Ev)
	jirl	$ra, $ra, 0
.Ltmp154:                               # EH_LABEL
# %bb.142:                              # %invoke.cont257
.LBB3_143:                              # %init.check.i196
	pcalau12i	$a0, %pc_hi20(_ZGVZN9benchmark8internal18GetNullLogInstanceEvE8null_log)
	addi.d	$a0, $a0, %pc_lo12(_ZGVZN9benchmark8internal18GetNullLogInstanceEvE8null_log)
	pcaddu18i	$ra, %call36(__cxa_guard_acquire)
	jirl	$ra, $ra, 0
	addi.w	$a0, $a0, 0
	beqz	$a0, .LBB3_58
# %bb.144:                              # %init.i198
	pcalau12i	$a0, %pc_hi20(_ZZN9benchmark8internal18GetNullLogInstanceEvE8null_log)
	addi.d	$s4, $a0, %pc_lo12(_ZZN9benchmark8internal18GetNullLogInstanceEvE8null_log)
	st.d	$zero, $s4, 0
	pcalau12i	$a0, %pc_hi20(_ZGVZN9benchmark8internal18GetNullLogInstanceEvE8null_log)
	addi.d	$a0, $a0, %pc_lo12(_ZGVZN9benchmark8internal18GetNullLogInstanceEvE8null_log)
	pcaddu18i	$ra, %call36(__cxa_guard_release)
	jirl	$ra, $ra, 0
	b	.LBB3_58
.LBB3_145:                              # %lpad191
.Ltmp135:                               # EH_LABEL
	move	$fp, $a0
	ld.d	$a0, $sp, 80
	beq	$a0, $s1, .LBB3_166
	b	.LBB3_173
.LBB3_146:                              # %lpad185
.Ltmp128:                               # EH_LABEL
	move	$fp, $a0
	ld.d	$a0, $sp, 80
	beq	$a0, $s1, .LBB3_166
	b	.LBB3_173
.LBB3_147:                              # %lpad136
.Ltmp100:                               # EH_LABEL
	b	.LBB3_157
.LBB3_148:                              # %lpad35
.Ltmp45:                                # EH_LABEL
	b	.LBB3_159
.LBB3_149:                              # %lpad175
.Ltmp123:                               # EH_LABEL
	move	$fp, $a0
	ld.d	$a0, $sp, 80
	beq	$a0, $s1, .LBB3_166
	b	.LBB3_173
.LBB3_150:                              # %lpad121
.Ltmp85:                                # EH_LABEL
	b	.LBB3_157
.LBB3_151:                              # %lpad21
.Ltmp30:                                # EH_LABEL
	b	.LBB3_159
.LBB3_152:                              # %lpad63
.Ltmp57:                                # EH_LABEL
	b	.LBB3_175
.LBB3_153:                              # %lpad165
.Ltmp116:                               # EH_LABEL
	move	$fp, $a0
	ld.d	$a0, $sp, 80
	beq	$a0, $s1, .LBB3_166
	b	.LBB3_173
.LBB3_154:                              # %lpad95
.Ltmp63:                                # EH_LABEL
	b	.LBB3_162
.LBB3_155:                              # %lpad2
.Ltmp8:                                 # EH_LABEL
	b	.LBB3_162
.LBB3_156:                              # %lpad109
.Ltmp72:                                # EH_LABEL
.LBB3_157:                              # %ehcleanup259
	move	$fp, $a0
	fcmp.clt.d	$fcc0, $fs3, $fs1
	addi.d	$a0, $sp, 72
	bceqz	$fcc0, .LBB3_167
	b	.LBB3_178
.LBB3_158:                              # %lpad11
.Ltmp17:                                # EH_LABEL
.LBB3_159:                              # %ehcleanup75
	move	$fp, $a0
	b	.LBB3_177
.LBB3_160:                              # %cleanup.action269
.Ltmp155:                               # EH_LABEL
	b	.LBB3_162
.LBB3_161:                              # %cleanup.action85
.Ltmp60:                                # EH_LABEL
.LBB3_162:                              # %ehcleanup271
	move	$fp, $a0
	b	.LBB3_178
.LBB3_163:                              # %lpad216
.Ltmp149:                               # EH_LABEL
	ld.d	$a2, $sp, 8
	move	$fp, $a0
	bne	$a2, $s6, .LBB3_169
# %bb.164:                              # %ehcleanup239
	ld.d	$a0, $sp, 40
	bne	$a0, $s5, .LBB3_171
.LBB3_165:                              # %ehcleanup248
	ld.d	$a0, $sp, 80
	bne	$a0, $s1, .LBB3_173
.LBB3_166:                              # %ehcleanup259
	fcmp.clt.d	$fcc0, $fs3, $fs1
	addi.d	$a0, $sp, 72
	bcnez	$fcc0, .LBB3_178
.LBB3_167:                              # %cleanup.action261.invoke
.Ltmp150:                               # EH_LABEL
	pcaddu18i	$ra, %call36(_ZN9benchmark8internal12CheckHandlerD2Ev)
	jirl	$ra, $ra, 0
.Ltmp151:                               # EH_LABEL
# %bb.168:                              # %cleanup.action261.cont
.LBB3_169:                              # %if.then.i.i465
	ld.d	$a0, $sp, 24
	addi.d	$a1, $a0, 1
	move	$a0, $a2
	pcaddu18i	$ra, %call36(_ZdlPvm)
	jirl	$ra, $ra, 0
	ld.d	$a0, $sp, 40
	beq	$a0, $s5, .LBB3_165
	b	.LBB3_171
.LBB3_170:                              # %lpad203
.Ltmp142:                               # EH_LABEL
	move	$fp, $a0
	ld.d	$a0, $sp, 40
	beq	$a0, $s5, .LBB3_165
.LBB3_171:                              # %if.then.i.i472
	ld.d	$a1, $sp, 56
	addi.d	$a1, $a1, 1
	pcaddu18i	$ra, %call36(_ZdlPvm)
	jirl	$ra, $ra, 0
	ld.d	$a0, $sp, 80
	beq	$a0, $s1, .LBB3_166
	b	.LBB3_173
.LBB3_172:                              # %lpad156
.Ltmp107:                               # EH_LABEL
	move	$fp, $a0
	ld.d	$a0, $sp, 80
	beq	$a0, $s1, .LBB3_166
.LBB3_173:                              # %if.then.i.i479
	ld.d	$a1, $sp, 96
	addi.d	$a1, $a1, 1
	pcaddu18i	$ra, %call36(_ZdlPvm)
	jirl	$ra, $ra, 0
	fcmp.clt.d	$fcc0, $fs3, $fs1
	addi.d	$a0, $sp, 72
	bceqz	$fcc0, .LBB3_167
	b	.LBB3_178
.LBB3_174:                              # %lpad55
.Ltmp52:                                # EH_LABEL
.LBB3_175:                              # %ehcleanup
	move	$fp, $a0
	ld.d	$a0, $sp, 80
	beq	$a0, $s1, .LBB3_177
# %bb.176:                              # %if.then.i.i168
	ld.d	$a1, $sp, 96
	addi.d	$a1, $a1, 1
	pcaddu18i	$ra, %call36(_ZdlPvm)
	jirl	$ra, $ra, 0
.LBB3_177:                              # %ehcleanup75
	ori	$a1, $zero, 1
	addi.d	$a0, $sp, 112
	bne	$s2, $a1, .LBB3_167
.LBB3_178:                              # %ehcleanup271
	ld.d	$a0, $sp, 120
	beq	$a0, $s0, .LBB3_180
# %bb.179:                              # %if.then.i.i493
	ld.d	$a1, $sp, 136
	addi.d	$a1, $a1, 1
	pcaddu18i	$ra, %call36(_ZdlPvm)
	jirl	$ra, $ra, 0
.LBB3_180:                              # %ehcleanup275
	move	$a0, $fp
	pcaddu18i	$ra, %call36(_Unwind_Resume)
	jirl	$ra, $ra, 0
.LBB3_181:                              # %terminate.lpad
.Ltmp152:                               # EH_LABEL
	pcaddu18i	$ra, %call36(__clang_call_terminate)
	jirl	$ra, $ra, 0
.Lfunc_end3:
	.size	_Z11CheckSimpleRK7Results, .Lfunc_end3-_Z11CheckSimpleRK7Results
	.cfi_endproc
	.section	.gcc_except_table,"a",@progbits
	.p2align	2, 0x0
GCC_except_table3:
.Lexception1:
	.byte	255                             # @LPStart Encoding = omit
	.byte	155                             # @TType Encoding = indirect pcrel sdata4
	.uleb128 .Lttbase0-.Lttbaseref0
.Lttbaseref0:
	.byte	1                               # Call site Encoding = uleb128
	.uleb128 .Lcst_end1-.Lcst_begin1
.Lcst_begin1:
	.uleb128 .Lfunc_begin1-.Lfunc_begin1    # >> Call Site 1 <<
	.uleb128 .Ltmp6-.Lfunc_begin1           #   Call between .Lfunc_begin1 and .Ltmp6
	.byte	0                               #     has no landing pad
	.byte	0                               #   On action: cleanup
	.uleb128 .Ltmp6-.Lfunc_begin1           # >> Call Site 2 <<
	.uleb128 .Ltmp7-.Ltmp6                  #   Call between .Ltmp6 and .Ltmp7
	.uleb128 .Ltmp8-.Lfunc_begin1           #     jumps to .Ltmp8
	.byte	0                               #   On action: cleanup
	.uleb128 .Ltmp7-.Lfunc_begin1           # >> Call Site 3 <<
	.uleb128 .Ltmp9-.Ltmp7                  #   Call between .Ltmp7 and .Ltmp9
	.byte	0                               #     has no landing pad
	.byte	0                               #   On action: cleanup
	.uleb128 .Ltmp9-.Lfunc_begin1           # >> Call Site 4 <<
	.uleb128 .Ltmp10-.Ltmp9                 #   Call between .Ltmp9 and .Ltmp10
	.uleb128 .Ltmp60-.Lfunc_begin1          #     jumps to .Ltmp60
	.byte	0                               #   On action: cleanup
	.uleb128 .Ltmp11-.Lfunc_begin1          # >> Call Site 5 <<
	.uleb128 .Ltmp16-.Ltmp11                #   Call between .Ltmp11 and .Ltmp16
	.uleb128 .Ltmp17-.Lfunc_begin1          #     jumps to .Ltmp17
	.byte	0                               #   On action: cleanup
	.uleb128 .Ltmp18-.Lfunc_begin1          # >> Call Site 6 <<
	.uleb128 .Ltmp29-.Ltmp18                #   Call between .Ltmp18 and .Ltmp29
	.uleb128 .Ltmp30-.Lfunc_begin1          #     jumps to .Ltmp30
	.byte	0                               #   On action: cleanup
	.uleb128 .Ltmp31-.Lfunc_begin1          # >> Call Site 7 <<
	.uleb128 .Ltmp44-.Ltmp31                #   Call between .Ltmp31 and .Ltmp44
	.uleb128 .Ltmp45-.Lfunc_begin1          #     jumps to .Ltmp45
	.byte	0                               #   On action: cleanup
	.uleb128 .Ltmp46-.Lfunc_begin1          # >> Call Site 8 <<
	.uleb128 .Ltmp51-.Ltmp46                #   Call between .Ltmp46 and .Ltmp51
	.uleb128 .Ltmp52-.Lfunc_begin1          #     jumps to .Ltmp52
	.byte	0                               #   On action: cleanup
	.uleb128 .Ltmp53-.Lfunc_begin1          # >> Call Site 9 <<
	.uleb128 .Ltmp56-.Ltmp53                #   Call between .Ltmp53 and .Ltmp56
	.uleb128 .Ltmp57-.Lfunc_begin1          #     jumps to .Ltmp57
	.byte	0                               #   On action: cleanup
	.uleb128 .Ltmp56-.Lfunc_begin1          # >> Call Site 10 <<
	.uleb128 .Ltmp61-.Ltmp56                #   Call between .Ltmp56 and .Ltmp61
	.byte	0                               #     has no landing pad
	.byte	0                               #   On action: cleanup
	.uleb128 .Ltmp61-.Lfunc_begin1          # >> Call Site 11 <<
	.uleb128 .Ltmp62-.Ltmp61                #   Call between .Ltmp61 and .Ltmp62
	.uleb128 .Ltmp63-.Lfunc_begin1          #     jumps to .Ltmp63
	.byte	0                               #   On action: cleanup
	.uleb128 .Ltmp64-.Lfunc_begin1          # >> Call Site 12 <<
	.uleb128 .Ltmp65-.Ltmp64                #   Call between .Ltmp64 and .Ltmp65
	.uleb128 .Ltmp155-.Lfunc_begin1         #     jumps to .Ltmp155
	.byte	0                               #   On action: cleanup
	.uleb128 .Ltmp66-.Lfunc_begin1          # >> Call Site 13 <<
	.uleb128 .Ltmp71-.Ltmp66                #   Call between .Ltmp66 and .Ltmp71
	.uleb128 .Ltmp72-.Lfunc_begin1          #     jumps to .Ltmp72
	.byte	0                               #   On action: cleanup
	.uleb128 .Ltmp73-.Lfunc_begin1          # >> Call Site 14 <<
	.uleb128 .Ltmp84-.Ltmp73                #   Call between .Ltmp73 and .Ltmp84
	.uleb128 .Ltmp85-.Lfunc_begin1          #     jumps to .Ltmp85
	.byte	0                               #   On action: cleanup
	.uleb128 .Ltmp86-.Lfunc_begin1          # >> Call Site 15 <<
	.uleb128 .Ltmp99-.Ltmp86                #   Call between .Ltmp86 and .Ltmp99
	.uleb128 .Ltmp100-.Lfunc_begin1         #     jumps to .Ltmp100
	.byte	0                               #   On action: cleanup
	.uleb128 .Ltmp101-.Lfunc_begin1         # >> Call Site 16 <<
	.uleb128 .Ltmp106-.Ltmp101              #   Call between .Ltmp101 and .Ltmp106
	.uleb128 .Ltmp107-.Lfunc_begin1         #     jumps to .Ltmp107
	.byte	0                               #   On action: cleanup
	.uleb128 .Ltmp108-.Lfunc_begin1         # >> Call Site 17 <<
	.uleb128 .Ltmp115-.Ltmp108              #   Call between .Ltmp108 and .Ltmp115
	.uleb128 .Ltmp116-.Lfunc_begin1         #     jumps to .Ltmp116
	.byte	0                               #   On action: cleanup
	.uleb128 .Ltmp117-.Lfunc_begin1         # >> Call Site 18 <<
	.uleb128 .Ltmp122-.Ltmp117              #   Call between .Ltmp117 and .Ltmp122
	.uleb128 .Ltmp123-.Lfunc_begin1         #     jumps to .Ltmp123
	.byte	0                               #   On action: cleanup
	.uleb128 .Ltmp124-.Lfunc_begin1         # >> Call Site 19 <<
	.uleb128 .Ltmp127-.Ltmp124              #   Call between .Ltmp124 and .Ltmp127
	.uleb128 .Ltmp128-.Lfunc_begin1         #     jumps to .Ltmp128
	.byte	0                               #   On action: cleanup
	.uleb128 .Ltmp129-.Lfunc_begin1         # >> Call Site 20 <<
	.uleb128 .Ltmp134-.Ltmp129              #   Call between .Ltmp129 and .Ltmp134
	.uleb128 .Ltmp135-.Lfunc_begin1         #     jumps to .Ltmp135
	.byte	0                               #   On action: cleanup
	.uleb128 .Ltmp136-.Lfunc_begin1         # >> Call Site 21 <<
	.uleb128 .Ltmp141-.Ltmp136              #   Call between .Ltmp136 and .Ltmp141
	.uleb128 .Ltmp142-.Lfunc_begin1         #     jumps to .Ltmp142
	.byte	0                               #   On action: cleanup
	.uleb128 .Ltmp143-.Lfunc_begin1         # >> Call Site 22 <<
	.uleb128 .Ltmp148-.Ltmp143              #   Call between .Ltmp143 and .Ltmp148
	.uleb128 .Ltmp149-.Lfunc_begin1         #     jumps to .Ltmp149
	.byte	0                               #   On action: cleanup
	.uleb128 .Ltmp148-.Lfunc_begin1         # >> Call Site 23 <<
	.uleb128 .Ltmp58-.Ltmp148               #   Call between .Ltmp148 and .Ltmp58
	.byte	0                               #     has no landing pad
	.byte	0                               #   On action: cleanup
	.uleb128 .Ltmp58-.Lfunc_begin1          # >> Call Site 24 <<
	.uleb128 .Ltmp59-.Ltmp58                #   Call between .Ltmp58 and .Ltmp59
	.uleb128 .Ltmp60-.Lfunc_begin1          #     jumps to .Ltmp60
	.byte	0                               #   On action: cleanup
	.uleb128 .Ltmp153-.Lfunc_begin1         # >> Call Site 25 <<
	.uleb128 .Ltmp154-.Ltmp153              #   Call between .Ltmp153 and .Ltmp154
	.uleb128 .Ltmp155-.Lfunc_begin1         #     jumps to .Ltmp155
	.byte	0                               #   On action: cleanup
	.uleb128 .Ltmp154-.Lfunc_begin1         # >> Call Site 26 <<
	.uleb128 .Ltmp150-.Ltmp154              #   Call between .Ltmp154 and .Ltmp150
	.byte	0                               #     has no landing pad
	.byte	0                               #   On action: cleanup
	.uleb128 .Ltmp150-.Lfunc_begin1         # >> Call Site 27 <<
	.uleb128 .Ltmp151-.Ltmp150              #   Call between .Ltmp150 and .Ltmp151
	.uleb128 .Ltmp152-.Lfunc_begin1         #     jumps to .Ltmp152
	.byte	1                               #   On action: 1
	.uleb128 .Ltmp151-.Lfunc_begin1         # >> Call Site 28 <<
	.uleb128 .Lfunc_end3-.Ltmp151           #   Call between .Ltmp151 and .Lfunc_end3
	.byte	0                               #     has no landing pad
	.byte	0                               #   On action: cleanup
.Lcst_end1:
	.byte	1                               # >> Action Record 1 <<
                                        #   Catch TypeInfo 1
	.byte	0                               #   No further actions
	.p2align	2, 0x0
                                        # >> Catch TypeInfos <<
	.word	0                               # TypeInfo 1
.Lttbase0:
	.p2align	2, 0x0
                                        # -- End function
	.section	.text._ZN9benchmark8internal12CheckHandlerC2EPKcS3_S3_i,"axG",@progbits,_ZN9benchmark8internal12CheckHandlerC2EPKcS3_S3_i,comdat
	.hidden	_ZN9benchmark8internal12CheckHandlerC2EPKcS3_S3_i # -- Begin function _ZN9benchmark8internal12CheckHandlerC2EPKcS3_S3_i
	.weak	_ZN9benchmark8internal12CheckHandlerC2EPKcS3_S3_i
	.p2align	5
	.type	_ZN9benchmark8internal12CheckHandlerC2EPKcS3_S3_i,@function
_ZN9benchmark8internal12CheckHandlerC2EPKcS3_S3_i: # @_ZN9benchmark8internal12CheckHandlerC2EPKcS3_S3_i
	.cfi_startproc
# %bb.0:                                # %entry
	addi.d	$sp, $sp, -64
	.cfi_def_cfa_offset 64
	st.d	$ra, $sp, 56                    # 8-byte Folded Spill
	st.d	$fp, $sp, 48                    # 8-byte Folded Spill
	st.d	$s0, $sp, 40                    # 8-byte Folded Spill
	st.d	$s1, $sp, 32                    # 8-byte Folded Spill
	st.d	$s2, $sp, 24                    # 8-byte Folded Spill
	st.d	$s3, $sp, 16                    # 8-byte Folded Spill
	st.d	$s4, $sp, 8                     # 8-byte Folded Spill
	.cfi_offset 1, -8
	.cfi_offset 22, -16
	.cfi_offset 23, -24
	.cfi_offset 24, -32
	.cfi_offset 25, -40
	.cfi_offset 26, -48
	.cfi_offset 27, -56
	pcalau12i	$a5, %pc_hi20(_ZGVZN9benchmark8internal19GetErrorLogInstanceEvE9error_log)
	ld.b	$a5, $a5, %pc_lo12(_ZGVZN9benchmark8internal19GetErrorLogInstanceEvE9error_log)
	move	$s1, $a4
	move	$s0, $a3
	move	$fp, $a1
	dbar	20
	pcalau12i	$a1, %pc_hi20(_ZZN9benchmark8internal19GetErrorLogInstanceEvE9error_log)
	addi.d	$s4, $a1, %pc_lo12(_ZZN9benchmark8internal19GetErrorLogInstanceEvE9error_log)
	beqz	$a5, .LBB4_18
.LBB4_1:                                # %_ZN9benchmark8internal19GetErrorLogInstanceEv.exit
	ld.d	$s2, $s4, 0
	st.d	$s4, $a0, 0
	beqz	$s2, .LBB4_17
# %bb.2:                                # %if.then.i
	beqz	$a2, .LBB4_4
# %bb.3:                                # %if.else.i.i
	move	$a0, $a2
	move	$s3, $a2
	pcaddu18i	$ra, %call36(strlen)
	jirl	$ra, $ra, 0
	move	$a2, $a0
	move	$a0, $s2
	move	$a1, $s3
	pcaddu18i	$ra, %call36(_ZSt16__ostream_insertIcSt11char_traitsIcEERSt13basic_ostreamIT_T0_ES6_PKS3_l)
	jirl	$ra, $ra, 0
	ld.d	$a0, $s4, 0
	bnez	$a0, .LBB4_5
	b	.LBB4_17
.LBB4_4:                                # %if.then.i.i
	ld.d	$a0, $s2, 0
	ld.d	$a0, $a0, -24
	add.d	$a0, $s2, $a0
	ld.w	$a1, $a0, 32
	ori	$a1, $a1, 1
	pcaddu18i	$ra, %call36(_ZNSt9basic_iosIcSt11char_traitsIcEE5clearESt12_Ios_Iostate)
	jirl	$ra, $ra, 0
	ld.d	$a0, $s4, 0
	beqz	$a0, .LBB4_17
.LBB4_5:                                # %_ZN9benchmark8internallsIA2_cEERNS0_7LogTypeES4_RKT_.exit
	pcalau12i	$a1, %pc_hi20(.L.str.32)
	addi.d	$a1, $a1, %pc_lo12(.L.str.32)
	ori	$a2, $zero, 1
	pcaddu18i	$ra, %call36(_ZSt16__ostream_insertIcSt11char_traitsIcEERSt13basic_ostreamIT_T0_ES6_PKS3_l)
	jirl	$ra, $ra, 0
	ld.d	$a0, $s4, 0
	beqz	$a0, .LBB4_17
# %bb.6:                                # %_ZN9benchmark8internallsIiEERNS0_7LogTypeES3_RKT_.exit
	move	$a1, $s1
	pcaddu18i	$ra, %call36(_ZNSolsEi)
	jirl	$ra, $ra, 0
	ld.d	$a0, $s4, 0
	beqz	$a0, .LBB4_17
# %bb.7:                                # %_ZN9benchmark8internallsIA3_cEERNS0_7LogTypeES4_RKT_.exit
	pcalau12i	$a1, %pc_hi20(.L.str.33)
	addi.d	$a1, $a1, %pc_lo12(.L.str.33)
	ori	$a2, $zero, 2
	pcaddu18i	$ra, %call36(_ZSt16__ostream_insertIcSt11char_traitsIcEERSt13basic_ostreamIT_T0_ES6_PKS3_l)
	jirl	$ra, $ra, 0
	ld.d	$s1, $s4, 0
	beqz	$s1, .LBB4_17
# %bb.8:                                # %if.then.i13
	beqz	$s0, .LBB4_10
# %bb.9:                                # %if.else.i.i15
	move	$a0, $s0
	pcaddu18i	$ra, %call36(strlen)
	jirl	$ra, $ra, 0
	move	$a2, $a0
	move	$a0, $s1
	move	$a1, $s0
	pcaddu18i	$ra, %call36(_ZSt16__ostream_insertIcSt11char_traitsIcEERSt13basic_ostreamIT_T0_ES6_PKS3_l)
	jirl	$ra, $ra, 0
	ld.d	$a0, $s4, 0
	bnez	$a0, .LBB4_11
	b	.LBB4_17
.LBB4_10:                               # %if.then.i.i18
	ld.d	$a0, $s1, 0
	ld.d	$a0, $a0, -24
	add.d	$a0, $s1, $a0
	ld.w	$a1, $a0, 32
	ori	$a1, $a1, 1
	pcaddu18i	$ra, %call36(_ZNSt9basic_iosIcSt11char_traitsIcEE5clearESt12_Ios_Iostate)
	jirl	$ra, $ra, 0
	ld.d	$a0, $s4, 0
	beqz	$a0, .LBB4_17
.LBB4_11:                               # %_ZN9benchmark8internallsIA10_cEERNS0_7LogTypeES4_RKT_.exit
	pcalau12i	$a1, %pc_hi20(.L.str.200)
	addi.d	$a1, $a1, %pc_lo12(.L.str.200)
	ori	$a2, $zero, 9
	pcaddu18i	$ra, %call36(_ZSt16__ostream_insertIcSt11char_traitsIcEERSt13basic_ostreamIT_T0_ES6_PKS3_l)
	jirl	$ra, $ra, 0
	ld.d	$s0, $s4, 0
	beqz	$s0, .LBB4_17
# %bb.12:                               # %if.then.i31
	beqz	$fp, .LBB4_14
# %bb.13:                               # %if.else.i.i33
	move	$a0, $fp
	pcaddu18i	$ra, %call36(strlen)
	jirl	$ra, $ra, 0
	move	$a2, $a0
	move	$a0, $s0
	move	$a1, $fp
	pcaddu18i	$ra, %call36(_ZSt16__ostream_insertIcSt11char_traitsIcEERSt13basic_ostreamIT_T0_ES6_PKS3_l)
	jirl	$ra, $ra, 0
	b	.LBB4_15
.LBB4_14:                               # %if.then.i.i36
	ld.d	$a0, $s0, 0
	ld.d	$a0, $a0, -24
	add.d	$a0, $s0, $a0
	ld.w	$a1, $a0, 32
	ori	$a1, $a1, 1
	pcaddu18i	$ra, %call36(_ZNSt9basic_iosIcSt11char_traitsIcEE5clearESt12_Ios_Iostate)
	jirl	$ra, $ra, 0
.LBB4_15:                               # %_ZN9benchmark8internallsIPKcEERNS0_7LogTypeES5_RKT_.exit43
	ld.d	$a0, $s4, 0
	beqz	$a0, .LBB4_17
# %bb.16:                               # %if.then.i45
	pcalau12i	$a1, %pc_hi20(.L.str.201)
	addi.d	$a1, $a1, %pc_lo12(.L.str.201)
	ori	$a2, $zero, 10
	ld.d	$s4, $sp, 8                     # 8-byte Folded Reload
	ld.d	$s3, $sp, 16                    # 8-byte Folded Reload
	ld.d	$s2, $sp, 24                    # 8-byte Folded Reload
	ld.d	$s1, $sp, 32                    # 8-byte Folded Reload
	ld.d	$s0, $sp, 40                    # 8-byte Folded Reload
	ld.d	$fp, $sp, 48                    # 8-byte Folded Reload
	ld.d	$ra, $sp, 56                    # 8-byte Folded Reload
	addi.d	$sp, $sp, 64
	pcaddu18i	$t8, %call36(_ZSt16__ostream_insertIcSt11char_traitsIcEERSt13basic_ostreamIT_T0_ES6_PKS3_l)
	jr	$t8
.LBB4_17:                               # %_ZN9benchmark8internallsIA11_cEERNS0_7LogTypeES4_RKT_.exit
	ld.d	$s4, $sp, 8                     # 8-byte Folded Reload
	ld.d	$s3, $sp, 16                    # 8-byte Folded Reload
	ld.d	$s2, $sp, 24                    # 8-byte Folded Reload
	ld.d	$s1, $sp, 32                    # 8-byte Folded Reload
	ld.d	$s0, $sp, 40                    # 8-byte Folded Reload
	ld.d	$fp, $sp, 48                    # 8-byte Folded Reload
	ld.d	$ra, $sp, 56                    # 8-byte Folded Reload
	addi.d	$sp, $sp, 64
	ret
.LBB4_18:                               # %init.check.i
	pcalau12i	$a1, %pc_hi20(_ZGVZN9benchmark8internal19GetErrorLogInstanceEvE9error_log)
	addi.d	$a1, $a1, %pc_lo12(_ZGVZN9benchmark8internal19GetErrorLogInstanceEvE9error_log)
	move	$s2, $a0
	move	$a0, $a1
	move	$s3, $a2
	pcaddu18i	$ra, %call36(__cxa_guard_acquire)
	jirl	$ra, $ra, 0
	move	$a2, $s3
	move	$a1, $a0
	move	$a0, $s2
	addi.w	$a1, $a1, 0
	beqz	$a1, .LBB4_1
# %bb.19:                               # %init.i
	pcalau12i	$a0, %got_pc_hi20(_ZSt4clog)
	ld.d	$a0, $a0, %got_pc_lo12(_ZSt4clog)
	st.d	$a0, $s4, 0
	pcalau12i	$a0, %pc_hi20(_ZGVZN9benchmark8internal19GetErrorLogInstanceEvE9error_log)
	addi.d	$a0, $a0, %pc_lo12(_ZGVZN9benchmark8internal19GetErrorLogInstanceEvE9error_log)
	pcaddu18i	$ra, %call36(__cxa_guard_release)
	jirl	$ra, $ra, 0
	move	$a0, $s2
	move	$a2, $s3
	b	.LBB4_1
.Lfunc_end4:
	.size	_ZN9benchmark8internal12CheckHandlerC2EPKcS3_S3_i, .Lfunc_end4-_ZN9benchmark8internal12CheckHandlerC2EPKcS3_S3_i
	.cfi_endproc
                                        # -- End function
	.section	.text._ZN9benchmark8internal12CheckHandlerD2Ev,"axG",@progbits,_ZN9benchmark8internal12CheckHandlerD2Ev,comdat
	.hidden	_ZN9benchmark8internal12CheckHandlerD2Ev # -- Begin function _ZN9benchmark8internal12CheckHandlerD2Ev
	.weak	_ZN9benchmark8internal12CheckHandlerD2Ev
	.p2align	5
	.type	_ZN9benchmark8internal12CheckHandlerD2Ev,@function
_ZN9benchmark8internal12CheckHandlerD2Ev: # @_ZN9benchmark8internal12CheckHandlerD2Ev
	.cfi_startproc
# %bb.0:                                # %entry
	addi.d	$sp, $sp, -32
	.cfi_def_cfa_offset 32
	st.d	$ra, $sp, 24                    # 8-byte Folded Spill
	st.d	$fp, $sp, 16                    # 8-byte Folded Spill
	st.d	$s0, $sp, 8                     # 8-byte Folded Spill
	.cfi_offset 1, -8
	.cfi_offset 22, -16
	.cfi_offset 23, -24
	ld.d	$a0, $a0, 0
	ld.d	$fp, $a0, 0
	beqz	$fp, .LBB5_7
# %bb.1:                                # %if.then.i
	ld.d	$a0, $fp, 0
	ld.d	$a0, $a0, -24
	add.d	$a0, $fp, $a0
	ld.d	$s0, $a0, 240
	bnez	$s0, .LBB5_3
# %bb.2:                                # %if.then.i.i.i
	pcaddu18i	$ra, %call36(_ZSt16__throw_bad_castv)
	jirl	$ra, $ra, 0
.LBB5_3:                                # %_ZSt13__check_facetISt5ctypeIcEERKT_PS3_.exit.i.i
	ld.bu	$a0, $s0, 56
	bnez	$a0, .LBB5_5
# %bb.4:                                # %if.end.i.i.i
	move	$a0, $s0
	pcaddu18i	$ra, %call36(_ZNKSt5ctypeIcE13_M_widen_initEv)
	jirl	$ra, $ra, 0
	ld.d	$a0, $s0, 0
	ld.d	$a2, $a0, 48
	ori	$a1, $zero, 10
	move	$a0, $s0
	jirl	$ra, $a2, 0
	b	.LBB5_6
.LBB5_5:                                # %if.then.i2.i.i
	ld.bu	$a0, $s0, 67
.LBB5_6:                                # %_ZSt4endlIcSt11char_traitsIcEERSt13basic_ostreamIT_T0_ES6_.exit
	ext.w.b	$a1, $a0
	move	$a0, $fp
	pcaddu18i	$ra, %call36(_ZNSo3putEc)
	jirl	$ra, $ra, 0
	pcaddu18i	$ra, %call36(_ZNSo5flushEv)
	jirl	$ra, $ra, 0
.LBB5_7:                                # %_ZN9benchmark8internallsERNS0_7LogTypeEPFRSoS3_E.exit
	pcaddu18i	$ra, %call36(_ZN9benchmark8internal16CallAbortHandlerEv)
	jirl	$ra, $ra, 0
.Lfunc_end5:
	.size	_ZN9benchmark8internal12CheckHandlerD2Ev, .Lfunc_end5-_ZN9benchmark8internal12CheckHandlerD2Ev
	.cfi_endproc
                                        # -- End function
	.section	.text.__clang_call_terminate,"axG",@progbits,__clang_call_terminate,comdat
	.hidden	__clang_call_terminate          # -- Begin function __clang_call_terminate
	.weak	__clang_call_terminate
	.p2align	5
	.type	__clang_call_terminate,@function
__clang_call_terminate:                 # @__clang_call_terminate
# %bb.0:
	addi.d	$sp, $sp, -16
	st.d	$ra, $sp, 8                     # 8-byte Folded Spill
	pcaddu18i	$ra, %call36(__cxa_begin_catch)
	jirl	$ra, $ra, 0
	pcaddu18i	$ra, %call36(_ZSt9terminatev)
	jirl	$ra, $ra, 0
.Lfunc_end6:
	.size	__clang_call_terminate, .Lfunc_end6-__clang_call_terminate
                                        # -- End function
	.text
	.hidden	_Z33BM_Counters_WithBytesAndItemsPSecRN9benchmark5StateE # -- Begin function _Z33BM_Counters_WithBytesAndItemsPSecRN9benchmark5StateE
	.globl	_Z33BM_Counters_WithBytesAndItemsPSecRN9benchmark5StateE
	.p2align	5
	.type	_Z33BM_Counters_WithBytesAndItemsPSecRN9benchmark5StateE,@function
_Z33BM_Counters_WithBytesAndItemsPSecRN9benchmark5StateE: # @_Z33BM_Counters_WithBytesAndItemsPSecRN9benchmark5StateE
.Lfunc_begin2:
	.cfi_startproc
	.cfi_personality 155, DW.ref.__gxx_personality_v0
	.cfi_lsda 27, .Lexception2
# %bb.0:                                # %entry
	addi.d	$sp, $sp, -80
	.cfi_def_cfa_offset 80
	st.d	$ra, $sp, 72                    # 8-byte Folded Spill
	st.d	$fp, $sp, 64                    # 8-byte Folded Spill
	st.d	$s0, $sp, 56                    # 8-byte Folded Spill
	st.d	$s1, $sp, 48                    # 8-byte Folded Spill
	.cfi_offset 1, -8
	.cfi_offset 22, -16
	.cfi_offset 23, -24
	.cfi_offset 24, -32
	move	$fp, $a0
	ld.w	$s1, $a0, 28
	ld.d	$s0, $a0, 16
	pcaddu18i	$ra, %call36(_ZN9benchmark5State16StartKeepRunningEv)
	jirl	$ra, $ra, 0
	bnez	$s1, .LBB7_7
# %bb.1:                                # %entry
	beqz	$s0, .LBB7_7
# %bb.2:
	movgr2fr.d	$fa0, $zero
	addi.d	$a0, $sp, 8
	.p2align	4, , 16
.LBB7_3:                                # %for.body
                                        # =>This Inner Loop Header: Depth=1
	ld.bu	$a1, $fp, 24
	fmov.d	$fa1, $fa0
	beqz	$a1, .LBB7_5
# %bb.4:                                # %if.end.i20
                                        #   in Loop: Header=BB7_3 Depth=1
	ld.d	$a1, $fp, 16
	ld.d	$a2, $fp, 0
	ld.d	$a3, $fp, 8
	sub.d	$a1, $a1, $a2
	add.d	$a1, $a1, $a3
	movgr2fr.d	$fa1, $a1
	ffint.d.l	$fa1, $fa1
	fmul.d	$fa1, $fa1, $fa1
.LBB7_5:                                # %_ZNK9benchmark5State10iterationsEv.exit
                                        #   in Loop: Header=BB7_3 Depth=1
	fst.d	$fa1, $sp, 8
	#APP
	#NO_APP
	blez	$s0, .LBB7_22
# %bb.6:                                # %for.cond
                                        #   in Loop: Header=BB7_3 Depth=1
	addi.d	$s0, $s0, -1
	bnez	$s0, .LBB7_3
.LBB7_7:                                # %for.cond.cleanup
	move	$a0, $fp
	pcaddu18i	$ra, %call36(_ZN9benchmark5State17FinishKeepRunningEv)
	jirl	$ra, $ra, 0
	addi.d	$fp, $fp, 64
	addi.d	$s0, $sp, 24
	st.d	$s0, $sp, 8
	pcalau12i	$a0, %pc_hi20(.L.str.5)
	addi.d	$a0, $a0, %pc_lo12(.L.str.5)
	ld.h	$a1, $a0, 0
	ld.b	$a0, $a0, 2
	st.h	$a1, $sp, 24
	st.b	$a0, $sp, 26
	ori	$a0, $zero, 3
	st.d	$a0, $sp, 16
	st.b	$zero, $sp, 27
.Ltmp156:                               # EH_LABEL
	addi.d	$a1, $sp, 8
	move	$a0, $fp
	pcaddu18i	$ra, %call36(_ZNSt3mapINSt7__cxx1112basic_stringIcSt11char_traitsIcESaIcEEEN9benchmark7CounterESt4lessIS5_ESaISt4pairIKS5_S7_EEEixEOS5_)
	jirl	$ra, $ra, 0
.Ltmp157:                               # EH_LABEL
# %bb.8:                                # %invoke.cont11
	lu52i.d	$a1, $zero, 1023
	st.d	$a1, $a0, 0
	ld.d	$a2, $sp, 8
	ori	$a1, $zero, 0
	lu32i.d	$a1, 1000
	st.d	$a1, $a0, 8
	beq	$a2, $s0, .LBB7_10
# %bb.9:                                # %if.then.i.i50
	ld.d	$a0, $sp, 24
	addi.d	$a1, $a0, 1
	move	$a0, $a2
	pcaddu18i	$ra, %call36(_ZdlPvm)
	jirl	$ra, $ra, 0
.LBB7_10:                               # %_ZNSt7__cxx1112basic_stringIcSt11char_traitsIcESaIcEED2Ev.exit
	pcalau12i	$a0, %pc_hi20(_ZN12_GLOBAL__N_110num_calls1E)
	ld.w	$a1, $a0, %pc_lo12(_ZN12_GLOBAL__N_110num_calls1E)
	addi.w	$s1, $a1, 1
	st.w	$s1, $a0, %pc_lo12(_ZN12_GLOBAL__N_110num_calls1E)
	st.d	$s0, $sp, 8
	pcalau12i	$a0, %pc_hi20(.L.str.6)
	addi.d	$a0, $a0, %pc_lo12(.L.str.6)
	ld.h	$a1, $a0, 0
	ld.b	$a0, $a0, 2
	st.h	$a1, $sp, 24
	st.b	$a0, $sp, 26
	ori	$a0, $zero, 3
	st.d	$a0, $sp, 16
	st.b	$zero, $sp, 27
.Ltmp159:                               # EH_LABEL
	addi.d	$a1, $sp, 8
	move	$a0, $fp
	pcaddu18i	$ra, %call36(_ZNSt3mapINSt7__cxx1112basic_stringIcSt11char_traitsIcESaIcEEEN9benchmark7CounterESt4lessIS5_ESaISt4pairIKS5_S7_EEEixEOS5_)
	jirl	$ra, $ra, 0
.Ltmp160:                               # EH_LABEL
# %bb.11:                               # %invoke.cont24
	movgr2fr.w	$fa0, $s1
	ffint.d.w	$fa0, $fa0
	fst.d	$fa0, $a0, 0
	ld.d	$a2, $sp, 8
	ori	$a1, $zero, 0
	lu32i.d	$a1, 1000
	st.d	$a1, $a0, 8
	beq	$a2, $s0, .LBB7_13
# %bb.12:                               # %if.then.i.i66
	ld.d	$a0, $sp, 24
	addi.d	$a1, $a0, 1
	move	$a0, $a2
	pcaddu18i	$ra, %call36(_ZdlPvm)
	jirl	$ra, $ra, 0
.LBB7_13:                               # %_ZNSt7__cxx1112basic_stringIcSt11char_traitsIcESaIcEED2Ev.exit72
	st.d	$s0, $sp, 8
	ori	$a0, $zero, 16
	st.d	$a0, $sp, 40
.Ltmp162:                               # EH_LABEL
	addi.d	$a0, $sp, 8
	addi.d	$a1, $sp, 40
	move	$a2, $zero
	pcaddu18i	$ra, %call36(_ZNSt7__cxx1112basic_stringIcSt11char_traitsIcESaIcEE9_M_createERmm)
	jirl	$ra, $ra, 0
.Ltmp163:                               # EH_LABEL
# %bb.14:                               # %call2.i5.i.noexc83
	ld.d	$a1, $sp, 40
	pcalau12i	$a2, %pc_hi20(.L.str.62)
	vld	$vr0, $a2, %pc_lo12(.L.str.62)
	st.d	$a0, $sp, 8
	st.d	$a1, $sp, 24
	vst	$vr0, $a0, 0
	ld.d	$a0, $sp, 8
	st.d	$a1, $sp, 16
	stx.b	$zero, $a0, $a1
.Ltmp165:                               # EH_LABEL
	addi.d	$a1, $sp, 8
	move	$a0, $fp
	pcaddu18i	$ra, %call36(_ZNSt3mapINSt7__cxx1112basic_stringIcSt11char_traitsIcESaIcEEEN9benchmark7CounterESt4lessIS5_ESaISt4pairIKS5_S7_EEEixEOS5_)
	jirl	$ra, $ra, 0
.Ltmp166:                               # EH_LABEL
# %bb.15:                               # %_ZN9benchmark5State17SetBytesProcessedEl.exit
	ori	$a1, $zero, 0
	lu32i.d	$a1, 442368
	lu52i.d	$a1, $a1, 1031
	st.d	$a1, $a0, 0
	ld.d	$a2, $sp, 8
	ori	$a1, $zero, 1
	lu32i.d	$a1, 1024
	st.d	$a1, $a0, 8
	beq	$a2, $s0, .LBB7_17
# %bb.16:                               # %if.then.i.i95
	ld.d	$a0, $sp, 24
	addi.d	$a1, $a0, 1
	move	$a0, $a2
	pcaddu18i	$ra, %call36(_ZdlPvm)
	jirl	$ra, $ra, 0
.LBB7_17:                               # %_ZNSt7__cxx1112basic_stringIcSt11char_traitsIcESaIcEED2Ev.exit101
	st.d	$s0, $sp, 8
	ori	$a0, $zero, 16
	st.d	$a0, $sp, 40
.Ltmp168:                               # EH_LABEL
	addi.d	$a0, $sp, 8
	addi.d	$a1, $sp, 40
	move	$a2, $zero
	pcaddu18i	$ra, %call36(_ZNSt7__cxx1112basic_stringIcSt11char_traitsIcESaIcEE9_M_createERmm)
	jirl	$ra, $ra, 0
.Ltmp169:                               # EH_LABEL
# %bb.18:                               # %call2.i5.i.noexc112
	ld.d	$a1, $sp, 40
	pcalau12i	$a2, %pc_hi20(.L.str.64)
	vld	$vr0, $a2, %pc_lo12(.L.str.64)
	st.d	$a0, $sp, 8
	st.d	$a1, $sp, 24
	vst	$vr0, $a0, 0
	ld.d	$a0, $sp, 8
	st.d	$a1, $sp, 16
	stx.b	$zero, $a0, $a1
.Ltmp171:                               # EH_LABEL
	addi.d	$a1, $sp, 8
	move	$a0, $fp
	pcaddu18i	$ra, %call36(_ZNSt3mapINSt7__cxx1112basic_stringIcSt11char_traitsIcESaIcEEEN9benchmark7CounterESt4lessIS5_ESaISt4pairIKS5_S7_EEEixEOS5_)
	jirl	$ra, $ra, 0
.Ltmp172:                               # EH_LABEL
# %bb.19:                               # %_ZN9benchmark5State17SetItemsProcessedEl.exit
	ori	$a1, $zero, 0
	lu32i.d	$a1, 180224
	lu52i.d	$a1, $a1, 1030
	st.d	$a1, $a0, 0
	ld.d	$a2, $sp, 8
	ori	$a1, $zero, 1
	lu32i.d	$a1, 1000
	st.d	$a1, $a0, 8
	beq	$a2, $s0, .LBB7_21
# %bb.20:                               # %if.then.i.i124
	ld.d	$a0, $sp, 24
	addi.d	$a1, $a0, 1
	move	$a0, $a2
	pcaddu18i	$ra, %call36(_ZdlPvm)
	jirl	$ra, $ra, 0
.LBB7_21:                               # %_ZNSt7__cxx1112basic_stringIcSt11char_traitsIcESaIcEED2Ev.exit130
	ld.d	$s1, $sp, 48                    # 8-byte Folded Reload
	ld.d	$s0, $sp, 56                    # 8-byte Folded Reload
	ld.d	$fp, $sp, 64                    # 8-byte Folded Reload
	ld.d	$ra, $sp, 72                    # 8-byte Folded Reload
	addi.d	$sp, $sp, 80
	ret
.LBB7_22:                               # %cond.false.i
	pcalau12i	$a0, %pc_hi20(.L.str.198)
	addi.d	$a0, $a0, %pc_lo12(.L.str.198)
	pcalau12i	$a1, %pc_hi20(.L.str.199)
	addi.d	$a1, $a1, %pc_lo12(.L.str.199)
	pcalau12i	$a2, %pc_hi20(.L__PRETTY_FUNCTION__._ZN9benchmark5State13StateIteratorppEv)
	addi.d	$a3, $a2, %pc_lo12(.L__PRETTY_FUNCTION__._ZN9benchmark5State13StateIteratorppEv)
	ori	$a2, $zero, 1134
	pcaddu18i	$ra, %call36(__assert_fail)
	jirl	$ra, $ra, 0
.LBB7_23:                               # %lpad4.i41
.Ltmp173:                               # EH_LABEL
	b	.LBB7_29
.LBB7_24:                               # %lpad.i35
.Ltmp170:                               # EH_LABEL
	pcaddu18i	$ra, %call36(_Unwind_Resume)
	jirl	$ra, $ra, 0
.LBB7_25:                               # %lpad4.i
.Ltmp167:                               # EH_LABEL
	b	.LBB7_29
.LBB7_26:                               # %lpad.i
.Ltmp164:                               # EH_LABEL
	pcaddu18i	$ra, %call36(_Unwind_Resume)
	jirl	$ra, $ra, 0
.LBB7_27:                               # %lpad23
.Ltmp161:                               # EH_LABEL
	b	.LBB7_29
.LBB7_28:                               # %lpad10
.Ltmp158:                               # EH_LABEL
.LBB7_29:                               # %lpad10
	ld.d	$a2, $sp, 8
	move	$fp, $a0
	beq	$a2, $s0, .LBB7_31
# %bb.30:                               # %if.then.i.i132
	ld.d	$a0, $sp, 24
	addi.d	$a1, $a0, 1
	move	$a0, $a2
	pcaddu18i	$ra, %call36(_ZdlPvm)
	jirl	$ra, $ra, 0
.LBB7_31:                               # %common.resume
	move	$a0, $fp
	pcaddu18i	$ra, %call36(_Unwind_Resume)
	jirl	$ra, $ra, 0
.Lfunc_end7:
	.size	_Z33BM_Counters_WithBytesAndItemsPSecRN9benchmark5StateE, .Lfunc_end7-_Z33BM_Counters_WithBytesAndItemsPSecRN9benchmark5StateE
	.cfi_endproc
	.section	.gcc_except_table,"a",@progbits
	.p2align	2, 0x0
GCC_except_table7:
.Lexception2:
	.byte	255                             # @LPStart Encoding = omit
	.byte	255                             # @TType Encoding = omit
	.byte	1                               # Call site Encoding = uleb128
	.uleb128 .Lcst_end2-.Lcst_begin2
.Lcst_begin2:
	.uleb128 .Lfunc_begin2-.Lfunc_begin2    # >> Call Site 1 <<
	.uleb128 .Ltmp156-.Lfunc_begin2         #   Call between .Lfunc_begin2 and .Ltmp156
	.byte	0                               #     has no landing pad
	.byte	0                               #   On action: cleanup
	.uleb128 .Ltmp156-.Lfunc_begin2         # >> Call Site 2 <<
	.uleb128 .Ltmp157-.Ltmp156              #   Call between .Ltmp156 and .Ltmp157
	.uleb128 .Ltmp158-.Lfunc_begin2         #     jumps to .Ltmp158
	.byte	0                               #   On action: cleanup
	.uleb128 .Ltmp157-.Lfunc_begin2         # >> Call Site 3 <<
	.uleb128 .Ltmp159-.Ltmp157              #   Call between .Ltmp157 and .Ltmp159
	.byte	0                               #     has no landing pad
	.byte	0                               #   On action: cleanup
	.uleb128 .Ltmp159-.Lfunc_begin2         # >> Call Site 4 <<
	.uleb128 .Ltmp160-.Ltmp159              #   Call between .Ltmp159 and .Ltmp160
	.uleb128 .Ltmp161-.Lfunc_begin2         #     jumps to .Ltmp161
	.byte	0                               #   On action: cleanup
	.uleb128 .Ltmp160-.Lfunc_begin2         # >> Call Site 5 <<
	.uleb128 .Ltmp162-.Ltmp160              #   Call between .Ltmp160 and .Ltmp162
	.byte	0                               #     has no landing pad
	.byte	0                               #   On action: cleanup
	.uleb128 .Ltmp162-.Lfunc_begin2         # >> Call Site 6 <<
	.uleb128 .Ltmp163-.Ltmp162              #   Call between .Ltmp162 and .Ltmp163
	.uleb128 .Ltmp164-.Lfunc_begin2         #     jumps to .Ltmp164
	.byte	0                               #   On action: cleanup
	.uleb128 .Ltmp165-.Lfunc_begin2         # >> Call Site 7 <<
	.uleb128 .Ltmp166-.Ltmp165              #   Call between .Ltmp165 and .Ltmp166
	.uleb128 .Ltmp167-.Lfunc_begin2         #     jumps to .Ltmp167
	.byte	0                               #   On action: cleanup
	.uleb128 .Ltmp166-.Lfunc_begin2         # >> Call Site 8 <<
	.uleb128 .Ltmp168-.Ltmp166              #   Call between .Ltmp166 and .Ltmp168
	.byte	0                               #     has no landing pad
	.byte	0                               #   On action: cleanup
	.uleb128 .Ltmp168-.Lfunc_begin2         # >> Call Site 9 <<
	.uleb128 .Ltmp169-.Ltmp168              #   Call between .Ltmp168 and .Ltmp169
	.uleb128 .Ltmp170-.Lfunc_begin2         #     jumps to .Ltmp170
	.byte	0                               #   On action: cleanup
	.uleb128 .Ltmp171-.Lfunc_begin2         # >> Call Site 10 <<
	.uleb128 .Ltmp172-.Ltmp171              #   Call between .Ltmp171 and .Ltmp172
	.uleb128 .Ltmp173-.Lfunc_begin2         #     jumps to .Ltmp173
	.byte	0                               #   On action: cleanup
	.uleb128 .Ltmp172-.Lfunc_begin2         # >> Call Site 11 <<
	.uleb128 .Lfunc_end7-.Ltmp172           #   Call between .Ltmp172 and .Lfunc_end7
	.byte	0                               #     has no landing pad
	.byte	0                               #   On action: cleanup
.Lcst_end2:
	.p2align	2, 0x0
                                        # -- End function
	.section	.rodata.cst8,"aM",@progbits,8
	.p2align	3, 0x0                          # -- Begin function _Z22CheckBytesAndItemsPSecRK7Results
.LCPI8_0:
	.dword	0x4076c00000000000              # double 364
.LCPI8_1:
	.dword	0x3f50624dd2f1a9fc              # double 0.001
.LCPI8_2:
	.dword	0x3fb999999999999a              # double 0.10000000000000001
.LCPI8_3:
	.dword	0x3ee4f8b588e368f1              # double 1.0000000000000001E-5
.LCPI8_4:
	.dword	0x4059000000000000              # double 100
.LCPI8_5:
	.dword	0x4062c00000000000              # double 150
	.text
	.hidden	_Z22CheckBytesAndItemsPSecRK7Results
	.globl	_Z22CheckBytesAndItemsPSecRK7Results
	.p2align	5
	.type	_Z22CheckBytesAndItemsPSecRK7Results,@function
_Z22CheckBytesAndItemsPSecRK7Results:   # @_Z22CheckBytesAndItemsPSecRK7Results
.Lfunc_begin3:
	.cfi_startproc
	.cfi_personality 155, DW.ref.__gxx_personality_v0
	.cfi_lsda 27, .Lexception3
# %bb.0:                                # %entry
	addi.d	$sp, $sp, -320
	.cfi_def_cfa_offset 320
	st.d	$ra, $sp, 312                   # 8-byte Folded Spill
	st.d	$fp, $sp, 304                   # 8-byte Folded Spill
	st.d	$s0, $sp, 296                   # 8-byte Folded Spill
	st.d	$s1, $sp, 288                   # 8-byte Folded Spill
	st.d	$s2, $sp, 280                   # 8-byte Folded Spill
	st.d	$s3, $sp, 272                   # 8-byte Folded Spill
	st.d	$s4, $sp, 264                   # 8-byte Folded Spill
	st.d	$s5, $sp, 256                   # 8-byte Folded Spill
	st.d	$s6, $sp, 248                   # 8-byte Folded Spill
	st.d	$s7, $sp, 240                   # 8-byte Folded Spill
	fst.d	$fs0, $sp, 232                  # 8-byte Folded Spill
	fst.d	$fs1, $sp, 224                  # 8-byte Folded Spill
	fst.d	$fs2, $sp, 216                  # 8-byte Folded Spill
	fst.d	$fs3, $sp, 208                  # 8-byte Folded Spill
	fst.d	$fs4, $sp, 200                  # 8-byte Folded Spill
	.cfi_offset 1, -8
	.cfi_offset 22, -16
	.cfi_offset 23, -24
	.cfi_offset 24, -32
	.cfi_offset 25, -40
	.cfi_offset 26, -48
	.cfi_offset 27, -56
	.cfi_offset 28, -64
	.cfi_offset 29, -72
	.cfi_offset 30, -80
	.cfi_offset 56, -88
	.cfi_offset 57, -96
	.cfi_offset 58, -104
	.cfi_offset 59, -112
	.cfi_offset 60, -120
	move	$fp, $a0
	pcaddu18i	$ra, %call36(_ZNK7Results13NumIterationsEv)
	jirl	$ra, $ra, 0
	fmov.d	$fs0, $fa0
	move	$a0, $fp
	move	$a1, $zero
	pcaddu18i	$ra, %call36(_ZNK7Results7GetTimeENS_13BenchmarkTimeE)
	jirl	$ra, $ra, 0
	fmov.d	$fs1, $fa0
	addi.d	$s0, $sp, 176
	st.d	$s0, $sp, 160
	pcalau12i	$a0, %pc_hi20(.L.str.5)
	addi.d	$a0, $a0, %pc_lo12(.L.str.5)
	ld.h	$s4, $a0, 0
	ld.b	$s5, $a0, 2
	st.h	$s4, $sp, 176
	st.b	$s5, $sp, 178
	ori	$a0, $zero, 3
	st.d	$a0, $sp, 168
	st.b	$zero, $sp, 179
.Ltmp174:                               # EH_LABEL
	addi.d	$a1, $sp, 160
	move	$a0, $fp
	pcaddu18i	$ra, %call36(_ZNK7Results5GetAsIdEET_RKNSt7__cxx1112basic_stringIcSt11char_traitsIcESaIcEEE)
	jirl	$ra, $ra, 0
.Ltmp175:                               # EH_LABEL
# %bb.1:                                # %invoke.cont3
	ftintrz.w.d	$fa0, $fa0
	movfr2gr.s	$s2, $fa0
	ori	$a0, $zero, 1
	bne	$s2, $a0, .LBB8_5
# %bb.2:                                # %cond.true
	pcalau12i	$a0, %pc_hi20(_ZGVZN9benchmark8internal18GetNullLogInstanceEvE8null_log)
	ld.b	$a0, $a0, %pc_lo12(_ZGVZN9benchmark8internal18GetNullLogInstanceEvE8null_log)
	dbar	20
	pcalau12i	$a1, %pc_hi20(_ZZN9benchmark8internal18GetNullLogInstanceEvE8null_log)
	addi.d	$s3, $a1, %pc_lo12(_ZZN9benchmark8internal18GetNullLogInstanceEvE8null_log)
	bnez	$a0, .LBB8_7
# %bb.3:                                # %init.check.i
	pcalau12i	$a0, %pc_hi20(_ZGVZN9benchmark8internal18GetNullLogInstanceEvE8null_log)
	addi.d	$a0, $a0, %pc_lo12(_ZGVZN9benchmark8internal18GetNullLogInstanceEvE8null_log)
	pcaddu18i	$ra, %call36(__cxa_guard_acquire)
	jirl	$ra, $ra, 0
	addi.w	$a0, $a0, 0
	beqz	$a0, .LBB8_7
# %bb.4:                                # %init.i
	pcalau12i	$a0, %pc_hi20(_ZZN9benchmark8internal18GetNullLogInstanceEvE8null_log)
	addi.d	$s3, $a0, %pc_lo12(_ZZN9benchmark8internal18GetNullLogInstanceEvE8null_log)
	st.d	$zero, $s3, 0
	pcalau12i	$a0, %pc_hi20(_ZGVZN9benchmark8internal18GetNullLogInstanceEvE8null_log)
	addi.d	$a0, $a0, %pc_lo12(_ZGVZN9benchmark8internal18GetNullLogInstanceEvE8null_log)
	pcaddu18i	$ra, %call36(__cxa_guard_release)
	jirl	$ra, $ra, 0
	b	.LBB8_7
.LBB8_5:                                # %cond.false
.Ltmp177:                               # EH_LABEL
	pcalau12i	$a0, %pc_hi20(.L.str.29)
	addi.d	$a1, $a0, %pc_lo12(.L.str.29)
	pcalau12i	$a0, %pc_hi20(.L.str.30)
	addi.d	$a2, $a0, %pc_lo12(.L.str.30)
	pcalau12i	$a0, %pc_hi20(.L__func__._Z22CheckBytesAndItemsPSecRK7Results)
	addi.d	$a3, $a0, %pc_lo12(.L__func__._Z22CheckBytesAndItemsPSecRK7Results)
	addi.d	$a0, $sp, 152
	ori	$a4, $zero, 106
	pcaddu18i	$ra, %call36(_ZN9benchmark8internal12CheckHandlerC2EPKcS3_S3_i)
	jirl	$ra, $ra, 0
.Ltmp178:                               # EH_LABEL
# %bb.6:                                # %invoke.cont9
	ld.d	$s3, $sp, 152
.LBB8_7:                                # %cond.end
	ld.d	$a0, $s3, 0
	beqz	$a0, .LBB8_39
# %bb.8:                                # %if.then.i
.Ltmp179:                               # EH_LABEL
	pcalau12i	$a1, %pc_hi20(.L.str.31)
	addi.d	$a1, $a1, %pc_lo12(.L.str.31)
	ori	$a2, $zero, 1
	pcaddu18i	$ra, %call36(_ZSt16__ostream_insertIcSt11char_traitsIcEERSt13basic_ostreamIT_T0_ES6_PKS3_l)
	jirl	$ra, $ra, 0
.Ltmp180:                               # EH_LABEL
# %bb.9:                                # %invoke.cont14
	ld.d	$a0, $s3, 0
	beqz	$a0, .LBB8_39
# %bb.10:                               # %if.then.i94
.Ltmp181:                               # EH_LABEL
	pcalau12i	$a1, %pc_hi20(.L.str.30)
	addi.d	$a1, $a1, %pc_lo12(.L.str.30)
	ori	$a2, $zero, 86
	pcaddu18i	$ra, %call36(_ZSt16__ostream_insertIcSt11char_traitsIcEERSt13basic_ostreamIT_T0_ES6_PKS3_l)
	jirl	$ra, $ra, 0
.Ltmp182:                               # EH_LABEL
# %bb.11:                               # %invoke.cont16
	ld.d	$a0, $s3, 0
	beqz	$a0, .LBB8_39
# %bb.12:                               # %if.then.i99
.Ltmp183:                               # EH_LABEL
	pcalau12i	$a1, %pc_hi20(.L.str.32)
	addi.d	$a1, $a1, %pc_lo12(.L.str.32)
	ori	$a2, $zero, 1
	pcaddu18i	$ra, %call36(_ZSt16__ostream_insertIcSt11char_traitsIcEERSt13basic_ostreamIT_T0_ES6_PKS3_l)
	jirl	$ra, $ra, 0
.Ltmp184:                               # EH_LABEL
# %bb.13:                               # %invoke.cont18
	ld.d	$a0, $s3, 0
	beqz	$a0, .LBB8_39
# %bb.14:                               # %if.then.i105
.Ltmp186:                               # EH_LABEL
	ori	$a1, $zero, 106
	pcaddu18i	$ra, %call36(_ZNSolsEi)
	jirl	$ra, $ra, 0
.Ltmp187:                               # EH_LABEL
# %bb.15:                               # %invoke.cont22
	ld.d	$a0, $s3, 0
	beqz	$a0, .LBB8_39
# %bb.16:                               # %if.then.i109
.Ltmp188:                               # EH_LABEL
	pcalau12i	$a1, %pc_hi20(.L.str.33)
	addi.d	$a1, $a1, %pc_lo12(.L.str.33)
	ori	$a2, $zero, 2
	pcaddu18i	$ra, %call36(_ZSt16__ostream_insertIcSt11char_traitsIcEERSt13basic_ostreamIT_T0_ES6_PKS3_l)
	jirl	$ra, $ra, 0
.Ltmp189:                               # EH_LABEL
# %bb.17:                               # %invoke.cont24
	ld.d	$a0, $s3, 0
	beqz	$a0, .LBB8_39
# %bb.18:                               # %if.then.i114
	ld.d	$a1, $fp, 0
	ld.d	$a2, $fp, 8
.Ltmp190:                               # EH_LABEL
	pcaddu18i	$ra, %call36(_ZSt16__ostream_insertIcSt11char_traitsIcEERSt13basic_ostreamIT_T0_ES6_PKS3_l)
	jirl	$ra, $ra, 0
.Ltmp191:                               # EH_LABEL
# %bb.19:                               # %invoke.cont26
	ld.d	$a0, $s3, 0
	beqz	$a0, .LBB8_39
# %bb.20:                               # %if.then.i117
.Ltmp192:                               # EH_LABEL
	pcalau12i	$a1, %pc_hi20(.L.str.34)
	addi.d	$a1, $a1, %pc_lo12(.L.str.34)
	ori	$a2, $zero, 2
	pcaddu18i	$ra, %call36(_ZSt16__ostream_insertIcSt11char_traitsIcEERSt13basic_ostreamIT_T0_ES6_PKS3_l)
	jirl	$ra, $ra, 0
.Ltmp193:                               # EH_LABEL
# %bb.21:                               # %invoke.cont28
	ld.d	$a0, $s3, 0
	beqz	$a0, .LBB8_39
# %bb.22:                               # %if.then.i123
.Ltmp194:                               # EH_LABEL
	pcalau12i	$a1, %pc_hi20(.L.str.30)
	addi.d	$a1, $a1, %pc_lo12(.L.str.30)
	ori	$a2, $zero, 86
	pcaddu18i	$ra, %call36(_ZSt16__ostream_insertIcSt11char_traitsIcEERSt13basic_ostreamIT_T0_ES6_PKS3_l)
	jirl	$ra, $ra, 0
.Ltmp195:                               # EH_LABEL
# %bb.23:                               # %invoke.cont30
	ld.d	$a0, $s3, 0
	beqz	$a0, .LBB8_39
# %bb.24:                               # %if.then.i129
.Ltmp196:                               # EH_LABEL
	pcalau12i	$a1, %pc_hi20(.L.str.32)
	addi.d	$a1, $a1, %pc_lo12(.L.str.32)
	ori	$a2, $zero, 1
	pcaddu18i	$ra, %call36(_ZSt16__ostream_insertIcSt11char_traitsIcEERSt13basic_ostreamIT_T0_ES6_PKS3_l)
	jirl	$ra, $ra, 0
.Ltmp197:                               # EH_LABEL
# %bb.25:                               # %invoke.cont32
	ld.d	$a0, $s3, 0
	beqz	$a0, .LBB8_39
# %bb.26:                               # %if.then.i135
.Ltmp199:                               # EH_LABEL
	ori	$a1, $zero, 106
	pcaddu18i	$ra, %call36(_ZNSolsEi)
	jirl	$ra, $ra, 0
.Ltmp200:                               # EH_LABEL
# %bb.27:                               # %invoke.cont36
	ld.d	$a0, $s3, 0
	beqz	$a0, .LBB8_39
# %bb.28:                               # %if.then.i140
.Ltmp201:                               # EH_LABEL
	pcalau12i	$a1, %pc_hi20(.L.str.33)
	addi.d	$a1, $a1, %pc_lo12(.L.str.33)
	ori	$a2, $zero, 2
	pcaddu18i	$ra, %call36(_ZSt16__ostream_insertIcSt11char_traitsIcEERSt13basic_ostreamIT_T0_ES6_PKS3_l)
	jirl	$ra, $ra, 0
.Ltmp202:                               # EH_LABEL
# %bb.29:                               # %invoke.cont38
	ld.d	$a0, $s3, 0
	beqz	$a0, .LBB8_39
# %bb.30:                               # %if.then.i146
.Ltmp203:                               # EH_LABEL
	pcalau12i	$a1, %pc_hi20(.L.str.35)
	addi.d	$a1, $a1, %pc_lo12(.L.str.35)
	ori	$a2, $zero, 10
	pcaddu18i	$ra, %call36(_ZSt16__ostream_insertIcSt11char_traitsIcEERSt13basic_ostreamIT_T0_ES6_PKS3_l)
	jirl	$ra, $ra, 0
.Ltmp204:                               # EH_LABEL
# %bb.31:                               # %invoke.cont40
	ld.d	$a0, $s3, 0
	beqz	$a0, .LBB8_39
# %bb.32:                               # %if.then.i151
.Ltmp205:                               # EH_LABEL
	pcalau12i	$a1, %pc_hi20(.L.str.36)
	addi.d	$a1, $a1, %pc_lo12(.L.str.36)
	ori	$a2, $zero, 3
	pcaddu18i	$ra, %call36(_ZSt16__ostream_insertIcSt11char_traitsIcEERSt13basic_ostreamIT_T0_ES6_PKS3_l)
	jirl	$ra, $ra, 0
.Ltmp206:                               # EH_LABEL
# %bb.33:                               # %invoke.cont42
	ld.d	$a0, $s3, 0
	beqz	$a0, .LBB8_39
# %bb.34:                               # %if.then.i156
.Ltmp207:                               # EH_LABEL
	pcalau12i	$a1, %pc_hi20(.L.str.37)
	addi.d	$a1, $a1, %pc_lo12(.L.str.37)
	ori	$a2, $zero, 1
	pcaddu18i	$ra, %call36(_ZSt16__ostream_insertIcSt11char_traitsIcEERSt13basic_ostreamIT_T0_ES6_PKS3_l)
	jirl	$ra, $ra, 0
.Ltmp208:                               # EH_LABEL
# %bb.35:                               # %invoke.cont44
	ld.d	$a0, $s3, 0
	beqz	$a0, .LBB8_39
# %bb.36:                               # %if.then.i162
.Ltmp209:                               # EH_LABEL
	pcalau12i	$a1, %pc_hi20(.L.str.5)
	addi.d	$a1, $a1, %pc_lo12(.L.str.5)
	ori	$a2, $zero, 3
	pcaddu18i	$ra, %call36(_ZSt16__ostream_insertIcSt11char_traitsIcEERSt13basic_ostreamIT_T0_ES6_PKS3_l)
	jirl	$ra, $ra, 0
.Ltmp210:                               # EH_LABEL
# %bb.37:                               # %invoke.cont46
	ld.d	$a0, $s3, 0
	beqz	$a0, .LBB8_39
# %bb.38:                               # %if.then.i168
.Ltmp211:                               # EH_LABEL
	pcalau12i	$a1, %pc_hi20(.L.str.38)
	addi.d	$a1, $a1, %pc_lo12(.L.str.38)
	ori	$a2, $zero, 1
	pcaddu18i	$ra, %call36(_ZSt16__ostream_insertIcSt11char_traitsIcEERSt13basic_ostreamIT_T0_ES6_PKS3_l)
	jirl	$ra, $ra, 0
.Ltmp212:                               # EH_LABEL
.LBB8_39:                               # %invoke.cont48
	addi.d	$s1, $sp, 136
	st.d	$s1, $sp, 120
	st.h	$s4, $sp, 136
	st.b	$s5, $sp, 138
	ori	$a0, $zero, 3
	st.d	$a0, $sp, 128
	st.b	$zero, $sp, 139
.Ltmp214:                               # EH_LABEL
	addi.d	$a1, $sp, 120
	move	$a0, $fp
	pcaddu18i	$ra, %call36(_ZNK7Results5GetAsIdEET_RKNSt7__cxx1112basic_stringIcSt11char_traitsIcESaIcEEE)
	jirl	$ra, $ra, 0
.Ltmp215:                               # EH_LABEL
# %bb.40:                               # %invoke.cont56
	ld.d	$a0, $s3, 0
	beqz	$a0, .LBB8_48
# %bb.41:                               # %if.then.i190
	ftintrz.w.d	$fa0, $fa0
	movfr2gr.s	$a1, $fa0
.Ltmp216:                               # EH_LABEL
	pcaddu18i	$ra, %call36(_ZNSolsEi)
	jirl	$ra, $ra, 0
.Ltmp217:                               # EH_LABEL
# %bb.42:                               # %invoke.cont58
	ld.d	$a0, $s3, 0
	beqz	$a0, .LBB8_48
# %bb.43:                               # %if.then.i195
.Ltmp218:                               # EH_LABEL
	pcalau12i	$a1, %pc_hi20(.L.str.39)
	addi.d	$a1, $a1, %pc_lo12(.L.str.39)
	ori	$a2, $zero, 13
	pcaddu18i	$ra, %call36(_ZSt16__ostream_insertIcSt11char_traitsIcEERSt13basic_ostreamIT_T0_ES6_PKS3_l)
	jirl	$ra, $ra, 0
.Ltmp219:                               # EH_LABEL
# %bb.44:                               # %invoke.cont60
	ld.d	$a0, $s3, 0
	beqz	$a0, .LBB8_48
# %bb.45:                               # %if.then.i200
.Ltmp221:                               # EH_LABEL
	ori	$a1, $zero, 1
	pcaddu18i	$ra, %call36(_ZNSolsEi)
	jirl	$ra, $ra, 0
.Ltmp222:                               # EH_LABEL
# %bb.46:                               # %invoke.cont64
	ld.d	$a0, $s3, 0
	beqz	$a0, .LBB8_48
# %bb.47:                               # %if.then.i205
.Ltmp223:                               # EH_LABEL
	pcalau12i	$a1, %pc_hi20(.L.str.31)
	addi.d	$a1, $a1, %pc_lo12(.L.str.31)
	ori	$a2, $zero, 1
	pcaddu18i	$ra, %call36(_ZSt16__ostream_insertIcSt11char_traitsIcEERSt13basic_ostreamIT_T0_ES6_PKS3_l)
	jirl	$ra, $ra, 0
.Ltmp224:                               # EH_LABEL
.LBB8_48:                               # %invoke.cont66
	ld.d	$a0, $sp, 120
	beq	$a0, $s1, .LBB8_50
# %bb.49:                               # %if.then.i.i211
	ld.d	$a1, $sp, 136
	addi.d	$a1, $a1, 1
	pcaddu18i	$ra, %call36(_ZdlPvm)
	jirl	$ra, $ra, 0
.LBB8_50:                               # %_ZNSt7__cxx1112basic_stringIcSt11char_traitsIcESaIcEED2Ev.exit
	ori	$a0, $zero, 1
	bne	$s2, $a0, .LBB8_285
# %bb.51:                               # %cleanup.done82
	ld.d	$a0, $sp, 160
	beq	$a0, $s0, .LBB8_53
# %bb.52:                               # %if.then.i.i221
	ld.d	$a1, $sp, 176
	addi.d	$a1, $a1, 1
	pcaddu18i	$ra, %call36(_ZdlPvm)
	jirl	$ra, $ra, 0
.LBB8_53:                               # %_ZNSt7__cxx1112basic_stringIcSt11char_traitsIcESaIcEED2Ev.exit226
	st.d	$s0, $sp, 160
	pcalau12i	$a0, %pc_hi20(.L.str.6)
	addi.d	$a0, $a0, %pc_lo12(.L.str.6)
	ld.h	$s6, $a0, 0
	ld.b	$s7, $a0, 2
	st.h	$s6, $sp, 176
	st.b	$s7, $sp, 178
	ori	$a0, $zero, 3
	st.d	$a0, $sp, 168
	st.b	$zero, $sp, 179
.Ltmp229:                               # EH_LABEL
	addi.d	$a1, $sp, 160
	move	$a0, $fp
	pcaddu18i	$ra, %call36(_ZNK7Results5GetAsIdEET_RKNSt7__cxx1112basic_stringIcSt11char_traitsIcESaIcEEE)
	jirl	$ra, $ra, 0
.Ltmp230:                               # EH_LABEL
# %bb.54:                               # %invoke.cont96
	pcalau12i	$s4, %pc_hi20(_ZN12_GLOBAL__N_110num_calls1E)
	ld.w	$s2, $s4, %pc_lo12(_ZN12_GLOBAL__N_110num_calls1E)
	ftintrz.w.d	$fa0, $fa0
	movfr2gr.s	$s3, $fa0
	bne	$s2, $s3, .LBB8_58
# %bb.55:                               # %cond.true99
	pcalau12i	$a0, %pc_hi20(_ZGVZN9benchmark8internal18GetNullLogInstanceEvE8null_log)
	ld.b	$a0, $a0, %pc_lo12(_ZGVZN9benchmark8internal18GetNullLogInstanceEvE8null_log)
	dbar	20
	pcalau12i	$a1, %pc_hi20(_ZZN9benchmark8internal18GetNullLogInstanceEvE8null_log)
	addi.d	$s5, $a1, %pc_lo12(_ZZN9benchmark8internal18GetNullLogInstanceEvE8null_log)
	bnez	$a0, .LBB8_60
# %bb.56:                               # %init.check.i244
	pcalau12i	$a0, %pc_hi20(_ZGVZN9benchmark8internal18GetNullLogInstanceEvE8null_log)
	addi.d	$a0, $a0, %pc_lo12(_ZGVZN9benchmark8internal18GetNullLogInstanceEvE8null_log)
	pcaddu18i	$ra, %call36(__cxa_guard_acquire)
	jirl	$ra, $ra, 0
	addi.w	$a0, $a0, 0
	beqz	$a0, .LBB8_60
# %bb.57:                               # %init.i246
	pcalau12i	$a0, %pc_hi20(_ZZN9benchmark8internal18GetNullLogInstanceEvE8null_log)
	addi.d	$s5, $a0, %pc_lo12(_ZZN9benchmark8internal18GetNullLogInstanceEvE8null_log)
	st.d	$zero, $s5, 0
	pcalau12i	$a0, %pc_hi20(_ZGVZN9benchmark8internal18GetNullLogInstanceEvE8null_log)
	addi.d	$a0, $a0, %pc_lo12(_ZGVZN9benchmark8internal18GetNullLogInstanceEvE8null_log)
	pcaddu18i	$ra, %call36(__cxa_guard_release)
	jirl	$ra, $ra, 0
	b	.LBB8_60
.LBB8_58:                               # %cond.false102
.Ltmp232:                               # EH_LABEL
	pcalau12i	$a0, %pc_hi20(.L.str.61)
	addi.d	$a1, $a0, %pc_lo12(.L.str.61)
	pcalau12i	$a0, %pc_hi20(.L.str.30)
	addi.d	$a2, $a0, %pc_lo12(.L.str.30)
	pcalau12i	$a0, %pc_hi20(.L__func__._Z22CheckBytesAndItemsPSecRK7Results)
	addi.d	$a3, $a0, %pc_lo12(.L__func__._Z22CheckBytesAndItemsPSecRK7Results)
	addi.d	$a0, $sp, 112
	ori	$a4, $zero, 107
	pcaddu18i	$ra, %call36(_ZN9benchmark8internal12CheckHandlerC2EPKcS3_S3_i)
	jirl	$ra, $ra, 0
.Ltmp233:                               # EH_LABEL
# %bb.59:                               # %invoke.cont106
	ld.d	$s5, $sp, 112
.LBB8_60:                               # %cond.end111
	ld.d	$a0, $s5, 0
	beqz	$a0, .LBB8_92
# %bb.61:                               # %if.then.i249
.Ltmp234:                               # EH_LABEL
	pcalau12i	$a1, %pc_hi20(.L.str.31)
	addi.d	$a1, $a1, %pc_lo12(.L.str.31)
	ori	$a2, $zero, 1
	pcaddu18i	$ra, %call36(_ZSt16__ostream_insertIcSt11char_traitsIcEERSt13basic_ostreamIT_T0_ES6_PKS3_l)
	jirl	$ra, $ra, 0
.Ltmp235:                               # EH_LABEL
# %bb.62:                               # %invoke.cont113
	ld.d	$a0, $s5, 0
	beqz	$a0, .LBB8_92
# %bb.63:                               # %if.then.i255
.Ltmp236:                               # EH_LABEL
	pcalau12i	$a1, %pc_hi20(.L.str.30)
	addi.d	$a1, $a1, %pc_lo12(.L.str.30)
	ori	$a2, $zero, 86
	pcaddu18i	$ra, %call36(_ZSt16__ostream_insertIcSt11char_traitsIcEERSt13basic_ostreamIT_T0_ES6_PKS3_l)
	jirl	$ra, $ra, 0
.Ltmp237:                               # EH_LABEL
# %bb.64:                               # %invoke.cont115
	ld.d	$a0, $s5, 0
	beqz	$a0, .LBB8_92
# %bb.65:                               # %if.then.i261
.Ltmp238:                               # EH_LABEL
	pcalau12i	$a1, %pc_hi20(.L.str.32)
	addi.d	$a1, $a1, %pc_lo12(.L.str.32)
	ori	$a2, $zero, 1
	pcaddu18i	$ra, %call36(_ZSt16__ostream_insertIcSt11char_traitsIcEERSt13basic_ostreamIT_T0_ES6_PKS3_l)
	jirl	$ra, $ra, 0
.Ltmp239:                               # EH_LABEL
# %bb.66:                               # %invoke.cont117
	ld.d	$a0, $s5, 0
	beqz	$a0, .LBB8_92
# %bb.67:                               # %if.then.i267
.Ltmp241:                               # EH_LABEL
	ori	$a1, $zero, 107
	pcaddu18i	$ra, %call36(_ZNSolsEi)
	jirl	$ra, $ra, 0
.Ltmp242:                               # EH_LABEL
# %bb.68:                               # %invoke.cont121
	ld.d	$a0, $s5, 0
	beqz	$a0, .LBB8_92
# %bb.69:                               # %if.then.i272
.Ltmp243:                               # EH_LABEL
	pcalau12i	$a1, %pc_hi20(.L.str.33)
	addi.d	$a1, $a1, %pc_lo12(.L.str.33)
	ori	$a2, $zero, 2
	pcaddu18i	$ra, %call36(_ZSt16__ostream_insertIcSt11char_traitsIcEERSt13basic_ostreamIT_T0_ES6_PKS3_l)
	jirl	$ra, $ra, 0
.Ltmp244:                               # EH_LABEL
# %bb.70:                               # %invoke.cont123
	ld.d	$a0, $s5, 0
	beqz	$a0, .LBB8_92
# %bb.71:                               # %if.then.i278
	ld.d	$a1, $fp, 0
	ld.d	$a2, $fp, 8
.Ltmp245:                               # EH_LABEL
	pcaddu18i	$ra, %call36(_ZSt16__ostream_insertIcSt11char_traitsIcEERSt13basic_ostreamIT_T0_ES6_PKS3_l)
	jirl	$ra, $ra, 0
.Ltmp246:                               # EH_LABEL
# %bb.72:                               # %invoke.cont126
	ld.d	$a0, $s5, 0
	beqz	$a0, .LBB8_92
# %bb.73:                               # %if.then.i285
.Ltmp247:                               # EH_LABEL
	pcalau12i	$a1, %pc_hi20(.L.str.34)
	addi.d	$a1, $a1, %pc_lo12(.L.str.34)
	ori	$a2, $zero, 2
	pcaddu18i	$ra, %call36(_ZSt16__ostream_insertIcSt11char_traitsIcEERSt13basic_ostreamIT_T0_ES6_PKS3_l)
	jirl	$ra, $ra, 0
.Ltmp248:                               # EH_LABEL
# %bb.74:                               # %invoke.cont128
	ld.d	$a0, $s5, 0
	beqz	$a0, .LBB8_92
# %bb.75:                               # %if.then.i291
.Ltmp249:                               # EH_LABEL
	pcalau12i	$a1, %pc_hi20(.L.str.30)
	addi.d	$a1, $a1, %pc_lo12(.L.str.30)
	ori	$a2, $zero, 86
	pcaddu18i	$ra, %call36(_ZSt16__ostream_insertIcSt11char_traitsIcEERSt13basic_ostreamIT_T0_ES6_PKS3_l)
	jirl	$ra, $ra, 0
.Ltmp250:                               # EH_LABEL
# %bb.76:                               # %invoke.cont130
	ld.d	$a0, $s5, 0
	beqz	$a0, .LBB8_92
# %bb.77:                               # %if.then.i297
.Ltmp251:                               # EH_LABEL
	pcalau12i	$a1, %pc_hi20(.L.str.32)
	addi.d	$a1, $a1, %pc_lo12(.L.str.32)
	ori	$a2, $zero, 1
	pcaddu18i	$ra, %call36(_ZSt16__ostream_insertIcSt11char_traitsIcEERSt13basic_ostreamIT_T0_ES6_PKS3_l)
	jirl	$ra, $ra, 0
.Ltmp252:                               # EH_LABEL
# %bb.78:                               # %invoke.cont132
	ld.d	$a0, $s5, 0
	beqz	$a0, .LBB8_92
# %bb.79:                               # %if.then.i303
.Ltmp254:                               # EH_LABEL
	ori	$a1, $zero, 107
	pcaddu18i	$ra, %call36(_ZNSolsEi)
	jirl	$ra, $ra, 0
.Ltmp255:                               # EH_LABEL
# %bb.80:                               # %invoke.cont136
	ld.d	$a0, $s5, 0
	beqz	$a0, .LBB8_92
# %bb.81:                               # %if.then.i308
.Ltmp256:                               # EH_LABEL
	pcalau12i	$a1, %pc_hi20(.L.str.33)
	addi.d	$a1, $a1, %pc_lo12(.L.str.33)
	ori	$a2, $zero, 2
	pcaddu18i	$ra, %call36(_ZSt16__ostream_insertIcSt11char_traitsIcEERSt13basic_ostreamIT_T0_ES6_PKS3_l)
	jirl	$ra, $ra, 0
.Ltmp257:                               # EH_LABEL
# %bb.82:                               # %invoke.cont138
	ld.d	$a0, $s5, 0
	beqz	$a0, .LBB8_92
# %bb.83:                               # %if.then.i314
.Ltmp258:                               # EH_LABEL
	pcalau12i	$a1, %pc_hi20(.L.str.35)
	addi.d	$a1, $a1, %pc_lo12(.L.str.35)
	ori	$a2, $zero, 10
	pcaddu18i	$ra, %call36(_ZSt16__ostream_insertIcSt11char_traitsIcEERSt13basic_ostreamIT_T0_ES6_PKS3_l)
	jirl	$ra, $ra, 0
.Ltmp259:                               # EH_LABEL
# %bb.84:                               # %invoke.cont140
	ld.d	$a0, $s5, 0
	beqz	$a0, .LBB8_92
# %bb.85:                               # %if.then.i320
.Ltmp260:                               # EH_LABEL
	pcalau12i	$a1, %pc_hi20(.L.str.36)
	addi.d	$a1, $a1, %pc_lo12(.L.str.36)
	ori	$a2, $zero, 3
	pcaddu18i	$ra, %call36(_ZSt16__ostream_insertIcSt11char_traitsIcEERSt13basic_ostreamIT_T0_ES6_PKS3_l)
	jirl	$ra, $ra, 0
.Ltmp261:                               # EH_LABEL
# %bb.86:                               # %invoke.cont142
	ld.d	$a0, $s5, 0
	beqz	$a0, .LBB8_92
# %bb.87:                               # %if.then.i326
.Ltmp262:                               # EH_LABEL
	pcalau12i	$a1, %pc_hi20(.L.str.37)
	addi.d	$a1, $a1, %pc_lo12(.L.str.37)
	ori	$a2, $zero, 1
	pcaddu18i	$ra, %call36(_ZSt16__ostream_insertIcSt11char_traitsIcEERSt13basic_ostreamIT_T0_ES6_PKS3_l)
	jirl	$ra, $ra, 0
.Ltmp263:                               # EH_LABEL
# %bb.88:                               # %invoke.cont144
	ld.d	$a0, $s5, 0
	beqz	$a0, .LBB8_92
# %bb.89:                               # %if.then.i332
.Ltmp264:                               # EH_LABEL
	pcalau12i	$a1, %pc_hi20(.L.str.6)
	addi.d	$a1, $a1, %pc_lo12(.L.str.6)
	ori	$a2, $zero, 3
	pcaddu18i	$ra, %call36(_ZSt16__ostream_insertIcSt11char_traitsIcEERSt13basic_ostreamIT_T0_ES6_PKS3_l)
	jirl	$ra, $ra, 0
.Ltmp265:                               # EH_LABEL
# %bb.90:                               # %invoke.cont146
	ld.d	$a0, $s5, 0
	beqz	$a0, .LBB8_92
# %bb.91:                               # %if.then.i338
.Ltmp266:                               # EH_LABEL
	pcalau12i	$a1, %pc_hi20(.L.str.38)
	addi.d	$a1, $a1, %pc_lo12(.L.str.38)
	ori	$a2, $zero, 1
	pcaddu18i	$ra, %call36(_ZSt16__ostream_insertIcSt11char_traitsIcEERSt13basic_ostreamIT_T0_ES6_PKS3_l)
	jirl	$ra, $ra, 0
.Ltmp267:                               # EH_LABEL
.LBB8_92:                               # %invoke.cont148
	st.d	$s1, $sp, 120
	st.h	$s6, $sp, 136
	st.b	$s7, $sp, 138
	ori	$a0, $zero, 3
	st.d	$a0, $sp, 128
	st.b	$zero, $sp, 139
.Ltmp269:                               # EH_LABEL
	addi.d	$a1, $sp, 120
	move	$a0, $fp
	pcaddu18i	$ra, %call36(_ZNK7Results5GetAsIdEET_RKNSt7__cxx1112basic_stringIcSt11char_traitsIcESaIcEEE)
	jirl	$ra, $ra, 0
.Ltmp270:                               # EH_LABEL
# %bb.93:                               # %invoke.cont156
	ld.d	$a0, $s5, 0
	beqz	$a0, .LBB8_101
# %bb.94:                               # %if.then.i360
	ftintrz.w.d	$fa0, $fa0
	movfr2gr.s	$a1, $fa0
.Ltmp271:                               # EH_LABEL
	pcaddu18i	$ra, %call36(_ZNSolsEi)
	jirl	$ra, $ra, 0
.Ltmp272:                               # EH_LABEL
# %bb.95:                               # %invoke.cont158
	ld.d	$a0, $s5, 0
	beqz	$a0, .LBB8_101
# %bb.96:                               # %if.then.i365
.Ltmp273:                               # EH_LABEL
	pcalau12i	$a1, %pc_hi20(.L.str.39)
	addi.d	$a1, $a1, %pc_lo12(.L.str.39)
	ori	$a2, $zero, 13
	pcaddu18i	$ra, %call36(_ZSt16__ostream_insertIcSt11char_traitsIcEERSt13basic_ostreamIT_T0_ES6_PKS3_l)
	jirl	$ra, $ra, 0
.Ltmp274:                               # EH_LABEL
# %bb.97:                               # %invoke.cont160
	ld.d	$a0, $s5, 0
	beqz	$a0, .LBB8_101
# %bb.98:                               # %if.then.i371
	ld.w	$a1, $s4, %pc_lo12(_ZN12_GLOBAL__N_110num_calls1E)
.Ltmp275:                               # EH_LABEL
	pcaddu18i	$ra, %call36(_ZNSolsEi)
	jirl	$ra, $ra, 0
.Ltmp276:                               # EH_LABEL
# %bb.99:                               # %invoke.cont162
	ld.d	$a0, $s5, 0
	beqz	$a0, .LBB8_101
# %bb.100:                              # %if.then.i376
.Ltmp277:                               # EH_LABEL
	pcalau12i	$a1, %pc_hi20(.L.str.31)
	addi.d	$a1, $a1, %pc_lo12(.L.str.31)
	ori	$a2, $zero, 1
	pcaddu18i	$ra, %call36(_ZSt16__ostream_insertIcSt11char_traitsIcEERSt13basic_ostreamIT_T0_ES6_PKS3_l)
	jirl	$ra, $ra, 0
.Ltmp278:                               # EH_LABEL
.LBB8_101:                              # %invoke.cont164
	ld.d	$a0, $sp, 120
	beq	$a0, $s1, .LBB8_103
# %bb.102:                              # %if.then.i.i382
	ld.d	$a1, $sp, 136
	addi.d	$a1, $a1, 1
	pcaddu18i	$ra, %call36(_ZdlPvm)
	jirl	$ra, $ra, 0
.LBB8_103:                              # %_ZNSt7__cxx1112basic_stringIcSt11char_traitsIcESaIcEED2Ev.exit387
	bne	$s2, $s3, .LBB8_287
# %bb.104:                              # %cleanup.done184
	ld.d	$a0, $sp, 160
	beq	$a0, $s0, .LBB8_106
# %bb.105:                              # %if.then.i.i403
	ld.d	$a1, $sp, 176
	addi.d	$a1, $a1, 1
	pcaddu18i	$ra, %call36(_ZdlPvm)
	jirl	$ra, $ra, 0
.LBB8_106:                              # %_ZNSt7__cxx1112basic_stringIcSt11char_traitsIcESaIcEED2Ev.exit408
	st.d	$s0, $sp, 160
	ori	$a0, $zero, 16
	st.d	$a0, $sp, 120
.Ltmp283:                               # EH_LABEL
	addi.d	$a0, $sp, 160
	addi.d	$a1, $sp, 120
	move	$a2, $zero
	pcaddu18i	$ra, %call36(_ZNSt7__cxx1112basic_stringIcSt11char_traitsIcESaIcEE9_M_createERmm)
	jirl	$ra, $ra, 0
.Ltmp284:                               # EH_LABEL
# %bb.107:                              # %call2.i5.i.noexc418
	ld.d	$a1, $sp, 120
	pcalau12i	$s4, %pc_hi20(.L.str.62)
	vld	$vr0, $s4, %pc_lo12(.L.str.62)
	st.d	$a0, $sp, 160
	st.d	$a1, $sp, 176
	vst	$vr0, $a0, 0
	ld.d	$a0, $sp, 160
	st.d	$a1, $sp, 168
	stx.b	$zero, $a0, $a1
.Ltmp286:                               # EH_LABEL
	addi.d	$a1, $sp, 160
	move	$a0, $fp
	pcaddu18i	$ra, %call36(_ZNK7Results5GetAsIdEET_RKNSt7__cxx1112basic_stringIcSt11char_traitsIcESaIcEEE)
	jirl	$ra, $ra, 0
.Ltmp287:                               # EH_LABEL
# %bb.108:                              # %invoke.cont198
	pcalau12i	$a0, %pc_hi20(.LCPI8_0)
	fld.d	$fa1, $a0, %pc_lo12(.LCPI8_0)
	fmul.d	$fs2, $fs0, $fs1
	pcalau12i	$a0, %pc_hi20(.LCPI8_1)
	fld.d	$fs3, $a0, %pc_lo12(.LCPI8_1)
	fdiv.d	$fs1, $fa1, $fs2
	fsub.d	$fa0, $fa0, $fs1
	fabs.d	$fs4, $fa0
	fmul.d	$fs0, $fs1, $fs3
	fcmp.cule.d	$fcc0, $fs0, $fs4
	movcf2gr	$a0, $fcc0
	st.d	$a0, $sp, 24
	bceqz	$fcc0, .LBB8_111
# %bb.109:                              # %cond.false205
.Ltmp289:                               # EH_LABEL
	pcalau12i	$a0, %pc_hi20(.L.str.63)
	addi.d	$a1, $a0, %pc_lo12(.L.str.63)
	pcalau12i	$a0, %pc_hi20(.L.str.30)
	addi.d	$a2, $a0, %pc_lo12(.L.str.30)
	pcalau12i	$a0, %pc_hi20(.L__func__._Z22CheckBytesAndItemsPSecRK7Results)
	addi.d	$a3, $a0, %pc_lo12(.L__func__._Z22CheckBytesAndItemsPSecRK7Results)
	addi.d	$a0, $sp, 104
	ori	$a4, $zero, 109
	pcaddu18i	$ra, %call36(_ZN9benchmark8internal12CheckHandlerC2EPKcS3_S3_i)
	jirl	$ra, $ra, 0
.Ltmp290:                               # EH_LABEL
# %bb.110:                              # %invoke.cont209
	ld.d	$s6, $sp, 104
	b	.LBB8_112
.LBB8_111:                              # %cond.true202
	pcalau12i	$a0, %pc_hi20(_ZGVZN9benchmark8internal18GetNullLogInstanceEvE8null_log)
	ld.b	$a0, $a0, %pc_lo12(_ZGVZN9benchmark8internal18GetNullLogInstanceEvE8null_log)
	dbar	20
	pcalau12i	$a1, %pc_hi20(_ZZN9benchmark8internal18GetNullLogInstanceEvE8null_log)
	addi.d	$s6, $a1, %pc_lo12(_ZZN9benchmark8internal18GetNullLogInstanceEvE8null_log)
	beqz	$a0, .LBB8_293
.LBB8_112:                              # %cond.end214
	ld.d	$a0, $s6, 0
	beqz	$a0, .LBB8_144
# %bb.113:                              # %if.then.i427
.Ltmp291:                               # EH_LABEL
	pcalau12i	$a1, %pc_hi20(.L.str.31)
	addi.d	$a1, $a1, %pc_lo12(.L.str.31)
	ori	$a2, $zero, 1
	pcaddu18i	$ra, %call36(_ZSt16__ostream_insertIcSt11char_traitsIcEERSt13basic_ostreamIT_T0_ES6_PKS3_l)
	jirl	$ra, $ra, 0
.Ltmp292:                               # EH_LABEL
# %bb.114:                              # %invoke.cont216
	ld.d	$a0, $s6, 0
	beqz	$a0, .LBB8_144
# %bb.115:                              # %if.then.i433
.Ltmp293:                               # EH_LABEL
	pcalau12i	$a1, %pc_hi20(.L.str.30)
	addi.d	$a1, $a1, %pc_lo12(.L.str.30)
	ori	$a2, $zero, 86
	pcaddu18i	$ra, %call36(_ZSt16__ostream_insertIcSt11char_traitsIcEERSt13basic_ostreamIT_T0_ES6_PKS3_l)
	jirl	$ra, $ra, 0
.Ltmp294:                               # EH_LABEL
# %bb.116:                              # %invoke.cont218
	ld.d	$a0, $s6, 0
	beqz	$a0, .LBB8_144
# %bb.117:                              # %if.then.i439
.Ltmp295:                               # EH_LABEL
	pcalau12i	$a1, %pc_hi20(.L.str.32)
	addi.d	$a1, $a1, %pc_lo12(.L.str.32)
	ori	$a2, $zero, 1
	pcaddu18i	$ra, %call36(_ZSt16__ostream_insertIcSt11char_traitsIcEERSt13basic_ostreamIT_T0_ES6_PKS3_l)
	jirl	$ra, $ra, 0
.Ltmp296:                               # EH_LABEL
# %bb.118:                              # %invoke.cont220
	ld.d	$a0, $s6, 0
	beqz	$a0, .LBB8_144
# %bb.119:                              # %if.then.i445
.Ltmp298:                               # EH_LABEL
	ori	$a1, $zero, 109
	pcaddu18i	$ra, %call36(_ZNSolsEi)
	jirl	$ra, $ra, 0
.Ltmp299:                               # EH_LABEL
# %bb.120:                              # %invoke.cont224
	ld.d	$a0, $s6, 0
	beqz	$a0, .LBB8_144
# %bb.121:                              # %if.then.i450
.Ltmp300:                               # EH_LABEL
	pcalau12i	$a1, %pc_hi20(.L.str.33)
	addi.d	$a1, $a1, %pc_lo12(.L.str.33)
	ori	$a2, $zero, 2
	pcaddu18i	$ra, %call36(_ZSt16__ostream_insertIcSt11char_traitsIcEERSt13basic_ostreamIT_T0_ES6_PKS3_l)
	jirl	$ra, $ra, 0
.Ltmp301:                               # EH_LABEL
# %bb.122:                              # %invoke.cont226
	ld.d	$a0, $s6, 0
	beqz	$a0, .LBB8_144
# %bb.123:                              # %if.then.i456
	ld.d	$a1, $fp, 0
	ld.d	$a2, $fp, 8
.Ltmp302:                               # EH_LABEL
	pcaddu18i	$ra, %call36(_ZSt16__ostream_insertIcSt11char_traitsIcEERSt13basic_ostreamIT_T0_ES6_PKS3_l)
	jirl	$ra, $ra, 0
.Ltmp303:                               # EH_LABEL
# %bb.124:                              # %invoke.cont229
	ld.d	$a0, $s6, 0
	beqz	$a0, .LBB8_144
# %bb.125:                              # %if.then.i463
.Ltmp304:                               # EH_LABEL
	pcalau12i	$a1, %pc_hi20(.L.str.34)
	addi.d	$a1, $a1, %pc_lo12(.L.str.34)
	ori	$a2, $zero, 2
	pcaddu18i	$ra, %call36(_ZSt16__ostream_insertIcSt11char_traitsIcEERSt13basic_ostreamIT_T0_ES6_PKS3_l)
	jirl	$ra, $ra, 0
.Ltmp305:                               # EH_LABEL
# %bb.126:                              # %invoke.cont231
	ld.d	$a0, $s6, 0
	beqz	$a0, .LBB8_144
# %bb.127:                              # %if.then.i469
.Ltmp306:                               # EH_LABEL
	pcalau12i	$a1, %pc_hi20(.L.str.30)
	addi.d	$a1, $a1, %pc_lo12(.L.str.30)
	ori	$a2, $zero, 86
	pcaddu18i	$ra, %call36(_ZSt16__ostream_insertIcSt11char_traitsIcEERSt13basic_ostreamIT_T0_ES6_PKS3_l)
	jirl	$ra, $ra, 0
.Ltmp307:                               # EH_LABEL
# %bb.128:                              # %invoke.cont233
	ld.d	$a0, $s6, 0
	beqz	$a0, .LBB8_144
# %bb.129:                              # %if.then.i475
.Ltmp308:                               # EH_LABEL
	pcalau12i	$a1, %pc_hi20(.L.str.32)
	addi.d	$a1, $a1, %pc_lo12(.L.str.32)
	ori	$a2, $zero, 1
	pcaddu18i	$ra, %call36(_ZSt16__ostream_insertIcSt11char_traitsIcEERSt13basic_ostreamIT_T0_ES6_PKS3_l)
	jirl	$ra, $ra, 0
.Ltmp309:                               # EH_LABEL
# %bb.130:                              # %invoke.cont235
	ld.d	$a0, $s6, 0
	beqz	$a0, .LBB8_144
# %bb.131:                              # %if.then.i481
.Ltmp311:                               # EH_LABEL
	ori	$a1, $zero, 109
	pcaddu18i	$ra, %call36(_ZNSolsEi)
	jirl	$ra, $ra, 0
.Ltmp312:                               # EH_LABEL
# %bb.132:                              # %invoke.cont239
	ld.d	$a0, $s6, 0
	beqz	$a0, .LBB8_144
# %bb.133:                              # %if.then.i486
.Ltmp313:                               # EH_LABEL
	pcalau12i	$a1, %pc_hi20(.L.str.33)
	addi.d	$a1, $a1, %pc_lo12(.L.str.33)
	ori	$a2, $zero, 2
	pcaddu18i	$ra, %call36(_ZSt16__ostream_insertIcSt11char_traitsIcEERSt13basic_ostreamIT_T0_ES6_PKS3_l)
	jirl	$ra, $ra, 0
.Ltmp314:                               # EH_LABEL
# %bb.134:                              # %invoke.cont241
	ld.d	$a0, $s6, 0
	beqz	$a0, .LBB8_144
# %bb.135:                              # %if.then.i492
.Ltmp315:                               # EH_LABEL
	pcalau12i	$a1, %pc_hi20(.L.str.35)
	addi.d	$a1, $a1, %pc_lo12(.L.str.35)
	ori	$a2, $zero, 10
	pcaddu18i	$ra, %call36(_ZSt16__ostream_insertIcSt11char_traitsIcEERSt13basic_ostreamIT_T0_ES6_PKS3_l)
	jirl	$ra, $ra, 0
.Ltmp316:                               # EH_LABEL
# %bb.136:                              # %invoke.cont243
	ld.d	$a0, $s6, 0
	beqz	$a0, .LBB8_144
# %bb.137:                              # %if.then.i498
.Ltmp317:                               # EH_LABEL
	pcalau12i	$a1, %pc_hi20(.L.str.41)
	addi.d	$a1, $a1, %pc_lo12(.L.str.41)
	ori	$a2, $zero, 6
	pcaddu18i	$ra, %call36(_ZSt16__ostream_insertIcSt11char_traitsIcEERSt13basic_ostreamIT_T0_ES6_PKS3_l)
	jirl	$ra, $ra, 0
.Ltmp318:                               # EH_LABEL
# %bb.138:                              # %invoke.cont245
	ld.d	$a0, $s6, 0
	beqz	$a0, .LBB8_144
# %bb.139:                              # %if.then.i503
.Ltmp319:                               # EH_LABEL
	pcalau12i	$a1, %pc_hi20(.L.str.37)
	addi.d	$a1, $a1, %pc_lo12(.L.str.37)
	ori	$a2, $zero, 1
	pcaddu18i	$ra, %call36(_ZSt16__ostream_insertIcSt11char_traitsIcEERSt13basic_ostreamIT_T0_ES6_PKS3_l)
	jirl	$ra, $ra, 0
.Ltmp320:                               # EH_LABEL
# %bb.140:                              # %invoke.cont247
	ld.d	$a0, $s6, 0
	beqz	$a0, .LBB8_144
# %bb.141:                              # %if.then.i509
.Ltmp321:                               # EH_LABEL
	pcalau12i	$a1, %pc_hi20(.L.str.62)
	addi.d	$a1, $a1, %pc_lo12(.L.str.62)
	ori	$a2, $zero, 16
	pcaddu18i	$ra, %call36(_ZSt16__ostream_insertIcSt11char_traitsIcEERSt13basic_ostreamIT_T0_ES6_PKS3_l)
	jirl	$ra, $ra, 0
.Ltmp322:                               # EH_LABEL
# %bb.142:                              # %invoke.cont249
	ld.d	$a0, $s6, 0
	beqz	$a0, .LBB8_144
# %bb.143:                              # %if.then.i514
.Ltmp323:                               # EH_LABEL
	pcalau12i	$a1, %pc_hi20(.L.str.38)
	addi.d	$a1, $a1, %pc_lo12(.L.str.38)
	ori	$a2, $zero, 1
	pcaddu18i	$ra, %call36(_ZSt16__ostream_insertIcSt11char_traitsIcEERSt13basic_ostreamIT_T0_ES6_PKS3_l)
	jirl	$ra, $ra, 0
.Ltmp324:                               # EH_LABEL
.LBB8_144:                              # %invoke.cont251
	st.d	$s1, $sp, 120
	ori	$a0, $zero, 16
	st.d	$a0, $sp, 72
.Ltmp326:                               # EH_LABEL
	addi.d	$a0, $sp, 120
	addi.d	$a1, $sp, 72
	move	$a2, $zero
	pcaddu18i	$ra, %call36(_ZNSt7__cxx1112basic_stringIcSt11char_traitsIcESaIcEE9_M_createERmm)
	jirl	$ra, $ra, 0
.Ltmp327:                               # EH_LABEL
# %bb.145:                              # %call2.i5.i.noexc528
	ld.d	$a1, $sp, 72
	vld	$vr0, $s4, %pc_lo12(.L.str.62)
	st.d	$a0, $sp, 120
	st.d	$a1, $sp, 136
	vst	$vr0, $a0, 0
	ld.d	$a0, $sp, 120
	st.d	$a1, $sp, 128
	stx.b	$zero, $a0, $a1
.Ltmp329:                               # EH_LABEL
	addi.d	$a1, $sp, 120
	move	$a0, $fp
	pcaddu18i	$ra, %call36(_ZNK7Results5GetAsIdEET_RKNSt7__cxx1112basic_stringIcSt11char_traitsIcESaIcEEE)
	jirl	$ra, $ra, 0
.Ltmp330:                               # EH_LABEL
# %bb.146:                              # %invoke.cont259
	ld.d	$a0, $s6, 0
	beqz	$a0, .LBB8_174
# %bb.147:                              # %if.then.i532
.Ltmp331:                               # EH_LABEL
	pcaddu18i	$ra, %call36(_ZNSo9_M_insertIdEERSoT_)
	jirl	$ra, $ra, 0
.Ltmp332:                               # EH_LABEL
# %bb.148:                              # %invoke.cont261
	ld.d	$a0, $s6, 0
	beqz	$a0, .LBB8_174
# %bb.149:                              # %if.then.i536
.Ltmp333:                               # EH_LABEL
	pcalau12i	$a1, %pc_hi20(.L.str.39)
	addi.d	$a1, $a1, %pc_lo12(.L.str.39)
	ori	$a2, $zero, 13
	pcaddu18i	$ra, %call36(_ZSt16__ostream_insertIcSt11char_traitsIcEERSt13basic_ostreamIT_T0_ES6_PKS3_l)
	jirl	$ra, $ra, 0
.Ltmp334:                               # EH_LABEL
# %bb.150:                              # %invoke.cont263
	ld.d	$a0, $s6, 0
	beqz	$a0, .LBB8_174
# %bb.151:                              # %if.then.i542
.Ltmp336:                               # EH_LABEL
	fmov.d	$fa0, $fs1
	pcaddu18i	$ra, %call36(_ZNSo9_M_insertIdEERSoT_)
	jirl	$ra, $ra, 0
.Ltmp337:                               # EH_LABEL
# %bb.152:                              # %invoke.cont268
	ld.d	$a0, $s6, 0
	beqz	$a0, .LBB8_174
# %bb.153:                              # %if.then.i547
.Ltmp338:                               # EH_LABEL
	pcalau12i	$a1, %pc_hi20(.L.str.31)
	addi.d	$a1, $a1, %pc_lo12(.L.str.31)
	ori	$a2, $zero, 1
	pcaddu18i	$ra, %call36(_ZSt16__ostream_insertIcSt11char_traitsIcEERSt13basic_ostreamIT_T0_ES6_PKS3_l)
	jirl	$ra, $ra, 0
.Ltmp339:                               # EH_LABEL
# %bb.154:                              # %invoke.cont270
	ld.d	$a0, $s6, 0
	beqz	$a0, .LBB8_174
# %bb.155:                              # %if.then.i553
.Ltmp340:                               # EH_LABEL
	pcalau12i	$a1, %pc_hi20(.L.str.30)
	addi.d	$a1, $a1, %pc_lo12(.L.str.30)
	ori	$a2, $zero, 86
	pcaddu18i	$ra, %call36(_ZSt16__ostream_insertIcSt11char_traitsIcEERSt13basic_ostreamIT_T0_ES6_PKS3_l)
	jirl	$ra, $ra, 0
.Ltmp341:                               # EH_LABEL
# %bb.156:                              # %invoke.cont272
	ld.d	$a0, $s6, 0
	beqz	$a0, .LBB8_174
# %bb.157:                              # %if.then.i559
.Ltmp342:                               # EH_LABEL
	pcalau12i	$a1, %pc_hi20(.L.str.32)
	addi.d	$a1, $a1, %pc_lo12(.L.str.32)
	ori	$a2, $zero, 1
	pcaddu18i	$ra, %call36(_ZSt16__ostream_insertIcSt11char_traitsIcEERSt13basic_ostreamIT_T0_ES6_PKS3_l)
	jirl	$ra, $ra, 0
.Ltmp343:                               # EH_LABEL
# %bb.158:                              # %invoke.cont274
	ld.d	$a0, $s6, 0
	beqz	$a0, .LBB8_174
# %bb.159:                              # %if.then.i565
.Ltmp345:                               # EH_LABEL
	ori	$a1, $zero, 109
	pcaddu18i	$ra, %call36(_ZNSolsEi)
	jirl	$ra, $ra, 0
.Ltmp346:                               # EH_LABEL
# %bb.160:                              # %invoke.cont278
	ld.d	$a0, $s6, 0
	beqz	$a0, .LBB8_174
# %bb.161:                              # %if.then.i570
.Ltmp347:                               # EH_LABEL
	pcalau12i	$a1, %pc_hi20(.L.str.33)
	addi.d	$a1, $a1, %pc_lo12(.L.str.33)
	ori	$a2, $zero, 2
	pcaddu18i	$ra, %call36(_ZSt16__ostream_insertIcSt11char_traitsIcEERSt13basic_ostreamIT_T0_ES6_PKS3_l)
	jirl	$ra, $ra, 0
.Ltmp348:                               # EH_LABEL
# %bb.162:                              # %invoke.cont280
	ld.d	$a0, $s6, 0
	beqz	$a0, .LBB8_174
# %bb.163:                              # %if.then.i576
.Ltmp349:                               # EH_LABEL
	pcalau12i	$a1, %pc_hi20(.L.str.42)
	addi.d	$a1, $a1, %pc_lo12(.L.str.42)
	ori	$a2, $zero, 18
	pcaddu18i	$ra, %call36(_ZSt16__ostream_insertIcSt11char_traitsIcEERSt13basic_ostreamIT_T0_ES6_PKS3_l)
	jirl	$ra, $ra, 0
.Ltmp350:                               # EH_LABEL
# %bb.164:                              # %invoke.cont282
	ld.d	$a0, $s6, 0
	beqz	$a0, .LBB8_174
# %bb.165:                              # %if.then.i581
.Ltmp352:                               # EH_LABEL
	fmov.d	$fa0, $fs0
	pcaddu18i	$ra, %call36(_ZNSo9_M_insertIdEERSoT_)
	jirl	$ra, $ra, 0
.Ltmp353:                               # EH_LABEL
# %bb.166:                              # %invoke.cont288
	ld.d	$a0, $s6, 0
	beqz	$a0, .LBB8_174
# %bb.167:                              # %if.then.i586
.Ltmp354:                               # EH_LABEL
	pcalau12i	$a1, %pc_hi20(.L.str.43)
	addi.d	$a1, $a1, %pc_lo12(.L.str.43)
	ori	$a2, $zero, 2
	pcaddu18i	$ra, %call36(_ZSt16__ostream_insertIcSt11char_traitsIcEERSt13basic_ostreamIT_T0_ES6_PKS3_l)
	jirl	$ra, $ra, 0
.Ltmp355:                               # EH_LABEL
# %bb.168:                              # %invoke.cont290
	ld.d	$a0, $s6, 0
	beqz	$a0, .LBB8_174
# %bb.169:                              # %if.then.i592
.Ltmp357:                               # EH_LABEL
	pcalau12i	$a1, %pc_hi20(.LCPI8_2)
	fld.d	$fa0, $a1, %pc_lo12(.LCPI8_2)
	pcaddu18i	$ra, %call36(_ZNSo9_M_insertIdEERSoT_)
	jirl	$ra, $ra, 0
.Ltmp358:                               # EH_LABEL
# %bb.170:                              # %invoke.cont294
	ld.d	$a0, $s6, 0
	beqz	$a0, .LBB8_174
# %bb.171:                              # %if.then.i597
.Ltmp359:                               # EH_LABEL
	pcalau12i	$a1, %pc_hi20(.L.str.44)
	addi.d	$a1, $a1, %pc_lo12(.L.str.44)
	ori	$a2, $zero, 4
	pcaddu18i	$ra, %call36(_ZSt16__ostream_insertIcSt11char_traitsIcEERSt13basic_ostreamIT_T0_ES6_PKS3_l)
	jirl	$ra, $ra, 0
.Ltmp360:                               # EH_LABEL
# %bb.172:                              # %invoke.cont296
	ld.d	$a0, $s6, 0
	beqz	$a0, .LBB8_174
# %bb.173:                              # %if.then.i602
.Ltmp361:                               # EH_LABEL
	pcalau12i	$a1, %pc_hi20(.L.str.45)
	addi.d	$a1, $a1, %pc_lo12(.L.str.45)
	ori	$a2, $zero, 14
	pcaddu18i	$ra, %call36(_ZSt16__ostream_insertIcSt11char_traitsIcEERSt13basic_ostreamIT_T0_ES6_PKS3_l)
	jirl	$ra, $ra, 0
.Ltmp362:                               # EH_LABEL
.LBB8_174:                              # %invoke.cont298
	addi.d	$s2, $sp, 88
	st.d	$s2, $sp, 72
	ori	$a0, $zero, 16
	st.d	$a0, $sp, 40
.Ltmp364:                               # EH_LABEL
	addi.d	$a0, $sp, 72
	addi.d	$a1, $sp, 40
	move	$a2, $zero
	pcaddu18i	$ra, %call36(_ZNSt7__cxx1112basic_stringIcSt11char_traitsIcESaIcEE9_M_createERmm)
	jirl	$ra, $ra, 0
.Ltmp365:                               # EH_LABEL
# %bb.175:                              # %call2.i5.i.noexc615
	ld.d	$a1, $sp, 40
	vld	$vr0, $s4, %pc_lo12(.L.str.62)
	st.d	$a0, $sp, 72
	st.d	$a1, $sp, 88
	vst	$vr0, $a0, 0
	ld.d	$a0, $sp, 72
	st.d	$a1, $sp, 80
	stx.b	$zero, $a0, $a1
.Ltmp367:                               # EH_LABEL
	addi.d	$a1, $sp, 72
	move	$a0, $fp
	pcaddu18i	$ra, %call36(_ZNK7Results5GetAsIdEET_RKNSt7__cxx1112basic_stringIcSt11char_traitsIcESaIcEEE)
	jirl	$ra, $ra, 0
.Ltmp368:                               # EH_LABEL
# %bb.176:                              # %invoke.cont306
	ld.d	$a0, $s6, 0
	beqz	$a0, .LBB8_180
# %bb.177:                              # %if.then.i619
	fsub.d	$fa0, $fa0, $fs1
.Ltmp369:                               # EH_LABEL
	pcaddu18i	$ra, %call36(_ZNSo9_M_insertIdEERSoT_)
	jirl	$ra, $ra, 0
.Ltmp370:                               # EH_LABEL
# %bb.178:                              # %invoke.cont310
	ld.d	$a0, $s6, 0
	beqz	$a0, .LBB8_180
# %bb.179:                              # %if.then.i624
.Ltmp371:                               # EH_LABEL
	pcalau12i	$a1, %pc_hi20(.L.str.43)
	addi.d	$a1, $a1, %pc_lo12(.L.str.43)
	ori	$a2, $zero, 2
	pcaddu18i	$ra, %call36(_ZSt16__ostream_insertIcSt11char_traitsIcEERSt13basic_ostreamIT_T0_ES6_PKS3_l)
	jirl	$ra, $ra, 0
.Ltmp372:                               # EH_LABEL
.LBB8_180:                              # %invoke.cont312
	addi.d	$s3, $sp, 56
	st.d	$s3, $sp, 40
	ori	$a0, $zero, 16
	st.d	$a0, $sp, 192
.Ltmp374:                               # EH_LABEL
	addi.d	$a0, $sp, 40
	addi.d	$a1, $sp, 192
	move	$a2, $zero
	pcaddu18i	$ra, %call36(_ZNSt7__cxx1112basic_stringIcSt11char_traitsIcESaIcEE9_M_createERmm)
	jirl	$ra, $ra, 0
.Ltmp375:                               # EH_LABEL
# %bb.181:                              # %call2.i5.i.noexc638
	ld.d	$a1, $sp, 192
	vld	$vr0, $s4, %pc_lo12(.L.str.62)
	st.d	$a0, $sp, 40
	st.d	$a1, $sp, 56
	vst	$vr0, $a0, 0
	ld.d	$a0, $sp, 40
	st.d	$a1, $sp, 48
	stx.b	$zero, $a0, $a1
.Ltmp377:                               # EH_LABEL
	addi.d	$a1, $sp, 40
	move	$a0, $fp
	pcaddu18i	$ra, %call36(_ZNK7Results5GetAsIdEET_RKNSt7__cxx1112basic_stringIcSt11char_traitsIcESaIcEEE)
	jirl	$ra, $ra, 0
.Ltmp378:                               # EH_LABEL
# %bb.182:                              # %invoke.cont320
	ld.d	$a0, $s6, 0
	pcalau12i	$s5, %pc_hi20(.LCPI8_3)
	pcalau12i	$s4, %pc_hi20(.LCPI8_4)
	beqz	$a0, .LBB8_186
# %bb.183:                              # %if.then.i642
	fld.d	$fa1, $s5, %pc_lo12(.LCPI8_3)
	fsub.d	$fa0, $fa0, $fs1
	fabs.d	$fa2, $fs1
	fld.d	$fa3, $s4, %pc_lo12(.LCPI8_4)
	fcmp.clt.d	$fcc0, $fa1, $fa2
	fsel	$fa1, $fa1, $fs1, $fcc0
	fdiv.d	$fa0, $fa0, $fa1
	fmul.d	$fa0, $fa0, $fa3
.Ltmp379:                               # EH_LABEL
	pcaddu18i	$ra, %call36(_ZNSo9_M_insertIdEERSoT_)
	jirl	$ra, $ra, 0
.Ltmp380:                               # EH_LABEL
# %bb.184:                              # %invoke.cont335
	ld.d	$a0, $s6, 0
	beqz	$a0, .LBB8_186
# %bb.185:                              # %if.then.i647
.Ltmp381:                               # EH_LABEL
	pcalau12i	$a1, %pc_hi20(.L.str.46)
	addi.d	$a1, $a1, %pc_lo12(.L.str.46)
	ori	$a2, $zero, 2
	pcaddu18i	$ra, %call36(_ZSt16__ostream_insertIcSt11char_traitsIcEERSt13basic_ostreamIT_T0_ES6_PKS3_l)
	jirl	$ra, $ra, 0
.Ltmp382:                               # EH_LABEL
.LBB8_186:                              # %invoke.cont337
	ld.d	$a0, $sp, 40
	beq	$a0, $s3, .LBB8_188
# %bb.187:                              # %if.then.i.i653
	ld.d	$a1, $sp, 56
	addi.d	$a1, $a1, 1
	pcaddu18i	$ra, %call36(_ZdlPvm)
	jirl	$ra, $ra, 0
.LBB8_188:                              # %_ZNSt7__cxx1112basic_stringIcSt11char_traitsIcESaIcEED2Ev.exit658
	ld.d	$a0, $sp, 72
	beq	$a0, $s2, .LBB8_190
# %bb.189:                              # %if.then.i.i660
	ld.d	$a1, $sp, 88
	addi.d	$a1, $a1, 1
	pcaddu18i	$ra, %call36(_ZdlPvm)
	jirl	$ra, $ra, 0
.LBB8_190:                              # %_ZNSt7__cxx1112basic_stringIcSt11char_traitsIcESaIcEED2Ev.exit665
	ld.d	$a0, $sp, 120
	beq	$a0, $s1, .LBB8_192
# %bb.191:                              # %if.then.i.i667
	ld.d	$a1, $sp, 136
	addi.d	$a1, $a1, 1
	pcaddu18i	$ra, %call36(_ZdlPvm)
	jirl	$ra, $ra, 0
.LBB8_192:                              # %_ZNSt7__cxx1112basic_stringIcSt11char_traitsIcESaIcEED2Ev.exit672
	fcmp.clt.d	$fcc0, $fs4, $fs0
	bceqz	$fcc0, .LBB8_289
# %bb.193:                              # %cleanup.done371
	ld.d	$a0, $sp, 160
	beq	$a0, $s0, .LBB8_195
# %bb.194:                              # %if.then.i.i702
	ld.d	$a1, $sp, 176
	addi.d	$a1, $a1, 1
	pcaddu18i	$ra, %call36(_ZdlPvm)
	jirl	$ra, $ra, 0
.LBB8_195:                              # %_ZNSt7__cxx1112basic_stringIcSt11char_traitsIcESaIcEED2Ev.exit707
	st.d	$s0, $sp, 160
	ori	$a0, $zero, 16
	st.d	$a0, $sp, 120
.Ltmp384:                               # EH_LABEL
	addi.d	$a0, $sp, 160
	addi.d	$a1, $sp, 120
	move	$a2, $zero
	pcaddu18i	$ra, %call36(_ZNSt7__cxx1112basic_stringIcSt11char_traitsIcESaIcEE9_M_createERmm)
	jirl	$ra, $ra, 0
.Ltmp385:                               # EH_LABEL
# %bb.196:                              # %call2.i5.i.noexc717
	ld.d	$a1, $sp, 120
	pcalau12i	$s6, %pc_hi20(.L.str.64)
	vld	$vr0, $s6, %pc_lo12(.L.str.64)
	st.d	$a0, $sp, 160
	st.d	$a1, $sp, 176
	vst	$vr0, $a0, 0
	ld.d	$a0, $sp, 160
	st.d	$a1, $sp, 168
	stx.b	$zero, $a0, $a1
.Ltmp387:                               # EH_LABEL
	addi.d	$a1, $sp, 160
	move	$a0, $fp
	pcaddu18i	$ra, %call36(_ZNK7Results5GetAsIdEET_RKNSt7__cxx1112basic_stringIcSt11char_traitsIcESaIcEEE)
	jirl	$ra, $ra, 0
.Ltmp388:                               # EH_LABEL
# %bb.197:                              # %invoke.cont385
	pcalau12i	$a0, %pc_hi20(.LCPI8_5)
	fld.d	$fa1, $a0, %pc_lo12(.LCPI8_5)
	fdiv.d	$fs1, $fa1, $fs2
	fsub.d	$fa0, $fa0, $fs1
	fabs.d	$fs2, $fa0
	fmul.d	$fs0, $fs1, $fs3
	fcmp.cule.d	$fcc0, $fs0, $fs2
	bceqz	$fcc0, .LBB8_200
# %bb.198:                              # %cond.false395
.Ltmp390:                               # EH_LABEL
	pcalau12i	$a0, %pc_hi20(.L.str.65)
	addi.d	$a1, $a0, %pc_lo12(.L.str.65)
	pcalau12i	$a0, %pc_hi20(.L.str.30)
	addi.d	$a2, $a0, %pc_lo12(.L.str.30)
	pcalau12i	$a0, %pc_hi20(.L__func__._Z22CheckBytesAndItemsPSecRK7Results)
	addi.d	$a3, $a0, %pc_lo12(.L__func__._Z22CheckBytesAndItemsPSecRK7Results)
	addi.d	$a0, $sp, 32
	ori	$a4, $zero, 110
	pcaddu18i	$ra, %call36(_ZN9benchmark8internal12CheckHandlerC2EPKcS3_S3_i)
	jirl	$ra, $ra, 0
.Ltmp391:                               # EH_LABEL
# %bb.199:                              # %invoke.cont399
	ld.d	$s7, $sp, 32
	b	.LBB8_201
.LBB8_200:                              # %cond.true392
	pcalau12i	$a0, %pc_hi20(_ZGVZN9benchmark8internal18GetNullLogInstanceEvE8null_log)
	ld.b	$a0, $a0, %pc_lo12(_ZGVZN9benchmark8internal18GetNullLogInstanceEvE8null_log)
	dbar	20
	pcalau12i	$a1, %pc_hi20(_ZZN9benchmark8internal18GetNullLogInstanceEvE8null_log)
	addi.d	$s7, $a1, %pc_lo12(_ZZN9benchmark8internal18GetNullLogInstanceEvE8null_log)
	beqz	$a0, .LBB8_295
.LBB8_201:                              # %cond.end404
	ld.d	$a0, $s7, 0
	beqz	$a0, .LBB8_233
# %bb.202:                              # %if.then.i726
.Ltmp392:                               # EH_LABEL
	pcalau12i	$a1, %pc_hi20(.L.str.31)
	addi.d	$a1, $a1, %pc_lo12(.L.str.31)
	ori	$a2, $zero, 1
	pcaddu18i	$ra, %call36(_ZSt16__ostream_insertIcSt11char_traitsIcEERSt13basic_ostreamIT_T0_ES6_PKS3_l)
	jirl	$ra, $ra, 0
.Ltmp393:                               # EH_LABEL
# %bb.203:                              # %invoke.cont406
	ld.d	$a0, $s7, 0
	beqz	$a0, .LBB8_233
# %bb.204:                              # %if.then.i732
.Ltmp394:                               # EH_LABEL
	pcalau12i	$a1, %pc_hi20(.L.str.30)
	addi.d	$a1, $a1, %pc_lo12(.L.str.30)
	ori	$a2, $zero, 86
	pcaddu18i	$ra, %call36(_ZSt16__ostream_insertIcSt11char_traitsIcEERSt13basic_ostreamIT_T0_ES6_PKS3_l)
	jirl	$ra, $ra, 0
.Ltmp395:                               # EH_LABEL
# %bb.205:                              # %invoke.cont408
	ld.d	$a0, $s7, 0
	beqz	$a0, .LBB8_233
# %bb.206:                              # %if.then.i738
.Ltmp396:                               # EH_LABEL
	pcalau12i	$a1, %pc_hi20(.L.str.32)
	addi.d	$a1, $a1, %pc_lo12(.L.str.32)
	ori	$a2, $zero, 1
	pcaddu18i	$ra, %call36(_ZSt16__ostream_insertIcSt11char_traitsIcEERSt13basic_ostreamIT_T0_ES6_PKS3_l)
	jirl	$ra, $ra, 0
.Ltmp397:                               # EH_LABEL
# %bb.207:                              # %invoke.cont410
	ld.d	$a0, $s7, 0
	beqz	$a0, .LBB8_233
# %bb.208:                              # %if.then.i744
.Ltmp399:                               # EH_LABEL
	ori	$a1, $zero, 110
	pcaddu18i	$ra, %call36(_ZNSolsEi)
	jirl	$ra, $ra, 0
.Ltmp400:                               # EH_LABEL
# %bb.209:                              # %invoke.cont414
	ld.d	$a0, $s7, 0
	beqz	$a0, .LBB8_233
# %bb.210:                              # %if.then.i749
.Ltmp401:                               # EH_LABEL
	pcalau12i	$a1, %pc_hi20(.L.str.33)
	addi.d	$a1, $a1, %pc_lo12(.L.str.33)
	ori	$a2, $zero, 2
	pcaddu18i	$ra, %call36(_ZSt16__ostream_insertIcSt11char_traitsIcEERSt13basic_ostreamIT_T0_ES6_PKS3_l)
	jirl	$ra, $ra, 0
.Ltmp402:                               # EH_LABEL
# %bb.211:                              # %invoke.cont416
	ld.d	$a0, $s7, 0
	beqz	$a0, .LBB8_233
# %bb.212:                              # %if.then.i755
	ld.d	$a1, $fp, 0
	ld.d	$a2, $fp, 8
.Ltmp403:                               # EH_LABEL
	pcaddu18i	$ra, %call36(_ZSt16__ostream_insertIcSt11char_traitsIcEERSt13basic_ostreamIT_T0_ES6_PKS3_l)
	jirl	$ra, $ra, 0
.Ltmp404:                               # EH_LABEL
# %bb.213:                              # %invoke.cont419
	ld.d	$a0, $s7, 0
	beqz	$a0, .LBB8_233
# %bb.214:                              # %if.then.i762
.Ltmp405:                               # EH_LABEL
	pcalau12i	$a1, %pc_hi20(.L.str.34)
	addi.d	$a1, $a1, %pc_lo12(.L.str.34)
	ori	$a2, $zero, 2
	pcaddu18i	$ra, %call36(_ZSt16__ostream_insertIcSt11char_traitsIcEERSt13basic_ostreamIT_T0_ES6_PKS3_l)
	jirl	$ra, $ra, 0
.Ltmp406:                               # EH_LABEL
# %bb.215:                              # %invoke.cont421
	ld.d	$a0, $s7, 0
	beqz	$a0, .LBB8_233
# %bb.216:                              # %if.then.i768
.Ltmp407:                               # EH_LABEL
	pcalau12i	$a1, %pc_hi20(.L.str.30)
	addi.d	$a1, $a1, %pc_lo12(.L.str.30)
	ori	$a2, $zero, 86
	pcaddu18i	$ra, %call36(_ZSt16__ostream_insertIcSt11char_traitsIcEERSt13basic_ostreamIT_T0_ES6_PKS3_l)
	jirl	$ra, $ra, 0
.Ltmp408:                               # EH_LABEL
# %bb.217:                              # %invoke.cont423
	ld.d	$a0, $s7, 0
	beqz	$a0, .LBB8_233
# %bb.218:                              # %if.then.i774
.Ltmp409:                               # EH_LABEL
	pcalau12i	$a1, %pc_hi20(.L.str.32)
	addi.d	$a1, $a1, %pc_lo12(.L.str.32)
	ori	$a2, $zero, 1
	pcaddu18i	$ra, %call36(_ZSt16__ostream_insertIcSt11char_traitsIcEERSt13basic_ostreamIT_T0_ES6_PKS3_l)
	jirl	$ra, $ra, 0
.Ltmp410:                               # EH_LABEL
# %bb.219:                              # %invoke.cont425
	ld.d	$a0, $s7, 0
	beqz	$a0, .LBB8_233
# %bb.220:                              # %if.then.i780
.Ltmp412:                               # EH_LABEL
	ori	$a1, $zero, 110
	pcaddu18i	$ra, %call36(_ZNSolsEi)
	jirl	$ra, $ra, 0
.Ltmp413:                               # EH_LABEL
# %bb.221:                              # %invoke.cont429
	ld.d	$a0, $s7, 0
	beqz	$a0, .LBB8_233
# %bb.222:                              # %if.then.i785
.Ltmp414:                               # EH_LABEL
	pcalau12i	$a1, %pc_hi20(.L.str.33)
	addi.d	$a1, $a1, %pc_lo12(.L.str.33)
	ori	$a2, $zero, 2
	pcaddu18i	$ra, %call36(_ZSt16__ostream_insertIcSt11char_traitsIcEERSt13basic_ostreamIT_T0_ES6_PKS3_l)
	jirl	$ra, $ra, 0
.Ltmp415:                               # EH_LABEL
# %bb.223:                              # %invoke.cont431
	ld.d	$a0, $s7, 0
	beqz	$a0, .LBB8_233
# %bb.224:                              # %if.then.i791
.Ltmp416:                               # EH_LABEL
	pcalau12i	$a1, %pc_hi20(.L.str.35)
	addi.d	$a1, $a1, %pc_lo12(.L.str.35)
	ori	$a2, $zero, 10
	pcaddu18i	$ra, %call36(_ZSt16__ostream_insertIcSt11char_traitsIcEERSt13basic_ostreamIT_T0_ES6_PKS3_l)
	jirl	$ra, $ra, 0
.Ltmp417:                               # EH_LABEL
# %bb.225:                              # %invoke.cont433
	ld.d	$a0, $s7, 0
	beqz	$a0, .LBB8_233
# %bb.226:                              # %if.then.i797
.Ltmp418:                               # EH_LABEL
	pcalau12i	$a1, %pc_hi20(.L.str.41)
	addi.d	$a1, $a1, %pc_lo12(.L.str.41)
	ori	$a2, $zero, 6
	pcaddu18i	$ra, %call36(_ZSt16__ostream_insertIcSt11char_traitsIcEERSt13basic_ostreamIT_T0_ES6_PKS3_l)
	jirl	$ra, $ra, 0
.Ltmp419:                               # EH_LABEL
# %bb.227:                              # %invoke.cont435
	ld.d	$a0, $s7, 0
	beqz	$a0, .LBB8_233
# %bb.228:                              # %if.then.i803
.Ltmp420:                               # EH_LABEL
	pcalau12i	$a1, %pc_hi20(.L.str.37)
	addi.d	$a1, $a1, %pc_lo12(.L.str.37)
	ori	$a2, $zero, 1
	pcaddu18i	$ra, %call36(_ZSt16__ostream_insertIcSt11char_traitsIcEERSt13basic_ostreamIT_T0_ES6_PKS3_l)
	jirl	$ra, $ra, 0
.Ltmp421:                               # EH_LABEL
# %bb.229:                              # %invoke.cont437
	ld.d	$a0, $s7, 0
	beqz	$a0, .LBB8_233
# %bb.230:                              # %if.then.i809
.Ltmp422:                               # EH_LABEL
	pcalau12i	$a1, %pc_hi20(.L.str.64)
	addi.d	$a1, $a1, %pc_lo12(.L.str.64)
	ori	$a2, $zero, 16
	pcaddu18i	$ra, %call36(_ZSt16__ostream_insertIcSt11char_traitsIcEERSt13basic_ostreamIT_T0_ES6_PKS3_l)
	jirl	$ra, $ra, 0
.Ltmp423:                               # EH_LABEL
# %bb.231:                              # %invoke.cont439
	ld.d	$a0, $s7, 0
	beqz	$a0, .LBB8_233
# %bb.232:                              # %if.then.i815
.Ltmp424:                               # EH_LABEL
	pcalau12i	$a1, %pc_hi20(.L.str.38)
	addi.d	$a1, $a1, %pc_lo12(.L.str.38)
	ori	$a2, $zero, 1
	pcaddu18i	$ra, %call36(_ZSt16__ostream_insertIcSt11char_traitsIcEERSt13basic_ostreamIT_T0_ES6_PKS3_l)
	jirl	$ra, $ra, 0
.Ltmp425:                               # EH_LABEL
.LBB8_233:                              # %invoke.cont441
	st.d	$s1, $sp, 120
	ori	$a0, $zero, 16
	st.d	$a0, $sp, 72
.Ltmp427:                               # EH_LABEL
	addi.d	$a0, $sp, 120
	addi.d	$a1, $sp, 72
	move	$a2, $zero
	pcaddu18i	$ra, %call36(_ZNSt7__cxx1112basic_stringIcSt11char_traitsIcESaIcEE9_M_createERmm)
	jirl	$ra, $ra, 0
.Ltmp428:                               # EH_LABEL
# %bb.234:                              # %call2.i5.i.noexc829
	ld.d	$a1, $sp, 72
	vld	$vr0, $s6, %pc_lo12(.L.str.64)
	st.d	$a0, $sp, 120
	st.d	$a1, $sp, 136
	vst	$vr0, $a0, 0
	ld.d	$a0, $sp, 120
	st.d	$a1, $sp, 128
	stx.b	$zero, $a0, $a1
.Ltmp430:                               # EH_LABEL
	addi.d	$a1, $sp, 120
	move	$a0, $fp
	pcaddu18i	$ra, %call36(_ZNK7Results5GetAsIdEET_RKNSt7__cxx1112basic_stringIcSt11char_traitsIcESaIcEEE)
	jirl	$ra, $ra, 0
.Ltmp431:                               # EH_LABEL
# %bb.235:                              # %invoke.cont449
	ld.d	$a0, $s7, 0
	beqz	$a0, .LBB8_263
# %bb.236:                              # %if.then.i833
.Ltmp432:                               # EH_LABEL
	pcaddu18i	$ra, %call36(_ZNSo9_M_insertIdEERSoT_)
	jirl	$ra, $ra, 0
.Ltmp433:                               # EH_LABEL
# %bb.237:                              # %invoke.cont451
	ld.d	$a0, $s7, 0
	beqz	$a0, .LBB8_263
# %bb.238:                              # %if.then.i838
.Ltmp434:                               # EH_LABEL
	pcalau12i	$a1, %pc_hi20(.L.str.39)
	addi.d	$a1, $a1, %pc_lo12(.L.str.39)
	ori	$a2, $zero, 13
	pcaddu18i	$ra, %call36(_ZSt16__ostream_insertIcSt11char_traitsIcEERSt13basic_ostreamIT_T0_ES6_PKS3_l)
	jirl	$ra, $ra, 0
.Ltmp435:                               # EH_LABEL
# %bb.239:                              # %invoke.cont453
	ld.d	$a0, $s7, 0
	beqz	$a0, .LBB8_263
# %bb.240:                              # %if.then.i844
.Ltmp437:                               # EH_LABEL
	fmov.d	$fa0, $fs1
	pcaddu18i	$ra, %call36(_ZNSo9_M_insertIdEERSoT_)
	jirl	$ra, $ra, 0
.Ltmp438:                               # EH_LABEL
# %bb.241:                              # %invoke.cont458
	ld.d	$a0, $s7, 0
	beqz	$a0, .LBB8_263
# %bb.242:                              # %if.then.i849
.Ltmp439:                               # EH_LABEL
	pcalau12i	$a1, %pc_hi20(.L.str.31)
	addi.d	$a1, $a1, %pc_lo12(.L.str.31)
	ori	$a2, $zero, 1
	pcaddu18i	$ra, %call36(_ZSt16__ostream_insertIcSt11char_traitsIcEERSt13basic_ostreamIT_T0_ES6_PKS3_l)
	jirl	$ra, $ra, 0
.Ltmp440:                               # EH_LABEL
# %bb.243:                              # %invoke.cont460
	ld.d	$a0, $s7, 0
	beqz	$a0, .LBB8_263
# %bb.244:                              # %if.then.i855
.Ltmp441:                               # EH_LABEL
	pcalau12i	$a1, %pc_hi20(.L.str.30)
	addi.d	$a1, $a1, %pc_lo12(.L.str.30)
	ori	$a2, $zero, 86
	pcaddu18i	$ra, %call36(_ZSt16__ostream_insertIcSt11char_traitsIcEERSt13basic_ostreamIT_T0_ES6_PKS3_l)
	jirl	$ra, $ra, 0
.Ltmp442:                               # EH_LABEL
# %bb.245:                              # %invoke.cont462
	ld.d	$a0, $s7, 0
	beqz	$a0, .LBB8_263
# %bb.246:                              # %if.then.i861
.Ltmp443:                               # EH_LABEL
	pcalau12i	$a1, %pc_hi20(.L.str.32)
	addi.d	$a1, $a1, %pc_lo12(.L.str.32)
	ori	$a2, $zero, 1
	pcaddu18i	$ra, %call36(_ZSt16__ostream_insertIcSt11char_traitsIcEERSt13basic_ostreamIT_T0_ES6_PKS3_l)
	jirl	$ra, $ra, 0
.Ltmp444:                               # EH_LABEL
# %bb.247:                              # %invoke.cont464
	ld.d	$a0, $s7, 0
	beqz	$a0, .LBB8_263
# %bb.248:                              # %if.then.i867
.Ltmp446:                               # EH_LABEL
	ori	$a1, $zero, 110
	pcaddu18i	$ra, %call36(_ZNSolsEi)
	jirl	$ra, $ra, 0
.Ltmp447:                               # EH_LABEL
# %bb.249:                              # %invoke.cont468
	ld.d	$a0, $s7, 0
	beqz	$a0, .LBB8_263
# %bb.250:                              # %if.then.i872
.Ltmp448:                               # EH_LABEL
	pcalau12i	$a1, %pc_hi20(.L.str.33)
	addi.d	$a1, $a1, %pc_lo12(.L.str.33)
	ori	$a2, $zero, 2
	pcaddu18i	$ra, %call36(_ZSt16__ostream_insertIcSt11char_traitsIcEERSt13basic_ostreamIT_T0_ES6_PKS3_l)
	jirl	$ra, $ra, 0
.Ltmp449:                               # EH_LABEL
# %bb.251:                              # %invoke.cont470
	ld.d	$a0, $s7, 0
	beqz	$a0, .LBB8_263
# %bb.252:                              # %if.then.i878
.Ltmp450:                               # EH_LABEL
	pcalau12i	$a1, %pc_hi20(.L.str.42)
	addi.d	$a1, $a1, %pc_lo12(.L.str.42)
	ori	$a2, $zero, 18
	pcaddu18i	$ra, %call36(_ZSt16__ostream_insertIcSt11char_traitsIcEERSt13basic_ostreamIT_T0_ES6_PKS3_l)
	jirl	$ra, $ra, 0
.Ltmp451:                               # EH_LABEL
# %bb.253:                              # %invoke.cont472
	ld.d	$a0, $s7, 0
	beqz	$a0, .LBB8_263
# %bb.254:                              # %if.then.i884
.Ltmp453:                               # EH_LABEL
	fmov.d	$fa0, $fs0
	pcaddu18i	$ra, %call36(_ZNSo9_M_insertIdEERSoT_)
	jirl	$ra, $ra, 0
.Ltmp454:                               # EH_LABEL
# %bb.255:                              # %invoke.cont478
	ld.d	$a0, $s7, 0
	beqz	$a0, .LBB8_263
# %bb.256:                              # %if.then.i889
.Ltmp455:                               # EH_LABEL
	pcalau12i	$a1, %pc_hi20(.L.str.43)
	addi.d	$a1, $a1, %pc_lo12(.L.str.43)
	ori	$a2, $zero, 2
	pcaddu18i	$ra, %call36(_ZSt16__ostream_insertIcSt11char_traitsIcEERSt13basic_ostreamIT_T0_ES6_PKS3_l)
	jirl	$ra, $ra, 0
.Ltmp456:                               # EH_LABEL
# %bb.257:                              # %invoke.cont480
	ld.d	$a0, $s7, 0
	beqz	$a0, .LBB8_263
# %bb.258:                              # %if.then.i895
.Ltmp458:                               # EH_LABEL
	pcalau12i	$a1, %pc_hi20(.LCPI8_2)
	fld.d	$fa0, $a1, %pc_lo12(.LCPI8_2)
	pcaddu18i	$ra, %call36(_ZNSo9_M_insertIdEERSoT_)
	jirl	$ra, $ra, 0
.Ltmp459:                               # EH_LABEL
# %bb.259:                              # %invoke.cont484
	ld.d	$a0, $s7, 0
	beqz	$a0, .LBB8_263
# %bb.260:                              # %if.then.i900
.Ltmp460:                               # EH_LABEL
	pcalau12i	$a1, %pc_hi20(.L.str.44)
	addi.d	$a1, $a1, %pc_lo12(.L.str.44)
	ori	$a2, $zero, 4
	pcaddu18i	$ra, %call36(_ZSt16__ostream_insertIcSt11char_traitsIcEERSt13basic_ostreamIT_T0_ES6_PKS3_l)
	jirl	$ra, $ra, 0
.Ltmp461:                               # EH_LABEL
# %bb.261:                              # %invoke.cont486
	ld.d	$a0, $s7, 0
	beqz	$a0, .LBB8_263
# %bb.262:                              # %if.then.i906
.Ltmp462:                               # EH_LABEL
	pcalau12i	$a1, %pc_hi20(.L.str.45)
	addi.d	$a1, $a1, %pc_lo12(.L.str.45)
	ori	$a2, $zero, 14
	pcaddu18i	$ra, %call36(_ZSt16__ostream_insertIcSt11char_traitsIcEERSt13basic_ostreamIT_T0_ES6_PKS3_l)
	jirl	$ra, $ra, 0
.Ltmp463:                               # EH_LABEL
.LBB8_263:                              # %invoke.cont488
	st.d	$s2, $sp, 72
	ori	$a0, $zero, 16
	st.d	$a0, $sp, 40
.Ltmp465:                               # EH_LABEL
	addi.d	$a0, $sp, 72
	addi.d	$a1, $sp, 40
	move	$a2, $zero
	pcaddu18i	$ra, %call36(_ZNSt7__cxx1112basic_stringIcSt11char_traitsIcESaIcEE9_M_createERmm)
	jirl	$ra, $ra, 0
.Ltmp466:                               # EH_LABEL
# %bb.264:                              # %call2.i5.i.noexc920
	ld.d	$a1, $sp, 40
	vld	$vr0, $s6, %pc_lo12(.L.str.64)
	st.d	$a0, $sp, 72
	st.d	$a1, $sp, 88
	vst	$vr0, $a0, 0
	ld.d	$a0, $sp, 72
	st.d	$a1, $sp, 80
	stx.b	$zero, $a0, $a1
.Ltmp468:                               # EH_LABEL
	addi.d	$a1, $sp, 72
	move	$a0, $fp
	pcaddu18i	$ra, %call36(_ZNK7Results5GetAsIdEET_RKNSt7__cxx1112basic_stringIcSt11char_traitsIcESaIcEEE)
	jirl	$ra, $ra, 0
.Ltmp469:                               # EH_LABEL
# %bb.265:                              # %invoke.cont496
	ld.d	$a0, $s7, 0
	beqz	$a0, .LBB8_269
# %bb.266:                              # %if.then.i924
	fsub.d	$fa0, $fa0, $fs1
.Ltmp470:                               # EH_LABEL
	pcaddu18i	$ra, %call36(_ZNSo9_M_insertIdEERSoT_)
	jirl	$ra, $ra, 0
.Ltmp471:                               # EH_LABEL
# %bb.267:                              # %invoke.cont500
	ld.d	$a0, $s7, 0
	beqz	$a0, .LBB8_269
# %bb.268:                              # %if.then.i929
.Ltmp472:                               # EH_LABEL
	pcalau12i	$a1, %pc_hi20(.L.str.43)
	addi.d	$a1, $a1, %pc_lo12(.L.str.43)
	ori	$a2, $zero, 2
	pcaddu18i	$ra, %call36(_ZSt16__ostream_insertIcSt11char_traitsIcEERSt13basic_ostreamIT_T0_ES6_PKS3_l)
	jirl	$ra, $ra, 0
.Ltmp473:                               # EH_LABEL
.LBB8_269:                              # %invoke.cont502
	st.d	$s3, $sp, 40
	ori	$a0, $zero, 16
	st.d	$a0, $sp, 192
.Ltmp475:                               # EH_LABEL
	addi.d	$a0, $sp, 40
	addi.d	$a1, $sp, 192
	move	$a2, $zero
	pcaddu18i	$ra, %call36(_ZNSt7__cxx1112basic_stringIcSt11char_traitsIcESaIcEE9_M_createERmm)
	jirl	$ra, $ra, 0
.Ltmp476:                               # EH_LABEL
# %bb.270:                              # %call2.i5.i.noexc943
	ld.d	$a1, $sp, 192
	vld	$vr0, $s6, %pc_lo12(.L.str.64)
	st.d	$a0, $sp, 40
	st.d	$a1, $sp, 56
	vst	$vr0, $a0, 0
	ld.d	$a0, $sp, 40
	st.d	$a1, $sp, 48
	stx.b	$zero, $a0, $a1
.Ltmp478:                               # EH_LABEL
	addi.d	$a1, $sp, 40
	move	$a0, $fp
	pcaddu18i	$ra, %call36(_ZNK7Results5GetAsIdEET_RKNSt7__cxx1112basic_stringIcSt11char_traitsIcESaIcEEE)
	jirl	$ra, $ra, 0
.Ltmp479:                               # EH_LABEL
# %bb.271:                              # %invoke.cont510
	ld.d	$a0, $s7, 0
	beqz	$a0, .LBB8_275
# %bb.272:                              # %if.then.i947
	fld.d	$fa1, $s5, %pc_lo12(.LCPI8_3)
	fsub.d	$fa0, $fa0, $fs1
	fabs.d	$fa2, $fs1
	fld.d	$fa3, $s4, %pc_lo12(.LCPI8_4)
	fcmp.clt.d	$fcc0, $fa1, $fa2
	fsel	$fa1, $fa1, $fs1, $fcc0
	fdiv.d	$fa0, $fa0, $fa1
	fmul.d	$fa0, $fa0, $fa3
.Ltmp480:                               # EH_LABEL
	pcaddu18i	$ra, %call36(_ZNSo9_M_insertIdEERSoT_)
	jirl	$ra, $ra, 0
.Ltmp481:                               # EH_LABEL
# %bb.273:                              # %invoke.cont526
	ld.d	$a0, $s7, 0
	beqz	$a0, .LBB8_275
# %bb.274:                              # %if.then.i952
.Ltmp482:                               # EH_LABEL
	pcalau12i	$a1, %pc_hi20(.L.str.46)
	addi.d	$a1, $a1, %pc_lo12(.L.str.46)
	ori	$a2, $zero, 2
	pcaddu18i	$ra, %call36(_ZSt16__ostream_insertIcSt11char_traitsIcEERSt13basic_ostreamIT_T0_ES6_PKS3_l)
	jirl	$ra, $ra, 0
.Ltmp483:                               # EH_LABEL
.LBB8_275:                              # %invoke.cont528
	ld.d	$a0, $sp, 40
	beq	$a0, $s3, .LBB8_277
# %bb.276:                              # %if.then.i.i958
	ld.d	$a1, $sp, 56
	addi.d	$a1, $a1, 1
	pcaddu18i	$ra, %call36(_ZdlPvm)
	jirl	$ra, $ra, 0
.LBB8_277:                              # %_ZNSt7__cxx1112basic_stringIcSt11char_traitsIcESaIcEED2Ev.exit963
	ld.d	$a0, $sp, 72
	beq	$a0, $s2, .LBB8_279
# %bb.278:                              # %if.then.i.i965
	ld.d	$a1, $sp, 88
	addi.d	$a1, $a1, 1
	pcaddu18i	$ra, %call36(_ZdlPvm)
	jirl	$ra, $ra, 0
.LBB8_279:                              # %_ZNSt7__cxx1112basic_stringIcSt11char_traitsIcESaIcEED2Ev.exit970
	ld.d	$a0, $sp, 120
	beq	$a0, $s1, .LBB8_281
# %bb.280:                              # %if.then.i.i972
	ld.d	$a1, $sp, 136
	addi.d	$a1, $a1, 1
	pcaddu18i	$ra, %call36(_ZdlPvm)
	jirl	$ra, $ra, 0
.LBB8_281:                              # %_ZNSt7__cxx1112basic_stringIcSt11char_traitsIcESaIcEED2Ev.exit977
	fcmp.clt.d	$fcc0, $fs2, $fs0
	bceqz	$fcc0, .LBB8_291
# %bb.282:                              # %cleanup.done562
	ld.d	$a0, $sp, 160
	beq	$a0, $s0, .LBB8_284
# %bb.283:                              # %if.then.i.i1007
	ld.d	$a1, $sp, 176
	addi.d	$a1, $a1, 1
	pcaddu18i	$ra, %call36(_ZdlPvm)
	jirl	$ra, $ra, 0
.LBB8_284:                              # %_ZNSt7__cxx1112basic_stringIcSt11char_traitsIcESaIcEED2Ev.exit1012
	fld.d	$fs4, $sp, 200                  # 8-byte Folded Reload
	fld.d	$fs3, $sp, 208                  # 8-byte Folded Reload
	fld.d	$fs2, $sp, 216                  # 8-byte Folded Reload
	fld.d	$fs1, $sp, 224                  # 8-byte Folded Reload
	fld.d	$fs0, $sp, 232                  # 8-byte Folded Reload
	ld.d	$s7, $sp, 240                   # 8-byte Folded Reload
	ld.d	$s6, $sp, 248                   # 8-byte Folded Reload
	ld.d	$s5, $sp, 256                   # 8-byte Folded Reload
	ld.d	$s4, $sp, 264                   # 8-byte Folded Reload
	ld.d	$s3, $sp, 272                   # 8-byte Folded Reload
	ld.d	$s2, $sp, 280                   # 8-byte Folded Reload
	ld.d	$s1, $sp, 288                   # 8-byte Folded Reload
	ld.d	$s0, $sp, 296                   # 8-byte Folded Reload
	ld.d	$fp, $sp, 304                   # 8-byte Folded Reload
	ld.d	$ra, $sp, 312                   # 8-byte Folded Reload
	addi.d	$sp, $sp, 320
	ret
.LBB8_285:                              # %cleanup.action
.Ltmp226:                               # EH_LABEL
	addi.d	$a0, $sp, 152
	pcaddu18i	$ra, %call36(_ZN9benchmark8internal12CheckHandlerD2Ev)
	jirl	$ra, $ra, 0
.Ltmp227:                               # EH_LABEL
# %bb.286:                              # %invoke.cont74
.LBB8_287:                              # %cleanup.action174
.Ltmp280:                               # EH_LABEL
	addi.d	$a0, $sp, 112
	pcaddu18i	$ra, %call36(_ZN9benchmark8internal12CheckHandlerD2Ev)
	jirl	$ra, $ra, 0
.Ltmp281:                               # EH_LABEL
# %bb.288:                              # %invoke.cont175
.LBB8_289:                              # %cleanup.action361
.Ltmp491:                               # EH_LABEL
	addi.d	$a0, $sp, 104
	pcaddu18i	$ra, %call36(_ZN9benchmark8internal12CheckHandlerD2Ev)
	jirl	$ra, $ra, 0
.Ltmp492:                               # EH_LABEL
# %bb.290:                              # %invoke.cont362
.LBB8_291:                              # %cleanup.action552
.Ltmp488:                               # EH_LABEL
	addi.d	$a0, $sp, 32
	pcaddu18i	$ra, %call36(_ZN9benchmark8internal12CheckHandlerD2Ev)
	jirl	$ra, $ra, 0
.Ltmp489:                               # EH_LABEL
# %bb.292:                              # %invoke.cont553
.LBB8_293:                              # %init.check.i422
	pcalau12i	$a0, %pc_hi20(_ZGVZN9benchmark8internal18GetNullLogInstanceEvE8null_log)
	addi.d	$a0, $a0, %pc_lo12(_ZGVZN9benchmark8internal18GetNullLogInstanceEvE8null_log)
	pcaddu18i	$ra, %call36(__cxa_guard_acquire)
	jirl	$ra, $ra, 0
	addi.w	$a0, $a0, 0
	beqz	$a0, .LBB8_112
# %bb.294:                              # %init.i424
	pcalau12i	$a0, %pc_hi20(_ZZN9benchmark8internal18GetNullLogInstanceEvE8null_log)
	addi.d	$s6, $a0, %pc_lo12(_ZZN9benchmark8internal18GetNullLogInstanceEvE8null_log)
	st.d	$zero, $s6, 0
	pcalau12i	$a0, %pc_hi20(_ZGVZN9benchmark8internal18GetNullLogInstanceEvE8null_log)
	addi.d	$a0, $a0, %pc_lo12(_ZGVZN9benchmark8internal18GetNullLogInstanceEvE8null_log)
	pcaddu18i	$ra, %call36(__cxa_guard_release)
	jirl	$ra, $ra, 0
	b	.LBB8_112
.LBB8_295:                              # %init.check.i721
	pcalau12i	$a0, %pc_hi20(_ZGVZN9benchmark8internal18GetNullLogInstanceEvE8null_log)
	addi.d	$a0, $a0, %pc_lo12(_ZGVZN9benchmark8internal18GetNullLogInstanceEvE8null_log)
	pcaddu18i	$ra, %call36(__cxa_guard_acquire)
	jirl	$ra, $ra, 0
	addi.w	$a0, $a0, 0
	beqz	$a0, .LBB8_201
# %bb.296:                              # %init.i723
	pcalau12i	$a0, %pc_hi20(_ZZN9benchmark8internal18GetNullLogInstanceEvE8null_log)
	addi.d	$s7, $a0, %pc_lo12(_ZZN9benchmark8internal18GetNullLogInstanceEvE8null_log)
	st.d	$zero, $s7, 0
	pcalau12i	$a0, %pc_hi20(_ZGVZN9benchmark8internal18GetNullLogInstanceEvE8null_log)
	addi.d	$a0, $a0, %pc_lo12(_ZGVZN9benchmark8internal18GetNullLogInstanceEvE8null_log)
	pcaddu18i	$ra, %call36(__cxa_guard_release)
	jirl	$ra, $ra, 0
	b	.LBB8_201
.LBB8_297:                              # %lpad483
.Ltmp464:                               # EH_LABEL
	move	$fp, $a0
	ld.d	$a0, $sp, 120
	beq	$a0, $s1, .LBB8_342
	b	.LBB8_350
.LBB8_298:                              # %lpad293
.Ltmp363:                               # EH_LABEL
	move	$fp, $a0
	ld.d	$a0, $sp, 120
	bne	$a0, $s1, .LBB8_354
	b	.LBB8_355
.LBB8_299:                              # %lpad477
.Ltmp457:                               # EH_LABEL
	move	$fp, $a0
	ld.d	$a0, $sp, 120
	beq	$a0, $s1, .LBB8_342
	b	.LBB8_350
.LBB8_300:                              # %lpad287
.Ltmp356:                               # EH_LABEL
	move	$fp, $a0
	ld.d	$a0, $sp, 120
	bne	$a0, $s1, .LBB8_354
	b	.LBB8_355
.LBB8_301:                              # %lpad428
.Ltmp426:                               # EH_LABEL
	b	.LBB8_327
.LBB8_302:                              # %lpad238
.Ltmp325:                               # EH_LABEL
	b	.LBB8_329
.LBB8_303:                              # %lpad135
.Ltmp268:                               # EH_LABEL
	b	.LBB8_331
.LBB8_304:                              # %lpad35
.Ltmp213:                               # EH_LABEL
	b	.LBB8_333
.LBB8_305:                              # %lpad467
.Ltmp452:                               # EH_LABEL
	move	$fp, $a0
	ld.d	$a0, $sp, 120
	beq	$a0, $s1, .LBB8_342
	b	.LBB8_350
.LBB8_306:                              # %lpad277
.Ltmp351:                               # EH_LABEL
	move	$fp, $a0
	ld.d	$a0, $sp, 120
	bne	$a0, $s1, .LBB8_354
	b	.LBB8_355
.LBB8_307:                              # %lpad413
.Ltmp411:                               # EH_LABEL
	b	.LBB8_327
.LBB8_308:                              # %lpad223
.Ltmp310:                               # EH_LABEL
	b	.LBB8_329
.LBB8_309:                              # %lpad120
.Ltmp253:                               # EH_LABEL
	b	.LBB8_331
.LBB8_310:                              # %lpad21
.Ltmp198:                               # EH_LABEL
	b	.LBB8_333
.LBB8_311:                              # %lpad63
.Ltmp225:                               # EH_LABEL
	b	.LBB8_363
.LBB8_312:                              # %lpad457
.Ltmp445:                               # EH_LABEL
	move	$fp, $a0
	ld.d	$a0, $sp, 120
	beq	$a0, $s1, .LBB8_342
	b	.LBB8_350
.LBB8_313:                              # %lpad267
.Ltmp344:                               # EH_LABEL
	move	$fp, $a0
	ld.d	$a0, $sp, 120
	bne	$a0, $s1, .LBB8_354
	b	.LBB8_355
.LBB8_314:                              # %lpad507
.Ltmp477:                               # EH_LABEL
	move	$fp, $a0
	ld.d	$a0, $sp, 72
	beq	$a0, $s2, .LBB8_341
	b	.LBB8_348
.LBB8_315:                              # %lpad493
.Ltmp467:                               # EH_LABEL
	move	$fp, $a0
	ld.d	$a0, $sp, 120
	beq	$a0, $s1, .LBB8_342
	b	.LBB8_350
.LBB8_316:                              # %lpad446
.Ltmp429:                               # EH_LABEL
	b	.LBB8_327
.LBB8_317:                              # %lpad384
.Ltmp389:                               # EH_LABEL
	b	.LBB8_338
.LBB8_318:                              # %lpad382
.Ltmp386:                               # EH_LABEL
	pcaddu18i	$ra, %call36(_Unwind_Resume)
	jirl	$ra, $ra, 0
.LBB8_319:                              # %lpad317
.Ltmp376:                               # EH_LABEL
	move	$fp, $a0
	ld.d	$a0, $sp, 72
	beq	$a0, $s2, .LBB8_353
	b	.LBB8_360
.LBB8_320:                              # %lpad303
.Ltmp366:                               # EH_LABEL
	move	$fp, $a0
	ld.d	$a0, $sp, 120
	bne	$a0, $s1, .LBB8_354
	b	.LBB8_355
.LBB8_321:                              # %lpad256
.Ltmp328:                               # EH_LABEL
	b	.LBB8_329
.LBB8_322:                              # %lpad197
.Ltmp288:                               # EH_LABEL
	b	.LBB8_338
.LBB8_323:                              # %lpad195
.Ltmp285:                               # EH_LABEL
	pcaddu18i	$ra, %call36(_Unwind_Resume)
	jirl	$ra, $ra, 0
.LBB8_324:                              # %lpad95
.Ltmp231:                               # EH_LABEL
	b	.LBB8_338
.LBB8_325:                              # %lpad2
.Ltmp176:                               # EH_LABEL
	b	.LBB8_338
.LBB8_326:                              # %lpad401
.Ltmp398:                               # EH_LABEL
.LBB8_327:                              # %ehcleanup555
	move	$fp, $a0
	fcmp.clt.d	$fcc0, $fs2, $fs0
	addi.d	$a0, $sp, 32
	bcnez	$fcc0, .LBB8_343
	b	.LBB8_356
.LBB8_328:                              # %lpad211
.Ltmp297:                               # EH_LABEL
.LBB8_329:                              # %ehcleanup364
	move	$fp, $a0
	b	.LBB8_355
.LBB8_330:                              # %lpad108
.Ltmp240:                               # EH_LABEL
.LBB8_331:                              # %ehcleanup177
	move	$fp, $a0
	b	.LBB8_368
.LBB8_332:                              # %lpad11
.Ltmp185:                               # EH_LABEL
.LBB8_333:                              # %ehcleanup75
	move	$fp, $a0
	b	.LBB8_365
.LBB8_334:                              # %cleanup.action565
.Ltmp490:                               # EH_LABEL
	b	.LBB8_338
.LBB8_335:                              # %cleanup.action374
.Ltmp493:                               # EH_LABEL
	b	.LBB8_338
.LBB8_336:                              # %cleanup.action187
.Ltmp282:                               # EH_LABEL
	b	.LBB8_338
.LBB8_337:                              # %cleanup.action85
.Ltmp228:                               # EH_LABEL
.LBB8_338:                              # %ehcleanup567
	move	$fp, $a0
	b	.LBB8_343
.LBB8_339:                              # %lpad509
.Ltmp484:                               # EH_LABEL
	ld.d	$a2, $sp, 40
	move	$fp, $a0
	bne	$a2, $s3, .LBB8_346
# %bb.340:                              # %ehcleanup535
	ld.d	$a0, $sp, 72
	bne	$a0, $s2, .LBB8_348
.LBB8_341:                              # %ehcleanup544
	ld.d	$a0, $sp, 120
	bne	$a0, $s1, .LBB8_350
.LBB8_342:                              # %ehcleanup555
	fcmp.clt.d	$fcc0, $fs2, $fs0
	addi.d	$a0, $sp, 32
	bceqz	$fcc0, .LBB8_356
.LBB8_343:                              # %ehcleanup567
	ld.d	$a0, $sp, 160
	beq	$a0, $s0, .LBB8_345
# %bb.344:                              # %if.then.i.i1014
	ld.d	$a1, $sp, 176
	addi.d	$a1, $a1, 1
	pcaddu18i	$ra, %call36(_ZdlPvm)
	jirl	$ra, $ra, 0
.LBB8_345:                              # %ehcleanup571
	move	$a0, $fp
	pcaddu18i	$ra, %call36(_Unwind_Resume)
	jirl	$ra, $ra, 0
.LBB8_346:                              # %if.then.i.i986
	ld.d	$a0, $sp, 56
	addi.d	$a1, $a0, 1
	move	$a0, $a2
	pcaddu18i	$ra, %call36(_ZdlPvm)
	jirl	$ra, $ra, 0
	ld.d	$a0, $sp, 72
	beq	$a0, $s2, .LBB8_341
	b	.LBB8_348
.LBB8_347:                              # %lpad495
.Ltmp474:                               # EH_LABEL
	move	$fp, $a0
	ld.d	$a0, $sp, 72
	beq	$a0, $s2, .LBB8_341
.LBB8_348:                              # %if.then.i.i993
	ld.d	$a1, $sp, 88
	addi.d	$a1, $a1, 1
	pcaddu18i	$ra, %call36(_ZdlPvm)
	jirl	$ra, $ra, 0
	ld.d	$a0, $sp, 120
	beq	$a0, $s1, .LBB8_342
	b	.LBB8_350
.LBB8_349:                              # %lpad448
.Ltmp436:                               # EH_LABEL
	move	$fp, $a0
	ld.d	$a0, $sp, 120
	beq	$a0, $s1, .LBB8_342
.LBB8_350:                              # %if.then.i.i1000
	ld.d	$a1, $sp, 136
	addi.d	$a1, $a1, 1
	pcaddu18i	$ra, %call36(_ZdlPvm)
	jirl	$ra, $ra, 0
	fcmp.clt.d	$fcc0, $fs2, $fs0
	addi.d	$a0, $sp, 32
	bcnez	$fcc0, .LBB8_343
	b	.LBB8_356
.LBB8_351:                              # %lpad319
.Ltmp383:                               # EH_LABEL
	ld.d	$a2, $sp, 40
	move	$fp, $a0
	bne	$a2, $s3, .LBB8_358
# %bb.352:                              # %ehcleanup344
	ld.d	$a0, $sp, 72
	bne	$a0, $s2, .LBB8_360
.LBB8_353:                              # %ehcleanup353
	ld.d	$a0, $sp, 120
	beq	$a0, $s1, .LBB8_355
.LBB8_354:                              # %if.then.i.i695
	ld.d	$a1, $sp, 136
	addi.d	$a1, $a1, 1
	pcaddu18i	$ra, %call36(_ZdlPvm)
	jirl	$ra, $ra, 0
.LBB8_355:                              # %ehcleanup364
	addi.d	$a0, $sp, 104
	ld.d	$a1, $sp, 24
	movgr2cf	$fcc0, $a1
	bceqz	$fcc0, .LBB8_343
.LBB8_356:                              # %cleanup.action557.invoke
.Ltmp485:                               # EH_LABEL
	pcaddu18i	$ra, %call36(_ZN9benchmark8internal12CheckHandlerD2Ev)
	jirl	$ra, $ra, 0
.Ltmp486:                               # EH_LABEL
# %bb.357:                              # %cleanup.action557.cont
.LBB8_358:                              # %if.then.i.i681
	ld.d	$a0, $sp, 56
	addi.d	$a1, $a0, 1
	move	$a0, $a2
	pcaddu18i	$ra, %call36(_ZdlPvm)
	jirl	$ra, $ra, 0
	ld.d	$a0, $sp, 72
	beq	$a0, $s2, .LBB8_353
	b	.LBB8_360
.LBB8_359:                              # %lpad305
.Ltmp373:                               # EH_LABEL
	move	$fp, $a0
	ld.d	$a0, $sp, 72
	beq	$a0, $s2, .LBB8_353
.LBB8_360:                              # %if.then.i.i688
	ld.d	$a1, $sp, 88
	addi.d	$a1, $a1, 1
	pcaddu18i	$ra, %call36(_ZdlPvm)
	jirl	$ra, $ra, 0
	ld.d	$a0, $sp, 120
	bne	$a0, $s1, .LBB8_354
	b	.LBB8_355
.LBB8_361:                              # %lpad258
.Ltmp335:                               # EH_LABEL
	move	$fp, $a0
	ld.d	$a0, $sp, 120
	bne	$a0, $s1, .LBB8_354
	b	.LBB8_355
.LBB8_362:                              # %lpad55
.Ltmp220:                               # EH_LABEL
.LBB8_363:                              # %ehcleanup
	move	$fp, $a0
	ld.d	$a0, $sp, 120
	beq	$a0, $s1, .LBB8_365
# %bb.364:                              # %if.then.i.i214
	ld.d	$a1, $sp, 136
	addi.d	$a1, $a1, 1
	pcaddu18i	$ra, %call36(_ZdlPvm)
	jirl	$ra, $ra, 0
.LBB8_365:                              # %ehcleanup75
	ori	$a1, $zero, 1
	addi.d	$a0, $sp, 152
	beq	$s2, $a1, .LBB8_343
	b	.LBB8_356
.LBB8_366:                              # %lpad155
.Ltmp279:                               # EH_LABEL
	ld.d	$a2, $sp, 120
	move	$fp, $a0
	beq	$a2, $s1, .LBB8_368
# %bb.367:                              # %if.then.i.i396
	ld.d	$a0, $sp, 136
	addi.d	$a1, $a0, 1
	move	$a0, $a2
	pcaddu18i	$ra, %call36(_ZdlPvm)
	jirl	$ra, $ra, 0
.LBB8_368:                              # %ehcleanup177
	addi.d	$a0, $sp, 112
	beq	$s2, $s3, .LBB8_343
	b	.LBB8_356
.LBB8_369:                              # %terminate.lpad
.Ltmp487:                               # EH_LABEL
	pcaddu18i	$ra, %call36(__clang_call_terminate)
	jirl	$ra, $ra, 0
.Lfunc_end8:
	.size	_Z22CheckBytesAndItemsPSecRK7Results, .Lfunc_end8-_Z22CheckBytesAndItemsPSecRK7Results
	.cfi_endproc
	.section	.gcc_except_table,"a",@progbits
	.p2align	2, 0x0
GCC_except_table8:
.Lexception3:
	.byte	255                             # @LPStart Encoding = omit
	.byte	155                             # @TType Encoding = indirect pcrel sdata4
	.uleb128 .Lttbase1-.Lttbaseref1
.Lttbaseref1:
	.byte	1                               # Call site Encoding = uleb128
	.uleb128 .Lcst_end3-.Lcst_begin3
.Lcst_begin3:
	.uleb128 .Lfunc_begin3-.Lfunc_begin3    # >> Call Site 1 <<
	.uleb128 .Ltmp174-.Lfunc_begin3         #   Call between .Lfunc_begin3 and .Ltmp174
	.byte	0                               #     has no landing pad
	.byte	0                               #   On action: cleanup
	.uleb128 .Ltmp174-.Lfunc_begin3         # >> Call Site 2 <<
	.uleb128 .Ltmp175-.Ltmp174              #   Call between .Ltmp174 and .Ltmp175
	.uleb128 .Ltmp176-.Lfunc_begin3         #     jumps to .Ltmp176
	.byte	0                               #   On action: cleanup
	.uleb128 .Ltmp175-.Lfunc_begin3         # >> Call Site 3 <<
	.uleb128 .Ltmp177-.Ltmp175              #   Call between .Ltmp175 and .Ltmp177
	.byte	0                               #     has no landing pad
	.byte	0                               #   On action: cleanup
	.uleb128 .Ltmp177-.Lfunc_begin3         # >> Call Site 4 <<
	.uleb128 .Ltmp178-.Ltmp177              #   Call between .Ltmp177 and .Ltmp178
	.uleb128 .Ltmp228-.Lfunc_begin3         #     jumps to .Ltmp228
	.byte	0                               #   On action: cleanup
	.uleb128 .Ltmp179-.Lfunc_begin3         # >> Call Site 5 <<
	.uleb128 .Ltmp184-.Ltmp179              #   Call between .Ltmp179 and .Ltmp184
	.uleb128 .Ltmp185-.Lfunc_begin3         #     jumps to .Ltmp185
	.byte	0                               #   On action: cleanup
	.uleb128 .Ltmp186-.Lfunc_begin3         # >> Call Site 6 <<
	.uleb128 .Ltmp197-.Ltmp186              #   Call between .Ltmp186 and .Ltmp197
	.uleb128 .Ltmp198-.Lfunc_begin3         #     jumps to .Ltmp198
	.byte	0                               #   On action: cleanup
	.uleb128 .Ltmp199-.Lfunc_begin3         # >> Call Site 7 <<
	.uleb128 .Ltmp212-.Ltmp199              #   Call between .Ltmp199 and .Ltmp212
	.uleb128 .Ltmp213-.Lfunc_begin3         #     jumps to .Ltmp213
	.byte	0                               #   On action: cleanup
	.uleb128 .Ltmp214-.Lfunc_begin3         # >> Call Site 8 <<
	.uleb128 .Ltmp219-.Ltmp214              #   Call between .Ltmp214 and .Ltmp219
	.uleb128 .Ltmp220-.Lfunc_begin3         #     jumps to .Ltmp220
	.byte	0                               #   On action: cleanup
	.uleb128 .Ltmp221-.Lfunc_begin3         # >> Call Site 9 <<
	.uleb128 .Ltmp224-.Ltmp221              #   Call between .Ltmp221 and .Ltmp224
	.uleb128 .Ltmp225-.Lfunc_begin3         #     jumps to .Ltmp225
	.byte	0                               #   On action: cleanup
	.uleb128 .Ltmp224-.Lfunc_begin3         # >> Call Site 10 <<
	.uleb128 .Ltmp229-.Ltmp224              #   Call between .Ltmp224 and .Ltmp229
	.byte	0                               #     has no landing pad
	.byte	0                               #   On action: cleanup
	.uleb128 .Ltmp229-.Lfunc_begin3         # >> Call Site 11 <<
	.uleb128 .Ltmp230-.Ltmp229              #   Call between .Ltmp229 and .Ltmp230
	.uleb128 .Ltmp231-.Lfunc_begin3         #     jumps to .Ltmp231
	.byte	0                               #   On action: cleanup
	.uleb128 .Ltmp230-.Lfunc_begin3         # >> Call Site 12 <<
	.uleb128 .Ltmp232-.Ltmp230              #   Call between .Ltmp230 and .Ltmp232
	.byte	0                               #     has no landing pad
	.byte	0                               #   On action: cleanup
	.uleb128 .Ltmp232-.Lfunc_begin3         # >> Call Site 13 <<
	.uleb128 .Ltmp233-.Ltmp232              #   Call between .Ltmp232 and .Ltmp233
	.uleb128 .Ltmp282-.Lfunc_begin3         #     jumps to .Ltmp282
	.byte	0                               #   On action: cleanup
	.uleb128 .Ltmp234-.Lfunc_begin3         # >> Call Site 14 <<
	.uleb128 .Ltmp239-.Ltmp234              #   Call between .Ltmp234 and .Ltmp239
	.uleb128 .Ltmp240-.Lfunc_begin3         #     jumps to .Ltmp240
	.byte	0                               #   On action: cleanup
	.uleb128 .Ltmp241-.Lfunc_begin3         # >> Call Site 15 <<
	.uleb128 .Ltmp252-.Ltmp241              #   Call between .Ltmp241 and .Ltmp252
	.uleb128 .Ltmp253-.Lfunc_begin3         #     jumps to .Ltmp253
	.byte	0                               #   On action: cleanup
	.uleb128 .Ltmp254-.Lfunc_begin3         # >> Call Site 16 <<
	.uleb128 .Ltmp267-.Ltmp254              #   Call between .Ltmp254 and .Ltmp267
	.uleb128 .Ltmp268-.Lfunc_begin3         #     jumps to .Ltmp268
	.byte	0                               #   On action: cleanup
	.uleb128 .Ltmp269-.Lfunc_begin3         # >> Call Site 17 <<
	.uleb128 .Ltmp278-.Ltmp269              #   Call between .Ltmp269 and .Ltmp278
	.uleb128 .Ltmp279-.Lfunc_begin3         #     jumps to .Ltmp279
	.byte	0                               #   On action: cleanup
	.uleb128 .Ltmp278-.Lfunc_begin3         # >> Call Site 18 <<
	.uleb128 .Ltmp283-.Ltmp278              #   Call between .Ltmp278 and .Ltmp283
	.byte	0                               #     has no landing pad
	.byte	0                               #   On action: cleanup
	.uleb128 .Ltmp283-.Lfunc_begin3         # >> Call Site 19 <<
	.uleb128 .Ltmp284-.Ltmp283              #   Call between .Ltmp283 and .Ltmp284
	.uleb128 .Ltmp285-.Lfunc_begin3         #     jumps to .Ltmp285
	.byte	0                               #   On action: cleanup
	.uleb128 .Ltmp286-.Lfunc_begin3         # >> Call Site 20 <<
	.uleb128 .Ltmp287-.Ltmp286              #   Call between .Ltmp286 and .Ltmp287
	.uleb128 .Ltmp288-.Lfunc_begin3         #     jumps to .Ltmp288
	.byte	0                               #   On action: cleanup
	.uleb128 .Ltmp289-.Lfunc_begin3         # >> Call Site 21 <<
	.uleb128 .Ltmp290-.Ltmp289              #   Call between .Ltmp289 and .Ltmp290
	.uleb128 .Ltmp493-.Lfunc_begin3         #     jumps to .Ltmp493
	.byte	0                               #   On action: cleanup
	.uleb128 .Ltmp291-.Lfunc_begin3         # >> Call Site 22 <<
	.uleb128 .Ltmp296-.Ltmp291              #   Call between .Ltmp291 and .Ltmp296
	.uleb128 .Ltmp297-.Lfunc_begin3         #     jumps to .Ltmp297
	.byte	0                               #   On action: cleanup
	.uleb128 .Ltmp298-.Lfunc_begin3         # >> Call Site 23 <<
	.uleb128 .Ltmp309-.Ltmp298              #   Call between .Ltmp298 and .Ltmp309
	.uleb128 .Ltmp310-.Lfunc_begin3         #     jumps to .Ltmp310
	.byte	0                               #   On action: cleanup
	.uleb128 .Ltmp311-.Lfunc_begin3         # >> Call Site 24 <<
	.uleb128 .Ltmp324-.Ltmp311              #   Call between .Ltmp311 and .Ltmp324
	.uleb128 .Ltmp325-.Lfunc_begin3         #     jumps to .Ltmp325
	.byte	0                               #   On action: cleanup
	.uleb128 .Ltmp326-.Lfunc_begin3         # >> Call Site 25 <<
	.uleb128 .Ltmp327-.Ltmp326              #   Call between .Ltmp326 and .Ltmp327
	.uleb128 .Ltmp328-.Lfunc_begin3         #     jumps to .Ltmp328
	.byte	0                               #   On action: cleanup
	.uleb128 .Ltmp329-.Lfunc_begin3         # >> Call Site 26 <<
	.uleb128 .Ltmp334-.Ltmp329              #   Call between .Ltmp329 and .Ltmp334
	.uleb128 .Ltmp335-.Lfunc_begin3         #     jumps to .Ltmp335
	.byte	0                               #   On action: cleanup
	.uleb128 .Ltmp336-.Lfunc_begin3         # >> Call Site 27 <<
	.uleb128 .Ltmp343-.Ltmp336              #   Call between .Ltmp336 and .Ltmp343
	.uleb128 .Ltmp344-.Lfunc_begin3         #     jumps to .Ltmp344
	.byte	0                               #   On action: cleanup
	.uleb128 .Ltmp345-.Lfunc_begin3         # >> Call Site 28 <<
	.uleb128 .Ltmp350-.Ltmp345              #   Call between .Ltmp345 and .Ltmp350
	.uleb128 .Ltmp351-.Lfunc_begin3         #     jumps to .Ltmp351
	.byte	0                               #   On action: cleanup
	.uleb128 .Ltmp352-.Lfunc_begin3         # >> Call Site 29 <<
	.uleb128 .Ltmp355-.Ltmp352              #   Call between .Ltmp352 and .Ltmp355
	.uleb128 .Ltmp356-.Lfunc_begin3         #     jumps to .Ltmp356
	.byte	0                               #   On action: cleanup
	.uleb128 .Ltmp357-.Lfunc_begin3         # >> Call Site 30 <<
	.uleb128 .Ltmp362-.Ltmp357              #   Call between .Ltmp357 and .Ltmp362
	.uleb128 .Ltmp363-.Lfunc_begin3         #     jumps to .Ltmp363
	.byte	0                               #   On action: cleanup
	.uleb128 .Ltmp364-.Lfunc_begin3         # >> Call Site 31 <<
	.uleb128 .Ltmp365-.Ltmp364              #   Call between .Ltmp364 and .Ltmp365
	.uleb128 .Ltmp366-.Lfunc_begin3         #     jumps to .Ltmp366
	.byte	0                               #   On action: cleanup
	.uleb128 .Ltmp367-.Lfunc_begin3         # >> Call Site 32 <<
	.uleb128 .Ltmp372-.Ltmp367              #   Call between .Ltmp367 and .Ltmp372
	.uleb128 .Ltmp373-.Lfunc_begin3         #     jumps to .Ltmp373
	.byte	0                               #   On action: cleanup
	.uleb128 .Ltmp374-.Lfunc_begin3         # >> Call Site 33 <<
	.uleb128 .Ltmp375-.Ltmp374              #   Call between .Ltmp374 and .Ltmp375
	.uleb128 .Ltmp376-.Lfunc_begin3         #     jumps to .Ltmp376
	.byte	0                               #   On action: cleanup
	.uleb128 .Ltmp377-.Lfunc_begin3         # >> Call Site 34 <<
	.uleb128 .Ltmp382-.Ltmp377              #   Call between .Ltmp377 and .Ltmp382
	.uleb128 .Ltmp383-.Lfunc_begin3         #     jumps to .Ltmp383
	.byte	0                               #   On action: cleanup
	.uleb128 .Ltmp382-.Lfunc_begin3         # >> Call Site 35 <<
	.uleb128 .Ltmp384-.Ltmp382              #   Call between .Ltmp382 and .Ltmp384
	.byte	0                               #     has no landing pad
	.byte	0                               #   On action: cleanup
	.uleb128 .Ltmp384-.Lfunc_begin3         # >> Call Site 36 <<
	.uleb128 .Ltmp385-.Ltmp384              #   Call between .Ltmp384 and .Ltmp385
	.uleb128 .Ltmp386-.Lfunc_begin3         #     jumps to .Ltmp386
	.byte	0                               #   On action: cleanup
	.uleb128 .Ltmp387-.Lfunc_begin3         # >> Call Site 37 <<
	.uleb128 .Ltmp388-.Ltmp387              #   Call between .Ltmp387 and .Ltmp388
	.uleb128 .Ltmp389-.Lfunc_begin3         #     jumps to .Ltmp389
	.byte	0                               #   On action: cleanup
	.uleb128 .Ltmp390-.Lfunc_begin3         # >> Call Site 38 <<
	.uleb128 .Ltmp391-.Ltmp390              #   Call between .Ltmp390 and .Ltmp391
	.uleb128 .Ltmp490-.Lfunc_begin3         #     jumps to .Ltmp490
	.byte	0                               #   On action: cleanup
	.uleb128 .Ltmp392-.Lfunc_begin3         # >> Call Site 39 <<
	.uleb128 .Ltmp397-.Ltmp392              #   Call between .Ltmp392 and .Ltmp397
	.uleb128 .Ltmp398-.Lfunc_begin3         #     jumps to .Ltmp398
	.byte	0                               #   On action: cleanup
	.uleb128 .Ltmp399-.Lfunc_begin3         # >> Call Site 40 <<
	.uleb128 .Ltmp410-.Ltmp399              #   Call between .Ltmp399 and .Ltmp410
	.uleb128 .Ltmp411-.Lfunc_begin3         #     jumps to .Ltmp411
	.byte	0                               #   On action: cleanup
	.uleb128 .Ltmp412-.Lfunc_begin3         # >> Call Site 41 <<
	.uleb128 .Ltmp425-.Ltmp412              #   Call between .Ltmp412 and .Ltmp425
	.uleb128 .Ltmp426-.Lfunc_begin3         #     jumps to .Ltmp426
	.byte	0                               #   On action: cleanup
	.uleb128 .Ltmp427-.Lfunc_begin3         # >> Call Site 42 <<
	.uleb128 .Ltmp428-.Ltmp427              #   Call between .Ltmp427 and .Ltmp428
	.uleb128 .Ltmp429-.Lfunc_begin3         #     jumps to .Ltmp429
	.byte	0                               #   On action: cleanup
	.uleb128 .Ltmp430-.Lfunc_begin3         # >> Call Site 43 <<
	.uleb128 .Ltmp435-.Ltmp430              #   Call between .Ltmp430 and .Ltmp435
	.uleb128 .Ltmp436-.Lfunc_begin3         #     jumps to .Ltmp436
	.byte	0                               #   On action: cleanup
	.uleb128 .Ltmp437-.Lfunc_begin3         # >> Call Site 44 <<
	.uleb128 .Ltmp444-.Ltmp437              #   Call between .Ltmp437 and .Ltmp444
	.uleb128 .Ltmp445-.Lfunc_begin3         #     jumps to .Ltmp445
	.byte	0                               #   On action: cleanup
	.uleb128 .Ltmp446-.Lfunc_begin3         # >> Call Site 45 <<
	.uleb128 .Ltmp451-.Ltmp446              #   Call between .Ltmp446 and .Ltmp451
	.uleb128 .Ltmp452-.Lfunc_begin3         #     jumps to .Ltmp452
	.byte	0                               #   On action: cleanup
	.uleb128 .Ltmp453-.Lfunc_begin3         # >> Call Site 46 <<
	.uleb128 .Ltmp456-.Ltmp453              #   Call between .Ltmp453 and .Ltmp456
	.uleb128 .Ltmp457-.Lfunc_begin3         #     jumps to .Ltmp457
	.byte	0                               #   On action: cleanup
	.uleb128 .Ltmp458-.Lfunc_begin3         # >> Call Site 47 <<
	.uleb128 .Ltmp463-.Ltmp458              #   Call between .Ltmp458 and .Ltmp463
	.uleb128 .Ltmp464-.Lfunc_begin3         #     jumps to .Ltmp464
	.byte	0                               #   On action: cleanup
	.uleb128 .Ltmp465-.Lfunc_begin3         # >> Call Site 48 <<
	.uleb128 .Ltmp466-.Ltmp465              #   Call between .Ltmp465 and .Ltmp466
	.uleb128 .Ltmp467-.Lfunc_begin3         #     jumps to .Ltmp467
	.byte	0                               #   On action: cleanup
	.uleb128 .Ltmp468-.Lfunc_begin3         # >> Call Site 49 <<
	.uleb128 .Ltmp473-.Ltmp468              #   Call between .Ltmp468 and .Ltmp473
	.uleb128 .Ltmp474-.Lfunc_begin3         #     jumps to .Ltmp474
	.byte	0                               #   On action: cleanup
	.uleb128 .Ltmp475-.Lfunc_begin3         # >> Call Site 50 <<
	.uleb128 .Ltmp476-.Ltmp475              #   Call between .Ltmp475 and .Ltmp476
	.uleb128 .Ltmp477-.Lfunc_begin3         #     jumps to .Ltmp477
	.byte	0                               #   On action: cleanup
	.uleb128 .Ltmp478-.Lfunc_begin3         # >> Call Site 51 <<
	.uleb128 .Ltmp483-.Ltmp478              #   Call between .Ltmp478 and .Ltmp483
	.uleb128 .Ltmp484-.Lfunc_begin3         #     jumps to .Ltmp484
	.byte	0                               #   On action: cleanup
	.uleb128 .Ltmp483-.Lfunc_begin3         # >> Call Site 52 <<
	.uleb128 .Ltmp226-.Ltmp483              #   Call between .Ltmp483 and .Ltmp226
	.byte	0                               #     has no landing pad
	.byte	0                               #   On action: cleanup
	.uleb128 .Ltmp226-.Lfunc_begin3         # >> Call Site 53 <<
	.uleb128 .Ltmp227-.Ltmp226              #   Call between .Ltmp226 and .Ltmp227
	.uleb128 .Ltmp228-.Lfunc_begin3         #     jumps to .Ltmp228
	.byte	0                               #   On action: cleanup
	.uleb128 .Ltmp280-.Lfunc_begin3         # >> Call Site 54 <<
	.uleb128 .Ltmp281-.Ltmp280              #   Call between .Ltmp280 and .Ltmp281
	.uleb128 .Ltmp282-.Lfunc_begin3         #     jumps to .Ltmp282
	.byte	0                               #   On action: cleanup
	.uleb128 .Ltmp491-.Lfunc_begin3         # >> Call Site 55 <<
	.uleb128 .Ltmp492-.Ltmp491              #   Call between .Ltmp491 and .Ltmp492
	.uleb128 .Ltmp493-.Lfunc_begin3         #     jumps to .Ltmp493
	.byte	0                               #   On action: cleanup
	.uleb128 .Ltmp488-.Lfunc_begin3         # >> Call Site 56 <<
	.uleb128 .Ltmp489-.Ltmp488              #   Call between .Ltmp488 and .Ltmp489
	.uleb128 .Ltmp490-.Lfunc_begin3         #     jumps to .Ltmp490
	.byte	0                               #   On action: cleanup
	.uleb128 .Ltmp489-.Lfunc_begin3         # >> Call Site 57 <<
	.uleb128 .Ltmp485-.Ltmp489              #   Call between .Ltmp489 and .Ltmp485
	.byte	0                               #     has no landing pad
	.byte	0                               #   On action: cleanup
	.uleb128 .Ltmp485-.Lfunc_begin3         # >> Call Site 58 <<
	.uleb128 .Ltmp486-.Ltmp485              #   Call between .Ltmp485 and .Ltmp486
	.uleb128 .Ltmp487-.Lfunc_begin3         #     jumps to .Ltmp487
	.byte	1                               #   On action: 1
	.uleb128 .Ltmp486-.Lfunc_begin3         # >> Call Site 59 <<
	.uleb128 .Lfunc_end8-.Ltmp486           #   Call between .Ltmp486 and .Lfunc_end8
	.byte	0                               #     has no landing pad
	.byte	0                               #   On action: cleanup
.Lcst_end3:
	.byte	1                               # >> Action Record 1 <<
                                        #   Catch TypeInfo 1
	.byte	0                               #   No further actions
	.p2align	2, 0x0
                                        # >> Catch TypeInfos <<
	.word	0                               # TypeInfo 1
.Lttbase1:
	.p2align	2, 0x0
                                        # -- End function
	.section	.text._ZNK7Results5GetAsIdEET_RKNSt7__cxx1112basic_stringIcSt11char_traitsIcESaIcEEE,"axG",@progbits,_ZNK7Results5GetAsIdEET_RKNSt7__cxx1112basic_stringIcSt11char_traitsIcESaIcEEE,comdat
	.hidden	_ZNK7Results5GetAsIdEET_RKNSt7__cxx1112basic_stringIcSt11char_traitsIcESaIcEEE # -- Begin function _ZNK7Results5GetAsIdEET_RKNSt7__cxx1112basic_stringIcSt11char_traitsIcESaIcEEE
	.weak	_ZNK7Results5GetAsIdEET_RKNSt7__cxx1112basic_stringIcSt11char_traitsIcESaIcEEE
	.p2align	5
	.type	_ZNK7Results5GetAsIdEET_RKNSt7__cxx1112basic_stringIcSt11char_traitsIcESaIcEEE,@function
_ZNK7Results5GetAsIdEET_RKNSt7__cxx1112basic_stringIcSt11char_traitsIcESaIcEEE: # @_ZNK7Results5GetAsIdEET_RKNSt7__cxx1112basic_stringIcSt11char_traitsIcESaIcEEE
.Lfunc_begin4:
	.cfi_startproc
	.cfi_personality 155, DW.ref.__gxx_personality_v0
	.cfi_lsda 27, .Lexception4
# %bb.0:                                # %entry
	addi.d	$sp, $sp, -512
	.cfi_def_cfa_offset 512
	st.d	$ra, $sp, 504                   # 8-byte Folded Spill
	st.d	$fp, $sp, 496                   # 8-byte Folded Spill
	st.d	$s0, $sp, 488                   # 8-byte Folded Spill
	st.d	$s1, $sp, 480                   # 8-byte Folded Spill
	st.d	$s2, $sp, 472                   # 8-byte Folded Spill
	st.d	$s3, $sp, 464                   # 8-byte Folded Spill
	st.d	$s4, $sp, 456                   # 8-byte Folded Spill
	st.d	$s5, $sp, 448                   # 8-byte Folded Spill
	st.d	$s6, $sp, 440                   # 8-byte Folded Spill
	st.d	$s7, $sp, 432                   # 8-byte Folded Spill
	st.d	$s8, $sp, 424                   # 8-byte Folded Spill
	fst.d	$fs0, $sp, 416                  # 8-byte Folded Spill
	.cfi_offset 1, -8
	.cfi_offset 22, -16
	.cfi_offset 23, -24
	.cfi_offset 24, -32
	.cfi_offset 25, -40
	.cfi_offset 26, -48
	.cfi_offset 27, -56
	.cfi_offset 28, -64
	.cfi_offset 29, -72
	.cfi_offset 30, -80
	.cfi_offset 31, -88
	.cfi_offset 56, -96
	ld.d	$s5, $a0, 48
	beqz	$s5, .LBB9_20
# %bb.1:                                # %while.body.lr.ph.i.i.i.i
	addi.d	$s1, $a0, 40
	ld.d	$s4, $a1, 8
	ld.d	$fp, $a1, 0
	lu12i.w	$s3, -524288
	lu12i.w	$a0, 524287
	ori	$s2, $a0, 4095
	ori	$s6, $zero, 16
	ori	$s7, $zero, 24
	move	$s0, $s1
	b	.LBB9_4
	.p2align	4, , 16
.LBB9_2:                                # %if.then.i.i.i.i.i.i.i
                                        #   in Loop: Header=BB9_4 Depth=1
	sub.d	$a0, $s8, $s4
	slt	$a1, $s3, $a0
	maskeqz	$a0, $a0, $a1
	masknez	$a1, $s3, $a1
	or	$a0, $a0, $a1
	slt	$a1, $a0, $s2
	maskeqz	$a0, $a0, $a1
	masknez	$a1, $s2, $a1
	or	$a0, $a0, $a1
.LBB9_3:                                # %_ZNKSt4lessINSt7__cxx1112basic_stringIcSt11char_traitsIcESaIcEEEEclERKS5_S8_.exit.i.i.i.i
                                        #   in Loop: Header=BB9_4 Depth=1
	addi.w	$a0, $a0, 0
	slti	$a0, $a0, 0
	masknez	$a1, $s5, $a0
	masknez	$a2, $s6, $a0
	maskeqz	$a3, $s7, $a0
	or	$a2, $a3, $a2
	ldx.d	$s5, $s5, $a2
	maskeqz	$a0, $s0, $a0
	or	$s0, $a0, $a1
	beqz	$s5, .LBB9_6
.LBB9_4:                                # %while.body.i.i.i.i
                                        # =>This Inner Loop Header: Depth=1
	ld.d	$s8, $s5, 40
	sltu	$a0, $s4, $s8
	masknez	$a1, $s8, $a0
	maskeqz	$a0, $s4, $a0
	or	$a2, $a0, $a1
	beqz	$a2, .LBB9_2
# %bb.5:                                # %_ZNSt11char_traitsIcE7compareEPKcS2_m.exit.i.i.i.i.i.i.i
                                        #   in Loop: Header=BB9_4 Depth=1
	ld.d	$a0, $s5, 32
	move	$a1, $fp
	pcaddu18i	$ra, %call36(memcmp)
	jirl	$ra, $ra, 0
	bnez	$a0, .LBB9_3
	b	.LBB9_2
.LBB9_6:                                # %_ZNKSt8_Rb_treeINSt7__cxx1112basic_stringIcSt11char_traitsIcESaIcEEESt4pairIKS5_S5_ESt10_Select1stIS8_ESt4lessIS5_ESaIS8_EE14_M_lower_boundEPSt18_Rb_tree_node_baseSG_RS7_.exit.i.i.i
	beq	$s0, $s1, .LBB9_20
# %bb.7:                                # %lor.lhs.false.i.i.i
	ld.d	$s5, $s0, 40
	sltu	$a0, $s5, $s4
	masknez	$a1, $s4, $a0
	maskeqz	$a0, $s5, $a0
	or	$a2, $a0, $a1
	beqz	$a2, .LBB9_9
# %bb.8:                                # %_ZNSt11char_traitsIcE7compareEPKcS2_m.exit.i.i.i.i.i.i
	ld.d	$a1, $s0, 32
	move	$a0, $fp
	pcaddu18i	$ra, %call36(memcmp)
	jirl	$ra, $ra, 0
	bnez	$a0, .LBB9_10
.LBB9_9:                                # %if.then.i.i.i.i.i.i
	sub.d	$a0, $s4, $s5
	slt	$a1, $s3, $a0
	maskeqz	$a0, $a0, $a1
	masknez	$a1, $s3, $a1
	or	$a0, $a0, $a1
	slt	$a1, $a0, $s2
	maskeqz	$a0, $a0, $a1
	masknez	$a1, $s2, $a1
	or	$a0, $a0, $a1
.LBB9_10:                               # %_ZNK7Results3GetERKNSt7__cxx1112basic_stringIcSt11char_traitsIcESaIcEEE.exit
	addi.w	$a0, $a0, 0
	bltz	$a0, .LBB9_20
# %bb.11:                               # %land.lhs.true
	ld.d	$a1, $s0, 72
	beqz	$a1, .LBB9_20
# %bb.12:                               # %cond.true
	slti	$a0, $a0, 0
	pcalau12i	$fp, %pc_hi20(_ZGVZN9benchmark8internal18GetNullLogInstanceEvE8null_log)
	ld.b	$a1, $fp, %pc_lo12(_ZGVZN9benchmark8internal18GetNullLogInstanceEvE8null_log)
	masknez	$a2, $s0, $a0
	maskeqz	$a0, $s1, $a0
	or	$s1, $a0, $a2
	dbar	20
	beqz	$a1, .LBB9_21
.LBB9_13:                               # %_ZN9benchmark8internal18GetNullLogInstanceEv.exit
	addi.d	$a0, $sp, 24
	pcaddu18i	$ra, %call36(_ZNSt7__cxx1118basic_stringstreamIcSt11char_traitsIcESaIcEEC1Ev)
	jirl	$ra, $ra, 0
	ld.d	$a1, $s1, 64
	ld.d	$a2, $s0, 72
	addi.d	$a0, $sp, 40
.Ltmp494:                               # EH_LABEL
	pcaddu18i	$ra, %call36(_ZSt16__ostream_insertIcSt11char_traitsIcEERSt13basic_ostreamIT_T0_ES6_PKS3_l)
	jirl	$ra, $ra, 0
.Ltmp495:                               # EH_LABEL
# %bb.14:                               # %invoke.cont
.Ltmp497:                               # EH_LABEL
	addi.d	$a0, $sp, 24
	addi.d	$a1, $sp, 16
	addi.d	$s0, $sp, 24
	pcaddu18i	$ra, %call36(_ZNSi10_M_extractIdEERSiRT_)
	jirl	$ra, $ra, 0
.Ltmp498:                               # EH_LABEL
# %bb.15:                               # %invoke.cont11
	ld.d	$a0, $sp, 24
	ld.d	$a0, $a0, -24
	add.d	$a0, $s0, $a0
	ld.bu	$a0, $a0, 32
	andi	$a0, $a0, 5
	bnez	$a0, .LBB9_23
# %bb.16:                               # %cond.true16
	ld.b	$a0, $fp, %pc_lo12(_ZGVZN9benchmark8internal18GetNullLogInstanceEvE8null_log)
	dbar	20
	beqz	$a0, .LBB9_26
.LBB9_17:                               # %cleanup.done34
	fld.d	$fs0, $sp, 16
	pcalau12i	$a0, %got_pc_hi20(_ZTTNSt7__cxx1118basic_stringstreamIcSt11char_traitsIcESaIcEEE)
	ld.d	$fp, $a0, %got_pc_lo12(_ZTTNSt7__cxx1118basic_stringstreamIcSt11char_traitsIcESaIcEEE)
	ld.d	$a0, $fp, 0
	st.d	$a0, $sp, 24
	ld.d	$a1, $fp, 64
	ld.d	$a0, $a0, -24
	ld.d	$a2, $fp, 72
	addi.d	$s0, $sp, 24
	stx.d	$a1, $a0, $s0
	st.d	$a2, $sp, 40
	pcalau12i	$a0, %got_pc_hi20(_ZTVNSt7__cxx1115basic_stringbufIcSt11char_traitsIcESaIcEEE)
	ld.d	$a1, $a0, %got_pc_lo12(_ZTVNSt7__cxx1115basic_stringbufIcSt11char_traitsIcESaIcEEE)
	ld.d	$a0, $sp, 120
	addi.d	$a1, $a1, 16
	addi.d	$a2, $sp, 136
	st.d	$a1, $sp, 48
	beq	$a0, $a2, .LBB9_19
# %bb.18:                               # %if.then.i.i.i.i.i
	ld.d	$a1, $sp, 136
	addi.d	$a1, $a1, 1
	pcaddu18i	$ra, %call36(_ZdlPvm)
	jirl	$ra, $ra, 0
.LBB9_19:                               # %_ZNSt7__cxx1118basic_stringstreamIcSt11char_traitsIcESaIcEED1Ev.exit
	pcalau12i	$a0, %got_pc_hi20(_ZTVSt15basic_streambufIcSt11char_traitsIcEE)
	ld.d	$a0, $a0, %got_pc_lo12(_ZTVSt15basic_streambufIcSt11char_traitsIcEE)
	addi.d	$a0, $a0, 16
	st.d	$a0, $sp, 48
	addi.d	$a0, $sp, 104
	pcaddu18i	$ra, %call36(_ZNSt6localeD1Ev)
	jirl	$ra, $ra, 0
	ld.d	$a0, $fp, 16
	st.d	$a0, $sp, 24
	ld.d	$a1, $fp, 24
	ld.d	$a0, $a0, -24
	stx.d	$a1, $a0, $s0
	st.d	$zero, $sp, 32
	addi.d	$a0, $sp, 152
	pcaddu18i	$ra, %call36(_ZNSt8ios_baseD2Ev)
	jirl	$ra, $ra, 0
	fmov.d	$fa0, $fs0
	fld.d	$fs0, $sp, 416                  # 8-byte Folded Reload
	ld.d	$s8, $sp, 424                   # 8-byte Folded Reload
	ld.d	$s7, $sp, 432                   # 8-byte Folded Reload
	ld.d	$s6, $sp, 440                   # 8-byte Folded Reload
	ld.d	$s5, $sp, 448                   # 8-byte Folded Reload
	ld.d	$s4, $sp, 456                   # 8-byte Folded Reload
	ld.d	$s3, $sp, 464                   # 8-byte Folded Reload
	ld.d	$s2, $sp, 472                   # 8-byte Folded Reload
	ld.d	$s1, $sp, 480                   # 8-byte Folded Reload
	ld.d	$s0, $sp, 488                   # 8-byte Folded Reload
	ld.d	$fp, $sp, 496                   # 8-byte Folded Reload
	ld.d	$ra, $sp, 504                   # 8-byte Folded Reload
	addi.d	$sp, $sp, 512
	ret
.LBB9_20:                               # %cond.false
	pcalau12i	$a0, %pc_hi20(.L.str.203)
	addi.d	$a1, $a0, %pc_lo12(.L.str.203)
	pcalau12i	$a0, %pc_hi20(.L.str.204)
	addi.d	$a2, $a0, %pc_lo12(.L.str.204)
	pcalau12i	$a0, %pc_hi20(.L__func__._ZNK7Results5GetAsIdEET_RKNSt7__cxx1112basic_stringIcSt11char_traitsIcESaIcEEE)
	addi.d	$a3, $a0, %pc_lo12(.L__func__._ZNK7Results5GetAsIdEET_RKNSt7__cxx1112basic_stringIcSt11char_traitsIcESaIcEEE)
	addi.d	$a0, $sp, 24
	ori	$a4, $zero, 144
	pcaddu18i	$ra, %call36(_ZN9benchmark8internal12CheckHandlerC2EPKcS3_S3_i)
	jirl	$ra, $ra, 0
	addi.d	$a0, $sp, 24
	pcaddu18i	$ra, %call36(_ZN9benchmark8internal12CheckHandlerD2Ev)
	jirl	$ra, $ra, 0
.LBB9_21:                               # %init.check.i
	pcalau12i	$a0, %pc_hi20(_ZGVZN9benchmark8internal18GetNullLogInstanceEvE8null_log)
	addi.d	$a0, $a0, %pc_lo12(_ZGVZN9benchmark8internal18GetNullLogInstanceEvE8null_log)
	pcaddu18i	$ra, %call36(__cxa_guard_acquire)
	jirl	$ra, $ra, 0
	addi.w	$a0, $a0, 0
	beqz	$a0, .LBB9_13
# %bb.22:                               # %init.i
	pcalau12i	$a0, %pc_hi20(_ZZN9benchmark8internal18GetNullLogInstanceEvE8null_log)
	st.d	$zero, $a0, %pc_lo12(_ZZN9benchmark8internal18GetNullLogInstanceEvE8null_log)
	pcalau12i	$a0, %pc_hi20(_ZGVZN9benchmark8internal18GetNullLogInstanceEvE8null_log)
	addi.d	$a0, $a0, %pc_lo12(_ZGVZN9benchmark8internal18GetNullLogInstanceEvE8null_log)
	pcaddu18i	$ra, %call36(__cxa_guard_release)
	jirl	$ra, $ra, 0
	b	.LBB9_13
.LBB9_23:                               # %cond.false19
.Ltmp500:                               # EH_LABEL
	pcalau12i	$a0, %pc_hi20(.L.str.205)
	addi.d	$a1, $a0, %pc_lo12(.L.str.205)
	pcalau12i	$a0, %pc_hi20(.L.str.204)
	addi.d	$a2, $a0, %pc_lo12(.L.str.204)
	pcalau12i	$a0, %pc_hi20(.L__func__._ZNK7Results5GetAsIdEET_RKNSt7__cxx1112basic_stringIcSt11char_traitsIcESaIcEEE)
	addi.d	$a3, $a0, %pc_lo12(.L__func__._ZNK7Results5GetAsIdEET_RKNSt7__cxx1112basic_stringIcSt11char_traitsIcESaIcEEE)
	addi.d	$a0, $sp, 8
	ori	$a4, $zero, 149
	pcaddu18i	$ra, %call36(_ZN9benchmark8internal12CheckHandlerC2EPKcS3_S3_i)
	jirl	$ra, $ra, 0
.Ltmp501:                               # EH_LABEL
# %bb.24:                               # %cleanup.action29
.Ltmp502:                               # EH_LABEL
	addi.d	$a0, $sp, 8
	pcaddu18i	$ra, %call36(_ZN9benchmark8internal12CheckHandlerD2Ev)
	jirl	$ra, $ra, 0
.Ltmp503:                               # EH_LABEL
# %bb.25:                               # %invoke.cont30
.LBB9_26:                               # %init.check.i8
	pcalau12i	$a0, %pc_hi20(_ZGVZN9benchmark8internal18GetNullLogInstanceEvE8null_log)
	addi.d	$a0, $a0, %pc_lo12(_ZGVZN9benchmark8internal18GetNullLogInstanceEvE8null_log)
	pcaddu18i	$ra, %call36(__cxa_guard_acquire)
	jirl	$ra, $ra, 0
	addi.w	$a0, $a0, 0
	beqz	$a0, .LBB9_17
# %bb.27:                               # %init.i10
	pcalau12i	$a0, %pc_hi20(_ZZN9benchmark8internal18GetNullLogInstanceEvE8null_log)
	st.d	$zero, $a0, %pc_lo12(_ZZN9benchmark8internal18GetNullLogInstanceEvE8null_log)
	pcalau12i	$a0, %pc_hi20(_ZGVZN9benchmark8internal18GetNullLogInstanceEvE8null_log)
	addi.d	$a0, $a0, %pc_lo12(_ZGVZN9benchmark8internal18GetNullLogInstanceEvE8null_log)
	pcaddu18i	$ra, %call36(__cxa_guard_release)
	jirl	$ra, $ra, 0
	b	.LBB9_17
.LBB9_28:                               # %lpad22
.Ltmp504:                               # EH_LABEL
	b	.LBB9_31
.LBB9_29:                               # %lpad10
.Ltmp499:                               # EH_LABEL
	b	.LBB9_31
.LBB9_30:                               # %lpad
.Ltmp496:                               # EH_LABEL
.LBB9_31:                               # %ehcleanup38
	move	$fp, $a0
	addi.d	$a0, $sp, 24
	pcaddu18i	$ra, %call36(_ZNSt7__cxx1118basic_stringstreamIcSt11char_traitsIcESaIcEED1Ev)
	jirl	$ra, $ra, 0
	move	$a0, $fp
	pcaddu18i	$ra, %call36(_Unwind_Resume)
	jirl	$ra, $ra, 0
.Lfunc_end9:
	.size	_ZNK7Results5GetAsIdEET_RKNSt7__cxx1112basic_stringIcSt11char_traitsIcESaIcEEE, .Lfunc_end9-_ZNK7Results5GetAsIdEET_RKNSt7__cxx1112basic_stringIcSt11char_traitsIcESaIcEEE
	.cfi_endproc
	.section	.gcc_except_table._ZNK7Results5GetAsIdEET_RKNSt7__cxx1112basic_stringIcSt11char_traitsIcESaIcEEE,"aG",@progbits,_ZNK7Results5GetAsIdEET_RKNSt7__cxx1112basic_stringIcSt11char_traitsIcESaIcEEE,comdat
	.p2align	2, 0x0
GCC_except_table9:
.Lexception4:
	.byte	255                             # @LPStart Encoding = omit
	.byte	255                             # @TType Encoding = omit
	.byte	1                               # Call site Encoding = uleb128
	.uleb128 .Lcst_end4-.Lcst_begin4
.Lcst_begin4:
	.uleb128 .Lfunc_begin4-.Lfunc_begin4    # >> Call Site 1 <<
	.uleb128 .Ltmp494-.Lfunc_begin4         #   Call between .Lfunc_begin4 and .Ltmp494
	.byte	0                               #     has no landing pad
	.byte	0                               #   On action: cleanup
	.uleb128 .Ltmp494-.Lfunc_begin4         # >> Call Site 2 <<
	.uleb128 .Ltmp495-.Ltmp494              #   Call between .Ltmp494 and .Ltmp495
	.uleb128 .Ltmp496-.Lfunc_begin4         #     jumps to .Ltmp496
	.byte	0                               #   On action: cleanup
	.uleb128 .Ltmp497-.Lfunc_begin4         # >> Call Site 3 <<
	.uleb128 .Ltmp498-.Ltmp497              #   Call between .Ltmp497 and .Ltmp498
	.uleb128 .Ltmp499-.Lfunc_begin4         #     jumps to .Ltmp499
	.byte	0                               #   On action: cleanup
	.uleb128 .Ltmp498-.Lfunc_begin4         # >> Call Site 4 <<
	.uleb128 .Ltmp500-.Ltmp498              #   Call between .Ltmp498 and .Ltmp500
	.byte	0                               #     has no landing pad
	.byte	0                               #   On action: cleanup
	.uleb128 .Ltmp500-.Lfunc_begin4         # >> Call Site 5 <<
	.uleb128 .Ltmp503-.Ltmp500              #   Call between .Ltmp500 and .Ltmp503
	.uleb128 .Ltmp504-.Lfunc_begin4         #     jumps to .Ltmp504
	.byte	0                               #   On action: cleanup
	.uleb128 .Ltmp503-.Lfunc_begin4         # >> Call Site 6 <<
	.uleb128 .Lfunc_end9-.Ltmp503           #   Call between .Ltmp503 and .Lfunc_end9
	.byte	0                               #     has no landing pad
	.byte	0                               #   On action: cleanup
.Lcst_end4:
	.p2align	2, 0x0
                                        # -- End function
	.text
	.hidden	_Z16BM_Counters_RateRN9benchmark5StateE # -- Begin function _Z16BM_Counters_RateRN9benchmark5StateE
	.globl	_Z16BM_Counters_RateRN9benchmark5StateE
	.p2align	5
	.type	_Z16BM_Counters_RateRN9benchmark5StateE,@function
_Z16BM_Counters_RateRN9benchmark5StateE: # @_Z16BM_Counters_RateRN9benchmark5StateE
.Lfunc_begin5:
	.cfi_startproc
	.cfi_personality 155, DW.ref.__gxx_personality_v0
	.cfi_lsda 27, .Lexception5
# %bb.0:                                # %entry
	addi.d	$sp, $sp, -80
	.cfi_def_cfa_offset 80
	st.d	$ra, $sp, 72                    # 8-byte Folded Spill
	st.d	$fp, $sp, 64                    # 8-byte Folded Spill
	st.d	$s0, $sp, 56                    # 8-byte Folded Spill
	st.d	$s1, $sp, 48                    # 8-byte Folded Spill
	.cfi_offset 1, -8
	.cfi_offset 22, -16
	.cfi_offset 23, -24
	.cfi_offset 24, -32
	move	$fp, $a0
	ld.w	$s1, $a0, 28
	ld.d	$s0, $a0, 16
	pcaddu18i	$ra, %call36(_ZN9benchmark5State16StartKeepRunningEv)
	jirl	$ra, $ra, 0
	bnez	$s1, .LBB10_7
# %bb.1:                                # %entry
	beqz	$s0, .LBB10_7
# %bb.2:
	movgr2fr.d	$fa0, $zero
	addi.d	$a0, $sp, 16
	.p2align	4, , 16
.LBB10_3:                               # %for.body
                                        # =>This Inner Loop Header: Depth=1
	ld.bu	$a1, $fp, 24
	fmov.d	$fa1, $fa0
	beqz	$a1, .LBB10_5
# %bb.4:                                # %if.end.i18
                                        #   in Loop: Header=BB10_3 Depth=1
	ld.d	$a1, $fp, 16
	ld.d	$a2, $fp, 0
	ld.d	$a3, $fp, 8
	sub.d	$a1, $a1, $a2
	add.d	$a1, $a1, $a3
	movgr2fr.d	$fa1, $a1
	ffint.d.l	$fa1, $fa1
	fmul.d	$fa1, $fa1, $fa1
.LBB10_5:                               # %_ZNK9benchmark5State10iterationsEv.exit
                                        #   in Loop: Header=BB10_3 Depth=1
	fst.d	$fa1, $sp, 16
	#APP
	#NO_APP
	blez	$s0, .LBB10_14
# %bb.6:                                # %for.cond
                                        #   in Loop: Header=BB10_3 Depth=1
	addi.d	$s0, $s0, -1
	bnez	$s0, .LBB10_3
.LBB10_7:                               # %for.cond.cleanup
	move	$a0, $fp
	pcaddu18i	$ra, %call36(_ZN9benchmark5State17FinishKeepRunningEv)
	jirl	$ra, $ra, 0
	addi.d	$fp, $fp, 64
	addi.d	$s0, $sp, 32
	st.d	$s0, $sp, 16
	pcalau12i	$a0, %pc_hi20(.L.str.5)
	addi.d	$a0, $a0, %pc_lo12(.L.str.5)
	ld.h	$a1, $a0, 0
	ld.b	$a0, $a0, 2
	st.h	$a1, $sp, 32
	st.b	$a0, $sp, 34
	ori	$a0, $zero, 3
	st.d	$a0, $sp, 24
	st.b	$zero, $sp, 35
.Ltmp505:                               # EH_LABEL
	addi.d	$a1, $sp, 16
	move	$a0, $fp
	pcaddu18i	$ra, %call36(_ZNSt3mapINSt7__cxx1112basic_stringIcSt11char_traitsIcESaIcEEEN9benchmark7CounterESt4lessIS5_ESaISt4pairIKS5_S7_EEEixEOS5_)
	jirl	$ra, $ra, 0
.Ltmp506:                               # EH_LABEL
# %bb.8:                                # %invoke.cont11
	lu52i.d	$a1, $zero, 1023
	st.d	$a1, $a0, 0
	ld.d	$a2, $sp, 16
	ori	$a1, $zero, 1
	lu32i.d	$a1, 1000
	st.d	$a1, $a0, 8
	beq	$a2, $s0, .LBB10_10
# %bb.9:                                # %if.then.i.i35
	ld.d	$a0, $sp, 32
	addi.d	$a1, $a0, 1
	move	$a0, $a2
	pcaddu18i	$ra, %call36(_ZdlPvm)
	jirl	$ra, $ra, 0
.LBB10_10:                              # %_ZNSt7__cxx1112basic_stringIcSt11char_traitsIcESaIcEED2Ev.exit
	st.d	$s0, $sp, 16
	pcalau12i	$a0, %pc_hi20(.L.str.6)
	addi.d	$a0, $a0, %pc_lo12(.L.str.6)
	ld.h	$a1, $a0, 0
	ld.b	$a0, $a0, 2
	st.h	$a1, $sp, 32
	st.b	$a0, $sp, 34
	ori	$a0, $zero, 3
	st.d	$a0, $sp, 24
	st.b	$zero, $sp, 35
.Ltmp508:                               # EH_LABEL
	addi.d	$a1, $sp, 16
	move	$a0, $fp
	pcaddu18i	$ra, %call36(_ZNSt3mapINSt7__cxx1112basic_stringIcSt11char_traitsIcESaIcEEEN9benchmark7CounterESt4lessIS5_ESaISt4pairIKS5_S7_EEEixEOS5_)
	jirl	$ra, $ra, 0
.Ltmp509:                               # EH_LABEL
# %bb.11:                               # %invoke.cont23
	lu52i.d	$a1, $zero, 1024
	st.d	$a1, $a0, 0
	ld.d	$a2, $sp, 16
	ori	$a1, $zero, 1
	lu32i.d	$a1, 1000
	st.d	$a1, $a0, 8
	beq	$a2, $s0, .LBB10_13
# %bb.12:                               # %if.then.i.i50
	ld.d	$a0, $sp, 32
	addi.d	$a1, $a0, 1
	move	$a0, $a2
	pcaddu18i	$ra, %call36(_ZdlPvm)
	jirl	$ra, $ra, 0
.LBB10_13:                              # %_ZNSt7__cxx1112basic_stringIcSt11char_traitsIcESaIcEED2Ev.exit55
	ld.d	$s1, $sp, 48                    # 8-byte Folded Reload
	ld.d	$s0, $sp, 56                    # 8-byte Folded Reload
	ld.d	$fp, $sp, 64                    # 8-byte Folded Reload
	ld.d	$ra, $sp, 72                    # 8-byte Folded Reload
	addi.d	$sp, $sp, 80
	ret
.LBB10_14:                              # %cond.false.i
	pcalau12i	$a0, %pc_hi20(.L.str.198)
	addi.d	$a0, $a0, %pc_lo12(.L.str.198)
	pcalau12i	$a1, %pc_hi20(.L.str.199)
	addi.d	$a1, $a1, %pc_lo12(.L.str.199)
	pcalau12i	$a2, %pc_hi20(.L__PRETTY_FUNCTION__._ZN9benchmark5State13StateIteratorppEv)
	addi.d	$a3, $a2, %pc_lo12(.L__PRETTY_FUNCTION__._ZN9benchmark5State13StateIteratorppEv)
	ori	$a2, $zero, 1134
	pcaddu18i	$ra, %call36(__assert_fail)
	jirl	$ra, $ra, 0
.LBB10_15:                              # %lpad22
.Ltmp510:                               # EH_LABEL
	b	.LBB10_17
.LBB10_16:                              # %lpad10
.Ltmp507:                               # EH_LABEL
.LBB10_17:                              # %lpad22
	ld.d	$a2, $sp, 16
	move	$fp, $a0
	beq	$a2, $s0, .LBB10_19
# %bb.18:                               # %if.then.i.i64
	ld.d	$a0, $sp, 32
	addi.d	$a1, $a0, 1
	move	$a0, $a2
	pcaddu18i	$ra, %call36(_ZdlPvm)
	jirl	$ra, $ra, 0
.LBB10_19:                              # %eh.resume
	move	$a0, $fp
	pcaddu18i	$ra, %call36(_Unwind_Resume)
	jirl	$ra, $ra, 0
.Lfunc_end10:
	.size	_Z16BM_Counters_RateRN9benchmark5StateE, .Lfunc_end10-_Z16BM_Counters_RateRN9benchmark5StateE
	.cfi_endproc
	.section	.gcc_except_table,"a",@progbits
	.p2align	2, 0x0
GCC_except_table10:
.Lexception5:
	.byte	255                             # @LPStart Encoding = omit
	.byte	255                             # @TType Encoding = omit
	.byte	1                               # Call site Encoding = uleb128
	.uleb128 .Lcst_end5-.Lcst_begin5
.Lcst_begin5:
	.uleb128 .Lfunc_begin5-.Lfunc_begin5    # >> Call Site 1 <<
	.uleb128 .Ltmp505-.Lfunc_begin5         #   Call between .Lfunc_begin5 and .Ltmp505
	.byte	0                               #     has no landing pad
	.byte	0                               #   On action: cleanup
	.uleb128 .Ltmp505-.Lfunc_begin5         # >> Call Site 2 <<
	.uleb128 .Ltmp506-.Ltmp505              #   Call between .Ltmp505 and .Ltmp506
	.uleb128 .Ltmp507-.Lfunc_begin5         #     jumps to .Ltmp507
	.byte	0                               #   On action: cleanup
	.uleb128 .Ltmp506-.Lfunc_begin5         # >> Call Site 3 <<
	.uleb128 .Ltmp508-.Ltmp506              #   Call between .Ltmp506 and .Ltmp508
	.byte	0                               #     has no landing pad
	.byte	0                               #   On action: cleanup
	.uleb128 .Ltmp508-.Lfunc_begin5         # >> Call Site 4 <<
	.uleb128 .Ltmp509-.Ltmp508              #   Call between .Ltmp508 and .Ltmp509
	.uleb128 .Ltmp510-.Lfunc_begin5         #     jumps to .Ltmp510
	.byte	0                               #   On action: cleanup
	.uleb128 .Ltmp509-.Lfunc_begin5         # >> Call Site 5 <<
	.uleb128 .Lfunc_end10-.Ltmp509          #   Call between .Ltmp509 and .Lfunc_end10
	.byte	0                               #     has no landing pad
	.byte	0                               #   On action: cleanup
.Lcst_end5:
	.p2align	2, 0x0
                                        # -- End function
	.section	.rodata.cst8,"aM",@progbits,8
	.p2align	3, 0x0                          # -- Begin function _Z9CheckRateRK7Results
.LCPI11_0:
	.dword	0x3f50624dd2f1a9fc              # double 0.001
.LCPI11_1:
	.dword	0x3fb999999999999a              # double 0.10000000000000001
.LCPI11_2:
	.dword	0x3ee4f8b588e368f1              # double 1.0000000000000001E-5
.LCPI11_3:
	.dword	0x4059000000000000              # double 100
	.text
	.hidden	_Z9CheckRateRK7Results
	.globl	_Z9CheckRateRK7Results
	.p2align	5
	.type	_Z9CheckRateRK7Results,@function
_Z9CheckRateRK7Results:                 # @_Z9CheckRateRK7Results
.Lfunc_begin6:
	.cfi_startproc
	.cfi_personality 155, DW.ref.__gxx_personality_v0
	.cfi_lsda 27, .Lexception6
# %bb.0:                                # %entry
	addi.d	$sp, $sp, -304
	.cfi_def_cfa_offset 304
	st.d	$ra, $sp, 296                   # 8-byte Folded Spill
	st.d	$fp, $sp, 288                   # 8-byte Folded Spill
	st.d	$s0, $sp, 280                   # 8-byte Folded Spill
	st.d	$s1, $sp, 272                   # 8-byte Folded Spill
	st.d	$s2, $sp, 264                   # 8-byte Folded Spill
	st.d	$s3, $sp, 256                   # 8-byte Folded Spill
	st.d	$s4, $sp, 248                   # 8-byte Folded Spill
	st.d	$s5, $sp, 240                   # 8-byte Folded Spill
	st.d	$s6, $sp, 232                   # 8-byte Folded Spill
	st.d	$s7, $sp, 224                   # 8-byte Folded Spill
	st.d	$s8, $sp, 216                   # 8-byte Folded Spill
	fst.d	$fs0, $sp, 208                  # 8-byte Folded Spill
	fst.d	$fs1, $sp, 200                  # 8-byte Folded Spill
	fst.d	$fs2, $sp, 192                  # 8-byte Folded Spill
	fst.d	$fs3, $sp, 184                  # 8-byte Folded Spill
	fst.d	$fs4, $sp, 176                  # 8-byte Folded Spill
	.cfi_offset 1, -8
	.cfi_offset 22, -16
	.cfi_offset 23, -24
	.cfi_offset 24, -32
	.cfi_offset 25, -40
	.cfi_offset 26, -48
	.cfi_offset 27, -56
	.cfi_offset 28, -64
	.cfi_offset 29, -72
	.cfi_offset 30, -80
	.cfi_offset 31, -88
	.cfi_offset 56, -96
	.cfi_offset 57, -104
	.cfi_offset 58, -112
	.cfi_offset 59, -120
	.cfi_offset 60, -128
	move	$fp, $a0
	pcaddu18i	$ra, %call36(_ZNK7Results13NumIterationsEv)
	jirl	$ra, $ra, 0
	fmov.d	$fs0, $fa0
	move	$a0, $fp
	move	$a1, $zero
	pcaddu18i	$ra, %call36(_ZNK7Results7GetTimeENS_13BenchmarkTimeE)
	jirl	$ra, $ra, 0
	fmov.d	$fs1, $fa0
	addi.d	$s0, $sp, 160
	st.d	$s0, $sp, 144
	pcalau12i	$a0, %pc_hi20(.L.str.5)
	addi.d	$a0, $a0, %pc_lo12(.L.str.5)
	ld.h	$s4, $a0, 0
	ld.b	$s5, $a0, 2
	st.h	$s4, $sp, 160
	st.b	$s5, $sp, 162
	ori	$a0, $zero, 3
	st.d	$a0, $sp, 152
	st.b	$zero, $sp, 163
.Ltmp511:                               # EH_LABEL
	addi.d	$a1, $sp, 144
	move	$a0, $fp
	pcaddu18i	$ra, %call36(_ZNK7Results5GetAsIdEET_RKNSt7__cxx1112basic_stringIcSt11char_traitsIcESaIcEEE)
	jirl	$ra, $ra, 0
.Ltmp512:                               # EH_LABEL
# %bb.1:                                # %invoke.cont3
	fmul.d	$fs2, $fs0, $fs1
	pcalau12i	$a0, %pc_hi20(.LCPI11_0)
	fld.d	$fs3, $a0, %pc_lo12(.LCPI11_0)
	frecip.d	$fs1, $fs2
	fsub.d	$fa0, $fa0, $fs1
	fabs.d	$fs4, $fa0
	fmul.d	$fs0, $fs1, $fs3
	fcmp.cule.d	$fcc0, $fs0, $fs4
	movcf2gr	$a0, $fcc0
	st.d	$a0, $sp, 24
	bceqz	$fcc0, .LBB11_4
# %bb.2:                                # %cond.false
.Ltmp514:                               # EH_LABEL
	pcalau12i	$a0, %pc_hi20(.L.str.77)
	addi.d	$a1, $a0, %pc_lo12(.L.str.77)
	pcalau12i	$a0, %pc_hi20(.L.str.30)
	addi.d	$a2, $a0, %pc_lo12(.L.str.30)
	pcalau12i	$a0, %pc_hi20(.L__func__._Z9CheckRateRK7Results)
	addi.d	$a3, $a0, %pc_lo12(.L__func__._Z9CheckRateRK7Results)
	addi.d	$a0, $sp, 136
	ori	$a4, $zero, 154
	pcaddu18i	$ra, %call36(_ZN9benchmark8internal12CheckHandlerC2EPKcS3_S3_i)
	jirl	$ra, $ra, 0
.Ltmp515:                               # EH_LABEL
# %bb.3:                                # %invoke.cont10
	ld.d	$s6, $sp, 136
	b	.LBB11_5
.LBB11_4:                               # %cond.true
	pcalau12i	$a0, %pc_hi20(_ZGVZN9benchmark8internal18GetNullLogInstanceEvE8null_log)
	ld.b	$a0, $a0, %pc_lo12(_ZGVZN9benchmark8internal18GetNullLogInstanceEvE8null_log)
	dbar	20
	pcalau12i	$a1, %pc_hi20(_ZZN9benchmark8internal18GetNullLogInstanceEvE8null_log)
	addi.d	$s6, $a1, %pc_lo12(_ZZN9benchmark8internal18GetNullLogInstanceEvE8null_log)
	beqz	$a0, .LBB11_175
.LBB11_5:                               # %cond.end
	ld.d	$a0, $s6, 0
	beqz	$a0, .LBB11_37
# %bb.6:                                # %if.then.i
.Ltmp516:                               # EH_LABEL
	pcalau12i	$a1, %pc_hi20(.L.str.31)
	addi.d	$a1, $a1, %pc_lo12(.L.str.31)
	ori	$a2, $zero, 1
	pcaddu18i	$ra, %call36(_ZSt16__ostream_insertIcSt11char_traitsIcEERSt13basic_ostreamIT_T0_ES6_PKS3_l)
	jirl	$ra, $ra, 0
.Ltmp517:                               # EH_LABEL
# %bb.7:                                # %invoke.cont15
	ld.d	$a0, $s6, 0
	beqz	$a0, .LBB11_37
# %bb.8:                                # %if.then.i69
.Ltmp518:                               # EH_LABEL
	pcalau12i	$a1, %pc_hi20(.L.str.30)
	addi.d	$a1, $a1, %pc_lo12(.L.str.30)
	ori	$a2, $zero, 86
	pcaddu18i	$ra, %call36(_ZSt16__ostream_insertIcSt11char_traitsIcEERSt13basic_ostreamIT_T0_ES6_PKS3_l)
	jirl	$ra, $ra, 0
.Ltmp519:                               # EH_LABEL
# %bb.9:                                # %invoke.cont17
	ld.d	$a0, $s6, 0
	beqz	$a0, .LBB11_37
# %bb.10:                               # %if.then.i74
.Ltmp520:                               # EH_LABEL
	pcalau12i	$a1, %pc_hi20(.L.str.32)
	addi.d	$a1, $a1, %pc_lo12(.L.str.32)
	ori	$a2, $zero, 1
	pcaddu18i	$ra, %call36(_ZSt16__ostream_insertIcSt11char_traitsIcEERSt13basic_ostreamIT_T0_ES6_PKS3_l)
	jirl	$ra, $ra, 0
.Ltmp521:                               # EH_LABEL
# %bb.11:                               # %invoke.cont19
	ld.d	$a0, $s6, 0
	beqz	$a0, .LBB11_37
# %bb.12:                               # %if.then.i80
.Ltmp523:                               # EH_LABEL
	ori	$a1, $zero, 154
	pcaddu18i	$ra, %call36(_ZNSolsEi)
	jirl	$ra, $ra, 0
.Ltmp524:                               # EH_LABEL
# %bb.13:                               # %invoke.cont23
	ld.d	$a0, $s6, 0
	beqz	$a0, .LBB11_37
# %bb.14:                               # %if.then.i84
.Ltmp525:                               # EH_LABEL
	pcalau12i	$a1, %pc_hi20(.L.str.33)
	addi.d	$a1, $a1, %pc_lo12(.L.str.33)
	ori	$a2, $zero, 2
	pcaddu18i	$ra, %call36(_ZSt16__ostream_insertIcSt11char_traitsIcEERSt13basic_ostreamIT_T0_ES6_PKS3_l)
	jirl	$ra, $ra, 0
.Ltmp526:                               # EH_LABEL
# %bb.15:                               # %invoke.cont25
	ld.d	$a0, $s6, 0
	beqz	$a0, .LBB11_37
# %bb.16:                               # %if.then.i89
	ld.d	$a1, $fp, 0
	ld.d	$a2, $fp, 8
.Ltmp527:                               # EH_LABEL
	pcaddu18i	$ra, %call36(_ZSt16__ostream_insertIcSt11char_traitsIcEERSt13basic_ostreamIT_T0_ES6_PKS3_l)
	jirl	$ra, $ra, 0
.Ltmp528:                               # EH_LABEL
# %bb.17:                               # %invoke.cont27
	ld.d	$a0, $s6, 0
	beqz	$a0, .LBB11_37
# %bb.18:                               # %if.then.i92
.Ltmp529:                               # EH_LABEL
	pcalau12i	$a1, %pc_hi20(.L.str.34)
	addi.d	$a1, $a1, %pc_lo12(.L.str.34)
	ori	$a2, $zero, 2
	pcaddu18i	$ra, %call36(_ZSt16__ostream_insertIcSt11char_traitsIcEERSt13basic_ostreamIT_T0_ES6_PKS3_l)
	jirl	$ra, $ra, 0
.Ltmp530:                               # EH_LABEL
# %bb.19:                               # %invoke.cont29
	ld.d	$a0, $s6, 0
	beqz	$a0, .LBB11_37
# %bb.20:                               # %if.then.i98
.Ltmp531:                               # EH_LABEL
	pcalau12i	$a1, %pc_hi20(.L.str.30)
	addi.d	$a1, $a1, %pc_lo12(.L.str.30)
	ori	$a2, $zero, 86
	pcaddu18i	$ra, %call36(_ZSt16__ostream_insertIcSt11char_traitsIcEERSt13basic_ostreamIT_T0_ES6_PKS3_l)
	jirl	$ra, $ra, 0
.Ltmp532:                               # EH_LABEL
# %bb.21:                               # %invoke.cont31
	ld.d	$a0, $s6, 0
	beqz	$a0, .LBB11_37
# %bb.22:                               # %if.then.i104
.Ltmp533:                               # EH_LABEL
	pcalau12i	$a1, %pc_hi20(.L.str.32)
	addi.d	$a1, $a1, %pc_lo12(.L.str.32)
	ori	$a2, $zero, 1
	pcaddu18i	$ra, %call36(_ZSt16__ostream_insertIcSt11char_traitsIcEERSt13basic_ostreamIT_T0_ES6_PKS3_l)
	jirl	$ra, $ra, 0
.Ltmp534:                               # EH_LABEL
# %bb.23:                               # %invoke.cont33
	ld.d	$a0, $s6, 0
	beqz	$a0, .LBB11_37
# %bb.24:                               # %if.then.i110
.Ltmp536:                               # EH_LABEL
	ori	$a1, $zero, 154
	pcaddu18i	$ra, %call36(_ZNSolsEi)
	jirl	$ra, $ra, 0
.Ltmp537:                               # EH_LABEL
# %bb.25:                               # %invoke.cont37
	ld.d	$a0, $s6, 0
	beqz	$a0, .LBB11_37
# %bb.26:                               # %if.then.i115
.Ltmp538:                               # EH_LABEL
	pcalau12i	$a1, %pc_hi20(.L.str.33)
	addi.d	$a1, $a1, %pc_lo12(.L.str.33)
	ori	$a2, $zero, 2
	pcaddu18i	$ra, %call36(_ZSt16__ostream_insertIcSt11char_traitsIcEERSt13basic_ostreamIT_T0_ES6_PKS3_l)
	jirl	$ra, $ra, 0
.Ltmp539:                               # EH_LABEL
# %bb.27:                               # %invoke.cont39
	ld.d	$a0, $s6, 0
	beqz	$a0, .LBB11_37
# %bb.28:                               # %if.then.i121
.Ltmp540:                               # EH_LABEL
	pcalau12i	$a1, %pc_hi20(.L.str.35)
	addi.d	$a1, $a1, %pc_lo12(.L.str.35)
	ori	$a2, $zero, 10
	pcaddu18i	$ra, %call36(_ZSt16__ostream_insertIcSt11char_traitsIcEERSt13basic_ostreamIT_T0_ES6_PKS3_l)
	jirl	$ra, $ra, 0
.Ltmp541:                               # EH_LABEL
# %bb.29:                               # %invoke.cont41
	ld.d	$a0, $s6, 0
	beqz	$a0, .LBB11_37
# %bb.30:                               # %if.then.i126
.Ltmp542:                               # EH_LABEL
	pcalau12i	$a1, %pc_hi20(.L.str.41)
	addi.d	$a1, $a1, %pc_lo12(.L.str.41)
	ori	$a2, $zero, 6
	pcaddu18i	$ra, %call36(_ZSt16__ostream_insertIcSt11char_traitsIcEERSt13basic_ostreamIT_T0_ES6_PKS3_l)
	jirl	$ra, $ra, 0
.Ltmp543:                               # EH_LABEL
# %bb.31:                               # %invoke.cont43
	ld.d	$a0, $s6, 0
	beqz	$a0, .LBB11_37
# %bb.32:                               # %if.then.i131
.Ltmp544:                               # EH_LABEL
	pcalau12i	$a1, %pc_hi20(.L.str.37)
	addi.d	$a1, $a1, %pc_lo12(.L.str.37)
	ori	$a2, $zero, 1
	pcaddu18i	$ra, %call36(_ZSt16__ostream_insertIcSt11char_traitsIcEERSt13basic_ostreamIT_T0_ES6_PKS3_l)
	jirl	$ra, $ra, 0
.Ltmp545:                               # EH_LABEL
# %bb.33:                               # %invoke.cont45
	ld.d	$a0, $s6, 0
	beqz	$a0, .LBB11_37
# %bb.34:                               # %if.then.i137
.Ltmp546:                               # EH_LABEL
	pcalau12i	$a1, %pc_hi20(.L.str.5)
	addi.d	$a1, $a1, %pc_lo12(.L.str.5)
	ori	$a2, $zero, 3
	pcaddu18i	$ra, %call36(_ZSt16__ostream_insertIcSt11char_traitsIcEERSt13basic_ostreamIT_T0_ES6_PKS3_l)
	jirl	$ra, $ra, 0
.Ltmp547:                               # EH_LABEL
# %bb.35:                               # %invoke.cont47
	ld.d	$a0, $s6, 0
	beqz	$a0, .LBB11_37
# %bb.36:                               # %if.then.i142
.Ltmp548:                               # EH_LABEL
	pcalau12i	$a1, %pc_hi20(.L.str.38)
	addi.d	$a1, $a1, %pc_lo12(.L.str.38)
	ori	$a2, $zero, 1
	pcaddu18i	$ra, %call36(_ZSt16__ostream_insertIcSt11char_traitsIcEERSt13basic_ostreamIT_T0_ES6_PKS3_l)
	jirl	$ra, $ra, 0
.Ltmp549:                               # EH_LABEL
.LBB11_37:                              # %invoke.cont49
	addi.d	$s1, $sp, 120
	st.d	$s1, $sp, 104
	st.h	$s4, $sp, 120
	st.b	$s5, $sp, 122
	ori	$a0, $zero, 3
	st.d	$a0, $sp, 112
	st.b	$zero, $sp, 123
.Ltmp551:                               # EH_LABEL
	addi.d	$a1, $sp, 104
	move	$a0, $fp
	pcaddu18i	$ra, %call36(_ZNK7Results5GetAsIdEET_RKNSt7__cxx1112basic_stringIcSt11char_traitsIcESaIcEEE)
	jirl	$ra, $ra, 0
.Ltmp552:                               # EH_LABEL
# %bb.38:                               # %invoke.cont57
	ld.d	$a0, $s6, 0
	beqz	$a0, .LBB11_66
# %bb.39:                               # %if.then.i163
.Ltmp553:                               # EH_LABEL
	pcaddu18i	$ra, %call36(_ZNSo9_M_insertIdEERSoT_)
	jirl	$ra, $ra, 0
.Ltmp554:                               # EH_LABEL
# %bb.40:                               # %invoke.cont59
	ld.d	$a0, $s6, 0
	beqz	$a0, .LBB11_66
# %bb.41:                               # %if.then.i167
.Ltmp555:                               # EH_LABEL
	pcalau12i	$a1, %pc_hi20(.L.str.39)
	addi.d	$a1, $a1, %pc_lo12(.L.str.39)
	ori	$a2, $zero, 13
	pcaddu18i	$ra, %call36(_ZSt16__ostream_insertIcSt11char_traitsIcEERSt13basic_ostreamIT_T0_ES6_PKS3_l)
	jirl	$ra, $ra, 0
.Ltmp556:                               # EH_LABEL
# %bb.42:                               # %invoke.cont61
	ld.d	$a0, $s6, 0
	beqz	$a0, .LBB11_66
# %bb.43:                               # %if.then.i172
.Ltmp558:                               # EH_LABEL
	fmov.d	$fa0, $fs1
	pcaddu18i	$ra, %call36(_ZNSo9_M_insertIdEERSoT_)
	jirl	$ra, $ra, 0
.Ltmp559:                               # EH_LABEL
# %bb.44:                               # %invoke.cont66
	ld.d	$a0, $s6, 0
	beqz	$a0, .LBB11_66
# %bb.45:                               # %if.then.i177
.Ltmp560:                               # EH_LABEL
	pcalau12i	$a1, %pc_hi20(.L.str.31)
	addi.d	$a1, $a1, %pc_lo12(.L.str.31)
	ori	$a2, $zero, 1
	pcaddu18i	$ra, %call36(_ZSt16__ostream_insertIcSt11char_traitsIcEERSt13basic_ostreamIT_T0_ES6_PKS3_l)
	jirl	$ra, $ra, 0
.Ltmp561:                               # EH_LABEL
# %bb.46:                               # %invoke.cont68
	ld.d	$a0, $s6, 0
	beqz	$a0, .LBB11_66
# %bb.47:                               # %if.then.i183
.Ltmp562:                               # EH_LABEL
	pcalau12i	$a1, %pc_hi20(.L.str.30)
	addi.d	$a1, $a1, %pc_lo12(.L.str.30)
	ori	$a2, $zero, 86
	pcaddu18i	$ra, %call36(_ZSt16__ostream_insertIcSt11char_traitsIcEERSt13basic_ostreamIT_T0_ES6_PKS3_l)
	jirl	$ra, $ra, 0
.Ltmp563:                               # EH_LABEL
# %bb.48:                               # %invoke.cont70
	ld.d	$a0, $s6, 0
	beqz	$a0, .LBB11_66
# %bb.49:                               # %if.then.i189
.Ltmp564:                               # EH_LABEL
	pcalau12i	$a1, %pc_hi20(.L.str.32)
	addi.d	$a1, $a1, %pc_lo12(.L.str.32)
	ori	$a2, $zero, 1
	pcaddu18i	$ra, %call36(_ZSt16__ostream_insertIcSt11char_traitsIcEERSt13basic_ostreamIT_T0_ES6_PKS3_l)
	jirl	$ra, $ra, 0
.Ltmp565:                               # EH_LABEL
# %bb.50:                               # %invoke.cont72
	ld.d	$a0, $s6, 0
	beqz	$a0, .LBB11_66
# %bb.51:                               # %if.then.i195
.Ltmp567:                               # EH_LABEL
	ori	$a1, $zero, 154
	pcaddu18i	$ra, %call36(_ZNSolsEi)
	jirl	$ra, $ra, 0
.Ltmp568:                               # EH_LABEL
# %bb.52:                               # %invoke.cont76
	ld.d	$a0, $s6, 0
	beqz	$a0, .LBB11_66
# %bb.53:                               # %if.then.i200
.Ltmp569:                               # EH_LABEL
	pcalau12i	$a1, %pc_hi20(.L.str.33)
	addi.d	$a1, $a1, %pc_lo12(.L.str.33)
	ori	$a2, $zero, 2
	pcaddu18i	$ra, %call36(_ZSt16__ostream_insertIcSt11char_traitsIcEERSt13basic_ostreamIT_T0_ES6_PKS3_l)
	jirl	$ra, $ra, 0
.Ltmp570:                               # EH_LABEL
# %bb.54:                               # %invoke.cont78
	ld.d	$a0, $s6, 0
	beqz	$a0, .LBB11_66
# %bb.55:                               # %if.then.i206
.Ltmp571:                               # EH_LABEL
	pcalau12i	$a1, %pc_hi20(.L.str.42)
	addi.d	$a1, $a1, %pc_lo12(.L.str.42)
	ori	$a2, $zero, 18
	pcaddu18i	$ra, %call36(_ZSt16__ostream_insertIcSt11char_traitsIcEERSt13basic_ostreamIT_T0_ES6_PKS3_l)
	jirl	$ra, $ra, 0
.Ltmp572:                               # EH_LABEL
# %bb.56:                               # %invoke.cont80
	ld.d	$a0, $s6, 0
	beqz	$a0, .LBB11_66
# %bb.57:                               # %if.then.i211
.Ltmp574:                               # EH_LABEL
	fmov.d	$fa0, $fs0
	pcaddu18i	$ra, %call36(_ZNSo9_M_insertIdEERSoT_)
	jirl	$ra, $ra, 0
.Ltmp575:                               # EH_LABEL
# %bb.58:                               # %invoke.cont86
	ld.d	$a0, $s6, 0
	beqz	$a0, .LBB11_66
# %bb.59:                               # %if.then.i216
.Ltmp576:                               # EH_LABEL
	pcalau12i	$a1, %pc_hi20(.L.str.43)
	addi.d	$a1, $a1, %pc_lo12(.L.str.43)
	ori	$a2, $zero, 2
	pcaddu18i	$ra, %call36(_ZSt16__ostream_insertIcSt11char_traitsIcEERSt13basic_ostreamIT_T0_ES6_PKS3_l)
	jirl	$ra, $ra, 0
.Ltmp577:                               # EH_LABEL
# %bb.60:                               # %invoke.cont88
	ld.d	$a0, $s6, 0
	beqz	$a0, .LBB11_66
# %bb.61:                               # %if.then.i222
.Ltmp579:                               # EH_LABEL
	pcalau12i	$a1, %pc_hi20(.LCPI11_1)
	fld.d	$fa0, $a1, %pc_lo12(.LCPI11_1)
	pcaddu18i	$ra, %call36(_ZNSo9_M_insertIdEERSoT_)
	jirl	$ra, $ra, 0
.Ltmp580:                               # EH_LABEL
# %bb.62:                               # %invoke.cont92
	ld.d	$a0, $s6, 0
	beqz	$a0, .LBB11_66
# %bb.63:                               # %if.then.i227
.Ltmp581:                               # EH_LABEL
	pcalau12i	$a1, %pc_hi20(.L.str.44)
	addi.d	$a1, $a1, %pc_lo12(.L.str.44)
	ori	$a2, $zero, 4
	pcaddu18i	$ra, %call36(_ZSt16__ostream_insertIcSt11char_traitsIcEERSt13basic_ostreamIT_T0_ES6_PKS3_l)
	jirl	$ra, $ra, 0
.Ltmp582:                               # EH_LABEL
# %bb.64:                               # %invoke.cont94
	ld.d	$a0, $s6, 0
	beqz	$a0, .LBB11_66
# %bb.65:                               # %if.then.i232
.Ltmp583:                               # EH_LABEL
	pcalau12i	$a1, %pc_hi20(.L.str.45)
	addi.d	$a1, $a1, %pc_lo12(.L.str.45)
	ori	$a2, $zero, 14
	pcaddu18i	$ra, %call36(_ZSt16__ostream_insertIcSt11char_traitsIcEERSt13basic_ostreamIT_T0_ES6_PKS3_l)
	jirl	$ra, $ra, 0
.Ltmp584:                               # EH_LABEL
.LBB11_66:                              # %invoke.cont96
	addi.d	$s2, $sp, 88
	st.d	$s2, $sp, 72
	st.h	$s4, $sp, 88
	st.b	$s5, $sp, 90
	ori	$a0, $zero, 3
	st.d	$a0, $sp, 80
	st.b	$zero, $sp, 91
.Ltmp586:                               # EH_LABEL
	addi.d	$a1, $sp, 72
	move	$a0, $fp
	pcaddu18i	$ra, %call36(_ZNK7Results5GetAsIdEET_RKNSt7__cxx1112basic_stringIcSt11char_traitsIcESaIcEEE)
	jirl	$ra, $ra, 0
.Ltmp587:                               # EH_LABEL
# %bb.67:                               # %invoke.cont104
	ld.d	$a0, $s6, 0
	beqz	$a0, .LBB11_71
# %bb.68:                               # %if.then.i252
	fsub.d	$fa0, $fa0, $fs1
.Ltmp588:                               # EH_LABEL
	pcaddu18i	$ra, %call36(_ZNSo9_M_insertIdEERSoT_)
	jirl	$ra, $ra, 0
.Ltmp589:                               # EH_LABEL
# %bb.69:                               # %invoke.cont108
	ld.d	$a0, $s6, 0
	beqz	$a0, .LBB11_71
# %bb.70:                               # %if.then.i257
.Ltmp590:                               # EH_LABEL
	pcalau12i	$a1, %pc_hi20(.L.str.43)
	addi.d	$a1, $a1, %pc_lo12(.L.str.43)
	ori	$a2, $zero, 2
	pcaddu18i	$ra, %call36(_ZSt16__ostream_insertIcSt11char_traitsIcEERSt13basic_ostreamIT_T0_ES6_PKS3_l)
	jirl	$ra, $ra, 0
.Ltmp591:                               # EH_LABEL
.LBB11_71:                              # %invoke.cont110
	addi.d	$s3, $sp, 56
	st.d	$s3, $sp, 40
	st.h	$s4, $sp, 56
	st.b	$s5, $sp, 58
	ori	$a0, $zero, 3
	st.d	$a0, $sp, 48
	st.b	$zero, $sp, 59
.Ltmp593:                               # EH_LABEL
	addi.d	$a1, $sp, 40
	move	$a0, $fp
	pcaddu18i	$ra, %call36(_ZNK7Results5GetAsIdEET_RKNSt7__cxx1112basic_stringIcSt11char_traitsIcESaIcEEE)
	jirl	$ra, $ra, 0
.Ltmp594:                               # EH_LABEL
# %bb.72:                               # %invoke.cont118
	ld.d	$a0, $s6, 0
	pcalau12i	$s5, %pc_hi20(.LCPI11_2)
	pcalau12i	$s4, %pc_hi20(.LCPI11_3)
	beqz	$a0, .LBB11_76
# %bb.73:                               # %if.then.i278
	fld.d	$fa1, $s5, %pc_lo12(.LCPI11_2)
	fsub.d	$fa0, $fa0, $fs1
	fabs.d	$fa2, $fs1
	fld.d	$fa3, $s4, %pc_lo12(.LCPI11_3)
	fcmp.clt.d	$fcc0, $fa1, $fa2
	fsel	$fa1, $fa1, $fs1, $fcc0
	fdiv.d	$fa0, $fa0, $fa1
	fmul.d	$fa0, $fa0, $fa3
.Ltmp595:                               # EH_LABEL
	pcaddu18i	$ra, %call36(_ZNSo9_M_insertIdEERSoT_)
	jirl	$ra, $ra, 0
.Ltmp596:                               # EH_LABEL
# %bb.74:                               # %invoke.cont133
	ld.d	$a0, $s6, 0
	beqz	$a0, .LBB11_76
# %bb.75:                               # %if.then.i283
.Ltmp597:                               # EH_LABEL
	pcalau12i	$a1, %pc_hi20(.L.str.46)
	addi.d	$a1, $a1, %pc_lo12(.L.str.46)
	ori	$a2, $zero, 2
	pcaddu18i	$ra, %call36(_ZSt16__ostream_insertIcSt11char_traitsIcEERSt13basic_ostreamIT_T0_ES6_PKS3_l)
	jirl	$ra, $ra, 0
.Ltmp598:                               # EH_LABEL
.LBB11_76:                              # %invoke.cont135
	ld.d	$a0, $sp, 40
	beq	$a0, $s3, .LBB11_78
# %bb.77:                               # %if.then.i.i289
	ld.d	$a1, $sp, 56
	addi.d	$a1, $a1, 1
	pcaddu18i	$ra, %call36(_ZdlPvm)
	jirl	$ra, $ra, 0
.LBB11_78:                              # %_ZNSt7__cxx1112basic_stringIcSt11char_traitsIcESaIcEED2Ev.exit
	ld.d	$a0, $sp, 72
	beq	$a0, $s2, .LBB11_80
# %bb.79:                               # %if.then.i.i292
	ld.d	$a1, $sp, 88
	addi.d	$a1, $a1, 1
	pcaddu18i	$ra, %call36(_ZdlPvm)
	jirl	$ra, $ra, 0
.LBB11_80:                              # %_ZNSt7__cxx1112basic_stringIcSt11char_traitsIcESaIcEED2Ev.exit297
	ld.d	$a0, $sp, 104
	beq	$a0, $s1, .LBB11_82
# %bb.81:                               # %if.then.i.i299
	ld.d	$a1, $sp, 120
	addi.d	$a1, $a1, 1
	pcaddu18i	$ra, %call36(_ZdlPvm)
	jirl	$ra, $ra, 0
.LBB11_82:                              # %_ZNSt7__cxx1112basic_stringIcSt11char_traitsIcESaIcEED2Ev.exit304
	fcmp.clt.d	$fcc0, $fs4, $fs0
	bceqz	$fcc0, .LBB11_171
# %bb.83:                               # %cleanup.done164
	ld.d	$a0, $sp, 144
	beq	$a0, $s0, .LBB11_85
# %bb.84:                               # %if.then.i.i327
	ld.d	$a1, $sp, 160
	addi.d	$a1, $a1, 1
	pcaddu18i	$ra, %call36(_ZdlPvm)
	jirl	$ra, $ra, 0
.LBB11_85:                              # %_ZNSt7__cxx1112basic_stringIcSt11char_traitsIcESaIcEED2Ev.exit332
	st.d	$s0, $sp, 144
	pcalau12i	$a0, %pc_hi20(.L.str.6)
	addi.d	$a0, $a0, %pc_lo12(.L.str.6)
	ld.h	$s6, $a0, 0
	ld.b	$s7, $a0, 2
	st.h	$s6, $sp, 160
	st.b	$s7, $sp, 162
	ori	$a0, $zero, 3
	st.d	$a0, $sp, 152
	st.b	$zero, $sp, 163
.Ltmp600:                               # EH_LABEL
	addi.d	$a1, $sp, 144
	move	$a0, $fp
	pcaddu18i	$ra, %call36(_ZNK7Results5GetAsIdEET_RKNSt7__cxx1112basic_stringIcSt11char_traitsIcESaIcEEE)
	jirl	$ra, $ra, 0
.Ltmp601:                               # EH_LABEL
# %bb.86:                               # %invoke.cont178
	vldi	$vr1, -1024
	fdiv.d	$fs1, $fa1, $fs2
	fsub.d	$fa0, $fa0, $fs1
	fabs.d	$fs2, $fa0
	fmul.d	$fs0, $fs1, $fs3
	fcmp.cule.d	$fcc0, $fs0, $fs2
	bceqz	$fcc0, .LBB11_89
# %bb.87:                               # %cond.false188
.Ltmp603:                               # EH_LABEL
	pcalau12i	$a0, %pc_hi20(.L.str.78)
	addi.d	$a1, $a0, %pc_lo12(.L.str.78)
	pcalau12i	$a0, %pc_hi20(.L.str.30)
	addi.d	$a2, $a0, %pc_lo12(.L.str.30)
	pcalau12i	$a0, %pc_hi20(.L__func__._Z9CheckRateRK7Results)
	addi.d	$a3, $a0, %pc_lo12(.L__func__._Z9CheckRateRK7Results)
	addi.d	$a0, $sp, 32
	ori	$a4, $zero, 155
	pcaddu18i	$ra, %call36(_ZN9benchmark8internal12CheckHandlerC2EPKcS3_S3_i)
	jirl	$ra, $ra, 0
.Ltmp604:                               # EH_LABEL
# %bb.88:                               # %invoke.cont192
	ld.d	$s8, $sp, 32
	b	.LBB11_90
.LBB11_89:                              # %cond.true185
	pcalau12i	$a0, %pc_hi20(_ZGVZN9benchmark8internal18GetNullLogInstanceEvE8null_log)
	ld.b	$a0, $a0, %pc_lo12(_ZGVZN9benchmark8internal18GetNullLogInstanceEvE8null_log)
	dbar	20
	pcalau12i	$a1, %pc_hi20(_ZZN9benchmark8internal18GetNullLogInstanceEvE8null_log)
	addi.d	$s8, $a1, %pc_lo12(_ZZN9benchmark8internal18GetNullLogInstanceEvE8null_log)
	beqz	$a0, .LBB11_177
.LBB11_90:                              # %cond.end197
	ld.d	$a0, $s8, 0
	beqz	$a0, .LBB11_122
# %bb.91:                               # %if.then.i354
.Ltmp605:                               # EH_LABEL
	pcalau12i	$a1, %pc_hi20(.L.str.31)
	addi.d	$a1, $a1, %pc_lo12(.L.str.31)
	ori	$a2, $zero, 1
	pcaddu18i	$ra, %call36(_ZSt16__ostream_insertIcSt11char_traitsIcEERSt13basic_ostreamIT_T0_ES6_PKS3_l)
	jirl	$ra, $ra, 0
.Ltmp606:                               # EH_LABEL
# %bb.92:                               # %invoke.cont199
	ld.d	$a0, $s8, 0
	beqz	$a0, .LBB11_122
# %bb.93:                               # %if.then.i360
.Ltmp607:                               # EH_LABEL
	pcalau12i	$a1, %pc_hi20(.L.str.30)
	addi.d	$a1, $a1, %pc_lo12(.L.str.30)
	ori	$a2, $zero, 86
	pcaddu18i	$ra, %call36(_ZSt16__ostream_insertIcSt11char_traitsIcEERSt13basic_ostreamIT_T0_ES6_PKS3_l)
	jirl	$ra, $ra, 0
.Ltmp608:                               # EH_LABEL
# %bb.94:                               # %invoke.cont201
	ld.d	$a0, $s8, 0
	beqz	$a0, .LBB11_122
# %bb.95:                               # %if.then.i366
.Ltmp609:                               # EH_LABEL
	pcalau12i	$a1, %pc_hi20(.L.str.32)
	addi.d	$a1, $a1, %pc_lo12(.L.str.32)
	ori	$a2, $zero, 1
	pcaddu18i	$ra, %call36(_ZSt16__ostream_insertIcSt11char_traitsIcEERSt13basic_ostreamIT_T0_ES6_PKS3_l)
	jirl	$ra, $ra, 0
.Ltmp610:                               # EH_LABEL
# %bb.96:                               # %invoke.cont203
	ld.d	$a0, $s8, 0
	beqz	$a0, .LBB11_122
# %bb.97:                               # %if.then.i372
.Ltmp612:                               # EH_LABEL
	ori	$a1, $zero, 155
	pcaddu18i	$ra, %call36(_ZNSolsEi)
	jirl	$ra, $ra, 0
.Ltmp613:                               # EH_LABEL
# %bb.98:                               # %invoke.cont207
	ld.d	$a0, $s8, 0
	beqz	$a0, .LBB11_122
# %bb.99:                               # %if.then.i377
.Ltmp614:                               # EH_LABEL
	pcalau12i	$a1, %pc_hi20(.L.str.33)
	addi.d	$a1, $a1, %pc_lo12(.L.str.33)
	ori	$a2, $zero, 2
	pcaddu18i	$ra, %call36(_ZSt16__ostream_insertIcSt11char_traitsIcEERSt13basic_ostreamIT_T0_ES6_PKS3_l)
	jirl	$ra, $ra, 0
.Ltmp615:                               # EH_LABEL
# %bb.100:                              # %invoke.cont209
	ld.d	$a0, $s8, 0
	beqz	$a0, .LBB11_122
# %bb.101:                              # %if.then.i383
	ld.d	$a1, $fp, 0
	ld.d	$a2, $fp, 8
.Ltmp616:                               # EH_LABEL
	pcaddu18i	$ra, %call36(_ZSt16__ostream_insertIcSt11char_traitsIcEERSt13basic_ostreamIT_T0_ES6_PKS3_l)
	jirl	$ra, $ra, 0
.Ltmp617:                               # EH_LABEL
# %bb.102:                              # %invoke.cont212
	ld.d	$a0, $s8, 0
	beqz	$a0, .LBB11_122
# %bb.103:                              # %if.then.i390
.Ltmp618:                               # EH_LABEL
	pcalau12i	$a1, %pc_hi20(.L.str.34)
	addi.d	$a1, $a1, %pc_lo12(.L.str.34)
	ori	$a2, $zero, 2
	pcaddu18i	$ra, %call36(_ZSt16__ostream_insertIcSt11char_traitsIcEERSt13basic_ostreamIT_T0_ES6_PKS3_l)
	jirl	$ra, $ra, 0
.Ltmp619:                               # EH_LABEL
# %bb.104:                              # %invoke.cont214
	ld.d	$a0, $s8, 0
	beqz	$a0, .LBB11_122
# %bb.105:                              # %if.then.i396
.Ltmp620:                               # EH_LABEL
	pcalau12i	$a1, %pc_hi20(.L.str.30)
	addi.d	$a1, $a1, %pc_lo12(.L.str.30)
	ori	$a2, $zero, 86
	pcaddu18i	$ra, %call36(_ZSt16__ostream_insertIcSt11char_traitsIcEERSt13basic_ostreamIT_T0_ES6_PKS3_l)
	jirl	$ra, $ra, 0
.Ltmp621:                               # EH_LABEL
# %bb.106:                              # %invoke.cont216
	ld.d	$a0, $s8, 0
	beqz	$a0, .LBB11_122
# %bb.107:                              # %if.then.i402
.Ltmp622:                               # EH_LABEL
	pcalau12i	$a1, %pc_hi20(.L.str.32)
	addi.d	$a1, $a1, %pc_lo12(.L.str.32)
	ori	$a2, $zero, 1
	pcaddu18i	$ra, %call36(_ZSt16__ostream_insertIcSt11char_traitsIcEERSt13basic_ostreamIT_T0_ES6_PKS3_l)
	jirl	$ra, $ra, 0
.Ltmp623:                               # EH_LABEL
# %bb.108:                              # %invoke.cont218
	ld.d	$a0, $s8, 0
	beqz	$a0, .LBB11_122
# %bb.109:                              # %if.then.i408
.Ltmp625:                               # EH_LABEL
	ori	$a1, $zero, 155
	pcaddu18i	$ra, %call36(_ZNSolsEi)
	jirl	$ra, $ra, 0
.Ltmp626:                               # EH_LABEL
# %bb.110:                              # %invoke.cont222
	ld.d	$a0, $s8, 0
	beqz	$a0, .LBB11_122
# %bb.111:                              # %if.then.i413
.Ltmp627:                               # EH_LABEL
	pcalau12i	$a1, %pc_hi20(.L.str.33)
	addi.d	$a1, $a1, %pc_lo12(.L.str.33)
	ori	$a2, $zero, 2
	pcaddu18i	$ra, %call36(_ZSt16__ostream_insertIcSt11char_traitsIcEERSt13basic_ostreamIT_T0_ES6_PKS3_l)
	jirl	$ra, $ra, 0
.Ltmp628:                               # EH_LABEL
# %bb.112:                              # %invoke.cont224
	ld.d	$a0, $s8, 0
	beqz	$a0, .LBB11_122
# %bb.113:                              # %if.then.i419
.Ltmp629:                               # EH_LABEL
	pcalau12i	$a1, %pc_hi20(.L.str.35)
	addi.d	$a1, $a1, %pc_lo12(.L.str.35)
	ori	$a2, $zero, 10
	pcaddu18i	$ra, %call36(_ZSt16__ostream_insertIcSt11char_traitsIcEERSt13basic_ostreamIT_T0_ES6_PKS3_l)
	jirl	$ra, $ra, 0
.Ltmp630:                               # EH_LABEL
# %bb.114:                              # %invoke.cont226
	ld.d	$a0, $s8, 0
	beqz	$a0, .LBB11_122
# %bb.115:                              # %if.then.i425
.Ltmp631:                               # EH_LABEL
	pcalau12i	$a1, %pc_hi20(.L.str.41)
	addi.d	$a1, $a1, %pc_lo12(.L.str.41)
	ori	$a2, $zero, 6
	pcaddu18i	$ra, %call36(_ZSt16__ostream_insertIcSt11char_traitsIcEERSt13basic_ostreamIT_T0_ES6_PKS3_l)
	jirl	$ra, $ra, 0
.Ltmp632:                               # EH_LABEL
# %bb.116:                              # %invoke.cont228
	ld.d	$a0, $s8, 0
	beqz	$a0, .LBB11_122
# %bb.117:                              # %if.then.i431
.Ltmp633:                               # EH_LABEL
	pcalau12i	$a1, %pc_hi20(.L.str.37)
	addi.d	$a1, $a1, %pc_lo12(.L.str.37)
	ori	$a2, $zero, 1
	pcaddu18i	$ra, %call36(_ZSt16__ostream_insertIcSt11char_traitsIcEERSt13basic_ostreamIT_T0_ES6_PKS3_l)
	jirl	$ra, $ra, 0
.Ltmp634:                               # EH_LABEL
# %bb.118:                              # %invoke.cont230
	ld.d	$a0, $s8, 0
	beqz	$a0, .LBB11_122
# %bb.119:                              # %if.then.i437
.Ltmp635:                               # EH_LABEL
	pcalau12i	$a1, %pc_hi20(.L.str.6)
	addi.d	$a1, $a1, %pc_lo12(.L.str.6)
	ori	$a2, $zero, 3
	pcaddu18i	$ra, %call36(_ZSt16__ostream_insertIcSt11char_traitsIcEERSt13basic_ostreamIT_T0_ES6_PKS3_l)
	jirl	$ra, $ra, 0
.Ltmp636:                               # EH_LABEL
# %bb.120:                              # %invoke.cont232
	ld.d	$a0, $s8, 0
	beqz	$a0, .LBB11_122
# %bb.121:                              # %if.then.i443
.Ltmp637:                               # EH_LABEL
	pcalau12i	$a1, %pc_hi20(.L.str.38)
	addi.d	$a1, $a1, %pc_lo12(.L.str.38)
	ori	$a2, $zero, 1
	pcaddu18i	$ra, %call36(_ZSt16__ostream_insertIcSt11char_traitsIcEERSt13basic_ostreamIT_T0_ES6_PKS3_l)
	jirl	$ra, $ra, 0
.Ltmp638:                               # EH_LABEL
.LBB11_122:                             # %invoke.cont234
	st.d	$s1, $sp, 104
	st.h	$s6, $sp, 120
	st.b	$s7, $sp, 122
	ori	$a0, $zero, 3
	st.d	$a0, $sp, 112
	st.b	$zero, $sp, 123
.Ltmp640:                               # EH_LABEL
	addi.d	$a1, $sp, 104
	move	$a0, $fp
	pcaddu18i	$ra, %call36(_ZNK7Results5GetAsIdEET_RKNSt7__cxx1112basic_stringIcSt11char_traitsIcESaIcEEE)
	jirl	$ra, $ra, 0
.Ltmp641:                               # EH_LABEL
# %bb.123:                              # %invoke.cont242
	ld.d	$a0, $s8, 0
	beqz	$a0, .LBB11_151
# %bb.124:                              # %if.then.i464
.Ltmp642:                               # EH_LABEL
	pcaddu18i	$ra, %call36(_ZNSo9_M_insertIdEERSoT_)
	jirl	$ra, $ra, 0
.Ltmp643:                               # EH_LABEL
# %bb.125:                              # %invoke.cont244
	ld.d	$a0, $s8, 0
	beqz	$a0, .LBB11_151
# %bb.126:                              # %if.then.i469
.Ltmp644:                               # EH_LABEL
	pcalau12i	$a1, %pc_hi20(.L.str.39)
	addi.d	$a1, $a1, %pc_lo12(.L.str.39)
	ori	$a2, $zero, 13
	pcaddu18i	$ra, %call36(_ZSt16__ostream_insertIcSt11char_traitsIcEERSt13basic_ostreamIT_T0_ES6_PKS3_l)
	jirl	$ra, $ra, 0
.Ltmp645:                               # EH_LABEL
# %bb.127:                              # %invoke.cont246
	ld.d	$a0, $s8, 0
	beqz	$a0, .LBB11_151
# %bb.128:                              # %if.then.i475
.Ltmp647:                               # EH_LABEL
	fmov.d	$fa0, $fs1
	pcaddu18i	$ra, %call36(_ZNSo9_M_insertIdEERSoT_)
	jirl	$ra, $ra, 0
.Ltmp648:                               # EH_LABEL
# %bb.129:                              # %invoke.cont251
	ld.d	$a0, $s8, 0
	beqz	$a0, .LBB11_151
# %bb.130:                              # %if.then.i480
.Ltmp649:                               # EH_LABEL
	pcalau12i	$a1, %pc_hi20(.L.str.31)
	addi.d	$a1, $a1, %pc_lo12(.L.str.31)
	ori	$a2, $zero, 1
	pcaddu18i	$ra, %call36(_ZSt16__ostream_insertIcSt11char_traitsIcEERSt13basic_ostreamIT_T0_ES6_PKS3_l)
	jirl	$ra, $ra, 0
.Ltmp650:                               # EH_LABEL
# %bb.131:                              # %invoke.cont253
	ld.d	$a0, $s8, 0
	beqz	$a0, .LBB11_151
# %bb.132:                              # %if.then.i486
.Ltmp651:                               # EH_LABEL
	pcalau12i	$a1, %pc_hi20(.L.str.30)
	addi.d	$a1, $a1, %pc_lo12(.L.str.30)
	ori	$a2, $zero, 86
	pcaddu18i	$ra, %call36(_ZSt16__ostream_insertIcSt11char_traitsIcEERSt13basic_ostreamIT_T0_ES6_PKS3_l)
	jirl	$ra, $ra, 0
.Ltmp652:                               # EH_LABEL
# %bb.133:                              # %invoke.cont255
	ld.d	$a0, $s8, 0
	beqz	$a0, .LBB11_151
# %bb.134:                              # %if.then.i492
.Ltmp653:                               # EH_LABEL
	pcalau12i	$a1, %pc_hi20(.L.str.32)
	addi.d	$a1, $a1, %pc_lo12(.L.str.32)
	ori	$a2, $zero, 1
	pcaddu18i	$ra, %call36(_ZSt16__ostream_insertIcSt11char_traitsIcEERSt13basic_ostreamIT_T0_ES6_PKS3_l)
	jirl	$ra, $ra, 0
.Ltmp654:                               # EH_LABEL
# %bb.135:                              # %invoke.cont257
	ld.d	$a0, $s8, 0
	beqz	$a0, .LBB11_151
# %bb.136:                              # %if.then.i498
.Ltmp656:                               # EH_LABEL
	ori	$a1, $zero, 155
	pcaddu18i	$ra, %call36(_ZNSolsEi)
	jirl	$ra, $ra, 0
.Ltmp657:                               # EH_LABEL
# %bb.137:                              # %invoke.cont261
	ld.d	$a0, $s8, 0
	beqz	$a0, .LBB11_151
# %bb.138:                              # %if.then.i503
.Ltmp658:                               # EH_LABEL
	pcalau12i	$a1, %pc_hi20(.L.str.33)
	addi.d	$a1, $a1, %pc_lo12(.L.str.33)
	ori	$a2, $zero, 2
	pcaddu18i	$ra, %call36(_ZSt16__ostream_insertIcSt11char_traitsIcEERSt13basic_ostreamIT_T0_ES6_PKS3_l)
	jirl	$ra, $ra, 0
.Ltmp659:                               # EH_LABEL
# %bb.139:                              # %invoke.cont263
	ld.d	$a0, $s8, 0
	beqz	$a0, .LBB11_151
# %bb.140:                              # %if.then.i509
.Ltmp660:                               # EH_LABEL
	pcalau12i	$a1, %pc_hi20(.L.str.42)
	addi.d	$a1, $a1, %pc_lo12(.L.str.42)
	ori	$a2, $zero, 18
	pcaddu18i	$ra, %call36(_ZSt16__ostream_insertIcSt11char_traitsIcEERSt13basic_ostreamIT_T0_ES6_PKS3_l)
	jirl	$ra, $ra, 0
.Ltmp661:                               # EH_LABEL
# %bb.141:                              # %invoke.cont265
	ld.d	$a0, $s8, 0
	beqz	$a0, .LBB11_151
# %bb.142:                              # %if.then.i515
.Ltmp663:                               # EH_LABEL
	fmov.d	$fa0, $fs0
	pcaddu18i	$ra, %call36(_ZNSo9_M_insertIdEERSoT_)
	jirl	$ra, $ra, 0
.Ltmp664:                               # EH_LABEL
# %bb.143:                              # %invoke.cont271
	ld.d	$a0, $s8, 0
	beqz	$a0, .LBB11_151
# %bb.144:                              # %if.then.i520
.Ltmp665:                               # EH_LABEL
	pcalau12i	$a1, %pc_hi20(.L.str.43)
	addi.d	$a1, $a1, %pc_lo12(.L.str.43)
	ori	$a2, $zero, 2
	pcaddu18i	$ra, %call36(_ZSt16__ostream_insertIcSt11char_traitsIcEERSt13basic_ostreamIT_T0_ES6_PKS3_l)
	jirl	$ra, $ra, 0
.Ltmp666:                               # EH_LABEL
# %bb.145:                              # %invoke.cont273
	ld.d	$a0, $s8, 0
	beqz	$a0, .LBB11_151
# %bb.146:                              # %if.then.i526
.Ltmp668:                               # EH_LABEL
	pcalau12i	$a1, %pc_hi20(.LCPI11_1)
