	.file	"node.cc"
	.text
	.globl	_Z9newstringPKc                 # -- Begin function _Z9newstringPKc
	.p2align	5
	.type	_Z9newstringPKc,@function
_Z9newstringPKc:                        # @_Z9newstringPKc
	.cfi_startproc
# %bb.0:                                # %entry
	beqz	$a0, .LBB0_2
# %bb.1:                                # %if.then
	addi.d	$sp, $sp, -16
	.cfi_def_cfa_offset 16
	st.d	$ra, $sp, 8                     # 8-byte Folded Spill
	st.d	$fp, $sp, 0                     # 8-byte Folded Spill
	.cfi_offset 1, -8
	.cfi_offset 22, -16
	move	$fp, $a0
	pcaddu18i	$ra, %call36(strlen)
	jirl	$ra, $ra, 0
	addi.d	$a0, $a0, 1
	pcaddu18i	$ra, %call36(_Znam)
	jirl	$ra, $ra, 0
	move	$a1, $fp
	ld.d	$fp, $sp, 0                     # 8-byte Folded Reload
	ld.d	$ra, $sp, 8                     # 8-byte Folded Reload
	addi.d	$sp, $sp, 16
	pcaddu18i	$t8, %call36(strcpy)
	jr	$t8
.LBB0_2:                                # %if.end
	move	$a0, $zero
	ret
.Lfunc_end0:
	.size	_Z9newstringPKc, .Lfunc_end0-_Z9newstringPKc
	.cfi_endproc
                                        # -- End function
	.globl	_ZN4node5resetEv                # -- Begin function _ZN4node5resetEv
	.p2align	2
	.type	_ZN4node5resetEv,@function
_ZN4node5resetEv:                       # @_ZN4node5resetEv
# %bb.0:                                # %entry
	pcalau12i	$a0, %pc_hi20(_ZL13name_sequence)
	ori	$a1, $zero, 1
	st.w	$a1, $a0, %pc_lo12(_ZL13name_sequence)
	pcalau12i	$a0, %pc_hi20(_ZL27lambda_reduce_recurse_level)
	st.w	$zero, $a0, %pc_lo12(_ZL27lambda_reduce_recurse_level)
	pcalau12i	$a0, %pc_hi20(_ZL24app_reduce_recurse_level)
	st.w	$zero, $a0, %pc_lo12(_ZL24app_reduce_recurse_level)
	pcalau12i	$a0, %pc_hi20(_ZL24var_reduce_recurse_level)
	st.w	$zero, $a0, %pc_lo12(_ZL24var_reduce_recurse_level)
	ret
.Lfunc_end1:
	.size	_ZN4node5resetEv, .Lfunc_end1-_ZN4node5resetEv
                                        # -- End function
	.globl	_ZNK4node5printEPK9alst_nodei   # -- Begin function _ZNK4node5printEPK9alst_nodei
	.p2align	2
	.type	_ZNK4node5printEPK9alst_nodei,@function
_ZNK4node5printEPK9alst_nodei:          # @_ZNK4node5printEPK9alst_nodei
# %bb.0:                                # %entry
	pcalau12i	$a1, %pc_hi20(.L.str)
	addi.d	$a1, $a1, %pc_lo12(.L.str)
	move	$a2, $a0
	move	$a0, $a1
	move	$a1, $a2
	pcaddu18i	$t8, %call36(printf)
	jr	$t8
.Lfunc_end2:
	.size	_ZNK4node5printEPK9alst_nodei, .Lfunc_end2-_ZNK4node5printEPK9alst_nodei
                                        # -- End function
	.globl	_ZN8arg_nodeC2EPKcPK8exp_nodes  # -- Begin function _ZN8arg_nodeC2EPKcPK8exp_nodes
	.p2align	2
	.type	_ZN8arg_nodeC2EPKcPK8exp_nodes,@function
_ZN8arg_nodeC2EPKcPK8exp_nodes:         # @_ZN8arg_nodeC2EPKcPK8exp_nodes
	.cfi_startproc
# %bb.0:                                # %entry
	addi.d	$sp, $sp, -48
	.cfi_def_cfa_offset 48
	st.d	$ra, $sp, 40                    # 8-byte Folded Spill
	st.d	$fp, $sp, 32                    # 8-byte Folded Spill
	st.d	$s0, $sp, 24                    # 8-byte Folded Spill
	st.d	$s1, $sp, 16                    # 8-byte Folded Spill
	st.d	$s2, $sp, 8                     # 8-byte Folded Spill
	st.d	$s3, $sp, 0                     # 8-byte Folded Spill
	.cfi_offset 1, -8
	.cfi_offset 22, -16
	.cfi_offset 23, -24
	.cfi_offset 24, -32
	.cfi_offset 25, -40
	.cfi_offset 26, -48
	move	$s1, $a3
	move	$s0, $a2
	move	$fp, $a0
	st.d	$zero, $a0, 8
	pcalau12i	$a0, %pc_hi20(_ZTV8arg_node+16)
	addi.d	$a0, $a0, %pc_lo12(_ZTV8arg_node+16)
	st.d	$a0, $fp, 0
	beqz	$a1, .LBB3_4
# %bb.1:                                # %if.then.i
	move	$a0, $a1
	move	$s3, $a1
	pcaddu18i	$ra, %call36(strlen)
	jirl	$ra, $ra, 0
	addi.d	$a0, $a0, 1
	pcaddu18i	$ra, %call36(_Znam)
	jirl	$ra, $ra, 0
	move	$s2, $a0
	move	$a1, $s3
	pcaddu18i	$ra, %call36(strcpy)
	jirl	$ra, $ra, 0
	st.d	$s2, $fp, 16
	beqz	$s1, .LBB3_5
.LBB3_2:                                # %if.then
	beqz	$s0, .LBB3_8
# %bb.3:                                # %if.then3
	st.d	$s0, $fp, 24
	b	.LBB3_9
.LBB3_4:
	move	$s2, $zero
	st.d	$s2, $fp, 16
	bnez	$s1, .LBB3_2
.LBB3_5:                                # %if.else5
	beqz	$s0, .LBB3_8
# %bb.6:                                # %if.end13
	ld.d	$a0, $s0, 0
	ld.d	$a1, $a0, 0
	move	$a0, $s0
	jirl	$ra, $a1, 0
	st.d	$a0, $fp, 24
	beqz	$a0, .LBB3_9
# %bb.7:                                # %if.then16
	ld.d	$a1, $a0, 0
	ld.d	$a2, $a1, 96
	move	$a1, $fp
	ld.d	$s3, $sp, 0                     # 8-byte Folded Reload
	ld.d	$s2, $sp, 8                     # 8-byte Folded Reload
	ld.d	$s1, $sp, 16                    # 8-byte Folded Reload
	ld.d	$s0, $sp, 24                    # 8-byte Folded Reload
	ld.d	$fp, $sp, 32                    # 8-byte Folded Reload
	ld.d	$ra, $sp, 40                    # 8-byte Folded Reload
	addi.d	$sp, $sp, 48
	jr	$a2
.LBB3_8:                                # %if.else
	st.d	$zero, $fp, 24
.LBB3_9:                                # %if.end22
	ld.d	$s3, $sp, 0                     # 8-byte Folded Reload
	ld.d	$s2, $sp, 8                     # 8-byte Folded Reload
	ld.d	$s1, $sp, 16                    # 8-byte Folded Reload
	ld.d	$s0, $sp, 24                    # 8-byte Folded Reload
	ld.d	$fp, $sp, 32                    # 8-byte Folded Reload
	ld.d	$ra, $sp, 40                    # 8-byte Folded Reload
	addi.d	$sp, $sp, 48
	ret
.Lfunc_end3:
	.size	_ZN8arg_nodeC2EPKcPK8exp_nodes, .Lfunc_end3-_ZN8arg_nodeC2EPKcPK8exp_nodes
	.cfi_endproc
                                        # -- End function
	.globl	_ZN8arg_nodeC2ERKS_             # -- Begin function _ZN8arg_nodeC2ERKS_
	.p2align	2
	.type	_ZN8arg_nodeC2ERKS_,@function
_ZN8arg_nodeC2ERKS_:                    # @_ZN8arg_nodeC2ERKS_
	.cfi_startproc
# %bb.0:                                # %entry
	addi.d	$sp, $sp, -32
	.cfi_def_cfa_offset 32
	st.d	$ra, $sp, 24                    # 8-byte Folded Spill
	st.d	$fp, $sp, 16                    # 8-byte Folded Spill
	st.d	$s0, $sp, 8                     # 8-byte Folded Spill
	.cfi_offset 1, -8
	.cfi_offset 22, -16
	.cfi_offset 23, -24
	move	$s0, $a1
	move	$fp, $a0
	ld.d	$a0, $a1, 16
	st.d	$zero, $fp, 8
	pcalau12i	$a1, %pc_hi20(_ZTV8arg_node+16)
	addi.d	$a1, $a1, %pc_lo12(_ZTV8arg_node+16)
	st.d	$a1, $fp, 0
	beqz	$a0, .LBB4_4
# %bb.1:                                # %if.then
	pcaddu18i	$ra, %call36(strlen)
	jirl	$ra, $ra, 0
	addi.d	$a0, $a0, 1
	pcaddu18i	$ra, %call36(_Znam)
	jirl	$ra, $ra, 0
	st.d	$a0, $fp, 16
	ld.d	$a1, $s0, 16
	pcaddu18i	$ra, %call36(strcpy)
	jirl	$ra, $ra, 0
	ld.d	$a0, $s0, 24
	beqz	$a0, .LBB4_5
.LBB4_2:                                # %if.end17
	ld.d	$a1, $a0, 0
	ld.d	$a1, $a1, 0
	jirl	$ra, $a1, 0
	st.d	$a0, $fp, 24
	beqz	$a0, .LBB4_6
# %bb.3:                                # %if.then20
	ld.d	$a1, $a0, 0
	ld.d	$a2, $a1, 96
	move	$a1, $fp
	jirl	$ra, $a2, 0
	b	.LBB4_6
.LBB4_4:                                # %if.else
	st.d	$zero, $fp, 16
	ld.d	$a0, $s0, 24
	bnez	$a0, .LBB4_2
.LBB4_5:                                # %if.end17.thread
	st.d	$zero, $fp, 24
.LBB4_6:                                # %if.end25
	ld.d	$a0, $s0, 8
	st.d	$a0, $fp, 8
	ld.d	$s0, $sp, 8                     # 8-byte Folded Reload
	ld.d	$fp, $sp, 16                    # 8-byte Folded Reload
	ld.d	$ra, $sp, 24                    # 8-byte Folded Reload
	addi.d	$sp, $sp, 32
	ret
.Lfunc_end4:
	.size	_ZN8arg_nodeC2ERKS_, .Lfunc_end4-_ZN8arg_nodeC2ERKS_
	.cfi_endproc
                                        # -- End function
	.globl	_ZNK8arg_node5cloneEv           # -- Begin function _ZNK8arg_node5cloneEv
	.p2align	2
	.type	_ZNK8arg_node5cloneEv,@function
_ZNK8arg_node5cloneEv:                  # @_ZNK8arg_node5cloneEv
.Lfunc_begin0:
	.cfi_startproc
	.cfi_personality 155, DW.ref.__gxx_personality_v0
	.cfi_lsda 27, .Lexception0
# %bb.0:                                # %entry
	addi.d	$sp, $sp, -32
	.cfi_def_cfa_offset 32
	st.d	$ra, $sp, 24                    # 8-byte Folded Spill
	st.d	$fp, $sp, 16                    # 8-byte Folded Spill
	st.d	$s0, $sp, 8                     # 8-byte Folded Spill
	st.d	$s1, $sp, 0                     # 8-byte Folded Spill
	.cfi_offset 1, -8
	.cfi_offset 22, -16
	.cfi_offset 23, -24
	.cfi_offset 24, -32
	move	$s0, $a0
	ori	$a0, $zero, 32
	pcaddu18i	$ra, %call36(_Znwm)
	jirl	$ra, $ra, 0
	move	$fp, $a0
	ld.d	$s1, $s0, 16
	st.d	$zero, $a0, 8
	pcalau12i	$a0, %pc_hi20(_ZTV8arg_node+16)
	addi.d	$a0, $a0, %pc_lo12(_ZTV8arg_node+16)
	st.d	$a0, $fp, 0
	beqz	$s1, .LBB5_6
# %bb.1:                                # %if.then.i
	move	$a0, $s1
	pcaddu18i	$ra, %call36(strlen)
	jirl	$ra, $ra, 0
	addi.d	$a0, $a0, 1
.Ltmp0:                                 # EH_LABEL
	pcaddu18i	$ra, %call36(_Znam)
	jirl	$ra, $ra, 0
.Ltmp1:                                 # EH_LABEL
# %bb.2:                                # %call3.i.noexc
	st.d	$a0, $fp, 16
	move	$a1, $s1
	pcaddu18i	$ra, %call36(strcpy)
	jirl	$ra, $ra, 0
	ld.d	$a0, $s0, 24
	beqz	$a0, .LBB5_7
.LBB5_3:                                # %if.end17.i
	ld.d	$a1, $a0, 0
	ld.d	$a1, $a1, 0
.Ltmp2:                                 # EH_LABEL
	jirl	$ra, $a1, 0
.Ltmp3:                                 # EH_LABEL
# %bb.4:                                # %call13.i.noexc
	st.d	$a0, $fp, 24
	beqz	$a0, .LBB5_8
# %bb.5:                                # %if.then20.i
	ld.d	$a1, $a0, 0
	ld.d	$a2, $a1, 96
.Ltmp4:                                 # EH_LABEL
	move	$a1, $fp
	jirl	$ra, $a2, 0
.Ltmp5:                                 # EH_LABEL
	b	.LBB5_8
.LBB5_6:                                # %if.else.i
	st.d	$zero, $fp, 16
	ld.d	$a0, $s0, 24
	bnez	$a0, .LBB5_3
.LBB5_7:                                # %if.end17.thread.i
	st.d	$zero, $fp, 24
.LBB5_8:                                # %invoke.cont
	ld.d	$a0, $s0, 8
	st.d	$a0, $fp, 8
	move	$a0, $fp
	ld.d	$s1, $sp, 0                     # 8-byte Folded Reload
	ld.d	$s0, $sp, 8                     # 8-byte Folded Reload
	ld.d	$fp, $sp, 16                    # 8-byte Folded Reload
	ld.d	$ra, $sp, 24                    # 8-byte Folded Reload
	addi.d	$sp, $sp, 32
	ret
.LBB5_9:                                # %lpad
.Ltmp6:                                 # EH_LABEL
	move	$s0, $a0
	ori	$a1, $zero, 32
	move	$a0, $fp
	pcaddu18i	$ra, %call36(_ZdlPvm)
	jirl	$ra, $ra, 0
	move	$a0, $s0
	pcaddu18i	$ra, %call36(_Unwind_Resume)
	jirl	$ra, $ra, 0
.Lfunc_end5:
	.size	_ZNK8arg_node5cloneEv, .Lfunc_end5-_ZNK8arg_node5cloneEv
	.cfi_endproc
	.section	.gcc_except_table,"a",@progbits
	.p2align	2, 0x0
GCC_except_table5:
.Lexception0:
	.byte	255                             # @LPStart Encoding = omit
	.byte	255                             # @TType Encoding = omit
	.byte	1                               # Call site Encoding = uleb128
	.uleb128 .Lcst_end0-.Lcst_begin0
.Lcst_begin0:
	.uleb128 .Lfunc_begin0-.Lfunc_begin0    # >> Call Site 1 <<
	.uleb128 .Ltmp0-.Lfunc_begin0           #   Call between .Lfunc_begin0 and .Ltmp0
	.byte	0                               #     has no landing pad
	.byte	0                               #   On action: cleanup
	.uleb128 .Ltmp0-.Lfunc_begin0           # >> Call Site 2 <<
	.uleb128 .Ltmp1-.Ltmp0                  #   Call between .Ltmp0 and .Ltmp1
	.uleb128 .Ltmp6-.Lfunc_begin0           #     jumps to .Ltmp6
	.byte	0                               #   On action: cleanup
	.uleb128 .Ltmp1-.Lfunc_begin0           # >> Call Site 3 <<
	.uleb128 .Ltmp2-.Ltmp1                  #   Call between .Ltmp1 and .Ltmp2
	.byte	0                               #     has no landing pad
	.byte	0                               #   On action: cleanup
	.uleb128 .Ltmp2-.Lfunc_begin0           # >> Call Site 4 <<
	.uleb128 .Ltmp5-.Ltmp2                  #   Call between .Ltmp2 and .Ltmp5
	.uleb128 .Ltmp6-.Lfunc_begin0           #     jumps to .Ltmp6
	.byte	0                               #   On action: cleanup
	.uleb128 .Ltmp5-.Lfunc_begin0           # >> Call Site 5 <<
	.uleb128 .Lfunc_end5-.Ltmp5             #   Call between .Ltmp5 and .Lfunc_end5
	.byte	0                               #     has no landing pad
	.byte	0                               #   On action: cleanup
.Lcst_end0:
	.p2align	2, 0x0
                                        # -- End function
	.text
	.globl	_ZN8arg_nodeD2Ev                # -- Begin function _ZN8arg_nodeD2Ev
	.p2align	2
	.type	_ZN8arg_nodeD2Ev,@function
_ZN8arg_nodeD2Ev:                       # @_ZN8arg_nodeD2Ev
# %bb.0:                                # %entry
	addi.d	$sp, $sp, -16
	st.d	$ra, $sp, 8                     # 8-byte Folded Spill
	st.d	$fp, $sp, 0                     # 8-byte Folded Spill
	move	$fp, $a0
	ld.d	$a0, $a0, 16
	pcalau12i	$a1, %pc_hi20(_ZTV8arg_node+16)
	addi.d	$a1, $a1, %pc_lo12(_ZTV8arg_node+16)
	st.d	$a1, $fp, 0
	beqz	$a0, .LBB6_2
# %bb.1:                                # %delete.notnull
	pcaddu18i	$ra, %call36(_ZdaPv)
	jirl	$ra, $ra, 0
.LBB6_2:                                # %if.end
	ld.d	$a0, $fp, 24
	beqz	$a0, .LBB6_4
# %bb.3:                                # %delete.notnull7
	ld.d	$a1, $a0, 0
	ld.d	$a1, $a1, 16
	ld.d	$fp, $sp, 0                     # 8-byte Folded Reload
	ld.d	$ra, $sp, 8                     # 8-byte Folded Reload
	addi.d	$sp, $sp, 16
	jr	$a1
.LBB6_4:                                # %if.end9
	ld.d	$fp, $sp, 0                     # 8-byte Folded Reload
	ld.d	$ra, $sp, 8                     # 8-byte Folded Reload
	addi.d	$sp, $sp, 16
	ret
.Lfunc_end6:
	.size	_ZN8arg_nodeD2Ev, .Lfunc_end6-_ZN8arg_nodeD2Ev
                                        # -- End function
	.globl	_ZN8arg_nodeD0Ev                # -- Begin function _ZN8arg_nodeD0Ev
	.p2align	2
	.type	_ZN8arg_nodeD0Ev,@function
_ZN8arg_nodeD0Ev:                       # @_ZN8arg_nodeD0Ev
# %bb.0:                                # %entry
	addi.d	$sp, $sp, -16
	st.d	$ra, $sp, 8                     # 8-byte Folded Spill
	st.d	$fp, $sp, 0                     # 8-byte Folded Spill
	move	$fp, $a0
	ld.d	$a0, $a0, 16
	pcalau12i	$a1, %pc_hi20(_ZTV8arg_node+16)
	addi.d	$a1, $a1, %pc_lo12(_ZTV8arg_node+16)
	st.d	$a1, $fp, 0
	beqz	$a0, .LBB7_2
# %bb.1:                                # %delete.notnull.i
	pcaddu18i	$ra, %call36(_ZdaPv)
	jirl	$ra, $ra, 0
.LBB7_2:                                # %if.end.i
	ld.d	$a0, $fp, 24
	beqz	$a0, .LBB7_4
# %bb.3:                                # %delete.notnull7.i
	ld.d	$a1, $a0, 0
	ld.d	$a1, $a1, 16
	jirl	$ra, $a1, 0
.LBB7_4:                                # %_ZN8arg_nodeD2Ev.exit
	ori	$a1, $zero, 32
	move	$a0, $fp
	ld.d	$fp, $sp, 0                     # 8-byte Folded Reload
	ld.d	$ra, $sp, 8                     # 8-byte Folded Reload
	addi.d	$sp, $sp, 16
	pcaddu18i	$t8, %call36(_ZdlPvm)
	jr	$t8
.Lfunc_end7:
	.size	_ZN8arg_nodeD0Ev, .Lfunc_end7-_ZN8arg_nodeD0Ev
                                        # -- End function
	.globl	_ZN8arg_nodeaSERKS_             # -- Begin function _ZN8arg_nodeaSERKS_
	.p2align	2
	.type	_ZN8arg_nodeaSERKS_,@function
_ZN8arg_nodeaSERKS_:                    # @_ZN8arg_nodeaSERKS_
	.cfi_startproc
# %bb.0:                                # %entry
	addi.d	$sp, $sp, -32
	.cfi_def_cfa_offset 32
	st.d	$ra, $sp, 24                    # 8-byte Folded Spill
	st.d	$fp, $sp, 16                    # 8-byte Folded Spill
	st.d	$s0, $sp, 8                     # 8-byte Folded Spill
	.cfi_offset 1, -8
	.cfi_offset 22, -16
	.cfi_offset 23, -24
	move	$fp, $a0
	beq	$a0, $a1, .LBB8_8
# %bb.1:                                # %if.then
	move	$s0, $a1
	ld.d	$a0, $fp, 0
	ld.d	$a1, $a0, 8
	move	$a0, $fp
	jirl	$ra, $a1, 0
	ld.d	$a0, $s0, 16
	beqz	$a0, .LBB8_5
# %bb.2:                                # %if.then2
	pcaddu18i	$ra, %call36(strlen)
	jirl	$ra, $ra, 0
	addi.d	$a0, $a0, 1
	pcaddu18i	$ra, %call36(_Znam)
	jirl	$ra, $ra, 0
	st.d	$a0, $fp, 16
	ld.d	$a1, $s0, 16
	pcaddu18i	$ra, %call36(strcpy)
	jirl	$ra, $ra, 0
	ld.d	$a0, $s0, 24
	beqz	$a0, .LBB8_6
.LBB8_3:                                # %if.end19
	ld.d	$a1, $a0, 0
	ld.d	$a1, $a1, 0
	jirl	$ra, $a1, 0
	st.d	$a0, $fp, 24
	beqz	$a0, .LBB8_7
# %bb.4:                                # %if.then22
	ld.d	$a1, $a0, 0
	ld.d	$a2, $a1, 96
	move	$a1, $fp
	jirl	$ra, $a2, 0
	b	.LBB8_7
.LBB8_5:                                # %if.else
	st.d	$zero, $fp, 16
	ld.d	$a0, $s0, 24
	bnez	$a0, .LBB8_3
.LBB8_6:                                # %if.end19.thread
	st.d	$zero, $fp, 24
.LBB8_7:                                # %if.end26
	ld.d	$a0, $s0, 8
	st.d	$a0, $fp, 8
.LBB8_8:                                # %if.end28
	move	$a0, $fp
	ld.d	$s0, $sp, 8                     # 8-byte Folded Reload
	ld.d	$fp, $sp, 16                    # 8-byte Folded Reload
	ld.d	$ra, $sp, 24                    # 8-byte Folded Reload
	addi.d	$sp, $sp, 32
	ret
.Lfunc_end8:
	.size	_ZN8arg_nodeaSERKS_, .Lfunc_end8-_ZN8arg_nodeaSERKS_
	.cfi_endproc
                                        # -- End function
	.globl	_ZNK8arg_node5printEPK9alst_nodei # -- Begin function _ZNK8arg_node5printEPK9alst_nodei
	.p2align	2
	.type	_ZNK8arg_node5printEPK9alst_nodei,@function
_ZNK8arg_node5printEPK9alst_nodei:      # @_ZNK8arg_node5printEPK9alst_nodei
	.cfi_startproc
# %bb.0:                                # %entry
	addi.d	$sp, $sp, -32
	.cfi_def_cfa_offset 32
	st.d	$ra, $sp, 24                    # 8-byte Folded Spill
	st.d	$fp, $sp, 16                    # 8-byte Folded Spill
	st.d	$s0, $sp, 8                     # 8-byte Folded Spill
	st.d	$s1, $sp, 0                     # 8-byte Folded Spill
	.cfi_offset 1, -8
	.cfi_offset 22, -16
	.cfi_offset 23, -24
	.cfi_offset 24, -32
	move	$s1, $a0
	ld.d	$a0, $a0, 16
	move	$fp, $a2
	move	$s0, $a1
	sltui	$a1, $a0, 1
	masknez	$a0, $a0, $a1
	pcalau12i	$a2, %pc_hi20(.L.str.2)
	addi.d	$a2, $a2, %pc_lo12(.L.str.2)
	maskeqz	$a1, $a2, $a1
	or	$a1, $a1, $a0
	pcalau12i	$a0, %pc_hi20(.L.str.1)
	addi.d	$a0, $a0, %pc_lo12(.L.str.1)
	pcaddu18i	$ra, %call36(printf)
	jirl	$ra, $ra, 0
	ld.d	$a0, $s1, 24
	beqz	$a0, .LBB9_2
# %bb.1:                                # %if.then
	pcalau12i	$a0, %pc_hi20(.L.str.3)
	addi.d	$a0, $a0, %pc_lo12(.L.str.3)
	pcaddu18i	$ra, %call36(printf)
	jirl	$ra, $ra, 0
	ld.d	$a0, $s1, 24
	ld.d	$a1, $a0, 0
	ld.d	$a3, $a1, 112
	move	$a1, $s0
	move	$a2, $fp
	ld.d	$s1, $sp, 0                     # 8-byte Folded Reload
	ld.d	$s0, $sp, 8                     # 8-byte Folded Reload
	ld.d	$fp, $sp, 16                    # 8-byte Folded Reload
	ld.d	$ra, $sp, 24                    # 8-byte Folded Reload
	addi.d	$sp, $sp, 32
	jr	$a3
.LBB9_2:                                # %if.end
	ld.d	$s1, $sp, 0                     # 8-byte Folded Reload
	ld.d	$s0, $sp, 8                     # 8-byte Folded Reload
	ld.d	$fp, $sp, 16                    # 8-byte Folded Reload
	ld.d	$ra, $sp, 24                    # 8-byte Folded Reload
	addi.d	$sp, $sp, 32
	ret
.Lfunc_end9:
	.size	_ZNK8arg_node5printEPK9alst_nodei, .Lfunc_end9-_ZNK8arg_node5printEPK9alst_nodei
	.cfi_endproc
                                        # -- End function
	.globl	_ZN8arg_node12import_valueEPP8exp_node # -- Begin function _ZN8arg_node12import_valueEPP8exp_node
	.p2align	2
	.type	_ZN8arg_node12import_valueEPP8exp_node,@function
_ZN8arg_node12import_valueEPP8exp_node: # @_ZN8arg_node12import_valueEPP8exp_node
	.cfi_startproc
# %bb.0:                                # %entry
	addi.d	$sp, $sp, -32
	.cfi_def_cfa_offset 32
	st.d	$ra, $sp, 24                    # 8-byte Folded Spill
	st.d	$fp, $sp, 16                    # 8-byte Folded Spill
	st.d	$s0, $sp, 8                     # 8-byte Folded Spill
	.cfi_offset 1, -8
	.cfi_offset 22, -16
	.cfi_offset 23, -24
	move	$fp, $a0
	ld.d	$a0, $a0, 24
	move	$s0, $a1
	beqz	$a0, .LBB10_2
# %bb.1:                                # %delete.notnull
	ld.d	$a1, $a0, 0
	ld.d	$a1, $a1, 16
	jirl	$ra, $a1, 0
.LBB10_2:                               # %if.end
	beqz	$s0, .LBB10_5
# %bb.3:                                # %if.end7
	ld.d	$a0, $s0, 0
	st.d	$a0, $fp, 24
	st.d	$zero, $s0, 0
	ld.d	$a0, $fp, 24
	beqz	$a0, .LBB10_6
# %bb.4:                                # %if.then10
	ld.d	$a1, $a0, 0
	ld.d	$a2, $a1, 96
	move	$a1, $fp
	ld.d	$s0, $sp, 8                     # 8-byte Folded Reload
	ld.d	$fp, $sp, 16                    # 8-byte Folded Reload
	ld.d	$ra, $sp, 24                    # 8-byte Folded Reload
	addi.d	$sp, $sp, 32
	jr	$a2
.LBB10_5:                               # %if.end7.thread
	st.d	$zero, $fp, 24
.LBB10_6:                               # %if.end14
	ld.d	$s0, $sp, 8                     # 8-byte Folded Reload
	ld.d	$fp, $sp, 16                    # 8-byte Folded Reload
	ld.d	$ra, $sp, 24                    # 8-byte Folded Reload
	addi.d	$sp, $sp, 32
	ret
.Lfunc_end10:
	.size	_ZN8arg_node12import_valueEPP8exp_node, .Lfunc_end10-_ZN8arg_node12import_valueEPP8exp_node
	.cfi_endproc
                                        # -- End function
	.globl	_ZNK8arg_nodeeqERKS_            # -- Begin function _ZNK8arg_nodeeqERKS_
	.p2align	2
	.type	_ZNK8arg_nodeeqERKS_,@function
_ZNK8arg_nodeeqERKS_:                   # @_ZNK8arg_nodeeqERKS_
# %bb.0:                                # %entry
	ld.d	$a2, $a0, 16
	ld.d	$a1, $a1, 16
	or	$a0, $a2, $a1
	sltui	$a0, $a0, 1
	beqz	$a2, .LBB11_3
# %bb.1:                                # %entry
	beqz	$a1, .LBB11_3
# %bb.2:                                # %land.rhs
	addi.d	$sp, $sp, -16
	st.d	$ra, $sp, 8                     # 8-byte Folded Spill
	move	$a0, $a2
	pcaddu18i	$ra, %call36(strcmp)
	jirl	$ra, $ra, 0
	sltui	$a0, $a0, 1
	ld.d	$ra, $sp, 8                     # 8-byte Folded Reload
	addi.d	$sp, $sp, 16
.LBB11_3:                               # %lor.end
	ret
.Lfunc_end11:
	.size	_ZNK8arg_nodeeqERKS_, .Lfunc_end11-_ZNK8arg_nodeeqERKS_
                                        # -- End function
	.globl	_ZNK8arg_nodeeqEPKc             # -- Begin function _ZNK8arg_nodeeqEPKc
	.p2align	2
	.type	_ZNK8arg_nodeeqEPKc,@function
_ZNK8arg_nodeeqEPKc:                    # @_ZNK8arg_nodeeqEPKc
# %bb.0:                                # %entry
	ld.d	$a0, $a0, 16
	or	$a3, $a1, $a0
	ori	$a2, $zero, 1
	beqz	$a3, .LBB12_4
# %bb.1:                                # %lor.rhs
	move	$a2, $zero
	beqz	$a1, .LBB12_4
# %bb.2:                                # %lor.rhs
	beqz	$a0, .LBB12_4
# %bb.3:                                # %land.rhs
	addi.d	$sp, $sp, -16
	st.d	$ra, $sp, 8                     # 8-byte Folded Spill
	pcaddu18i	$ra, %call36(strcmp)
	jirl	$ra, $ra, 0
	sltui	$a2, $a0, 1
	ld.d	$ra, $sp, 8                     # 8-byte Folded Reload
	addi.d	$sp, $sp, 16
.LBB12_4:                               # %lor.end
	move	$a0, $a2
	ret
.Lfunc_end12:
	.size	_ZNK8arg_nodeeqEPKc, .Lfunc_end12-_ZNK8arg_nodeeqEPKc
                                        # -- End function
	.globl	_ZNK8exp_node5matchEPK9alst_node # -- Begin function _ZNK8exp_node5matchEPK9alst_node
	.p2align	2
	.type	_ZNK8exp_node5matchEPK9alst_node,@function
_ZNK8exp_node5matchEPK9alst_node:       # @_ZNK8exp_node5matchEPK9alst_node
	.cfi_startproc
# %bb.0:                                # %entry
	addi.d	$sp, $sp, -32
	.cfi_def_cfa_offset 32
	st.d	$ra, $sp, 24                    # 8-byte Folded Spill
	st.d	$fp, $sp, 16                    # 8-byte Folded Spill
	st.d	$s0, $sp, 8                     # 8-byte Folded Spill
	.cfi_offset 1, -8
	.cfi_offset 22, -16
	.cfi_offset 23, -24
	beqz	$a1, .LBB13_6
# %bb.1:                                # %for.body.preheader
	move	$fp, $a1
	move	$s0, $a0
	b	.LBB13_3
	.p2align	4, , 16
.LBB13_2:                               # %for.inc
                                        #   in Loop: Header=BB13_3 Depth=1
	ld.d	$a0, $fp, 0
	ld.d	$a1, $a0, 80
	move	$a0, $fp
	jirl	$ra, $a1, 0
	move	$fp, $a0
	beqz	$a0, .LBB13_6
.LBB13_3:                               # %for.body
                                        # =>This Inner Loop Header: Depth=1
	ld.d	$a0, $fp, 0
	ld.d	$a1, $a0, 48
	move	$a0, $fp
	jirl	$ra, $a1, 0
	beqz	$a0, .LBB13_2
# %bb.4:                                # %land.lhs.true
                                        #   in Loop: Header=BB13_3 Depth=1
	ld.d	$a0, $fp, 0
	ld.d	$a1, $a0, 48
	move	$a0, $fp
	jirl	$ra, $a1, 0
	ld.d	$a1, $a0, 0
	ld.d	$a1, $a1, 40
	jirl	$ra, $a1, 0
	beqz	$a0, .LBB13_2
# %bb.5:                                # %if.then
                                        #   in Loop: Header=BB13_3 Depth=1
	ld.d	$a0, $fp, 0
	ld.d	$a1, $a0, 48
	move	$a0, $fp
	jirl	$ra, $a1, 0
	ld.d	$a1, $a0, 0
	ld.d	$a1, $a1, 40
	jirl	$ra, $a1, 0
	ld.d	$a1, $s0, 0
	ld.d	$a2, $a1, 160
	move	$a1, $a0
	move	$a0, $s0
	jirl	$ra, $a2, 0
	beqz	$a0, .LBB13_2
	b	.LBB13_7
.LBB13_6:
	move	$fp, $zero
.LBB13_7:                               # %cleanup
	move	$a0, $fp
	ld.d	$s0, $sp, 8                     # 8-byte Folded Reload
	ld.d	$fp, $sp, 16                    # 8-byte Folded Reload
	ld.d	$ra, $sp, 24                    # 8-byte Folded Reload
	addi.d	$sp, $sp, 32
	ret
.Lfunc_end13:
	.size	_ZNK8exp_node5matchEPK9alst_node, .Lfunc_end13-_ZNK8exp_node5matchEPK9alst_node
	.cfi_endproc
                                        # -- End function
	.globl	_ZNK8exp_node14symbolic_printEPK9alst_nodei # -- Begin function _ZNK8exp_node14symbolic_printEPK9alst_nodei
	.p2align	2
	.type	_ZNK8exp_node14symbolic_printEPK9alst_nodei,@function
_ZNK8exp_node14symbolic_printEPK9alst_nodei: # @_ZNK8exp_node14symbolic_printEPK9alst_nodei
	.cfi_startproc
# %bb.0:                                # %entry
	addi.d	$sp, $sp, -48
	.cfi_def_cfa_offset 48
	st.d	$ra, $sp, 40                    # 8-byte Folded Spill
	st.d	$fp, $sp, 32                    # 8-byte Folded Spill
	st.d	$s0, $sp, 24                    # 8-byte Folded Spill
	st.d	$s1, $sp, 16                    # 8-byte Folded Spill
	st.d	$s2, $sp, 8                     # 8-byte Folded Spill
	.cfi_offset 1, -8
	.cfi_offset 22, -16
	.cfi_offset 23, -24
	.cfi_offset 24, -32
	.cfi_offset 25, -40
	ld.d	$a3, $a0, 0
	andi	$a4, $a2, 8
	move	$s0, $a1
	bnez	$a4, .LBB14_2
# %bb.1:                                # %if.else26
	ld.d	$a3, $a3, 112
	move	$a1, $s0
	b	.LBB14_7
.LBB14_2:                               # %if.then
	move	$s1, $a2
	ld.d	$a1, $a3, 0
	move	$s2, $a0
	jirl	$ra, $a1, 0
	beqz	$a0, .LBB14_6
# %bb.3:                                # %if.then3
	move	$fp, $a0
	ld.d	$a0, $a0, 0
	ld.d	$a2, $a0, 200
	move	$a0, $fp
	move	$a1, $s0
	jirl	$ra, $a2, 0
	beqz	$a0, .LBB14_8
# %bb.4:                                # %if.then8
	move	$s2, $a0
	ld.d	$a0, $a0, 0
	ld.d	$a3, $a0, 112
	move	$a0, $s2
	move	$a1, $s0
	move	$a2, $s1
	jirl	$ra, $a3, 0
	beq	$s2, $fp, .LBB14_9
# %bb.5:                                # %delete.notnull
	ld.d	$a0, $s2, 0
	ld.d	$a1, $a0, 16
	move	$a0, $s2
	jirl	$ra, $a1, 0
	b	.LBB14_9
.LBB14_6:                               # %if.else22
	move	$a0, $s2
	ld.d	$a1, $s2, 0
	ld.d	$a3, $a1, 112
	move	$a1, $s0
	move	$a2, $s1
.LBB14_7:                               # %if.else26
	ld.d	$s2, $sp, 8                     # 8-byte Folded Reload
	ld.d	$s1, $sp, 16                    # 8-byte Folded Reload
	ld.d	$s0, $sp, 24                    # 8-byte Folded Reload
	ld.d	$fp, $sp, 32                    # 8-byte Folded Reload
	ld.d	$ra, $sp, 40                    # 8-byte Folded Reload
	addi.d	$sp, $sp, 48
	jr	$a3
.LBB14_8:                               # %if.else
	ld.d	$a0, $fp, 0
	ld.d	$a3, $a0, 112
	move	$a0, $fp
	move	$a1, $s0
	move	$a2, $s1
	jirl	$ra, $a3, 0
.LBB14_9:                               # %delete.notnull18
	ld.d	$a0, $fp, 0
	ld.d	$a1, $a0, 16
	move	$a0, $fp
	ld.d	$s2, $sp, 8                     # 8-byte Folded Reload
	ld.d	$s1, $sp, 16                    # 8-byte Folded Reload
	ld.d	$s0, $sp, 24                    # 8-byte Folded Reload
	ld.d	$fp, $sp, 32                    # 8-byte Folded Reload
	ld.d	$ra, $sp, 40                    # 8-byte Folded Reload
	addi.d	$sp, $sp, 48
	jr	$a1
.Lfunc_end14:
	.size	_ZNK8exp_node14symbolic_printEPK9alst_nodei, .Lfunc_end14-_ZNK8exp_node14symbolic_printEPK9alst_nodei
	.cfi_endproc
                                        # -- End function
	.globl	_ZN8var_nodeC2EPKc              # -- Begin function _ZN8var_nodeC2EPKc
	.p2align	2
	.type	_ZN8var_nodeC2EPKc,@function
_ZN8var_nodeC2EPKc:                     # @_ZN8var_nodeC2EPKc
	.cfi_startproc
# %bb.0:                                # %entry
	addi.d	$sp, $sp, -32
	.cfi_def_cfa_offset 32
	st.d	$ra, $sp, 24                    # 8-byte Folded Spill
	st.d	$fp, $sp, 16                    # 8-byte Folded Spill
	st.d	$s0, $sp, 8                     # 8-byte Folded Spill
	.cfi_offset 1, -8
	.cfi_offset 22, -16
	.cfi_offset 23, -24
	move	$fp, $a0
	st.d	$zero, $a0, 8
	pcalau12i	$a0, %pc_hi20(_ZTV8var_node+16)
	addi.d	$a0, $a0, %pc_lo12(_ZTV8var_node+16)
	st.d	$a0, $fp, 0
	beqz	$a1, .LBB15_2
# %bb.1:                                # %if.then
	move	$a0, $a1
	move	$s0, $a1
	pcaddu18i	$ra, %call36(strlen)
	jirl	$ra, $ra, 0
	addi.d	$a0, $a0, 1
	pcaddu18i	$ra, %call36(_Znam)
	jirl	$ra, $ra, 0
	st.d	$a0, $fp, 16
	move	$a1, $s0
	ld.d	$s0, $sp, 8                     # 8-byte Folded Reload
	ld.d	$fp, $sp, 16                    # 8-byte Folded Reload
	ld.d	$ra, $sp, 24                    # 8-byte Folded Reload
	addi.d	$sp, $sp, 32
	pcaddu18i	$t8, %call36(strcpy)
	jr	$t8
.LBB15_2:                               # %if.end
	ld.d	$s0, $sp, 8                     # 8-byte Folded Reload
	ld.d	$fp, $sp, 16                    # 8-byte Folded Reload
	ld.d	$ra, $sp, 24                    # 8-byte Folded Reload
	addi.d	$sp, $sp, 32
	ret
.Lfunc_end15:
	.size	_ZN8var_nodeC2EPKc, .Lfunc_end15-_ZN8var_nodeC2EPKc
	.cfi_endproc
                                        # -- End function
	.globl	_ZN8var_nodeC2ERKS_             # -- Begin function _ZN8var_nodeC2ERKS_
	.p2align	2
	.type	_ZN8var_nodeC2ERKS_,@function
_ZN8var_nodeC2ERKS_:                    # @_ZN8var_nodeC2ERKS_
	.cfi_startproc
# %bb.0:                                # %entry
	addi.d	$sp, $sp, -32
	.cfi_def_cfa_offset 32
	st.d	$ra, $sp, 24                    # 8-byte Folded Spill
	st.d	$fp, $sp, 16                    # 8-byte Folded Spill
	st.d	$s0, $sp, 8                     # 8-byte Folded Spill
	.cfi_offset 1, -8
	.cfi_offset 22, -16
	.cfi_offset 23, -24
	move	$s0, $a1
	move	$fp, $a0
	ld.d	$a0, $a1, 16
	st.d	$zero, $fp, 8
	pcalau12i	$a1, %pc_hi20(_ZTV8var_node+16)
	addi.d	$a1, $a1, %pc_lo12(_ZTV8var_node+16)
	st.d	$a1, $fp, 0
	beqz	$a0, .LBB16_2
# %bb.1:                                # %if.then
	pcaddu18i	$ra, %call36(strlen)
	jirl	$ra, $ra, 0
	addi.d	$a0, $a0, 1
	pcaddu18i	$ra, %call36(_Znam)
	jirl	$ra, $ra, 0
	st.d	$a0, $fp, 16
	ld.d	$a1, $s0, 16
	pcaddu18i	$ra, %call36(strcpy)
	jirl	$ra, $ra, 0
	b	.LBB16_3
.LBB16_2:                               # %if.else
	st.d	$zero, $fp, 16
.LBB16_3:                               # %if.end
	st.d	$zero, $fp, 8
	ld.d	$s0, $sp, 8                     # 8-byte Folded Reload
	ld.d	$fp, $sp, 16                    # 8-byte Folded Reload
	ld.d	$ra, $sp, 24                    # 8-byte Folded Reload
	addi.d	$sp, $sp, 32
	ret
.Lfunc_end16:
	.size	_ZN8var_nodeC2ERKS_, .Lfunc_end16-_ZN8var_nodeC2ERKS_
	.cfi_endproc
                                        # -- End function
	.globl	_ZNK8var_node8has_freeEPK8arg_nodePK9alst_node # -- Begin function _ZNK8var_node8has_freeEPK8arg_nodePK9alst_node
	.p2align	2
	.type	_ZNK8var_node8has_freeEPK8arg_nodePK9alst_node,@function
_ZNK8var_node8has_freeEPK8arg_nodePK9alst_node: # @_ZNK8var_node8has_freeEPK8arg_nodePK9alst_node
	.cfi_startproc
# %bb.0:                                # %entry
	beqz	$a1, .LBB17_4
# %bb.1:                                # %if.then
	addi.d	$sp, $sp, -16
	.cfi_def_cfa_offset 16
	st.d	$ra, $sp, 8                     # 8-byte Folded Spill
	st.d	$fp, $sp, 0                     # 8-byte Folded Spill
	.cfi_offset 1, -8
	.cfi_offset 22, -16
	move	$fp, $a1
	ld.d	$a1, $a0, 0
	ld.d	$a3, $a1, 128
	move	$a1, $a2
	jirl	$ra, $a3, 0
	beqz	$a0, .LBB17_3
# %bb.2:                                # %land.lhs.true
	ld.d	$a1, $a0, 0
	ld.d	$a1, $a1, 48
	jirl	$ra, $a1, 0
	beq	$a0, $fp, .LBB17_5
.LBB17_3:                               # %cleanup.thread
	move	$a0, $zero
	ld.d	$fp, $sp, 0                     # 8-byte Folded Reload
	ld.d	$ra, $sp, 8                     # 8-byte Folded Reload
	addi.d	$sp, $sp, 16
	ret
.LBB17_4:
	move	$a0, $zero
	ret
.LBB17_5:
	ori	$a0, $zero, 1
	ld.d	$fp, $sp, 0                     # 8-byte Folded Reload
	ld.d	$ra, $sp, 8                     # 8-byte Folded Reload
	addi.d	$sp, $sp, 16
	ret
.Lfunc_end17:
	.size	_ZNK8var_node8has_freeEPK8arg_nodePK9alst_node, .Lfunc_end17-_ZNK8var_node8has_freeEPK8arg_nodePK9alst_node
	.cfi_endproc
                                        # -- End function
	.globl	_ZNK8var_node4bindEPK9alst_node # -- Begin function _ZNK8var_node4bindEPK9alst_node
	.p2align	2
	.type	_ZNK8var_node4bindEPK9alst_node,@function
_ZNK8var_node4bindEPK9alst_node:        # @_ZNK8var_node4bindEPK9alst_node
	.cfi_startproc
# %bb.0:                                # %entry
	addi.d	$sp, $sp, -32
	.cfi_def_cfa_offset 32
	st.d	$ra, $sp, 24                    # 8-byte Folded Spill
	st.d	$fp, $sp, 16                    # 8-byte Folded Spill
	st.d	$s0, $sp, 8                     # 8-byte Folded Spill
	st.d	$s1, $sp, 0                     # 8-byte Folded Spill
	.cfi_offset 1, -8
	.cfi_offset 22, -16
	.cfi_offset 23, -24
	.cfi_offset 24, -32
	move	$fp, $a0
	ld.d	$a0, $a0, 0
	ld.d	$a2, $a0, 32
	move	$s0, $a1
	move	$a0, $fp
	jirl	$ra, $a2, 0
	move	$a1, $a0
	move	$a0, $zero
	beqz	$a1, .LBB18_8
# %bb.1:                                # %entry
	bnez	$s0, .LBB18_3
	b	.LBB18_8
	.p2align	4, , 16
.LBB18_2:                               # %for.inc
                                        #   in Loop: Header=BB18_3 Depth=1
	ld.d	$a0, $s0, 0
	ld.d	$a1, $a0, 80
	move	$a0, $s0
	jirl	$ra, $a1, 0
	move	$s0, $a0
	beqz	$a0, .LBB18_7
.LBB18_3:                               # %for.body
                                        # =>This Inner Loop Header: Depth=1
	ld.d	$a0, $s0, 0
	ld.d	$a1, $a0, 48
	move	$a0, $s0
	jirl	$ra, $a1, 0
	beqz	$a0, .LBB18_2
# %bb.4:                                # %land.lhs.true
                                        #   in Loop: Header=BB18_3 Depth=1
	ld.d	$a0, $s0, 0
	ld.d	$a1, $a0, 48
	move	$a0, $s0
	jirl	$ra, $a1, 0
	ld.d	$a1, $a0, 0
	ld.d	$a1, $a1, 32
	jirl	$ra, $a1, 0
	beqz	$a0, .LBB18_2
# %bb.5:                                # %if.then14
                                        #   in Loop: Header=BB18_3 Depth=1
	ld.d	$a0, $s0, 0
	ld.d	$a1, $a0, 48
	move	$a0, $s0
	jirl	$ra, $a1, 0
	ld.d	$a1, $a0, 0
	ld.d	$a1, $a1, 32
	jirl	$ra, $a1, 0
	ld.d	$a1, $fp, 0
	ld.d	$a1, $a1, 32
	move	$s1, $a0
	move	$a0, $fp
	jirl	$ra, $a1, 0
	move	$a1, $a0
	move	$a0, $s1
	pcaddu18i	$ra, %call36(strcmp)
	jirl	$ra, $ra, 0
	bnez	$a0, .LBB18_2
# %bb.6:
	move	$a0, $s0
	b	.LBB18_8
.LBB18_7:
	move	$a0, $zero
.LBB18_8:                               # %return
	ld.d	$s1, $sp, 0                     # 8-byte Folded Reload
	ld.d	$s0, $sp, 8                     # 8-byte Folded Reload
	ld.d	$fp, $sp, 16                    # 8-byte Folded Reload
	ld.d	$ra, $sp, 24                    # 8-byte Folded Reload
	addi.d	$sp, $sp, 32
	ret
.Lfunc_end18:
	.size	_ZNK8var_node4bindEPK9alst_node, .Lfunc_end18-_ZNK8var_node4bindEPK9alst_node
	.cfi_endproc
                                        # -- End function
	.globl	_ZNK8var_node5printEPK9alst_nodei # -- Begin function _ZNK8var_node5printEPK9alst_nodei
	.p2align	2
	.type	_ZNK8var_node5printEPK9alst_nodei,@function
_ZNK8var_node5printEPK9alst_nodei:      # @_ZNK8var_node5printEPK9alst_nodei
	.cfi_startproc
# %bb.0:                                # %entry
	addi.d	$sp, $sp, -16
	.cfi_def_cfa_offset 16
	st.d	$ra, $sp, 8                     # 8-byte Folded Spill
	st.d	$fp, $sp, 0                     # 8-byte Folded Spill
	.cfi_offset 1, -8
	.cfi_offset 22, -16
	move	$fp, $a0
	ld.d	$a0, $a0, 0
	ld.d	$a1, $a0, 32
	move	$a0, $fp
	jirl	$ra, $a1, 0
	beqz	$a0, .LBB19_2
# %bb.1:                                # %cond.true
	ld.d	$a0, $fp, 0
	ld.d	$a1, $a0, 32
	move	$a0, $fp
	jirl	$ra, $a1, 0
	move	$a1, $a0
	b	.LBB19_3
.LBB19_2:
	pcalau12i	$a0, %pc_hi20(.L.str.4)
	addi.d	$a1, $a0, %pc_lo12(.L.str.4)
.LBB19_3:                               # %cond.end
	pcalau12i	$a0, %pc_hi20(.L.str.1)
	addi.d	$a0, $a0, %pc_lo12(.L.str.1)
	ld.d	$fp, $sp, 0                     # 8-byte Folded Reload
	ld.d	$ra, $sp, 8                     # 8-byte Folded Reload
	addi.d	$sp, $sp, 16
	pcaddu18i	$t8, %call36(printf)
	jr	$t8
.Lfunc_end19:
	.size	_ZNK8var_node5printEPK9alst_nodei, .Lfunc_end19-_ZNK8var_node5printEPK9alst_nodei
	.cfi_endproc
                                        # -- End function
	.globl	_ZN8var_nodeaSERKS_             # -- Begin function _ZN8var_nodeaSERKS_
	.p2align	2
	.type	_ZN8var_nodeaSERKS_,@function
_ZN8var_nodeaSERKS_:                    # @_ZN8var_nodeaSERKS_
	.cfi_startproc
# %bb.0:                                # %entry
	addi.d	$sp, $sp, -32
	.cfi_def_cfa_offset 32
	st.d	$ra, $sp, 24                    # 8-byte Folded Spill
	st.d	$fp, $sp, 16                    # 8-byte Folded Spill
	st.d	$s0, $sp, 8                     # 8-byte Folded Spill
	.cfi_offset 1, -8
	.cfi_offset 22, -16
	.cfi_offset 23, -24
	move	$fp, $a0
	ld.d	$a0, $a0, 16
	move	$s0, $a1
	beqz	$a0, .LBB20_2
# %bb.1:                                # %delete.notnull
	pcaddu18i	$ra, %call36(_ZdaPv)
	jirl	$ra, $ra, 0
.LBB20_2:                               # %if.end
	ld.d	$a0, $s0, 16
	beqz	$a0, .LBB20_6
# %bb.3:                                # %if.then5
	pcaddu18i	$ra, %call36(strlen)
	jirl	$ra, $ra, 0
	addi.d	$a0, $a0, 1
	pcaddu18i	$ra, %call36(_Znam)
	jirl	$ra, $ra, 0
	st.d	$a0, $fp, 16
	ld.d	$a1, $s0, 16
	pcaddu18i	$ra, %call36(strcpy)
	jirl	$ra, $ra, 0
	beq	$fp, $s0, .LBB20_5
.LBB20_4:                               # %if.then14
	ld.d	$a0, $s0, 8
	st.d	$a0, $fp, 8
.LBB20_5:                               # %if.end16
	move	$a0, $fp
	ld.d	$s0, $sp, 8                     # 8-byte Folded Reload
	ld.d	$fp, $sp, 16                    # 8-byte Folded Reload
	ld.d	$ra, $sp, 24                    # 8-byte Folded Reload
	addi.d	$sp, $sp, 32
	ret
.LBB20_6:                               # %if.else
	st.d	$zero, $fp, 16
	bne	$fp, $s0, .LBB20_4
	b	.LBB20_5
.Lfunc_end20:
	.size	_ZN8var_nodeaSERKS_, .Lfunc_end20-_ZN8var_nodeaSERKS_
	.cfi_endproc
                                        # -- End function
	.globl	_ZN8var_node8set_nameEPKc       # -- Begin function _ZN8var_node8set_nameEPKc
	.p2align	2
	.type	_ZN8var_node8set_nameEPKc,@function
_ZN8var_node8set_nameEPKc:              # @_ZN8var_node8set_nameEPKc
	.cfi_startproc
# %bb.0:                                # %entry
	addi.d	$sp, $sp, -32
	.cfi_def_cfa_offset 32
	st.d	$ra, $sp, 24                    # 8-byte Folded Spill
	st.d	$fp, $sp, 16                    # 8-byte Folded Spill
	st.d	$s0, $sp, 8                     # 8-byte Folded Spill
	.cfi_offset 1, -8
	.cfi_offset 22, -16
	.cfi_offset 23, -24
	move	$fp, $a0
	ld.d	$a0, $a0, 16
	beq	$a0, $a1, .LBB21_6
# %bb.1:                                # %if.end
	move	$s0, $a1
	beqz	$a0, .LBB21_3
# %bb.2:                                # %delete.notnull
	pcaddu18i	$ra, %call36(_ZdaPv)
	jirl	$ra, $ra, 0
.LBB21_3:                               # %if.end5
	beqz	$s0, .LBB21_5
# %bb.4:                                # %cond.end
	move	$a0, $s0
	pcaddu18i	$ra, %call36(strlen)
	jirl	$ra, $ra, 0
	addi.d	$a0, $a0, 1
	pcaddu18i	$ra, %call36(_Znam)
	jirl	$ra, $ra, 0
	st.d	$a0, $fp, 16
	move	$a1, $s0
	ld.d	$s0, $sp, 8                     # 8-byte Folded Reload
	ld.d	$fp, $sp, 16                    # 8-byte Folded Reload
	ld.d	$ra, $sp, 24                    # 8-byte Folded Reload
	addi.d	$sp, $sp, 32
	pcaddu18i	$t8, %call36(strcpy)
	jr	$t8
.LBB21_5:                               # %cond.end.thread
	st.d	$zero, $fp, 16
.LBB21_6:                               # %if.end16
	ld.d	$s0, $sp, 8                     # 8-byte Folded Reload
	ld.d	$fp, $sp, 16                    # 8-byte Folded Reload
	ld.d	$ra, $sp, 24                    # 8-byte Folded Reload
	addi.d	$sp, $sp, 32
	ret
.Lfunc_end21:
	.size	_ZN8var_node8set_nameEPKc, .Lfunc_end21-_ZN8var_node8set_nameEPKc
	.cfi_endproc
                                        # -- End function
	.globl	_ZN8var_node12reduce_valueEPK9alst_nodeiPiPS2_ # -- Begin function _ZN8var_node12reduce_valueEPK9alst_nodeiPiPS2_
	.p2align	2
	.type	_ZN8var_node12reduce_valueEPK9alst_nodeiPiPS2_,@function
_ZN8var_node12reduce_valueEPK9alst_nodeiPiPS2_: # @_ZN8var_node12reduce_valueEPK9alst_nodeiPiPS2_
	.cfi_startproc
# %bb.0:                                # %entry
	addi.d	$sp, $sp, -96
	.cfi_def_cfa_offset 96
	st.d	$ra, $sp, 88                    # 8-byte Folded Spill
	st.d	$fp, $sp, 80                    # 8-byte Folded Spill
	st.d	$s0, $sp, 72                    # 8-byte Folded Spill
	st.d	$s1, $sp, 64                    # 8-byte Folded Spill
	st.d	$s2, $sp, 56                    # 8-byte Folded Spill
	st.d	$s3, $sp, 48                    # 8-byte Folded Spill
	st.d	$s4, $sp, 40                    # 8-byte Folded Spill
	st.d	$s5, $sp, 32                    # 8-byte Folded Spill
	st.d	$s6, $sp, 24                    # 8-byte Folded Spill
	st.d	$s7, $sp, 16                    # 8-byte Folded Spill
	st.d	$s8, $sp, 8                     # 8-byte Folded Spill
	.cfi_offset 1, -8
	.cfi_offset 22, -16
	.cfi_offset 23, -24
	.cfi_offset 24, -32
	.cfi_offset 25, -40
	.cfi_offset 26, -48
	.cfi_offset 27, -56
	.cfi_offset 28, -64
	.cfi_offset 29, -72
	.cfi_offset 30, -80
	.cfi_offset 31, -88
	move	$fp, $a4
	move	$s0, $a0
	move	$s5, $zero
	srli.d	$a0, $a2, 7
	andi	$s6, $a0, 2
	pcalau12i	$s4, %pc_hi20(definition_env)
	ori	$s7, $zero, 3
	move	$s1, $s0
	.p2align	4, , 16
.LBB22_1:                               # %do.body
                                        # =>This Loop Header: Depth=1
                                        #     Child Loop BB22_7 Depth 2
	ld.d	$a0, $s1, 0
	ld.d	$a2, $a0, 128
	move	$a0, $s1
	jirl	$ra, $a2, 0
	beqz	$a0, .LBB22_14
# %bb.2:                                # %cond.end.preheader
                                        #   in Loop: Header=BB22_1 Depth=1
	ld.d	$a1, $a0, 0
	ld.d	$a1, $a1, 48
	move	$s2, $a0
	jirl	$ra, $a1, 0
	beqz	$a0, .LBB22_15
# %bb.3:                                # %cond.end15.peel
                                        #   in Loop: Header=BB22_1 Depth=1
	ld.d	$a1, $a0, 0
	ld.d	$a1, $a1, 40
	jirl	$ra, $a1, 0
	beqz	$a0, .LBB22_14
# %bb.4:                                # %if.end19.peel
                                        #   in Loop: Header=BB22_1 Depth=1
	move	$s3, $a0
	beq	$s1, $a0, .LBB22_18
# %bb.5:                                # %land.lhs.true28.peel
                                        #   in Loop: Header=BB22_1 Depth=1
	ld.d	$a0, $s3, 0
	ld.d	$a1, $a0, 24
	move	$a0, $s3
	jirl	$ra, $a1, 0
	ori	$s8, $zero, 1
	beq	$s3, $s0, .LBB22_13
# %bb.6:                                # %land.lhs.true28.peel
                                        #   in Loop: Header=BB22_1 Depth=1
	bne	$a0, $s7, .LBB22_13
.LBB22_7:                               # %do.body2
                                        #   Parent Loop BB22_1 Depth=1
                                        # =>  This Inner Loop Header: Depth=2
	ld.d	$a0, $s3, 0
	ld.d	$a2, $a0, 128
	move	$a0, $s3
	move	$a1, $s2
	jirl	$ra, $a2, 0
	move	$s2, $a0
	move	$s1, $s3
	beqz	$a0, .LBB22_13
# %bb.8:                                # %cond.end
                                        #   in Loop: Header=BB22_7 Depth=2
	ld.d	$a0, $s2, 0
	ld.d	$a1, $a0, 48
	move	$a0, $s2
	jirl	$ra, $a1, 0
	beqz	$a0, .LBB22_16
# %bb.9:                                # %cond.end15
                                        #   in Loop: Header=BB22_7 Depth=2
	ld.d	$a1, $a0, 0
	ld.d	$a1, $a1, 40
	jirl	$ra, $a1, 0
	beqz	$a0, .LBB22_16
# %bb.10:                               # %if.end19
                                        #   in Loop: Header=BB22_7 Depth=2
	move	$s3, $a0
	beq	$s1, $a0, .LBB22_18
# %bb.11:                               # %land.lhs.true28
                                        #   in Loop: Header=BB22_7 Depth=2
	ld.d	$a0, $s3, 0
	ld.d	$a1, $a0, 24
	move	$a0, $s3
	jirl	$ra, $a1, 0
	beq	$s3, $s0, .LBB22_13
# %bb.12:                               # %land.lhs.true28
                                        #   in Loop: Header=BB22_7 Depth=2
	beq	$a0, $s7, .LBB22_7
.LBB22_13:                              #   in Loop: Header=BB22_1 Depth=1
	move	$s1, $s3
	bnez	$s8, .LBB22_17
	b	.LBB22_18
	.p2align	4, , 16
.LBB22_14:                              #   in Loop: Header=BB22_1 Depth=1
	move	$s8, $s5
	bnez	$s8, .LBB22_17
	b	.LBB22_18
	.p2align	4, , 16
.LBB22_15:                              #   in Loop: Header=BB22_1 Depth=1
	move	$s8, $s5
.LBB22_16:                              # %do.end
                                        #   in Loop: Header=BB22_1 Depth=1
	beqz	$s8, .LBB22_18
.LBB22_17:                              # %do.end
                                        #   in Loop: Header=BB22_1 Depth=1
	ld.d	$a1, $s4, %pc_lo12(definition_env)
	addi.w	$a0, $s5, 1
	ori	$s5, $zero, 1
	bltu	$a0, $s6, .LBB22_1
.LBB22_18:                              # %if.end42
	beqz	$fp, .LBB22_20
# %bb.19:                               # %if.then44
	ld.d	$a0, $s4, %pc_lo12(definition_env)
	st.d	$a0, $fp, 0
.LBB22_20:                              # %cleanup46
	move	$a0, $s1
	ld.d	$s8, $sp, 8                     # 8-byte Folded Reload
	ld.d	$s7, $sp, 16                    # 8-byte Folded Reload
	ld.d	$s6, $sp, 24                    # 8-byte Folded Reload
	ld.d	$s5, $sp, 32                    # 8-byte Folded Reload
	ld.d	$s4, $sp, 40                    # 8-byte Folded Reload
	ld.d	$s3, $sp, 48                    # 8-byte Folded Reload
	ld.d	$s2, $sp, 56                    # 8-byte Folded Reload
	ld.d	$s1, $sp, 64                    # 8-byte Folded Reload
	ld.d	$s0, $sp, 72                    # 8-byte Folded Reload
	ld.d	$fp, $sp, 80                    # 8-byte Folded Reload
	ld.d	$ra, $sp, 88                    # 8-byte Folded Reload
	addi.d	$sp, $sp, 96
	ret
.Lfunc_end22:
	.size	_ZN8var_node12reduce_valueEPK9alst_nodeiPiPS2_, .Lfunc_end22-_ZN8var_node12reduce_valueEPK9alst_nodeiPiPS2_
	.cfi_endproc
                                        # -- End function
	.globl	_ZN8var_node13reduce_numberEv   # -- Begin function _ZN8var_node13reduce_numberEv
	.p2align	2
	.type	_ZN8var_node13reduce_numberEv,@function
_ZN8var_node13reduce_numberEv:          # @_ZN8var_node13reduce_numberEv
.Lfunc_begin1:
	.cfi_startproc
	.cfi_personality 155, DW.ref.__gxx_personality_v0
	.cfi_lsda 27, .Lexception1
# %bb.0:                                # %entry
	addi.d	$sp, $sp, -96
	.cfi_def_cfa_offset 96
	st.d	$ra, $sp, 88                    # 8-byte Folded Spill
	st.d	$fp, $sp, 80                    # 8-byte Folded Spill
	st.d	$s0, $sp, 72                    # 8-byte Folded Spill
	st.d	$s1, $sp, 64                    # 8-byte Folded Spill
	st.d	$s2, $sp, 56                    # 8-byte Folded Spill
	st.d	$s3, $sp, 48                    # 8-byte Folded Spill
	st.d	$s4, $sp, 40                    # 8-byte Folded Spill
	st.d	$s5, $sp, 32                    # 8-byte Folded Spill
	st.d	$s6, $sp, 24                    # 8-byte Folded Spill
	st.d	$s7, $sp, 16                    # 8-byte Folded Spill
	st.d	$s8, $sp, 8                     # 8-byte Folded Spill
	.cfi_offset 1, -8
	.cfi_offset 22, -16
	.cfi_offset 23, -24
	.cfi_offset 24, -32
	.cfi_offset 25, -40
	.cfi_offset 26, -48
	.cfi_offset 27, -56
	.cfi_offset 28, -64
	.cfi_offset 29, -72
	.cfi_offset 30, -80
	.cfi_offset 31, -88
	move	$s1, $a0
	ld.d	$a0, $a0, 0
	ld.d	$a1, $a0, 32
	move	$a0, $s1
	jirl	$ra, $a1, 0
	beqz	$a0, .LBB23_4
# %bb.1:                                # %if.then
	ld.d	$a0, $s1, 0
	ld.d	$a1, $a0, 32
	move	$a0, $s1
	jirl	$ra, $a1, 0
	ori	$a1, $zero, 10
	.p2align	4, , 16
.LBB23_2:                               # %for.cond
                                        # =>This Inner Loop Header: Depth=1
	ld.bu	$a2, $a0, 0
	addi.d	$a3, $a2, -48
	addi.d	$a0, $a0, 1
	bltu	$a3, $a1, .LBB23_2
# %bb.3:                                # %cleanup9
	beqz	$a2, .LBB23_6
.LBB23_4:
	move	$s0, $zero
.LBB23_5:                               # %if.end50
	move	$a0, $s0
	ld.d	$s8, $sp, 8                     # 8-byte Folded Reload
	ld.d	$s7, $sp, 16                    # 8-byte Folded Reload
	ld.d	$s6, $sp, 24                    # 8-byte Folded Reload
	ld.d	$s5, $sp, 32                    # 8-byte Folded Reload
	ld.d	$s4, $sp, 40                    # 8-byte Folded Reload
	ld.d	$s3, $sp, 48                    # 8-byte Folded Reload
	ld.d	$s2, $sp, 56                    # 8-byte Folded Reload
	ld.d	$s1, $sp, 64                    # 8-byte Folded Reload
	ld.d	$s0, $sp, 72                    # 8-byte Folded Reload
	ld.d	$fp, $sp, 80                    # 8-byte Folded Reload
	ld.d	$ra, $sp, 88                    # 8-byte Folded Reload
	addi.d	$sp, $sp, 96
	ret
.LBB23_6:                               # %if.then11
	ori	$a0, $zero, 32
	pcaddu18i	$ra, %call36(_Znwm)
	jirl	$ra, $ra, 0
	move	$fp, $a0
	st.d	$zero, $a0, 8
	pcalau12i	$a0, %pc_hi20(_ZTV8arg_node+16)
	addi.d	$s2, $a0, %pc_lo12(_ZTV8arg_node+16)
	st.d	$s2, $fp, 0
.Ltmp7:                                 # EH_LABEL
	ori	$a0, $zero, 2
	pcaddu18i	$ra, %call36(_Znam)
	jirl	$ra, $ra, 0
.Ltmp8:                                 # EH_LABEL
# %bb.7:                                # %invoke.cont
	ori	$a1, $zero, 109
	st.h	$a1, $a0, 0
	st.d	$a0, $fp, 16
	st.d	$zero, $fp, 24
	ori	$a0, $zero, 32
	pcaddu18i	$ra, %call36(_Znwm)
	jirl	$ra, $ra, 0
	move	$s0, $a0
	st.d	$zero, $a0, 8
	st.d	$s2, $a0, 0
.Ltmp10:                                # EH_LABEL
	ori	$a0, $zero, 2
	pcaddu18i	$ra, %call36(_Znam)
	jirl	$ra, $ra, 0
.Ltmp11:                                # EH_LABEL
# %bb.8:                                # %invoke.cont15
	ori	$s3, $zero, 110
	st.h	$s3, $a0, 0
	st.d	$a0, $s0, 16
	st.d	$zero, $s0, 24
	ori	$a0, $zero, 24
	pcaddu18i	$ra, %call36(_Znwm)
	jirl	$ra, $ra, 0
	move	$s2, $a0
	st.d	$zero, $a0, 8
	pcalau12i	$a0, %pc_hi20(_ZTV8var_node+16)
	addi.d	$s4, $a0, %pc_lo12(_ZTV8var_node+16)
	st.d	$s4, $s2, 0
.Ltmp13:                                # EH_LABEL
	ori	$a0, $zero, 2
	pcaddu18i	$ra, %call36(_Znam)
	jirl	$ra, $ra, 0
.Ltmp14:                                # EH_LABEL
# %bb.9:                                # %invoke.cont18
	ld.d	$a1, $s1, 0
	st.d	$a0, $s2, 16
	ld.d	$a1, $a1, 32
	st.h	$s3, $a0, 0
	move	$a0, $s1
	jirl	$ra, $a1, 0
	ori	$a2, $zero, 10
	move	$a1, $zero
	pcaddu18i	$ra, %call36(__isoc23_strtol)
	jirl	$ra, $ra, 0
	addi.w	$a1, $a0, 0
	ori	$s5, $zero, 1
	blt	$a1, $s5, .LBB23_14
# %bb.10:                               # %for.body25.preheader
	addi.d	$s6, $a0, 1
	ori	$s7, $zero, 109
	pcalau12i	$a0, %pc_hi20(_ZTV8app_node+16)
	addi.d	$s8, $a0, %pc_lo12(_ZTV8app_node+16)
	.p2align	4, , 16
.LBB23_11:                              # %for.body25
                                        # =>This Inner Loop Header: Depth=1
	ori	$a0, $zero, 24
	pcaddu18i	$ra, %call36(_Znwm)
	jirl	$ra, $ra, 0
	move	$s1, $a0
	st.d	$zero, $a0, 8
	st.d	$s4, $a0, 0
.Ltmp16:                                # EH_LABEL
	ori	$a0, $zero, 2
	pcaddu18i	$ra, %call36(_Znam)
	jirl	$ra, $ra, 0
.Ltmp17:                                # EH_LABEL
# %bb.12:                               # %invoke.cont28
                                        #   in Loop: Header=BB23_11 Depth=1
	st.d	$a0, $s1, 16
	st.h	$s7, $a0, 0
	ori	$a0, $zero, 32
	pcaddu18i	$ra, %call36(_Znwm)
	jirl	$ra, $ra, 0
	move	$s3, $a0
	st.d	$zero, $a0, 8
	st.d	$s8, $a0, 0
	ld.d	$a0, $s2, 0
	st.d	$s1, $s3, 16
	st.d	$s3, $s1, 8
	st.d	$s2, $s3, 24
	ld.d	$a2, $a0, 96
.Ltmp19:                                # EH_LABEL
	move	$a0, $s2
	move	$a1, $s3
	jirl	$ra, $a2, 0
.Ltmp20:                                # EH_LABEL
# %bb.13:                               # %invoke.cont31
                                        #   in Loop: Header=BB23_11 Depth=1
	addi.w	$s6, $s6, -1
	move	$s2, $s3
	blt	$s5, $s6, .LBB23_11
	b	.LBB23_15
.LBB23_14:
	move	$s3, $s2
.LBB23_15:                              # %for.end33
	ori	$a0, $zero, 32
	pcaddu18i	$ra, %call36(_Znwm)
	jirl	$ra, $ra, 0
	move	$s1, $a0
	st.d	$zero, $a0, 8
	pcalau12i	$a0, %pc_hi20(_ZTV8lam_node+16)
	addi.d	$s2, $a0, %pc_lo12(_ZTV8lam_node+16)
	ld.d	$a0, $s0, 0
	st.d	$s2, $s1, 0
	st.d	$zero, $s1, 24
	st.d	$s0, $s1, 16
	ld.d	$a2, $a0, 96
.Ltmp22:                                # EH_LABEL
	move	$a0, $s0
	move	$a1, $s1
	jirl	$ra, $a2, 0
.Ltmp23:                                # EH_LABEL
# %bb.16:                               # %.noexc46
	ld.d	$a0, $s1, 24
	beq	$a0, $s3, .LBB23_20
# %bb.17:                               # %if.end.i4.i38
	beqz	$a0, .LBB23_19
# %bb.18:                               # %delete.notnull.i6.i40
	ld.d	$a1, $a0, 0
	ld.d	$a1, $a1, 16
	jirl	$ra, $a1, 0
.LBB23_19:                              # %if.end5.i9.i43
	ld.d	$a0, $s3, 0
	st.d	$s3, $s1, 24
	ld.d	$a2, $a0, 96
.Ltmp24:                                # EH_LABEL
	move	$a0, $s3
	move	$a1, $s1
	jirl	$ra, $a2, 0
.Ltmp25:                                # EH_LABEL
.LBB23_20:                              # %invoke.cont36
	ori	$a0, $zero, 32
	pcaddu18i	$ra, %call36(_Znwm)
	jirl	$ra, $ra, 0
	move	$s0, $a0
	st.d	$zero, $a0, 8
	ld.d	$a0, $fp, 0
	st.d	$s2, $s0, 0
	st.d	$zero, $s0, 24
	st.d	$fp, $s0, 16
	ld.d	$a2, $a0, 96
.Ltmp27:                                # EH_LABEL
	move	$a0, $fp
	move	$a1, $s0
	jirl	$ra, $a2, 0
.Ltmp28:                                # EH_LABEL
# %bb.21:                               # %.noexc63
	ld.d	$a0, $s0, 24
	beq	$a0, $s1, .LBB23_5
# %bb.22:                               # %if.end.i4.i55
	beqz	$a0, .LBB23_24
# %bb.23:                               # %delete.notnull.i6.i57
	ld.d	$a1, $a0, 0
	ld.d	$a1, $a1, 16
	jirl	$ra, $a1, 0
.LBB23_24:                              # %if.end5.i9.i60
	ld.d	$a0, $s1, 0
	st.d	$s1, $s0, 24
	ld.d	$a2, $a0, 96
.Ltmp29:                                # EH_LABEL
	move	$a0, $s1
	move	$a1, $s0
	jirl	$ra, $a2, 0
.Ltmp30:                                # EH_LABEL
	b	.LBB23_5
.LBB23_25:                              # %lpad17
.Ltmp15:                                # EH_LABEL
	move	$s4, $a0
	ori	$a1, $zero, 24
	move	$a0, $s2
	pcaddu18i	$ra, %call36(_ZdlPvm)
	jirl	$ra, $ra, 0
	move	$a0, $s4
	pcaddu18i	$ra, %call36(_Unwind_Resume)
	jirl	$ra, $ra, 0
.LBB23_26:                              # %lpad14
.Ltmp12:                                # EH_LABEL
	b	.LBB23_29
.LBB23_27:                              # %lpad
.Ltmp9:                                 # EH_LABEL
	move	$s4, $a0
	ori	$a1, $zero, 32
	move	$a0, $fp
	pcaddu18i	$ra, %call36(_ZdlPvm)
	jirl	$ra, $ra, 0
	move	$a0, $s4
	pcaddu18i	$ra, %call36(_Unwind_Resume)
	jirl	$ra, $ra, 0
.LBB23_28:                              # %lpad39
.Ltmp31:                                # EH_LABEL
.LBB23_29:                              # %ehcleanup47
	move	$s4, $a0
	ori	$a1, $zero, 32
	move	$a0, $s0
	pcaddu18i	$ra, %call36(_ZdlPvm)
	jirl	$ra, $ra, 0
	move	$a0, $s4
	pcaddu18i	$ra, %call36(_Unwind_Resume)
	jirl	$ra, $ra, 0
.LBB23_30:                              # %lpad35
.Ltmp26:                                # EH_LABEL
	move	$s4, $a0
	ori	$a1, $zero, 32
	move	$a0, $s1
	pcaddu18i	$ra, %call36(_ZdlPvm)
	jirl	$ra, $ra, 0
	move	$a0, $s4
	pcaddu18i	$ra, %call36(_Unwind_Resume)
	jirl	$ra, $ra, 0
.LBB23_31:                              # %lpad27
.Ltmp18:                                # EH_LABEL
	move	$s4, $a0
	ori	$a1, $zero, 24
	move	$a0, $s1
	pcaddu18i	$ra, %call36(_ZdlPvm)
	jirl	$ra, $ra, 0
	move	$a0, $s4
	pcaddu18i	$ra, %call36(_Unwind_Resume)
	jirl	$ra, $ra, 0
.LBB23_32:                              # %lpad30
.Ltmp21:                                # EH_LABEL
	move	$s4, $a0
	ori	$a1, $zero, 32
	move	$a0, $s3
	pcaddu18i	$ra, %call36(_ZdlPvm)
	jirl	$ra, $ra, 0
	move	$a0, $s4
	pcaddu18i	$ra, %call36(_Unwind_Resume)
	jirl	$ra, $ra, 0
.Lfunc_end23:
	.size	_ZN8var_node13reduce_numberEv, .Lfunc_end23-_ZN8var_node13reduce_numberEv
	.cfi_endproc
	.section	.gcc_except_table,"a",@progbits
	.p2align	2, 0x0
GCC_except_table23:
.Lexception1:
	.byte	255                             # @LPStart Encoding = omit
	.byte	255                             # @TType Encoding = omit
	.byte	1                               # Call site Encoding = uleb128
	.uleb128 .Lcst_end1-.Lcst_begin1
.Lcst_begin1:
	.uleb128 .Lfunc_begin1-.Lfunc_begin1    # >> Call Site 1 <<
	.uleb128 .Ltmp7-.Lfunc_begin1           #   Call between .Lfunc_begin1 and .Ltmp7
	.byte	0                               #     has no landing pad
	.byte	0                               #   On action: cleanup
	.uleb128 .Ltmp7-.Lfunc_begin1           # >> Call Site 2 <<
	.uleb128 .Ltmp8-.Ltmp7                  #   Call between .Ltmp7 and .Ltmp8
	.uleb128 .Ltmp9-.Lfunc_begin1           #     jumps to .Ltmp9
	.byte	0                               #   On action: cleanup
	.uleb128 .Ltmp8-.Lfunc_begin1           # >> Call Site 3 <<
	.uleb128 .Ltmp10-.Ltmp8                 #   Call between .Ltmp8 and .Ltmp10
	.byte	0                               #     has no landing pad
	.byte	0                               #   On action: cleanup
	.uleb128 .Ltmp10-.Lfunc_begin1          # >> Call Site 4 <<
	.uleb128 .Ltmp11-.Ltmp10                #   Call between .Ltmp10 and .Ltmp11
	.uleb128 .Ltmp12-.Lfunc_begin1          #     jumps to .Ltmp12
	.byte	0                               #   On action: cleanup
	.uleb128 .Ltmp11-.Lfunc_begin1          # >> Call Site 5 <<
	.uleb128 .Ltmp13-.Ltmp11                #   Call between .Ltmp11 and .Ltmp13
	.byte	0                               #     has no landing pad
	.byte	0                               #   On action: cleanup
	.uleb128 .Ltmp13-.Lfunc_begin1          # >> Call Site 6 <<
	.uleb128 .Ltmp14-.Ltmp13                #   Call between .Ltmp13 and .Ltmp14
	.uleb128 .Ltmp15-.Lfunc_begin1          #     jumps to .Ltmp15
	.byte	0                               #   On action: cleanup
	.uleb128 .Ltmp14-.Lfunc_begin1          # >> Call Site 7 <<
	.uleb128 .Ltmp16-.Ltmp14                #   Call between .Ltmp14 and .Ltmp16
	.byte	0                               #     has no landing pad
	.byte	0                               #   On action: cleanup
	.uleb128 .Ltmp16-.Lfunc_begin1          # >> Call Site 8 <<
	.uleb128 .Ltmp17-.Ltmp16                #   Call between .Ltmp16 and .Ltmp17
	.uleb128 .Ltmp18-.Lfunc_begin1          #     jumps to .Ltmp18
	.byte	0                               #   On action: cleanup
	.uleb128 .Ltmp17-.Lfunc_begin1          # >> Call Site 9 <<
	.uleb128 .Ltmp19-.Ltmp17                #   Call between .Ltmp17 and .Ltmp19
	.byte	0                               #     has no landing pad
	.byte	0                               #   On action: cleanup
	.uleb128 .Ltmp19-.Lfunc_begin1          # >> Call Site 10 <<
	.uleb128 .Ltmp20-.Ltmp19                #   Call between .Ltmp19 and .Ltmp20
	.uleb128 .Ltmp21-.Lfunc_begin1          #     jumps to .Ltmp21
	.byte	0                               #   On action: cleanup
	.uleb128 .Ltmp20-.Lfunc_begin1          # >> Call Site 11 <<
	.uleb128 .Ltmp22-.Ltmp20                #   Call between .Ltmp20 and .Ltmp22
	.byte	0                               #     has no landing pad
	.byte	0                               #   On action: cleanup
	.uleb128 .Ltmp22-.Lfunc_begin1          # >> Call Site 12 <<
	.uleb128 .Ltmp23-.Ltmp22                #   Call between .Ltmp22 and .Ltmp23
	.uleb128 .Ltmp26-.Lfunc_begin1          #     jumps to .Ltmp26
	.byte	0                               #   On action: cleanup
	.uleb128 .Ltmp23-.Lfunc_begin1          # >> Call Site 13 <<
	.uleb128 .Ltmp24-.Ltmp23                #   Call between .Ltmp23 and .Ltmp24
	.byte	0                               #     has no landing pad
	.byte	0                               #   On action: cleanup
	.uleb128 .Ltmp24-.Lfunc_begin1          # >> Call Site 14 <<
	.uleb128 .Ltmp25-.Ltmp24                #   Call between .Ltmp24 and .Ltmp25
	.uleb128 .Ltmp26-.Lfunc_begin1          #     jumps to .Ltmp26
	.byte	0                               #   On action: cleanup
	.uleb128 .Ltmp25-.Lfunc_begin1          # >> Call Site 15 <<
	.uleb128 .Ltmp27-.Ltmp25                #   Call between .Ltmp25 and .Ltmp27
	.byte	0                               #     has no landing pad
	.byte	0                               #   On action: cleanup
	.uleb128 .Ltmp27-.Lfunc_begin1          # >> Call Site 16 <<
	.uleb128 .Ltmp28-.Ltmp27                #   Call between .Ltmp27 and .Ltmp28
	.uleb128 .Ltmp31-.Lfunc_begin1          #     jumps to .Ltmp31
	.byte	0                               #   On action: cleanup
	.uleb128 .Ltmp28-.Lfunc_begin1          # >> Call Site 17 <<
	.uleb128 .Ltmp29-.Ltmp28                #   Call between .Ltmp28 and .Ltmp29
	.byte	0                               #     has no landing pad
	.byte	0                               #   On action: cleanup
	.uleb128 .Ltmp29-.Lfunc_begin1          # >> Call Site 18 <<
	.uleb128 .Ltmp30-.Ltmp29                #   Call between .Ltmp29 and .Ltmp30
	.uleb128 .Ltmp31-.Lfunc_begin1          #     jumps to .Ltmp31
	.byte	0                               #   On action: cleanup
	.uleb128 .Ltmp30-.Lfunc_begin1          # >> Call Site 19 <<
	.uleb128 .Lfunc_end23-.Ltmp30           #   Call between .Ltmp30 and .Lfunc_end23
	.byte	0                               #     has no landing pad
	.byte	0                               #   On action: cleanup
.Lcst_end1:
	.p2align	2, 0x0
                                        # -- End function
	.text
	.globl	_ZN8var_node6reduceEPK9alst_nodeiPi # -- Begin function _ZN8var_node6reduceEPK9alst_nodeiPi
	.p2align	2
	.type	_ZN8var_node6reduceEPK9alst_nodeiPi,@function
_ZN8var_node6reduceEPK9alst_nodeiPi:    # @_ZN8var_node6reduceEPK9alst_nodeiPi
	.cfi_startproc
# %bb.0:                                # %entry
	addi.d	$sp, $sp, -80
	.cfi_def_cfa_offset 80
	st.d	$ra, $sp, 72                    # 8-byte Folded Spill
	st.d	$fp, $sp, 64                    # 8-byte Folded Spill
	st.d	$s0, $sp, 56                    # 8-byte Folded Spill
	st.d	$s1, $sp, 48                    # 8-byte Folded Spill
	st.d	$s2, $sp, 40                    # 8-byte Folded Spill
	st.d	$s3, $sp, 32                    # 8-byte Folded Spill
	st.d	$s4, $sp, 24                    # 8-byte Folded Spill
	.cfi_offset 1, -8
	.cfi_offset 22, -16
	.cfi_offset 23, -24
	.cfi_offset 24, -32
	.cfi_offset 25, -40
	.cfi_offset 26, -48
	.cfi_offset 27, -56
	pcalau12i	$s3, %pc_hi20(_ZL24var_reduce_recurse_level)
	ld.w	$a4, $s3, %pc_lo12(_ZL24var_reduce_recurse_level)
	move	$s0, $a3
	move	$fp, $a0
	addi.w	$a3, $a4, 1
	ori	$a0, $zero, 4000
	st.w	$a3, $s3, %pc_lo12(_ZL24var_reduce_recurse_level)
	blt	$a4, $a0, .LBB24_3
# %bb.1:                                # %if.then
	pcalau12i	$a0, %pc_hi20(.L.str.7)
	addi.d	$a0, $a0, %pc_lo12(.L.str.7)
	move	$a1, $a3
	pcaddu18i	$ra, %call36(printf)
	jirl	$ra, $ra, 0
	ld.d	$a0, $fp, 0
	ld.d	$a3, $a0, 112
	move	$a0, $fp
	move	$a1, $zero
	move	$a2, $zero
	jirl	$ra, $a3, 0
	pcalau12i	$a0, %pc_hi20(.Lstr)
	addi.d	$a0, $a0, %pc_lo12(.Lstr)
	pcaddu18i	$ra, %call36(puts)
	jirl	$ra, $ra, 0
	ld.w	$a0, $s3, %pc_lo12(_ZL24var_reduce_recurse_level)
	addi.d	$a0, $a0, -1
	st.w	$a0, $s3, %pc_lo12(_ZL24var_reduce_recurse_level)
	beqz	$s0, .LBB24_19
# %bb.2:                                # %if.then3
	ld.w	$a0, $s0, 0
	ori	$a0, $a0, 1
	st.w	$a0, $s0, 0
	b	.LBB24_19
.LBB24_3:                               # %if.end4
	ld.d	$a0, $fp, 0
	ld.d	$a5, $a0, 216
	st.d	$zero, $sp, 16
	addi.d	$a4, $sp, 16
	move	$a0, $fp
	move	$s4, $a2
	move	$a3, $s0
	jirl	$ra, $a5, 0
	move	$s2, $a0
	beq	$a0, $fp, .LBB24_13
# %bb.4:                                # %if.then9
	ld.d	$a0, $s2, 0
	ld.d	$a1, $a0, 0
	move	$a0, $s2
	jirl	$ra, $a1, 0
	ld.d	$a1, $sp, 16
	move	$s1, $a0
	beqz	$a1, .LBB24_12
# %bb.5:                                # %land.lhs.true
	ld.d	$a0, $s1, 0
	ld.d	$a1, $a0, 24
	move	$a0, $s1
	jirl	$ra, $a1, 0
	ori	$a1, $zero, 5
	bne	$a0, $a1, .LBB24_7
# %bb.6:                                # %land.lhs.true22
	move	$a2, $s4
	andi	$a0, $s4, 256
	bnez	$a0, .LBB24_9
	b	.LBB24_12
.LBB24_7:                               # %lor.lhs.false
	ld.d	$a0, $s1, 0
	ld.d	$a1, $a0, 24
	move	$a0, $s1
	jirl	$ra, $a1, 0
	andi	$a1, $s4, 256
	beqz	$a1, .LBB24_12
# %bb.8:                                # %lor.lhs.false
	move	$a2, $s4
	ori	$a1, $zero, 4
	bne	$a0, $a1, .LBB24_12
.LBB24_9:                               # %if.then24
	ld.d	$a0, $s1, 0
	ld.d	$a1, $sp, 16
	ld.d	$a4, $a0, 136
	move	$a0, $s1
	move	$a3, $s0
	jirl	$ra, $a4, 0
	beqz	$a0, .LBB24_12
# %bb.10:                               # %if.then24
	move	$s2, $a0
	beq	$a0, $s1, .LBB24_12
# %bb.11:                               # %delete.notnull
	ld.d	$a0, $s1, 0
	ld.d	$a1, $a0, 16
	move	$a0, $s1
	jirl	$ra, $a1, 0
	b	.LBB24_13
.LBB24_12:
	move	$s2, $s1
.LBB24_13:                              # %if.end36
	move	$a0, $fp
	pcaddu18i	$ra, %call36(_ZN8var_node13reduce_numberEv)
	jirl	$ra, $ra, 0
	beqz	$a0, .LBB24_17
# %bb.14:                               # %if.then39
	beq	$s2, $fp, .LBB24_18
# %bb.15:                               # %if.then39
	beqz	$s2, .LBB24_18
# %bb.16:                               # %delete.notnull43
	ld.d	$a1, $s2, 0
	ld.d	$a1, $a1, 16
	move	$fp, $a0
	move	$a0, $s2
	jirl	$ra, $a1, 0
	move	$a0, $fp
	b	.LBB24_18
.LBB24_17:
	move	$a0, $s2
.LBB24_18:                              # %if.end48
	ld.w	$a1, $s3, %pc_lo12(_ZL24var_reduce_recurse_level)
	addi.d	$a1, $a1, -1
	st.w	$a1, $s3, %pc_lo12(_ZL24var_reduce_recurse_level)
	move	$fp, $a0
.LBB24_19:                              # %return
	move	$a0, $fp
	ld.d	$s4, $sp, 24                    # 8-byte Folded Reload
	ld.d	$s3, $sp, 32                    # 8-byte Folded Reload
	ld.d	$s2, $sp, 40                    # 8-byte Folded Reload
	ld.d	$s1, $sp, 48                    # 8-byte Folded Reload
	ld.d	$s0, $sp, 56                    # 8-byte Folded Reload
	ld.d	$fp, $sp, 64                    # 8-byte Folded Reload
	ld.d	$ra, $sp, 72                    # 8-byte Folded Reload
	addi.d	$sp, $sp, 80
	ret
.Lfunc_end24:
	.size	_ZN8var_node6reduceEPK9alst_nodeiPi, .Lfunc_end24-_ZN8var_node6reduceEPK9alst_nodeiPi
	.cfi_endproc
                                        # -- End function
	.globl	_ZN8var_node6renameEP8arg_nodePKcP9alst_node # -- Begin function _ZN8var_node6renameEP8arg_nodePKcP9alst_node
	.p2align	2
	.type	_ZN8var_node6renameEP8arg_nodePKcP9alst_node,@function
_ZN8var_node6renameEP8arg_nodePKcP9alst_node: # @_ZN8var_node6renameEP8arg_nodePKcP9alst_node
	.cfi_startproc
# %bb.0:                                # %entry
	addi.d	$sp, $sp, -32
	.cfi_def_cfa_offset 32
	st.d	$ra, $sp, 24                    # 8-byte Folded Spill
	st.d	$fp, $sp, 16                    # 8-byte Folded Spill
	st.d	$s0, $sp, 8                     # 8-byte Folded Spill
	st.d	$s1, $sp, 0                     # 8-byte Folded Spill
	.cfi_offset 1, -8
	.cfi_offset 22, -16
	.cfi_offset 23, -24
	.cfi_offset 24, -32
	move	$fp, $a0
	ld.d	$a0, $a0, 0
	ld.d	$a4, $a0, 128
	move	$s0, $a2
	move	$s1, $a1
	move	$a0, $fp
	move	$a1, $a3
	jirl	$ra, $a4, 0
	beqz	$a0, .LBB25_9
# %bb.1:                                # %cond.end
	ld.d	$a1, $a0, 0
	ld.d	$a1, $a1, 48
	jirl	$ra, $a1, 0
	beqz	$a0, .LBB25_9
# %bb.2:                                # %cond.end
	bne	$a0, $s1, .LBB25_9
# %bb.3:                                # %if.then
	ld.d	$a0, $fp, 16
	beq	$a0, $s0, .LBB25_9
# %bb.4:                                # %if.end.i
	beqz	$a0, .LBB25_6
# %bb.5:                                # %delete.notnull.i
	pcaddu18i	$ra, %call36(_ZdaPv)
	jirl	$ra, $ra, 0
.LBB25_6:                               # %if.end5.i
	beqz	$s0, .LBB25_8
# %bb.7:                                # %cond.end.i
	move	$a0, $s0
	pcaddu18i	$ra, %call36(strlen)
	jirl	$ra, $ra, 0
	addi.d	$a0, $a0, 1
	pcaddu18i	$ra, %call36(_Znam)
	jirl	$ra, $ra, 0
	st.d	$a0, $fp, 16
	move	$a1, $s0
	ld.d	$s1, $sp, 0                     # 8-byte Folded Reload
	ld.d	$s0, $sp, 8                     # 8-byte Folded Reload
	ld.d	$fp, $sp, 16                    # 8-byte Folded Reload
	ld.d	$ra, $sp, 24                    # 8-byte Folded Reload
	addi.d	$sp, $sp, 32
	pcaddu18i	$t8, %call36(strcpy)
	jr	$t8
.LBB25_8:                               # %cond.end.thread.i
	st.d	$zero, $fp, 16
.LBB25_9:                               # %if.end
	ld.d	$s1, $sp, 0                     # 8-byte Folded Reload
	ld.d	$s0, $sp, 8                     # 8-byte Folded Reload
	ld.d	$fp, $sp, 16                    # 8-byte Folded Reload
	ld.d	$ra, $sp, 24                    # 8-byte Folded Reload
	addi.d	$sp, $sp, 32
	ret
.Lfunc_end25:
	.size	_ZN8var_node6renameEP8arg_nodePKcP9alst_node, .Lfunc_end25-_ZN8var_node6renameEP8arg_nodePKcP9alst_node
	.cfi_endproc
                                        # -- End function
	.globl	_ZNK8var_nodeeqERK8exp_node     # -- Begin function _ZNK8var_nodeeqERK8exp_node
	.p2align	2
	.type	_ZNK8var_nodeeqERK8exp_node,@function
_ZNK8var_nodeeqERK8exp_node:            # @_ZNK8var_nodeeqERK8exp_node
	.cfi_startproc
# %bb.0:                                # %entry
	addi.d	$sp, $sp, -32
	.cfi_def_cfa_offset 32
	st.d	$ra, $sp, 24                    # 8-byte Folded Spill
	st.d	$fp, $sp, 16                    # 8-byte Folded Spill
	st.d	$s0, $sp, 8                     # 8-byte Folded Spill
	.cfi_offset 1, -8
	.cfi_offset 22, -16
	.cfi_offset 23, -24
	move	$fp, $a1
	ld.d	$a1, $a1, 0
	ld.d	$a1, $a1, 24
	move	$s0, $a0
	move	$a0, $fp
	jirl	$ra, $a1, 0
	ori	$a1, $zero, 3
	bne	$a0, $a1, .LBB26_6
# %bb.1:                                # %if.end
	ld.d	$a0, $s0, 0
	ld.d	$a1, $a0, 32
	move	$a0, $s0
	jirl	$ra, $a1, 0
	bnez	$a0, .LBB26_3
# %bb.2:                                # %land.lhs.true
	ld.d	$a0, $fp, 0
	ld.d	$a1, $a0, 32
	move	$a0, $fp
	jirl	$ra, $a1, 0
	beqz	$a0, .LBB26_8
.LBB26_3:                               # %lor.rhs
	ld.d	$a0, $s0, 0
	ld.d	$a1, $a0, 32
	move	$a0, $s0
	jirl	$ra, $a1, 0
	beqz	$a0, .LBB26_6
# %bb.4:                                # %land.lhs.true14
	ld.d	$a0, $fp, 0
	ld.d	$a1, $a0, 32
	move	$a0, $fp
	jirl	$ra, $a1, 0
	beqz	$a0, .LBB26_6
# %bb.5:                                # %land.rhs
	ld.d	$a0, $s0, 0
	ld.d	$a1, $a0, 32
	move	$a0, $s0
	jirl	$ra, $a1, 0
	ld.d	$a1, $fp, 0
	ld.d	$a1, $a1, 32
	move	$s0, $a0
	move	$a0, $fp
	jirl	$ra, $a1, 0
	move	$a1, $a0
	move	$a0, $s0
	pcaddu18i	$ra, %call36(strcmp)
	jirl	$ra, $ra, 0
	sltui	$a0, $a0, 1
	b	.LBB26_7
.LBB26_6:
	move	$a0, $zero
.LBB26_7:                               # %cleanup
	ld.d	$s0, $sp, 8                     # 8-byte Folded Reload
	ld.d	$fp, $sp, 16                    # 8-byte Folded Reload
	ld.d	$ra, $sp, 24                    # 8-byte Folded Reload
	addi.d	$sp, $sp, 32
	ret
.LBB26_8:
	ori	$a0, $zero, 1
	b	.LBB26_7
.Lfunc_end26:
	.size	_ZNK8var_nodeeqERK8exp_node, .Lfunc_end26-_ZNK8var_nodeeqERK8exp_node
	.cfi_endproc
                                        # -- End function
	.globl	_ZNK8var_node7extractEPKci      # -- Begin function _ZNK8var_node7extractEPKci
	.p2align	2
	.type	_ZNK8var_node7extractEPKci,@function
_ZNK8var_node7extractEPKci:             # @_ZNK8var_node7extractEPKci
.Lfunc_begin2:
	.cfi_startproc
	.cfi_personality 155, DW.ref.__gxx_personality_v0
	.cfi_lsda 27, .Lexception2
# %bb.0:                                # %entry
	addi.d	$sp, $sp, -48
	.cfi_def_cfa_offset 48
	st.d	$ra, $sp, 40                    # 8-byte Folded Spill
	st.d	$fp, $sp, 32                    # 8-byte Folded Spill
	st.d	$s0, $sp, 24                    # 8-byte Folded Spill
	st.d	$s1, $sp, 16                    # 8-byte Folded Spill
	st.d	$s2, $sp, 8                     # 8-byte Folded Spill
	st.d	$s3, $sp, 0                     # 8-byte Folded Spill
	.cfi_offset 1, -8
	.cfi_offset 22, -16
	.cfi_offset 23, -24
	.cfi_offset 24, -32
	.cfi_offset 25, -40
	.cfi_offset 26, -48
	move	$s2, $a0
	ld.d	$a0, $a0, 0
	ld.d	$a2, $a0, 32
	move	$fp, $a1
	move	$a0, $s2
	jirl	$ra, $a2, 0
	beqz	$fp, .LBB27_5
# %bb.1:                                # %entry
	beqz	$a0, .LBB27_5
# %bb.2:                                # %land.lhs.true3
	ld.d	$a0, $s2, 0
	ld.d	$a1, $a0, 32
	move	$a0, $s2
	jirl	$ra, $a1, 0
	move	$a1, $a0
	move	$a0, $fp
	pcaddu18i	$ra, %call36(strcmp)
	jirl	$ra, $ra, 0
	bnez	$a0, .LBB27_6
# %bb.3:                                # %if.then
	ori	$a0, $zero, 24
	pcaddu18i	$ra, %call36(_Znwm)
	jirl	$ra, $ra, 0
	move	$fp, $a0
	st.d	$zero, $a0, 8
	pcalau12i	$a0, %pc_hi20(_ZTV8var_node+16)
	addi.d	$a0, $a0, %pc_lo12(_ZTV8var_node+16)
	st.d	$a0, $fp, 0
.Ltmp50:                                # EH_LABEL
	ori	$a0, $zero, 2
	pcaddu18i	$ra, %call36(_Znam)
	jirl	$ra, $ra, 0
.Ltmp51:                                # EH_LABEL
# %bb.4:                                # %_ZN8var_nodeC2EPKc.exit
	st.d	$a0, $fp, 16
	ori	$a1, $zero, 73
	st.h	$a1, $a0, 0
	b	.LBB27_20
.LBB27_5:                               # %if.else
	beqz	$fp, .LBB27_16
.LBB27_6:                               # %if.then10
	ori	$a0, $zero, 24
	pcaddu18i	$ra, %call36(_Znwm)
	jirl	$ra, $ra, 0
	move	$s0, $a0
	st.d	$zero, $a0, 8
	pcalau12i	$a0, %pc_hi20(_ZTV8var_node+16)
	addi.d	$s3, $a0, %pc_lo12(_ZTV8var_node+16)
	st.d	$s3, $s0, 0
.Ltmp37:                                # EH_LABEL
	ori	$a0, $zero, 2
	pcaddu18i	$ra, %call36(_Znam)
	jirl	$ra, $ra, 0
.Ltmp38:                                # EH_LABEL
# %bb.7:                                # %invoke.cont13
	st.d	$a0, $s0, 16
	ori	$a1, $zero, 75
	st.h	$a1, $a0, 0
	ori	$a0, $zero, 24
	pcaddu18i	$ra, %call36(_Znwm)
	jirl	$ra, $ra, 0
	ld.d	$a1, $s2, 0
	ld.d	$a1, $a1, 32
	move	$s1, $a0
.Ltmp40:                                # EH_LABEL
	move	$a0, $s2
	jirl	$ra, $a1, 0
.Ltmp41:                                # EH_LABEL
# %bb.8:                                # %invoke.cont18
	move	$fp, $a0
	st.d	$zero, $s1, 8
	st.d	$s3, $s1, 0
	beqz	$a0, .LBB27_11
# %bb.9:                                # %if.then.i
	move	$a0, $fp
	pcaddu18i	$ra, %call36(strlen)
	jirl	$ra, $ra, 0
	addi.d	$a0, $a0, 1
.Ltmp42:                                # EH_LABEL
	pcaddu18i	$ra, %call36(_Znam)
	jirl	$ra, $ra, 0
.Ltmp43:                                # EH_LABEL
# %bb.10:                               # %call2.i.noexc
	st.d	$a0, $s1, 16
	move	$a1, $fp
	pcaddu18i	$ra, %call36(strcpy)
	jirl	$ra, $ra, 0
.LBB27_11:                              # %invoke.cont20
	ori	$a0, $zero, 32
	pcaddu18i	$ra, %call36(_Znwm)
	jirl	$ra, $ra, 0
	move	$fp, $a0
	st.d	$zero, $a0, 8
	pcalau12i	$a0, %pc_hi20(_ZTV8app_node+16)
	addi.d	$a0, $a0, %pc_lo12(_ZTV8app_node+16)
	ld.d	$a1, $s0, 0
	st.d	$a0, $fp, 0
	st.d	$zero, $fp, 24
	st.d	$s0, $fp, 16
	ld.d	$a2, $a1, 96
.Ltmp45:                                # EH_LABEL
	move	$a0, $s0
	move	$a1, $fp
	jirl	$ra, $a2, 0
.Ltmp46:                                # EH_LABEL
# %bb.12:                               # %.noexc
	ld.d	$a0, $fp, 24
	beq	$a0, $s1, .LBB27_20
# %bb.13:                               # %if.end.i4.i
	beqz	$a0, .LBB27_15
# %bb.14:                               # %delete.notnull.i6.i
	ld.d	$a1, $a0, 0
	ld.d	$a1, $a1, 16
	jirl	$ra, $a1, 0
.LBB27_15:                              # %if.end5.i9.i
	ld.d	$a0, $s1, 0
	st.d	$s1, $fp, 24
	ld.d	$a2, $a0, 96
.Ltmp47:                                # EH_LABEL
	move	$a0, $s1
	move	$a1, $fp
	jirl	$ra, $a2, 0
.Ltmp48:                                # EH_LABEL
	b	.LBB27_20
.LBB27_16:                              # %if.else25
	ori	$a0, $zero, 24
	pcaddu18i	$ra, %call36(_Znwm)
	jirl	$ra, $ra, 0
	ld.d	$a1, $s2, 0
	ld.d	$a1, $a1, 32
	move	$fp, $a0
.Ltmp32:                                # EH_LABEL
	move	$a0, $s2
	jirl	$ra, $a1, 0
.Ltmp33:                                # EH_LABEL
# %bb.17:                               # %invoke.cont30
	move	$s0, $a0
	st.d	$zero, $fp, 8
	pcalau12i	$a0, %pc_hi20(_ZTV8var_node+16)
	addi.d	$a0, $a0, %pc_lo12(_ZTV8var_node+16)
	st.d	$a0, $fp, 0
	beqz	$s0, .LBB27_20
# %bb.18:                               # %if.then.i26
	move	$a0, $s0
	pcaddu18i	$ra, %call36(strlen)
	jirl	$ra, $ra, 0
	addi.d	$a0, $a0, 1
.Ltmp34:                                # EH_LABEL
	pcaddu18i	$ra, %call36(_Znam)
	jirl	$ra, $ra, 0
.Ltmp35:                                # EH_LABEL
# %bb.19:                               # %call2.i.noexc31
	st.d	$a0, $fp, 16
	move	$a1, $s0
	pcaddu18i	$ra, %call36(strcpy)
	jirl	$ra, $ra, 0
.LBB27_20:                              # %return
	move	$a0, $fp
	ld.d	$s3, $sp, 0                     # 8-byte Folded Reload
	ld.d	$s2, $sp, 8                     # 8-byte Folded Reload
	ld.d	$s1, $sp, 16                    # 8-byte Folded Reload
	ld.d	$s0, $sp, 24                    # 8-byte Folded Reload
	ld.d	$fp, $sp, 32                    # 8-byte Folded Reload
	ld.d	$ra, $sp, 40                    # 8-byte Folded Reload
	addi.d	$sp, $sp, 48
	ret
.LBB27_21:                              # %lpad
.Ltmp52:                                # EH_LABEL
	b	.LBB27_23
.LBB27_22:                              # %lpad29
.Ltmp36:                                # EH_LABEL
.LBB27_23:                              # %eh.resume
	move	$s2, $a0
	ori	$a1, $zero, 24
	move	$a0, $fp
	pcaddu18i	$ra, %call36(_ZdlPvm)
	jirl	$ra, $ra, 0
	move	$a0, $s2
	pcaddu18i	$ra, %call36(_Unwind_Resume)
	jirl	$ra, $ra, 0
.LBB27_24:                              # %lpad12
.Ltmp39:                                # EH_LABEL
	move	$s2, $a0
	ori	$a1, $zero, 24
	move	$a0, $s0
	pcaddu18i	$ra, %call36(_ZdlPvm)
	jirl	$ra, $ra, 0
	move	$a0, $s2
	pcaddu18i	$ra, %call36(_Unwind_Resume)
	jirl	$ra, $ra, 0
.LBB27_25:                              # %lpad22
.Ltmp49:                                # EH_LABEL
	move	$s2, $a0
	ori	$a1, $zero, 32
	move	$a0, $fp
	pcaddu18i	$ra, %call36(_ZdlPvm)
	jirl	$ra, $ra, 0
	move	$a0, $s2
	pcaddu18i	$ra, %call36(_Unwind_Resume)
	jirl	$ra, $ra, 0
.LBB27_26:                              # %lpad17
.Ltmp44:                                # EH_LABEL
	move	$s2, $a0
	ori	$a1, $zero, 24
	move	$a0, $s1
	pcaddu18i	$ra, %call36(_ZdlPvm)
	jirl	$ra, $ra, 0
	move	$a0, $s2
	pcaddu18i	$ra, %call36(_Unwind_Resume)
	jirl	$ra, $ra, 0
.Lfunc_end27:
	.size	_ZNK8var_node7extractEPKci, .Lfunc_end27-_ZNK8var_node7extractEPKci
	.cfi_endproc
	.section	.gcc_except_table,"a",@progbits
	.p2align	2, 0x0
GCC_except_table27:
.Lexception2:
	.byte	255                             # @LPStart Encoding = omit
	.byte	255                             # @TType Encoding = omit
	.byte	1                               # Call site Encoding = uleb128
	.uleb128 .Lcst_end2-.Lcst_begin2
.Lcst_begin2:
	.uleb128 .Lfunc_begin2-.Lfunc_begin2    # >> Call Site 1 <<
	.uleb128 .Ltmp50-.Lfunc_begin2          #   Call between .Lfunc_begin2 and .Ltmp50
	.byte	0                               #     has no landing pad
	.byte	0                               #   On action: cleanup
	.uleb128 .Ltmp50-.Lfunc_begin2          # >> Call Site 2 <<
	.uleb128 .Ltmp51-.Ltmp50                #   Call between .Ltmp50 and .Ltmp51
	.uleb128 .Ltmp52-.Lfunc_begin2          #     jumps to .Ltmp52
	.byte	0                               #   On action: cleanup
	.uleb128 .Ltmp51-.Lfunc_begin2          # >> Call Site 3 <<
	.uleb128 .Ltmp37-.Ltmp51                #   Call between .Ltmp51 and .Ltmp37
	.byte	0                               #     has no landing pad
	.byte	0                               #   On action: cleanup
	.uleb128 .Ltmp37-.Lfunc_begin2          # >> Call Site 4 <<
	.uleb128 .Ltmp38-.Ltmp37                #   Call between .Ltmp37 and .Ltmp38
	.uleb128 .Ltmp39-.Lfunc_begin2          #     jumps to .Ltmp39
	.byte	0                               #   On action: cleanup
	.uleb128 .Ltmp38-.Lfunc_begin2          # >> Call Site 5 <<
	.uleb128 .Ltmp40-.Ltmp38                #   Call between .Ltmp38 and .Ltmp40
	.byte	0                               #     has no landing pad
	.byte	0                               #   On action: cleanup
	.uleb128 .Ltmp40-.Lfunc_begin2          # >> Call Site 6 <<
	.uleb128 .Ltmp41-.Ltmp40                #   Call between .Ltmp40 and .Ltmp41
	.uleb128 .Ltmp44-.Lfunc_begin2          #     jumps to .Ltmp44
	.byte	0                               #   On action: cleanup
	.uleb128 .Ltmp41-.Lfunc_begin2          # >> Call Site 7 <<
	.uleb128 .Ltmp42-.Ltmp41                #   Call between .Ltmp41 and .Ltmp42
	.byte	0                               #     has no landing pad
	.byte	0                               #   On action: cleanup
	.uleb128 .Ltmp42-.Lfunc_begin2          # >> Call Site 8 <<
	.uleb128 .Ltmp43-.Ltmp42                #   Call between .Ltmp42 and .Ltmp43
	.uleb128 .Ltmp44-.Lfunc_begin2          #     jumps to .Ltmp44
	.byte	0                               #   On action: cleanup
	.uleb128 .Ltmp43-.Lfunc_begin2          # >> Call Site 9 <<
	.uleb128 .Ltmp45-.Ltmp43                #   Call between .Ltmp43 and .Ltmp45
	.byte	0                               #     has no landing pad
	.byte	0                               #   On action: cleanup
	.uleb128 .Ltmp45-.Lfunc_begin2          # >> Call Site 10 <<
	.uleb128 .Ltmp46-.Ltmp45                #   Call between .Ltmp45 and .Ltmp46
	.uleb128 .Ltmp49-.Lfunc_begin2          #     jumps to .Ltmp49
	.byte	0                               #   On action: cleanup
	.uleb128 .Ltmp46-.Lfunc_begin2          # >> Call Site 11 <<
	.uleb128 .Ltmp47-.Ltmp46                #   Call between .Ltmp46 and .Ltmp47
	.byte	0                               #     has no landing pad
	.byte	0                               #   On action: cleanup
	.uleb128 .Ltmp47-.Lfunc_begin2          # >> Call Site 12 <<
	.uleb128 .Ltmp48-.Ltmp47                #   Call between .Ltmp47 and .Ltmp48
	.uleb128 .Ltmp49-.Lfunc_begin2          #     jumps to .Ltmp49
	.byte	0                               #   On action: cleanup
	.uleb128 .Ltmp48-.Lfunc_begin2          # >> Call Site 13 <<
	.uleb128 .Ltmp32-.Ltmp48                #   Call between .Ltmp48 and .Ltmp32
	.byte	0                               #     has no landing pad
	.byte	0                               #   On action: cleanup
	.uleb128 .Ltmp32-.Lfunc_begin2          # >> Call Site 14 <<
	.uleb128 .Ltmp33-.Ltmp32                #   Call between .Ltmp32 and .Ltmp33
	.uleb128 .Ltmp36-.Lfunc_begin2          #     jumps to .Ltmp36
	.byte	0                               #   On action: cleanup
	.uleb128 .Ltmp33-.Lfunc_begin2          # >> Call Site 15 <<
	.uleb128 .Ltmp34-.Ltmp33                #   Call between .Ltmp33 and .Ltmp34
	.byte	0                               #     has no landing pad
	.byte	0                               #   On action: cleanup
	.uleb128 .Ltmp34-.Lfunc_begin2          # >> Call Site 16 <<
	.uleb128 .Ltmp35-.Ltmp34                #   Call between .Ltmp34 and .Ltmp35
	.uleb128 .Ltmp36-.Lfunc_begin2          #     jumps to .Ltmp36
	.byte	0                               #   On action: cleanup
	.uleb128 .Ltmp35-.Lfunc_begin2          # >> Call Site 17 <<
	.uleb128 .Lfunc_end27-.Ltmp35           #   Call between .Ltmp35 and .Lfunc_end27
	.byte	0                               #     has no landing pad
	.byte	0                               #   On action: cleanup
.Lcst_end2:
	.p2align	2, 0x0
                                        # -- End function
	.text
	.globl	_ZN8lam_nodeC2EP8arg_nodeP8exp_nodes # -- Begin function _ZN8lam_nodeC2EP8arg_nodeP8exp_nodes
	.p2align	2
	.type	_ZN8lam_nodeC2EP8arg_nodeP8exp_nodes,@function
_ZN8lam_nodeC2EP8arg_nodeP8exp_nodes:   # @_ZN8lam_nodeC2EP8arg_nodeP8exp_nodes
	.cfi_startproc
# %bb.0:                                # %entry
	addi.d	$sp, $sp, -48
	.cfi_def_cfa_offset 48
	st.d	$ra, $sp, 40                    # 8-byte Folded Spill
	st.d	$fp, $sp, 32                    # 8-byte Folded Spill
	st.d	$s0, $sp, 24                    # 8-byte Folded Spill
	st.d	$s1, $sp, 16                    # 8-byte Folded Spill
	st.d	$s2, $sp, 8                     # 8-byte Folded Spill
	.cfi_offset 1, -8
	.cfi_offset 22, -16
	.cfi_offset 23, -24
	.cfi_offset 24, -32
	.cfi_offset 25, -40
	move	$s1, $a3
	move	$s0, $a2
	move	$fp, $a0
	vrepli.b	$vr0, 0
	vst	$vr0, $a0, 8
	pcalau12i	$a0, %pc_hi20(_ZTV8lam_node+16)
	addi.d	$a0, $a0, %pc_lo12(_ZTV8lam_node+16)
	st.d	$a0, $fp, 0
	st.d	$zero, $fp, 24
	beqz	$a1, .LBB28_3
# %bb.1:                                # %if.end5.i
	addi.d	$s2, $fp, 16
	beqz	$s1, .LBB28_4
# %bb.2:                                # %if.end17.i.thread
	st.d	$a1, $s2, 0
	b	.LBB28_5
.LBB28_3:                               # %invoke.cont.thread
	bnez	$s0, .LBB28_9
	b	.LBB28_15
.LBB28_4:                               # %if.end17.i
	ld.d	$a0, $a1, 0
	ld.d	$a2, $a0, 0
	move	$a0, $a1
	jirl	$ra, $a2, 0
	move	$a1, $a0
	st.d	$a0, $s2, 0
	beqz	$a0, .LBB28_6
.LBB28_5:                               # %if.then20.i
	ld.d	$a0, $a1, 0
	ld.d	$a2, $a0, 96
	move	$a0, $a1
	move	$a1, $fp
	jirl	$ra, $a2, 0
.LBB28_6:                               # %invoke.cont
	ld.d	$a0, $fp, 24
	beq	$a0, $s0, .LBB28_15
# %bb.7:                                # %if.end.i4
	beqz	$a0, .LBB28_9
# %bb.8:                                # %delete.notnull.i6
	ld.d	$a1, $a0, 0
	ld.d	$a1, $a1, 16
	jirl	$ra, $a1, 0
.LBB28_9:                               # %if.end5.i9
	beqz	$s1, .LBB28_11
# %bb.10:                               # %if.end17.i11
	st.d	$s0, $fp, 24
	bnez	$s0, .LBB28_13
	b	.LBB28_15
.LBB28_11:                              # %if.else.i17
	beqz	$s0, .LBB28_14
# %bb.12:                               # %if.then10.i19
	ld.d	$a0, $s0, 0
	ld.d	$a1, $a0, 0
	move	$a0, $s0
	jirl	$ra, $a1, 0
	move	$s0, $a0
	st.d	$s0, $fp, 24
	beqz	$s0, .LBB28_15
.LBB28_13:                              # %if.then20.i14
	ld.d	$a0, $s0, 0
	ld.d	$a2, $a0, 96
	move	$a0, $s0
	move	$a1, $fp
	ld.d	$s2, $sp, 8                     # 8-byte Folded Reload
	ld.d	$s1, $sp, 16                    # 8-byte Folded Reload
	ld.d	$s0, $sp, 24                    # 8-byte Folded Reload
	ld.d	$fp, $sp, 32                    # 8-byte Folded Reload
	ld.d	$ra, $sp, 40                    # 8-byte Folded Reload
	addi.d	$sp, $sp, 48
	jr	$a2
.LBB28_14:                              # %if.end17.thread.i21
	st.d	$zero, $fp, 24
.LBB28_15:                              # %invoke.cont2
	ld.d	$s2, $sp, 8                     # 8-byte Folded Reload
	ld.d	$s1, $sp, 16                    # 8-byte Folded Reload
	ld.d	$s0, $sp, 24                    # 8-byte Folded Reload
	ld.d	$fp, $sp, 32                    # 8-byte Folded Reload
	ld.d	$ra, $sp, 40                    # 8-byte Folded Reload
	addi.d	$sp, $sp, 48
	ret
.Lfunc_end28:
	.size	_ZN8lam_nodeC2EP8arg_nodeP8exp_nodes, .Lfunc_end28-_ZN8lam_nodeC2EP8arg_nodeP8exp_nodes
	.cfi_endproc
                                        # -- End function
	.globl	_ZN8lam_node7set_argEP8arg_nodes # -- Begin function _ZN8lam_node7set_argEP8arg_nodes
	.p2align	2
	.type	_ZN8lam_node7set_argEP8arg_nodes,@function
_ZN8lam_node7set_argEP8arg_nodes:       # @_ZN8lam_node7set_argEP8arg_nodes
	.cfi_startproc
# %bb.0:                                # %entry
	addi.d	$sp, $sp, -32
	.cfi_def_cfa_offset 32
	st.d	$ra, $sp, 24                    # 8-byte Folded Spill
	st.d	$fp, $sp, 16                    # 8-byte Folded Spill
	st.d	$s0, $sp, 8                     # 8-byte Folded Spill
	st.d	$s1, $sp, 0                     # 8-byte Folded Spill
	.cfi_offset 1, -8
	.cfi_offset 22, -16
	.cfi_offset 23, -24
	.cfi_offset 24, -32
	move	$fp, $a0
	ld.d	$a0, $a0, 16
	beq	$a0, $a1, .LBB29_9
# %bb.1:                                # %if.end
	move	$s1, $a2
	move	$s0, $a1
	beqz	$a0, .LBB29_3
# %bb.2:                                # %delete.notnull
	ld.d	$a1, $a0, 0
	ld.d	$a1, $a1, 16
	jirl	$ra, $a1, 0
.LBB29_3:                               # %if.end5
	beqz	$s1, .LBB29_5
# %bb.4:                                # %if.end17
	st.d	$s0, $fp, 16
	bnez	$s0, .LBB29_7
	b	.LBB29_9
.LBB29_5:                               # %if.else
	beqz	$s0, .LBB29_8
# %bb.6:                                # %if.then10
	ld.d	$a0, $s0, 0
	ld.d	$a1, $a0, 0
	move	$a0, $s0
	jirl	$ra, $a1, 0
	move	$s0, $a0
	st.d	$s0, $fp, 16
	beqz	$s0, .LBB29_9
.LBB29_7:                               # %if.then20
	ld.d	$a0, $s0, 0
	ld.d	$a2, $a0, 96
	move	$a0, $s0
	move	$a1, $fp
	ld.d	$s1, $sp, 0                     # 8-byte Folded Reload
	ld.d	$s0, $sp, 8                     # 8-byte Folded Reload
	ld.d	$fp, $sp, 16                    # 8-byte Folded Reload
	ld.d	$ra, $sp, 24                    # 8-byte Folded Reload
	addi.d	$sp, $sp, 32
	jr	$a2
.LBB29_8:                               # %if.end17.thread
	st.d	$zero, $fp, 16
.LBB29_9:                               # %if.end24
	ld.d	$s1, $sp, 0                     # 8-byte Folded Reload
	ld.d	$s0, $sp, 8                     # 8-byte Folded Reload
	ld.d	$fp, $sp, 16                    # 8-byte Folded Reload
	ld.d	$ra, $sp, 24                    # 8-byte Folded Reload
	addi.d	$sp, $sp, 32
	ret
.Lfunc_end29:
	.size	_ZN8lam_node7set_argEP8arg_nodes, .Lfunc_end29-_ZN8lam_node7set_argEP8arg_nodes
	.cfi_endproc
                                        # -- End function
	.globl	_ZN8lam_node8set_bodyEP8exp_nodes # -- Begin function _ZN8lam_node8set_bodyEP8exp_nodes
	.p2align	2
	.type	_ZN8lam_node8set_bodyEP8exp_nodes,@function
_ZN8lam_node8set_bodyEP8exp_nodes:      # @_ZN8lam_node8set_bodyEP8exp_nodes
	.cfi_startproc
# %bb.0:                                # %entry
	addi.d	$sp, $sp, -32
	.cfi_def_cfa_offset 32
	st.d	$ra, $sp, 24                    # 8-byte Folded Spill
	st.d	$fp, $sp, 16                    # 8-byte Folded Spill
	st.d	$s0, $sp, 8                     # 8-byte Folded Spill
	st.d	$s1, $sp, 0                     # 8-byte Folded Spill
	.cfi_offset 1, -8
	.cfi_offset 22, -16
	.cfi_offset 23, -24
	.cfi_offset 24, -32
	move	$fp, $a0
	ld.d	$a0, $a0, 24
	beq	$a0, $a1, .LBB30_9
# %bb.1:                                # %if.end
	move	$s1, $a2
	move	$s0, $a1
	beqz	$a0, .LBB30_3
# %bb.2:                                # %delete.notnull
	ld.d	$a1, $a0, 0
	ld.d	$a1, $a1, 16
	jirl	$ra, $a1, 0
.LBB30_3:                               # %if.end5
	beqz	$s1, .LBB30_5
# %bb.4:                                # %if.end17
	st.d	$s0, $fp, 24
	bnez	$s0, .LBB30_7
	b	.LBB30_9
.LBB30_5:                               # %if.else
	beqz	$s0, .LBB30_8
# %bb.6:                                # %if.then10
	ld.d	$a0, $s0, 0
	ld.d	$a1, $a0, 0
	move	$a0, $s0
	jirl	$ra, $a1, 0
	move	$s0, $a0
	st.d	$s0, $fp, 24
	beqz	$s0, .LBB30_9
.LBB30_7:                               # %if.then20
	ld.d	$a0, $s0, 0
	ld.d	$a2, $a0, 96
	move	$a0, $s0
	move	$a1, $fp
	ld.d	$s1, $sp, 0                     # 8-byte Folded Reload
	ld.d	$s0, $sp, 8                     # 8-byte Folded Reload
	ld.d	$fp, $sp, 16                    # 8-byte Folded Reload
	ld.d	$ra, $sp, 24                    # 8-byte Folded Reload
	addi.d	$sp, $sp, 32
	jr	$a2
.LBB30_8:                               # %if.end17.thread
	st.d	$zero, $fp, 24
.LBB30_9:                               # %if.end24
	ld.d	$s1, $sp, 0                     # 8-byte Folded Reload
	ld.d	$s0, $sp, 8                     # 8-byte Folded Reload
	ld.d	$fp, $sp, 16                    # 8-byte Folded Reload
	ld.d	$ra, $sp, 24                    # 8-byte Folded Reload
	addi.d	$sp, $sp, 32
	ret
.Lfunc_end30:
	.size	_ZN8lam_node8set_bodyEP8exp_nodes, .Lfunc_end30-_ZN8lam_node8set_bodyEP8exp_nodes
	.cfi_endproc
                                        # -- End function
	.globl	_ZN8lam_nodeC2ERKS_             # -- Begin function _ZN8lam_nodeC2ERKS_
	.p2align	2
	.type	_ZN8lam_nodeC2ERKS_,@function
_ZN8lam_nodeC2ERKS_:                    # @_ZN8lam_nodeC2ERKS_
	.cfi_startproc
# %bb.0:                                # %entry
	addi.d	$sp, $sp, -32
	.cfi_def_cfa_offset 32
	st.d	$ra, $sp, 24                    # 8-byte Folded Spill
	st.d	$fp, $sp, 16                    # 8-byte Folded Spill
	st.d	$s0, $sp, 8                     # 8-byte Folded Spill
	.cfi_offset 1, -8
	.cfi_offset 22, -16
	.cfi_offset 23, -24
	move	$s0, $a1
	move	$fp, $a0
	ld.d	$a0, $a1, 16
	st.d	$zero, $fp, 8
	pcalau12i	$a1, %pc_hi20(_ZTV8lam_node+16)
	addi.d	$a1, $a1, %pc_lo12(_ZTV8lam_node+16)
	st.d	$a1, $fp, 0
	beqz	$a0, .LBB31_6
# %bb.1:                                # %if.end
	ld.d	$a1, $a0, 0
	ld.d	$a1, $a1, 0
	jirl	$ra, $a1, 0
	st.d	$a0, $fp, 16
	beqz	$a0, .LBB31_3
# %bb.2:                                # %if.then7
	ld.d	$a1, $a0, 0
	ld.d	$a2, $a1, 96
	move	$a1, $fp
	jirl	$ra, $a2, 0
.LBB31_3:                               # %if.end12
	ld.d	$a0, $s0, 24
	beqz	$a0, .LBB31_7
.LBB31_4:                               # %if.end23
	ld.d	$a1, $a0, 0
	ld.d	$a1, $a1, 0
	jirl	$ra, $a1, 0
	st.d	$a0, $fp, 24
	beqz	$a0, .LBB31_8
# %bb.5:                                # %if.then26
	ld.d	$a1, $a0, 0
	ld.d	$a2, $a1, 96
	move	$a1, $fp
	jirl	$ra, $a2, 0
	b	.LBB31_8
.LBB31_6:                               # %if.end.thread
	st.d	$zero, $fp, 16
	ld.d	$a0, $s0, 24
	bnez	$a0, .LBB31_4
.LBB31_7:                               # %if.end23.thread
	st.d	$zero, $fp, 24
.LBB31_8:                               # %if.end31
	st.d	$zero, $fp, 8
	ld.d	$s0, $sp, 8                     # 8-byte Folded Reload
	ld.d	$fp, $sp, 16                    # 8-byte Folded Reload
	ld.d	$ra, $sp, 24                    # 8-byte Folded Reload
	addi.d	$sp, $sp, 32
	ret
.Lfunc_end31:
	.size	_ZN8lam_nodeC2ERKS_, .Lfunc_end31-_ZN8lam_nodeC2ERKS_
	.cfi_endproc
                                        # -- End function
	.globl	_ZN8lam_nodeD2Ev                # -- Begin function _ZN8lam_nodeD2Ev
	.p2align	2
	.type	_ZN8lam_nodeD2Ev,@function
_ZN8lam_nodeD2Ev:                       # @_ZN8lam_nodeD2Ev
# %bb.0:                                # %entry
	addi.d	$sp, $sp, -16
	st.d	$ra, $sp, 8                     # 8-byte Folded Spill
	st.d	$fp, $sp, 0                     # 8-byte Folded Spill
	move	$fp, $a0
	ld.d	$a0, $a0, 16
	pcalau12i	$a1, %pc_hi20(_ZTV8lam_node+16)
	addi.d	$a1, $a1, %pc_lo12(_ZTV8lam_node+16)
	st.d	$a1, $fp, 0
	beqz	$a0, .LBB32_2
# %bb.1:                                # %delete.notnull
	ld.d	$a1, $a0, 0
	ld.d	$a1, $a1, 16
	jirl	$ra, $a1, 0
.LBB32_2:                               # %if.end
	ld.d	$a0, $fp, 24
	beqz	$a0, .LBB32_4
# %bb.3:                                # %delete.notnull7
	ld.d	$a1, $a0, 0
	ld.d	$a1, $a1, 16
	ld.d	$fp, $sp, 0                     # 8-byte Folded Reload
	ld.d	$ra, $sp, 8                     # 8-byte Folded Reload
	addi.d	$sp, $sp, 16
	jr	$a1
.LBB32_4:                               # %if.end11
	ld.d	$fp, $sp, 0                     # 8-byte Folded Reload
	ld.d	$ra, $sp, 8                     # 8-byte Folded Reload
	addi.d	$sp, $sp, 16
	ret
.Lfunc_end32:
	.size	_ZN8lam_nodeD2Ev, .Lfunc_end32-_ZN8lam_nodeD2Ev
                                        # -- End function
	.globl	_ZN8lam_nodeD0Ev                # -- Begin function _ZN8lam_nodeD0Ev
	.p2align	2
	.type	_ZN8lam_nodeD0Ev,@function
_ZN8lam_nodeD0Ev:                       # @_ZN8lam_nodeD0Ev
# %bb.0:                                # %entry
	addi.d	$sp, $sp, -16
	st.d	$ra, $sp, 8                     # 8-byte Folded Spill
	st.d	$fp, $sp, 0                     # 8-byte Folded Spill
	move	$fp, $a0
	ld.d	$a0, $a0, 16
	pcalau12i	$a1, %pc_hi20(_ZTV8lam_node+16)
	addi.d	$a1, $a1, %pc_lo12(_ZTV8lam_node+16)
	st.d	$a1, $fp, 0
	beqz	$a0, .LBB33_2
# %bb.1:                                # %delete.notnull.i
	ld.d	$a1, $a0, 0
	ld.d	$a1, $a1, 16
	jirl	$ra, $a1, 0
.LBB33_2:                               # %if.end.i
	ld.d	$a0, $fp, 24
	beqz	$a0, .LBB33_4
# %bb.3:                                # %delete.notnull7.i
	ld.d	$a1, $a0, 0
	ld.d	$a1, $a1, 16
	jirl	$ra, $a1, 0
.LBB33_4:                               # %_ZN8lam_nodeD2Ev.exit
	ori	$a1, $zero, 32
	move	$a0, $fp
	ld.d	$fp, $sp, 0                     # 8-byte Folded Reload
	ld.d	$ra, $sp, 8                     # 8-byte Folded Reload
	addi.d	$sp, $sp, 16
	pcaddu18i	$t8, %call36(_ZdlPvm)
	jr	$t8
.Lfunc_end33:
	.size	_ZN8lam_nodeD0Ev, .Lfunc_end33-_ZN8lam_nodeD0Ev
                                        # -- End function
	.globl	_ZNK8lam_node8has_freeEPK8arg_nodePK9alst_node # -- Begin function _ZNK8lam_node8has_freeEPK8arg_nodePK9alst_node
	.p2align	2
	.type	_ZNK8lam_node8has_freeEPK8arg_nodePK9alst_node,@function
_ZNK8lam_node8has_freeEPK8arg_nodePK9alst_node: # @_ZNK8lam_node8has_freeEPK8arg_nodePK9alst_node
	.cfi_startproc
# %bb.0:                                # %entry
	addi.d	$sp, $sp, -64
	.cfi_def_cfa_offset 64
	st.d	$ra, $sp, 56                    # 8-byte Folded Spill
	st.d	$fp, $sp, 48                    # 8-byte Folded Spill
	st.d	$s0, $sp, 40                    # 8-byte Folded Spill
	.cfi_offset 1, -8
	.cfi_offset 22, -16
	.cfi_offset 23, -24
	ld.d	$a3, $a0, 16
	st.d	$zero, $sp, 16
	pcalau12i	$a4, %pc_hi20(_ZTV11stack_frame+16)
	addi.d	$a4, $a4, %pc_lo12(_ZTV11stack_frame+16)
	st.d	$a4, $sp, 8
	st.d	$a3, $sp, 24
	st.d	$a2, $sp, 32
	beqz	$a3, .LBB34_5
# %bb.1:                                # %land.lhs.true
	ld.d	$a2, $a3, 16
	ld.d	$a3, $a1, 16
	beqz	$a2, .LBB34_4
# %bb.2:                                # %land.lhs.true
	beqz	$a3, .LBB34_4
# %bb.3:                                # %land.rhs.i
	move	$fp, $a0
	move	$a0, $a2
	move	$s0, $a1
	move	$a1, $a3
	pcaddu18i	$ra, %call36(strcmp)
	jirl	$ra, $ra, 0
	move	$a1, $s0
	move	$a2, $a0
	move	$a0, $fp
	bnez	$a2, .LBB34_5
	b	.LBB34_7
.LBB34_4:                               # %_ZNK8arg_nodeeqERKS_.exit
	or	$a2, $a2, $a3
	beqz	$a2, .LBB34_7
.LBB34_5:                               # %if.end
	ld.d	$a0, $a0, 24
	beqz	$a0, .LBB34_7
# %bb.6:                                # %if.then6
	ld.d	$a2, $a0, 0
	ld.d	$a3, $a2, 120
	addi.d	$a2, $sp, 8
	jirl	$ra, $a3, 0
	b	.LBB34_8
.LBB34_7:
	move	$a0, $zero
.LBB34_8:                               # %cleanup
	ld.d	$s0, $sp, 40                    # 8-byte Folded Reload
	ld.d	$fp, $sp, 48                    # 8-byte Folded Reload
	ld.d	$ra, $sp, 56                    # 8-byte Folded Reload
	addi.d	$sp, $sp, 64
	ret
.Lfunc_end34:
	.size	_ZNK8lam_node8has_freeEPK8arg_nodePK9alst_node, .Lfunc_end34-_ZNK8lam_node8has_freeEPK8arg_nodePK9alst_node
	.cfi_endproc
                                        # -- End function
	.section	.text._ZN11stack_frameD2Ev,"axG",@progbits,_ZN11stack_frameD2Ev,comdat
	.weak	_ZN11stack_frameD2Ev            # -- Begin function _ZN11stack_frameD2Ev
	.p2align	2
	.type	_ZN11stack_frameD2Ev,@function
_ZN11stack_frameD2Ev:                   # @_ZN11stack_frameD2Ev
# %bb.0:                                # %if.end.i
	vrepli.b	$vr0, 0
	vst	$vr0, $a0, 16
	pcalau12i	$a1, %pc_hi20(_ZTV11arglst_node+16)
	addi.d	$a1, $a1, %pc_lo12(_ZTV11arglst_node+16)
	st.d	$a1, $a0, 0
	ret
.Lfunc_end35:
	.size	_ZN11stack_frameD2Ev, .Lfunc_end35-_ZN11stack_frameD2Ev
                                        # -- End function
	.text
	.globl	_ZNK8lam_node5printEPK9alst_nodei # -- Begin function _ZNK8lam_node5printEPK9alst_nodei
	.p2align	2
	.type	_ZNK8lam_node5printEPK9alst_nodei,@function
_ZNK8lam_node5printEPK9alst_nodei:      # @_ZNK8lam_node5printEPK9alst_nodei
	.cfi_startproc
# %bb.0:                                # %entry
	addi.d	$sp, $sp, -96
	.cfi_def_cfa_offset 96
	st.d	$ra, $sp, 88                    # 8-byte Folded Spill
	st.d	$fp, $sp, 80                    # 8-byte Folded Spill
	st.d	$s0, $sp, 72                    # 8-byte Folded Spill
	st.d	$s1, $sp, 64                    # 8-byte Folded Spill
	st.d	$s2, $sp, 56                    # 8-byte Folded Spill
	st.d	$s3, $sp, 48                    # 8-byte Folded Spill
	st.d	$s4, $sp, 40                    # 8-byte Folded Spill
	st.d	$s5, $sp, 32                    # 8-byte Folded Spill
	st.d	$s6, $sp, 24                    # 8-byte Folded Spill
	st.d	$s7, $sp, 16                    # 8-byte Folded Spill
	.cfi_offset 1, -8
	.cfi_offset 22, -16
	.cfi_offset 23, -24
	.cfi_offset 24, -32
	.cfi_offset 25, -40
	.cfi_offset 26, -48
	.cfi_offset 27, -56
	.cfi_offset 28, -64
	.cfi_offset 29, -72
	.cfi_offset 30, -80
	move	$fp, $a2
	andi	$a2, $a2, 8
	move	$s0, $a1
	move	$s1, $a0
	bnez	$a2, .LBB36_4
.LBB36_1:                               # %if.then197
	ori	$a0, $zero, 94
	pcaddu18i	$ra, %call36(putchar)
	jirl	$ra, $ra, 0
	ld.d	$a0, $s1, 0
	ld.d	$a1, $a0, 48
	move	$a0, $s1
	jirl	$ra, $a1, 0
	beqz	$a0, .LBB36_8
# %bb.2:                                # %land.lhs.true203
	ld.d	$a0, $s1, 0
	ld.d	$a1, $a0, 48
	move	$a0, $s1
	jirl	$ra, $a1, 0
	ld.d	$a1, $a0, 0
	ld.d	$a1, $a1, 32
	jirl	$ra, $a1, 0
	beqz	$a0, .LBB36_8
# %bb.3:                                # %if.then211
	ld.d	$a0, $s1, 0
	ld.d	$a1, $a0, 48
	move	$a0, $s1
	jirl	$ra, $a1, 0
	ld.d	$a1, $a0, 0
	ld.d	$a1, $a1, 32
	jirl	$ra, $a1, 0
	move	$a1, $a0
	pcalau12i	$a0, %pc_hi20(.L.str.1)
	addi.d	$a0, $a0, %pc_lo12(.L.str.1)
	pcaddu18i	$ra, %call36(printf)
	jirl	$ra, $ra, 0
	b	.LBB36_9
.LBB36_4:                               # %if.then
	beqz	$s0, .LBB36_14
# %bb.5:                                # %if.then3
	ld.d	$a0, $s1, 0
	ld.d	$a2, $a0, 192
	move	$a0, $s1
	move	$a1, $s0
	jirl	$ra, $a2, 0
	beqz	$a0, .LBB36_14
# %bb.6:                                # %if.then5
	ld.d	$a1, $a0, 0
	ld.d	$a1, $a1, 48
	jirl	$ra, $a1, 0
	ld.d	$a1, $a0, 0
	ld.d	$a1, $a1, 32
	jirl	$ra, $a1, 0
	pcalau12i	$a1, %pc_hi20(.L.str.1)
	addi.d	$a1, $a1, %pc_lo12(.L.str.1)
	move	$a2, $a0
	move	$a0, $a1
	move	$a1, $a2
.LBB36_7:                               # %if.then146
	ld.d	$s7, $sp, 16                    # 8-byte Folded Reload
	ld.d	$s6, $sp, 24                    # 8-byte Folded Reload
	ld.d	$s5, $sp, 32                    # 8-byte Folded Reload
	ld.d	$s4, $sp, 40                    # 8-byte Folded Reload
	ld.d	$s3, $sp, 48                    # 8-byte Folded Reload
	ld.d	$s2, $sp, 56                    # 8-byte Folded Reload
	ld.d	$s1, $sp, 64                    # 8-byte Folded Reload
	ld.d	$s0, $sp, 72                    # 8-byte Folded Reload
	ld.d	$fp, $sp, 80                    # 8-byte Folded Reload
	ld.d	$ra, $sp, 88                    # 8-byte Folded Reload
	addi.d	$sp, $sp, 96
	pcaddu18i	$t8, %call36(printf)
	jr	$t8
.LBB36_8:                               # %if.else219
	pcalau12i	$a0, %pc_hi20(.L.str.13)
	addi.d	$a0, $a0, %pc_lo12(.L.str.13)
	pcaddu18i	$ra, %call36(printf)
	jirl	$ra, $ra, 0
.LBB36_9:                               # %if.end221
	ld.d	$a0, $s1, 0
	ld.d	$a1, $a0, 48
	move	$a0, $s1
	jirl	$ra, $a1, 0
	beqz	$a0, .LBB36_12
# %bb.10:                               # %land.lhs.true226
	ld.d	$a0, $s1, 0
	ld.d	$a1, $a0, 48
	move	$a0, $s1
	jirl	$ra, $a1, 0
	ld.d	$a1, $a0, 0
	ld.d	$a1, $a1, 40
	jirl	$ra, $a1, 0
	beqz	$a0, .LBB36_12
# %bb.11:                               # %if.then234
	ori	$a0, $zero, 91
	pcaddu18i	$ra, %call36(putchar)
	jirl	$ra, $ra, 0
	ld.d	$a0, $s1, 0
	ld.d	$a1, $a0, 48
	move	$a0, $s1
	jirl	$ra, $a1, 0
	ld.d	$a1, $a0, 0
	ld.d	$a1, $a1, 40
	jirl	$ra, $a1, 0
	ld.d	$a1, $a0, 0
	ld.d	$a3, $a1, 112
	move	$a1, $s0
	move	$a2, $fp
	jirl	$ra, $a3, 0
	ori	$a0, $zero, 93
	pcaddu18i	$ra, %call36(putchar)
	jirl	$ra, $ra, 0
.LBB36_12:                              # %if.end245
	ori	$a0, $zero, 46
	pcaddu18i	$ra, %call36(putchar)
	jirl	$ra, $ra, 0
	ld.d	$a0, $s1, 0
	ld.d	$a1, $a0, 56
	move	$a0, $s1
	jirl	$ra, $a1, 0
	beqz	$a0, .LBB36_35
# %bb.13:                               # %if.then251
	ld.d	$a0, $s1, 0
	ld.d	$a1, $a0, 56
	move	$a0, $s1
	jirl	$ra, $a1, 0
	ld.d	$a1, $a0, 0
	ld.d	$a3, $a1, 112
	move	$a1, $s0
	move	$a2, $fp
	ld.d	$s7, $sp, 16                    # 8-byte Folded Reload
	ld.d	$s6, $sp, 24                    # 8-byte Folded Reload
	ld.d	$s5, $sp, 32                    # 8-byte Folded Reload
	ld.d	$s4, $sp, 40                    # 8-byte Folded Reload
	ld.d	$s3, $sp, 48                    # 8-byte Folded Reload
	ld.d	$s2, $sp, 56                    # 8-byte Folded Reload
	ld.d	$s1, $sp, 64                    # 8-byte Folded Reload
	ld.d	$s0, $sp, 72                    # 8-byte Folded Reload
	ld.d	$fp, $sp, 80                    # 8-byte Folded Reload
	ld.d	$ra, $sp, 88                    # 8-byte Folded Reload
	addi.d	$sp, $sp, 96
	jr	$a3
.LBB36_14:                              # %if.then15
	ld.d	$a0, $s1, 0
	ld.d	$a1, $a0, 56
	move	$a0, $s1
	jirl	$ra, $a1, 0
	ld.d	$a1, $a0, 0
	ld.d	$a1, $a1, 24
	jirl	$ra, $a1, 0
	ori	$a1, $zero, 4
	bne	$a0, $a1, .LBB36_29
# %bb.15:                               # %land.lhs.true
	ld.d	$a0, $s1, 0
	ld.d	$a1, $a0, 48
	move	$a0, $s1
	jirl	$ra, $a1, 0
	beqz	$a0, .LBB36_29
# %bb.16:                               # %land.lhs.true26
	ld.d	$a0, $s1, 0
	ld.d	$a1, $a0, 48
	move	$a0, $s1
	jirl	$ra, $a1, 0
	ld.d	$a1, $a0, 0
	ld.d	$a1, $a1, 32
	jirl	$ra, $a1, 0
	beqz	$a0, .LBB36_29
# %bb.17:                               # %land.lhs.true34
	ld.d	$a0, $s1, 0
	ld.d	$a1, $a0, 56
	move	$a0, $s1
	jirl	$ra, $a1, 0
	beqz	$a0, .LBB36_29
# %bb.18:                               # %land.lhs.true39
	ld.d	$a0, $s1, 0
	ld.d	$a1, $a0, 56
	move	$a0, $s1
	jirl	$ra, $a1, 0
	ld.d	$a1, $a0, 0
	ld.d	$a1, $a1, 48
	jirl	$ra, $a1, 0
	beqz	$a0, .LBB36_29
# %bb.19:                               # %land.lhs.true47
	ld.d	$a0, $s1, 0
	ld.d	$a1, $a0, 56
	move	$a0, $s1
	jirl	$ra, $a1, 0
	ld.d	$a1, $a0, 0
	ld.d	$a1, $a1, 48
	jirl	$ra, $a1, 0
	ld.d	$a1, $a0, 0
	ld.d	$a1, $a1, 32
	jirl	$ra, $a1, 0
	beqz	$a0, .LBB36_29
# %bb.20:                               # %land.lhs.true58
	ld.d	$a0, $s1, 0
	ld.d	$a1, $a0, 56
	move	$a0, $s1
	jirl	$ra, $a1, 0
	ld.d	$a1, $a0, 0
	ld.d	$a1, $a1, 56
	jirl	$ra, $a1, 0
	beqz	$a0, .LBB36_29
# %bb.21:                               # %if.then66
	ld.d	$a0, $s1, 0
	ld.d	$a1, $a0, 48
	move	$a0, $s1
	jirl	$ra, $a1, 0
	ld.d	$a1, $a0, 0
	ld.d	$a1, $a1, 32
	jirl	$ra, $a1, 0
	ld.d	$a1, $s1, 0
	ld.d	$a1, $a1, 56
	move	$s4, $a0
	move	$a0, $s1
	jirl	$ra, $a1, 0
	ld.d	$a1, $a0, 0
	ld.d	$a1, $a1, 48
	jirl	$ra, $a1, 0
	ld.d	$a1, $a0, 0
	ld.d	$a1, $a1, 32
	jirl	$ra, $a1, 0
	ld.d	$a1, $s1, 0
	ld.d	$a1, $a1, 56
	move	$s2, $a0
	move	$a0, $s1
	jirl	$ra, $a1, 0
	ld.d	$a1, $a0, 0
	ld.d	$a1, $a1, 56
	jirl	$ra, $a1, 0
	beqz	$a0, .LBB36_39
# %bb.22:                               # %for.body.preheader
	move	$s5, $a0
	move	$s3, $zero
	ori	$s6, $zero, 5
	ori	$s7, $zero, 3
.LBB36_23:                              # %for.body
                                        # =>This Inner Loop Header: Depth=1
	ld.d	$a0, $s5, 0
	ld.d	$a1, $a0, 24
	move	$a0, $s5
	jirl	$ra, $a1, 0
	bne	$a0, $s6, .LBB36_36
# %bb.24:                               # %land.lhs.true93
                                        #   in Loop: Header=BB36_23 Depth=1
	ld.d	$a0, $s5, 0
	ld.d	$a1, $a0, 64
	move	$a0, $s5
	jirl	$ra, $a1, 0
	beqz	$a0, .LBB36_36
# %bb.25:                               # %land.lhs.true98
                                        #   in Loop: Header=BB36_23 Depth=1
	ld.d	$a0, $s5, 0
	ld.d	$a1, $a0, 64
	move	$a0, $s5
	jirl	$ra, $a1, 0
	ld.d	$a1, $a0, 0
	ld.d	$a1, $a1, 24
	jirl	$ra, $a1, 0
	bne	$a0, $s7, .LBB36_36
# %bb.26:                               # %land.lhs.true106
                                        #   in Loop: Header=BB36_23 Depth=1
	ld.d	$a0, $s5, 0
	ld.d	$a1, $a0, 64
	move	$a0, $s5
	jirl	$ra, $a1, 0
	ld.d	$a1, $a0, 0
	ld.d	$a1, $a1, 32
	jirl	$ra, $a1, 0
	beqz	$a0, .LBB36_36
# %bb.27:                               # %land.lhs.true114
                                        #   in Loop: Header=BB36_23 Depth=1
	ld.d	$a0, $s5, 0
	ld.d	$a1, $a0, 64
	move	$a0, $s5
	jirl	$ra, $a1, 0
	ld.d	$a1, $a0, 0
	ld.d	$a1, $a1, 32
	jirl	$ra, $a1, 0
	move	$a1, $a0
	move	$a0, $s4
	pcaddu18i	$ra, %call36(strcmp)
	jirl	$ra, $ra, 0
	bnez	$a0, .LBB36_36
# %bb.28:                               # %if.then123
                                        #   in Loop: Header=BB36_23 Depth=1
	ld.d	$a0, $s5, 0
	ld.d	$a1, $a0, 72
	addi.w	$s3, $s3, 1
	move	$a0, $s5
	jirl	$ra, $a1, 0
	move	$s5, $a0
	bnez	$a0, .LBB36_23
	b	.LBB36_40
.LBB36_29:                              # %if.else149
	ld.d	$a0, $s1, 0
	ld.d	$a1, $a0, 48
	move	$a0, $s1
	jirl	$ra, $a1, 0
	beqz	$a0, .LBB36_1
# %bb.30:                               # %land.lhs.true154
	ld.d	$a0, $s1, 0
	ld.d	$a1, $a0, 48
	move	$a0, $s1
	jirl	$ra, $a1, 0
	ld.d	$a1, $a0, 0
	ld.d	$a1, $a1, 32
	jirl	$ra, $a1, 0
	beqz	$a0, .LBB36_1
# %bb.31:                               # %land.lhs.true162
	ld.d	$a0, $s1, 0
	ld.d	$a1, $a0, 56
	move	$a0, $s1
	jirl	$ra, $a1, 0
	beqz	$a0, .LBB36_1
# %bb.32:                               # %land.lhs.true167
	ld.d	$a0, $s1, 0
	ld.d	$a1, $a0, 56
	move	$a0, $s1
	jirl	$ra, $a1, 0
	ld.d	$a1, $a0, 0
	ld.d	$a1, $a1, 24
	jirl	$ra, $a1, 0
	ori	$a1, $zero, 3
	bne	$a0, $a1, .LBB36_1
# %bb.33:                               # %land.lhs.true175
	ld.d	$a0, $s1, 0
	ld.d	$a1, $a0, 48
	move	$a0, $s1
	jirl	$ra, $a1, 0
	ld.d	$a1, $a0, 0
	ld.d	$a1, $a1, 32
	jirl	$ra, $a1, 0
	ld.d	$a1, $s1, 0
	ld.d	$a1, $a1, 56
	move	$s2, $a0
	move	$a0, $s1
	jirl	$ra, $a1, 0
	ld.d	$a1, $a0, 0
	ld.d	$a1, $a1, 32
	jirl	$ra, $a1, 0
	move	$a1, $a0
	move	$a0, $s2
	pcaddu18i	$ra, %call36(strcmp)
	jirl	$ra, $ra, 0
	bnez	$a0, .LBB36_1
# %bb.34:                               # %if.then190
	ori	$a0, $zero, 73
	ld.d	$s7, $sp, 16                    # 8-byte Folded Reload
	ld.d	$s6, $sp, 24                    # 8-byte Folded Reload
	ld.d	$s5, $sp, 32                    # 8-byte Folded Reload
	ld.d	$s4, $sp, 40                    # 8-byte Folded Reload
	ld.d	$s3, $sp, 48                    # 8-byte Folded Reload
	ld.d	$s2, $sp, 56                    # 8-byte Folded Reload
	ld.d	$s1, $sp, 64                    # 8-byte Folded Reload
	ld.d	$s0, $sp, 72                    # 8-byte Folded Reload
	ld.d	$fp, $sp, 80                    # 8-byte Folded Reload
	ld.d	$ra, $sp, 88                    # 8-byte Folded Reload
	addi.d	$sp, $sp, 96
	pcaddu18i	$t8, %call36(putchar)
	jr	$t8
.LBB36_35:                              # %if.else257
	pcalau12i	$a0, %pc_hi20(.L.str.17)
	addi.d	$a0, $a0, %pc_lo12(.L.str.17)
	ld.d	$s7, $sp, 16                    # 8-byte Folded Reload
	ld.d	$s6, $sp, 24                    # 8-byte Folded Reload
	ld.d	$s5, $sp, 32                    # 8-byte Folded Reload
	ld.d	$s4, $sp, 40                    # 8-byte Folded Reload
	ld.d	$s3, $sp, 48                    # 8-byte Folded Reload
	ld.d	$s2, $sp, 56                    # 8-byte Folded Reload
	ld.d	$s1, $sp, 64                    # 8-byte Folded Reload
	ld.d	$s0, $sp, 72                    # 8-byte Folded Reload
	ld.d	$fp, $sp, 80                    # 8-byte Folded Reload
	ld.d	$ra, $sp, 88                    # 8-byte Folded Reload
	addi.d	$sp, $sp, 96
	pcaddu18i	$t8, %call36(printf)
	jr	$t8
.LBB36_36:                              # %if.else
	ld.d	$a0, $s5, 0
	ld.d	$a1, $a0, 24
	move	$a0, $s5
	jirl	$ra, $a1, 0
	ori	$a1, $zero, 3
	bne	$a0, $a1, .LBB36_1
# %bb.37:                               # %land.lhs.true128
	ld.d	$a0, $s5, 0
	ld.d	$a1, $a0, 32
	move	$a0, $s5
	jirl	$ra, $a1, 0
	beqz	$a0, .LBB36_1
# %bb.38:                               # %land.lhs.true133
	ld.d	$a0, $s5, 0
	ld.d	$a1, $a0, 32
	move	$a0, $s5
	jirl	$ra, $a1, 0
	move	$a1, $a0
	move	$a0, $s2
	pcaddu18i	$ra, %call36(strcmp)
	jirl	$ra, $ra, 0
	bnez	$a0, .LBB36_1
	b	.LBB36_40
.LBB36_39:
	move	$s3, $zero
.LBB36_40:                              # %if.then146
	pcalau12i	$a0, %pc_hi20(.L.str.11)
	addi.d	$a0, $a0, %pc_lo12(.L.str.11)
	move	$a1, $s3
	b	.LBB36_7
.Lfunc_end36:
	.size	_ZNK8lam_node5printEPK9alst_nodei, .Lfunc_end36-_ZNK8lam_node5printEPK9alst_nodei
	.cfi_endproc
                                        # -- End function
	.globl	_ZN8lam_nodeaSERKS_             # -- Begin function _ZN8lam_nodeaSERKS_
	.p2align	2
	.type	_ZN8lam_nodeaSERKS_,@function
_ZN8lam_nodeaSERKS_:                    # @_ZN8lam_nodeaSERKS_
	.cfi_startproc
# %bb.0:                                # %entry
	addi.d	$sp, $sp, -32
	.cfi_def_cfa_offset 32
	st.d	$ra, $sp, 24                    # 8-byte Folded Spill
	st.d	$fp, $sp, 16                    # 8-byte Folded Spill
	st.d	$s0, $sp, 8                     # 8-byte Folded Spill
	.cfi_offset 1, -8
	.cfi_offset 22, -16
	.cfi_offset 23, -24
	move	$fp, $a0
	beq	$a0, $a1, .LBB37_10
# %bb.1:                                # %if.then
	move	$s0, $a1
	ld.d	$a0, $fp, 0
	ld.d	$a1, $a0, 8
	move	$a0, $fp
	jirl	$ra, $a1, 0
	ld.d	$a0, $s0, 16
	beqz	$a0, .LBB37_7
# %bb.2:                                # %if.end
	ld.d	$a1, $a0, 0
	ld.d	$a1, $a1, 0
	jirl	$ra, $a1, 0
	st.d	$a0, $fp, 16
	beqz	$a0, .LBB37_4
# %bb.3:                                # %if.then10
	ld.d	$a1, $a0, 0
	ld.d	$a2, $a1, 96
	move	$a1, $fp
	jirl	$ra, $a2, 0
.LBB37_4:                               # %if.end14
	ld.d	$a0, $s0, 24
	beqz	$a0, .LBB37_8
.LBB37_5:                               # %if.end24
	ld.d	$a1, $a0, 0
	ld.d	$a1, $a1, 0
	jirl	$ra, $a1, 0
	st.d	$a0, $fp, 24
	beqz	$a0, .LBB37_9
# %bb.6:                                # %if.then27
	ld.d	$a1, $a0, 0
	ld.d	$a2, $a1, 96
	move	$a1, $fp
	jirl	$ra, $a2, 0
	b	.LBB37_9
.LBB37_7:                               # %if.end.thread
	st.d	$zero, $fp, 16
	ld.d	$a0, $s0, 24
	bnez	$a0, .LBB37_5
.LBB37_8:                               # %if.end24.thread
	st.d	$zero, $fp, 24
.LBB37_9:                               # %if.end31
	st.d	$zero, $fp, 8
.LBB37_10:                              # %if.end32
	move	$a0, $fp
	ld.d	$s0, $sp, 8                     # 8-byte Folded Reload
	ld.d	$fp, $sp, 16                    # 8-byte Folded Reload
	ld.d	$ra, $sp, 24                    # 8-byte Folded Reload
	addi.d	$sp, $sp, 32
	ret
.Lfunc_end37:
	.size	_ZN8lam_nodeaSERKS_, .Lfunc_end37-_ZN8lam_nodeaSERKS_
	.cfi_endproc
                                        # -- End function
	.globl	_ZN8lam_node6reduceEPK9alst_nodeiPi # -- Begin function _ZN8lam_node6reduceEPK9alst_nodeiPi
	.p2align	2
	.type	_ZN8lam_node6reduceEPK9alst_nodeiPi,@function
_ZN8lam_node6reduceEPK9alst_nodeiPi:    # @_ZN8lam_node6reduceEPK9alst_nodeiPi
.Lfunc_begin3:
	.cfi_startproc
	.cfi_personality 155, DW.ref.__gxx_personality_v0
	.cfi_lsda 27, .Lexception3
# %bb.0:                                # %entry
	addi.d	$sp, $sp, -128
	.cfi_def_cfa_offset 128
	st.d	$ra, $sp, 120                   # 8-byte Folded Spill
	st.d	$fp, $sp, 112                   # 8-byte Folded Spill
	st.d	$s0, $sp, 104                   # 8-byte Folded Spill
	st.d	$s1, $sp, 96                    # 8-byte Folded Spill
	st.d	$s2, $sp, 88                    # 8-byte Folded Spill
	st.d	$s3, $sp, 80                    # 8-byte Folded Spill
	st.d	$s4, $sp, 72                    # 8-byte Folded Spill
	st.d	$s5, $sp, 64                    # 8-byte Folded Spill
	st.d	$s6, $sp, 56                    # 8-byte Folded Spill
	.cfi_offset 1, -8
	.cfi_offset 22, -16
	.cfi_offset 23, -24
	.cfi_offset 24, -32
	.cfi_offset 25, -40
	.cfi_offset 26, -48
	.cfi_offset 27, -56
	.cfi_offset 28, -64
	.cfi_offset 29, -72
	move	$s0, $a3
	move	$s1, $a2
	move	$s2, $a1
	move	$fp, $a0
	ld.d	$a0, $a0, 16
	st.d	$zero, $sp, 32
	pcalau12i	$a1, %pc_hi20(_ZTV11stack_frame+16)
	addi.d	$a1, $a1, %pc_lo12(_ZTV11stack_frame+16)
	st.d	$a1, $sp, 24
	st.d	$a0, $sp, 40
	st.d	$s2, $sp, 48
	andi	$a0, $a2, 32
	pcalau12i	$s5, %pc_hi20(_ZL27lambda_reduce_recurse_level)
	beqz	$a0, .LBB38_26
# %bb.1:                                # %for.cond.preheader
	ld.w	$a0, $s5, %pc_lo12(_ZL27lambda_reduce_recurse_level)
	ori	$a1, $zero, 1
	blt	$a0, $a1, .LBB38_4
# %bb.2:                                # %for.body.preheader
	move	$s3, $zero
	.p2align	4, , 16
.LBB38_3:                               # %for.body
                                        # =>This Inner Loop Header: Depth=1
	ori	$a0, $zero, 46
	pcaddu18i	$ra, %call36(putchar)
	jirl	$ra, $ra, 0
	ld.w	$a0, $s5, %pc_lo12(_ZL27lambda_reduce_recurse_level)
	addi.w	$s3, $s3, 1
	blt	$s3, $a0, .LBB38_3
.LBB38_4:                               # %for.cond.cleanup
	pcalau12i	$a0, %pc_hi20(.L.str.18)
	addi.d	$a0, $a0, %pc_lo12(.L.str.18)
	pcaddu18i	$ra, %call36(printf)
	jirl	$ra, $ra, 0
	ld.d	$a0, $fp, 0
	andi	$s6, $s1, 8
	beqz	$s6, .LBB38_10
# %bb.5:                                # %if.then.i
	ld.d	$a1, $a0, 0
	move	$a0, $fp
	jirl	$ra, $a1, 0
	beqz	$a0, .LBB38_9
# %bb.6:                                # %if.then3.i
	move	$s3, $a0
	ld.d	$a0, $a0, 0
	ld.d	$a2, $a0, 200
	move	$a0, $s3
	move	$a1, $s2
	jirl	$ra, $a2, 0
	beqz	$a0, .LBB38_11
# %bb.7:                                # %if.then8.i
	move	$s4, $a0
	ld.d	$a0, $a0, 0
	ld.d	$a3, $a0, 112
	move	$a0, $s4
	move	$a1, $s2
	move	$a2, $s1
	jirl	$ra, $a3, 0
	beq	$s4, $s3, .LBB38_12
# %bb.8:                                # %delete.notnull.i
	ld.d	$a0, $s4, 0
	ld.d	$a1, $a0, 16
	move	$a0, $s4
	jirl	$ra, $a1, 0
	b	.LBB38_12
.LBB38_9:                               # %if.else22.i
	ld.d	$a0, $fp, 0
.LBB38_10:                              # %if.else26.i.invoke
	ld.d	$a3, $a0, 112
	move	$a0, $fp
	move	$a1, $s2
	move	$a2, $s1
	jirl	$ra, $a3, 0
	b	.LBB38_13
.LBB38_11:                              # %if.else.i
	ld.d	$a0, $s3, 0
	ld.d	$a3, $a0, 112
	move	$a0, $s3
	move	$a1, $s2
	move	$a2, $s1
	jirl	$ra, $a3, 0
.LBB38_12:                              # %delete.notnull18.i
	ld.d	$a0, $s3, 0
	ld.d	$a1, $a0, 16
	move	$a0, $s3
	jirl	$ra, $a1, 0
.LBB38_13:                              # %invoke.cont5
	ori	$a0, $zero, 10
	pcaddu18i	$ra, %call36(putchar)
	jirl	$ra, $ra, 0
	ld.d	$a0, $fp, 0
	ld.d	$a1, $a0, 88
	move	$a0, $fp
	jirl	$ra, $a1, 0
	move	$s4, $fp
	beqz	$a0, .LBB38_16
# %bb.14:                               # %for.inc14.preheader
	move	$s4, $fp
	.p2align	4, , 16
.LBB38_15:                              # %for.inc14
                                        # =>This Inner Loop Header: Depth=1
	ld.d	$a0, $s4, 0
	ld.d	$a1, $a0, 88
	move	$a0, $s4
	jirl	$ra, $a1, 0
	move	$s4, $a0
	ld.d	$a0, $a0, 0
	ld.d	$a1, $a0, 88
	move	$a0, $s4
	jirl	$ra, $a1, 0
	bnez	$a0, .LBB38_15
.LBB38_16:                              # %for.end19
	ld.d	$a0, $s4, 0
	beqz	$s6, .LBB38_22
# %bb.17:                               # %if.then.i82
	ld.d	$a1, $a0, 0
	move	$a0, $s4
	jirl	$ra, $a1, 0
	beqz	$a0, .LBB38_21
# %bb.18:                               # %if.then3.i84
	move	$s3, $a0
	ld.d	$a0, $a0, 0
	ld.d	$a2, $a0, 200
	move	$a0, $s3
	move	$a1, $s2
	jirl	$ra, $a2, 0
	beqz	$a0, .LBB38_23
# %bb.19:                               # %if.then8.i88
	move	$s4, $a0
	ld.d	$a0, $a0, 0
	ld.d	$a3, $a0, 112
	move	$a0, $s4
	move	$a1, $s2
	move	$a2, $s1
	jirl	$ra, $a3, 0
	beq	$s4, $s3, .LBB38_24
# %bb.20:                               # %delete.notnull.i92
	ld.d	$a0, $s4, 0
	ld.d	$a1, $a0, 16
	move	$a0, $s4
	jirl	$ra, $a1, 0
	b	.LBB38_24
.LBB38_21:                              # %if.else22.i101
	ld.d	$a0, $s4, 0
.LBB38_22:                              # %if.else22.i101.invoke
	ld.d	$a3, $a0, 112
	move	$a0, $s4
	move	$a1, $s2
	move	$a2, $s1
	jirl	$ra, $a3, 0
	b	.LBB38_25
.LBB38_23:                              # %if.else.i98
	ld.d	$a0, $s3, 0
	ld.d	$a3, $a0, 112
	move	$a0, $s3
	move	$a1, $s2
	move	$a2, $s1
	jirl	$ra, $a3, 0
.LBB38_24:                              # %delete.notnull18.i95
	ld.d	$a0, $s3, 0
	ld.d	$a1, $a0, 16
	move	$a0, $s3
	jirl	$ra, $a1, 0
.LBB38_25:                              # %invoke.cont20
	ori	$a0, $zero, 10
	pcaddu18i	$ra, %call36(putchar)
	jirl	$ra, $ra, 0
.LBB38_26:                              # %if.end
	ld.w	$a0, $s5, %pc_lo12(_ZL27lambda_reduce_recurse_level)
	addi.w	$a1, $a0, 1
	ori	$a2, $zero, 4000
	st.w	$a1, $s5, %pc_lo12(_ZL27lambda_reduce_recurse_level)
	blt	$a0, $a2, .LBB38_29
# %bb.27:                               # %if.then25
	pcalau12i	$a0, %pc_hi20(.L.str.20)
	addi.d	$a0, $a0, %pc_lo12(.L.str.20)
	pcaddu18i	$ra, %call36(printf)
	jirl	$ra, $ra, 0
	ld.w	$a0, $s5, %pc_lo12(_ZL27lambda_reduce_recurse_level)
	addi.d	$a0, $a0, -1
	st.w	$a0, $s5, %pc_lo12(_ZL27lambda_reduce_recurse_level)
	beqz	$s0, .LBB38_95
# %bb.28:                               # %if.then29
	ld.w	$a0, $s0, 0
	ori	$a0, $a0, 1
	st.w	$a0, $s0, 0
	b	.LBB38_95
.LBB38_29:                              # %if.end31
	ld.d	$a0, $fp, 24
	ld.d	$a1, $a0, 0
	ld.d	$a2, $a1, 96
	move	$a1, $fp
	jirl	$ra, $a2, 0
	ld.d	$a0, $fp, 16
	beqz	$a0, .LBB38_41
# %bb.30:                               # %land.lhs.true
	ld.d	$a1, $a0, 0
	ld.d	$a1, $a1, 32
	jirl	$ra, $a1, 0
	beqz	$a0, .LBB38_32
# %bb.31:                               # %land.lhs.true43
	ld.d	$a0, $fp, 16
	ld.d	$a1, $a0, 0
	ld.d	$a1, $a1, 32
	jirl	$ra, $a1, 0
	ld.bu	$a0, $a0, 0
	addi.d	$a0, $a0, -38
	sltui	$a0, $a0, 1
	addi.w	$a1, $zero, -6
	and	$a1, $s1, $a1
	maskeqz	$a1, $a1, $a0
	masknez	$a0, $s1, $a0
	or	$s1, $a1, $a0
.LBB38_32:                              # %if.end53
	ld.d	$a0, $fp, 16
	beqz	$a0, .LBB38_41
# %bb.33:                               # %land.lhs.true56
	ld.d	$a1, $a0, 0
	ld.d	$a1, $a1, 40
	jirl	$ra, $a1, 0
	beqz	$a0, .LBB38_41
# %bb.34:                               # %land.lhs.true63
	ld.d	$a0, $fp, 24
	beqz	$a0, .LBB38_45
# %bb.35:                               # %if.then66
	ld.d	$a2, $a0, 0
	ld.d	$a1, $fp, 16
	ld.d	$a3, $a2, 152
	addi.d	$a2, $sp, 24
	jirl	$ra, $a3, 0
	ld.d	$a0, $fp, 16
	ld.d	$a1, $a0, 0
	ld.d	$a1, $a1, 32
	jirl	$ra, $a1, 0
	beqz	$a0, .LBB38_38
# %bb.36:                               # %land.lhs.true78
	ld.d	$a0, $fp, 16
	ld.d	$a1, $a0, 0
	ld.d	$a1, $a1, 32
	jirl	$ra, $a1, 0
	ld.bu	$a0, $a0, 0
	ori	$a1, $zero, 36
	bne	$a0, $a1, .LBB38_38
# %bb.37:                               # %if.then87
	addi.w	$a0, $zero, -6
	and	$a0, $s1, $a0
	addi.d	$s1, $a0, 4
.LBB38_38:                              # %if.end90
	andi	$a0, $s1, 1
	bnez	$a0, .LBB38_46
# %bb.39:                               # %if.then93
	beqz	$s0, .LBB38_67
# %bb.40:                               # %cond.true
	ld.w	$a1, $s0, 0
	b	.LBB38_68
.LBB38_41:                              # %if.else176
	ld.d	$a0, $fp, 24
	beqz	$a0, .LBB38_45
# %bb.42:                               # %if.then179
	ld.d	$a0, $fp, 0
	ld.d	$a4, $a0, 216
	addi.d	$a1, $sp, 24
	move	$a0, $fp
	move	$a2, $s1
	move	$a3, $s0
	jirl	$ra, $a4, 0
	move	$s2, $a0
	bne	$fp, $a0, .LBB38_94
# %bb.43:                               # %if.else196
	beqz	$s0, .LBB38_47
# %bb.44:                               # %cond.true199
	ld.w	$a1, $s0, 0
	b	.LBB38_48
.LBB38_45:
	move	$s2, $fp
	b	.LBB38_94
.LBB38_46:                              # %if.else149
	ld.d	$a0, $fp, 24
	ld.d	$a1, $a0, 0
	ld.d	$a4, $a1, 136
	addi.d	$a1, $sp, 24
	move	$a2, $s1
	move	$a3, $s0
	jirl	$ra, $a4, 0
	move	$s2, $a0
	b	.LBB38_88
.LBB38_47:
	move	$a1, $zero
.LBB38_48:                              # %cond.end201
	ld.d	$a0, $fp, 24
	ld.d	$a2, $a0, 0
	andi	$a3, $s1, 4
	st.w	$a1, $sp, 20
	bnez	$a3, .LBB38_55
# %bb.49:                               # %if.else217
	ld.d	$a4, $a2, 136
.Ltmp64:                                # EH_LABEL
	addi.d	$a1, $sp, 24
	move	$a2, $s1
	move	$a3, $s0
	jirl	$ra, $a4, 0
.Ltmp65:                                # EH_LABEL
# %bb.50:                               # %invoke.cont223
	beqz	$a0, .LBB38_61
# %bb.51:                               # %if.then226
	ld.d	$a1, $fp, 24
	beq	$a1, $a0, .LBB38_61
# %bb.52:                               # %if.end.i134
	beqz	$a1, .LBB38_54
# %bb.53:                               # %delete.notnull.i136
	ld.d	$a2, $a1, 0
	ld.d	$a2, $a2, 16
	move	$s2, $a0
	move	$a0, $a1
	jirl	$ra, $a2, 0
	move	$a0, $s2
.LBB38_54:                              # %if.then20.i141
	st.d	$a0, $fp, 24
	ld.d	$a1, $a0, 0
	ld.d	$a2, $a1, 96
.Ltmp66:                                # EH_LABEL
	move	$a1, $fp
	jirl	$ra, $a2, 0
.Ltmp67:                                # EH_LABEL
	b	.LBB38_61
.LBB38_55:                              # %if.then205
	ld.d	$a4, $a2, 104
.Ltmp59:                                # EH_LABEL
	addi.d	$a1, $sp, 24
	addi.d	$a3, $sp, 20
	move	$a2, $s1
	jirl	$ra, $a4, 0
.Ltmp60:                                # EH_LABEL
# %bb.56:                               # %invoke.cont210
	beqz	$a0, .LBB38_61
# %bb.57:                               # %if.then213
	ld.d	$a1, $fp, 24
	beq	$a1, $a0, .LBB38_61
# %bb.58:                               # %if.end.i125
	beqz	$a1, .LBB38_60
# %bb.59:                               # %delete.notnull.i127
	ld.d	$a2, $a1, 0
	ld.d	$a2, $a2, 16
	move	$s2, $a0
	move	$a0, $a1
	jirl	$ra, $a2, 0
	move	$a0, $s2
.LBB38_60:                              # %if.then20.i
	st.d	$a0, $fp, 24
	ld.d	$a1, $a0, 0
	ld.d	$a2, $a1, 96
.Ltmp61:                                # EH_LABEL
	move	$a1, $fp
	jirl	$ra, $a2, 0
.Ltmp62:                                # EH_LABEL
.LBB38_61:                              # %if.end230
	andi	$a0, $s1, 1
	beqz	$a0, .LBB38_63
# %bb.62:                               # %lor.lhs.false
	ld.bu	$a0, $sp, 20
	andi	$a0, $a0, 2
	bnez	$a0, .LBB38_65
.LBB38_63:                              # %if.then235
	ld.d	$a0, $fp, 0
	ld.d	$a4, $a0, 216
.Ltmp69:                                # EH_LABEL
	addi.d	$a1, $sp, 24
	addi.d	$a3, $sp, 20
	move	$a0, $fp
	move	$a2, $s1
	jirl	$ra, $a4, 0
.Ltmp70:                                # EH_LABEL
# %bb.64:
	move	$s2, $a0
	bnez	$s0, .LBB38_66
	b	.LBB38_94
.LBB38_65:
	move	$s2, $fp
	beqz	$s0, .LBB38_94
.LBB38_66:                              # %if.then254
	ld.w	$a0, $sp, 20
	st.w	$a0, $s0, 0
	b	.LBB38_94
.LBB38_67:
	move	$a1, $zero
.LBB38_68:                              # %cond.end
	ld.d	$a0, $fp, 24
	ld.d	$a2, $a0, 0
	ld.d	$a4, $a2, 136
	st.w	$a1, $sp, 20
.Ltmp53:                                # EH_LABEL
	addi.d	$a1, $sp, 24
	move	$a2, $s1
	move	$a3, $s0
	jirl	$ra, $a4, 0
.Ltmp54:                                # EH_LABEL
# %bb.69:                               # %invoke.cont100
	move	$s3, $a0
	ld.d	$a0, $fp, 24
	beq	$s3, $a0, .LBB38_72
# %bb.70:                               # %invoke.cont100
	beqz	$a0, .LBB38_72
# %bb.71:                               # %if.end.i
	ld.d	$a1, $a0, 0
	ld.d	$a1, $a1, 16
	jirl	$ra, $a1, 0
	st.d	$zero, $fp, 24
.LBB38_72:                              # %if.end106
	ld.d	$s2, $fp, 16
	ld.d	$a0, $s2, 24
	beqz	$a0, .LBB38_74
# %bb.73:                               # %if.end.i118
	ld.d	$a1, $a0, 0
	ld.d	$a1, $a1, 16
	jirl	$ra, $a1, 0
	st.d	$zero, $s2, 24
.LBB38_74:                              # %do.body.preheader
	move	$s4, $zero
	ori	$s6, $zero, 2
	.p2align	4, , 16
.LBB38_75:                              # %do.body
                                        # =>This Inner Loop Header: Depth=1
	ld.d	$a0, $s3, 0
	ld.d	$a4, $a0, 104
.Ltmp56:                                # EH_LABEL
	addi.d	$a1, $sp, 24
	addi.d	$a3, $sp, 20
	move	$a0, $s3
	move	$a2, $s1
	jirl	$ra, $a4, 0
.Ltmp57:                                # EH_LABEL
# %bb.76:                               # %invoke.cont112
                                        #   in Loop: Header=BB38_75 Depth=1
	move	$s2, $a0
	beqz	$a0, .LBB38_81
# %bb.77:                               # %invoke.cont112
                                        #   in Loop: Header=BB38_75 Depth=1
	beq	$s3, $s2, .LBB38_81
# %bb.78:                               # %if.then117
                                        #   in Loop: Header=BB38_75 Depth=1
	ld.d	$a0, $fp, 24
	bne	$s3, $a0, .LBB38_80
# %bb.79:                               # %if.then120
                                        #   in Loop: Header=BB38_75 Depth=1
	st.d	$zero, $fp, 24
.LBB38_80:                              # %delete.notnull
                                        #   in Loop: Header=BB38_75 Depth=1
	ld.d	$a0, $s3, 0
	ld.d	$a1, $a0, 16
	move	$a0, $s3
	jirl	$ra, $a1, 0
	b	.LBB38_82
	.p2align	4, , 16
.LBB38_81:                              #   in Loop: Header=BB38_75 Depth=1
	move	$s2, $s3
.LBB38_82:                              # %if.end125
                                        #   in Loop: Header=BB38_75 Depth=1
	ld.wu	$a0, $sp, 20
	andi	$a1, $a0, 3
	bne	$a1, $s6, .LBB38_84
# %bb.83:                               # %cleanup
                                        #   in Loop: Header=BB38_75 Depth=1
	bstrpick.d	$a0, $a0, 31, 2
	slli.d	$a0, $a0, 2
	st.w	$a0, $sp, 20
	addi.w	$s4, $s4, 1
	move	$s3, $s2
	b	.LBB38_75
.LBB38_84:                              # %do.end
	beqz	$s0, .LBB38_86
# %bb.85:                               # %if.then140
	st.w	$a0, $s0, 0
.LBB38_86:                              # %if.end141
	ori	$a0, $zero, 2
	bltu	$s4, $a0, .LBB38_88
# %bb.87:                               # %if.then143
	ld.w	$a2, $s5, %pc_lo12(_ZL27lambda_reduce_recurse_level)
	pcalau12i	$a0, %pc_hi20(.L.str.21)
	addi.d	$a0, $a0, %pc_lo12(.L.str.21)
	move	$a1, $s4
	pcaddu18i	$ra, %call36(printf)
	jirl	$ra, $ra, 0
.LBB38_88:                              # %if.end155
	ld.d	$a0, $fp, 24
	beqz	$a0, .LBB38_91
# %bb.89:                               # %if.end155
	beq	$a0, $s2, .LBB38_91
# %bb.90:                               # %delete.notnull164
	ld.d	$a1, $a0, 0
	ld.d	$a1, $a1, 16
	jirl	$ra, $a1, 0
.LBB38_91:                              # %if.end168
	st.d	$zero, $fp, 24
	beqz	$s2, .LBB38_93
# %bb.92:                               # %if.then171
	ld.d	$a0, $s2, 0
	ld.d	$a1, $fp, 8
	ld.d	$a2, $a0, 96
	move	$a0, $s2
	jirl	$ra, $a2, 0
	b	.LBB38_94
.LBB38_93:
	move	$s2, $zero
.LBB38_94:                              # %if.end260
	ld.w	$a0, $s5, %pc_lo12(_ZL27lambda_reduce_recurse_level)
	addi.d	$a0, $a0, -1
	st.w	$a0, $s5, %pc_lo12(_ZL27lambda_reduce_recurse_level)
	move	$fp, $s2
.LBB38_95:                              # %cleanup262
	move	$a0, $fp
	ld.d	$s6, $sp, 56                    # 8-byte Folded Reload
	ld.d	$s5, $sp, 64                    # 8-byte Folded Reload
	ld.d	$s4, $sp, 72                    # 8-byte Folded Reload
	ld.d	$s3, $sp, 80                    # 8-byte Folded Reload
	ld.d	$s2, $sp, 88                    # 8-byte Folded Reload
	ld.d	$s1, $sp, 96                    # 8-byte Folded Reload
	ld.d	$s0, $sp, 104                   # 8-byte Folded Reload
	ld.d	$fp, $sp, 112                   # 8-byte Folded Reload
	ld.d	$ra, $sp, 120                   # 8-byte Folded Reload
	addi.d	$sp, $sp, 128
	ret
.LBB38_96:                              # %lpad99
.Ltmp55:                                # EH_LABEL
	pcaddu18i	$ra, %call36(_Unwind_Resume)
	jirl	$ra, $ra, 0
.LBB38_97:                              # %lpad209
.Ltmp63:                                # EH_LABEL
	pcaddu18i	$ra, %call36(_Unwind_Resume)
	jirl	$ra, $ra, 0
.LBB38_98:                              # %lpad222
.Ltmp68:                                # EH_LABEL
	pcaddu18i	$ra, %call36(_Unwind_Resume)
	jirl	$ra, $ra, 0
.LBB38_99:                              # %lpad238
.Ltmp71:                                # EH_LABEL
	pcaddu18i	$ra, %call36(_Unwind_Resume)
	jirl	$ra, $ra, 0
.LBB38_100:                             # %lpad111
.Ltmp58:                                # EH_LABEL
	pcaddu18i	$ra, %call36(_Unwind_Resume)
	jirl	$ra, $ra, 0
.Lfunc_end38:
	.size	_ZN8lam_node6reduceEPK9alst_nodeiPi, .Lfunc_end38-_ZN8lam_node6reduceEPK9alst_nodeiPi
	.cfi_endproc
	.section	.gcc_except_table,"a",@progbits
	.p2align	2, 0x0
GCC_except_table38:
.Lexception3:
	.byte	255                             # @LPStart Encoding = omit
	.byte	255                             # @TType Encoding = omit
	.byte	1                               # Call site Encoding = uleb128
	.uleb128 .Lcst_end3-.Lcst_begin3
.Lcst_begin3:
	.uleb128 .Lfunc_begin3-.Lfunc_begin3    # >> Call Site 1 <<
	.uleb128 .Ltmp64-.Lfunc_begin3          #   Call between .Lfunc_begin3 and .Ltmp64
	.byte	0                               #     has no landing pad
	.byte	0                               #   On action: cleanup
	.uleb128 .Ltmp64-.Lfunc_begin3          # >> Call Site 2 <<
	.uleb128 .Ltmp65-.Ltmp64                #   Call between .Ltmp64 and .Ltmp65
	.uleb128 .Ltmp68-.Lfunc_begin3          #     jumps to .Ltmp68
	.byte	0                               #   On action: cleanup
	.uleb128 .Ltmp65-.Lfunc_begin3          # >> Call Site 3 <<
	.uleb128 .Ltmp66-.Ltmp65                #   Call between .Ltmp65 and .Ltmp66
	.byte	0                               #     has no landing pad
	.byte	0                               #   On action: cleanup
	.uleb128 .Ltmp66-.Lfunc_begin3          # >> Call Site 4 <<
	.uleb128 .Ltmp67-.Ltmp66                #   Call between .Ltmp66 and .Ltmp67
	.uleb128 .Ltmp68-.Lfunc_begin3          #     jumps to .Ltmp68
	.byte	0                               #   On action: cleanup
	.uleb128 .Ltmp59-.Lfunc_begin3          # >> Call Site 5 <<
	.uleb128 .Ltmp60-.Ltmp59                #   Call between .Ltmp59 and .Ltmp60
	.uleb128 .Ltmp63-.Lfunc_begin3          #     jumps to .Ltmp63
	.byte	0                               #   On action: cleanup
	.uleb128 .Ltmp60-.Lfunc_begin3          # >> Call Site 6 <<
	.uleb128 .Ltmp61-.Ltmp60                #   Call between .Ltmp60 and .Ltmp61
	.byte	0                               #     has no landing pad
	.byte	0                               #   On action: cleanup
	.uleb128 .Ltmp61-.Lfunc_begin3          # >> Call Site 7 <<
	.uleb128 .Ltmp62-.Ltmp61                #   Call between .Ltmp61 and .Ltmp62
	.uleb128 .Ltmp63-.Lfunc_begin3          #     jumps to .Ltmp63
	.byte	0                               #   On action: cleanup
	.uleb128 .Ltmp69-.Lfunc_begin3          # >> Call Site 8 <<
	.uleb128 .Ltmp70-.Ltmp69                #   Call between .Ltmp69 and .Ltmp70
	.uleb128 .Ltmp71-.Lfunc_begin3          #     jumps to .Ltmp71
	.byte	0                               #   On action: cleanup
	.uleb128 .Ltmp53-.Lfunc_begin3          # >> Call Site 9 <<
	.uleb128 .Ltmp54-.Ltmp53                #   Call between .Ltmp53 and .Ltmp54
	.uleb128 .Ltmp55-.Lfunc_begin3          #     jumps to .Ltmp55
	.byte	0                               #   On action: cleanup
	.uleb128 .Ltmp54-.Lfunc_begin3          # >> Call Site 10 <<
	.uleb128 .Ltmp56-.Ltmp54                #   Call between .Ltmp54 and .Ltmp56
	.byte	0                               #     has no landing pad
	.byte	0                               #   On action: cleanup
	.uleb128 .Ltmp56-.Lfunc_begin3          # >> Call Site 11 <<
	.uleb128 .Ltmp57-.Ltmp56                #   Call between .Ltmp56 and .Ltmp57
	.uleb128 .Ltmp58-.Lfunc_begin3          #     jumps to .Ltmp58
	.byte	0                               #   On action: cleanup
	.uleb128 .Ltmp57-.Lfunc_begin3          # >> Call Site 12 <<
	.uleb128 .Lfunc_end38-.Ltmp57           #   Call between .Ltmp57 and .Lfunc_end38
	.byte	0                               #     has no landing pad
	.byte	0                               #   On action: cleanup
.Lcst_end3:
	.p2align	2, 0x0
                                        # -- End function
	.text
	.globl	_ZN8lam_node10eta_reduceEPK9alst_nodeiPi # -- Begin function _ZN8lam_node10eta_reduceEPK9alst_nodeiPi
	.p2align	2
	.type	_ZN8lam_node10eta_reduceEPK9alst_nodeiPi,@function
_ZN8lam_node10eta_reduceEPK9alst_nodeiPi: # @_ZN8lam_node10eta_reduceEPK9alst_nodeiPi
	.cfi_startproc
# %bb.0:                                # %entry
	addi.d	$sp, $sp, -80
	.cfi_def_cfa_offset 80
	st.d	$ra, $sp, 72                    # 8-byte Folded Spill
	st.d	$fp, $sp, 64                    # 8-byte Folded Spill
	st.d	$s0, $sp, 56                    # 8-byte Folded Spill
	st.d	$s1, $sp, 48                    # 8-byte Folded Spill
	st.d	$s2, $sp, 40                    # 8-byte Folded Spill
	st.d	$s3, $sp, 32                    # 8-byte Folded Spill
	st.d	$s4, $sp, 24                    # 8-byte Folded Spill
	st.d	$s5, $sp, 16                    # 8-byte Folded Spill
	.cfi_offset 1, -8
	.cfi_offset 22, -16
	.cfi_offset 23, -24
	.cfi_offset 24, -32
	.cfi_offset 25, -40
	.cfi_offset 26, -48
	.cfi_offset 27, -56
	.cfi_offset 28, -64
	move	$fp, $a0
	ld.d	$a0, $a0, 24
	beqz	$a0, .LBB39_28
# %bb.1:                                # %if.end
	move	$s0, $a3
	move	$s1, $a2
	move	$s2, $a1
	andi	$s5, $a2, 1
	beqz	$s5, .LBB39_4
# %bb.2:                                # %if.end
	beqz	$s0, .LBB39_4
# %bb.3:                                # %lor.lhs.false4
	ld.bu	$a1, $s0, 0
	andi	$a1, $a1, 2
	bnez	$a1, .LBB39_28
.LBB39_4:                               # %if.then7
	ld.d	$a1, $a0, 0
	ld.d	$a1, $a1, 24
	jirl	$ra, $a1, 0
	andi	$a1, $s1, 2
	bnez	$a1, .LBB39_28
# %bb.5:                                # %if.then7
	ori	$a1, $zero, 5
	bne	$a0, $a1, .LBB39_28
# %bb.6:                                # %if.then11
	ld.d	$a0, $fp, 0
	ld.d	$a1, $a0, 56
	move	$a0, $fp
	jirl	$ra, $a1, 0
	ld.d	$a1, $a0, 0
	ld.d	$a1, $a1, 64
	jirl	$ra, $a1, 0
	beqz	$a0, .LBB39_28
# %bb.7:                                # %if.then19
	ld.d	$a0, $fp, 24
	ld.d	$a1, $a0, 0
	ld.d	$a1, $a1, 64
	jirl	$ra, $a1, 0
	ld.d	$a1, $a0, 0
	ld.d	$a4, $a1, 136
	move	$a1, $s2
	move	$a2, $s1
	move	$a3, $s0
	jirl	$ra, $a4, 0
	beqz	$a0, .LBB39_12
# %bb.8:                                # %if.then28
	move	$s3, $a0
	ld.d	$a0, $fp, 0
	ld.d	$a1, $a0, 56
	move	$a0, $fp
	jirl	$ra, $a1, 0
	move	$s4, $a0
	ld.d	$a0, $a0, 16
	beq	$a0, $s3, .LBB39_12
# %bb.9:                                # %if.end.i
	beqz	$a0, .LBB39_11
# %bb.10:                               # %delete.notnull.i
	ld.d	$a1, $a0, 0
	ld.d	$a1, $a1, 16
	jirl	$ra, $a1, 0
.LBB39_11:                              # %if.then20.i
	ld.d	$a0, $s3, 0
	st.d	$s3, $s4, 16
	ld.d	$a2, $a0, 96
	move	$a0, $s3
	move	$a1, $s4
	jirl	$ra, $a2, 0
.LBB39_12:                              # %if.end32
	ld.d	$a0, $fp, 24
	ld.d	$a1, $a0, 0
	ld.d	$a1, $a1, 72
	jirl	$ra, $a1, 0
	beqz	$a0, .LBB39_28
# %bb.13:                               # %land.lhs.true38
	ld.d	$s3, $fp, 16
	beqz	$s3, .LBB39_28
# %bb.14:                               # %land.lhs.true40
	ld.d	$a0, $fp, 24
	ld.d	$a1, $a0, 0
	ld.d	$a1, $a1, 72
	jirl	$ra, $a1, 0
	ld.d	$a1, $a0, 0
	ld.d	$a1, $a1, 32
	jirl	$ra, $a1, 0
	ld.d	$a2, $s3, 16
	move	$a1, $a0
	or	$a0, $a0, $a2
	beqz	$a0, .LBB39_18
# %bb.15:                               # %lor.rhs.i
	beqz	$a1, .LBB39_28
# %bb.16:                               # %lor.rhs.i
	beqz	$a2, .LBB39_28
# %bb.17:                               # %_ZNK8arg_nodeeqEPKc.exit
	move	$a0, $a2
	pcaddu18i	$ra, %call36(strcmp)
	jirl	$ra, $ra, 0
	bnez	$a0, .LBB39_28
.LBB39_18:                              # %land.lhs.true51
	ld.d	$a0, $fp, 24
	ld.d	$a1, $a0, 0
	ld.d	$a1, $a1, 64
	jirl	$ra, $a1, 0
	ld.d	$a2, $a0, 0
	ld.d	$a1, $fp, 16
	ld.d	$a3, $a2, 120
	move	$a2, $s2
	jirl	$ra, $a3, 0
	bnez	$a0, .LBB39_28
# %bb.19:                               # %if.then61
	ld.d	$a0, $fp, 24
	ld.d	$a1, $a0, 0
	ld.d	$a1, $a1, 176
	jirl	$ra, $a1, 0
	ld.d	$a1, $fp, 24
	move	$s3, $a0
	beqz	$a1, .LBB39_21
# %bb.20:                               # %if.end.i23
	ld.d	$a0, $a1, 0
	ld.d	$a2, $a0, 16
	move	$a0, $a1
	jirl	$ra, $a2, 0
	st.d	$zero, $fp, 24
.LBB39_21:                              # %_ZN8lam_node8set_bodyEP8exp_nodes.exit
	beqz	$s0, .LBB39_23
# %bb.22:                               # %if.then67
	ld.w	$a0, $s0, 0
	ori	$a0, $a0, 6
	st.w	$a0, $s0, 0
.LBB39_23:                              # %if.end68
	beqz	$s5, .LBB39_25
.LBB39_24:
	move	$fp, $s3
	b	.LBB39_28
.LBB39_25:                              # %if.then71
	ld.d	$a0, $s3, 0
	ld.d	$a4, $a0, 104
	move	$a0, $s3
	move	$a1, $s2
	move	$a2, $s1
	move	$a3, $s0
	jirl	$ra, $a4, 0
	beqz	$a0, .LBB39_24
# %bb.26:                               # %if.then71
	move	$fp, $a0
	beq	$s3, $a0, .LBB39_24
# %bb.27:                               # %delete.notnull
	ld.d	$a0, $s3, 0
	ld.d	$a1, $a0, 16
	move	$a0, $s3
	jirl	$ra, $a1, 0
.LBB39_28:                              # %cleanup
	move	$a0, $fp
	ld.d	$s5, $sp, 16                    # 8-byte Folded Reload
	ld.d	$s4, $sp, 24                    # 8-byte Folded Reload
	ld.d	$s3, $sp, 32                    # 8-byte Folded Reload
	ld.d	$s2, $sp, 40                    # 8-byte Folded Reload
	ld.d	$s1, $sp, 48                    # 8-byte Folded Reload
	ld.d	$s0, $sp, 56                    # 8-byte Folded Reload
	ld.d	$fp, $sp, 64                    # 8-byte Folded Reload
	ld.d	$ra, $sp, 72                    # 8-byte Folded Reload
	addi.d	$sp, $sp, 80
	ret
.Lfunc_end39:
	.size	_ZN8lam_node10eta_reduceEPK9alst_nodeiPi, .Lfunc_end39-_ZN8lam_node10eta_reduceEPK9alst_nodeiPi
	.cfi_endproc
                                        # -- End function
	.globl	_ZN8app_node8set_leftEP8exp_nodes # -- Begin function _ZN8app_node8set_leftEP8exp_nodes
	.p2align	2
	.type	_ZN8app_node8set_leftEP8exp_nodes,@function
_ZN8app_node8set_leftEP8exp_nodes:      # @_ZN8app_node8set_leftEP8exp_nodes
	.cfi_startproc
# %bb.0:                                # %entry
	addi.d	$sp, $sp, -32
	.cfi_def_cfa_offset 32
	st.d	$ra, $sp, 24                    # 8-byte Folded Spill
	st.d	$fp, $sp, 16                    # 8-byte Folded Spill
	st.d	$s0, $sp, 8                     # 8-byte Folded Spill
	st.d	$s1, $sp, 0                     # 8-byte Folded Spill
	.cfi_offset 1, -8
	.cfi_offset 22, -16
	.cfi_offset 23, -24
	.cfi_offset 24, -32
	move	$fp, $a0
	ld.d	$a0, $a0, 16
	beq	$a0, $a1, .LBB40_9
# %bb.1:                                # %if.end
	move	$s1, $a2
	move	$s0, $a1
	beqz	$a0, .LBB40_3
# %bb.2:                                # %delete.notnull
	ld.d	$a1, $a0, 0
	ld.d	$a1, $a1, 16
	jirl	$ra, $a1, 0
.LBB40_3:                               # %if.end5
	beqz	$s1, .LBB40_5
# %bb.4:                                # %if.end17
	st.d	$s0, $fp, 16
	bnez	$s0, .LBB40_7
	b	.LBB40_9
.LBB40_5:                               # %if.else
	beqz	$s0, .LBB40_8
# %bb.6:                                # %if.then10
	ld.d	$a0, $s0, 0
	ld.d	$a1, $a0, 0
	move	$a0, $s0
	jirl	$ra, $a1, 0
	move	$s0, $a0
	st.d	$s0, $fp, 16
	beqz	$s0, .LBB40_9
.LBB40_7:                               # %if.then20
	ld.d	$a0, $s0, 0
	ld.d	$a2, $a0, 96
	move	$a0, $s0
	move	$a1, $fp
	ld.d	$s1, $sp, 0                     # 8-byte Folded Reload
	ld.d	$s0, $sp, 8                     # 8-byte Folded Reload
	ld.d	$fp, $sp, 16                    # 8-byte Folded Reload
	ld.d	$ra, $sp, 24                    # 8-byte Folded Reload
	addi.d	$sp, $sp, 32
	jr	$a2
.LBB40_8:                               # %if.end17.thread
	st.d	$zero, $fp, 16
.LBB40_9:                               # %if.end24
	ld.d	$s1, $sp, 0                     # 8-byte Folded Reload
	ld.d	$s0, $sp, 8                     # 8-byte Folded Reload
	ld.d	$fp, $sp, 16                    # 8-byte Folded Reload
	ld.d	$ra, $sp, 24                    # 8-byte Folded Reload
	addi.d	$sp, $sp, 32
	ret
.Lfunc_end40:
	.size	_ZN8app_node8set_leftEP8exp_nodes, .Lfunc_end40-_ZN8app_node8set_leftEP8exp_nodes
	.cfi_endproc
                                        # -- End function
	.globl	_ZN8lam_node11reduce_varsEPK9alst_nodeiPi # -- Begin function _ZN8lam_node11reduce_varsEPK9alst_nodeiPi
	.p2align	2
	.type	_ZN8lam_node11reduce_varsEPK9alst_nodeiPi,@function
_ZN8lam_node11reduce_varsEPK9alst_nodeiPi: # @_ZN8lam_node11reduce_varsEPK9alst_nodeiPi
	.cfi_startproc
# %bb.0:                                # %entry
	addi.d	$sp, $sp, -64
	.cfi_def_cfa_offset 64
	st.d	$ra, $sp, 56                    # 8-byte Folded Spill
	st.d	$fp, $sp, 48                    # 8-byte Folded Spill
	st.d	$s0, $sp, 40                    # 8-byte Folded Spill
	.cfi_offset 1, -8
	.cfi_offset 22, -16
	.cfi_offset 23, -24
	move	$fp, $a0
	ld.d	$a0, $a0, 24
	pcalau12i	$a4, %pc_hi20(_ZTV11stack_frame+16)
	addi.d	$a4, $a4, %pc_lo12(_ZTV11stack_frame+16)
	st.d	$a4, $sp, 8
	ld.d	$a4, $a0, 0
	ld.d	$a5, $fp, 16
	ld.d	$a4, $a4, 136
	st.d	$zero, $sp, 16
	st.d	$a5, $sp, 24
	st.d	$a1, $sp, 32
	addi.d	$a1, $sp, 8
	jirl	$ra, $a4, 0
	beqz	$a0, .LBB41_5
# %bb.1:                                # %if.then
	ld.d	$a1, $fp, 24
	beq	$a1, $a0, .LBB41_5
# %bb.2:                                # %if.end.i
	beqz	$a1, .LBB41_4
# %bb.3:                                # %delete.notnull.i
	ld.d	$a2, $a1, 0
	ld.d	$a2, $a2, 16
	move	$s0, $a0
	move	$a0, $a1
	jirl	$ra, $a2, 0
	move	$a0, $s0
.LBB41_4:                               # %if.then20.i
	ld.d	$a1, $a0, 0
	st.d	$a0, $fp, 24
	ld.d	$a2, $a1, 96
	move	$a1, $fp
	jirl	$ra, $a2, 0
.LBB41_5:                               # %if.end
	move	$a0, $fp
	ld.d	$s0, $sp, 40                    # 8-byte Folded Reload
	ld.d	$fp, $sp, 48                    # 8-byte Folded Reload
	ld.d	$ra, $sp, 56                    # 8-byte Folded Reload
	addi.d	$sp, $sp, 64
	ret
.Lfunc_end41:
	.size	_ZN8lam_node11reduce_varsEPK9alst_nodeiPi, .Lfunc_end41-_ZN8lam_node11reduce_varsEPK9alst_nodeiPi
	.cfi_endproc
                                        # -- End function
	.globl	_ZN8lam_node6renameEP8arg_nodePKcP9alst_node # -- Begin function _ZN8lam_node6renameEP8arg_nodePKcP9alst_node
	.p2align	2
	.type	_ZN8lam_node6renameEP8arg_nodePKcP9alst_node,@function
_ZN8lam_node6renameEP8arg_nodePKcP9alst_node: # @_ZN8lam_node6renameEP8arg_nodePKcP9alst_node
	.cfi_startproc
# %bb.0:                                # %entry
	addi.d	$sp, $sp, -48
	.cfi_def_cfa_offset 48
	st.d	$ra, $sp, 40                    # 8-byte Folded Spill
	.cfi_offset 1, -8
	ld.d	$a4, $a0, 16
	st.d	$zero, $sp, 16
	pcalau12i	$a5, %pc_hi20(_ZTV11stack_frame+16)
	ld.d	$a0, $a0, 24
	addi.d	$a5, $a5, %pc_lo12(_ZTV11stack_frame+16)
	st.d	$a5, $sp, 8
	st.d	$a4, $sp, 24
	st.d	$a3, $sp, 32
	beqz	$a0, .LBB42_2
# %bb.1:                                # %if.then
	ld.d	$a3, $a0, 0
	ld.d	$a4, $a3, 144
	addi.d	$a3, $sp, 8
	jirl	$ra, $a4, 0
.LBB42_2:                               # %if.end
	ld.d	$ra, $sp, 40                    # 8-byte Folded Reload
	addi.d	$sp, $sp, 48
	ret
.Lfunc_end42:
	.size	_ZN8lam_node6renameEP8arg_nodePKcP9alst_node, .Lfunc_end42-_ZN8lam_node6renameEP8arg_nodePKcP9alst_node
	.cfi_endproc
                                        # -- End function
	.globl	_ZN8lam_node18resolve_name_clashEP8arg_nodeP9alst_node # -- Begin function _ZN8lam_node18resolve_name_clashEP8arg_nodeP9alst_node
	.p2align	2
	.type	_ZN8lam_node18resolve_name_clashEP8arg_nodeP9alst_node,@function
_ZN8lam_node18resolve_name_clashEP8arg_nodeP9alst_node: # @_ZN8lam_node18resolve_name_clashEP8arg_nodeP9alst_node
	.cfi_startproc
# %bb.0:                                # %entry
	addi.d	$sp, $sp, -224
	.cfi_def_cfa_offset 224
	st.d	$ra, $sp, 216                   # 8-byte Folded Spill
	st.d	$fp, $sp, 208                   # 8-byte Folded Spill
	st.d	$s0, $sp, 200                   # 8-byte Folded Spill
	st.d	$s1, $sp, 192                   # 8-byte Folded Spill
	st.d	$s2, $sp, 184                   # 8-byte Folded Spill
	st.d	$s3, $sp, 176                   # 8-byte Folded Spill
	.cfi_offset 1, -8
	.cfi_offset 22, -16
	.cfi_offset 23, -24
	.cfi_offset 24, -32
	.cfi_offset 25, -40
	.cfi_offset 26, -48
	move	$fp, $a1
	move	$s0, $a0
	ld.d	$a0, $a0, 16
	ld.d	$a1, $a1, 0
	st.d	$zero, $sp, 24
	pcalau12i	$a3, %pc_hi20(_ZTV11stack_frame+16)
	addi.d	$a3, $a3, %pc_lo12(_ZTV11stack_frame+16)
	ld.d	$a1, $a1, 40
	st.d	$a3, $sp, 16
	st.d	$a0, $sp, 32
	st.d	$a2, $sp, 40
	move	$a0, $fp
	jirl	$ra, $a1, 0
	beqz	$a0, .LBB43_14
# %bb.1:                                # %if.then
	ld.d	$a0, $s0, 0
	ld.d	$a1, $a0, 48
	move	$a0, $s0
	jirl	$ra, $a1, 0
	ld.d	$a1, $s0, 0
	ld.d	$a1, $a1, 56
	move	$s1, $a0
	move	$a0, $s0
	jirl	$ra, $a1, 0
	beq	$s1, $fp, .LBB43_11
# %bb.2:                                # %if.then
	beqz	$s1, .LBB43_11
# %bb.3:                                # %if.then
	beqz	$a0, .LBB43_11
# %bb.4:                                # %if.then15
	ld.d	$a1, $fp, 0
	ld.d	$a1, $a1, 40
	move	$s2, $a0
	move	$a0, $fp
	jirl	$ra, $a1, 0
	ld.d	$a1, $a0, 0
	ld.d	$a3, $a1, 120
	addi.d	$a2, $sp, 16
	move	$a1, $s1
	jirl	$ra, $a3, 0
	ld.d	$a1, $s2, 0
	ld.d	$a3, $a1, 120
	move	$s3, $a0
	addi.d	$a2, $sp, 16
	move	$a0, $s2
	move	$a1, $fp
	jirl	$ra, $a3, 0
	beqz	$s3, .LBB43_11
# %bb.5:                                # %if.then15
	beqz	$a0, .LBB43_11
# %bb.6:                                # %if.then33
	ld.d	$a0, $s1, 0
	ld.d	$a1, $a0, 32
	move	$a0, $s1
	jirl	$ra, $a1, 0
	sltui	$a1, $a0, 1
	masknez	$a0, $a0, $a1
	pcalau12i	$a2, %pc_hi20(.L.str.29)
	pcalau12i	$s2, %pc_hi20(_ZL13name_sequence)
	ld.w	$a3, $s2, %pc_lo12(_ZL13name_sequence)
	addi.d	$a2, $a2, %pc_lo12(.L.str.29)
	maskeqz	$a1, $a2, $a1
	or	$a2, $a1, $a0
	pcalau12i	$a0, %pc_hi20(.L.str.30)
	addi.d	$a1, $a0, %pc_lo12(.L.str.30)
	addi.d	$a0, $sp, 48
	pcaddu18i	$ra, %call36(sprintf)
	jirl	$ra, $ra, 0
	ld.w	$a0, $s2, %pc_lo12(_ZL13name_sequence)
	addi.d	$a0, $a0, 1
	st.w	$a0, $s2, %pc_lo12(_ZL13name_sequence)
	addi.d	$a0, $sp, 48
	pcaddu18i	$ra, %call36(strlen)
	jirl	$ra, $ra, 0
	addi.d	$a0, $a0, 1
	pcaddu18i	$ra, %call36(_Znam)
	jirl	$ra, $ra, 0
	move	$s2, $a0
	addi.d	$a1, $sp, 48
	pcaddu18i	$ra, %call36(strcpy)
	jirl	$ra, $ra, 0
	ld.d	$a0, $s0, 24
	ld.d	$a1, $a0, 0
	ld.d	$a4, $a1, 144
	addi.d	$a3, $sp, 16
	move	$a1, $s1
	move	$a2, $s2
	jirl	$ra, $a4, 0
	ld.d	$a0, $s1, 16
	beq	$a0, $s2, .LBB43_10
# %bb.7:                                # %if.end.i
	beqz	$a0, .LBB43_9
# %bb.8:                                # %delete.notnull.i
	pcaddu18i	$ra, %call36(_ZdaPv)
	jirl	$ra, $ra, 0
.LBB43_9:                               # %if.end5.i
	move	$a0, $s2
	pcaddu18i	$ra, %call36(strlen)
	jirl	$ra, $ra, 0
	addi.d	$a0, $a0, 1
	pcaddu18i	$ra, %call36(_Znam)
	jirl	$ra, $ra, 0
	st.d	$a0, $s1, 16
	move	$a1, $s2
	pcaddu18i	$ra, %call36(strcpy)
	jirl	$ra, $ra, 0
.LBB43_10:                              # %delete.notnull
	move	$a0, $s2
	pcaddu18i	$ra, %call36(_ZdaPv)
	jirl	$ra, $ra, 0
.LBB43_11:                              # %if.end46
	ld.d	$a0, $s0, 24
	beqz	$a0, .LBB43_14
# %bb.12:                               # %land.lhs.true49
	ld.d	$a1, $a0, 0
	ld.d	$a3, $a1, 120
	addi.d	$a2, $sp, 16
	move	$a1, $fp
	jirl	$ra, $a3, 0
	beqz	$a0, .LBB43_14
# %bb.13:                               # %if.then56
	ld.d	$a0, $s0, 24
	ld.d	$a1, $a0, 0
	ld.d	$a3, $a1, 152
	addi.d	$a2, $sp, 16
	move	$a1, $fp
	jirl	$ra, $a3, 0
.LBB43_14:                              # %if.end64
	ld.d	$s3, $sp, 176                   # 8-byte Folded Reload
	ld.d	$s2, $sp, 184                   # 8-byte Folded Reload
	ld.d	$s1, $sp, 192                   # 8-byte Folded Reload
	ld.d	$s0, $sp, 200                   # 8-byte Folded Reload
	ld.d	$fp, $sp, 208                   # 8-byte Folded Reload
	ld.d	$ra, $sp, 216                   # 8-byte Folded Reload
	addi.d	$sp, $sp, 224
	ret
.Lfunc_end43:
	.size	_ZN8lam_node18resolve_name_clashEP8arg_nodeP9alst_node, .Lfunc_end43-_ZN8lam_node18resolve_name_clashEP8arg_nodeP9alst_node
	.cfi_endproc
                                        # -- End function
	.globl	_ZNK8lam_nodeeqERK8exp_node     # -- Begin function _ZNK8lam_nodeeqERK8exp_node
	.p2align	2
	.type	_ZNK8lam_nodeeqERK8exp_node,@function
_ZNK8lam_nodeeqERK8exp_node:            # @_ZNK8lam_nodeeqERK8exp_node
	.cfi_startproc
# %bb.0:                                # %entry
	addi.d	$sp, $sp, -32
	.cfi_def_cfa_offset 32
	st.d	$ra, $sp, 24                    # 8-byte Folded Spill
	st.d	$fp, $sp, 16                    # 8-byte Folded Spill
	st.d	$s0, $sp, 8                     # 8-byte Folded Spill
	st.d	$s1, $sp, 0                     # 8-byte Folded Spill
	.cfi_offset 1, -8
	.cfi_offset 22, -16
	.cfi_offset 23, -24
	.cfi_offset 24, -32
	move	$fp, $a1
	ld.d	$a1, $a1, 0
	ld.d	$a1, $a1, 24
	move	$s0, $a0
	move	$a0, $fp
	jirl	$ra, $a1, 0
	ori	$a1, $zero, 4
	bne	$a0, $a1, .LBB44_8
# %bb.1:                                # %if.end
	ld.d	$a0, $s0, 0
	ld.d	$a1, $a0, 48
	move	$a0, $s0
	jirl	$ra, $a1, 0
	beqz	$a0, .LBB44_8
# %bb.2:                                # %lor.lhs.false
	ld.d	$a0, $fp, 0
	ld.d	$a1, $a0, 48
	move	$a0, $fp
	jirl	$ra, $a1, 0
	beqz	$a0, .LBB44_8
# %bb.3:                                # %if.end12
	ld.d	$a0, $s0, 0
	ld.d	$a1, $a0, 56
	move	$a0, $s0
	jirl	$ra, $a1, 0
	beqz	$a0, .LBB44_8
# %bb.4:                                # %lor.lhs.false17
	ld.d	$a0, $fp, 0
	ld.d	$a1, $a0, 56
	move	$a0, $fp
	jirl	$ra, $a1, 0
	beqz	$a0, .LBB44_8
# %bb.5:                                # %if.end24
	ld.d	$a0, $s0, 0
	ld.d	$a1, $a0, 48
	move	$a0, $s0
	jirl	$ra, $a1, 0
	ld.d	$a1, $fp, 0
	ld.d	$a1, $a1, 48
	move	$s1, $a0
	move	$a0, $fp
	jirl	$ra, $a1, 0
	move	$a1, $a0
	ld.d	$a0, $s1, 16
	ld.d	$a1, $a1, 16
	beqz	$a0, .LBB44_10
# %bb.6:                                # %if.end24
	beqz	$a1, .LBB44_10
# %bb.7:                                # %land.rhs.i
	pcaddu18i	$ra, %call36(strcmp)
	jirl	$ra, $ra, 0
	beqz	$a0, .LBB44_11
.LBB44_8:
	move	$a0, $zero
.LBB44_9:                               # %cleanup
	ld.d	$s1, $sp, 0                     # 8-byte Folded Reload
	ld.d	$s0, $sp, 8                     # 8-byte Folded Reload
	ld.d	$fp, $sp, 16                    # 8-byte Folded Reload
	ld.d	$ra, $sp, 24                    # 8-byte Folded Reload
	addi.d	$sp, $sp, 32
	ret
.LBB44_10:                              # %_ZNK8arg_nodeeqERKS_.exit
	or	$a0, $a0, $a1
	bnez	$a0, .LBB44_8
.LBB44_11:                              # %land.rhs
	ld.d	$a0, $s0, 0
	ld.d	$a1, $a0, 56
	move	$a0, $s0
	jirl	$ra, $a1, 0
	ld.d	$a1, $fp, 0
	ld.d	$a1, $a1, 56
	move	$s0, $a0
	move	$a0, $fp
	jirl	$ra, $a1, 0
	ld.d	$a1, $s0, 0
	ld.d	$a2, $a1, 160
	move	$a1, $a0
	move	$a0, $s0
	jirl	$ra, $a2, 0
	sltu	$a0, $zero, $a0
	b	.LBB44_9
.Lfunc_end44:
	.size	_ZNK8lam_nodeeqERK8exp_node, .Lfunc_end44-_ZNK8lam_nodeeqERK8exp_node
	.cfi_endproc
                                        # -- End function
	.globl	_ZN8lam_node12extract_defsEPK9alst_node # -- Begin function _ZN8lam_node12extract_defsEPK9alst_node
	.p2align	2
	.type	_ZN8lam_node12extract_defsEPK9alst_node,@function
_ZN8lam_node12extract_defsEPK9alst_node: # @_ZN8lam_node12extract_defsEPK9alst_node
.Lfunc_begin4:
	.cfi_startproc
	.cfi_personality 155, DW.ref.__gxx_personality_v0
	.cfi_lsda 27, .Lexception4
# %bb.0:                                # %entry
	addi.d	$sp, $sp, -32
	.cfi_def_cfa_offset 32
	st.d	$ra, $sp, 24                    # 8-byte Folded Spill
	st.d	$fp, $sp, 16                    # 8-byte Folded Spill
	st.d	$s0, $sp, 8                     # 8-byte Folded Spill
	st.d	$s1, $sp, 0                     # 8-byte Folded Spill
	.cfi_offset 1, -8
	.cfi_offset 22, -16
	.cfi_offset 23, -24
	.cfi_offset 24, -32
	move	$fp, $a0
	ld.d	$a0, $a0, 0
	ld.d	$a2, $a0, 192
	move	$s0, $a1
	move	$a0, $fp
	jirl	$ra, $a2, 0
	beqz	$a0, .LBB45_6
# %bb.1:                                # %if.else
	move	$s1, $a0
	ori	$a0, $zero, 24
	pcaddu18i	$ra, %call36(_Znwm)
	jirl	$ra, $ra, 0
	ld.d	$a1, $s1, 0
	ld.d	$a1, $a1, 48
	move	$fp, $a0
.Ltmp72:                                # EH_LABEL
	move	$a0, $s1
	jirl	$ra, $a1, 0
.Ltmp73:                                # EH_LABEL
# %bb.2:                                # %invoke.cont35
	ld.d	$a1, $a0, 0
	ld.d	$a1, $a1, 32
.Ltmp74:                                # EH_LABEL
	jirl	$ra, $a1, 0
.Ltmp75:                                # EH_LABEL
# %bb.3:                                # %invoke.cont39
	move	$s0, $a0
	st.d	$zero, $fp, 8
	pcalau12i	$a0, %pc_hi20(_ZTV8var_node+16)
	addi.d	$a0, $a0, %pc_lo12(_ZTV8var_node+16)
	st.d	$a0, $fp, 0
	beqz	$s0, .LBB45_17
# %bb.4:                                # %if.then.i13
	move	$a0, $s0
	pcaddu18i	$ra, %call36(strlen)
	jirl	$ra, $ra, 0
	addi.d	$a0, $a0, 1
.Ltmp76:                                # EH_LABEL
	pcaddu18i	$ra, %call36(_Znam)
	jirl	$ra, $ra, 0
.Ltmp77:                                # EH_LABEL
.LBB45_5:                               # %call2.i.noexc
	st.d	$a0, $fp, 16
	move	$a1, $s0
	pcaddu18i	$ra, %call36(strcpy)
	jirl	$ra, $ra, 0
	b	.LBB45_17
.LBB45_6:                               # %if.then
	ld.d	$a0, $fp, 0
	ld.d	$a1, $a0, 56
	move	$a0, $fp
	jirl	$ra, $a1, 0
	beqz	$a0, .LBB45_17
# %bb.7:                                # %if.then6
	ld.d	$a0, $fp, 0
	ld.d	$a1, $a0, 56
	move	$a0, $fp
	jirl	$ra, $a1, 0
	ld.d	$a1, $a0, 0
	ld.d	$a2, $a1, 200
	move	$a1, $s0
	jirl	$ra, $a2, 0
	beqz	$a0, .LBB45_12
# %bb.8:                                # %if.then14
	ld.d	$a1, $fp, 24
	beq	$a1, $a0, .LBB45_12
# %bb.9:                                # %if.end.i
	beqz	$a1, .LBB45_11
# %bb.10:                               # %delete.notnull.i
	ld.d	$a2, $a1, 0
	ld.d	$a2, $a2, 16
	move	$s1, $a0
	move	$a0, $a1
	jirl	$ra, $a2, 0
	move	$a0, $s1
.LBB45_11:                              # %if.then20.i
	ld.d	$a1, $a0, 0
	st.d	$a0, $fp, 24
	ld.d	$a2, $a1, 96
	move	$a1, $fp
	jirl	$ra, $a2, 0
.LBB45_12:                              # %if.end
	ld.d	$a0, $fp, 0
	ld.d	$a2, $a0, 192
	move	$a0, $fp
	move	$a1, $s0
	jirl	$ra, $a2, 0
	beqz	$a0, .LBB45_17
# %bb.13:                               # %if.then19
	move	$s0, $a0
	ori	$a0, $zero, 24
	pcaddu18i	$ra, %call36(_Znwm)
	jirl	$ra, $ra, 0
	ld.d	$a1, $s0, 0
	ld.d	$a1, $a1, 48
	move	$fp, $a0
.Ltmp79:                                # EH_LABEL
	move	$a0, $s0
	jirl	$ra, $a1, 0
.Ltmp80:                                # EH_LABEL
# %bb.14:                               # %invoke.cont
	ld.d	$a1, $a0, 0
	ld.d	$a1, $a1, 32
.Ltmp81:                                # EH_LABEL
	jirl	$ra, $a1, 0
.Ltmp82:                                # EH_LABEL
# %bb.15:                               # %invoke.cont26
	move	$s0, $a0
	st.d	$zero, $fp, 8
	pcalau12i	$a0, %pc_hi20(_ZTV8var_node+16)
	addi.d	$a0, $a0, %pc_lo12(_ZTV8var_node+16)
	st.d	$a0, $fp, 0
	beqz	$s0, .LBB45_17
# %bb.16:                               # %if.then.i
	move	$a0, $s0
	pcaddu18i	$ra, %call36(strlen)
	jirl	$ra, $ra, 0
	addi.d	$a0, $a0, 1
.Ltmp83:                                # EH_LABEL
	pcaddu18i	$ra, %call36(_Znam)
	jirl	$ra, $ra, 0
.Ltmp84:                                # EH_LABEL
	b	.LBB45_5
.LBB45_17:                              # %if.end42
	move	$a0, $fp
	ld.d	$s1, $sp, 0                     # 8-byte Folded Reload
	ld.d	$s0, $sp, 8                     # 8-byte Folded Reload
	ld.d	$fp, $sp, 16                    # 8-byte Folded Reload
	ld.d	$ra, $sp, 24                    # 8-byte Folded Reload
	addi.d	$sp, $sp, 32
	ret
.LBB45_18:                              # %lpad
.Ltmp85:                                # EH_LABEL
	b	.LBB45_20
.LBB45_19:                              # %lpad34
.Ltmp78:                                # EH_LABEL
.LBB45_20:                              # %ehcleanup
	move	$s0, $a0
	ori	$a1, $zero, 24
	move	$a0, $fp
	pcaddu18i	$ra, %call36(_ZdlPvm)
	jirl	$ra, $ra, 0
	move	$a0, $s0
	pcaddu18i	$ra, %call36(_Unwind_Resume)
	jirl	$ra, $ra, 0
.Lfunc_end45:
	.size	_ZN8lam_node12extract_defsEPK9alst_node, .Lfunc_end45-_ZN8lam_node12extract_defsEPK9alst_node
	.cfi_endproc
	.section	.gcc_except_table,"a",@progbits
	.p2align	2, 0x0
GCC_except_table45:
.Lexception4:
	.byte	255                             # @LPStart Encoding = omit
	.byte	255                             # @TType Encoding = omit
	.byte	1                               # Call site Encoding = uleb128
	.uleb128 .Lcst_end4-.Lcst_begin4
.Lcst_begin4:
	.uleb128 .Lfunc_begin4-.Lfunc_begin4    # >> Call Site 1 <<
	.uleb128 .Ltmp72-.Lfunc_begin4          #   Call between .Lfunc_begin4 and .Ltmp72
	.byte	0                               #     has no landing pad
	.byte	0                               #   On action: cleanup
	.uleb128 .Ltmp72-.Lfunc_begin4          # >> Call Site 2 <<
	.uleb128 .Ltmp75-.Ltmp72                #   Call between .Ltmp72 and .Ltmp75
	.uleb128 .Ltmp78-.Lfunc_begin4          #     jumps to .Ltmp78
	.byte	0                               #   On action: cleanup
	.uleb128 .Ltmp75-.Lfunc_begin4          # >> Call Site 3 <<
	.uleb128 .Ltmp76-.Ltmp75                #   Call between .Ltmp75 and .Ltmp76
	.byte	0                               #     has no landing pad
	.byte	0                               #   On action: cleanup
	.uleb128 .Ltmp76-.Lfunc_begin4          # >> Call Site 4 <<
	.uleb128 .Ltmp77-.Ltmp76                #   Call between .Ltmp76 and .Ltmp77
	.uleb128 .Ltmp78-.Lfunc_begin4          #     jumps to .Ltmp78
	.byte	0                               #   On action: cleanup
	.uleb128 .Ltmp77-.Lfunc_begin4          # >> Call Site 5 <<
	.uleb128 .Ltmp79-.Ltmp77                #   Call between .Ltmp77 and .Ltmp79
	.byte	0                               #     has no landing pad
	.byte	0                               #   On action: cleanup
	.uleb128 .Ltmp79-.Lfunc_begin4          # >> Call Site 6 <<
	.uleb128 .Ltmp82-.Ltmp79                #   Call between .Ltmp79 and .Ltmp82
	.uleb128 .Ltmp85-.Lfunc_begin4          #     jumps to .Ltmp85
	.byte	0                               #   On action: cleanup
	.uleb128 .Ltmp82-.Lfunc_begin4          # >> Call Site 7 <<
	.uleb128 .Ltmp83-.Ltmp82                #   Call between .Ltmp82 and .Ltmp83
	.byte	0                               #     has no landing pad
	.byte	0                               #   On action: cleanup
	.uleb128 .Ltmp83-.Lfunc_begin4          # >> Call Site 8 <<
	.uleb128 .Ltmp84-.Ltmp83                #   Call between .Ltmp83 and .Ltmp84
	.uleb128 .Ltmp85-.Lfunc_begin4          #     jumps to .Ltmp85
	.byte	0                               #   On action: cleanup
	.uleb128 .Ltmp84-.Lfunc_begin4          # >> Call Site 9 <<
	.uleb128 .Lfunc_end45-.Ltmp84           #   Call between .Ltmp84 and .Lfunc_end45
	.byte	0                               #     has no landing pad
	.byte	0                               #   On action: cleanup
.Lcst_end4:
	.p2align	2, 0x0
                                        # -- End function
	.text
	.globl	_ZNK8lam_node7extractEPKci      # -- Begin function _ZNK8lam_node7extractEPKci
	.p2align	2
	.type	_ZNK8lam_node7extractEPKci,@function
_ZNK8lam_node7extractEPKci:             # @_ZNK8lam_node7extractEPKci
	.cfi_startproc
# %bb.0:                                # %entry
	addi.d	$sp, $sp, -48
	.cfi_def_cfa_offset 48
	st.d	$ra, $sp, 40                    # 8-byte Folded Spill
	st.d	$fp, $sp, 32                    # 8-byte Folded Spill
	st.d	$s0, $sp, 24                    # 8-byte Folded Spill
	st.d	$s1, $sp, 16                    # 8-byte Folded Spill
	st.d	$s2, $sp, 8                     # 8-byte Folded Spill
	.cfi_offset 1, -8
	.cfi_offset 22, -16
	.cfi_offset 23, -24
	.cfi_offset 24, -32
	.cfi_offset 25, -40
	move	$s1, $a0
	ld.d	$a0, $a0, 0
	ld.d	$a3, $a0, 56
	move	$fp, $a2
	move	$s0, $a1
	move	$a0, $s1
	jirl	$ra, $a3, 0
	beqz	$a0, .LBB46_5
# %bb.1:                                # %land.lhs.true
	ld.d	$a0, $s1, 0
	ld.d	$a1, $a0, 48
	move	$a0, $s1
	jirl	$ra, $a1, 0
	beqz	$a0, .LBB46_5
# %bb.2:                                # %if.then
	ld.d	$a0, $s1, 0
	ld.d	$a1, $a0, 56
	move	$a0, $s1
	jirl	$ra, $a1, 0
	ld.d	$a1, $s1, 0
	ld.d	$a1, $a1, 48
	move	$s2, $a0
	move	$a0, $s1
	jirl	$ra, $a1, 0
	ld.d	$a1, $a0, 0
	ld.d	$a1, $a1, 32
	jirl	$ra, $a1, 0
	ld.d	$a1, $s2, 0
	ld.d	$a3, $a1, 208
	move	$a1, $a0
	move	$a0, $s2
	move	$a2, $fp
	jirl	$ra, $a3, 0
	beqz	$s0, .LBB46_6
# %bb.3:                                # %if.then
	beqz	$a0, .LBB46_6
# %bb.4:                                # %if.then21
	ld.d	$a1, $a0, 0
	ld.d	$a3, $a1, 208
	move	$s1, $a0
	move	$a1, $s0
	move	$a2, $fp
	jirl	$ra, $a3, 0
	ld.d	$a1, $s1, 0
	ld.d	$a1, $a1, 16
	move	$fp, $a0
	move	$a0, $s1
	jirl	$ra, $a1, 0
	move	$a0, $fp
	b	.LBB46_6
.LBB46_5:
	move	$a0, $zero
.LBB46_6:                               # %if.end27
	ld.d	$s2, $sp, 8                     # 8-byte Folded Reload
	ld.d	$s1, $sp, 16                    # 8-byte Folded Reload
	ld.d	$s0, $sp, 24                    # 8-byte Folded Reload
	ld.d	$fp, $sp, 32                    # 8-byte Folded Reload
	ld.d	$ra, $sp, 40                    # 8-byte Folded Reload
	addi.d	$sp, $sp, 48
	ret
.Lfunc_end46:
	.size	_ZNK8lam_node7extractEPKci, .Lfunc_end46-_ZNK8lam_node7extractEPKci
	.cfi_endproc
                                        # -- End function
	.globl	_ZN8app_nodeC2EP8exp_nodeS1_s   # -- Begin function _ZN8app_nodeC2EP8exp_nodeS1_s
	.p2align	2
	.type	_ZN8app_nodeC2EP8exp_nodeS1_s,@function
_ZN8app_nodeC2EP8exp_nodeS1_s:          # @_ZN8app_nodeC2EP8exp_nodeS1_s
	.cfi_startproc
# %bb.0:                                # %entry
	addi.d	$sp, $sp, -48
	.cfi_def_cfa_offset 48
	st.d	$ra, $sp, 40                    # 8-byte Folded Spill
	st.d	$fp, $sp, 32                    # 8-byte Folded Spill
	st.d	$s0, $sp, 24                    # 8-byte Folded Spill
	st.d	$s1, $sp, 16                    # 8-byte Folded Spill
	st.d	$s2, $sp, 8                     # 8-byte Folded Spill
	.cfi_offset 1, -8
	.cfi_offset 22, -16
	.cfi_offset 23, -24
	.cfi_offset 24, -32
	.cfi_offset 25, -40
	move	$s1, $a3
	move	$s0, $a2
	move	$fp, $a0
	vrepli.b	$vr0, 0
	vst	$vr0, $a0, 8
	pcalau12i	$a0, %pc_hi20(_ZTV8app_node+16)
	addi.d	$a0, $a0, %pc_lo12(_ZTV8app_node+16)
	st.d	$a0, $fp, 0
	st.d	$zero, $fp, 24
	beqz	$a1, .LBB47_3
# %bb.1:                                # %if.end5.i
	addi.d	$s2, $fp, 16
	beqz	$s1, .LBB47_4
# %bb.2:                                # %if.end17.i.thread
	st.d	$a1, $s2, 0
	b	.LBB47_5
.LBB47_3:                               # %invoke.cont.thread
	bnez	$s0, .LBB47_9
	b	.LBB47_15
.LBB47_4:                               # %if.end17.i
	ld.d	$a0, $a1, 0
	ld.d	$a2, $a0, 0
	move	$a0, $a1
	jirl	$ra, $a2, 0
	move	$a1, $a0
	st.d	$a0, $s2, 0
	beqz	$a0, .LBB47_6
.LBB47_5:                               # %if.then20.i
	ld.d	$a0, $a1, 0
	ld.d	$a2, $a0, 96
	move	$a0, $a1
	move	$a1, $fp
	jirl	$ra, $a2, 0
.LBB47_6:                               # %invoke.cont
	ld.d	$a0, $fp, 24
	beq	$a0, $s0, .LBB47_15
# %bb.7:                                # %if.end.i4
	beqz	$a0, .LBB47_9
# %bb.8:                                # %delete.notnull.i6
	ld.d	$a1, $a0, 0
	ld.d	$a1, $a1, 16
	jirl	$ra, $a1, 0
.LBB47_9:                               # %if.end5.i9
	beqz	$s1, .LBB47_11
# %bb.10:                               # %if.end17.i11
	st.d	$s0, $fp, 24
	bnez	$s0, .LBB47_13
	b	.LBB47_15
.LBB47_11:                              # %if.else.i17
	beqz	$s0, .LBB47_14
# %bb.12:                               # %if.then10.i19
	ld.d	$a0, $s0, 0
	ld.d	$a1, $a0, 0
	move	$a0, $s0
	jirl	$ra, $a1, 0
	move	$s0, $a0
	st.d	$s0, $fp, 24
	beqz	$s0, .LBB47_15
.LBB47_13:                              # %if.then20.i14
	ld.d	$a0, $s0, 0
	ld.d	$a2, $a0, 96
	move	$a0, $s0
	move	$a1, $fp
	ld.d	$s2, $sp, 8                     # 8-byte Folded Reload
	ld.d	$s1, $sp, 16                    # 8-byte Folded Reload
	ld.d	$s0, $sp, 24                    # 8-byte Folded Reload
	ld.d	$fp, $sp, 32                    # 8-byte Folded Reload
	ld.d	$ra, $sp, 40                    # 8-byte Folded Reload
	addi.d	$sp, $sp, 48
	jr	$a2
.LBB47_14:                              # %if.end17.thread.i21
	st.d	$zero, $fp, 24
.LBB47_15:                              # %invoke.cont2
	ld.d	$s2, $sp, 8                     # 8-byte Folded Reload
	ld.d	$s1, $sp, 16                    # 8-byte Folded Reload
	ld.d	$s0, $sp, 24                    # 8-byte Folded Reload
	ld.d	$fp, $sp, 32                    # 8-byte Folded Reload
	ld.d	$ra, $sp, 40                    # 8-byte Folded Reload
	addi.d	$sp, $sp, 48
	ret
.Lfunc_end47:
	.size	_ZN8app_nodeC2EP8exp_nodeS1_s, .Lfunc_end47-_ZN8app_nodeC2EP8exp_nodeS1_s
	.cfi_endproc
                                        # -- End function
	.globl	_ZN8app_node9set_rightEP8exp_nodes # -- Begin function _ZN8app_node9set_rightEP8exp_nodes
	.p2align	2
	.type	_ZN8app_node9set_rightEP8exp_nodes,@function
_ZN8app_node9set_rightEP8exp_nodes:     # @_ZN8app_node9set_rightEP8exp_nodes
	.cfi_startproc
# %bb.0:                                # %entry
	addi.d	$sp, $sp, -32
	.cfi_def_cfa_offset 32
	st.d	$ra, $sp, 24                    # 8-byte Folded Spill
	st.d	$fp, $sp, 16                    # 8-byte Folded Spill
	st.d	$s0, $sp, 8                     # 8-byte Folded Spill
	st.d	$s1, $sp, 0                     # 8-byte Folded Spill
	.cfi_offset 1, -8
	.cfi_offset 22, -16
	.cfi_offset 23, -24
	.cfi_offset 24, -32
	move	$fp, $a0
	ld.d	$a0, $a0, 24
	beq	$a0, $a1, .LBB48_9
# %bb.1:                                # %if.end
	move	$s1, $a2
	move	$s0, $a1
	beqz	$a0, .LBB48_3
# %bb.2:                                # %delete.notnull
	ld.d	$a1, $a0, 0
	ld.d	$a1, $a1, 16
	jirl	$ra, $a1, 0
.LBB48_3:                               # %if.end5
	beqz	$s1, .LBB48_5
# %bb.4:                                # %if.end17
	st.d	$s0, $fp, 24
	bnez	$s0, .LBB48_7
	b	.LBB48_9
.LBB48_5:                               # %if.else
	beqz	$s0, .LBB48_8
# %bb.6:                                # %if.then10
	ld.d	$a0, $s0, 0
	ld.d	$a1, $a0, 0
	move	$a0, $s0
	jirl	$ra, $a1, 0
	move	$s0, $a0
	st.d	$s0, $fp, 24
	beqz	$s0, .LBB48_9
.LBB48_7:                               # %if.then20
	ld.d	$a0, $s0, 0
	ld.d	$a2, $a0, 96
	move	$a0, $s0
	move	$a1, $fp
	ld.d	$s1, $sp, 0                     # 8-byte Folded Reload
	ld.d	$s0, $sp, 8                     # 8-byte Folded Reload
	ld.d	$fp, $sp, 16                    # 8-byte Folded Reload
	ld.d	$ra, $sp, 24                    # 8-byte Folded Reload
	addi.d	$sp, $sp, 32
	jr	$a2
.LBB48_8:                               # %if.end17.thread
	st.d	$zero, $fp, 24
.LBB48_9:                               # %if.end24
	ld.d	$s1, $sp, 0                     # 8-byte Folded Reload
	ld.d	$s0, $sp, 8                     # 8-byte Folded Reload
	ld.d	$fp, $sp, 16                    # 8-byte Folded Reload
	ld.d	$ra, $sp, 24                    # 8-byte Folded Reload
	addi.d	$sp, $sp, 32
	ret
.Lfunc_end48:
	.size	_ZN8app_node9set_rightEP8exp_nodes, .Lfunc_end48-_ZN8app_node9set_rightEP8exp_nodes
	.cfi_endproc
                                        # -- End function
	.globl	_ZN8app_nodeC2ERKS_             # -- Begin function _ZN8app_nodeC2ERKS_
	.p2align	2
	.type	_ZN8app_nodeC2ERKS_,@function
_ZN8app_nodeC2ERKS_:                    # @_ZN8app_nodeC2ERKS_
	.cfi_startproc
# %bb.0:                                # %entry
	addi.d	$sp, $sp, -32
	.cfi_def_cfa_offset 32
	st.d	$ra, $sp, 24                    # 8-byte Folded Spill
	st.d	$fp, $sp, 16                    # 8-byte Folded Spill
	st.d	$s0, $sp, 8                     # 8-byte Folded Spill
	.cfi_offset 1, -8
	.cfi_offset 22, -16
	.cfi_offset 23, -24
	move	$s0, $a1
	move	$fp, $a0
	ld.d	$a0, $a1, 16
	st.d	$zero, $fp, 8
	pcalau12i	$a1, %pc_hi20(_ZTV8app_node+16)
	addi.d	$a1, $a1, %pc_lo12(_ZTV8app_node+16)
	st.d	$a1, $fp, 0
	beqz	$a0, .LBB49_6
# %bb.1:                                # %if.end
	ld.d	$a1, $a0, 0
	ld.d	$a1, $a1, 0
	jirl	$ra, $a1, 0
	st.d	$a0, $fp, 16
	beqz	$a0, .LBB49_3
# %bb.2:                                # %if.then7
	ld.d	$a1, $a0, 0
	ld.d	$a2, $a1, 96
	move	$a1, $fp
	jirl	$ra, $a2, 0
.LBB49_3:                               # %if.end12
	ld.d	$a0, $s0, 24
	beqz	$a0, .LBB49_7
.LBB49_4:                               # %if.end23
	ld.d	$a1, $a0, 0
	ld.d	$a1, $a1, 0
	jirl	$ra, $a1, 0
	st.d	$a0, $fp, 24
	beqz	$a0, .LBB49_8
# %bb.5:                                # %if.then26
	ld.d	$a0, $fp, 0
	ld.d	$a2, $a0, 96
	move	$a0, $fp
	move	$a1, $fp
	jirl	$ra, $a2, 0
	b	.LBB49_8
.LBB49_6:                               # %if.end.thread
	st.d	$zero, $fp, 16
	ld.d	$a0, $s0, 24
	bnez	$a0, .LBB49_4
.LBB49_7:                               # %if.end23.thread
	st.d	$zero, $fp, 24
.LBB49_8:                               # %if.end30
	ld.d	$a0, $s0, 8
	st.d	$a0, $fp, 8
	ld.d	$s0, $sp, 8                     # 8-byte Folded Reload
	ld.d	$fp, $sp, 16                    # 8-byte Folded Reload
	ld.d	$ra, $sp, 24                    # 8-byte Folded Reload
	addi.d	$sp, $sp, 32
	ret
.Lfunc_end49:
	.size	_ZN8app_nodeC2ERKS_, .Lfunc_end49-_ZN8app_nodeC2ERKS_
	.cfi_endproc
                                        # -- End function
	.globl	_ZN8app_nodeD2Ev                # -- Begin function _ZN8app_nodeD2Ev
	.p2align	2
	.type	_ZN8app_nodeD2Ev,@function
_ZN8app_nodeD2Ev:                       # @_ZN8app_nodeD2Ev
# %bb.0:                                # %entry
	addi.d	$sp, $sp, -16
	st.d	$ra, $sp, 8                     # 8-byte Folded Spill
	st.d	$fp, $sp, 0                     # 8-byte Folded Spill
	move	$fp, $a0
	ld.d	$a0, $a0, 16
	pcalau12i	$a1, %pc_hi20(_ZTV8app_node+16)
	addi.d	$a1, $a1, %pc_lo12(_ZTV8app_node+16)
	st.d	$a1, $fp, 0
	beqz	$a0, .LBB50_2
# %bb.1:                                # %delete.notnull
	ld.d	$a1, $a0, 0
	ld.d	$a1, $a1, 16
	jirl	$ra, $a1, 0
.LBB50_2:                               # %if.end
	ld.d	$a0, $fp, 24
	beqz	$a0, .LBB50_4
# %bb.3:                                # %delete.notnull7
	ld.d	$a1, $a0, 0
	ld.d	$a1, $a1, 16
	ld.d	$fp, $sp, 0                     # 8-byte Folded Reload
	ld.d	$ra, $sp, 8                     # 8-byte Folded Reload
	addi.d	$sp, $sp, 16
	jr	$a1
.LBB50_4:                               # %if.end11
	ld.d	$fp, $sp, 0                     # 8-byte Folded Reload
	ld.d	$ra, $sp, 8                     # 8-byte Folded Reload
	addi.d	$sp, $sp, 16
	ret
.Lfunc_end50:
	.size	_ZN8app_nodeD2Ev, .Lfunc_end50-_ZN8app_nodeD2Ev
                                        # -- End function
	.globl	_ZN8app_nodeD0Ev                # -- Begin function _ZN8app_nodeD0Ev
	.p2align	2
	.type	_ZN8app_nodeD0Ev,@function
_ZN8app_nodeD0Ev:                       # @_ZN8app_nodeD0Ev
# %bb.0:                                # %entry
	addi.d	$sp, $sp, -16
	st.d	$ra, $sp, 8                     # 8-byte Folded Spill
	st.d	$fp, $sp, 0                     # 8-byte Folded Spill
	move	$fp, $a0
	ld.d	$a0, $a0, 16
	pcalau12i	$a1, %pc_hi20(_ZTV8app_node+16)
	addi.d	$a1, $a1, %pc_lo12(_ZTV8app_node+16)
	st.d	$a1, $fp, 0
	beqz	$a0, .LBB51_2
# %bb.1:                                # %delete.notnull.i
	ld.d	$a1, $a0, 0
	ld.d	$a1, $a1, 16
	jirl	$ra, $a1, 0
.LBB51_2:                               # %if.end.i
	ld.d	$a0, $fp, 24
	beqz	$a0, .LBB51_4
# %bb.3:                                # %delete.notnull7.i
	ld.d	$a1, $a0, 0
	ld.d	$a1, $a1, 16
	jirl	$ra, $a1, 0
.LBB51_4:                               # %_ZN8app_nodeD2Ev.exit
	ori	$a1, $zero, 32
	move	$a0, $fp
	ld.d	$fp, $sp, 0                     # 8-byte Folded Reload
	ld.d	$ra, $sp, 8                     # 8-byte Folded Reload
	addi.d	$sp, $sp, 16
	pcaddu18i	$t8, %call36(_ZdlPvm)
	jr	$t8
.Lfunc_end51:
	.size	_ZN8app_nodeD0Ev, .Lfunc_end51-_ZN8app_nodeD0Ev
                                        # -- End function
	.globl	_ZNK8app_node8has_freeEPK8arg_nodePK9alst_node # -- Begin function _ZNK8app_node8has_freeEPK8arg_nodePK9alst_node
	.p2align	2
	.type	_ZNK8app_node8has_freeEPK8arg_nodePK9alst_node,@function
_ZNK8app_node8has_freeEPK8arg_nodePK9alst_node: # @_ZNK8app_node8has_freeEPK8arg_nodePK9alst_node
	.cfi_startproc
# %bb.0:                                # %entry
	addi.d	$sp, $sp, -32
	.cfi_def_cfa_offset 32
	st.d	$ra, $sp, 24                    # 8-byte Folded Spill
	st.d	$fp, $sp, 16                    # 8-byte Folded Spill
	st.d	$s0, $sp, 8                     # 8-byte Folded Spill
	st.d	$s1, $sp, 0                     # 8-byte Folded Spill
	.cfi_offset 1, -8
	.cfi_offset 22, -16
	.cfi_offset 23, -24
	.cfi_offset 24, -32
	move	$fp, $a0
	ld.d	$a0, $a0, 16
	beqz	$a0, .LBB52_3
# %bb.1:                                # %if.end
	ld.d	$a3, $a0, 0
	ld.d	$a3, $a3, 120
	move	$s0, $a1
	move	$s1, $a2
	jirl	$ra, $a3, 0
	ld.d	$a3, $fp, 24
	move	$a1, $a0
	or	$a0, $a0, $a3
	sltu	$a0, $zero, $a0
	bnez	$a1, .LBB52_6
# %bb.2:                                # %if.end
	move	$a2, $s1
	move	$a1, $s0
	bnez	$a3, .LBB52_4
	b	.LBB52_6
.LBB52_3:                               # %if.end.thread
	ld.d	$a3, $fp, 24
	beqz	$a3, .LBB52_5
.LBB52_4:                               # %lor.rhs8
	ld.d	$a0, $a3, 0
	ld.d	$a4, $a0, 120
	move	$a0, $a3
	jirl	$ra, $a4, 0
	sltu	$a0, $zero, $a0
	b	.LBB52_6
.LBB52_5:
	move	$a0, $zero
.LBB52_6:                               # %if.end16
	ld.d	$s1, $sp, 0                     # 8-byte Folded Reload
	ld.d	$s0, $sp, 8                     # 8-byte Folded Reload
	ld.d	$fp, $sp, 16                    # 8-byte Folded Reload
	ld.d	$ra, $sp, 24                    # 8-byte Folded Reload
	addi.d	$sp, $sp, 32
	ret
.Lfunc_end52:
	.size	_ZNK8app_node8has_freeEPK8arg_nodePK9alst_node, .Lfunc_end52-_ZNK8app_node8has_freeEPK8arg_nodePK9alst_node
	.cfi_endproc
                                        # -- End function
	.globl	_ZNK8app_node5printEPK9alst_nodei # -- Begin function _ZNK8app_node5printEPK9alst_nodei
	.p2align	2
	.type	_ZNK8app_node5printEPK9alst_nodei,@function
_ZNK8app_node5printEPK9alst_nodei:      # @_ZNK8app_node5printEPK9alst_nodei
	.cfi_startproc
# %bb.0:                                # %entry
	addi.d	$sp, $sp, -64
	.cfi_def_cfa_offset 64
	st.d	$ra, $sp, 56                    # 8-byte Folded Spill
	st.d	$fp, $sp, 48                    # 8-byte Folded Spill
	st.d	$s0, $sp, 40                    # 8-byte Folded Spill
	st.d	$s1, $sp, 32                    # 8-byte Folded Spill
	st.d	$s2, $sp, 24                    # 8-byte Folded Spill
	st.d	$s3, $sp, 16                    # 8-byte Folded Spill
	st.d	$s4, $sp, 8                     # 8-byte Folded Spill
	.cfi_offset 1, -8
	.cfi_offset 22, -16
	.cfi_offset 23, -24
	.cfi_offset 24, -32
	.cfi_offset 25, -40
	.cfi_offset 26, -48
	.cfi_offset 27, -56
	move	$fp, $a0
	ld.d	$a0, $a0, 0
	ld.d	$a3, $a0, 64
	move	$s0, $a2
	move	$s1, $a1
	andi	$s2, $a2, 16
	move	$a0, $fp
	jirl	$ra, $a3, 0
	bnez	$s2, .LBB53_7
# %bb.1:                                # %if.else158
	beqz	$a0, .LBB53_10
# %bb.2:                                # %if.then163
	ld.d	$a0, $fp, 0
	ld.d	$a1, $a0, 64
	move	$a0, $fp
	jirl	$ra, $a1, 0
	ld.d	$a1, $a0, 0
	ld.d	$a1, $a1, 24
	jirl	$ra, $a1, 0
	ori	$a1, $zero, 3
	bne	$a0, $a1, .LBB53_4
# %bb.3:                                # %lor.lhs.false171
	ld.d	$a0, $fp, 0
	ld.d	$a1, $a0, 64
	move	$a0, $fp
	jirl	$ra, $a1, 0
	ld.d	$a1, $a0, 0
	ld.d	$a1, $a1, 40
	jirl	$ra, $a1, 0
	beqz	$a0, .LBB53_5
.LBB53_4:                               # %if.then179
	ori	$a0, $zero, 40
	pcaddu18i	$ra, %call36(putchar)
	jirl	$ra, $ra, 0
.LBB53_5:                               # %if.end181
	ld.d	$a0, $fp, 0
	ld.d	$a1, $a0, 64
	move	$a0, $fp
	jirl	$ra, $a1, 0
	beqz	$a0, .LBB53_16
# %bb.6:                                # %if.then186
	ld.d	$a0, $fp, 0
	ld.d	$a1, $a0, 64
	move	$a0, $fp
	jirl	$ra, $a1, 0
	ld.d	$a1, $a0, 0
	ld.d	$a3, $a1, 112
	move	$a1, $s1
	move	$a2, $s0
	jirl	$ra, $a3, 0
	b	.LBB53_17
.LBB53_7:                               # %if.then
	andi	$s2, $s0, 8
	beqz	$a0, .LBB53_11
# %bb.8:                                # %if.then3
	bnez	$s2, .LBB53_12
# %bb.9:
	move	$s3, $zero
	b	.LBB53_13
.LBB53_10:                              # %if.else213
	pcalau12i	$a0, %pc_hi20(.L.str.25)
	addi.d	$a0, $a0, %pc_lo12(.L.str.25)
	pcaddu18i	$ra, %call36(printf)
	jirl	$ra, $ra, 0
	b	.LBB53_20
.LBB53_11:                              # %if.else96
	pcalau12i	$a0, %pc_hi20(.L.str.25)
	addi.d	$a0, $a0, %pc_lo12(.L.str.25)
	pcaddu18i	$ra, %call36(printf)
	jirl	$ra, $ra, 0
	move	$s4, $zero
	b	.LBB53_41
.LBB53_12:                              # %if.then6
	ld.d	$a0, $fp, 0
	ld.d	$a1, $a0, 64
	move	$a0, $fp
	jirl	$ra, $a1, 0
	ld.d	$a1, $a0, 0
	ld.d	$a2, $a1, 192
	move	$a1, $s1
	jirl	$ra, $a2, 0
	sltu	$s3, $zero, $a0
.LBB53_13:                              # %if.end
	ld.d	$a0, $fp, 0
	ld.d	$a1, $a0, 64
	move	$a0, $fp
	jirl	$ra, $a1, 0
	ld.d	$a1, $a0, 0
	ld.d	$a1, $a1, 24
	jirl	$ra, $a1, 0
	ori	$a1, $zero, 3
	beq	$a0, $a1, .LBB53_15
# %bb.14:                               # %lor.lhs.false
	ld.d	$a0, $fp, 0
	ld.d	$a1, $a0, 64
	move	$a0, $fp
	jirl	$ra, $a1, 0
	ld.d	$a1, $a0, 0
	ld.d	$a1, $a1, 24
	jirl	$ra, $a1, 0
	addi.d	$a0, $a0, -5
	sltu	$a0, $zero, $a0
	andn	$a0, $a0, $s3
	bnez	$a0, .LBB53_29
.LBB53_15:                              # %if.then29
	ori	$s3, $zero, 1
	b	.LBB53_30
.LBB53_16:                              # %if.else192
	pcalau12i	$a0, %pc_hi20(.L.str.23)
	addi.d	$a0, $a0, %pc_lo12(.L.str.23)
	pcaddu18i	$ra, %call36(printf)
	jirl	$ra, $ra, 0
.LBB53_17:                              # %if.end194
	ld.d	$a0, $fp, 0
	ld.d	$a1, $a0, 64
	move	$a0, $fp
	jirl	$ra, $a1, 0
	ld.d	$a1, $a0, 0
	ld.d	$a1, $a1, 24
	jirl	$ra, $a1, 0
	ori	$a1, $zero, 3
	bne	$a0, $a1, .LBB53_19
# %bb.18:                               # %lor.lhs.false202
	ld.d	$a0, $fp, 0
	ld.d	$a1, $a0, 64
	move	$a0, $fp
	jirl	$ra, $a1, 0
	ld.d	$a1, $a0, 0
	ld.d	$a1, $a1, 40
	jirl	$ra, $a1, 0
	beqz	$a0, .LBB53_20
.LBB53_19:                              # %if.then210
	ori	$a0, $zero, 41
	pcaddu18i	$ra, %call36(putchar)
	jirl	$ra, $ra, 0
.LBB53_20:                              # %if.end215
	ld.d	$a0, $fp, 0
	ld.d	$a1, $a0, 72
	move	$a0, $fp
	jirl	$ra, $a1, 0
	beqz	$a0, .LBB53_45
# %bb.21:                               # %if.then220
	ld.d	$a0, $fp, 0
	ld.d	$a1, $a0, 72
	move	$a0, $fp
	jirl	$ra, $a1, 0
	ld.d	$a1, $a0, 0
	ld.d	$a1, $a1, 24
	jirl	$ra, $a1, 0
	move	$a1, $a0
	ori	$a2, $zero, 3
	ori	$a0, $zero, 40
	bne	$a1, $a2, .LBB53_23
# %bb.22:                               # %lor.lhs.false228
	ld.d	$a0, $fp, 0
	ld.d	$a1, $a0, 72
	move	$a0, $fp
	jirl	$ra, $a1, 0
	ld.d	$a1, $a0, 0
	ld.d	$a1, $a1, 40
	jirl	$ra, $a1, 0
	sltui	$a0, $a0, 1
	ori	$a1, $zero, 40
	masknez	$a1, $a1, $a0
	ori	$a2, $zero, 32
	maskeqz	$a0, $a2, $a0
	or	$a0, $a0, $a1
.LBB53_23:                              # %if.end240
	pcaddu18i	$ra, %call36(putchar)
	jirl	$ra, $ra, 0
	ld.d	$a0, $fp, 0
	ld.d	$a1, $a0, 72
	move	$a0, $fp
	jirl	$ra, $a1, 0
	beqz	$a0, .LBB53_25
# %bb.24:                               # %if.then245
	ld.d	$a0, $fp, 0
	ld.d	$a1, $a0, 72
	move	$a0, $fp
	jirl	$ra, $a1, 0
	ld.d	$a1, $a0, 0
	ld.d	$a3, $a1, 112
	move	$a1, $s1
	move	$a2, $s0
	jirl	$ra, $a3, 0
	b	.LBB53_26
.LBB53_25:                              # %if.else251
	pcalau12i	$a0, %pc_hi20(.L.str.23)
	addi.d	$a0, $a0, %pc_lo12(.L.str.23)
	pcaddu18i	$ra, %call36(printf)
	jirl	$ra, $ra, 0
.LBB53_26:                              # %if.end253
	ld.d	$a0, $fp, 0
	ld.d	$a1, $a0, 72
	move	$a0, $fp
	jirl	$ra, $a1, 0
	ld.d	$a1, $a0, 0
	ld.d	$a1, $a1, 24
	jirl	$ra, $a1, 0
	ori	$a1, $zero, 3
	bne	$a0, $a1, .LBB53_28
# %bb.27:                               # %lor.lhs.false261
	ld.d	$a0, $fp, 0
	ld.d	$a1, $a0, 72
	move	$a0, $fp
	jirl	$ra, $a1, 0
	ld.d	$a1, $a0, 0
	ld.d	$a1, $a1, 40
	jirl	$ra, $a1, 0
	beqz	$a0, .LBB53_52
.LBB53_28:                              # %if.then152
	ori	$a0, $zero, 41
	ld.d	$s4, $sp, 8                     # 8-byte Folded Reload
	ld.d	$s3, $sp, 16                    # 8-byte Folded Reload
	ld.d	$s2, $sp, 24                    # 8-byte Folded Reload
	ld.d	$s1, $sp, 32                    # 8-byte Folded Reload
	ld.d	$s0, $sp, 40                    # 8-byte Folded Reload
	ld.d	$fp, $sp, 48                    # 8-byte Folded Reload
	ld.d	$ra, $sp, 56                    # 8-byte Folded Reload
	addi.d	$sp, $sp, 64
	pcaddu18i	$t8, %call36(putchar)
	jr	$t8
.LBB53_29:
	move	$s3, $zero
.LBB53_30:                              # %if.end30
	ld.d	$a0, $fp, 0
	ld.d	$a1, $a0, 64
	move	$a0, $fp
	jirl	$ra, $a1, 0
	ld.d	$a1, $a0, 0
	ld.d	$a1, $a1, 24
	jirl	$ra, $a1, 0
	ori	$a1, $zero, 5
	bne	$a0, $a1, .LBB53_34
# %bb.31:                               # %land.lhs.true
	ld.d	$a0, $fp, 0
	ld.d	$a1, $a0, 64
	move	$a0, $fp
	jirl	$ra, $a1, 0
	ld.d	$a1, $a0, 0
	ld.d	$a1, $a1, 72
	jirl	$ra, $a1, 0
	beqz	$a0, .LBB53_34
# %bb.32:                               # %if.then45
	bnez	$s2, .LBB53_54
# %bb.33:
	move	$s4, $zero
	b	.LBB53_55
.LBB53_34:
	move	$s4, $zero
	bnez	$s3, .LBB53_36
.LBB53_35:                              # %if.then77
	ori	$a0, $zero, 40
	pcaddu18i	$ra, %call36(putchar)
	jirl	$ra, $ra, 0
.LBB53_36:                              # %if.end79
	ld.d	$a0, $fp, 0
	ld.d	$a1, $a0, 64
	move	$a0, $fp
	jirl	$ra, $a1, 0
	beqz	$a0, .LBB53_39
# %bb.37:                               # %if.then84
	ld.d	$a0, $fp, 0
	ld.d	$a1, $a0, 64
	move	$a0, $fp
	jirl	$ra, $a1, 0
	ld.d	$a1, $a0, 0
	ld.d	$a3, $a1, 112
	move	$a1, $s1
	move	$a2, $s0
	jirl	$ra, $a3, 0
	beqz	$s3, .LBB53_40
.LBB53_38:
	move	$s3, $zero
	b	.LBB53_42
.LBB53_39:                              # %if.else
	pcalau12i	$a0, %pc_hi20(.L.str.23)
	addi.d	$a0, $a0, %pc_lo12(.L.str.23)
	pcaddu18i	$ra, %call36(printf)
	jirl	$ra, $ra, 0
	bnez	$s3, .LBB53_38
.LBB53_40:                              # %if.then93
	ori	$a0, $zero, 41
	pcaddu18i	$ra, %call36(putchar)
	jirl	$ra, $ra, 0
.LBB53_41:                              # %if.end98
	ori	$s3, $zero, 1
.LBB53_42:                              # %if.end98
	ld.d	$a0, $fp, 0
	ld.d	$a1, $a0, 72
	move	$a0, $fp
	jirl	$ra, $a1, 0
	beqz	$a0, .LBB53_45
# %bb.43:                               # %if.then103
	bnez	$s2, .LBB53_46
# %bb.44:
	move	$s2, $zero
	b	.LBB53_47
.LBB53_45:                              # %if.else155
	pcalau12i	$a0, %pc_hi20(.L.str.25)
	addi.d	$a0, $a0, %pc_lo12(.L.str.25)
	ld.d	$s4, $sp, 8                     # 8-byte Folded Reload
	ld.d	$s3, $sp, 16                    # 8-byte Folded Reload
	ld.d	$s2, $sp, 24                    # 8-byte Folded Reload
	ld.d	$s1, $sp, 32                    # 8-byte Folded Reload
	ld.d	$s0, $sp, 40                    # 8-byte Folded Reload
	ld.d	$fp, $sp, 48                    # 8-byte Folded Reload
	ld.d	$ra, $sp, 56                    # 8-byte Folded Reload
	addi.d	$sp, $sp, 64
	pcaddu18i	$t8, %call36(printf)
	jr	$t8
.LBB53_46:                              # %if.then106
	ld.d	$a0, $fp, 0
	ld.d	$a1, $a0, 72
	move	$a0, $fp
	jirl	$ra, $a1, 0
	ld.d	$a1, $a0, 0
	ld.d	$a2, $a1, 192
	move	$a1, $s1
	jirl	$ra, $a2, 0
	sltu	$s2, $zero, $a0
.LBB53_47:                              # %if.end115
	ld.d	$a0, $fp, 0
	ld.d	$a1, $a0, 72
	move	$a0, $fp
	jirl	$ra, $a1, 0
	ld.d	$a1, $a0, 0
	ld.d	$a1, $a1, 24
	jirl	$ra, $a1, 0
	addi.d	$a0, $a0, -3
	sltui	$a0, $a0, 1
	or	$s2, $s2, $a0
	ori	$a1, $zero, 1
	ori	$a0, $zero, 40
	bne	$s2, $a1, .LBB53_49
# %bb.48:                               # %if.else130
	or	$a1, $s3, $s4
	ori	$a0, $zero, 32
	bnez	$a1, .LBB53_50
.LBB53_49:                              # %if.end137.sink.split
	pcaddu18i	$ra, %call36(putchar)
	jirl	$ra, $ra, 0
.LBB53_50:                              # %if.end137
	ld.d	$a0, $fp, 0
	ld.d	$a1, $a0, 72
	move	$a0, $fp
	jirl	$ra, $a1, 0
	beqz	$a0, .LBB53_53
# %bb.51:                               # %if.then142
	ld.d	$a0, $fp, 0
	ld.d	$a1, $a0, 72
	move	$a0, $fp
	jirl	$ra, $a1, 0
	ld.d	$a1, $a0, 0
	ld.d	$a3, $a1, 112
	move	$a1, $s1
	move	$a2, $s0
	jirl	$ra, $a3, 0
	beqz	$s2, .LBB53_28
.LBB53_52:                              # %if.end275
	ld.d	$s4, $sp, 8                     # 8-byte Folded Reload
	ld.d	$s3, $sp, 16                    # 8-byte Folded Reload
	ld.d	$s2, $sp, 24                    # 8-byte Folded Reload
	ld.d	$s1, $sp, 32                    # 8-byte Folded Reload
	ld.d	$s0, $sp, 40                    # 8-byte Folded Reload
	ld.d	$fp, $sp, 48                    # 8-byte Folded Reload
	ld.d	$ra, $sp, 56                    # 8-byte Folded Reload
	addi.d	$sp, $sp, 64
	ret
.LBB53_53:                              # %if.else148
	pcalau12i	$a0, %pc_hi20(.L.str.23)
	addi.d	$a0, $a0, %pc_lo12(.L.str.23)
	pcaddu18i	$ra, %call36(printf)
	jirl	$ra, $ra, 0
	beqz	$s2, .LBB53_28
	b	.LBB53_52
.LBB53_54:                              # %if.then48
	ld.d	$a0, $fp, 0
	ld.d	$a1, $a0, 64
	move	$a0, $fp
	jirl	$ra, $a1, 0
	ld.d	$a1, $a0, 0
	ld.d	$a1, $a1, 72
	jirl	$ra, $a1, 0
	ld.d	$a1, $a0, 0
	ld.d	$a2, $a1, 192
	move	$a1, $s1
	jirl	$ra, $a2, 0
	sltu	$s4, $zero, $a0
.LBB53_55:                              # %if.end60
	ld.d	$a0, $fp, 0
	ld.d	$a1, $a0, 64
	move	$a0, $fp
	jirl	$ra, $a1, 0
	ld.d	$a1, $a0, 0
	ld.d	$a1, $a1, 72
	jirl	$ra, $a1, 0
	ld.d	$a1, $a0, 0
	ld.d	$a1, $a1, 24
	jirl	$ra, $a1, 0
	addi.d	$a0, $a0, -3
	sltu	$a0, $zero, $a0
	andn	$s4, $a0, $s4
	bnez	$s3, .LBB53_36
	b	.LBB53_35
.Lfunc_end53:
	.size	_ZNK8app_node5printEPK9alst_nodei, .Lfunc_end53-_ZNK8app_node5printEPK9alst_nodei
	.cfi_endproc
                                        # -- End function
	.globl	_ZN8app_nodeaSERKS_             # -- Begin function _ZN8app_nodeaSERKS_
	.p2align	2
	.type	_ZN8app_nodeaSERKS_,@function
_ZN8app_nodeaSERKS_:                    # @_ZN8app_nodeaSERKS_
	.cfi_startproc
# %bb.0:                                # %entry
	addi.d	$sp, $sp, -32
	.cfi_def_cfa_offset 32
	st.d	$ra, $sp, 24                    # 8-byte Folded Spill
	st.d	$fp, $sp, 16                    # 8-byte Folded Spill
	st.d	$s0, $sp, 8                     # 8-byte Folded Spill
	.cfi_offset 1, -8
	.cfi_offset 22, -16
	.cfi_offset 23, -24
	move	$fp, $a0
	beq	$a0, $a1, .LBB54_10
# %bb.1:                                # %if.then
	move	$s0, $a1
	ld.d	$a0, $fp, 0
	ld.d	$a1, $a0, 8
	move	$a0, $fp
	jirl	$ra, $a1, 0
	ld.d	$a0, $s0, 16
	beqz	$a0, .LBB54_7
# %bb.2:                                # %if.end
	ld.d	$a1, $a0, 0
	ld.d	$a1, $a1, 0
	jirl	$ra, $a1, 0
	st.d	$a0, $fp, 16
	beqz	$a0, .LBB54_4
# %bb.3:                                # %if.then10
	ld.d	$a1, $a0, 0
	ld.d	$a2, $a1, 96
	move	$a1, $fp
	jirl	$ra, $a2, 0
.LBB54_4:                               # %if.end14
	ld.d	$a0, $s0, 24
	beqz	$a0, .LBB54_8
.LBB54_5:                               # %if.end24
	ld.d	$a1, $a0, 0
	ld.d	$a1, $a1, 0
	jirl	$ra, $a1, 0
	st.d	$a0, $fp, 24
	beqz	$a0, .LBB54_9
# %bb.6:                                # %if.then27
	ld.d	$a1, $a0, 0
	ld.d	$a2, $a1, 96
	move	$a1, $fp
	jirl	$ra, $a2, 0
	b	.LBB54_9
.LBB54_7:                               # %if.end.thread
	st.d	$zero, $fp, 16
	ld.d	$a0, $s0, 24
	bnez	$a0, .LBB54_5
.LBB54_8:                               # %if.end24.thread
	st.d	$zero, $fp, 24
.LBB54_9:                               # %if.end31
	ld.d	$a0, $s0, 8
	st.d	$a0, $fp, 8
.LBB54_10:                              # %if.end33
	move	$a0, $fp
	ld.d	$s0, $sp, 8                     # 8-byte Folded Reload
	ld.d	$fp, $sp, 16                    # 8-byte Folded Reload
	ld.d	$ra, $sp, 24                    # 8-byte Folded Reload
	addi.d	$sp, $sp, 32
	ret
.Lfunc_end54:
	.size	_ZN8app_nodeaSERKS_, .Lfunc_end54-_ZN8app_nodeaSERKS_
	.cfi_endproc
                                        # -- End function
	.globl	_ZN8app_node6renameEP8arg_nodePKcP9alst_node # -- Begin function _ZN8app_node6renameEP8arg_nodePKcP9alst_node
	.p2align	2
	.type	_ZN8app_node6renameEP8arg_nodePKcP9alst_node,@function
_ZN8app_node6renameEP8arg_nodePKcP9alst_node: # @_ZN8app_node6renameEP8arg_nodePKcP9alst_node
	.cfi_startproc
# %bb.0:                                # %entry
	addi.d	$sp, $sp, -48
	.cfi_def_cfa_offset 48
	st.d	$ra, $sp, 40                    # 8-byte Folded Spill
	st.d	$fp, $sp, 32                    # 8-byte Folded Spill
	st.d	$s0, $sp, 24                    # 8-byte Folded Spill
	st.d	$s1, $sp, 16                    # 8-byte Folded Spill
	st.d	$s2, $sp, 8                     # 8-byte Folded Spill
	.cfi_offset 1, -8
	.cfi_offset 22, -16
	.cfi_offset 23, -24
	.cfi_offset 24, -32
	.cfi_offset 25, -40
	move	$s2, $a0
	ld.d	$a0, $a0, 16
	move	$fp, $a3
	move	$s0, $a2
	move	$s1, $a1
	beqz	$a0, .LBB55_2
# %bb.1:                                # %if.then
	ld.d	$a1, $a0, 0
	ld.d	$a4, $a1, 144
	move	$a1, $s1
	move	$a2, $s0
	move	$a3, $fp
	jirl	$ra, $a4, 0
.LBB55_2:                               # %if.end
	ld.d	$a0, $s2, 24
	beqz	$a0, .LBB55_4
# %bb.3:                                # %if.then4
	ld.d	$a1, $a0, 0
	ld.d	$a4, $a1, 144
	move	$a1, $s1
	move	$a2, $s0
	move	$a3, $fp
	ld.d	$s2, $sp, 8                     # 8-byte Folded Reload
	ld.d	$s1, $sp, 16                    # 8-byte Folded Reload
	ld.d	$s0, $sp, 24                    # 8-byte Folded Reload
	ld.d	$fp, $sp, 32                    # 8-byte Folded Reload
	ld.d	$ra, $sp, 40                    # 8-byte Folded Reload
	addi.d	$sp, $sp, 48
	jr	$a4
.LBB55_4:                               # %if.end8
	ld.d	$s2, $sp, 8                     # 8-byte Folded Reload
	ld.d	$s1, $sp, 16                    # 8-byte Folded Reload
	ld.d	$s0, $sp, 24                    # 8-byte Folded Reload
	ld.d	$fp, $sp, 32                    # 8-byte Folded Reload
	ld.d	$ra, $sp, 40                    # 8-byte Folded Reload
	addi.d	$sp, $sp, 48
	ret
.Lfunc_end55:
	.size	_ZN8app_node6renameEP8arg_nodePKcP9alst_node, .Lfunc_end55-_ZN8app_node6renameEP8arg_nodePKcP9alst_node
	.cfi_endproc
                                        # -- End function
	.globl	_ZN8app_node18resolve_name_clashEP8arg_nodeP9alst_node # -- Begin function _ZN8app_node18resolve_name_clashEP8arg_nodeP9alst_node
	.p2align	2
	.type	_ZN8app_node18resolve_name_clashEP8arg_nodeP9alst_node,@function
_ZN8app_node18resolve_name_clashEP8arg_nodeP9alst_node: # @_ZN8app_node18resolve_name_clashEP8arg_nodeP9alst_node
	.cfi_startproc
# %bb.0:                                # %entry
	addi.d	$sp, $sp, -32
	.cfi_def_cfa_offset 32
	st.d	$ra, $sp, 24                    # 8-byte Folded Spill
	st.d	$fp, $sp, 16                    # 8-byte Folded Spill
	st.d	$s0, $sp, 8                     # 8-byte Folded Spill
	st.d	$s1, $sp, 0                     # 8-byte Folded Spill
	.cfi_offset 1, -8
	.cfi_offset 22, -16
	.cfi_offset 23, -24
	.cfi_offset 24, -32
	move	$s1, $a0
	ld.d	$a0, $a0, 16
	move	$fp, $a2
	move	$s0, $a1
	beqz	$a0, .LBB56_2
# %bb.1:                                # %if.then
	ld.d	$a1, $a0, 0
	ld.d	$a3, $a1, 152
	move	$a1, $s0
	move	$a2, $fp
	jirl	$ra, $a3, 0
.LBB56_2:                               # %if.end
	ld.d	$a0, $s1, 24
	beqz	$a0, .LBB56_4
# %bb.3:                                # %if.then4
	ld.d	$a1, $a0, 0
	ld.d	$a3, $a1, 152
	move	$a1, $s0
	move	$a2, $fp
	ld.d	$s1, $sp, 0                     # 8-byte Folded Reload
	ld.d	$s0, $sp, 8                     # 8-byte Folded Reload
	ld.d	$fp, $sp, 16                    # 8-byte Folded Reload
	ld.d	$ra, $sp, 24                    # 8-byte Folded Reload
	addi.d	$sp, $sp, 32
	jr	$a3
.LBB56_4:                               # %if.end8
	ld.d	$s1, $sp, 0                     # 8-byte Folded Reload
	ld.d	$s0, $sp, 8                     # 8-byte Folded Reload
	ld.d	$fp, $sp, 16                    # 8-byte Folded Reload
	ld.d	$ra, $sp, 24                    # 8-byte Folded Reload
	addi.d	$sp, $sp, 32
	ret
.Lfunc_end56:
	.size	_ZN8app_node18resolve_name_clashEP8arg_nodeP9alst_node, .Lfunc_end56-_ZN8app_node18resolve_name_clashEP8arg_nodeP9alst_node
	.cfi_endproc
                                        # -- End function
	.globl	_ZN8app_node6reduceEPK9alst_nodeiPi # -- Begin function _ZN8app_node6reduceEPK9alst_nodeiPi
	.p2align	2
	.type	_ZN8app_node6reduceEPK9alst_nodeiPi,@function
_ZN8app_node6reduceEPK9alst_nodeiPi:    # @_ZN8app_node6reduceEPK9alst_nodeiPi
	.cfi_startproc
# %bb.0:                                # %entry
	addi.d	$sp, $sp, -112
	.cfi_def_cfa_offset 112
	st.d	$ra, $sp, 104                   # 8-byte Folded Spill
	st.d	$fp, $sp, 96                    # 8-byte Folded Spill
	st.d	$s0, $sp, 88                    # 8-byte Folded Spill
	st.d	$s1, $sp, 80                    # 8-byte Folded Spill
	st.d	$s2, $sp, 72                    # 8-byte Folded Spill
	st.d	$s3, $sp, 64                    # 8-byte Folded Spill
	st.d	$s4, $sp, 56                    # 8-byte Folded Spill
	st.d	$s5, $sp, 48                    # 8-byte Folded Spill
	.cfi_offset 1, -8
	.cfi_offset 22, -16
	.cfi_offset 23, -24
	.cfi_offset 24, -32
	.cfi_offset 25, -40
	.cfi_offset 26, -48
	.cfi_offset 27, -56
	.cfi_offset 28, -64
	pcalau12i	$s5, %pc_hi20(_ZL24app_reduce_recurse_level)
	ld.w	$a4, $s5, %pc_lo12(_ZL24app_reduce_recurse_level)
	move	$s0, $a3
	move	$s2, $a1
	move	$fp, $a0
	addi.w	$a1, $a4, 1
	ori	$a0, $zero, 4000
	st.w	$a1, $s5, %pc_lo12(_ZL24app_reduce_recurse_level)
	blt	$a4, $a0, .LBB57_3
# %bb.1:                                # %if.then
	pcalau12i	$a0, %pc_hi20(.L.str.27)
	addi.d	$a0, $a0, %pc_lo12(.L.str.27)
	pcaddu18i	$ra, %call36(printf)
	jirl	$ra, $ra, 0
	ld.w	$a0, $s5, %pc_lo12(_ZL24app_reduce_recurse_level)
	addi.d	$a0, $a0, -1
	st.w	$a0, $s5, %pc_lo12(_ZL24app_reduce_recurse_level)
	beqz	$s0, .LBB57_83
# %bb.2:                                # %if.then2
	ld.w	$a0, $s0, 0
	ori	$a0, $a0, 1
	st.w	$a0, $s0, 0
	b	.LBB57_83
.LBB57_3:                               # %if.end3
	move	$s1, $a2
	ld.d	$a0, $fp, 16
	beqz	$a0, .LBB57_58
# %bb.4:                                # %if.then5
	ld.d	$a1, $a0, 0
	ld.d	$a2, $a1, 96
	move	$s3, $s1
	bstrins.d	$s3, $zero, 2, 2
	move	$a1, $fp
	jirl	$ra, $a2, 0
	ld.d	$a0, $fp, 16
	ld.d	$a1, $a0, 0
	ld.d	$a4, $a1, 104
	move	$a1, $s2
	move	$a2, $s3
	move	$a3, $s0
	jirl	$ra, $a4, 0
	ld.d	$a1, $fp, 16
	beq	$a1, $a0, .LBB57_9
# %bb.5:                                # %if.end.i
	beqz	$a1, .LBB57_7
# %bb.6:                                # %delete.notnull.i
	ld.d	$a2, $a1, 0
	ld.d	$a2, $a2, 16
	move	$s4, $a0
	move	$a0, $a1
	jirl	$ra, $a2, 0
	move	$a0, $s4
.LBB57_7:                               # %if.end5.i
	st.d	$a0, $fp, 16
	beqz	$a0, .LBB57_9
# %bb.8:                                # %if.then20.i
	ld.d	$a1, $a0, 0
	ld.d	$a2, $a1, 96
	move	$a1, $fp
	jirl	$ra, $a2, 0
.LBB57_9:                               # %_ZN8app_node8set_leftEP8exp_nodes.exit
	beqz	$s0, .LBB57_13
# %bb.10:                               # %land.lhs.true
	ld.wu	$a0, $s0, 0
	andi	$a1, $a0, 1
	bnez	$a1, .LBB57_82
# %bb.11:                               # %if.end16
	andi	$a1, $s1, 1
	beqz	$a1, .LBB57_13
# %bb.12:                               # %if.end16
	andi	$a0, $a0, 2
	bnez	$a0, .LBB57_82
.LBB57_13:                              # %if.end28
	ld.d	$a0, $fp, 16
	beqz	$a0, .LBB57_58
# %bb.14:                               # %land.lhs.true31
	ld.d	$a1, $a0, 0
	ld.d	$a1, $a1, 24
	jirl	$ra, $a1, 0
	ori	$a1, $zero, 5
	bne	$a0, $a1, .LBB57_31
# %bb.15:                               # %if.then37
	ld.d	$a0, $fp, 16
	ld.d	$a1, $a0, 0
	ld.d	$a2, $a1, 96
	move	$a1, $fp
	jirl	$ra, $a2, 0
	ld.d	$a0, $fp, 16
	beqz	$a0, .LBB57_21
# %bb.16:                               # %if.end51
	ld.d	$a1, $a0, 0
	ld.d	$a4, $a1, 104
	move	$a1, $s2
	move	$a2, $s3
	move	$a3, $s0
	jirl	$ra, $a4, 0
	ld.d	$a1, $fp, 16
	beq	$a1, $a0, .LBB57_21
# %bb.17:                               # %if.end.i86
	beqz	$a1, .LBB57_19
# %bb.18:                               # %delete.notnull.i88
	ld.d	$a2, $a1, 0
	ld.d	$a2, $a2, 16
	move	$s4, $a0
	move	$a0, $a1
	jirl	$ra, $a2, 0
	move	$a0, $s4
.LBB57_19:                              # %if.end5.i91
	st.d	$a0, $fp, 16
	beqz	$a0, .LBB57_21
# %bb.20:                               # %if.then20.i93
	ld.d	$a1, $a0, 0
	ld.d	$a2, $a1, 96
	move	$a1, $fp
	jirl	$ra, $a2, 0
.LBB57_21:                              # %_ZN8app_node8set_leftEP8exp_nodes.exit96
	beqz	$s0, .LBB57_25
# %bb.22:                               # %land.lhs.true53
	ld.wu	$a0, $s0, 0
	andi	$a1, $a0, 1
	bnez	$a1, .LBB57_82
# %bb.23:                               # %if.end58
	andi	$a1, $s1, 1
	beqz	$a1, .LBB57_25
# %bb.24:                               # %if.end58
	andi	$a0, $a0, 2
	bnez	$a0, .LBB57_82
.LBB57_25:                              # %if.end68
	ld.d	$a0, $fp, 24
	beqz	$a0, .LBB57_31
# %bb.26:                               # %if.then70
	ld.d	$a1, $a0, 0
	ld.d	$a2, $a1, 96
	move	$a1, $fp
	jirl	$ra, $a2, 0
	ld.d	$a0, $fp, 24
	ld.d	$a1, $a0, 0
	ld.d	$a4, $a1, 136
	move	$a1, $s2
	move	$a2, $s1
	move	$a3, $s0
	jirl	$ra, $a4, 0
	ld.d	$a1, $fp, 24
	beq	$a1, $a0, .LBB57_31
# %bb.27:                               # %if.end.i98
	beqz	$a1, .LBB57_29
# %bb.28:                               # %delete.notnull.i100
	ld.d	$a2, $a1, 0
	ld.d	$a2, $a2, 16
	move	$s4, $a0
	move	$a0, $a1
	jirl	$ra, $a2, 0
	move	$a0, $s4
.LBB57_29:                              # %if.end5.i103
	st.d	$a0, $fp, 24
	beqz	$a0, .LBB57_31
# %bb.30:                               # %if.then20.i105
	ld.d	$a1, $a0, 0
	ld.d	$a2, $a1, 96
	move	$a1, $fp
	jirl	$ra, $a2, 0
.LBB57_31:                              # %if.end83
	ld.d	$a0, $fp, 16
	beqz	$a0, .LBB57_58
# %bb.32:                               # %land.lhs.true86
	ld.d	$a1, $a0, 0
	ld.d	$a1, $a1, 24
	jirl	$ra, $a1, 0
	ori	$a1, $zero, 4
	bne	$a0, $a1, .LBB57_58
# %bb.33:                               # %if.then92
	ld.d	$a0, $fp, 16
	ld.d	$a1, $a0, 0
	ld.d	$a1, $a1, 48
	jirl	$ra, $a1, 0
	move	$s4, $s1
	beqz	$a0, .LBB57_38
# %bb.34:                               # %land.lhs.true98
	ld.d	$a0, $fp, 16
	ld.d	$a1, $a0, 0
	ld.d	$a1, $a1, 48
	jirl	$ra, $a1, 0
	move	$s4, $s1
	beqz	$a0, .LBB57_38
# %bb.35:                               # %land.lhs.true104
	ld.d	$a0, $fp, 16
	ld.d	$a1, $a0, 0
	ld.d	$a1, $a1, 48
	jirl	$ra, $a1, 0
	ld.d	$a1, $a0, 0
	ld.d	$a1, $a1, 32
	jirl	$ra, $a1, 0
	move	$s4, $s1
	beqz	$a0, .LBB57_38
# %bb.36:                               # %if.then113
	ld.d	$a0, $fp, 16
	ld.d	$a1, $a0, 0
	ld.d	$a1, $a1, 48
	jirl	$ra, $a1, 0
	ld.d	$a1, $a0, 0
	ld.d	$a1, $a1, 32
	jirl	$ra, $a1, 0
	ld.bu	$a0, $a0, 0
	ori	$a1, $zero, 64
	ori	$s4, $zero, 2
	beq	$a0, $a1, .LBB57_38
# %bb.37:                               # %if.else
	ld.d	$a0, $fp, 16
	ld.d	$a1, $a0, 0
	ld.d	$a1, $a1, 48
	jirl	$ra, $a1, 0
	ld.d	$a1, $a0, 0
	ld.d	$a1, $a1, 32
	jirl	$ra, $a1, 0
	ld.bu	$a0, $a0, 0
	addi.d	$a0, $a0, -35
	sltui	$a0, $a0, 1
	masknez	$s4, $s1, $a0
.LBB57_38:                              # %if.end138
	ld.d	$a0, $fp, 24
	beqz	$a0, .LBB57_47
# %bb.39:                               # %if.then141
	ld.d	$a1, $a0, 0
	ld.d	$a2, $a1, 96
	move	$a1, $fp
	jirl	$ra, $a2, 0
	andi	$a0, $s4, 2
	bnez	$a0, .LBB57_70
.LBB57_40:                              # %if.else196
	ld.d	$a0, $fp, 24
	ld.d	$a1, $a0, 0
	ld.d	$a4, $a1, 136
	move	$a1, $s2
	move	$a2, $s1
	move	$a3, $s0
	jirl	$ra, $a4, 0
	ld.d	$a1, $fp, 24
	beq	$a1, $a0, .LBB57_45
# %bb.41:                               # %if.end.i124
	beqz	$a1, .LBB57_43
# %bb.42:                               # %delete.notnull.i126
	ld.d	$a2, $a1, 0
	ld.d	$a2, $a2, 16
	move	$s3, $a0
	move	$a0, $a1
	jirl	$ra, $a2, 0
	move	$a0, $s3
.LBB57_43:                              # %if.end5.i129
	st.d	$a0, $fp, 24
	beqz	$a0, .LBB57_45
# %bb.44:                               # %if.then20.i131
	ld.d	$a1, $a0, 0
	ld.d	$a2, $a1, 96
	move	$a1, $fp
	jirl	$ra, $a2, 0
.LBB57_45:                              # %_ZN8app_node9set_rightEP8exp_nodes.exit134
	beqz	$s0, .LBB57_47
# %bb.46:                               # %land.lhs.true202
	ld.bu	$a0, $s0, 0
	andi	$a0, $a0, 1
	bnez	$a0, .LBB57_82
.LBB57_47:                              # %if.end212
	ld.d	$a0, $fp, 16
	ld.d	$a1, $a0, 0
	ld.d	$a1, $a1, 48
	jirl	$ra, $a1, 0
	move	$s3, $a0
	ld.d	$a0, $a0, 24
	beqz	$a0, .LBB57_49
# %bb.48:                               # %delete.notnull.i136
	ld.d	$a1, $a0, 0
	ld.d	$a1, $a1, 16
	jirl	$ra, $a1, 0
.LBB57_49:                              # %if.end.i139
	ld.d	$a0, $fp, 24
	st.d	$a0, $s3, 24
	st.d	$zero, $fp, 24
	ld.d	$a0, $s3, 24
	beqz	$a0, .LBB57_51
# %bb.50:                               # %if.then10.i
	ld.d	$a1, $a0, 0
	ld.d	$a2, $a1, 96
	move	$a1, $s3
	jirl	$ra, $a2, 0
.LBB57_51:                              # %_ZN8arg_node12import_valueEPP8exp_node.exit
	ld.d	$a0, $fp, 16
	ld.d	$a1, $a0, 0
	st.d	$zero, $fp, 24
	ld.d	$a2, $a1, 96
	move	$a1, $fp
	jirl	$ra, $a2, 0
	ld.d	$a0, $fp, 16
	ld.d	$a1, $a0, 0
	ld.d	$a4, $a1, 104
	move	$a1, $s2
	move	$a2, $s1
	move	$a3, $s0
	jirl	$ra, $a4, 0
	ld.d	$a1, $fp, 16
	move	$s1, $a0
	beqz	$a1, .LBB57_54
# %bb.52:                               # %_ZN8arg_node12import_valueEPP8exp_node.exit
	beq	$a1, $s1, .LBB57_54
# %bb.53:                               # %delete.notnull
	ld.d	$a0, $a1, 0
	ld.d	$a2, $a0, 16
	move	$a0, $a1
	jirl	$ra, $a2, 0
.LBB57_54:                              # %if.end235
	st.d	$zero, $fp, 16
	beqz	$s1, .LBB57_56
# %bb.55:                               # %if.then238
	ld.d	$a0, $s1, 0
	ld.d	$a2, $a0, 96
	move	$a0, $s1
	move	$a1, $fp
	jirl	$ra, $a2, 0
.LBB57_56:                              # %if.end241
	beqz	$s0, .LBB57_69
# %bb.57:                               # %if.then243
	ld.w	$a0, $s0, 0
	ori	$a0, $a0, 2
	st.w	$a0, $s0, 0
	b	.LBB57_69
.LBB57_58:                              # %if.else249
	ld.d	$a0, $fp, 24
	beqz	$a0, .LBB57_68
# %bb.59:                               # %if.then252
	ld.d	$a1, $a0, 0
	ld.d	$a2, $a1, 96
	move	$a1, $fp
	jirl	$ra, $a2, 0
	ld.d	$a0, $fp, 24
	ld.d	$a1, $a0, 0
	ld.d	$a4, $a1, 136
	move	$a1, $s2
	move	$a2, $s1
	move	$a3, $s0
	jirl	$ra, $a4, 0
	ld.d	$a1, $fp, 24
	move	$s3, $a0
	move	$a0, $a1
	beq	$a1, $s3, .LBB57_63
# %bb.60:                               # %if.end.i142
	beqz	$a0, .LBB57_62
# %bb.61:                               # %delete.notnull.i144
	ld.d	$a1, $a0, 0
	ld.d	$a1, $a1, 16
	jirl	$ra, $a1, 0
.LBB57_62:                              # %if.end5.i147
	ld.d	$a0, $s3, 0
	st.d	$s3, $fp, 24
	ld.d	$a2, $a0, 96
	move	$a0, $s3
	move	$a1, $fp
	jirl	$ra, $a2, 0
	ld.d	$a0, $fp, 24
.LBB57_63:                              # %_ZN8app_node9set_rightEP8exp_nodes.exit152
	ld.d	$a1, $a0, 0
	ld.d	$a4, $a1, 104
	move	$a1, $s2
	move	$a2, $s1
	move	$a3, $s0
	jirl	$ra, $a4, 0
	ld.d	$a1, $fp, 24
	beq	$a1, $a0, .LBB57_68
# %bb.64:                               # %if.end.i155
	beqz	$a1, .LBB57_66
# %bb.65:                               # %delete.notnull.i157
	ld.d	$a2, $a1, 0
	ld.d	$a2, $a2, 16
	move	$s0, $a0
	move	$a0, $a1
	jirl	$ra, $a2, 0
	move	$a0, $s0
.LBB57_66:                              # %if.end5.i160
	st.d	$a0, $fp, 24
	beqz	$a0, .LBB57_68
# %bb.67:                               # %if.then20.i162
	ld.d	$a1, $a0, 0
	ld.d	$a2, $a1, 96
	move	$a1, $fp
	jirl	$ra, $a2, 0
.LBB57_68:                              # %if.end265
	move	$s1, $fp
.LBB57_69:                              # %if.end265
	ld.w	$a0, $s5, %pc_lo12(_ZL24app_reduce_recurse_level)
	addi.d	$a0, $a0, -1
	st.w	$a0, $s5, %pc_lo12(_ZL24app_reduce_recurse_level)
	move	$fp, $s1
	b	.LBB57_83
.LBB57_70:                              # %if.then147
	ld.d	$a0, $fp, 16
	ld.d	$a1, $a0, 0
	ld.d	$a1, $a1, 48
	jirl	$ra, $a1, 0
	ld.d	$a1, $fp, 16
	ld.d	$a2, $a1, 0
	ld.d	$a2, $a2, 56
	move	$s4, $a0
	move	$a0, $a1
	jirl	$ra, $a2, 0
	st.d	$zero, $sp, 24
	pcalau12i	$a1, %pc_hi20(_ZTV11stack_frame+16)
	addi.d	$a1, $a1, %pc_lo12(_ZTV11stack_frame+16)
	st.d	$a1, $sp, 16
	st.d	$s4, $sp, 32
	st.d	$s2, $sp, 40
	beqz	$s4, .LBB57_40
# %bb.71:                               # %if.then147
	beqz	$a0, .LBB57_40
# %bb.72:                               # %land.rhs
	ld.d	$a1, $a0, 0
	ld.d	$a3, $a1, 120
	addi.d	$a2, $sp, 16
	move	$a1, $s4
	jirl	$ra, $a3, 0
	beqz	$a0, .LBB57_40
# %bb.73:                               # %if.then169
	ld.d	$a0, $fp, 24
	ld.d	$a1, $a0, 0
	ld.d	$a4, $a1, 104
	move	$a1, $s2
	move	$a2, $s3
	move	$a3, $s0
	jirl	$ra, $a4, 0
	ld.d	$a1, $fp, 24
	beq	$a1, $a0, .LBB57_78
# %bb.74:                               # %if.end.i111
	beqz	$a1, .LBB57_76
# %bb.75:                               # %delete.notnull.i113
	ld.d	$a2, $a1, 0
	ld.d	$a2, $a2, 16
	move	$s3, $a0
	move	$a0, $a1
	jirl	$ra, $a2, 0
	move	$a0, $s3
.LBB57_76:                              # %if.end5.i116
	st.d	$a0, $fp, 24
	beqz	$a0, .LBB57_78
# %bb.77:                               # %if.then20.i118
	ld.d	$a1, $a0, 0
	ld.d	$a2, $a1, 96
	move	$a1, $fp
	jirl	$ra, $a2, 0
.LBB57_78:                              # %_ZN8app_node9set_rightEP8exp_nodes.exit121
	beqz	$s0, .LBB57_47
# %bb.79:                               # %land.lhs.true177
	ld.wu	$a0, $s0, 0
	andi	$a1, $a0, 1
	bnez	$a1, .LBB57_82
# %bb.80:                               # %if.end182
	andi	$a1, $s1, 1
	beqz	$a1, .LBB57_47
# %bb.81:                               # %if.end182
	andi	$a0, $a0, 2
	beqz	$a0, .LBB57_47
.LBB57_82:                              # %if.then14
	ld.w	$a0, $s5, %pc_lo12(_ZL24app_reduce_recurse_level)
	addi.d	$a0, $a0, -1
	st.w	$a0, $s5, %pc_lo12(_ZL24app_reduce_recurse_level)
.LBB57_83:                              # %cleanup266
	move	$a0, $fp
	ld.d	$s5, $sp, 48                    # 8-byte Folded Reload
	ld.d	$s4, $sp, 56                    # 8-byte Folded Reload
	ld.d	$s3, $sp, 64                    # 8-byte Folded Reload
	ld.d	$s2, $sp, 72                    # 8-byte Folded Reload
	ld.d	$s1, $sp, 80                    # 8-byte Folded Reload
	ld.d	$s0, $sp, 88                    # 8-byte Folded Reload
	ld.d	$fp, $sp, 96                    # 8-byte Folded Reload
	ld.d	$ra, $sp, 104                   # 8-byte Folded Reload
	addi.d	$sp, $sp, 112
	ret
.Lfunc_end57:
	.size	_ZN8app_node6reduceEPK9alst_nodeiPi, .Lfunc_end57-_ZN8app_node6reduceEPK9alst_nodeiPi
	.cfi_endproc
                                        # -- End function
	.globl	_ZN8app_node11reduce_varsEPK9alst_nodeiPi # -- Begin function _ZN8app_node11reduce_varsEPK9alst_nodeiPi
	.p2align	2
	.type	_ZN8app_node11reduce_varsEPK9alst_nodeiPi,@function
_ZN8app_node11reduce_varsEPK9alst_nodeiPi: # @_ZN8app_node11reduce_varsEPK9alst_nodeiPi
	.cfi_startproc
# %bb.0:                                # %entry
	addi.d	$sp, $sp, -48
	.cfi_def_cfa_offset 48
	st.d	$ra, $sp, 40                    # 8-byte Folded Spill
	st.d	$fp, $sp, 32                    # 8-byte Folded Spill
	st.d	$s0, $sp, 24                    # 8-byte Folded Spill
	st.d	$s1, $sp, 16                    # 8-byte Folded Spill
	st.d	$s2, $sp, 8                     # 8-byte Folded Spill
	st.d	$s3, $sp, 0                     # 8-byte Folded Spill
	.cfi_offset 1, -8
	.cfi_offset 22, -16
	.cfi_offset 23, -24
	.cfi_offset 24, -32
	.cfi_offset 25, -40
	.cfi_offset 26, -48
	move	$fp, $a0
	ld.d	$a0, $a0, 16
	move	$s0, $a3
	move	$s1, $a2
	move	$s2, $a1
	beqz	$a0, .LBB58_8
# %bb.1:                                # %if.then
	ld.d	$a1, $a0, 0
	ld.d	$a2, $a1, 96
	move	$a1, $fp
	jirl	$ra, $a2, 0
	ld.d	$a0, $fp, 16
	ld.d	$a1, $a0, 0
	ld.d	$a4, $a1, 136
	move	$a1, $s2
	move	$a2, $s1
	move	$a3, $s0
	jirl	$ra, $a4, 0
	ld.d	$a1, $fp, 16
	beq	$a1, $a0, .LBB58_6
# %bb.2:                                # %if.end.i
	beqz	$a1, .LBB58_4
# %bb.3:                                # %delete.notnull.i
	ld.d	$a2, $a1, 0
	ld.d	$a2, $a2, 16
	move	$s3, $a0
	move	$a0, $a1
	jirl	$ra, $a2, 0
	move	$a0, $s3
.LBB58_4:                               # %if.end5.i
	st.d	$a0, $fp, 16
	beqz	$a0, .LBB58_6
# %bb.5:                                # %if.then20.i
	ld.d	$a1, $a0, 0
	ld.d	$a2, $a1, 96
	move	$a1, $fp
	jirl	$ra, $a2, 0
.LBB58_6:                               # %_ZN8app_node8set_leftEP8exp_nodes.exit
	beqz	$s0, .LBB58_8
# %bb.7:                                # %land.lhs.true
	ld.bu	$a0, $s0, 0
	andi	$a0, $a0, 1
	bnez	$a0, .LBB58_15
.LBB58_8:                               # %if.end15
	ld.d	$a0, $fp, 24
	beqz	$a0, .LBB58_14
# %bb.9:                                # %if.then18
	ld.d	$a1, $a0, 0
	ld.d	$a2, $a1, 96
	move	$a1, $fp
	jirl	$ra, $a2, 0
	ld.d	$a0, $fp, 24
	ld.d	$a1, $a0, 0
	ld.d	$a4, $a1, 136
	move	$a1, $s2
	move	$a2, $s1
	move	$a3, $s0
	jirl	$ra, $a4, 0
	ld.d	$a1, $fp, 24
	beq	$a1, $a0, .LBB58_14
# %bb.10:                               # %if.end.i9
	beqz	$a1, .LBB58_12
# %bb.11:                               # %delete.notnull.i11
	ld.d	$a2, $a1, 0
	ld.d	$a2, $a2, 16
	move	$s0, $a0
	move	$a0, $a1
	jirl	$ra, $a2, 0
	move	$a0, $s0
.LBB58_12:                              # %if.end5.i14
	st.d	$a0, $fp, 24
	beqz	$a0, .LBB58_14
.LBB58_13:                              # %return.sink.split
	ld.d	$a1, $a0, 0
	ld.d	$a2, $a1, 96
	move	$a1, $fp
	jirl	$ra, $a2, 0
.LBB58_14:                              # %return
	move	$a0, $fp
	ld.d	$s3, $sp, 0                     # 8-byte Folded Reload
	ld.d	$s2, $sp, 8                     # 8-byte Folded Reload
	ld.d	$s1, $sp, 16                    # 8-byte Folded Reload
	ld.d	$s0, $sp, 24                    # 8-byte Folded Reload
	ld.d	$fp, $sp, 32                    # 8-byte Folded Reload
	ld.d	$ra, $sp, 40                    # 8-byte Folded Reload
	addi.d	$sp, $sp, 48
	ret
.LBB58_15:                              # %if.then8
	ld.d	$a0, $fp, 24
	bnez	$a0, .LBB58_13
	b	.LBB58_14
.Lfunc_end58:
	.size	_ZN8app_node11reduce_varsEPK9alst_nodeiPi, .Lfunc_end58-_ZN8app_node11reduce_varsEPK9alst_nodeiPi
	.cfi_endproc
                                        # -- End function
	.globl	_ZNK8app_nodeeqERK8exp_node     # -- Begin function _ZNK8app_nodeeqERK8exp_node
	.p2align	2
	.type	_ZNK8app_nodeeqERK8exp_node,@function
_ZNK8app_nodeeqERK8exp_node:            # @_ZNK8app_nodeeqERK8exp_node
	.cfi_startproc
# %bb.0:                                # %entry
	addi.d	$sp, $sp, -32
	.cfi_def_cfa_offset 32
	st.d	$ra, $sp, 24                    # 8-byte Folded Spill
	st.d	$fp, $sp, 16                    # 8-byte Folded Spill
	st.d	$s0, $sp, 8                     # 8-byte Folded Spill
	st.d	$s1, $sp, 0                     # 8-byte Folded Spill
	.cfi_offset 1, -8
	.cfi_offset 22, -16
	.cfi_offset 23, -24
	.cfi_offset 24, -32
	move	$fp, $a1
	ld.d	$a1, $a1, 0
	ld.d	$a1, $a1, 24
	move	$s0, $a0
	move	$a0, $fp
	jirl	$ra, $a1, 0
	ori	$a1, $zero, 5
	bne	$a0, $a1, .LBB59_7
# %bb.1:                                # %if.end
	ld.d	$a0, $s0, 0
	ld.d	$a1, $a0, 64
	move	$a0, $s0
	jirl	$ra, $a1, 0
	beqz	$a0, .LBB59_7
# %bb.2:                                # %lor.lhs.false
	ld.d	$a0, $fp, 0
	ld.d	$a1, $a0, 64
	move	$a0, $fp
	jirl	$ra, $a1, 0
	beqz	$a0, .LBB59_7
# %bb.3:                                # %if.end12
	ld.d	$a0, $s0, 0
	ld.d	$a1, $a0, 72
	move	$a0, $s0
	jirl	$ra, $a1, 0
	beqz	$a0, .LBB59_7
# %bb.4:                                # %lor.lhs.false17
	ld.d	$a0, $fp, 0
	ld.d	$a1, $a0, 72
	move	$a0, $fp
	jirl	$ra, $a1, 0
	beqz	$a0, .LBB59_7
# %bb.5:                                # %if.end24
	ld.d	$a0, $s0, 0
	ld.d	$a1, $a0, 64
	move	$a0, $s0
	jirl	$ra, $a1, 0
	ld.d	$a1, $fp, 0
	ld.d	$a1, $a1, 64
	move	$s1, $a0
	move	$a0, $fp
	jirl	$ra, $a1, 0
	ld.d	$a1, $s1, 0
	ld.d	$a2, $a1, 160
	move	$a1, $a0
	move	$a0, $s1
	jirl	$ra, $a2, 0
	beqz	$a0, .LBB59_7
# %bb.6:                                # %land.rhs
	ld.d	$a0, $s0, 0
	ld.d	$a1, $a0, 72
	move	$a0, $s0
	jirl	$ra, $a1, 0
	ld.d	$a1, $fp, 0
	ld.d	$a1, $a1, 72
	move	$s0, $a0
	move	$a0, $fp
	jirl	$ra, $a1, 0
	ld.d	$a1, $s0, 0
	ld.d	$a2, $a1, 160
	move	$a1, $a0
	move	$a0, $s0
	jirl	$ra, $a2, 0
	sltu	$a0, $zero, $a0
	b	.LBB59_8
.LBB59_7:
	move	$a0, $zero
.LBB59_8:                               # %cleanup
	ld.d	$s1, $sp, 0                     # 8-byte Folded Reload
	ld.d	$s0, $sp, 8                     # 8-byte Folded Reload
	ld.d	$fp, $sp, 16                    # 8-byte Folded Reload
	ld.d	$ra, $sp, 24                    # 8-byte Folded Reload
	addi.d	$sp, $sp, 32
	ret
.Lfunc_end59:
	.size	_ZNK8app_nodeeqERK8exp_node, .Lfunc_end59-_ZNK8app_nodeeqERK8exp_node
	.cfi_endproc
                                        # -- End function
	.globl	_ZN8app_node12extract_defsEPK9alst_node # -- Begin function _ZN8app_node12extract_defsEPK9alst_node
	.p2align	2
	.type	_ZN8app_node12extract_defsEPK9alst_node,@function
_ZN8app_node12extract_defsEPK9alst_node: # @_ZN8app_node12extract_defsEPK9alst_node
.Lfunc_begin5:
	.cfi_startproc
	.cfi_personality 155, DW.ref.__gxx_personality_v0
	.cfi_lsda 27, .Lexception5
# %bb.0:                                # %entry
	addi.d	$sp, $sp, -32
	.cfi_def_cfa_offset 32
	st.d	$ra, $sp, 24                    # 8-byte Folded Spill
	st.d	$fp, $sp, 16                    # 8-byte Folded Spill
	st.d	$s0, $sp, 8                     # 8-byte Folded Spill
	st.d	$s1, $sp, 0                     # 8-byte Folded Spill
	.cfi_offset 1, -8
	.cfi_offset 22, -16
	.cfi_offset 23, -24
	.cfi_offset 24, -32
	move	$fp, $a0
	ld.d	$a0, $a0, 0
	ld.d	$a2, $a0, 192
	move	$s0, $a1
	move	$a0, $fp
	jirl	$ra, $a2, 0
	beqz	$a0, .LBB60_5
# %bb.1:                                # %if.else
	move	$s1, $a0
	ori	$a0, $zero, 24
	pcaddu18i	$ra, %call36(_Znwm)
	jirl	$ra, $ra, 0
	ld.d	$a1, $s1, 0
	ld.d	$a1, $a1, 48
	move	$fp, $a0
.Ltmp86:                                # EH_LABEL
	move	$a0, $s1
	jirl	$ra, $a1, 0
.Ltmp87:                                # EH_LABEL
# %bb.2:                                # %invoke.cont50
	ld.d	$a1, $a0, 0
	ld.d	$a1, $a1, 32
.Ltmp88:                                # EH_LABEL
	jirl	$ra, $a1, 0
.Ltmp89:                                # EH_LABEL
# %bb.3:                                # %invoke.cont54
	move	$s0, $a0
	st.d	$zero, $fp, 8
	pcalau12i	$a0, %pc_hi20(_ZTV8var_node+16)
	addi.d	$a0, $a0, %pc_lo12(_ZTV8var_node+16)
	st.d	$a0, $fp, 0
	beqz	$s0, .LBB60_23
# %bb.4:                                # %if.then.i26
	move	$a0, $s0
	pcaddu18i	$ra, %call36(strlen)
	jirl	$ra, $ra, 0
	addi.d	$a0, $a0, 1
.Ltmp90:                                # EH_LABEL
	pcaddu18i	$ra, %call36(_Znam)
	jirl	$ra, $ra, 0
.Ltmp91:                                # EH_LABEL
	b	.LBB60_22
.LBB60_5:                               # %if.then
	ld.d	$a0, $fp, 0
	ld.d	$a1, $a0, 64
	move	$a0, $fp
	jirl	$ra, $a1, 0
	beqz	$a0, .LBB60_11
# %bb.6:                                # %if.then6
	ld.d	$a0, $fp, 0
	ld.d	$a1, $a0, 64
	move	$a0, $fp
	jirl	$ra, $a1, 0
	ld.d	$a1, $a0, 0
	ld.d	$a2, $a1, 200
	move	$a1, $s0
	jirl	$ra, $a2, 0
	beqz	$a0, .LBB60_11
# %bb.7:                                # %if.then14
	ld.d	$a1, $fp, 16
	beq	$a1, $a0, .LBB60_11
# %bb.8:                                # %if.end.i
	beqz	$a1, .LBB60_10
# %bb.9:                                # %delete.notnull.i
	ld.d	$a2, $a1, 0
	ld.d	$a2, $a2, 16
	move	$s1, $a0
	move	$a0, $a1
	jirl	$ra, $a2, 0
	move	$a0, $s1
.LBB60_10:                              # %if.then20.i
	ld.d	$a1, $a0, 0
	st.d	$a0, $fp, 16
	ld.d	$a2, $a1, 96
	move	$a1, $fp
	jirl	$ra, $a2, 0
.LBB60_11:                              # %if.end15
	ld.d	$a0, $fp, 0
	ld.d	$a1, $a0, 72
	move	$a0, $fp
	jirl	$ra, $a1, 0
	beqz	$a0, .LBB60_17
# %bb.12:                               # %if.then20
	ld.d	$a0, $fp, 0
	ld.d	$a1, $a0, 72
	move	$a0, $fp
	jirl	$ra, $a1, 0
	ld.d	$a1, $a0, 0
	ld.d	$a2, $a1, 200
	move	$a1, $s0
	jirl	$ra, $a2, 0
	beqz	$a0, .LBB60_17
# %bb.13:                               # %if.then28
	ld.d	$a1, $fp, 24
	beq	$a1, $a0, .LBB60_17
# %bb.14:                               # %if.end.i11
	beqz	$a1, .LBB60_16
# %bb.15:                               # %delete.notnull.i13
	ld.d	$a2, $a1, 0
	ld.d	$a2, $a2, 16
	move	$s1, $a0
	move	$a0, $a1
	jirl	$ra, $a2, 0
	move	$a0, $s1
.LBB60_16:                              # %if.then20.i18
	ld.d	$a1, $a0, 0
	st.d	$a0, $fp, 24
	ld.d	$a2, $a1, 96
	move	$a1, $fp
	jirl	$ra, $a2, 0
.LBB60_17:                              # %if.end30
	ld.d	$a0, $fp, 0
	ld.d	$a2, $a0, 192
	move	$a0, $fp
	move	$a1, $s0
	jirl	$ra, $a2, 0
	beqz	$a0, .LBB60_23
# %bb.18:                               # %if.then35
	move	$s0, $a0
	ori	$a0, $zero, 24
	pcaddu18i	$ra, %call36(_Znwm)
	jirl	$ra, $ra, 0
	ld.d	$a1, $s0, 0
	ld.d	$a1, $a1, 48
	move	$fp, $a0
.Ltmp93:                                # EH_LABEL
	move	$a0, $s0
	jirl	$ra, $a1, 0
.Ltmp94:                                # EH_LABEL
# %bb.19:                               # %invoke.cont
	ld.d	$a1, $a0, 0
	ld.d	$a1, $a1, 32
.Ltmp95:                                # EH_LABEL
	jirl	$ra, $a1, 0
.Ltmp96:                                # EH_LABEL
# %bb.20:                               # %invoke.cont42
	move	$s0, $a0
	st.d	$zero, $fp, 8
	pcalau12i	$a0, %pc_hi20(_ZTV8var_node+16)
	addi.d	$a0, $a0, %pc_lo12(_ZTV8var_node+16)
	st.d	$a0, $fp, 0
	beqz	$s0, .LBB60_23
# %bb.21:                               # %if.then.i
	move	$a0, $s0
	pcaddu18i	$ra, %call36(strlen)
	jirl	$ra, $ra, 0
	addi.d	$a0, $a0, 1
.Ltmp97:                                # EH_LABEL
	pcaddu18i	$ra, %call36(_Znam)
	jirl	$ra, $ra, 0
.Ltmp98:                                # EH_LABEL
.LBB60_22:                              # %call2.i.noexc
	st.d	$a0, $fp, 16
	move	$a1, $s0
	pcaddu18i	$ra, %call36(strcpy)
	jirl	$ra, $ra, 0
.LBB60_23:                              # %if.end57
	move	$a0, $fp
	ld.d	$s1, $sp, 0                     # 8-byte Folded Reload
	ld.d	$s0, $sp, 8                     # 8-byte Folded Reload
	ld.d	$fp, $sp, 16                    # 8-byte Folded Reload
	ld.d	$ra, $sp, 24                    # 8-byte Folded Reload
	addi.d	$sp, $sp, 32
	ret
.LBB60_24:                              # %lpad
.Ltmp99:                                # EH_LABEL
	b	.LBB60_26
.LBB60_25:                              # %lpad49
.Ltmp92:                                # EH_LABEL
.LBB60_26:                              # %ehcleanup
	move	$s0, $a0
	ori	$a1, $zero, 24
	move	$a0, $fp
	pcaddu18i	$ra, %call36(_ZdlPvm)
	jirl	$ra, $ra, 0
	move	$a0, $s0
	pcaddu18i	$ra, %call36(_Unwind_Resume)
	jirl	$ra, $ra, 0
.Lfunc_end60:
	.size	_ZN8app_node12extract_defsEPK9alst_node, .Lfunc_end60-_ZN8app_node12extract_defsEPK9alst_node
	.cfi_endproc
	.section	.gcc_except_table,"a",@progbits
	.p2align	2, 0x0
GCC_except_table60:
.Lexception5:
	.byte	255                             # @LPStart Encoding = omit
	.byte	255                             # @TType Encoding = omit
	.byte	1                               # Call site Encoding = uleb128
	.uleb128 .Lcst_end5-.Lcst_begin5
.Lcst_begin5:
	.uleb128 .Lfunc_begin5-.Lfunc_begin5    # >> Call Site 1 <<
	.uleb128 .Ltmp86-.Lfunc_begin5          #   Call between .Lfunc_begin5 and .Ltmp86
	.byte	0                               #     has no landing pad
	.byte	0                               #   On action: cleanup
	.uleb128 .Ltmp86-.Lfunc_begin5          # >> Call Site 2 <<
	.uleb128 .Ltmp89-.Ltmp86                #   Call between .Ltmp86 and .Ltmp89
	.uleb128 .Ltmp92-.Lfunc_begin5          #     jumps to .Ltmp92
	.byte	0                               #   On action: cleanup
	.uleb128 .Ltmp89-.Lfunc_begin5          # >> Call Site 3 <<
	.uleb128 .Ltmp90-.Ltmp89                #   Call between .Ltmp89 and .Ltmp90
	.byte	0                               #     has no landing pad
	.byte	0                               #   On action: cleanup
	.uleb128 .Ltmp90-.Lfunc_begin5          # >> Call Site 4 <<
	.uleb128 .Ltmp91-.Ltmp90                #   Call between .Ltmp90 and .Ltmp91
	.uleb128 .Ltmp92-.Lfunc_begin5          #     jumps to .Ltmp92
	.byte	0                               #   On action: cleanup
	.uleb128 .Ltmp91-.Lfunc_begin5          # >> Call Site 5 <<
	.uleb128 .Ltmp93-.Ltmp91                #   Call between .Ltmp91 and .Ltmp93
	.byte	0                               #     has no landing pad
	.byte	0                               #   On action: cleanup
	.uleb128 .Ltmp93-.Lfunc_begin5          # >> Call Site 6 <<
	.uleb128 .Ltmp96-.Ltmp93                #   Call between .Ltmp93 and .Ltmp96
	.uleb128 .Ltmp99-.Lfunc_begin5          #     jumps to .Ltmp99
	.byte	0                               #   On action: cleanup
	.uleb128 .Ltmp96-.Lfunc_begin5          # >> Call Site 7 <<
	.uleb128 .Ltmp97-.Ltmp96                #   Call between .Ltmp96 and .Ltmp97
	.byte	0                               #     has no landing pad
	.byte	0                               #   On action: cleanup
	.uleb128 .Ltmp97-.Lfunc_begin5          # >> Call Site 8 <<
	.uleb128 .Ltmp98-.Ltmp97                #   Call between .Ltmp97 and .Ltmp98
	.uleb128 .Ltmp99-.Lfunc_begin5          #     jumps to .Ltmp99
	.byte	0                               #   On action: cleanup
	.uleb128 .Ltmp98-.Lfunc_begin5          # >> Call Site 9 <<
	.uleb128 .Lfunc_end60-.Ltmp98           #   Call between .Ltmp98 and .Lfunc_end60
	.byte	0                               #     has no landing pad
	.byte	0                               #   On action: cleanup
.Lcst_end5:
	.p2align	2, 0x0
                                        # -- End function
	.text
	.globl	_ZNK8app_node7extractEPKci      # -- Begin function _ZNK8app_node7extractEPKci
	.p2align	2
	.type	_ZNK8app_node7extractEPKci,@function
_ZNK8app_node7extractEPKci:             # @_ZNK8app_node7extractEPKci
.Lfunc_begin6:
	.cfi_startproc
	.cfi_personality 155, DW.ref.__gxx_personality_v0
	.cfi_lsda 27, .Lexception6
# %bb.0:                                # %entry
	addi.d	$sp, $sp, -128
	.cfi_def_cfa_offset 128
	st.d	$ra, $sp, 120                   # 8-byte Folded Spill
	st.d	$fp, $sp, 112                   # 8-byte Folded Spill
	st.d	$s0, $sp, 104                   # 8-byte Folded Spill
	st.d	$s1, $sp, 96                    # 8-byte Folded Spill
	st.d	$s2, $sp, 88                    # 8-byte Folded Spill
	st.d	$s3, $sp, 80                    # 8-byte Folded Spill
	st.d	$s4, $sp, 72                    # 8-byte Folded Spill
	st.d	$s5, $sp, 64                    # 8-byte Folded Spill
	st.d	$s6, $sp, 56                    # 8-byte Folded Spill
	st.d	$s7, $sp, 48                    # 8-byte Folded Spill
	.cfi_offset 1, -8
	.cfi_offset 22, -16
	.cfi_offset 23, -24
	.cfi_offset 24, -32
	.cfi_offset 25, -40
	.cfi_offset 26, -48
	.cfi_offset 27, -56
	.cfi_offset 28, -64
	.cfi_offset 29, -72
	.cfi_offset 30, -80
	move	$s1, $a0
	ld.d	$a0, $a0, 0
	ld.d	$a3, $a0, 64
	move	$s0, $a2
	move	$fp, $a1
	move	$a0, $s1
	jirl	$ra, $a3, 0
	beqz	$a0, .LBB61_20
# %bb.1:                                # %land.lhs.true
	ld.d	$a0, $s1, 0
	ld.d	$a1, $a0, 72
	move	$a0, $s1
	jirl	$ra, $a1, 0
	move	$s2, $zero
	move	$s3, $zero
	beqz	$fp, .LBB61_59
# %bb.2:                                # %land.lhs.true
	beqz	$a0, .LBB61_59
# %bb.3:                                # %if.then.i.i
	ori	$a0, $zero, 32
	pcaddu18i	$ra, %call36(_Znwm)
	jirl	$ra, $ra, 0
	move	$s2, $a0
	st.d	$zero, $a0, 8
	pcalau12i	$a0, %pc_hi20(_ZTV8arg_node+16)
	addi.d	$a0, $a0, %pc_lo12(_ZTV8arg_node+16)
	st.d	$a0, $s2, 0
	move	$a0, $fp
	pcaddu18i	$ra, %call36(strlen)
	jirl	$ra, $ra, 0
	addi.d	$a0, $a0, 1
.Ltmp100:                               # EH_LABEL
	pcaddu18i	$ra, %call36(_Znam)
	jirl	$ra, $ra, 0
.Ltmp101:                               # EH_LABEL
# %bb.4:                                # %invoke.cont
	move	$s3, $a0
	move	$a1, $fp
	pcaddu18i	$ra, %call36(strcpy)
	jirl	$ra, $ra, 0
	st.d	$s3, $s2, 16
	st.d	$zero, $s2, 24
	ld.d	$a0, $s1, 0
	st.d	$zero, $sp, 24
	pcalau12i	$a1, %pc_hi20(_ZTV11arglst_node+16)
	addi.d	$s6, $a1, %pc_lo12(_ZTV11arglst_node+16)
	ld.d	$a3, $a0, 120
	st.d	$s6, $sp, 16
	st.d	$s2, $sp, 32
	st.d	$zero, $sp, 40
.Ltmp103:                               # EH_LABEL
	addi.d	$a2, $sp, 16
	move	$a0, $s1
	move	$a1, $s2
	jirl	$ra, $a3, 0
.Ltmp104:                               # EH_LABEL
# %bb.5:                                # %invoke.cont12
	beqz	$a0, .LBB61_21
# %bb.6:                                # %if.else75
	ld.d	$a0, $s1, 0
	ld.d	$a1, $a0, 64
.Ltmp105:                               # EH_LABEL
	move	$a0, $s1
	jirl	$ra, $a1, 0
.Ltmp106:                               # EH_LABEL
# %bb.7:                                # %invoke.cont78
	ld.d	$a1, $a0, 0
	ld.d	$a3, $a1, 120
.Ltmp107:                               # EH_LABEL
	addi.d	$a2, $sp, 16
	move	$a1, $s2
	jirl	$ra, $a3, 0
.Ltmp108:                               # EH_LABEL
# %bb.8:                                # %invoke.cont82
	bnez	$a0, .LBB61_19
# %bb.9:                                # %land.lhs.true85
	ld.d	$a0, $s1, 0
	ld.d	$a1, $a0, 72
.Ltmp109:                               # EH_LABEL
	move	$a0, $s1
	jirl	$ra, $a1, 0
.Ltmp110:                               # EH_LABEL
# %bb.10:                               # %invoke.cont88
	ld.d	$a1, $a0, 0
	ld.d	$a1, $a1, 24
.Ltmp111:                               # EH_LABEL
	jirl	$ra, $a1, 0
.Ltmp112:                               # EH_LABEL
# %bb.11:                               # %invoke.cont92
	ori	$a1, $zero, 3
	bne	$a0, $a1, .LBB61_19
# %bb.12:                               # %land.lhs.true94
	ld.d	$a0, $s1, 0
	ld.d	$a1, $a0, 72
.Ltmp113:                               # EH_LABEL
	move	$a0, $s1
	jirl	$ra, $a1, 0
.Ltmp114:                               # EH_LABEL
# %bb.13:                               # %invoke.cont97
	ld.d	$a1, $a0, 0
	ld.d	$a1, $a1, 32
.Ltmp115:                               # EH_LABEL
	jirl	$ra, $a1, 0
.Ltmp116:                               # EH_LABEL
# %bb.14:                               # %invoke.cont101
	andi	$a1, $s0, 64
	move	$s3, $zero
	move	$s2, $zero
	move	$s4, $zero
	beqz	$a1, .LBB61_54
# %bb.15:                               # %invoke.cont101
	beqz	$a0, .LBB61_54
# %bb.16:                               # %land.lhs.true107
	ld.d	$a0, $s1, 0
	ld.d	$a1, $a0, 72
.Ltmp117:                               # EH_LABEL
	move	$a0, $s1
	jirl	$ra, $a1, 0
.Ltmp118:                               # EH_LABEL
# %bb.17:                               # %invoke.cont110
	ld.d	$a1, $a0, 0
	ld.d	$a1, $a1, 32
.Ltmp119:                               # EH_LABEL
	jirl	$ra, $a1, 0
	move	$a1, $a0
.Ltmp120:                               # EH_LABEL
# %bb.18:                               # %invoke.cont114
	move	$a0, $fp
	pcaddu18i	$ra, %call36(strcmp)
	jirl	$ra, $ra, 0
	beqz	$a0, .LBB61_85
.LBB61_19:
	move	$s3, $zero
	move	$s2, $zero
	move	$s4, $zero
	b	.LBB61_54
.LBB61_20:
	move	$s2, $zero
	move	$s3, $zero
	b	.LBB61_59
.LBB61_21:                              # %if.then15
	ld.d	$a0, $s1, 0
	andi	$a1, $s0, 128
	bnez	$a1, .LBB61_30
# %bb.22:                               # %if.else
	ld.d	$a3, $a0, 208
.Ltmp154:                               # EH_LABEL
	move	$a0, $s1
	move	$a1, $zero
	move	$a2, $s0
	jirl	$ra, $a3, 0
.Ltmp155:                               # EH_LABEL
# %bb.23:                               # %invoke.cont62
.Ltmp156:                               # EH_LABEL
	move	$s2, $a0
	ori	$a0, $zero, 32
	pcaddu18i	$ra, %call36(_Znwm)
	jirl	$ra, $ra, 0
.Ltmp157:                               # EH_LABEL
# %bb.24:                               # %invoke.cont64
.Ltmp159:                               # EH_LABEL
	move	$s4, $a0
	ori	$a0, $zero, 24
	pcaddu18i	$ra, %call36(_Znwm)
	jirl	$ra, $ra, 0
.Ltmp160:                               # EH_LABEL
# %bb.25:                               # %invoke.cont67
	move	$s3, $a0
	st.d	$zero, $a0, 8
	pcalau12i	$a0, %pc_hi20(_ZTV8var_node+16)
	addi.d	$a0, $a0, %pc_lo12(_ZTV8var_node+16)
	st.d	$a0, $s3, 0
.Ltmp161:                               # EH_LABEL
	ori	$a0, $zero, 2
	pcaddu18i	$ra, %call36(_Znam)
	jirl	$ra, $ra, 0
.Ltmp162:                               # EH_LABEL
# %bb.26:                               # %invoke.cont70
	st.d	$a0, $s3, 16
	ori	$a1, $zero, 75
	st.h	$a1, $a0, 0
	st.d	$zero, $s4, 8
	pcalau12i	$a0, %pc_hi20(_ZTV8app_node+16)
	addi.d	$a0, $a0, %pc_lo12(_ZTV8app_node+16)
	st.d	$a0, $s4, 0
	st.d	$zero, $s4, 24
	st.d	$s3, $s4, 16
	st.d	$s4, $s3, 8
	beqz	$s2, .LBB61_28
# %bb.27:                               # %if.end5.i9.i79
	ld.d	$a0, $s2, 0
	st.d	$s2, $s4, 24
	ld.d	$a2, $a0, 96
.Ltmp164:                               # EH_LABEL
	move	$a0, $s2
	move	$a1, $s4
	jirl	$ra, $a2, 0
.Ltmp165:                               # EH_LABEL
.LBB61_28:                              # %if.end128
	move	$s3, $zero
.LBB61_29:                              # %if.end128
	move	$s2, $zero
	b	.LBB61_54
.LBB61_30:                              # %if.then17
	ld.d	$a1, $a0, 64
.Ltmp125:                               # EH_LABEL
	move	$a0, $s1
	jirl	$ra, $a1, 0
.Ltmp126:                               # EH_LABEL
# %bb.31:                               # %invoke.cont20
	beqz	$a0, .LBB61_35
# %bb.32:                               # %if.then23
	ld.d	$a0, $s1, 0
	ld.d	$a1, $a0, 64
.Ltmp127:                               # EH_LABEL
	move	$a0, $s1
	jirl	$ra, $a1, 0
.Ltmp128:                               # EH_LABEL
# %bb.33:                               # %invoke.cont26
	ld.d	$a1, $a0, 0
	ld.d	$a3, $a1, 208
.Ltmp129:                               # EH_LABEL
	move	$a1, $fp
	move	$a2, $s0
	jirl	$ra, $a3, 0
.Ltmp130:                               # EH_LABEL
# %bb.34:
	move	$s3, $a0
	b	.LBB61_36
.LBB61_35:
	move	$s3, $zero
.LBB61_36:                              # %if.end
	ld.d	$a0, $s1, 0
	ld.d	$a1, $a0, 72
.Ltmp131:                               # EH_LABEL
	move	$a0, $s1
	jirl	$ra, $a1, 0
.Ltmp132:                               # EH_LABEL
# %bb.37:                               # %invoke.cont34
	beqz	$a0, .LBB61_41
# %bb.38:                               # %if.then37
	ld.d	$a0, $s1, 0
	ld.d	$a1, $a0, 72
.Ltmp133:                               # EH_LABEL
	move	$a0, $s1
	jirl	$ra, $a1, 0
.Ltmp134:                               # EH_LABEL
# %bb.39:                               # %invoke.cont40
	ld.d	$a1, $a0, 0
	ld.d	$a3, $a1, 208
.Ltmp135:                               # EH_LABEL
	move	$a1, $fp
	move	$a2, $s0
	jirl	$ra, $a3, 0
.Ltmp136:                               # EH_LABEL
# %bb.40:
	move	$s2, $a0
	b	.LBB61_42
.LBB61_41:
	move	$s2, $zero
.LBB61_42:                              # %if.end46
.Ltmp137:                               # EH_LABEL
	ori	$a0, $zero, 32
	pcaddu18i	$ra, %call36(_Znwm)
	jirl	$ra, $ra, 0
.Ltmp138:                               # EH_LABEL
# %bb.43:                               # %invoke.cont47
.Ltmp139:                               # EH_LABEL
	move	$s5, $a0
	ori	$a0, $zero, 24
	pcaddu18i	$ra, %call36(_Znwm)
	jirl	$ra, $ra, 0
.Ltmp140:                               # EH_LABEL
# %bb.44:                               # %invoke.cont50
	move	$s4, $a0
	st.d	$zero, $a0, 8
	pcalau12i	$a0, %pc_hi20(_ZTV8var_node+16)
	addi.d	$a0, $a0, %pc_lo12(_ZTV8var_node+16)
	st.d	$a0, $s4, 0
.Ltmp141:                               # EH_LABEL
	ori	$a0, $zero, 2
	pcaddu18i	$ra, %call36(_Znam)
	jirl	$ra, $ra, 0
.Ltmp142:                               # EH_LABEL
# %bb.45:                               # %invoke.cont53
	st.d	$a0, $s4, 16
	ori	$a1, $zero, 83
	st.h	$a1, $a0, 0
	st.d	$zero, $s5, 8
	pcalau12i	$a0, %pc_hi20(_ZTV8app_node+16)
	addi.d	$s7, $a0, %pc_lo12(_ZTV8app_node+16)
	st.d	$s7, $s5, 0
	st.d	$zero, $s5, 24
	st.d	$s4, $s5, 16
	st.d	$s5, $s4, 8
	beqz	$s3, .LBB61_47
# %bb.46:                               # %if.end5.i9.i
	ld.d	$a0, $s3, 0
	st.d	$s3, $s5, 24
	ld.d	$a2, $a0, 96
.Ltmp144:                               # EH_LABEL
	move	$a0, $s3
	move	$a1, $s5
	jirl	$ra, $a2, 0
.Ltmp145:                               # EH_LABEL
.LBB61_47:                              # %invoke.cont54
.Ltmp147:                               # EH_LABEL
	ori	$a0, $zero, 32
	pcaddu18i	$ra, %call36(_Znwm)
	jirl	$ra, $ra, 0
.Ltmp148:                               # EH_LABEL
# %bb.48:                               # %invoke.cont55
	move	$s4, $a0
	st.d	$zero, $a0, 8
	ld.d	$a0, $s5, 0
	st.d	$s7, $s4, 0
	st.d	$zero, $s4, 24
	st.d	$s5, $s4, 16
	ld.d	$a2, $a0, 96
.Ltmp149:                               # EH_LABEL
	move	$a0, $s5
	move	$a1, $s4
	jirl	$ra, $a2, 0
.Ltmp150:                               # EH_LABEL
# %bb.49:                               # %.noexc57
	ld.d	$a0, $s4, 24
	beq	$a0, $s2, .LBB61_54
# %bb.50:                               # %if.end.i4.i47
	beqz	$a0, .LBB61_52
# %bb.51:                               # %delete.notnull.i6.i49
	ld.d	$a1, $a0, 0
	ld.d	$a1, $a1, 16
	jirl	$ra, $a1, 0
.LBB61_52:                              # %if.end5.i9.i52
	st.d	$s2, $s4, 24
	beqz	$s2, .LBB61_29
# %bb.53:                               # %if.then20.i14.i54
	ld.d	$a0, $s2, 0
	ld.d	$a2, $a0, 96
.Ltmp151:                               # EH_LABEL
	move	$a0, $s2
	move	$a1, $s4
	jirl	$ra, $a2, 0
.Ltmp152:                               # EH_LABEL
.LBB61_54:                              # %if.end128
	ld.d	$a0, $sp, 32
	st.d	$s6, $sp, 16
	beqz	$a0, .LBB61_56
# %bb.55:                               # %delete.notnull.i
	ld.d	$a1, $a0, 0
	ld.d	$a1, $a1, 16
	jirl	$ra, $a1, 0
.LBB61_56:                              # %if.end.i
	ld.d	$a0, $sp, 40
	beqz	$a0, .LBB61_58
# %bb.57:                               # %delete.notnull7.i
	ld.d	$a1, $a0, 0
	ld.d	$a1, $a1, 16
	jirl	$ra, $a1, 0
.LBB61_58:                              # %if.end132
	bnez	$s4, .LBB61_84
.LBB61_59:                              # %if.then134
	ld.d	$a0, $s1, 0
	ld.d	$a1, $a0, 64
	move	$a0, $s1
	jirl	$ra, $a1, 0
	beqz	$a0, .LBB61_61
# %bb.60:                               # %if.then139
	ld.d	$a0, $s1, 0
	ld.d	$a1, $a0, 64
	move	$a0, $s1
	jirl	$ra, $a1, 0
	ld.d	$a1, $a0, 0
	ld.d	$a3, $a1, 208
	move	$a1, $fp
	move	$a2, $s0
	jirl	$ra, $a3, 0
	move	$s3, $a0
.LBB61_61:                              # %if.end146
	ld.d	$a0, $s1, 0
	ld.d	$a1, $a0, 72
	move	$a0, $s1
	jirl	$ra, $a1, 0
	beqz	$a0, .LBB61_63
# %bb.62:                               # %if.then151
	ld.d	$a0, $s1, 0
	ld.d	$a1, $a0, 72
	move	$a0, $s1
	jirl	$ra, $a1, 0
	ld.d	$a1, $a0, 0
	ld.d	$a3, $a1, 208
	move	$a1, $fp
	move	$a2, $s0
	jirl	$ra, $a3, 0
	move	$s2, $a0
.LBB61_63:                              # %if.end158
	ori	$a0, $zero, 32
	pcaddu18i	$ra, %call36(_Znwm)
	jirl	$ra, $ra, 0
	move	$s0, $a0
	beqz	$fp, .LBB61_74
# %bb.64:                               # %if.then160
.Ltmp167:                               # EH_LABEL
	ori	$a0, $zero, 24
	pcaddu18i	$ra, %call36(_Znwm)
	jirl	$ra, $ra, 0
.Ltmp168:                               # EH_LABEL
# %bb.65:                               # %invoke.cont163
	move	$s1, $a0
	st.d	$zero, $a0, 8
	pcalau12i	$a0, %pc_hi20(_ZTV8var_node+16)
	addi.d	$a0, $a0, %pc_lo12(_ZTV8var_node+16)
	st.d	$a0, $s1, 0
.Ltmp169:                               # EH_LABEL
	ori	$a0, $zero, 2
	pcaddu18i	$ra, %call36(_Znam)
	jirl	$ra, $ra, 0
.Ltmp170:                               # EH_LABEL
# %bb.66:                               # %invoke.cont166
	st.d	$a0, $s1, 16
	ori	$a1, $zero, 83
	st.h	$a1, $a0, 0
	st.d	$zero, $s0, 8
	pcalau12i	$a0, %pc_hi20(_ZTV8app_node+16)
	addi.d	$fp, $a0, %pc_lo12(_ZTV8app_node+16)
	st.d	$fp, $s0, 0
	st.d	$zero, $s0, 24
	st.d	$s1, $s0, 16
	st.d	$s0, $s1, 8
	beqz	$s3, .LBB61_68
# %bb.67:                               # %if.end5.i9.i120
	ld.d	$a0, $s3, 0
	st.d	$s3, $s0, 24
	ld.d	$a2, $a0, 96
.Ltmp172:                               # EH_LABEL
	move	$a0, $s3
	move	$a1, $s0
	jirl	$ra, $a2, 0
.Ltmp173:                               # EH_LABEL
.LBB61_68:                              # %invoke.cont168
	ori	$a0, $zero, 32
	pcaddu18i	$ra, %call36(_Znwm)
	jirl	$ra, $ra, 0
	move	$s4, $a0
	st.d	$zero, $a0, 8
	ld.d	$a0, $s0, 0
	st.d	$fp, $s4, 0
	st.d	$zero, $s4, 24
	st.d	$s0, $s4, 16
	ld.d	$a2, $a0, 96
.Ltmp175:                               # EH_LABEL
	move	$a0, $s0
	move	$a1, $s4
	jirl	$ra, $a2, 0
.Ltmp176:                               # EH_LABEL
# %bb.69:                               # %.noexc145
	ld.d	$a0, $s4, 24
	beq	$a0, $s2, .LBB61_84
# %bb.70:                               # %if.end.i4.i135
	beqz	$a0, .LBB61_72
# %bb.71:                               # %delete.notnull.i6.i137
	ld.d	$a1, $a0, 0
	ld.d	$a1, $a1, 16
	jirl	$ra, $a1, 0
.LBB61_72:                              # %if.end5.i9.i140
	st.d	$s2, $s4, 24
	beqz	$s2, .LBB61_84
# %bb.73:                               # %if.then20.i14.i142
	ld.d	$a0, $s2, 0
	ld.d	$a2, $a0, 96
.Ltmp177:                               # EH_LABEL
	move	$a0, $s2
	move	$a1, $s4
	jirl	$ra, $a2, 0
.Ltmp178:                               # EH_LABEL
	b	.LBB61_84
.LBB61_74:                              # %if.else174
	vrepli.b	$vr0, 0
	vst	$vr0, $s0, 8
	pcalau12i	$a0, %pc_hi20(_ZTV8app_node+16)
	addi.d	$a0, $a0, %pc_lo12(_ZTV8app_node+16)
	st.d	$a0, $s0, 0
	st.d	$zero, $s0, 24
	beqz	$s3, .LBB61_80
# %bb.75:                               # %if.end5.i.i
	ld.d	$a0, $s3, 0
	st.d	$s3, $s0, 16
	ld.d	$a2, $a0, 96
.Ltmp180:                               # EH_LABEL
	move	$a0, $s3
	move	$a1, $s0
	jirl	$ra, $a2, 0
.Ltmp181:                               # EH_LABEL
# %bb.76:                               # %.noexc165
	ld.d	$a0, $s0, 24
	beq	$a0, $s2, .LBB61_83
# %bb.77:                               # %if.end.i4.i155
	beqz	$a0, .LBB61_79
# %bb.78:                               # %delete.notnull.i6.i157
	ld.d	$a1, $a0, 0
	ld.d	$a1, $a1, 16
	jirl	$ra, $a1, 0
.LBB61_79:                              # %if.end5.i9.i160
	st.d	$s2, $s0, 24
	bnez	$s2, .LBB61_82
	b	.LBB61_83
.LBB61_80:                              # %invoke.cont.thread.i
	beqz	$s2, .LBB61_83
# %bb.81:                               # %if.end5.i9.i160.thread
	st.d	$s2, $s0, 24
.LBB61_82:                              # %if.then20.i14.i162
	ld.d	$a0, $s2, 0
	ld.d	$a2, $a0, 96
.Ltmp182:                               # EH_LABEL
	move	$a0, $s2
	move	$a1, $s0
	jirl	$ra, $a2, 0
.Ltmp183:                               # EH_LABEL
.LBB61_83:
	move	$s4, $s0
.LBB61_84:                              # %if.end180
	move	$a0, $s4
	ld.d	$s7, $sp, 48                    # 8-byte Folded Reload
	ld.d	$s6, $sp, 56                    # 8-byte Folded Reload
	ld.d	$s5, $sp, 64                    # 8-byte Folded Reload
	ld.d	$s4, $sp, 72                    # 8-byte Folded Reload
	ld.d	$s3, $sp, 80                    # 8-byte Folded Reload
	ld.d	$s2, $sp, 88                    # 8-byte Folded Reload
	ld.d	$s1, $sp, 96                    # 8-byte Folded Reload
	ld.d	$s0, $sp, 104                   # 8-byte Folded Reload
	ld.d	$fp, $sp, 112                   # 8-byte Folded Reload
	ld.d	$ra, $sp, 120                   # 8-byte Folded Reload
	addi.d	$sp, $sp, 128
	ret
.LBB61_85:                              # %if.then118
	ld.d	$a0, $s1, 0
	ld.d	$a1, $a0, 64
.Ltmp121:                               # EH_LABEL
	move	$a0, $s1
	jirl	$ra, $a1, 0
.Ltmp122:                               # EH_LABEL
# %bb.86:                               # %invoke.cont121
	ld.d	$a1, $a0, 0
	ld.d	$a1, $a1, 0
.Ltmp123:                               # EH_LABEL
	jirl	$ra, $a1, 0
.Ltmp124:                               # EH_LABEL
# %bb.87:
	move	$s4, $a0
	b	.LBB61_28
.LBB61_88:                              # %lpad52
.Ltmp143:                               # EH_LABEL
	move	$fp, $a0
	ori	$a1, $zero, 24
	move	$a0, $s4
	pcaddu18i	$ra, %call36(_ZdlPvm)
	jirl	$ra, $ra, 0
	b	.LBB61_92
.LBB61_89:                              # %lpad69
.Ltmp163:                               # EH_LABEL
	move	$fp, $a0
	ori	$a1, $zero, 24
	move	$a0, $s3
	pcaddu18i	$ra, %call36(_ZdlPvm)
	jirl	$ra, $ra, 0
	b	.LBB61_95
.LBB61_90:                              # %lpad57
.Ltmp153:                               # EH_LABEL
	b	.LBB61_94
.LBB61_91:                              # %lpad49
.Ltmp146:                               # EH_LABEL
	move	$fp, $a0
.LBB61_92:                              # %ehcleanup
	ori	$a1, $zero, 32
	move	$a0, $s5
	pcaddu18i	$ra, %call36(_ZdlPvm)
	jirl	$ra, $ra, 0
	b	.LBB61_104
.LBB61_93:                              # %lpad66
.Ltmp166:                               # EH_LABEL
.LBB61_94:                              # %ehcleanup73
	move	$fp, $a0
.LBB61_95:                              # %ehcleanup73
	ori	$a1, $zero, 32
	move	$a0, $s4
	pcaddu18i	$ra, %call36(_ZdlPvm)
	jirl	$ra, $ra, 0
	b	.LBB61_104
.LBB61_96:                              # %lpad
.Ltmp102:                               # EH_LABEL
	move	$fp, $a0
	ori	$a1, $zero, 32
	move	$a0, $s2
	pcaddu18i	$ra, %call36(_ZdlPvm)
	jirl	$ra, $ra, 0
	move	$a0, $fp
	pcaddu18i	$ra, %call36(_Unwind_Resume)
	jirl	$ra, $ra, 0
.LBB61_97:                              # %lpad176
.Ltmp184:                               # EH_LABEL
	b	.LBB61_101
.LBB61_98:                              # %lpad165
.Ltmp171:                               # EH_LABEL
	move	$fp, $a0
	ori	$a1, $zero, 24
	move	$a0, $s1
	pcaddu18i	$ra, %call36(_ZdlPvm)
	jirl	$ra, $ra, 0
	b	.LBB61_102
.LBB61_99:                              # %lpad171
.Ltmp179:                               # EH_LABEL
	move	$fp, $a0
	ori	$a1, $zero, 32
	move	$a0, $s4
	pcaddu18i	$ra, %call36(_ZdlPvm)
	jirl	$ra, $ra, 0
	move	$a0, $fp
	pcaddu18i	$ra, %call36(_Unwind_Resume)
	jirl	$ra, $ra, 0
.LBB61_100:                             # %lpad162
.Ltmp174:                               # EH_LABEL
.LBB61_101:                             # %ehcleanup169
	move	$fp, $a0
.LBB61_102:                             # %ehcleanup169
	ori	$a1, $zero, 32
	move	$a0, $s0
	pcaddu18i	$ra, %call36(_ZdlPvm)
	jirl	$ra, $ra, 0
	move	$a0, $fp
	pcaddu18i	$ra, %call36(_Unwind_Resume)
	jirl	$ra, $ra, 0
.LBB61_103:                             # %lpad11
.Ltmp158:                               # EH_LABEL
	move	$fp, $a0
.LBB61_104:                             # %ehcleanup129
	ld.d	$a0, $sp, 32
	st.d	$s6, $sp, 16
	beqz	$a0, .LBB61_106
# %bb.105:                              # %delete.notnull.i90
	ld.d	$a1, $a0, 0
	ld.d	$a1, $a1, 16
	jirl	$ra, $a1, 0
.LBB61_106:                             # %if.end.i93
	ld.d	$a0, $sp, 40
	bnez	$a0, .LBB61_108
# %bb.107:                              # %ehcleanup181
	move	$a0, $fp
	pcaddu18i	$ra, %call36(_Unwind_Resume)
	jirl	$ra, $ra, 0
.LBB61_108:                             # %delete.notnull7.i96
	ld.d	$a1, $a0, 0
	ld.d	$a1, $a1, 16
	jirl	$ra, $a1, 0
	move	$a0, $fp
	pcaddu18i	$ra, %call36(_Unwind_Resume)
	jirl	$ra, $ra, 0
.Lfunc_end61:
	.size	_ZNK8app_node7extractEPKci, .Lfunc_end61-_ZNK8app_node7extractEPKci
	.cfi_endproc
	.section	.gcc_except_table,"a",@progbits
	.p2align	2, 0x0
GCC_except_table61:
.Lexception6:
	.byte	255                             # @LPStart Encoding = omit
	.byte	255                             # @TType Encoding = omit
	.byte	1                               # Call site Encoding = uleb128
	.uleb128 .Lcst_end6-.Lcst_begin6
.Lcst_begin6:
	.uleb128 .Lfunc_begin6-.Lfunc_begin6    # >> Call Site 1 <<
	.uleb128 .Ltmp100-.Lfunc_begin6         #   Call between .Lfunc_begin6 and .Ltmp100
	.byte	0                               #     has no landing pad
	.byte	0                               #   On action: cleanup
	.uleb128 .Ltmp100-.Lfunc_begin6         # >> Call Site 2 <<
	.uleb128 .Ltmp101-.Ltmp100              #   Call between .Ltmp100 and .Ltmp101
	.uleb128 .Ltmp102-.Lfunc_begin6         #     jumps to .Ltmp102
	.byte	0                               #   On action: cleanup
	.uleb128 .Ltmp101-.Lfunc_begin6         # >> Call Site 3 <<
	.uleb128 .Ltmp103-.Ltmp101              #   Call between .Ltmp101 and .Ltmp103
	.byte	0                               #     has no landing pad
	.byte	0                               #   On action: cleanup
	.uleb128 .Ltmp103-.Lfunc_begin6         # >> Call Site 4 <<
	.uleb128 .Ltmp120-.Ltmp103              #   Call between .Ltmp103 and .Ltmp120
	.uleb128 .Ltmp158-.Lfunc_begin6         #     jumps to .Ltmp158
	.byte	0                               #   On action: cleanup
	.uleb128 .Ltmp120-.Lfunc_begin6         # >> Call Site 5 <<
	.uleb128 .Ltmp154-.Ltmp120              #   Call between .Ltmp120 and .Ltmp154
	.byte	0                               #     has no landing pad
	.byte	0                               #   On action: cleanup
	.uleb128 .Ltmp154-.Lfunc_begin6         # >> Call Site 6 <<
	.uleb128 .Ltmp157-.Ltmp154              #   Call between .Ltmp154 and .Ltmp157
	.uleb128 .Ltmp158-.Lfunc_begin6         #     jumps to .Ltmp158
	.byte	0                               #   On action: cleanup
	.uleb128 .Ltmp159-.Lfunc_begin6         # >> Call Site 7 <<
	.uleb128 .Ltmp160-.Ltmp159              #   Call between .Ltmp159 and .Ltmp160
	.uleb128 .Ltmp166-.Lfunc_begin6         #     jumps to .Ltmp166
	.byte	0                               #   On action: cleanup
	.uleb128 .Ltmp161-.Lfunc_begin6         # >> Call Site 8 <<
	.uleb128 .Ltmp162-.Ltmp161              #   Call between .Ltmp161 and .Ltmp162
	.uleb128 .Ltmp163-.Lfunc_begin6         #     jumps to .Ltmp163
	.byte	0                               #   On action: cleanup
	.uleb128 .Ltmp164-.Lfunc_begin6         # >> Call Site 9 <<
	.uleb128 .Ltmp165-.Ltmp164              #   Call between .Ltmp164 and .Ltmp165
	.uleb128 .Ltmp166-.Lfunc_begin6         #     jumps to .Ltmp166
	.byte	0                               #   On action: cleanup
	.uleb128 .Ltmp125-.Lfunc_begin6         # >> Call Site 10 <<
	.uleb128 .Ltmp138-.Ltmp125              #   Call between .Ltmp125 and .Ltmp138
	.uleb128 .Ltmp158-.Lfunc_begin6         #     jumps to .Ltmp158
	.byte	0                               #   On action: cleanup
	.uleb128 .Ltmp139-.Lfunc_begin6         # >> Call Site 11 <<
	.uleb128 .Ltmp140-.Ltmp139              #   Call between .Ltmp139 and .Ltmp140
	.uleb128 .Ltmp146-.Lfunc_begin6         #     jumps to .Ltmp146
	.byte	0                               #   On action: cleanup
	.uleb128 .Ltmp141-.Lfunc_begin6         # >> Call Site 12 <<
	.uleb128 .Ltmp142-.Ltmp141              #   Call between .Ltmp141 and .Ltmp142
	.uleb128 .Ltmp143-.Lfunc_begin6         #     jumps to .Ltmp143
	.byte	0                               #   On action: cleanup
	.uleb128 .Ltmp144-.Lfunc_begin6         # >> Call Site 13 <<
	.uleb128 .Ltmp145-.Ltmp144              #   Call between .Ltmp144 and .Ltmp145
	.uleb128 .Ltmp146-.Lfunc_begin6         #     jumps to .Ltmp146
	.byte	0                               #   On action: cleanup
	.uleb128 .Ltmp147-.Lfunc_begin6         # >> Call Site 14 <<
	.uleb128 .Ltmp148-.Ltmp147              #   Call between .Ltmp147 and .Ltmp148
	.uleb128 .Ltmp158-.Lfunc_begin6         #     jumps to .Ltmp158
	.byte	0                               #   On action: cleanup
	.uleb128 .Ltmp149-.Lfunc_begin6         # >> Call Site 15 <<
	.uleb128 .Ltmp150-.Ltmp149              #   Call between .Ltmp149 and .Ltmp150
	.uleb128 .Ltmp153-.Lfunc_begin6         #     jumps to .Ltmp153
	.byte	0                               #   On action: cleanup
	.uleb128 .Ltmp150-.Lfunc_begin6         # >> Call Site 16 <<
	.uleb128 .Ltmp151-.Ltmp150              #   Call between .Ltmp150 and .Ltmp151
	.byte	0                               #     has no landing pad
	.byte	0                               #   On action: cleanup
	.uleb128 .Ltmp151-.Lfunc_begin6         # >> Call Site 17 <<
	.uleb128 .Ltmp152-.Ltmp151              #   Call between .Ltmp151 and .Ltmp152
	.uleb128 .Ltmp153-.Lfunc_begin6         #     jumps to .Ltmp153
	.byte	0                               #   On action: cleanup
	.uleb128 .Ltmp152-.Lfunc_begin6         # >> Call Site 18 <<
	.uleb128 .Ltmp167-.Ltmp152              #   Call between .Ltmp152 and .Ltmp167
	.byte	0                               #     has no landing pad
	.byte	0                               #   On action: cleanup
	.uleb128 .Ltmp167-.Lfunc_begin6         # >> Call Site 19 <<
	.uleb128 .Ltmp168-.Ltmp167              #   Call between .Ltmp167 and .Ltmp168
	.uleb128 .Ltmp174-.Lfunc_begin6         #     jumps to .Ltmp174
	.byte	0                               #   On action: cleanup
	.uleb128 .Ltmp169-.Lfunc_begin6         # >> Call Site 20 <<
	.uleb128 .Ltmp170-.Ltmp169              #   Call between .Ltmp169 and .Ltmp170
	.uleb128 .Ltmp171-.Lfunc_begin6         #     jumps to .Ltmp171
	.byte	0                               #   On action: cleanup
	.uleb128 .Ltmp172-.Lfunc_begin6         # >> Call Site 21 <<
	.uleb128 .Ltmp173-.Ltmp172              #   Call between .Ltmp172 and .Ltmp173
	.uleb128 .Ltmp174-.Lfunc_begin6         #     jumps to .Ltmp174
	.byte	0                               #   On action: cleanup
	.uleb128 .Ltmp173-.Lfunc_begin6         # >> Call Site 22 <<
	.uleb128 .Ltmp175-.Ltmp173              #   Call between .Ltmp173 and .Ltmp175
	.byte	0                               #     has no landing pad
	.byte	0                               #   On action: cleanup
	.uleb128 .Ltmp175-.Lfunc_begin6         # >> Call Site 23 <<
	.uleb128 .Ltmp176-.Ltmp175              #   Call between .Ltmp175 and .Ltmp176
	.uleb128 .Ltmp179-.Lfunc_begin6         #     jumps to .Ltmp179
	.byte	0                               #   On action: cleanup
	.uleb128 .Ltmp176-.Lfunc_begin6         # >> Call Site 24 <<
	.uleb128 .Ltmp177-.Ltmp176              #   Call between .Ltmp176 and .Ltmp177
	.byte	0                               #     has no landing pad
	.byte	0                               #   On action: cleanup
	.uleb128 .Ltmp177-.Lfunc_begin6         # >> Call Site 25 <<
	.uleb128 .Ltmp178-.Ltmp177              #   Call between .Ltmp177 and .Ltmp178
	.uleb128 .Ltmp179-.Lfunc_begin6         #     jumps to .Ltmp179
	.byte	0                               #   On action: cleanup
	.uleb128 .Ltmp180-.Lfunc_begin6         # >> Call Site 26 <<
	.uleb128 .Ltmp181-.Ltmp180              #   Call between .Ltmp180 and .Ltmp181
	.uleb128 .Ltmp184-.Lfunc_begin6         #     jumps to .Ltmp184
	.byte	0                               #   On action: cleanup
	.uleb128 .Ltmp181-.Lfunc_begin6         # >> Call Site 27 <<
	.uleb128 .Ltmp182-.Ltmp181              #   Call between .Ltmp181 and .Ltmp182
	.byte	0                               #     has no landing pad
	.byte	0                               #   On action: cleanup
	.uleb128 .Ltmp182-.Lfunc_begin6         # >> Call Site 28 <<
	.uleb128 .Ltmp183-.Ltmp182              #   Call between .Ltmp182 and .Ltmp183
	.uleb128 .Ltmp184-.Lfunc_begin6         #     jumps to .Ltmp184
	.byte	0                               #   On action: cleanup
	.uleb128 .Ltmp121-.Lfunc_begin6         # >> Call Site 29 <<
	.uleb128 .Ltmp124-.Ltmp121              #   Call between .Ltmp121 and .Ltmp124
	.uleb128 .Ltmp158-.Lfunc_begin6         #     jumps to .Ltmp158
	.byte	0                               #   On action: cleanup
	.uleb128 .Ltmp124-.Lfunc_begin6         # >> Call Site 30 <<
	.uleb128 .Lfunc_end61-.Ltmp124          #   Call between .Ltmp124 and .Lfunc_end61
	.byte	0                               #     has no landing pad
	.byte	0                               #   On action: cleanup
.Lcst_end6:
	.p2align	2, 0x0
                                        # -- End function
	.text
