	.file	"k.cc"
	.text
	.globl	_ZN2kc7ht_lessEPNS_20impl_abstract_phylumES1_ # -- Begin function _ZN2kc7ht_lessEPNS_20impl_abstract_phylumES1_
	.p2align	5
	.type	_ZN2kc7ht_lessEPNS_20impl_abstract_phylumES1_,@function
_ZN2kc7ht_lessEPNS_20impl_abstract_phylumES1_: # @_ZN2kc7ht_lessEPNS_20impl_abstract_phylumES1_
	.cfi_startproc
# %bb.0:                                # %entry
	addi.d	$sp, $sp, -64
	.cfi_def_cfa_offset 64
	st.d	$ra, $sp, 56                    # 8-byte Folded Spill
	st.d	$fp, $sp, 48                    # 8-byte Folded Spill
	st.d	$s0, $sp, 40                    # 8-byte Folded Spill
	st.d	$s1, $sp, 32                    # 8-byte Folded Spill
	st.d	$s2, $sp, 24                    # 8-byte Folded Spill
	st.d	$s3, $sp, 16                    # 8-byte Folded Spill
	st.d	$s4, $sp, 8                     # 8-byte Folded Spill
	.cfi_offset 1, -8
	.cfi_offset 22, -16
	.cfi_offset 23, -24
	.cfi_offset 24, -32
	.cfi_offset 25, -40
	.cfi_offset 26, -48
	.cfi_offset 27, -56
	move	$s0, $a0
	ld.d	$a0, $a0, 0
	ld.d	$a2, $a0, 0
	move	$fp, $a1
	move	$a0, $s0
	jirl	$ra, $a2, 0
	ld.d	$a1, $fp, 0
	ld.d	$a1, $a1, 0
	move	$s1, $a0
	move	$a0, $fp
	jirl	$ra, $a1, 0
	move	$a1, $a0
	ori	$a0, $zero, 1
	blt	$s1, $a1, .LBB0_3
# %bb.1:                                # %if.end
	bge	$a1, $s1, .LBB0_4
# %bb.2:
	move	$a0, $zero
.LBB0_3:                                # %cleanup45
	ld.d	$s4, $sp, 8                     # 8-byte Folded Reload
	ld.d	$s3, $sp, 16                    # 8-byte Folded Reload
	ld.d	$s2, $sp, 24                    # 8-byte Folded Reload
	ld.d	$s1, $sp, 32                    # 8-byte Folded Reload
	ld.d	$s0, $sp, 40                    # 8-byte Folded Reload
	ld.d	$fp, $sp, 48                    # 8-byte Folded Reload
	ld.d	$ra, $sp, 56                    # 8-byte Folded Reload
	addi.d	$sp, $sp, 64
	ret
.LBB0_4:                                # %if.end6
	addi.d	$a0, $s1, -1
	ori	$a1, $zero, 4
	bltu	$a1, $a0, .LBB0_11
# %bb.5:                                # %if.end6
	slli.d	$a0, $a0, 2
	pcalau12i	$a1, %pc_hi20(.LJTI0_0)
	addi.d	$a1, $a1, %pc_lo12(.LJTI0_0)
	ldx.w	$a0, $a1, $a0
	add.d	$a0, $a1, $a0
	jr	$a0
.LBB0_6:                                # %sw.bb
	ld.d	$a0, $s0, 8
	ld.d	$a1, $fp, 8
	pcaddu18i	$ra, %call36(strcasecmp)
	jirl	$ra, $ra, 0
	slti	$a0, $a0, 0
	b	.LBB0_3
.LBB0_7:                                # %sw.bb14
	ld.d	$a0, $s0, 8
	ld.d	$a1, $fp, 8
	sltu	$a0, $a0, $a1
	b	.LBB0_3
.LBB0_8:                                # %sw.bb10
	fld.d	$fa0, $s0, 8
	fld.d	$fa1, $fp, 8
	fcmp.clt.d	$fcc0, $fa0, $fa1
	movcf2gr	$a0, $fcc0
	b	.LBB0_3
.LBB0_9:                                # %sw.bb12
	ld.w	$a0, $s0, 8
	ld.w	$a1, $fp, 8
	slt	$a0, $a0, $a1
	b	.LBB0_3
.LBB0_10:                               # %sw.bb8
	ld.d	$a0, $s0, 8
	ld.d	$a1, $fp, 8
	pcaddu18i	$ra, %call36(strcmp)
	jirl	$ra, $ra, 0
	slti	$a0, $a0, 0
	b	.LBB0_3
.LBB0_11:                               # %sw.default
	ld.d	$a0, $s0, 0
	ld.d	$a1, $a0, 0
	move	$a0, $s0
	jirl	$ra, $a1, 0
	bstrpick.d	$a0, $a0, 31, 0
	ori	$a1, $zero, 56
	mul.d	$a0, $a0, $a1
	pcalau12i	$a1, %pc_hi20(_ZN2kc13operator_infoE)
	addi.d	$a1, $a1, %pc_lo12(_ZN2kc13operator_infoE)
	add.d	$a0, $a1, $a0
	ld.wu	$a0, $a0, 20
	slli.d	$a1, $a0, 4
	alsl.d	$a0, $a0, $a1, 3
	pcalau12i	$a1, %pc_hi20(_ZN2kc11phylum_infoE)
	addi.d	$a1, $a1, %pc_lo12(_ZN2kc11phylum_infoE)
	add.d	$a0, $a1, $a0
	ld.wu	$a0, $a0, 16
	pcalau12i	$a1, %pc_hi20(_ZN2kc26kc_storageclass_still_uniqE)
	addi.d	$a1, $a1, %pc_lo12(_ZN2kc26kc_storageclass_still_uniqE)
	ldx.bu	$a0, $a1, $a0
	beqz	$a0, .LBB0_16
# %bb.12:                               # %do.body.us.preheader
	move	$s1, $zero
	.p2align	4, , 16
.LBB0_13:                               # %do.body.us
                                        # =>This Inner Loop Header: Depth=1
	ld.d	$a0, $s0, 0
	ld.d	$a2, $a0, 8
	move	$a0, $s0
	move	$a1, $s1
	jirl	$ra, $a2, 0
	ld.d	$a1, $fp, 0
	ld.d	$a2, $a1, 8
	move	$s2, $a0
	move	$a0, $fp
	move	$a1, $s1
	jirl	$ra, $a2, 0
	move	$a1, $a0
	sltu	$a0, $s2, $a0
	bltu	$s2, $a1, .LBB0_3
# %bb.14:                               # %if.end29.us
                                        #   in Loop: Header=BB0_13 Depth=1
	bltu	$a1, $s2, .LBB0_3
# %bb.15:                               # %if.end29.us
                                        #   in Loop: Header=BB0_13 Depth=1
	addi.w	$s1, $s1, 1
	bnez	$s2, .LBB0_13
	b	.LBB0_3
.LBB0_16:                               # %do.body.preheader
	move	$s1, $zero
	.p2align	4, , 16
.LBB0_17:                               # %do.body
                                        # =>This Inner Loop Header: Depth=1
	ld.d	$a0, $s0, 0
	ld.d	$a2, $a0, 8
	move	$a0, $s0
	move	$a1, $s1
	jirl	$ra, $a2, 0
	ld.d	$a1, $fp, 0
	ld.d	$a2, $a1, 8
	move	$s2, $a0
	move	$a0, $fp
	move	$a1, $s1
	jirl	$ra, $a2, 0
	move	$s3, $a0
	move	$a0, $s2
	move	$a1, $s3
	pcaddu18i	$ra, %call36(_ZN2kc7ht_lessEPNS_20impl_abstract_phylumES1_)
	jirl	$ra, $ra, 0
	bnez	$a0, .LBB0_3
# %bb.18:                               # %if.end35
                                        #   in Loop: Header=BB0_17 Depth=1
	move	$s4, $a0
	move	$a0, $s3
	move	$a1, $s2
	pcaddu18i	$ra, %call36(_ZN2kc7ht_lessEPNS_20impl_abstract_phylumES1_)
	jirl	$ra, $ra, 0
	bnez	$a0, .LBB0_20
# %bb.19:                               # %if.end35
                                        #   in Loop: Header=BB0_17 Depth=1
	addi.w	$s1, $s1, 1
	move	$a0, $s4
	bnez	$s2, .LBB0_17
	b	.LBB0_3
.LBB0_20:
	move	$a0, $s4
	b	.LBB0_3
.Lfunc_end0:
	.size	_ZN2kc7ht_lessEPNS_20impl_abstract_phylumES1_, .Lfunc_end0-_ZN2kc7ht_lessEPNS_20impl_abstract_phylumES1_
	.cfi_endproc
	.section	.rodata,"a",@progbits
	.p2align	2, 0x0
.LJTI0_0:
	.word	.LBB0_6-.LJTI0_0
	.word	.LBB0_10-.LJTI0_0
	.word	.LBB0_8-.LJTI0_0
	.word	.LBB0_9-.LJTI0_0
	.word	.LBB0_7-.LJTI0_0
                                        # -- End function
	.text
	.globl	_ZNK2kc20impl_abstract_phylum6phylumEv # -- Begin function _ZNK2kc20impl_abstract_phylum6phylumEv
	.p2align	5
	.type	_ZNK2kc20impl_abstract_phylum6phylumEv,@function
_ZNK2kc20impl_abstract_phylum6phylumEv: # @_ZNK2kc20impl_abstract_phylum6phylumEv
	.cfi_startproc
# %bb.0:                                # %entry
	addi.d	$sp, $sp, -16
	.cfi_def_cfa_offset 16
	st.d	$ra, $sp, 8                     # 8-byte Folded Spill
	.cfi_offset 1, -8
	ld.d	$a1, $a0, 0
	ld.d	$a1, $a1, 0
	jirl	$ra, $a1, 0
	bstrpick.d	$a0, $a0, 31, 0
	ori	$a1, $zero, 56
	mul.d	$a0, $a0, $a1
	pcalau12i	$a1, %pc_hi20(_ZN2kc13operator_infoE)
	addi.d	$a1, $a1, %pc_lo12(_ZN2kc13operator_infoE)
	add.d	$a0, $a1, $a0
	ld.w	$a0, $a0, 20
	ld.d	$ra, $sp, 8                     # 8-byte Folded Reload
	addi.d	$sp, $sp, 16
	ret
.Lfunc_end1:
	.size	_ZNK2kc20impl_abstract_phylum6phylumEv, .Lfunc_end1-_ZNK2kc20impl_abstract_phylum6phylumEv
	.cfi_endproc
                                        # -- End function
	.globl	_ZN2kc27impl_nocasestring_NoCaseStrC2EPKc # -- Begin function _ZN2kc27impl_nocasestring_NoCaseStrC2EPKc
	.p2align	5
	.type	_ZN2kc27impl_nocasestring_NoCaseStrC2EPKc,@function
_ZN2kc27impl_nocasestring_NoCaseStrC2EPKc: # @_ZN2kc27impl_nocasestring_NoCaseStrC2EPKc
# %bb.0:                                # %entry
	pcalau12i	$a2, %got_pc_hi20(_ZTVN2kc27impl_nocasestring_NoCaseStrE)
	ld.d	$a2, $a2, %got_pc_lo12(_ZTVN2kc27impl_nocasestring_NoCaseStrE)
	addi.d	$a2, $a2, 16
	st.d	$a2, $a0, 0
	st.d	$a1, $a0, 8
	ret
.Lfunc_end2:
	.size	_ZN2kc27impl_nocasestring_NoCaseStrC2EPKc, .Lfunc_end2-_ZN2kc27impl_nocasestring_NoCaseStrC2EPKc
                                        # -- End function
	.globl	_ZN2kc27impl_nocasestring_NoCaseStr8make_ownEi # -- Begin function _ZN2kc27impl_nocasestring_NoCaseStr8make_ownEi
	.p2align	5
	.type	_ZN2kc27impl_nocasestring_NoCaseStr8make_ownEi,@function
_ZN2kc27impl_nocasestring_NoCaseStr8make_ownEi: # @_ZN2kc27impl_nocasestring_NoCaseStr8make_ownEi
	.cfi_startproc
# %bb.0:                                # %entry
	addi.d	$sp, $sp, -64
	.cfi_def_cfa_offset 64
	st.d	$ra, $sp, 56                    # 8-byte Folded Spill
	st.d	$fp, $sp, 48                    # 8-byte Folded Spill
	st.d	$s0, $sp, 40                    # 8-byte Folded Spill
	st.d	$s1, $sp, 32                    # 8-byte Folded Spill
	st.d	$s2, $sp, 24                    # 8-byte Folded Spill
	st.d	$s3, $sp, 16                    # 8-byte Folded Spill
	st.d	$s4, $sp, 8                     # 8-byte Folded Spill
	.cfi_offset 1, -8
	.cfi_offset 22, -16
	.cfi_offset 23, -24
	.cfi_offset 24, -32
	.cfi_offset 25, -40
	.cfi_offset 26, -48
	.cfi_offset 27, -56
	move	$s0, $a1
	move	$fp, $a0
	addi.w	$a0, $a1, 1
	pcaddu18i	$ra, %call36(_Znam)
	jirl	$ra, $ra, 0
	move	$s1, $a0
	blez	$s0, .LBB3_4
# %bb.1:                                # %land.rhs.lr.ph
	ld.d	$s2, $fp, 8
	move	$s3, $s0
	move	$s4, $s1
	.p2align	4, , 16
.LBB3_2:                                # %land.rhs
                                        # =>This Inner Loop Header: Depth=1
	ld.bu	$a0, $s2, 0
	beqz	$a0, .LBB3_4
# %bb.3:                                # %for.body
                                        #   in Loop: Header=BB3_2 Depth=1
	ext.w.b	$a0, $a0
	pcaddu18i	$ra, %call36(tolower)
	jirl	$ra, $ra, 0
	st.b	$a0, $s4, 0
	addi.d	$s4, $s4, 1
	addi.d	$s3, $s3, -1
	addi.d	$s2, $s2, 1
	bnez	$s3, .LBB3_2
.LBB3_4:                                # %for.cond.cleanup
	stx.b	$zero, $s1, $s0
	st.d	$s1, $fp, 8
	ld.d	$s4, $sp, 8                     # 8-byte Folded Reload
	ld.d	$s3, $sp, 16                    # 8-byte Folded Reload
	ld.d	$s2, $sp, 24                    # 8-byte Folded Reload
	ld.d	$s1, $sp, 32                    # 8-byte Folded Reload
	ld.d	$s0, $sp, 40                    # 8-byte Folded Reload
	ld.d	$fp, $sp, 48                    # 8-byte Folded Reload
	ld.d	$ra, $sp, 56                    # 8-byte Folded Reload
	addi.d	$sp, $sp, 64
	ret
.Lfunc_end3:
	.size	_ZN2kc27impl_nocasestring_NoCaseStr8make_ownEi, .Lfunc_end3-_ZN2kc27impl_nocasestring_NoCaseStr8make_ownEi
	.cfi_endproc
                                        # -- End function
	.globl	_ZN2kc20impl_casestring__StrC2EPKc # -- Begin function _ZN2kc20impl_casestring__StrC2EPKc
	.p2align	5
	.type	_ZN2kc20impl_casestring__StrC2EPKc,@function
_ZN2kc20impl_casestring__StrC2EPKc:     # @_ZN2kc20impl_casestring__StrC2EPKc
# %bb.0:                                # %entry
	pcalau12i	$a2, %got_pc_hi20(_ZTVN2kc20impl_casestring__StrE)
	ld.d	$a2, $a2, %got_pc_lo12(_ZTVN2kc20impl_casestring__StrE)
	addi.d	$a2, $a2, 16
	st.d	$a2, $a0, 0
	st.d	$a1, $a0, 8
	ret
.Lfunc_end4:
	.size	_ZN2kc20impl_casestring__StrC2EPKc, .Lfunc_end4-_ZN2kc20impl_casestring__StrC2EPKc
                                        # -- End function
	.globl	_ZN2kc20impl_casestring__Str8make_ownEi # -- Begin function _ZN2kc20impl_casestring__Str8make_ownEi
	.p2align	5
	.type	_ZN2kc20impl_casestring__Str8make_ownEi,@function
_ZN2kc20impl_casestring__Str8make_ownEi: # @_ZN2kc20impl_casestring__Str8make_ownEi
	.cfi_startproc
# %bb.0:                                # %entry
	addi.d	$sp, $sp, -32
	.cfi_def_cfa_offset 32
	st.d	$ra, $sp, 24                    # 8-byte Folded Spill
	st.d	$fp, $sp, 16                    # 8-byte Folded Spill
	st.d	$s0, $sp, 8                     # 8-byte Folded Spill
	st.d	$s1, $sp, 0                     # 8-byte Folded Spill
	.cfi_offset 1, -8
	.cfi_offset 22, -16
	.cfi_offset 23, -24
	.cfi_offset 24, -32
	move	$fp, $a1
	move	$s0, $a0
	addi.w	$a0, $a1, 1
	pcaddu18i	$ra, %call36(_Znam)
	jirl	$ra, $ra, 0
	ld.d	$a1, $s0, 8
	move	$s1, $a0
	move	$a2, $fp
	pcaddu18i	$ra, %call36(strncpy)
	jirl	$ra, $ra, 0
	stx.b	$zero, $s1, $fp
	st.d	$s1, $s0, 8
	ld.d	$s1, $sp, 0                     # 8-byte Folded Reload
	ld.d	$s0, $sp, 8                     # 8-byte Folded Reload
	ld.d	$fp, $sp, 16                    # 8-byte Folded Reload
	ld.d	$ra, $sp, 24                    # 8-byte Folded Reload
	addi.d	$sp, $sp, 32
	ret
.Lfunc_end5:
	.size	_ZN2kc20impl_casestring__Str8make_ownEi, .Lfunc_end5-_ZN2kc20impl_casestring__Str8make_ownEi
	.cfi_endproc
                                        # -- End function
	.globl	_ZNK2kc32impl_bindingidmark_BindingIdMark9subphylumEi # -- Begin function _ZNK2kc32impl_bindingidmark_BindingIdMark9subphylumEi
	.p2align	5
	.type	_ZNK2kc32impl_bindingidmark_BindingIdMark9subphylumEi,@function
_ZNK2kc32impl_bindingidmark_BindingIdMark9subphylumEi: # @_ZNK2kc32impl_bindingidmark_BindingIdMark9subphylumEi
# %bb.0:                                # %entry
	ld.d	$a0, $a0, 16
	sltui	$a1, $a1, 1
	maskeqz	$a0, $a0, $a1
	ret
.Lfunc_end6:
	.size	_ZNK2kc32impl_bindingidmark_BindingIdMark9subphylumEi, .Lfunc_end6-_ZNK2kc32impl_bindingidmark_BindingIdMark9subphylumEi
                                        # -- End function
	.globl	_ZNK2kc19impl_bindingidmarks9subphylumEi # -- Begin function _ZNK2kc19impl_bindingidmarks9subphylumEi
	.p2align	5
	.type	_ZNK2kc19impl_bindingidmarks9subphylumEi,@function
_ZNK2kc19impl_bindingidmarks9subphylumEi: # @_ZNK2kc19impl_bindingidmarks9subphylumEi
# %bb.0:                                # %entry
	ori	$a2, $zero, 1
	beq	$a1, $a2, .LBB7_3
# %bb.1:                                # %entry
	bnez	$a1, .LBB7_4
# %bb.2:                                # %sw.bb
	ld.d	$a0, $a0, 8
	ret
.LBB7_3:                                # %sw.bb2
	ld.d	$a0, $a0, 16
	ret
.LBB7_4:
	move	$a0, $zero
	ret
.Lfunc_end7:
	.size	_ZNK2kc19impl_bindingidmarks9subphylumEi, .Lfunc_end7-_ZNK2kc19impl_bindingidmarks9subphylumEi
                                        # -- End function
	.globl	_ZNK2kc54impl_countedphylumdeclaration_CountedPhylumdeclaration9subphylumEi # -- Begin function _ZNK2kc54impl_countedphylumdeclaration_CountedPhylumdeclaration9subphylumEi
	.p2align	5
	.type	_ZNK2kc54impl_countedphylumdeclaration_CountedPhylumdeclaration9subphylumEi,@function
_ZNK2kc54impl_countedphylumdeclaration_CountedPhylumdeclaration9subphylumEi: # @_ZNK2kc54impl_countedphylumdeclaration_CountedPhylumdeclaration9subphylumEi
# %bb.0:                                # %entry
	ld.d	$a0, $a0, 16
	sltui	$a1, $a1, 1
	maskeqz	$a0, $a0, $a1
	ret
.Lfunc_end8:
	.size	_ZNK2kc54impl_countedphylumdeclaration_CountedPhylumdeclaration9subphylumEi, .Lfunc_end8-_ZNK2kc54impl_countedphylumdeclaration_CountedPhylumdeclaration9subphylumEi
                                        # -- End function
	.globl	_ZNK2kc30impl_countedphylumdeclarations9subphylumEi # -- Begin function _ZNK2kc30impl_countedphylumdeclarations9subphylumEi
	.p2align	5
	.type	_ZNK2kc30impl_countedphylumdeclarations9subphylumEi,@function
_ZNK2kc30impl_countedphylumdeclarations9subphylumEi: # @_ZNK2kc30impl_countedphylumdeclarations9subphylumEi
# %bb.0:                                # %entry
	ori	$a2, $zero, 1
	beq	$a1, $a2, .LBB9_3
# %bb.1:                                # %entry
	bnez	$a1, .LBB9_4
# %bb.2:                                # %sw.bb
	ld.d	$a0, $a0, 8
	ret
.LBB9_3:                                # %sw.bb2
	ld.d	$a0, $a0, 16
	ret
.LBB9_4:
	move	$a0, $zero
	ret
.Lfunc_end9:
	.size	_ZNK2kc30impl_countedphylumdeclarations9subphylumEi, .Lfunc_end9-_ZNK2kc30impl_countedphylumdeclarations9subphylumEi
                                        # -- End function
	.globl	_ZNK2kc50impl_addedphylumdeclaration_AddedPhylumdeclaration9subphylumEi # -- Begin function _ZNK2kc50impl_addedphylumdeclaration_AddedPhylumdeclaration9subphylumEi
	.p2align	5
	.type	_ZNK2kc50impl_addedphylumdeclaration_AddedPhylumdeclaration9subphylumEi,@function
_ZNK2kc50impl_addedphylumdeclaration_AddedPhylumdeclaration9subphylumEi: # @_ZNK2kc50impl_addedphylumdeclaration_AddedPhylumdeclaration9subphylumEi
# %bb.0:                                # %entry
	ld.d	$a0, $a0, 16
	sltui	$a1, $a1, 1
	maskeqz	$a0, $a0, $a1
	ret
.Lfunc_end10:
	.size	_ZNK2kc50impl_addedphylumdeclaration_AddedPhylumdeclaration9subphylumEi, .Lfunc_end10-_ZNK2kc50impl_addedphylumdeclaration_AddedPhylumdeclaration9subphylumEi
                                        # -- End function
	.globl	_ZNK2kc28impl_addedphylumdeclarations9subphylumEi # -- Begin function _ZNK2kc28impl_addedphylumdeclarations9subphylumEi
	.p2align	5
	.type	_ZNK2kc28impl_addedphylumdeclarations9subphylumEi,@function
_ZNK2kc28impl_addedphylumdeclarations9subphylumEi: # @_ZNK2kc28impl_addedphylumdeclarations9subphylumEi
# %bb.0:                                # %entry
	ori	$a2, $zero, 1
	beq	$a1, $a2, .LBB11_3
# %bb.1:                                # %entry
	bnez	$a1, .LBB11_4
# %bb.2:                                # %sw.bb
	ld.d	$a0, $a0, 8
	ret
.LBB11_3:                               # %sw.bb2
	ld.d	$a0, $a0, 16
	ret
.LBB11_4:
	move	$a0, $zero
	ret
.Lfunc_end11:
	.size	_ZNK2kc28impl_addedphylumdeclarations9subphylumEi, .Lfunc_end11-_ZNK2kc28impl_addedphylumdeclarations9subphylumEi
                                        # -- End function
	.globl	_ZNK2kc21impl_problem_Problem69subphylumEi # -- Begin function _ZNK2kc21impl_problem_Problem69subphylumEi
	.p2align	5
	.type	_ZNK2kc21impl_problem_Problem69subphylumEi,@function
_ZNK2kc21impl_problem_Problem69subphylumEi: # @_ZNK2kc21impl_problem_Problem69subphylumEi
# %bb.0:                                # %entry
	ori	$a2, $zero, 5
	bltu	$a2, $a1, .LBB12_8
# %bb.1:                                # %entry
	slli.d	$a1, $a1, 2
	pcalau12i	$a2, %pc_hi20(.LJTI12_0)
	addi.d	$a2, $a2, %pc_lo12(.LJTI12_0)
	ldx.w	$a1, $a2, $a1
	add.d	$a1, $a2, $a1
	jr	$a1
.LBB12_2:                               # %sw.bb
	ld.d	$a0, $a0, 8
	ret
.LBB12_3:                               # %sw.bb5
	ld.d	$a0, $a0, 40
	ret
.LBB12_4:                               # %sw.bb3
	ld.d	$a0, $a0, 24
	ret
.LBB12_5:                               # %sw.bb4
	ld.d	$a0, $a0, 32
	ret
.LBB12_6:                               # %sw.bb2
	ld.d	$a0, $a0, 16
	ret
.LBB12_7:                               # %sw.bb6
	ld.d	$a0, $a0, 48
	ret
.LBB12_8:
	move	$a0, $zero
	ret
.Lfunc_end12:
	.size	_ZNK2kc21impl_problem_Problem69subphylumEi, .Lfunc_end12-_ZNK2kc21impl_problem_Problem69subphylumEi
	.section	.rodata,"a",@progbits
	.p2align	2, 0x0
.LJTI12_0:
	.word	.LBB12_2-.LJTI12_0
	.word	.LBB12_6-.LJTI12_0
	.word	.LBB12_4-.LJTI12_0
	.word	.LBB12_5-.LJTI12_0
	.word	.LBB12_3-.LJTI12_0
	.word	.LBB12_7-.LJTI12_0
                                        # -- End function
	.text
	.globl	_ZNK2kc21impl_problem_Problem59subphylumEi # -- Begin function _ZNK2kc21impl_problem_Problem59subphylumEi
	.p2align	5
	.type	_ZNK2kc21impl_problem_Problem59subphylumEi,@function
_ZNK2kc21impl_problem_Problem59subphylumEi: # @_ZNK2kc21impl_problem_Problem59subphylumEi
# %bb.0:                                # %entry
	ori	$a2, $zero, 4
	bltu	$a2, $a1, .LBB13_7
# %bb.1:                                # %entry
	slli.d	$a1, $a1, 2
	pcalau12i	$a2, %pc_hi20(.LJTI13_0)
	addi.d	$a2, $a2, %pc_lo12(.LJTI13_0)
	ldx.w	$a1, $a2, $a1
	add.d	$a1, $a2, $a1
	jr	$a1
.LBB13_2:                               # %sw.bb
	ld.d	$a0, $a0, 8
	ret
.LBB13_3:                               # %sw.bb5
	ld.d	$a0, $a0, 40
	ret
.LBB13_4:                               # %sw.bb3
	ld.d	$a0, $a0, 24
	ret
.LBB13_5:                               # %sw.bb4
	ld.d	$a0, $a0, 32
	ret
.LBB13_6:                               # %sw.bb2
	ld.d	$a0, $a0, 16
	ret
.LBB13_7:
	move	$a0, $zero
	ret
.Lfunc_end13:
	.size	_ZNK2kc21impl_problem_Problem59subphylumEi, .Lfunc_end13-_ZNK2kc21impl_problem_Problem59subphylumEi
	.section	.rodata,"a",@progbits
	.p2align	2, 0x0
.LJTI13_0:
	.word	.LBB13_2-.LJTI13_0
	.word	.LBB13_6-.LJTI13_0
	.word	.LBB13_4-.LJTI13_0
	.word	.LBB13_5-.LJTI13_0
	.word	.LBB13_3-.LJTI13_0
                                        # -- End function
	.text
	.globl	_ZNK2kc21impl_problem_Problem49subphylumEi # -- Begin function _ZNK2kc21impl_problem_Problem49subphylumEi
	.p2align	5
	.type	_ZNK2kc21impl_problem_Problem49subphylumEi,@function
_ZNK2kc21impl_problem_Problem49subphylumEi: # @_ZNK2kc21impl_problem_Problem49subphylumEi
# %bb.0:                                # %entry
	ori	$a2, $zero, 3
	bltu	$a2, $a1, .LBB14_6
# %bb.1:                                # %entry
	slli.d	$a1, $a1, 2
	pcalau12i	$a2, %pc_hi20(.LJTI14_0)
	addi.d	$a2, $a2, %pc_lo12(.LJTI14_0)
	ldx.w	$a1, $a2, $a1
	add.d	$a1, $a2, $a1
	jr	$a1
.LBB14_2:                               # %sw.bb
	ld.d	$a0, $a0, 8
	ret
.LBB14_3:                               # %sw.bb3
	ld.d	$a0, $a0, 24
	ret
.LBB14_4:                               # %sw.bb4
	ld.d	$a0, $a0, 32
	ret
.LBB14_5:                               # %sw.bb2
	ld.d	$a0, $a0, 16
	ret
.LBB14_6:
	move	$a0, $zero
	ret
.Lfunc_end14:
	.size	_ZNK2kc21impl_problem_Problem49subphylumEi, .Lfunc_end14-_ZNK2kc21impl_problem_Problem49subphylumEi
	.section	.rodata,"a",@progbits
	.p2align	2, 0x0
.LJTI14_0:
	.word	.LBB14_2-.LJTI14_0
	.word	.LBB14_5-.LJTI14_0
	.word	.LBB14_3-.LJTI14_0
	.word	.LBB14_4-.LJTI14_0
                                        # -- End function
	.text
	.globl	_ZNK2kc25impl_problem_Problem3int19subphylumEi # -- Begin function _ZNK2kc25impl_problem_Problem3int19subphylumEi
	.p2align	5
	.type	_ZNK2kc25impl_problem_Problem3int19subphylumEi,@function
_ZNK2kc25impl_problem_Problem3int19subphylumEi: # @_ZNK2kc25impl_problem_Problem3int19subphylumEi
# %bb.0:                                # %entry
	ori	$a2, $zero, 4
	bltu	$a2, $a1, .LBB15_7
# %bb.1:                                # %entry
	slli.d	$a1, $a1, 2
	pcalau12i	$a2, %pc_hi20(.LJTI15_0)
	addi.d	$a2, $a2, %pc_lo12(.LJTI15_0)
	ldx.w	$a1, $a2, $a1
	add.d	$a1, $a2, $a1
	jr	$a1
.LBB15_2:                               # %sw.bb
	ld.d	$a0, $a0, 8
	ret
.LBB15_3:                               # %sw.bb5
	ld.d	$a0, $a0, 40
	ret
.LBB15_4:                               # %sw.bb3
	ld.d	$a0, $a0, 24
	ret
.LBB15_5:                               # %sw.bb4
	ld.d	$a0, $a0, 32
	ret
.LBB15_6:                               # %sw.bb2
	ld.d	$a0, $a0, 16
	ret
.LBB15_7:
	move	$a0, $zero
	ret
.Lfunc_end15:
	.size	_ZNK2kc25impl_problem_Problem3int19subphylumEi, .Lfunc_end15-_ZNK2kc25impl_problem_Problem3int19subphylumEi
	.section	.rodata,"a",@progbits
	.p2align	2, 0x0
.LJTI15_0:
	.word	.LBB15_2-.LJTI15_0
	.word	.LBB15_6-.LJTI15_0
	.word	.LBB15_4-.LJTI15_0
	.word	.LBB15_5-.LJTI15_0
	.word	.LBB15_3-.LJTI15_0
                                        # -- End function
	.text
	.globl	_ZNK2kc21impl_problem_Problem39subphylumEi # -- Begin function _ZNK2kc21impl_problem_Problem39subphylumEi
	.p2align	5
	.type	_ZNK2kc21impl_problem_Problem39subphylumEi,@function
_ZNK2kc21impl_problem_Problem39subphylumEi: # @_ZNK2kc21impl_problem_Problem39subphylumEi
# %bb.0:                                # %entry
	ori	$a2, $zero, 2
	beq	$a1, $a2, .LBB16_5
# %bb.1:                                # %entry
	ori	$a2, $zero, 1
	beq	$a1, $a2, .LBB16_4
# %bb.2:                                # %entry
	bnez	$a1, .LBB16_6
# %bb.3:                                # %sw.bb
	ld.d	$a0, $a0, 8
	ret
.LBB16_4:                               # %sw.bb2
	ld.d	$a0, $a0, 16
	ret
.LBB16_5:                               # %sw.bb3
	ld.d	$a0, $a0, 24
	ret
.LBB16_6:
	move	$a0, $zero
	ret
.Lfunc_end16:
	.size	_ZNK2kc21impl_problem_Problem39subphylumEi, .Lfunc_end16-_ZNK2kc21impl_problem_Problem39subphylumEi
                                        # -- End function
	.globl	_ZNK2kc21impl_problem_Problem29subphylumEi # -- Begin function _ZNK2kc21impl_problem_Problem29subphylumEi
	.p2align	5
	.type	_ZNK2kc21impl_problem_Problem29subphylumEi,@function
_ZNK2kc21impl_problem_Problem29subphylumEi: # @_ZNK2kc21impl_problem_Problem29subphylumEi
# %bb.0:                                # %entry
	ori	$a2, $zero, 1
	beq	$a1, $a2, .LBB17_3
# %bb.1:                                # %entry
	bnez	$a1, .LBB17_4
# %bb.2:                                # %sw.bb
	ld.d	$a0, $a0, 8
	ret
.LBB17_3:                               # %sw.bb2
	ld.d	$a0, $a0, 16
	ret
.LBB17_4:
	move	$a0, $zero
	ret
.Lfunc_end17:
	.size	_ZNK2kc21impl_problem_Problem29subphylumEi, .Lfunc_end17-_ZNK2kc21impl_problem_Problem29subphylumEi
                                        # -- End function
	.globl	_ZNK2kc37impl_problem_Problem1storageoption1ID9subphylumEi # -- Begin function _ZNK2kc37impl_problem_Problem1storageoption1ID9subphylumEi
	.p2align	5
	.type	_ZNK2kc37impl_problem_Problem1storageoption1ID9subphylumEi,@function
_ZNK2kc37impl_problem_Problem1storageoption1ID9subphylumEi: # @_ZNK2kc37impl_problem_Problem1storageoption1ID9subphylumEi
# %bb.0:                                # %entry
	ori	$a2, $zero, 3
	bltu	$a2, $a1, .LBB18_6
# %bb.1:                                # %entry
	slli.d	$a1, $a1, 2
	pcalau12i	$a2, %pc_hi20(.LJTI18_0)
	addi.d	$a2, $a2, %pc_lo12(.LJTI18_0)
	ldx.w	$a1, $a2, $a1
	add.d	$a1, $a2, $a1
	jr	$a1
.LBB18_2:                               # %sw.bb
	ld.d	$a0, $a0, 8
	ret
.LBB18_3:                               # %sw.bb3
	ld.d	$a0, $a0, 24
	ret
.LBB18_4:                               # %sw.bb4
	ld.d	$a0, $a0, 32
	ret
.LBB18_5:                               # %sw.bb2
	ld.d	$a0, $a0, 16
	ret
.LBB18_6:
	move	$a0, $zero
	ret
.Lfunc_end18:
	.size	_ZNK2kc37impl_problem_Problem1storageoption1ID9subphylumEi, .Lfunc_end18-_ZNK2kc37impl_problem_Problem1storageoption1ID9subphylumEi
	.section	.rodata,"a",@progbits
	.p2align	2, 0x0
.LJTI18_0:
	.word	.LBB18_2-.LJTI18_0
	.word	.LBB18_5-.LJTI18_0
	.word	.LBB18_3-.LJTI18_0
	.word	.LBB18_4-.LJTI18_0
                                        # -- End function
	.text
	.globl	_ZNK2kc30impl_problem_Problem1INT1ID1ID9subphylumEi # -- Begin function _ZNK2kc30impl_problem_Problem1INT1ID1ID9subphylumEi
	.p2align	5
	.type	_ZNK2kc30impl_problem_Problem1INT1ID1ID9subphylumEi,@function
_ZNK2kc30impl_problem_Problem1INT1ID1ID9subphylumEi: # @_ZNK2kc30impl_problem_Problem1INT1ID1ID9subphylumEi
# %bb.0:                                # %entry
	ori	$a2, $zero, 5
	bltu	$a2, $a1, .LBB19_8
# %bb.1:                                # %entry
	slli.d	$a1, $a1, 2
	pcalau12i	$a2, %pc_hi20(.LJTI19_0)
	addi.d	$a2, $a2, %pc_lo12(.LJTI19_0)
	ldx.w	$a1, $a2, $a1
	add.d	$a1, $a2, $a1
	jr	$a1
.LBB19_2:                               # %sw.bb
	ld.d	$a0, $a0, 8
	ret
.LBB19_3:                               # %sw.bb5
	ld.d	$a0, $a0, 40
	ret
.LBB19_4:                               # %sw.bb3
	ld.d	$a0, $a0, 24
	ret
.LBB19_5:                               # %sw.bb4
	ld.d	$a0, $a0, 32
	ret
.LBB19_6:                               # %sw.bb2
	ld.d	$a0, $a0, 16
	ret
.LBB19_7:                               # %sw.bb6
	ld.d	$a0, $a0, 48
	ret
.LBB19_8:
	move	$a0, $zero
	ret
.Lfunc_end19:
	.size	_ZNK2kc30impl_problem_Problem1INT1ID1ID9subphylumEi, .Lfunc_end19-_ZNK2kc30impl_problem_Problem1INT1ID1ID9subphylumEi
	.section	.rodata,"a",@progbits
	.p2align	2, 0x0
.LJTI19_0:
	.word	.LBB19_2-.LJTI19_0
	.word	.LBB19_6-.LJTI19_0
	.word	.LBB19_4-.LJTI19_0
	.word	.LBB19_5-.LJTI19_0
	.word	.LBB19_3-.LJTI19_0
	.word	.LBB19_7-.LJTI19_0
                                        # -- End function
	.text
	.globl	_ZNK2kc29impl_problem_Problem1ID1ID1ID9subphylumEi # -- Begin function _ZNK2kc29impl_problem_Problem1ID1ID1ID9subphylumEi
	.p2align	5
	.type	_ZNK2kc29impl_problem_Problem1ID1ID1ID9subphylumEi,@function
_ZNK2kc29impl_problem_Problem1ID1ID1ID9subphylumEi: # @_ZNK2kc29impl_problem_Problem1ID1ID1ID9subphylumEi
# %bb.0:                                # %entry
	ori	$a2, $zero, 5
	bltu	$a2, $a1, .LBB20_8
# %bb.1:                                # %entry
	slli.d	$a1, $a1, 2
	pcalau12i	$a2, %pc_hi20(.LJTI20_0)
	addi.d	$a2, $a2, %pc_lo12(.LJTI20_0)
	ldx.w	$a1, $a2, $a1
	add.d	$a1, $a2, $a1
	jr	$a1
.LBB20_2:                               # %sw.bb
	ld.d	$a0, $a0, 8
	ret
.LBB20_3:                               # %sw.bb5
	ld.d	$a0, $a0, 40
	ret
.LBB20_4:                               # %sw.bb3
	ld.d	$a0, $a0, 24
	ret
.LBB20_5:                               # %sw.bb4
	ld.d	$a0, $a0, 32
	ret
.LBB20_6:                               # %sw.bb2
	ld.d	$a0, $a0, 16
	ret
.LBB20_7:                               # %sw.bb6
	ld.d	$a0, $a0, 48
	ret
.LBB20_8:
	move	$a0, $zero
	ret
.Lfunc_end20:
	.size	_ZNK2kc29impl_problem_Problem1ID1ID1ID9subphylumEi, .Lfunc_end20-_ZNK2kc29impl_problem_Problem1ID1ID1ID9subphylumEi
	.section	.rodata,"a",@progbits
	.p2align	2, 0x0
.LJTI20_0:
	.word	.LBB20_2-.LJTI20_0
	.word	.LBB20_6-.LJTI20_0
	.word	.LBB20_4-.LJTI20_0
	.word	.LBB20_5-.LJTI20_0
	.word	.LBB20_3-.LJTI20_0
	.word	.LBB20_7-.LJTI20_0
                                        # -- End function
	.text
	.globl	_ZNK2kc27impl_problem_Problem1INT1ID9subphylumEi # -- Begin function _ZNK2kc27impl_problem_Problem1INT1ID9subphylumEi
	.p2align	5
	.type	_ZNK2kc27impl_problem_Problem1INT1ID9subphylumEi,@function
_ZNK2kc27impl_problem_Problem1INT1ID9subphylumEi: # @_ZNK2kc27impl_problem_Problem1INT1ID9subphylumEi
# %bb.0:                                # %entry
	ori	$a2, $zero, 3
	bltu	$a2, $a1, .LBB21_6
# %bb.1:                                # %entry
	slli.d	$a1, $a1, 2
	pcalau12i	$a2, %pc_hi20(.LJTI21_0)
	addi.d	$a2, $a2, %pc_lo12(.LJTI21_0)
	ldx.w	$a1, $a2, $a1
	add.d	$a1, $a2, $a1
	jr	$a1
.LBB21_2:                               # %sw.bb
	ld.d	$a0, $a0, 8
	ret
.LBB21_3:                               # %sw.bb3
	ld.d	$a0, $a0, 24
	ret
.LBB21_4:                               # %sw.bb4
	ld.d	$a0, $a0, 32
	ret
.LBB21_5:                               # %sw.bb2
	ld.d	$a0, $a0, 16
	ret
.LBB21_6:
	move	$a0, $zero
	ret
.Lfunc_end21:
	.size	_ZNK2kc27impl_problem_Problem1INT1ID9subphylumEi, .Lfunc_end21-_ZNK2kc27impl_problem_Problem1INT1ID9subphylumEi
	.section	.rodata,"a",@progbits
	.p2align	2, 0x0
.LJTI21_0:
	.word	.LBB21_2-.LJTI21_0
	.word	.LBB21_5-.LJTI21_0
	.word	.LBB21_3-.LJTI21_0
	.word	.LBB21_4-.LJTI21_0
                                        # -- End function
	.text
	.globl	_ZNK2kc25impl_problem_Problem1int19subphylumEi # -- Begin function _ZNK2kc25impl_problem_Problem1int19subphylumEi
	.p2align	5
	.type	_ZNK2kc25impl_problem_Problem1int19subphylumEi,@function
_ZNK2kc25impl_problem_Problem1int19subphylumEi: # @_ZNK2kc25impl_problem_Problem1int19subphylumEi
# %bb.0:                                # %entry
	ori	$a2, $zero, 2
	beq	$a1, $a2, .LBB22_5
# %bb.1:                                # %entry
	ori	$a2, $zero, 1
	beq	$a1, $a2, .LBB22_4
# %bb.2:                                # %entry
	bnez	$a1, .LBB22_6
# %bb.3:                                # %sw.bb
	ld.d	$a0, $a0, 8
	ret
.LBB22_4:                               # %sw.bb2
	ld.d	$a0, $a0, 16
	ret
.LBB22_5:                               # %sw.bb3
	ld.d	$a0, $a0, 24
	ret
.LBB22_6:
	move	$a0, $zero
	ret
.Lfunc_end22:
	.size	_ZNK2kc25impl_problem_Problem1int19subphylumEi, .Lfunc_end22-_ZNK2kc25impl_problem_Problem1int19subphylumEi
                                        # -- End function
	.globl	_ZNK2kc24impl_problem_Problem1INT9subphylumEi # -- Begin function _ZNK2kc24impl_problem_Problem1INT9subphylumEi
	.p2align	5
	.type	_ZNK2kc24impl_problem_Problem1INT9subphylumEi,@function
_ZNK2kc24impl_problem_Problem1INT9subphylumEi: # @_ZNK2kc24impl_problem_Problem1INT9subphylumEi
# %bb.0:                                # %entry
	ori	$a2, $zero, 1
	beq	$a1, $a2, .LBB23_3
# %bb.1:                                # %entry
	bnez	$a1, .LBB23_4
# %bb.2:                                # %sw.bb
	ld.d	$a0, $a0, 8
	ret
.LBB23_3:                               # %sw.bb2
	ld.d	$a0, $a0, 16
	ret
.LBB23_4:
	move	$a0, $zero
	ret
.Lfunc_end23:
	.size	_ZNK2kc24impl_problem_Problem1INT9subphylumEi, .Lfunc_end23-_ZNK2kc24impl_problem_Problem1INT9subphylumEi
                                        # -- End function
	.globl	_ZNK2kc25impl_problem_Problem1t1ID9subphylumEi # -- Begin function _ZNK2kc25impl_problem_Problem1t1ID9subphylumEi
	.p2align	5
	.type	_ZNK2kc25impl_problem_Problem1t1ID9subphylumEi,@function
_ZNK2kc25impl_problem_Problem1t1ID9subphylumEi: # @_ZNK2kc25impl_problem_Problem1t1ID9subphylumEi
# %bb.0:                                # %entry
	ori	$a2, $zero, 3
	bltu	$a2, $a1, .LBB24_6
# %bb.1:                                # %entry
	slli.d	$a1, $a1, 2
	pcalau12i	$a2, %pc_hi20(.LJTI24_0)
	addi.d	$a2, $a2, %pc_lo12(.LJTI24_0)
	ldx.w	$a1, $a2, $a1
	add.d	$a1, $a2, $a1
	jr	$a1
.LBB24_2:                               # %sw.bb
	ld.d	$a0, $a0, 8
	ret
.LBB24_3:                               # %sw.bb3
	ld.d	$a0, $a0, 24
	ret
.LBB24_4:                               # %sw.bb4
	ld.d	$a0, $a0, 32
	ret
.LBB24_5:                               # %sw.bb2
	ld.d	$a0, $a0, 16
	ret
.LBB24_6:
	move	$a0, $zero
	ret
.Lfunc_end24:
	.size	_ZNK2kc25impl_problem_Problem1t1ID9subphylumEi, .Lfunc_end24-_ZNK2kc25impl_problem_Problem1t1ID9subphylumEi
	.section	.rodata,"a",@progbits
	.p2align	2, 0x0
.LJTI24_0:
	.word	.LBB24_2-.LJTI24_0
	.word	.LBB24_5-.LJTI24_0
	.word	.LBB24_3-.LJTI24_0
	.word	.LBB24_4-.LJTI24_0
                                        # -- End function
	.text
	.globl	_ZNK2kc26impl_problem_Problem1ID1ID9subphylumEi # -- Begin function _ZNK2kc26impl_problem_Problem1ID1ID9subphylumEi
	.p2align	5
	.type	_ZNK2kc26impl_problem_Problem1ID1ID9subphylumEi,@function
_ZNK2kc26impl_problem_Problem1ID1ID9subphylumEi: # @_ZNK2kc26impl_problem_Problem1ID1ID9subphylumEi
# %bb.0:                                # %entry
	ori	$a2, $zero, 3
	bltu	$a2, $a1, .LBB25_6
# %bb.1:                                # %entry
	slli.d	$a1, $a1, 2
	pcalau12i	$a2, %pc_hi20(.LJTI25_0)
	addi.d	$a2, $a2, %pc_lo12(.LJTI25_0)
	ldx.w	$a1, $a2, $a1
	add.d	$a1, $a2, $a1
	jr	$a1
.LBB25_2:                               # %sw.bb
	ld.d	$a0, $a0, 8
	ret
.LBB25_3:                               # %sw.bb3
	ld.d	$a0, $a0, 24
	ret
.LBB25_4:                               # %sw.bb4
	ld.d	$a0, $a0, 32
	ret
.LBB25_5:                               # %sw.bb2
	ld.d	$a0, $a0, 16
	ret
.LBB25_6:
	move	$a0, $zero
	ret
.Lfunc_end25:
	.size	_ZNK2kc26impl_problem_Problem1ID1ID9subphylumEi, .Lfunc_end25-_ZNK2kc26impl_problem_Problem1ID1ID9subphylumEi
	.section	.rodata,"a",@progbits
	.p2align	2, 0x0
.LJTI25_0:
	.word	.LBB25_2-.LJTI25_0
	.word	.LBB25_5-.LJTI25_0
	.word	.LBB25_3-.LJTI25_0
	.word	.LBB25_4-.LJTI25_0
                                        # -- End function
	.text
	.globl	_ZNK2kc23impl_problem_Problem1we9subphylumEi # -- Begin function _ZNK2kc23impl_problem_Problem1we9subphylumEi
	.p2align	5
	.type	_ZNK2kc23impl_problem_Problem1we9subphylumEi,@function
_ZNK2kc23impl_problem_Problem1we9subphylumEi: # @_ZNK2kc23impl_problem_Problem1we9subphylumEi
# %bb.0:                                # %entry
	ori	$a2, $zero, 1
	beq	$a1, $a2, .LBB26_3
# %bb.1:                                # %entry
	bnez	$a1, .LBB26_4
# %bb.2:                                # %sw.bb
	ld.d	$a0, $a0, 8
	ret
.LBB26_3:                               # %sw.bb2
	ld.d	$a0, $a0, 16
	ret
.LBB26_4:
	move	$a0, $zero
	ret
.Lfunc_end26:
	.size	_ZNK2kc23impl_problem_Problem1we9subphylumEi, .Lfunc_end26-_ZNK2kc23impl_problem_Problem1we9subphylumEi
                                        # -- End function
	.globl	_ZNK2kc24impl_problem_Problem1tID9subphylumEi # -- Begin function _ZNK2kc24impl_problem_Problem1tID9subphylumEi
	.p2align	5
	.type	_ZNK2kc24impl_problem_Problem1tID9subphylumEi,@function
_ZNK2kc24impl_problem_Problem1tID9subphylumEi: # @_ZNK2kc24impl_problem_Problem1tID9subphylumEi
# %bb.0:                                # %entry
	ori	$a2, $zero, 1
	beq	$a1, $a2, .LBB27_3
# %bb.1:                                # %entry
	bnez	$a1, .LBB27_4
# %bb.2:                                # %sw.bb
	ld.d	$a0, $a0, 8
	ret
.LBB27_3:                               # %sw.bb2
	ld.d	$a0, $a0, 16
	ret
.LBB27_4:
	move	$a0, $zero
	ret
.Lfunc_end27:
	.size	_ZNK2kc24impl_problem_Problem1tID9subphylumEi, .Lfunc_end27-_ZNK2kc24impl_problem_Problem1tID9subphylumEi
                                        # -- End function
	.globl	_ZNK2kc23impl_problem_Problem1ID9subphylumEi # -- Begin function _ZNK2kc23impl_problem_Problem1ID9subphylumEi
	.p2align	5
	.type	_ZNK2kc23impl_problem_Problem1ID9subphylumEi,@function
_ZNK2kc23impl_problem_Problem1ID9subphylumEi: # @_ZNK2kc23impl_problem_Problem1ID9subphylumEi
# %bb.0:                                # %entry
	ori	$a2, $zero, 1
	beq	$a1, $a2, .LBB28_3
# %bb.1:                                # %entry
	bnez	$a1, .LBB28_4
# %bb.2:                                # %sw.bb
	ld.d	$a0, $a0, 8
	ret
.LBB28_3:                               # %sw.bb2
	ld.d	$a0, $a0, 16
	ret
.LBB28_4:
	move	$a0, $zero
	ret
.Lfunc_end28:
	.size	_ZNK2kc23impl_problem_Problem1ID9subphylumEi, .Lfunc_end28-_ZNK2kc23impl_problem_Problem1ID9subphylumEi
                                        # -- End function
	.globl	_ZNK2kc21impl_problem_Problem19subphylumEi # -- Begin function _ZNK2kc21impl_problem_Problem19subphylumEi
	.p2align	5
	.type	_ZNK2kc21impl_problem_Problem19subphylumEi,@function
_ZNK2kc21impl_problem_Problem19subphylumEi: # @_ZNK2kc21impl_problem_Problem19subphylumEi
# %bb.0:                                # %entry
	ld.d	$a0, $a0, 8
	sltui	$a1, $a1, 1
	maskeqz	$a0, $a0, $a1
	ret
.Lfunc_end29:
	.size	_ZNK2kc21impl_problem_Problem19subphylumEi, .Lfunc_end29-_ZNK2kc21impl_problem_Problem19subphylumEi
                                        # -- End function
	.globl	_ZNK2kc18impl_error_Warning9subphylumEi # -- Begin function _ZNK2kc18impl_error_Warning9subphylumEi
	.p2align	5
	.type	_ZNK2kc18impl_error_Warning9subphylumEi,@function
_ZNK2kc18impl_error_Warning9subphylumEi: # @_ZNK2kc18impl_error_Warning9subphylumEi
# %bb.0:                                # %entry
	ori	$a2, $zero, 1
	beq	$a1, $a2, .LBB30_3
# %bb.1:                                # %entry
	bnez	$a1, .LBB30_4
# %bb.2:                                # %sw.bb
	ld.d	$a0, $a0, 8
	ret
.LBB30_3:                               # %sw.bb2
	ld.d	$a0, $a0, 16
	ret
.LBB30_4:
	move	$a0, $zero
	ret
.Lfunc_end30:
	.size	_ZNK2kc18impl_error_Warning9subphylumEi, .Lfunc_end30-_ZNK2kc18impl_error_Warning9subphylumEi
                                        # -- End function
	.globl	_ZNK2kc19impl_error_NonFatal9subphylumEi # -- Begin function _ZNK2kc19impl_error_NonFatal9subphylumEi
	.p2align	5
	.type	_ZNK2kc19impl_error_NonFatal9subphylumEi,@function
_ZNK2kc19impl_error_NonFatal9subphylumEi: # @_ZNK2kc19impl_error_NonFatal9subphylumEi
# %bb.0:                                # %entry
	ori	$a2, $zero, 1
	beq	$a1, $a2, .LBB31_3
# %bb.1:                                # %entry
	bnez	$a1, .LBB31_4
# %bb.2:                                # %sw.bb
	ld.d	$a0, $a0, 8
	ret
.LBB31_3:                               # %sw.bb2
	ld.d	$a0, $a0, 16
	ret
.LBB31_4:
	move	$a0, $zero
	ret
.Lfunc_end31:
	.size	_ZNK2kc19impl_error_NonFatal9subphylumEi, .Lfunc_end31-_ZNK2kc19impl_error_NonFatal9subphylumEi
                                        # -- End function
	.globl	_ZNK2kc16impl_error_Fatal9subphylumEi # -- Begin function _ZNK2kc16impl_error_Fatal9subphylumEi
	.p2align	5
	.type	_ZNK2kc16impl_error_Fatal9subphylumEi,@function
_ZNK2kc16impl_error_Fatal9subphylumEi:  # @_ZNK2kc16impl_error_Fatal9subphylumEi
# %bb.0:                                # %entry
	ori	$a2, $zero, 1
	beq	$a1, $a2, .LBB32_3
# %bb.1:                                # %entry
	bnez	$a1, .LBB32_4
# %bb.2:                                # %sw.bb
	ld.d	$a0, $a0, 8
	ret
.LBB32_3:                               # %sw.bb2
	ld.d	$a0, $a0, 16
	ret
.LBB32_4:
	move	$a0, $zero
	ret
.Lfunc_end32:
	.size	_ZNK2kc16impl_error_Fatal9subphylumEi, .Lfunc_end32-_ZNK2kc16impl_error_Fatal9subphylumEi
                                        # -- End function
	.globl	_ZNK2kc19impl_baseclass_list9subphylumEi # -- Begin function _ZNK2kc19impl_baseclass_list9subphylumEi
	.p2align	5
	.type	_ZNK2kc19impl_baseclass_list9subphylumEi,@function
_ZNK2kc19impl_baseclass_list9subphylumEi: # @_ZNK2kc19impl_baseclass_list9subphylumEi
# %bb.0:                                # %entry
	ori	$a2, $zero, 1
	beq	$a1, $a2, .LBB33_3
# %bb.1:                                # %entry
	bnez	$a1, .LBB33_4
# %bb.2:                                # %sw.bb
	ld.d	$a0, $a0, 8
	ret
.LBB33_3:                               # %sw.bb2
	ld.d	$a0, $a0, 16
	ret
.LBB33_4:
	move	$a0, $zero
	ret
.Lfunc_end33:
	.size	_ZNK2kc19impl_baseclass_list9subphylumEi, .Lfunc_end33-_ZNK2kc19impl_baseclass_list9subphylumEi
                                        # -- End function
	.globl	_ZNK2kc33impl_baseclass_decl_BaseClassDecl9subphylumEi # -- Begin function _ZNK2kc33impl_baseclass_decl_BaseClassDecl9subphylumEi
	.p2align	5
	.type	_ZNK2kc33impl_baseclass_decl_BaseClassDecl9subphylumEi,@function
_ZNK2kc33impl_baseclass_decl_BaseClassDecl9subphylumEi: # @_ZNK2kc33impl_baseclass_decl_BaseClassDecl9subphylumEi
# %bb.0:                                # %entry
	ori	$a2, $zero, 1
	beq	$a1, $a2, .LBB34_3
# %bb.1:                                # %entry
	bnez	$a1, .LBB34_4
# %bb.2:                                # %sw.bb
	ld.d	$a0, $a0, 8
	ret
.LBB34_3:                               # %sw.bb2
	ld.d	$a0, $a0, 16
	ret
.LBB34_4:
	move	$a0, $zero
	ret
.Lfunc_end34:
	.size	_ZNK2kc33impl_baseclass_decl_BaseClassDecl9subphylumEi, .Lfunc_end34-_ZNK2kc33impl_baseclass_decl_BaseClassDecl9subphylumEi
                                        # -- End function
	.globl	_ZNK2kc27impl_baseclass_declarations9subphylumEi # -- Begin function _ZNK2kc27impl_baseclass_declarations9subphylumEi
	.p2align	5
	.type	_ZNK2kc27impl_baseclass_declarations9subphylumEi,@function
_ZNK2kc27impl_baseclass_declarations9subphylumEi: # @_ZNK2kc27impl_baseclass_declarations9subphylumEi
# %bb.0:                                # %entry
	ori	$a2, $zero, 1
	beq	$a1, $a2, .LBB35_3
# %bb.1:                                # %entry
	bnez	$a1, .LBB35_4
# %bb.2:                                # %sw.bb
	ld.d	$a0, $a0, 8
	ret
.LBB35_3:                               # %sw.bb2
	ld.d	$a0, $a0, 16
	ret
.LBB35_4:
	move	$a0, $zero
	ret
.Lfunc_end35:
	.size	_ZNK2kc27impl_baseclass_declarations9subphylumEi, .Lfunc_end35-_ZNK2kc27impl_baseclass_declarations9subphylumEi
                                        # -- End function
	.globl	_ZNK2kc28impl_ac_base_init_AcBaseInit9subphylumEi # -- Begin function _ZNK2kc28impl_ac_base_init_AcBaseInit9subphylumEi
	.p2align	5
	.type	_ZNK2kc28impl_ac_base_init_AcBaseInit9subphylumEi,@function
_ZNK2kc28impl_ac_base_init_AcBaseInit9subphylumEi: # @_ZNK2kc28impl_ac_base_init_AcBaseInit9subphylumEi
# %bb.0:                                # %entry
	ori	$a2, $zero, 1
	beq	$a1, $a2, .LBB36_3
# %bb.1:                                # %entry
	bnez	$a1, .LBB36_4
# %bb.2:                                # %sw.bb
	ld.d	$a0, $a0, 8
	ret
.LBB36_3:                               # %sw.bb2
	ld.d	$a0, $a0, 16
	ret
.LBB36_4:
	move	$a0, $zero
	ret
.Lfunc_end36:
	.size	_ZNK2kc28impl_ac_base_init_AcBaseInit9subphylumEi, .Lfunc_end36-_ZNK2kc28impl_ac_base_init_AcBaseInit9subphylumEi
                                        # -- End function
	.globl	_ZNK2kc22impl_ac_base_init_list9subphylumEi # -- Begin function _ZNK2kc22impl_ac_base_init_list9subphylumEi
	.p2align	5
	.type	_ZNK2kc22impl_ac_base_init_list9subphylumEi,@function
_ZNK2kc22impl_ac_base_init_list9subphylumEi: # @_ZNK2kc22impl_ac_base_init_list9subphylumEi
# %bb.0:                                # %entry
	ori	$a2, $zero, 1
	beq	$a1, $a2, .LBB37_3
# %bb.1:                                # %entry
	bnez	$a1, .LBB37_4
# %bb.2:                                # %sw.bb
	ld.d	$a0, $a0, 8
	ret
.LBB37_3:                               # %sw.bb2
	ld.d	$a0, $a0, 16
	ret
.LBB37_4:
	move	$a0, $zero
	ret
.Lfunc_end37:
	.size	_ZNK2kc22impl_ac_base_init_list9subphylumEi, .Lfunc_end37-_ZNK2kc22impl_ac_base_init_list9subphylumEi
                                        # -- End function
	.globl	_ZNK2kc40impl_ac_opt_base_init_list_AcYesBaseInit9subphylumEi # -- Begin function _ZNK2kc40impl_ac_opt_base_init_list_AcYesBaseInit9subphylumEi
	.p2align	5
	.type	_ZNK2kc40impl_ac_opt_base_init_list_AcYesBaseInit9subphylumEi,@function
_ZNK2kc40impl_ac_opt_base_init_list_AcYesBaseInit9subphylumEi: # @_ZNK2kc40impl_ac_opt_base_init_list_AcYesBaseInit9subphylumEi
# %bb.0:                                # %entry
	ld.d	$a0, $a0, 8
	sltui	$a1, $a1, 1
	maskeqz	$a0, $a0, $a1
	ret
.Lfunc_end38:
	.size	_ZNK2kc40impl_ac_opt_base_init_list_AcYesBaseInit9subphylumEi, .Lfunc_end38-_ZNK2kc40impl_ac_opt_base_init_list_AcYesBaseInit9subphylumEi
                                        # -- End function
	.globl	_ZNK2kc32impl_ac_constant_expression_list9subphylumEi # -- Begin function _ZNK2kc32impl_ac_constant_expression_list9subphylumEi
	.p2align	5
	.type	_ZNK2kc32impl_ac_constant_expression_list9subphylumEi,@function
_ZNK2kc32impl_ac_constant_expression_list9subphylumEi: # @_ZNK2kc32impl_ac_constant_expression_list9subphylumEi
# %bb.0:                                # %entry
	ori	$a2, $zero, 1
	beq	$a1, $a2, .LBB39_3
# %bb.1:                                # %entry
	bnez	$a1, .LBB39_4
# %bb.2:                                # %sw.bb
	ld.d	$a0, $a0, 8
	ret
.LBB39_3:                               # %sw.bb2
	ld.d	$a0, $a0, 16
	ret
.LBB39_4:
	move	$a0, $zero
	ret
.Lfunc_end39:
	.size	_ZNK2kc32impl_ac_constant_expression_list9subphylumEi, .Lfunc_end39-_ZNK2kc32impl_ac_constant_expression_list9subphylumEi
                                        # -- End function
	.globl	_ZNK2kc39impl_ac_constant_expression_AcConstExpr9subphylumEi # -- Begin function _ZNK2kc39impl_ac_constant_expression_AcConstExpr9subphylumEi
	.p2align	5
	.type	_ZNK2kc39impl_ac_constant_expression_AcConstExpr9subphylumEi,@function
_ZNK2kc39impl_ac_constant_expression_AcConstExpr9subphylumEi: # @_ZNK2kc39impl_ac_constant_expression_AcConstExpr9subphylumEi
# %bb.0:                                # %entry
	ld.d	$a0, $a0, 8
	sltui	$a1, $a1, 1
	maskeqz	$a0, $a0, $a1
	ret
.Lfunc_end40:
	.size	_ZNK2kc39impl_ac_constant_expression_AcConstExpr9subphylumEi, .Lfunc_end40-_ZNK2kc39impl_ac_constant_expression_AcConstExpr9subphylumEi
                                        # -- End function
	.globl	_ZNK2kc60impl_ac_constant_expression_option_Yesac_constant_expression9subphylumEi # -- Begin function _ZNK2kc60impl_ac_constant_expression_option_Yesac_constant_expression9subphylumEi
	.p2align	5
	.type	_ZNK2kc60impl_ac_constant_expression_option_Yesac_constant_expression9subphylumEi,@function
_ZNK2kc60impl_ac_constant_expression_option_Yesac_constant_expression9subphylumEi: # @_ZNK2kc60impl_ac_constant_expression_option_Yesac_constant_expression9subphylumEi
# %bb.0:                                # %entry
	ld.d	$a0, $a0, 8
	sltui	$a1, $a1, 1
	maskeqz	$a0, $a0, $a1
	ret
.Lfunc_end41:
	.size	_ZNK2kc60impl_ac_constant_expression_option_Yesac_constant_expression9subphylumEi, .Lfunc_end41-_ZNK2kc60impl_ac_constant_expression_option_Yesac_constant_expression9subphylumEi
                                        # -- End function
	.globl	_ZNK2kc49impl_ac_direct_abstract_declarator_AcDirAbsdeclFn9subphylumEi # -- Begin function _ZNK2kc49impl_ac_direct_abstract_declarator_AcDirAbsdeclFn9subphylumEi
	.p2align	5
	.type	_ZNK2kc49impl_ac_direct_abstract_declarator_AcDirAbsdeclFn9subphylumEi,@function
_ZNK2kc49impl_ac_direct_abstract_declarator_AcDirAbsdeclFn9subphylumEi: # @_ZNK2kc49impl_ac_direct_abstract_declarator_AcDirAbsdeclFn9subphylumEi
# %bb.0:                                # %entry
	ori	$a2, $zero, 1
	beq	$a1, $a2, .LBB42_3
# %bb.1:                                # %entry
	bnez	$a1, .LBB42_4
# %bb.2:                                # %sw.bb
	ld.d	$a0, $a0, 8
	ret
.LBB42_3:                               # %sw.bb2
	ld.d	$a0, $a0, 16
	ret
.LBB42_4:
	move	$a0, $zero
	ret
.Lfunc_end42:
	.size	_ZNK2kc49impl_ac_direct_abstract_declarator_AcDirAbsdeclFn9subphylumEi, .Lfunc_end42-_ZNK2kc49impl_ac_direct_abstract_declarator_AcDirAbsdeclFn9subphylumEi
                                        # -- End function
	.globl	_ZNK2kc52impl_ac_direct_abstract_declarator_AcDirAbsdeclArray9subphylumEi # -- Begin function _ZNK2kc52impl_ac_direct_abstract_declarator_AcDirAbsdeclArray9subphylumEi
	.p2align	5
	.type	_ZNK2kc52impl_ac_direct_abstract_declarator_AcDirAbsdeclArray9subphylumEi,@function
_ZNK2kc52impl_ac_direct_abstract_declarator_AcDirAbsdeclArray9subphylumEi: # @_ZNK2kc52impl_ac_direct_abstract_declarator_AcDirAbsdeclArray9subphylumEi
# %bb.0:                                # %entry
	ori	$a2, $zero, 1
	beq	$a1, $a2, .LBB43_3
# %bb.1:                                # %entry
	bnez	$a1, .LBB43_4
# %bb.2:                                # %sw.bb
	ld.d	$a0, $a0, 8
	ret
.LBB43_3:                               # %sw.bb2
	ld.d	$a0, $a0, 16
	ret
.LBB43_4:
	move	$a0, $zero
	ret
.Lfunc_end43:
	.size	_ZNK2kc52impl_ac_direct_abstract_declarator_AcDirAbsdeclArray9subphylumEi, .Lfunc_end43-_ZNK2kc52impl_ac_direct_abstract_declarator_AcDirAbsdeclArray9subphylumEi
                                        # -- End function
	.globl	_ZNK2kc51impl_ac_direct_abstract_declarator_AcDirAbsdeclPack9subphylumEi # -- Begin function _ZNK2kc51impl_ac_direct_abstract_declarator_AcDirAbsdeclPack9subphylumEi
	.p2align	5
	.type	_ZNK2kc51impl_ac_direct_abstract_declarator_AcDirAbsdeclPack9subphylumEi,@function
_ZNK2kc51impl_ac_direct_abstract_declarator_AcDirAbsdeclPack9subphylumEi: # @_ZNK2kc51impl_ac_direct_abstract_declarator_AcDirAbsdeclPack9subphylumEi
# %bb.0:                                # %entry
	ld.d	$a0, $a0, 8
	sltui	$a1, $a1, 1
	maskeqz	$a0, $a0, $a1
	ret
.Lfunc_end44:
	.size	_ZNK2kc51impl_ac_direct_abstract_declarator_AcDirAbsdeclPack9subphylumEi, .Lfunc_end44-_ZNK2kc51impl_ac_direct_abstract_declarator_AcDirAbsdeclPack9subphylumEi
                                        # -- End function
	.globl	_ZNK2kc74impl_ac_direct_abstract_declarator_option_Yesac_direct_abstract_declarator9subphylumEi # -- Begin function _ZNK2kc74impl_ac_direct_abstract_declarator_option_Yesac_direct_abstract_declarator9subphylumEi
	.p2align	5
	.type	_ZNK2kc74impl_ac_direct_abstract_declarator_option_Yesac_direct_abstract_declarator9subphylumEi,@function
_ZNK2kc74impl_ac_direct_abstract_declarator_option_Yesac_direct_abstract_declarator9subphylumEi: # @_ZNK2kc74impl_ac_direct_abstract_declarator_option_Yesac_direct_abstract_declarator9subphylumEi
# %bb.0:                                # %entry
	ld.d	$a0, $a0, 8
	sltui	$a1, $a1, 1
	maskeqz	$a0, $a0, $a1
	ret
.Lfunc_end45:
	.size	_ZNK2kc74impl_ac_direct_abstract_declarator_option_Yesac_direct_abstract_declarator9subphylumEi, .Lfunc_end45-_ZNK2kc74impl_ac_direct_abstract_declarator_option_Yesac_direct_abstract_declarator9subphylumEi
                                        # -- End function
	.globl	_ZNK2kc44impl_ac_abstract_declarator_AcAbsdeclDirdecl9subphylumEi # -- Begin function _ZNK2kc44impl_ac_abstract_declarator_AcAbsdeclDirdecl9subphylumEi
	.p2align	5
	.type	_ZNK2kc44impl_ac_abstract_declarator_AcAbsdeclDirdecl9subphylumEi,@function
_ZNK2kc44impl_ac_abstract_declarator_AcAbsdeclDirdecl9subphylumEi: # @_ZNK2kc44impl_ac_abstract_declarator_AcAbsdeclDirdecl9subphylumEi
# %bb.0:                                # %entry
	ori	$a2, $zero, 1
	beq	$a1, $a2, .LBB46_3
# %bb.1:                                # %entry
	bnez	$a1, .LBB46_4
# %bb.2:                                # %sw.bb
	ld.d	$a0, $a0, 8
	ret
.LBB46_3:                               # %sw.bb2
	ld.d	$a0, $a0, 16
	ret
.LBB46_4:
	move	$a0, $zero
	ret
.Lfunc_end46:
	.size	_ZNK2kc44impl_ac_abstract_declarator_AcAbsdeclDirdecl9subphylumEi, .Lfunc_end46-_ZNK2kc44impl_ac_abstract_declarator_AcAbsdeclDirdecl9subphylumEi
                                        # -- End function
	.globl	_ZNK2kc44impl_ac_abstract_declarator_AcAbsdeclPointer9subphylumEi # -- Begin function _ZNK2kc44impl_ac_abstract_declarator_AcAbsdeclPointer9subphylumEi
	.p2align	5
	.type	_ZNK2kc44impl_ac_abstract_declarator_AcAbsdeclPointer9subphylumEi,@function
_ZNK2kc44impl_ac_abstract_declarator_AcAbsdeclPointer9subphylumEi: # @_ZNK2kc44impl_ac_abstract_declarator_AcAbsdeclPointer9subphylumEi
# %bb.0:                                # %entry
	ld.d	$a0, $a0, 8
	sltui	$a1, $a1, 1
	maskeqz	$a0, $a0, $a1
	ret
.Lfunc_end47:
	.size	_ZNK2kc44impl_ac_abstract_declarator_AcAbsdeclPointer9subphylumEi, .Lfunc_end47-_ZNK2kc44impl_ac_abstract_declarator_AcAbsdeclPointer9subphylumEi
                                        # -- End function
	.p2align	5
# %bb.0:                                # %entry
	ori	$a2, $zero, 1
	beq	$a1, $a2, .LBB48_3
# %bb.1:                                # %entry
	bnez	$a1, .LBB48_4
# %bb.2:                                # %sw.bb
	ld.d	$a0, $a0, 8
	ret
.LBB48_3:                               # %sw.bb2
	ld.d	$a0, $a0, 16
	ret
.LBB48_4:
	move	$a0, $zero
	ret
.Lfunc_end48:
                                        # -- End function
	.globl	_ZNK2kc46impl_ac_parameter_declaration_AcParDeclAbsdecl9subphylumEi # -- Begin function _ZNK2kc46impl_ac_parameter_declaration_AcParDeclAbsdecl9subphylumEi
	.p2align	5
	.type	_ZNK2kc46impl_ac_parameter_declaration_AcParDeclAbsdecl9subphylumEi,@function
_ZNK2kc46impl_ac_parameter_declaration_AcParDeclAbsdecl9subphylumEi: # @_ZNK2kc46impl_ac_parameter_declaration_AcParDeclAbsdecl9subphylumEi
# %bb.0:                                # %entry
	ori	$a2, $zero, 2
	beq	$a1, $a2, .LBB49_5
# %bb.1:                                # %entry
	ori	$a2, $zero, 1
	beq	$a1, $a2, .LBB49_4
# %bb.2:                                # %entry
	bnez	$a1, .LBB49_6
# %bb.3:                                # %sw.bb
	ld.d	$a0, $a0, 8
	ret
.LBB49_4:                               # %sw.bb2
	ld.d	$a0, $a0, 16
	ret
.LBB49_5:                               # %sw.bb3
	ld.d	$a0, $a0, 24
	ret
.LBB49_6:
	move	$a0, $zero
	ret
.Lfunc_end49:
	.size	_ZNK2kc46impl_ac_parameter_declaration_AcParDeclAbsdecl9subphylumEi, .Lfunc_end49-_ZNK2kc46impl_ac_parameter_declaration_AcParDeclAbsdecl9subphylumEi
                                        # -- End function
	.globl	_ZNK2kc43impl_ac_parameter_declaration_AcParDeclDecl9subphylumEi # -- Begin function _ZNK2kc43impl_ac_parameter_declaration_AcParDeclDecl9subphylumEi
	.p2align	5
	.type	_ZNK2kc43impl_ac_parameter_declaration_AcParDeclDecl9subphylumEi,@function
_ZNK2kc43impl_ac_parameter_declaration_AcParDeclDecl9subphylumEi: # @_ZNK2kc43impl_ac_parameter_declaration_AcParDeclDecl9subphylumEi
# %bb.0:                                # %entry
	ori	$a2, $zero, 2
	beq	$a1, $a2, .LBB50_5
# %bb.1:                                # %entry
	ori	$a2, $zero, 1
	beq	$a1, $a2, .LBB50_4
# %bb.2:                                # %entry
	bnez	$a1, .LBB50_6
# %bb.3:                                # %sw.bb
	ld.d	$a0, $a0, 8
	ret
.LBB50_4:                               # %sw.bb2
	ld.d	$a0, $a0, 16
	ret
.LBB50_5:                               # %sw.bb3
	ld.d	$a0, $a0, 24
	ret
.LBB50_6:
	move	$a0, $zero
	ret
.Lfunc_end50:
	.size	_ZNK2kc43impl_ac_parameter_declaration_AcParDeclDecl9subphylumEi, .Lfunc_end50-_ZNK2kc43impl_ac_parameter_declaration_AcParDeclDecl9subphylumEi
                                        # -- End function
	.globl	_ZNK2kc22impl_ac_parameter_list9subphylumEi # -- Begin function _ZNK2kc22impl_ac_parameter_list9subphylumEi
	.p2align	5
	.type	_ZNK2kc22impl_ac_parameter_list9subphylumEi,@function
_ZNK2kc22impl_ac_parameter_list9subphylumEi: # @_ZNK2kc22impl_ac_parameter_list9subphylumEi
# %bb.0:                                # %entry
	ori	$a2, $zero, 1
	beq	$a1, $a2, .LBB51_3
# %bb.1:                                # %entry
	bnez	$a1, .LBB51_4
# %bb.2:                                # %sw.bb
	ld.d	$a0, $a0, 8
	ret
.LBB51_3:                               # %sw.bb2
	ld.d	$a0, $a0, 16
	ret
.LBB51_4:
	move	$a0, $zero
	ret
.Lfunc_end51:
	.size	_ZNK2kc22impl_ac_parameter_list9subphylumEi, .Lfunc_end51-_ZNK2kc22impl_ac_parameter_list9subphylumEi
                                        # -- End function
	.globl	_ZNK2kc41impl_ac_parameter_type_list_AcParList3Dot9subphylumEi # -- Begin function _ZNK2kc41impl_ac_parameter_type_list_AcParList3Dot9subphylumEi
	.p2align	5
	.type	_ZNK2kc41impl_ac_parameter_type_list_AcParList3Dot9subphylumEi,@function
_ZNK2kc41impl_ac_parameter_type_list_AcParList3Dot9subphylumEi: # @_ZNK2kc41impl_ac_parameter_type_list_AcParList3Dot9subphylumEi
# %bb.0:                                # %entry
	ld.d	$a0, $a0, 8
	sltui	$a1, $a1, 1
	maskeqz	$a0, $a0, $a1
	ret
.Lfunc_end52:
	.size	_ZNK2kc41impl_ac_parameter_type_list_AcParList3Dot9subphylumEi, .Lfunc_end52-_ZNK2kc41impl_ac_parameter_type_list_AcParList3Dot9subphylumEi
                                        # -- End function
	.globl	_ZNK2kc37impl_ac_parameter_type_list_AcParList9subphylumEi # -- Begin function _ZNK2kc37impl_ac_parameter_type_list_AcParList9subphylumEi
	.p2align	5
	.type	_ZNK2kc37impl_ac_parameter_type_list_AcParList9subphylumEi,@function
_ZNK2kc37impl_ac_parameter_type_list_AcParList9subphylumEi: # @_ZNK2kc37impl_ac_parameter_type_list_AcParList9subphylumEi
# %bb.0:                                # %entry
	ld.d	$a0, $a0, 8
	sltui	$a1, $a1, 1
	maskeqz	$a0, $a0, $a1
	ret
.Lfunc_end53:
	.size	_ZNK2kc37impl_ac_parameter_type_list_AcParList9subphylumEi, .Lfunc_end53-_ZNK2kc37impl_ac_parameter_type_list_AcParList9subphylumEi
                                        # -- End function
	.globl	_ZNK2kc27impl_ac_type_qualifier_list9subphylumEi # -- Begin function _ZNK2kc27impl_ac_type_qualifier_list9subphylumEi
	.p2align	5
	.type	_ZNK2kc27impl_ac_type_qualifier_list9subphylumEi,@function
_ZNK2kc27impl_ac_type_qualifier_list9subphylumEi: # @_ZNK2kc27impl_ac_type_qualifier_list9subphylumEi
# %bb.0:                                # %entry
	ori	$a2, $zero, 1
	beq	$a1, $a2, .LBB54_3
# %bb.1:                                # %entry
	bnez	$a1, .LBB54_4
# %bb.2:                                # %sw.bb
	ld.d	$a0, $a0, 8
	ret
.LBB54_3:                               # %sw.bb2
	ld.d	$a0, $a0, 16
	ret
.LBB54_4:
	move	$a0, $zero
	ret
.Lfunc_end54:
	.size	_ZNK2kc27impl_ac_type_qualifier_list9subphylumEi, .Lfunc_end54-_ZNK2kc27impl_ac_type_qualifier_list9subphylumEi
                                        # -- End function
	.globl	_ZNK2kc28impl_ac_class_qualifier_list9subphylumEi # -- Begin function _ZNK2kc28impl_ac_class_qualifier_list9subphylumEi
	.p2align	5
	.type	_ZNK2kc28impl_ac_class_qualifier_list9subphylumEi,@function
_ZNK2kc28impl_ac_class_qualifier_list9subphylumEi: # @_ZNK2kc28impl_ac_class_qualifier_list9subphylumEi
# %bb.0:                                # %entry
	ori	$a2, $zero, 1
	beq	$a1, $a2, .LBB55_3
# %bb.1:                                # %entry
	bnez	$a1, .LBB55_4
# %bb.2:                                # %sw.bb
	ld.d	$a0, $a0, 8
	ret
.LBB55_3:                               # %sw.bb2
	ld.d	$a0, $a0, 16
	ret
.LBB55_4:
	move	$a0, $zero
	ret
.Lfunc_end55:
	.size	_ZNK2kc28impl_ac_class_qualifier_list9subphylumEi, .Lfunc_end55-_ZNK2kc28impl_ac_class_qualifier_list9subphylumEi
                                        # -- End function
	.globl	_ZNK2kc33impl_ac_class_qualifier_help_list9subphylumEi # -- Begin function _ZNK2kc33impl_ac_class_qualifier_help_list9subphylumEi
	.p2align	5
	.type	_ZNK2kc33impl_ac_class_qualifier_help_list9subphylumEi,@function
_ZNK2kc33impl_ac_class_qualifier_help_list9subphylumEi: # @_ZNK2kc33impl_ac_class_qualifier_help_list9subphylumEi
# %bb.0:                                # %entry
	ori	$a2, $zero, 1
	beq	$a1, $a2, .LBB56_3
# %bb.1:                                # %entry
	bnez	$a1, .LBB56_4
# %bb.2:                                # %sw.bb
	ld.d	$a0, $a0, 8
	ret
.LBB56_3:                               # %sw.bb2
	ld.d	$a0, $a0, 16
	ret
.LBB56_4:
	move	$a0, $zero
	ret
.Lfunc_end56:
	.size	_ZNK2kc33impl_ac_class_qualifier_help_list9subphylumEi, .Lfunc_end56-_ZNK2kc33impl_ac_class_qualifier_help_list9subphylumEi
                                        # -- End function
	.globl	_ZNK2kc36impl_ac_operator_name_AcOperatorName9subphylumEi # -- Begin function _ZNK2kc36impl_ac_operator_name_AcOperatorName9subphylumEi
	.p2align	5
	.type	_ZNK2kc36impl_ac_operator_name_AcOperatorName9subphylumEi,@function
_ZNK2kc36impl_ac_operator_name_AcOperatorName9subphylumEi: # @_ZNK2kc36impl_ac_operator_name_AcOperatorName9subphylumEi
# %bb.0:                                # %entry
	ld.d	$a0, $a0, 24
	sltui	$a1, $a1, 1
	maskeqz	$a0, $a0, $a1
	ret
.Lfunc_end57:
	.size	_ZNK2kc36impl_ac_operator_name_AcOperatorName9subphylumEi, .Lfunc_end57-_ZNK2kc36impl_ac_operator_name_AcOperatorName9subphylumEi
                                        # -- End function
	.globl	_ZNK2kc29impl_ac_pointer_AcPointerCons9subphylumEi # -- Begin function _ZNK2kc29impl_ac_pointer_AcPointerCons9subphylumEi
	.p2align	5
	.type	_ZNK2kc29impl_ac_pointer_AcPointerCons9subphylumEi,@function
_ZNK2kc29impl_ac_pointer_AcPointerCons9subphylumEi: # @_ZNK2kc29impl_ac_pointer_AcPointerCons9subphylumEi
# %bb.0:                                # %entry
	ori	$a2, $zero, 1
	beq	$a1, $a2, .LBB58_3
# %bb.1:                                # %entry
	bnez	$a1, .LBB58_4
# %bb.2:                                # %sw.bb
	ld.d	$a0, $a0, 8
	ret
.LBB58_3:                               # %sw.bb2
	ld.d	$a0, $a0, 16
	ret
.LBB58_4:
	move	$a0, $zero
	ret
.Lfunc_end58:
	.size	_ZNK2kc29impl_ac_pointer_AcPointerCons9subphylumEi, .Lfunc_end58-_ZNK2kc29impl_ac_pointer_AcPointerCons9subphylumEi
                                        # -- End function
	.globl	_ZNK2kc28impl_ac_pointer_AcPointerNil9subphylumEi # -- Begin function _ZNK2kc28impl_ac_pointer_AcPointerNil9subphylumEi
	.p2align	5
	.type	_ZNK2kc28impl_ac_pointer_AcPointerNil9subphylumEi,@function
_ZNK2kc28impl_ac_pointer_AcPointerNil9subphylumEi: # @_ZNK2kc28impl_ac_pointer_AcPointerNil9subphylumEi
# %bb.0:                                # %entry
	ld.d	$a0, $a0, 8
	sltui	$a1, $a1, 1
	maskeqz	$a0, $a0, $a1
	ret
.Lfunc_end59:
	.size	_ZNK2kc28impl_ac_pointer_AcPointerNil9subphylumEi, .Lfunc_end59-_ZNK2kc28impl_ac_pointer_AcPointerNil9subphylumEi
                                        # -- End function
	.globl	_ZNK2kc33impl_ac_pointer_option_Yespointer9subphylumEi # -- Begin function _ZNK2kc33impl_ac_pointer_option_Yespointer9subphylumEi
	.p2align	5
	.type	_ZNK2kc33impl_ac_pointer_option_Yespointer9subphylumEi,@function
_ZNK2kc33impl_ac_pointer_option_Yespointer9subphylumEi: # @_ZNK2kc33impl_ac_pointer_option_Yespointer9subphylumEi
# %bb.0:                                # %entry
	ld.d	$a0, $a0, 8
	sltui	$a1, $a1, 1
	maskeqz	$a0, $a0, $a1
	ret
.Lfunc_end60:
	.size	_ZNK2kc33impl_ac_pointer_option_Yespointer9subphylumEi, .Lfunc_end60-_ZNK2kc33impl_ac_pointer_option_Yespointer9subphylumEi
                                        # -- End function
	.globl	_ZNK2kc42impl_ac_direct_declarator_AcOperatorDeclId9subphylumEi # -- Begin function _ZNK2kc42impl_ac_direct_declarator_AcOperatorDeclId9subphylumEi
	.p2align	5
	.type	_ZNK2kc42impl_ac_direct_declarator_AcOperatorDeclId9subphylumEi,@function
_ZNK2kc42impl_ac_direct_declarator_AcOperatorDeclId9subphylumEi: # @_ZNK2kc42impl_ac_direct_declarator_AcOperatorDeclId9subphylumEi
# %bb.0:                                # %entry
	ld.d	$a0, $a0, 8
	sltui	$a1, $a1, 1
	maskeqz	$a0, $a0, $a1
	ret
.Lfunc_end61:
	.size	_ZNK2kc42impl_ac_direct_declarator_AcOperatorDeclId9subphylumEi, .Lfunc_end61-_ZNK2kc42impl_ac_direct_declarator_AcOperatorDeclId9subphylumEi
                                        # -- End function
	.globl	_ZNK2kc44impl_ac_direct_declarator_AcConvOperatorDecl9subphylumEi # -- Begin function _ZNK2kc44impl_ac_direct_declarator_AcConvOperatorDecl9subphylumEi
	.p2align	5
	.type	_ZNK2kc44impl_ac_direct_declarator_AcConvOperatorDecl9subphylumEi,@function
_ZNK2kc44impl_ac_direct_declarator_AcConvOperatorDecl9subphylumEi: # @_ZNK2kc44impl_ac_direct_declarator_AcConvOperatorDecl9subphylumEi
# %bb.0:                                # %entry
	ori	$a2, $zero, 1
	beq	$a1, $a2, .LBB62_3
# %bb.1:                                # %entry
	bnez	$a1, .LBB62_4
# %bb.2:                                # %sw.bb
	ld.d	$a0, $a0, 8
	ret
.LBB62_3:                               # %sw.bb2
	ld.d	$a0, $a0, 16
	ret
.LBB62_4:
	move	$a0, $zero
	ret
.Lfunc_end62:
	.size	_ZNK2kc44impl_ac_direct_declarator_AcConvOperatorDecl9subphylumEi, .Lfunc_end62-_ZNK2kc44impl_ac_direct_declarator_AcConvOperatorDecl9subphylumEi
                                        # -- End function
	.globl	_ZNK2kc38impl_ac_direct_declarator_AcMemberDecl9subphylumEi # -- Begin function _ZNK2kc38impl_ac_direct_declarator_AcMemberDecl9subphylumEi
	.p2align	5
	.type	_ZNK2kc38impl_ac_direct_declarator_AcMemberDecl9subphylumEi,@function
_ZNK2kc38impl_ac_direct_declarator_AcMemberDecl9subphylumEi: # @_ZNK2kc38impl_ac_direct_declarator_AcMemberDecl9subphylumEi
# %bb.0:                                # %entry
	ori	$a2, $zero, 2
	beq	$a1, $a2, .LBB63_5
# %bb.1:                                # %entry
	ori	$a2, $zero, 1
	beq	$a1, $a2, .LBB63_4
# %bb.2:                                # %entry
	bnez	$a1, .LBB63_6
# %bb.3:                                # %sw.bb
	ld.d	$a0, $a0, 8
	ret
.LBB63_4:                               # %sw.bb2
	ld.d	$a0, $a0, 16
	ret
.LBB63_5:                               # %sw.bb3
	ld.d	$a0, $a0, 24
	ret
.LBB63_6:
	move	$a0, $zero
	ret
.Lfunc_end63:
	.size	_ZNK2kc38impl_ac_direct_declarator_AcMemberDecl9subphylumEi, .Lfunc_end63-_ZNK2kc38impl_ac_direct_declarator_AcMemberDecl9subphylumEi
                                        # -- End function
	.globl	_ZNK2kc46impl_ac_direct_declarator_AcQualifiedDeclProto9subphylumEi # -- Begin function _ZNK2kc46impl_ac_direct_declarator_AcQualifiedDeclProto9subphylumEi
	.p2align	5
	.type	_ZNK2kc46impl_ac_direct_declarator_AcQualifiedDeclProto9subphylumEi,@function
_ZNK2kc46impl_ac_direct_declarator_AcQualifiedDeclProto9subphylumEi: # @_ZNK2kc46impl_ac_direct_declarator_AcQualifiedDeclProto9subphylumEi
# %bb.0:                                # %entry
	ori	$a2, $zero, 3
	bltu	$a2, $a1, .LBB64_6
# %bb.1:                                # %entry
	slli.d	$a1, $a1, 2
	pcalau12i	$a2, %pc_hi20(.LJTI64_0)
	addi.d	$a2, $a2, %pc_lo12(.LJTI64_0)
	ldx.w	$a1, $a2, $a1
	add.d	$a1, $a2, $a1
	jr	$a1
.LBB64_2:                               # %sw.bb
	ld.d	$a0, $a0, 8
	ret
.LBB64_3:                               # %sw.bb3
	ld.d	$a0, $a0, 24
	ret
.LBB64_4:                               # %sw.bb4
	ld.d	$a0, $a0, 32
	ret
.LBB64_5:                               # %sw.bb2
	ld.d	$a0, $a0, 16
	ret
.LBB64_6:
	move	$a0, $zero
	ret
.Lfunc_end64:
	.size	_ZNK2kc46impl_ac_direct_declarator_AcQualifiedDeclProto9subphylumEi, .Lfunc_end64-_ZNK2kc46impl_ac_direct_declarator_AcQualifiedDeclProto9subphylumEi
	.section	.rodata,"a",@progbits
	.p2align	2, 0x0
.LJTI64_0:
	.word	.LBB64_2-.LJTI64_0
	.word	.LBB64_5-.LJTI64_0
	.word	.LBB64_3-.LJTI64_0
	.word	.LBB64_4-.LJTI64_0
                                        # -- End function
	.text
	.globl	_ZNK2kc43impl_ac_direct_declarator_AcDirectDeclProto9subphylumEi # -- Begin function _ZNK2kc43impl_ac_direct_declarator_AcDirectDeclProto9subphylumEi
	.p2align	5
	.type	_ZNK2kc43impl_ac_direct_declarator_AcDirectDeclProto9subphylumEi,@function
_ZNK2kc43impl_ac_direct_declarator_AcDirectDeclProto9subphylumEi: # @_ZNK2kc43impl_ac_direct_declarator_AcDirectDeclProto9subphylumEi
# %bb.0:                                # %entry
	ori	$a2, $zero, 1
	beq	$a1, $a2, .LBB65_3
# %bb.1:                                # %entry
	bnez	$a1, .LBB65_4
# %bb.2:                                # %sw.bb
	ld.d	$a0, $a0, 8
	ret
.LBB65_3:                               # %sw.bb2
	ld.d	$a0, $a0, 16
	ret
.LBB65_4:
	move	$a0, $zero
	ret
.Lfunc_end65:
	.size	_ZNK2kc43impl_ac_direct_declarator_AcDirectDeclProto9subphylumEi, .Lfunc_end65-_ZNK2kc43impl_ac_direct_declarator_AcDirectDeclProto9subphylumEi
                                        # -- End function
	.globl	_ZNK2kc43impl_ac_direct_declarator_AcDirectDeclArray9subphylumEi # -- Begin function _ZNK2kc43impl_ac_direct_declarator_AcDirectDeclArray9subphylumEi
	.p2align	5
	.type	_ZNK2kc43impl_ac_direct_declarator_AcDirectDeclArray9subphylumEi,@function
_ZNK2kc43impl_ac_direct_declarator_AcDirectDeclArray9subphylumEi: # @_ZNK2kc43impl_ac_direct_declarator_AcDirectDeclArray9subphylumEi
# %bb.0:                                # %entry
	ori	$a2, $zero, 1
	beq	$a1, $a2, .LBB66_3
# %bb.1:                                # %entry
	bnez	$a1, .LBB66_4
# %bb.2:                                # %sw.bb
	ld.d	$a0, $a0, 8
	ret
.LBB66_3:                               # %sw.bb2
	ld.d	$a0, $a0, 16
	ret
.LBB66_4:
	move	$a0, $zero
	ret
.Lfunc_end66:
	.size	_ZNK2kc43impl_ac_direct_declarator_AcDirectDeclArray9subphylumEi, .Lfunc_end66-_ZNK2kc43impl_ac_direct_declarator_AcDirectDeclArray9subphylumEi
                                        # -- End function
	.globl	_ZNK2kc42impl_ac_direct_declarator_AcDirectDeclPack9subphylumEi # -- Begin function _ZNK2kc42impl_ac_direct_declarator_AcDirectDeclPack9subphylumEi
	.p2align	5
	.type	_ZNK2kc42impl_ac_direct_declarator_AcDirectDeclPack9subphylumEi,@function
_ZNK2kc42impl_ac_direct_declarator_AcDirectDeclPack9subphylumEi: # @_ZNK2kc42impl_ac_direct_declarator_AcDirectDeclPack9subphylumEi
# %bb.0:                                # %entry
	ld.d	$a0, $a0, 8
	sltui	$a1, $a1, 1
	maskeqz	$a0, $a0, $a1
	ret
.Lfunc_end67:
	.size	_ZNK2kc42impl_ac_direct_declarator_AcDirectDeclPack9subphylumEi, .Lfunc_end67-_ZNK2kc42impl_ac_direct_declarator_AcDirectDeclPack9subphylumEi
                                        # -- End function
	.globl	_ZNK2kc40impl_ac_direct_declarator_AcDirectDeclId9subphylumEi # -- Begin function _ZNK2kc40impl_ac_direct_declarator_AcDirectDeclId9subphylumEi
	.p2align	5
	.type	_ZNK2kc40impl_ac_direct_declarator_AcDirectDeclId9subphylumEi,@function
_ZNK2kc40impl_ac_direct_declarator_AcDirectDeclId9subphylumEi: # @_ZNK2kc40impl_ac_direct_declarator_AcDirectDeclId9subphylumEi
# %bb.0:                                # %entry
	ld.d	$a0, $a0, 8
	sltui	$a1, $a1, 1
	maskeqz	$a0, $a0, $a1
	ret
.Lfunc_end68:
	.size	_ZNK2kc40impl_ac_direct_declarator_AcDirectDeclId9subphylumEi, .Lfunc_end68-_ZNK2kc40impl_ac_direct_declarator_AcDirectDeclId9subphylumEi
                                        # -- End function
	.globl	_ZNK2kc31impl_ac_declarator_AcDeclarator9subphylumEi # -- Begin function _ZNK2kc31impl_ac_declarator_AcDeclarator9subphylumEi
	.p2align	5
	.type	_ZNK2kc31impl_ac_declarator_AcDeclarator9subphylumEi,@function
_ZNK2kc31impl_ac_declarator_AcDeclarator9subphylumEi: # @_ZNK2kc31impl_ac_declarator_AcDeclarator9subphylumEi
# %bb.0:                                # %entry
	ori	$a2, $zero, 2
	beq	$a1, $a2, .LBB69_5
# %bb.1:                                # %entry
	ori	$a2, $zero, 1
	beq	$a1, $a2, .LBB69_4
# %bb.2:                                # %entry
	bnez	$a1, .LBB69_6
# %bb.3:                                # %sw.bb
	ld.d	$a0, $a0, 8
	ret
.LBB69_4:                               # %sw.bb2
	ld.d	$a0, $a0, 16
	ret
.LBB69_5:                               # %sw.bb3
	ld.d	$a0, $a0, 24
	ret
.LBB69_6:
	move	$a0, $zero
	ret
.Lfunc_end69:
	.size	_ZNK2kc31impl_ac_declarator_AcDeclarator9subphylumEi, .Lfunc_end69-_ZNK2kc31impl_ac_declarator_AcDeclarator9subphylumEi
                                        # -- End function
	.globl	_ZNK2kc34impl_ac_init_declarator_AcInitDecl9subphylumEi # -- Begin function _ZNK2kc34impl_ac_init_declarator_AcInitDecl9subphylumEi
	.p2align	5
	.type	_ZNK2kc34impl_ac_init_declarator_AcInitDecl9subphylumEi,@function
_ZNK2kc34impl_ac_init_declarator_AcInitDecl9subphylumEi: # @_ZNK2kc34impl_ac_init_declarator_AcInitDecl9subphylumEi
# %bb.0:                                # %entry
	ld.d	$a0, $a0, 8
	sltui	$a1, $a1, 1
	maskeqz	$a0, $a0, $a1
	ret
.Lfunc_end70:
	.size	_ZNK2kc34impl_ac_init_declarator_AcInitDecl9subphylumEi, .Lfunc_end70-_ZNK2kc34impl_ac_init_declarator_AcInitDecl9subphylumEi
                                        # -- End function
	.globl	_ZNK2kc28impl_ac_init_declarator_list9subphylumEi # -- Begin function _ZNK2kc28impl_ac_init_declarator_list9subphylumEi
	.p2align	5
	.type	_ZNK2kc28impl_ac_init_declarator_list9subphylumEi,@function
_ZNK2kc28impl_ac_init_declarator_list9subphylumEi: # @_ZNK2kc28impl_ac_init_declarator_list9subphylumEi
# %bb.0:                                # %entry
	ori	$a2, $zero, 1
	beq	$a1, $a2, .LBB71_3
# %bb.1:                                # %entry
	bnez	$a1, .LBB71_4
# %bb.2:                                # %sw.bb
	ld.d	$a0, $a0, 8
	ret
.LBB71_3:                               # %sw.bb2
	ld.d	$a0, $a0, 16
	ret
.LBB71_4:
	move	$a0, $zero
	ret
.Lfunc_end71:
	.size	_ZNK2kc28impl_ac_init_declarator_list9subphylumEi, .Lfunc_end71-_ZNK2kc28impl_ac_init_declarator_list9subphylumEi
                                        # -- End function
	.globl	_ZNK2kc33impl_ac_type_specifier_AcTypeSpec9subphylumEi # -- Begin function _ZNK2kc33impl_ac_type_specifier_AcTypeSpec9subphylumEi
	.p2align	5
	.type	_ZNK2kc33impl_ac_type_specifier_AcTypeSpec9subphylumEi,@function
_ZNK2kc33impl_ac_type_specifier_AcTypeSpec9subphylumEi: # @_ZNK2kc33impl_ac_type_specifier_AcTypeSpec9subphylumEi
# %bb.0:                                # %entry
	ld.d	$a0, $a0, 8
	sltui	$a1, $a1, 1
	maskeqz	$a0, $a0, $a1
	ret
.Lfunc_end72:
	.size	_ZNK2kc33impl_ac_type_specifier_AcTypeSpec9subphylumEi, .Lfunc_end72-_ZNK2kc33impl_ac_type_specifier_AcTypeSpec9subphylumEi
                                        # -- End function
	.globl	_ZNK2kc48impl_ac_declaration_specifier_AcDeclSpecTypeQual9subphylumEi # -- Begin function _ZNK2kc48impl_ac_declaration_specifier_AcDeclSpecTypeQual9subphylumEi
	.p2align	5
	.type	_ZNK2kc48impl_ac_declaration_specifier_AcDeclSpecTypeQual9subphylumEi,@function
_ZNK2kc48impl_ac_declaration_specifier_AcDeclSpecTypeQual9subphylumEi: # @_ZNK2kc48impl_ac_declaration_specifier_AcDeclSpecTypeQual9subphylumEi
# %bb.0:                                # %entry
	ld.d	$a0, $a0, 8
	sltui	$a1, $a1, 1
	maskeqz	$a0, $a0, $a1
	ret
.Lfunc_end73:
	.size	_ZNK2kc48impl_ac_declaration_specifier_AcDeclSpecTypeQual9subphylumEi, .Lfunc_end73-_ZNK2kc48impl_ac_declaration_specifier_AcDeclSpecTypeQual9subphylumEi
                                        # -- End function
	.globl	_ZNK2kc48impl_ac_declaration_specifier_AcDeclSpecTypeSpec9subphylumEi # -- Begin function _ZNK2kc48impl_ac_declaration_specifier_AcDeclSpecTypeSpec9subphylumEi
	.p2align	5
	.type	_ZNK2kc48impl_ac_declaration_specifier_AcDeclSpecTypeSpec9subphylumEi,@function
_ZNK2kc48impl_ac_declaration_specifier_AcDeclSpecTypeSpec9subphylumEi: # @_ZNK2kc48impl_ac_declaration_specifier_AcDeclSpecTypeSpec9subphylumEi
# %bb.0:                                # %entry
	ld.d	$a0, $a0, 8
	sltui	$a1, $a1, 1
	maskeqz	$a0, $a0, $a1
	ret
.Lfunc_end74:
	.size	_ZNK2kc48impl_ac_declaration_specifier_AcDeclSpecTypeSpec9subphylumEi, .Lfunc_end74-_ZNK2kc48impl_ac_declaration_specifier_AcDeclSpecTypeSpec9subphylumEi
                                        # -- End function
	.globl	_ZNK2kc51impl_ac_declaration_specifier_AcDeclSpecStorageSpec9subphylumEi # -- Begin function _ZNK2kc51impl_ac_declaration_specifier_AcDeclSpecStorageSpec9subphylumEi
	.p2align	5
	.type	_ZNK2kc51impl_ac_declaration_specifier_AcDeclSpecStorageSpec9subphylumEi,@function
_ZNK2kc51impl_ac_declaration_specifier_AcDeclSpecStorageSpec9subphylumEi: # @_ZNK2kc51impl_ac_declaration_specifier_AcDeclSpecStorageSpec9subphylumEi
# %bb.0:                                # %entry
	ld.d	$a0, $a0, 8
	sltui	$a1, $a1, 1
	maskeqz	$a0, $a0, $a1
	ret
.Lfunc_end75:
	.size	_ZNK2kc51impl_ac_declaration_specifier_AcDeclSpecStorageSpec9subphylumEi, .Lfunc_end75-_ZNK2kc51impl_ac_declaration_specifier_AcDeclSpecStorageSpec9subphylumEi
                                        # -- End function
	.globl	_ZNK2kc30impl_ac_declaration_specifiers9subphylumEi # -- Begin function _ZNK2kc30impl_ac_declaration_specifiers9subphylumEi
	.p2align	5
	.type	_ZNK2kc30impl_ac_declaration_specifiers9subphylumEi,@function
_ZNK2kc30impl_ac_declaration_specifiers9subphylumEi: # @_ZNK2kc30impl_ac_declaration_specifiers9subphylumEi
# %bb.0:                                # %entry
	ori	$a2, $zero, 1
	beq	$a1, $a2, .LBB76_3
# %bb.1:                                # %entry
	bnez	$a1, .LBB76_4
# %bb.2:                                # %sw.bb
	ld.d	$a0, $a0, 8
	ret
.LBB76_3:                               # %sw.bb2
	ld.d	$a0, $a0, 16
	ret
.LBB76_4:
	move	$a0, $zero
	ret
.Lfunc_end76:
	.size	_ZNK2kc30impl_ac_declaration_specifiers9subphylumEi, .Lfunc_end76-_ZNK2kc30impl_ac_declaration_specifiers9subphylumEi
                                        # -- End function
	.globl	_ZNK2kc24impl_ac_declaration_list9subphylumEi # -- Begin function _ZNK2kc24impl_ac_declaration_list9subphylumEi
	.p2align	5
	.type	_ZNK2kc24impl_ac_declaration_list9subphylumEi,@function
_ZNK2kc24impl_ac_declaration_list9subphylumEi: # @_ZNK2kc24impl_ac_declaration_list9subphylumEi
# %bb.0:                                # %entry
	ori	$a2, $zero, 1
	beq	$a1, $a2, .LBB77_3
# %bb.1:                                # %entry
	bnez	$a1, .LBB77_4
# %bb.2:                                # %sw.bb
	ld.d	$a0, $a0, 8
	ret
.LBB77_3:                               # %sw.bb2
	ld.d	$a0, $a0, 16
	ret
.LBB77_4:
	move	$a0, $zero
	ret
.Lfunc_end77:
	.size	_ZNK2kc24impl_ac_declaration_list9subphylumEi, .Lfunc_end77-_ZNK2kc24impl_ac_declaration_list9subphylumEi
                                        # -- End function
	.globl	_ZNK2kc33impl_ac_declaration_AcDeclaration9subphylumEi # -- Begin function _ZNK2kc33impl_ac_declaration_AcDeclaration9subphylumEi
	.p2align	5
	.type	_ZNK2kc33impl_ac_declaration_AcDeclaration9subphylumEi,@function
_ZNK2kc33impl_ac_declaration_AcDeclaration9subphylumEi: # @_ZNK2kc33impl_ac_declaration_AcDeclaration9subphylumEi
# %bb.0:                                # %entry
	ori	$a2, $zero, 1
	beq	$a1, $a2, .LBB78_3
# %bb.1:                                # %entry
	bnez	$a1, .LBB78_4
# %bb.2:                                # %sw.bb
	ld.d	$a0, $a0, 8
	ret
.LBB78_3:                               # %sw.bb2
	ld.d	$a0, $a0, 16
	ret
.LBB78_4:
	move	$a0, $zero
	ret
.Lfunc_end78:
	.size	_ZNK2kc33impl_ac_declaration_AcDeclaration9subphylumEi, .Lfunc_end78-_ZNK2kc33impl_ac_declaration_AcDeclaration9subphylumEi
                                        # -- End function
	.globl	_ZNK2kc36impl_unparsedeclinfo_Unparsedeclinfo9subphylumEi # -- Begin function _ZNK2kc36impl_unparsedeclinfo_Unparsedeclinfo9subphylumEi
	.p2align	5
	.type	_ZNK2kc36impl_unparsedeclinfo_Unparsedeclinfo9subphylumEi,@function
_ZNK2kc36impl_unparsedeclinfo_Unparsedeclinfo9subphylumEi: # @_ZNK2kc36impl_unparsedeclinfo_Unparsedeclinfo9subphylumEi
# %bb.0:                                # %entry
	ori	$a2, $zero, 2
	beq	$a1, $a2, .LBB79_5
# %bb.1:                                # %entry
	ori	$a2, $zero, 1
	beq	$a1, $a2, .LBB79_4
# %bb.2:                                # %entry
	bnez	$a1, .LBB79_6
# %bb.3:                                # %sw.bb
	ld.d	$a0, $a0, 8
	ret
.LBB79_4:                               # %sw.bb2
	ld.d	$a0, $a0, 16
	ret
.LBB79_5:                               # %sw.bb3
	ld.d	$a0, $a0, 24
	ret
.LBB79_6:
	move	$a0, $zero
	ret
.Lfunc_end79:
	.size	_ZNK2kc36impl_unparsedeclinfo_Unparsedeclinfo9subphylumEi, .Lfunc_end79-_ZNK2kc36impl_unparsedeclinfo_Unparsedeclinfo9subphylumEi
                                        # -- End function
	.globl	_ZNK2kc21impl_unparsedeclsinfo9subphylumEi # -- Begin function _ZNK2kc21impl_unparsedeclsinfo9subphylumEi
	.p2align	5
	.type	_ZNK2kc21impl_unparsedeclsinfo9subphylumEi,@function
_ZNK2kc21impl_unparsedeclsinfo9subphylumEi: # @_ZNK2kc21impl_unparsedeclsinfo9subphylumEi
# %bb.0:                                # %entry
	ori	$a2, $zero, 1
	beq	$a1, $a2, .LBB80_3
# %bb.1:                                # %entry
	bnez	$a1, .LBB80_4
# %bb.2:                                # %sw.bb
	ld.d	$a0, $a0, 8
	ret
.LBB80_3:                               # %sw.bb2
	ld.d	$a0, $a0, 16
	ret
.LBB80_4:
	move	$a0, $zero
	ret
.Lfunc_end80:
	.size	_ZNK2kc21impl_unparsedeclsinfo9subphylumEi, .Lfunc_end80-_ZNK2kc21impl_unparsedeclsinfo9subphylumEi
                                        # -- End function
	.globl	_ZNK2kc36impl_unparseviewinfo_Unparseviewinfo9subphylumEi # -- Begin function _ZNK2kc36impl_unparseviewinfo_Unparseviewinfo9subphylumEi
	.p2align	5
	.type	_ZNK2kc36impl_unparseviewinfo_Unparseviewinfo9subphylumEi,@function
_ZNK2kc36impl_unparseviewinfo_Unparseviewinfo9subphylumEi: # @_ZNK2kc36impl_unparseviewinfo_Unparseviewinfo9subphylumEi
# %bb.0:                                # %entry
	ori	$a2, $zero, 1
	beq	$a1, $a2, .LBB81_3
# %bb.1:                                # %entry
	bnez	$a1, .LBB81_4
# %bb.2:                                # %sw.bb
	ld.d	$a0, $a0, 8
	ret
.LBB81_3:                               # %sw.bb2
	ld.d	$a0, $a0, 16
	ret
.LBB81_4:
	move	$a0, $zero
	ret
.Lfunc_end81:
	.size	_ZNK2kc36impl_unparseviewinfo_Unparseviewinfo9subphylumEi, .Lfunc_end81-_ZNK2kc36impl_unparseviewinfo_Unparseviewinfo9subphylumEi
                                        # -- End function
	.globl	_ZNK2kc21impl_unparseviewsinfo9subphylumEi # -- Begin function _ZNK2kc21impl_unparseviewsinfo9subphylumEi
	.p2align	5
	.type	_ZNK2kc21impl_unparseviewsinfo9subphylumEi,@function
_ZNK2kc21impl_unparseviewsinfo9subphylumEi: # @_ZNK2kc21impl_unparseviewsinfo9subphylumEi
# %bb.0:                                # %entry
	ori	$a2, $zero, 1
	beq	$a1, $a2, .LBB82_3
# %bb.1:                                # %entry
	bnez	$a1, .LBB82_4
# %bb.2:                                # %sw.bb
	ld.d	$a0, $a0, 8
	ret
.LBB82_3:                               # %sw.bb2
	ld.d	$a0, $a0, 16
	ret
.LBB82_4:
	move	$a0, $zero
	ret
.Lfunc_end82:
	.size	_ZNK2kc21impl_unparseviewsinfo9subphylumEi, .Lfunc_end82-_ZNK2kc21impl_unparseviewsinfo9subphylumEi
                                        # -- End function
	.globl	_ZNK2kc36impl_rewriteviewinfo_Rewriteviewinfo9subphylumEi # -- Begin function _ZNK2kc36impl_rewriteviewinfo_Rewriteviewinfo9subphylumEi
	.p2align	5
	.type	_ZNK2kc36impl_rewriteviewinfo_Rewriteviewinfo9subphylumEi,@function
_ZNK2kc36impl_rewriteviewinfo_Rewriteviewinfo9subphylumEi: # @_ZNK2kc36impl_rewriteviewinfo_Rewriteviewinfo9subphylumEi
# %bb.0:                                # %entry
	ori	$a2, $zero, 1
	beq	$a1, $a2, .LBB83_3
# %bb.1:                                # %entry
	bnez	$a1, .LBB83_4
# %bb.2:                                # %sw.bb
	ld.d	$a0, $a0, 8
	ret
.LBB83_3:                               # %sw.bb2
	ld.d	$a0, $a0, 16
	ret
.LBB83_4:
	move	$a0, $zero
	ret
.Lfunc_end83:
	.size	_ZNK2kc36impl_rewriteviewinfo_Rewriteviewinfo9subphylumEi, .Lfunc_end83-_ZNK2kc36impl_rewriteviewinfo_Rewriteviewinfo9subphylumEi
                                        # -- End function
	.globl	_ZNK2kc21impl_rewriteviewsinfo9subphylumEi # -- Begin function _ZNK2kc21impl_rewriteviewsinfo9subphylumEi
	.p2align	5
	.type	_ZNK2kc21impl_rewriteviewsinfo9subphylumEi,@function
_ZNK2kc21impl_rewriteviewsinfo9subphylumEi: # @_ZNK2kc21impl_rewriteviewsinfo9subphylumEi
# %bb.0:                                # %entry
	ori	$a2, $zero, 1
	beq	$a1, $a2, .LBB84_3
# %bb.1:                                # %entry
	bnez	$a1, .LBB84_4
# %bb.2:                                # %sw.bb
	ld.d	$a0, $a0, 8
	ret
.LBB84_3:                               # %sw.bb2
	ld.d	$a0, $a0, 16
	ret
.LBB84_4:
	move	$a0, $zero
	ret
.Lfunc_end84:
	.size	_ZNK2kc21impl_rewriteviewsinfo9subphylumEi, .Lfunc_end84-_ZNK2kc21impl_rewriteviewsinfo9subphylumEi
                                        # -- End function
	.globl	_ZNK2kc30impl_withcaseinfo_Withcaseinfo9subphylumEi # -- Begin function _ZNK2kc30impl_withcaseinfo_Withcaseinfo9subphylumEi
	.p2align	5
	.type	_ZNK2kc30impl_withcaseinfo_Withcaseinfo9subphylumEi,@function
_ZNK2kc30impl_withcaseinfo_Withcaseinfo9subphylumEi: # @_ZNK2kc30impl_withcaseinfo_Withcaseinfo9subphylumEi
# %bb.0:                                # %entry
	ori	$a2, $zero, 2
	beq	$a1, $a2, .LBB85_5
# %bb.1:                                # %entry
	ori	$a2, $zero, 1
	beq	$a1, $a2, .LBB85_4
# %bb.2:                                # %entry
	bnez	$a1, .LBB85_6
# %bb.3:                                # %sw.bb
	ld.d	$a0, $a0, 8
	ret
.LBB85_4:                               # %sw.bb2
	ld.d	$a0, $a0, 16
	ret
.LBB85_5:                               # %sw.bb3
	ld.d	$a0, $a0, 24
	ret
.LBB85_6:
	move	$a0, $zero
	ret
.Lfunc_end85:
	.size	_ZNK2kc30impl_withcaseinfo_Withcaseinfo9subphylumEi, .Lfunc_end85-_ZNK2kc30impl_withcaseinfo_Withcaseinfo9subphylumEi
                                        # -- End function
	.globl	_ZNK2kc18impl_withcasesinfo9subphylumEi # -- Begin function _ZNK2kc18impl_withcasesinfo9subphylumEi
	.p2align	5
	.type	_ZNK2kc18impl_withcasesinfo9subphylumEi,@function
_ZNK2kc18impl_withcasesinfo9subphylumEi: # @_ZNK2kc18impl_withcasesinfo9subphylumEi
# %bb.0:                                # %entry
	ori	$a2, $zero, 1
	beq	$a1, $a2, .LBB86_3
# %bb.1:                                # %entry
	bnez	$a1, .LBB86_4
# %bb.2:                                # %sw.bb
	ld.d	$a0, $a0, 8
	ret
.LBB86_3:                               # %sw.bb2
	ld.d	$a0, $a0, 16
	ret
.LBB86_4:
	move	$a0, $zero
	ret
.Lfunc_end86:
	.size	_ZNK2kc18impl_withcasesinfo9subphylumEi, .Lfunc_end86-_ZNK2kc18impl_withcasesinfo9subphylumEi
                                        # -- End function
	.globl	_ZNK2kc36impl_rewriteruleinfo_Rewriteruleinfo9subphylumEi # -- Begin function _ZNK2kc36impl_rewriteruleinfo_Rewriteruleinfo9subphylumEi
	.p2align	5
	.type	_ZNK2kc36impl_rewriteruleinfo_Rewriteruleinfo9subphylumEi,@function
_ZNK2kc36impl_rewriteruleinfo_Rewriteruleinfo9subphylumEi: # @_ZNK2kc36impl_rewriteruleinfo_Rewriteruleinfo9subphylumEi
# %bb.0:                                # %entry
	ori	$a2, $zero, 2
	beq	$a1, $a2, .LBB87_5
# %bb.1:                                # %entry
	ori	$a2, $zero, 1
	beq	$a1, $a2, .LBB87_4
# %bb.2:                                # %entry
	bnez	$a1, .LBB87_6
# %bb.3:                                # %sw.bb
	ld.d	$a0, $a0, 8
	ret
.LBB87_4:                               # %sw.bb2
	ld.d	$a0, $a0, 16
	ret
.LBB87_5:                               # %sw.bb3
	ld.d	$a0, $a0, 24
	ret
.LBB87_6:
	move	$a0, $zero
	ret
.Lfunc_end87:
	.size	_ZNK2kc36impl_rewriteruleinfo_Rewriteruleinfo9subphylumEi, .Lfunc_end87-_ZNK2kc36impl_rewriteruleinfo_Rewriteruleinfo9subphylumEi
                                        # -- End function
	.globl	_ZNK2kc21impl_rewriterulesinfo9subphylumEi # -- Begin function _ZNK2kc21impl_rewriterulesinfo9subphylumEi
	.p2align	5
	.type	_ZNK2kc21impl_rewriterulesinfo9subphylumEi,@function
_ZNK2kc21impl_rewriterulesinfo9subphylumEi: # @_ZNK2kc21impl_rewriterulesinfo9subphylumEi
# %bb.0:                                # %entry
	ori	$a2, $zero, 1
	beq	$a1, $a2, .LBB88_3
# %bb.1:                                # %entry
	bnez	$a1, .LBB88_4
# %bb.2:                                # %sw.bb
	ld.d	$a0, $a0, 8
	ret
.LBB88_3:                               # %sw.bb2
	ld.d	$a0, $a0, 16
	ret
.LBB88_4:
	move	$a0, $zero
	ret
.Lfunc_end88:
	.size	_ZNK2kc21impl_rewriterulesinfo9subphylumEi, .Lfunc_end88-_ZNK2kc21impl_rewriterulesinfo9subphylumEi
                                        # -- End function
	.globl	_ZNK2kc16impl_argsnumbers9subphylumEi # -- Begin function _ZNK2kc16impl_argsnumbers9subphylumEi
	.p2align	5
	.type	_ZNK2kc16impl_argsnumbers9subphylumEi,@function
_ZNK2kc16impl_argsnumbers9subphylumEi:  # @_ZNK2kc16impl_argsnumbers9subphylumEi
# %bb.0:                                # %entry
	ori	$a2, $zero, 1
	beq	$a1, $a2, .LBB89_3
# %bb.1:                                # %entry
	bnez	$a1, .LBB89_4
# %bb.2:                                # %sw.bb
	ld.d	$a0, $a0, 8
	ret
.LBB89_3:                               # %sw.bb2
	ld.d	$a0, $a0, 16
	ret
.LBB89_4:
	move	$a0, $zero
	ret
.Lfunc_end89:
	.size	_ZNK2kc16impl_argsnumbers9subphylumEi, .Lfunc_end89-_ZNK2kc16impl_argsnumbers9subphylumEi
                                        # -- End function
	.globl	_ZNK2kc10impl_paths9subphylumEi # -- Begin function _ZNK2kc10impl_paths9subphylumEi
	.p2align	5
	.type	_ZNK2kc10impl_paths9subphylumEi,@function
_ZNK2kc10impl_paths9subphylumEi:        # @_ZNK2kc10impl_paths9subphylumEi
# %bb.0:                                # %entry
	ori	$a2, $zero, 1
	beq	$a1, $a2, .LBB90_3
# %bb.1:                                # %entry
	bnez	$a1, .LBB90_4
# %bb.2:                                # %sw.bb
	ld.d	$a0, $a0, 8
	ret
.LBB90_3:                               # %sw.bb2
	ld.d	$a0, $a0, 16
	ret
.LBB90_4:
	move	$a0, $zero
	ret
.Lfunc_end90:
	.size	_ZNK2kc10impl_paths9subphylumEi, .Lfunc_end90-_ZNK2kc10impl_paths9subphylumEi
                                        # -- End function
	.globl	_ZNK2kc9impl_path9subphylumEi   # -- Begin function _ZNK2kc9impl_path9subphylumEi
	.p2align	5
	.type	_ZNK2kc9impl_path9subphylumEi,@function
_ZNK2kc9impl_path9subphylumEi:          # @_ZNK2kc9impl_path9subphylumEi
# %bb.0:                                # %entry
	ori	$a2, $zero, 1
	beq	$a1, $a2, .LBB91_3
# %bb.1:                                # %entry
	bnez	$a1, .LBB91_4
# %bb.2:                                # %sw.bb
	ld.d	$a0, $a0, 24
	ret
.LBB91_3:                               # %sw.bb2
	ld.d	$a0, $a0, 32
	ret
.LBB91_4:
	move	$a0, $zero
	ret
.Lfunc_end91:
	.size	_ZNK2kc9impl_path9subphylumEi, .Lfunc_end91-_ZNK2kc9impl_path9subphylumEi
                                        # -- End function
	.globl	_ZNK2kc44impl_elem_patternrepresentation_PRIntLiteral9subphylumEi # -- Begin function _ZNK2kc44impl_elem_patternrepresentation_PRIntLiteral9subphylumEi
	.p2align	5
	.type	_ZNK2kc44impl_elem_patternrepresentation_PRIntLiteral9subphylumEi,@function
_ZNK2kc44impl_elem_patternrepresentation_PRIntLiteral9subphylumEi: # @_ZNK2kc44impl_elem_patternrepresentation_PRIntLiteral9subphylumEi
# %bb.0:                                # %entry
	ori	$a2, $zero, 1
	beq	$a1, $a2, .LBB92_3
# %bb.1:                                # %entry
	bnez	$a1, .LBB92_4
# %bb.2:                                # %sw.bb
	ld.d	$a0, $a0, 32
	ret
.LBB92_3:                               # %sw.bb2
	ld.d	$a0, $a0, 40
	ret
.LBB92_4:
	move	$a0, $zero
	ret
.Lfunc_end92:
	.size	_ZNK2kc44impl_elem_patternrepresentation_PRIntLiteral9subphylumEi, .Lfunc_end92-_ZNK2kc44impl_elem_patternrepresentation_PRIntLiteral9subphylumEi
                                        # -- End function
	.globl	_ZNK2kc47impl_elem_patternrepresentation_PRStringLiteral9subphylumEi # -- Begin function _ZNK2kc47impl_elem_patternrepresentation_PRStringLiteral9subphylumEi
	.p2align	5
	.type	_ZNK2kc47impl_elem_patternrepresentation_PRStringLiteral9subphylumEi,@function
_ZNK2kc47impl_elem_patternrepresentation_PRStringLiteral9subphylumEi: # @_ZNK2kc47impl_elem_patternrepresentation_PRStringLiteral9subphylumEi
# %bb.0:                                # %entry
	ori	$a2, $zero, 1
	beq	$a1, $a2, .LBB93_3
# %bb.1:                                # %entry
	bnez	$a1, .LBB93_4
# %bb.2:                                # %sw.bb
	ld.d	$a0, $a0, 32
	ret
.LBB93_3:                               # %sw.bb2
	ld.d	$a0, $a0, 40
	ret
.LBB93_4:
	move	$a0, $zero
	ret
.Lfunc_end93:
	.size	_ZNK2kc47impl_elem_patternrepresentation_PRStringLiteral9subphylumEi, .Lfunc_end93-_ZNK2kc47impl_elem_patternrepresentation_PRStringLiteral9subphylumEi
                                        # -- End function
	.globl	_ZNK2kc42impl_elem_patternrepresentation_PRWildcard9subphylumEi # -- Begin function _ZNK2kc42impl_elem_patternrepresentation_PRWildcard9subphylumEi
	.p2align	5
	.type	_ZNK2kc42impl_elem_patternrepresentation_PRWildcard9subphylumEi,@function
_ZNK2kc42impl_elem_patternrepresentation_PRWildcard9subphylumEi: # @_ZNK2kc42impl_elem_patternrepresentation_PRWildcard9subphylumEi
# %bb.0:                                # %entry
	ld.d	$a0, $a0, 32
	sltui	$a1, $a1, 1
	maskeqz	$a0, $a0, $a1
	ret
.Lfunc_end94:
	.size	_ZNK2kc42impl_elem_patternrepresentation_PRWildcard9subphylumEi, .Lfunc_end94-_ZNK2kc42impl_elem_patternrepresentation_PRWildcard9subphylumEi
                                        # -- End function
	.globl	_ZNK2kc48impl_elem_patternrepresentation_PRNonLeafBinding9subphylumEi # -- Begin function _ZNK2kc48impl_elem_patternrepresentation_PRNonLeafBinding9subphylumEi
	.p2align	5
	.type	_ZNK2kc48impl_elem_patternrepresentation_PRNonLeafBinding9subphylumEi,@function
_ZNK2kc48impl_elem_patternrepresentation_PRNonLeafBinding9subphylumEi: # @_ZNK2kc48impl_elem_patternrepresentation_PRNonLeafBinding9subphylumEi
# %bb.0:                                # %entry
	ori	$a2, $zero, 2
	beq	$a1, $a2, .LBB95_5
# %bb.1:                                # %entry
	ori	$a2, $zero, 1
	beq	$a1, $a2, .LBB95_4
# %bb.2:                                # %entry
	bnez	$a1, .LBB95_6
# %bb.3:                                # %sw.bb
	ld.d	$a0, $a0, 32
	ret
.LBB95_4:                               # %sw.bb2
	ld.d	$a0, $a0, 40
	ret
.LBB95_5:                               # %sw.bb3
	ld.d	$a0, $a0, 48
	ret
.LBB95_6:
	move	$a0, $zero
	ret
.Lfunc_end95:
	.size	_ZNK2kc48impl_elem_patternrepresentation_PRNonLeafBinding9subphylumEi, .Lfunc_end95-_ZNK2kc48impl_elem_patternrepresentation_PRNonLeafBinding9subphylumEi
                                        # -- End function
	.globl	_ZNK2kc47impl_elem_patternrepresentation_PRUserPredicate9subphylumEi # -- Begin function _ZNK2kc47impl_elem_patternrepresentation_PRUserPredicate9subphylumEi
	.p2align	5
	.type	_ZNK2kc47impl_elem_patternrepresentation_PRUserPredicate9subphylumEi,@function
_ZNK2kc47impl_elem_patternrepresentation_PRUserPredicate9subphylumEi: # @_ZNK2kc47impl_elem_patternrepresentation_PRUserPredicate9subphylumEi
# %bb.0:                                # %entry
	ld.d	$a0, $a0, 32
	sltui	$a1, $a1, 1
	maskeqz	$a0, $a0, $a1
	ret
.Lfunc_end96:
	.size	_ZNK2kc47impl_elem_patternrepresentation_PRUserPredicate9subphylumEi, .Lfunc_end96-_ZNK2kc47impl_elem_patternrepresentation_PRUserPredicate9subphylumEi
                                        # -- End function
	.globl	_ZNK2kc47impl_elem_patternrepresentation_PROperPredicate9subphylumEi # -- Begin function _ZNK2kc47impl_elem_patternrepresentation_PROperPredicate9subphylumEi
	.p2align	5
	.type	_ZNK2kc47impl_elem_patternrepresentation_PROperPredicate9subphylumEi,@function
_ZNK2kc47impl_elem_patternrepresentation_PROperPredicate9subphylumEi: # @_ZNK2kc47impl_elem_patternrepresentation_PROperPredicate9subphylumEi
# %bb.0:                                # %entry
	ori	$a2, $zero, 1
	beq	$a1, $a2, .LBB97_3
# %bb.1:                                # %entry
	bnez	$a1, .LBB97_4
# %bb.2:                                # %sw.bb
	ld.d	$a0, $a0, 32
	ret
.LBB97_3:                               # %sw.bb2
	ld.d	$a0, $a0, 40
	ret
.LBB97_4:
	move	$a0, $zero
	ret
.Lfunc_end97:
	.size	_ZNK2kc47impl_elem_patternrepresentation_PROperPredicate9subphylumEi, .Lfunc_end97-_ZNK2kc47impl_elem_patternrepresentation_PROperPredicate9subphylumEi
                                        # -- End function
	.globl	_ZNK2kc46impl_elem_patternrepresentation_PRVarPredicate9subphylumEi # -- Begin function _ZNK2kc46impl_elem_patternrepresentation_PRVarPredicate9subphylumEi
	.p2align	5
	.type	_ZNK2kc46impl_elem_patternrepresentation_PRVarPredicate9subphylumEi,@function
_ZNK2kc46impl_elem_patternrepresentation_PRVarPredicate9subphylumEi: # @_ZNK2kc46impl_elem_patternrepresentation_PRVarPredicate9subphylumEi
# %bb.0:                                # %entry
	ori	$a2, $zero, 2
	beq	$a1, $a2, .LBB98_5
# %bb.1:                                # %entry
	ori	$a2, $zero, 1
	beq	$a1, $a2, .LBB98_4
# %bb.2:                                # %entry
	bnez	$a1, .LBB98_6
# %bb.3:                                # %sw.bb
	ld.d	$a0, $a0, 32
	ret
.LBB98_4:                               # %sw.bb2
	ld.d	$a0, $a0, 40
	ret
.LBB98_5:                               # %sw.bb3
	ld.d	$a0, $a0, 48
	ret
.LBB98_6:
	move	$a0, $zero
	ret
.Lfunc_end98:
	.size	_ZNK2kc46impl_elem_patternrepresentation_PRVarPredicate9subphylumEi, .Lfunc_end98-_ZNK2kc46impl_elem_patternrepresentation_PRVarPredicate9subphylumEi
                                        # -- End function
	.globl	_ZNK2kc41impl_elem_patternrepresentation_PRBinding9subphylumEi # -- Begin function _ZNK2kc41impl_elem_patternrepresentation_PRBinding9subphylumEi
	.p2align	5
	.type	_ZNK2kc41impl_elem_patternrepresentation_PRBinding9subphylumEi,@function
_ZNK2kc41impl_elem_patternrepresentation_PRBinding9subphylumEi: # @_ZNK2kc41impl_elem_patternrepresentation_PRBinding9subphylumEi
# %bb.0:                                # %entry
	ori	$a2, $zero, 1
	beq	$a1, $a2, .LBB99_3
# %bb.1:                                # %entry
	bnez	$a1, .LBB99_4
# %bb.2:                                # %sw.bb
	ld.d	$a0, $a0, 32
	ret
.LBB99_3:                               # %sw.bb2
	ld.d	$a0, $a0, 40
	ret
.LBB99_4:
	move	$a0, $zero
	ret
.Lfunc_end99:
	.size	_ZNK2kc41impl_elem_patternrepresentation_PRBinding9subphylumEi, .Lfunc_end99-_ZNK2kc41impl_elem_patternrepresentation_PRBinding9subphylumEi
                                        # -- End function
	.globl	_ZNK2kc26impl_patternrepresentation9subphylumEi # -- Begin function _ZNK2kc26impl_patternrepresentation9subphylumEi
	.p2align	5
	.type	_ZNK2kc26impl_patternrepresentation9subphylumEi,@function
_ZNK2kc26impl_patternrepresentation9subphylumEi: # @_ZNK2kc26impl_patternrepresentation9subphylumEi
# %bb.0:                                # %entry
	ori	$a2, $zero, 1
	beq	$a1, $a2, .LBB100_3
# %bb.1:                                # %entry
	bnez	$a1, .LBB100_4
# %bb.2:                                # %sw.bb
	ld.d	$a0, $a0, 8
	ret
.LBB100_3:                              # %sw.bb2
	ld.d	$a0, $a0, 16
	ret
.LBB100_4:
	move	$a0, $zero
	ret
.Lfunc_end100:
	.size	_ZNK2kc26impl_patternrepresentation9subphylumEi, .Lfunc_end100-_ZNK2kc26impl_patternrepresentation9subphylumEi
                                        # -- End function
	.globl	_ZNK2kc27impl_patternrepresentations9subphylumEi # -- Begin function _ZNK2kc27impl_patternrepresentations9subphylumEi
	.p2align	5
	.type	_ZNK2kc27impl_patternrepresentations9subphylumEi,@function
_ZNK2kc27impl_patternrepresentations9subphylumEi: # @_ZNK2kc27impl_patternrepresentations9subphylumEi
# %bb.0:                                # %entry
	ori	$a2, $zero, 1
	beq	$a1, $a2, .LBB101_3
# %bb.1:                                # %entry
	bnez	$a1, .LBB101_4
# %bb.2:                                # %sw.bb
	ld.d	$a0, $a0, 8
	ret
.LBB101_3:                              # %sw.bb2
	ld.d	$a0, $a0, 16
	ret
.LBB101_4:
	move	$a0, $zero
	ret
.Lfunc_end101:
	.size	_ZNK2kc27impl_patternrepresentations9subphylumEi, .Lfunc_end101-_ZNK2kc27impl_patternrepresentations9subphylumEi
                                        # -- End function
	.globl	_ZNK2kc14impl_variables9subphylumEi # -- Begin function _ZNK2kc14impl_variables9subphylumEi
	.p2align	5
	.type	_ZNK2kc14impl_variables9subphylumEi,@function
_ZNK2kc14impl_variables9subphylumEi:    # @_ZNK2kc14impl_variables9subphylumEi
# %bb.0:                                # %entry
	ori	$a2, $zero, 1
	beq	$a1, $a2, .LBB102_3
# %bb.1:                                # %entry
	bnez	$a1, .LBB102_4
# %bb.2:                                # %sw.bb
	ld.d	$a0, $a0, 8
	ret
.LBB102_3:                              # %sw.bb2
	ld.d	$a0, $a0, 16
	ret
.LBB102_4:
	move	$a0, $zero
	ret
.Lfunc_end102:
	.size	_ZNK2kc14impl_variables9subphylumEi, .Lfunc_end102-_ZNK2kc14impl_variables9subphylumEi
                                        # -- End function
	.globl	_ZNK2kc10impl_phyla9subphylumEi # -- Begin function _ZNK2kc10impl_phyla9subphylumEi
	.p2align	5
	.type	_ZNK2kc10impl_phyla9subphylumEi,@function
_ZNK2kc10impl_phyla9subphylumEi:        # @_ZNK2kc10impl_phyla9subphylumEi
# %bb.0:                                # %entry
	ori	$a2, $zero, 1
	beq	$a1, $a2, .LBB103_3
# %bb.1:                                # %entry
	bnez	$a1, .LBB103_4
# %bb.2:                                # %sw.bb
	ld.d	$a0, $a0, 8
	ret
.LBB103_3:                              # %sw.bb2
	ld.d	$a0, $a0, 16
	ret
.LBB103_4:
	move	$a0, $zero
	ret
.Lfunc_end103:
	.size	_ZNK2kc10impl_phyla9subphylumEi, .Lfunc_end103-_ZNK2kc10impl_phyla9subphylumEi
                                        # -- End function
	.globl	_ZNK2kc14impl_operators9subphylumEi # -- Begin function _ZNK2kc14impl_operators9subphylumEi
	.p2align	5
	.type	_ZNK2kc14impl_operators9subphylumEi,@function
_ZNK2kc14impl_operators9subphylumEi:    # @_ZNK2kc14impl_operators9subphylumEi
# %bb.0:                                # %entry
	ori	$a2, $zero, 1
	beq	$a1, $a2, .LBB104_3
# %bb.1:                                # %entry
	bnez	$a1, .LBB104_4
# %bb.2:                                # %sw.bb
	ld.d	$a0, $a0, 8
	ret
.LBB104_3:                              # %sw.bb2
	ld.d	$a0, $a0, 16
	ret
.LBB104_4:
	move	$a0, $zero
	ret
.Lfunc_end104:
	.size	_ZNK2kc14impl_operators9subphylumEi, .Lfunc_end104-_ZNK2kc14impl_operators9subphylumEi
                                        # -- End function
	.globl	_ZNK2kc26impl_IDtype_ITLanguageName9subphylumEi # -- Begin function _ZNK2kc26impl_IDtype_ITLanguageName9subphylumEi
	.p2align	5
	.type	_ZNK2kc26impl_IDtype_ITLanguageName9subphylumEi,@function
_ZNK2kc26impl_IDtype_ITLanguageName9subphylumEi: # @_ZNK2kc26impl_IDtype_ITLanguageName9subphylumEi
# %bb.0:                                # %entry
	ld.d	$a0, $a0, 8
	sltui	$a1, $a1, 1
	maskeqz	$a0, $a0, $a1
	ret
.Lfunc_end105:
	.size	_ZNK2kc26impl_IDtype_ITLanguageName9subphylumEi, .Lfunc_end105-_ZNK2kc26impl_IDtype_ITLanguageName9subphylumEi
                                        # -- End function
	.globl	_ZNK2kc29impl_IDtype_ITPatternVariable9subphylumEi # -- Begin function _ZNK2kc29impl_IDtype_ITPatternVariable9subphylumEi
	.p2align	5
	.type	_ZNK2kc29impl_IDtype_ITPatternVariable9subphylumEi,@function
_ZNK2kc29impl_IDtype_ITPatternVariable9subphylumEi: # @_ZNK2kc29impl_IDtype_ITPatternVariable9subphylumEi
# %bb.0:                                # %entry
	ori	$a2, $zero, 1
	beq	$a1, $a2, .LBB106_3
# %bb.1:                                # %entry
	bnez	$a1, .LBB106_4
# %bb.2:                                # %sw.bb
	ld.d	$a0, $a0, 8
	ret
.LBB106_3:                              # %sw.bb2
	ld.d	$a0, $a0, 16
	ret
.LBB106_4:
	move	$a0, $zero
	ret
.Lfunc_end106:
	.size	_ZNK2kc29impl_IDtype_ITPatternVariable9subphylumEi, .Lfunc_end106-_ZNK2kc29impl_IDtype_ITPatternVariable9subphylumEi
                                        # -- End function
	.globl	_ZNK2kc26impl_IDtype_ITUserFunction9subphylumEi # -- Begin function _ZNK2kc26impl_IDtype_ITUserFunction9subphylumEi
	.p2align	5
	.type	_ZNK2kc26impl_IDtype_ITUserFunction9subphylumEi,@function
_ZNK2kc26impl_IDtype_ITUserFunction9subphylumEi: # @_ZNK2kc26impl_IDtype_ITUserFunction9subphylumEi
# %bb.0:                                # %entry
	ld.d	$a0, $a0, 8
	sltui	$a1, $a1, 1
	maskeqz	$a0, $a0, $a1
	ret
.Lfunc_end107:
	.size	_ZNK2kc26impl_IDtype_ITUserFunction9subphylumEi, .Lfunc_end107-_ZNK2kc26impl_IDtype_ITUserFunction9subphylumEi
                                        # -- End function
	.globl	_ZNK2kc26impl_IDtype_ITUserOperator9subphylumEi # -- Begin function _ZNK2kc26impl_IDtype_ITUserOperator9subphylumEi
	.p2align	5
	.type	_ZNK2kc26impl_IDtype_ITUserOperator9subphylumEi,@function
_ZNK2kc26impl_IDtype_ITUserOperator9subphylumEi: # @_ZNK2kc26impl_IDtype_ITUserOperator9subphylumEi
# %bb.0:                                # %entry
	ori	$a2, $zero, 1
	beq	$a1, $a2, .LBB108_3
# %bb.1:                                # %entry
	bnez	$a1, .LBB108_4
# %bb.2:                                # %sw.bb
	ld.d	$a0, $a0, 8
	ret
.LBB108_3:                              # %sw.bb2
	ld.d	$a0, $a0, 16
	ret
.LBB108_4:
	move	$a0, $zero
	ret
.Lfunc_end108:
	.size	_ZNK2kc26impl_IDtype_ITUserOperator9subphylumEi, .Lfunc_end108-_ZNK2kc26impl_IDtype_ITUserOperator9subphylumEi
                                        # -- End function
	.globl	_ZNK2kc32impl_IDtype_ITPredefinedOperator9subphylumEi # -- Begin function _ZNK2kc32impl_IDtype_ITPredefinedOperator9subphylumEi
	.p2align	5
	.type	_ZNK2kc32impl_IDtype_ITPredefinedOperator9subphylumEi,@function
_ZNK2kc32impl_IDtype_ITPredefinedOperator9subphylumEi: # @_ZNK2kc32impl_IDtype_ITPredefinedOperator9subphylumEi
# %bb.0:                                # %entry
	ori	$a2, $zero, 1
	beq	$a1, $a2, .LBB109_3
# %bb.1:                                # %entry
	bnez	$a1, .LBB109_4
# %bb.2:                                # %sw.bb
	ld.d	$a0, $a0, 8
	ret
.LBB109_3:                              # %sw.bb2
	ld.d	$a0, $a0, 16
	ret
.LBB109_4:
	move	$a0, $zero
	ret
.Lfunc_end109:
	.size	_ZNK2kc32impl_IDtype_ITPredefinedOperator9subphylumEi, .Lfunc_end109-_ZNK2kc32impl_IDtype_ITPredefinedOperator9subphylumEi
                                        # -- End function
	.globl	_ZNK2kc24impl_IDtype_ITUserPhylum9subphylumEi # -- Begin function _ZNK2kc24impl_IDtype_ITUserPhylum9subphylumEi
	.p2align	5
	.type	_ZNK2kc24impl_IDtype_ITUserPhylum9subphylumEi,@function
_ZNK2kc24impl_IDtype_ITUserPhylum9subphylumEi: # @_ZNK2kc24impl_IDtype_ITUserPhylum9subphylumEi
# %bb.0:                                # %entry
	ld.d	$a0, $a0, 8
	sltui	$a1, $a1, 1
	maskeqz	$a0, $a0, $a1
	ret
.Lfunc_end110:
	.size	_ZNK2kc24impl_IDtype_ITUserPhylum9subphylumEi, .Lfunc_end110-_ZNK2kc24impl_IDtype_ITUserPhylum9subphylumEi
                                        # -- End function
	.globl	_ZNK2kc30impl_IDtype_ITPredefinedPhylum9subphylumEi # -- Begin function _ZNK2kc30impl_IDtype_ITPredefinedPhylum9subphylumEi
	.p2align	5
	.type	_ZNK2kc30impl_IDtype_ITPredefinedPhylum9subphylumEi,@function
_ZNK2kc30impl_IDtype_ITPredefinedPhylum9subphylumEi: # @_ZNK2kc30impl_IDtype_ITPredefinedPhylum9subphylumEi
# %bb.0:                                # %entry
	ld.d	$a0, $a0, 8
	sltui	$a1, $a1, 1
	maskeqz	$a0, $a0, $a1
	ret
.Lfunc_end111:
	.size	_ZNK2kc30impl_IDtype_ITPredefinedPhylum9subphylumEi, .Lfunc_end111-_ZNK2kc30impl_IDtype_ITPredefinedPhylum9subphylumEi
                                        # -- End function
	.globl	_ZNK2kc40impl_scopetypefileline_ScopeTypeFileLine9subphylumEi # -- Begin function _ZNK2kc40impl_scopetypefileline_ScopeTypeFileLine9subphylumEi
	.p2align	5
	.type	_ZNK2kc40impl_scopetypefileline_ScopeTypeFileLine9subphylumEi,@function
_ZNK2kc40impl_scopetypefileline_ScopeTypeFileLine9subphylumEi: # @_ZNK2kc40impl_scopetypefileline_ScopeTypeFileLine9subphylumEi
# %bb.0:                                # %entry
	ori	$a2, $zero, 3
	bltu	$a2, $a1, .LBB112_6
# %bb.1:                                # %entry
	slli.d	$a1, $a1, 2
	pcalau12i	$a2, %pc_hi20(.LJTI112_0)
	addi.d	$a2, $a2, %pc_lo12(.LJTI112_0)
	ldx.w	$a1, $a2, $a1
	add.d	$a1, $a2, $a1
	jr	$a1
.LBB112_2:                              # %sw.bb
	ld.d	$a0, $a0, 8
	ret
.LBB112_3:                              # %sw.bb3
	ld.d	$a0, $a0, 24
	ret
.LBB112_4:                              # %sw.bb4
	ld.d	$a0, $a0, 32
	ret
.LBB112_5:                              # %sw.bb2
	ld.d	$a0, $a0, 16
	ret
.LBB112_6:
	move	$a0, $zero
	ret
.Lfunc_end112:
	.size	_ZNK2kc40impl_scopetypefileline_ScopeTypeFileLine9subphylumEi, .Lfunc_end112-_ZNK2kc40impl_scopetypefileline_ScopeTypeFileLine9subphylumEi
	.section	.rodata,"a",@progbits
	.p2align	2, 0x0
.LJTI112_0:
	.word	.LBB112_2-.LJTI112_0
	.word	.LBB112_5-.LJTI112_0
	.word	.LBB112_3-.LJTI112_0
	.word	.LBB112_4-.LJTI112_0
                                        # -- End function
	.text
	.globl	_ZNK2kc27impl_scopetypefilelinestack9subphylumEi # -- Begin function _ZNK2kc27impl_scopetypefilelinestack9subphylumEi
	.p2align	5
	.type	_ZNK2kc27impl_scopetypefilelinestack9subphylumEi,@function
_ZNK2kc27impl_scopetypefilelinestack9subphylumEi: # @_ZNK2kc27impl_scopetypefilelinestack9subphylumEi
# %bb.0:                                # %entry
	ori	$a2, $zero, 1
	beq	$a1, $a2, .LBB113_3
# %bb.1:                                # %entry
	bnez	$a1, .LBB113_4
# %bb.2:                                # %sw.bb
	ld.d	$a0, $a0, 8
	ret
.LBB113_3:                              # %sw.bb2
	ld.d	$a0, $a0, 16
	ret
.LBB113_4:
	move	$a0, $zero
	ret
.Lfunc_end113:
	.size	_ZNK2kc27impl_scopetypefilelinestack9subphylumEi, .Lfunc_end113-_ZNK2kc27impl_scopetypefilelinestack9subphylumEi
                                        # -- End function
	.globl	_ZNK2kc18impl_languagenames9subphylumEi # -- Begin function _ZNK2kc18impl_languagenames9subphylumEi
	.p2align	5
	.type	_ZNK2kc18impl_languagenames9subphylumEi,@function
_ZNK2kc18impl_languagenames9subphylumEi: # @_ZNK2kc18impl_languagenames9subphylumEi
# %bb.0:                                # %entry
	ori	$a2, $zero, 1
	beq	$a1, $a2, .LBB114_3
# %bb.1:                                # %entry
	bnez	$a1, .LBB114_4
# %bb.2:                                # %sw.bb
	ld.d	$a0, $a0, 8
	ret
.LBB114_3:                              # %sw.bb2
	ld.d	$a0, $a0, 16
	ret
.LBB114_4:
	move	$a0, $zero
	ret
.Lfunc_end114:
	.size	_ZNK2kc18impl_languagenames9subphylumEi, .Lfunc_end114-_ZNK2kc18impl_languagenames9subphylumEi
                                        # -- End function
	.globl	_ZNK2kc32impl_languageoption_LanguageList9subphylumEi # -- Begin function _ZNK2kc32impl_languageoption_LanguageList9subphylumEi
	.p2align	5
	.type	_ZNK2kc32impl_languageoption_LanguageList9subphylumEi,@function
_ZNK2kc32impl_languageoption_LanguageList9subphylumEi: # @_ZNK2kc32impl_languageoption_LanguageList9subphylumEi
# %bb.0:                                # %entry
	ld.d	$a0, $a0, 8
	sltui	$a1, $a1, 1
	maskeqz	$a0, $a0, $a1
	ret
.Lfunc_end115:
	.size	_ZNK2kc32impl_languageoption_LanguageList9subphylumEi, .Lfunc_end115-_ZNK2kc32impl_languageoption_LanguageList9subphylumEi
                                        # -- End function
	.globl	_ZNK2kc31impl_viewnameoption_YesViewname9subphylumEi # -- Begin function _ZNK2kc31impl_viewnameoption_YesViewname9subphylumEi
	.p2align	5
	.type	_ZNK2kc31impl_viewnameoption_YesViewname9subphylumEi,@function
_ZNK2kc31impl_viewnameoption_YesViewname9subphylumEi: # @_ZNK2kc31impl_viewnameoption_YesViewname9subphylumEi
# %bb.0:                                # %entry
	ld.d	$a0, $a0, 8
	sltui	$a1, $a1, 1
	maskeqz	$a0, $a0, $a1
	ret
.Lfunc_end116:
	.size	_ZNK2kc31impl_viewnameoption_YesViewname9subphylumEi, .Lfunc_end116-_ZNK2kc31impl_viewnameoption_YesViewname9subphylumEi
                                        # -- End function
	.globl	_ZNK2kc18impl_unpattributes9subphylumEi # -- Begin function _ZNK2kc18impl_unpattributes9subphylumEi
	.p2align	5
	.type	_ZNK2kc18impl_unpattributes9subphylumEi,@function
_ZNK2kc18impl_unpattributes9subphylumEi: # @_ZNK2kc18impl_unpattributes9subphylumEi
# %bb.0:                                # %entry
	ori	$a2, $zero, 1
	beq	$a1, $a2, .LBB117_3
# %bb.1:                                # %entry
	bnez	$a1, .LBB117_4
# %bb.2:                                # %sw.bb
	ld.d	$a0, $a0, 8
	ret
.LBB117_3:                              # %sw.bb2
	ld.d	$a0, $a0, 16
	ret
.LBB117_4:
	move	$a0, $zero
	ret
.Lfunc_end117:
	.size	_ZNK2kc18impl_unpattributes9subphylumEi, .Lfunc_end117-_ZNK2kc18impl_unpattributes9subphylumEi
                                        # -- End function
	.globl	_ZNK2kc33impl_unpsubterm_UnpCastedVariable9subphylumEi # -- Begin function _ZNK2kc33impl_unpsubterm_UnpCastedVariable9subphylumEi
	.p2align	5
	.type	_ZNK2kc33impl_unpsubterm_UnpCastedVariable9subphylumEi,@function
_ZNK2kc33impl_unpsubterm_UnpCastedVariable9subphylumEi: # @_ZNK2kc33impl_unpsubterm_UnpCastedVariable9subphylumEi
# %bb.0:                                # %entry
	ori	$a2, $zero, 1
	beq	$a1, $a2, .LBB118_3
# %bb.1:                                # %entry
	bnez	$a1, .LBB118_4
# %bb.2:                                # %sw.bb
	ld.d	$a0, $a0, 8
	ret
.LBB118_3:                              # %sw.bb2
	ld.d	$a0, $a0, 16
	ret
.LBB118_4:
	move	$a0, $zero
	ret
.Lfunc_end118:
	.size	_ZNK2kc33impl_unpsubterm_UnpCastedVariable9subphylumEi, .Lfunc_end118-_ZNK2kc33impl_unpsubterm_UnpCastedVariable9subphylumEi
                                        # -- End function
	.globl	_ZNK2kc32impl_unpsubterm_UnpDollarvarAttr9subphylumEi # -- Begin function _ZNK2kc32impl_unpsubterm_UnpDollarvarAttr9subphylumEi
	.p2align	5
	.type	_ZNK2kc32impl_unpsubterm_UnpDollarvarAttr9subphylumEi,@function
_ZNK2kc32impl_unpsubterm_UnpDollarvarAttr9subphylumEi: # @_ZNK2kc32impl_unpsubterm_UnpDollarvarAttr9subphylumEi
# %bb.0:                                # %entry
	ori	$a2, $zero, 1
	beq	$a1, $a2, .LBB119_3
# %bb.1:                                # %entry
	bnez	$a1, .LBB119_4
# %bb.2:                                # %sw.bb
	ld.d	$a0, $a0, 8
	ret
.LBB119_3:                              # %sw.bb2
	ld.d	$a0, $a0, 16
	ret
.LBB119_4:
	move	$a0, $zero
	ret
.Lfunc_end119:
	.size	_ZNK2kc32impl_unpsubterm_UnpDollarvarAttr9subphylumEi, .Lfunc_end119-_ZNK2kc32impl_unpsubterm_UnpDollarvarAttr9subphylumEi
                                        # -- End function
	.globl	_ZNK2kc26impl_unpsubterm_UnpSubAttr9subphylumEi # -- Begin function _ZNK2kc26impl_unpsubterm_UnpSubAttr9subphylumEi
	.p2align	5
	.type	_ZNK2kc26impl_unpsubterm_UnpSubAttr9subphylumEi,@function
_ZNK2kc26impl_unpsubterm_UnpSubAttr9subphylumEi: # @_ZNK2kc26impl_unpsubterm_UnpSubAttr9subphylumEi
# %bb.0:                                # %entry
	ori	$a2, $zero, 1
	beq	$a1, $a2, .LBB120_3
# %bb.1:                                # %entry
	bnez	$a1, .LBB120_4
# %bb.2:                                # %sw.bb
	ld.d	$a0, $a0, 8
	ret
.LBB120_3:                              # %sw.bb2
	ld.d	$a0, $a0, 16
	ret
.LBB120_4:
	move	$a0, $zero
	ret
.Lfunc_end120:
	.size	_ZNK2kc26impl_unpsubterm_UnpSubAttr9subphylumEi, .Lfunc_end120-_ZNK2kc26impl_unpsubterm_UnpSubAttr9subphylumEi
                                        # -- End function
	.globl	_ZNK2kc32impl_unpsubterm_UnpDollarvarTerm9subphylumEi # -- Begin function _ZNK2kc32impl_unpsubterm_UnpDollarvarTerm9subphylumEi
	.p2align	5
	.type	_ZNK2kc32impl_unpsubterm_UnpDollarvarTerm9subphylumEi,@function
_ZNK2kc32impl_unpsubterm_UnpDollarvarTerm9subphylumEi: # @_ZNK2kc32impl_unpsubterm_UnpDollarvarTerm9subphylumEi
# %bb.0:                                # %entry
	ld.d	$a0, $a0, 8
	sltui	$a1, $a1, 1
	maskeqz	$a0, $a0, $a1
	ret
.Lfunc_end121:
	.size	_ZNK2kc32impl_unpsubterm_UnpDollarvarTerm9subphylumEi, .Lfunc_end121-_ZNK2kc32impl_unpsubterm_UnpDollarvarTerm9subphylumEi
                                        # -- End function
	.globl	_ZNK2kc26impl_unpsubterm_UnpSubTerm9subphylumEi # -- Begin function _ZNK2kc26impl_unpsubterm_UnpSubTerm9subphylumEi
	.p2align	5
	.type	_ZNK2kc26impl_unpsubterm_UnpSubTerm9subphylumEi,@function
_ZNK2kc26impl_unpsubterm_UnpSubTerm9subphylumEi: # @_ZNK2kc26impl_unpsubterm_UnpSubTerm9subphylumEi
# %bb.0:                                # %entry
	ld.d	$a0, $a0, 8
	sltui	$a1, $a1, 1
	maskeqz	$a0, $a0, $a1
	ret
.Lfunc_end122:
	.size	_ZNK2kc26impl_unpsubterm_UnpSubTerm9subphylumEi, .Lfunc_end122-_ZNK2kc26impl_unpsubterm_UnpSubTerm9subphylumEi
                                        # -- End function
	.globl	_ZNK2kc29impl_unparseitem_UViewVarDecl9subphylumEi # -- Begin function _ZNK2kc29impl_unparseitem_UViewVarDecl9subphylumEi
	.p2align	5
	.type	_ZNK2kc29impl_unparseitem_UViewVarDecl9subphylumEi,@function
_ZNK2kc29impl_unparseitem_UViewVarDecl9subphylumEi: # @_ZNK2kc29impl_unparseitem_UViewVarDecl9subphylumEi
# %bb.0:                                # %entry
	ori	$a2, $zero, 2
	beq	$a1, $a2, .LBB123_5
# %bb.1:                                # %entry
	ori	$a2, $zero, 1
	beq	$a1, $a2, .LBB123_4
# %bb.2:                                # %entry
	bnez	$a1, .LBB123_6
# %bb.3:                                # %sw.bb
	ld.d	$a0, $a0, 16
	ret
.LBB123_4:                              # %sw.bb2
	ld.d	$a0, $a0, 24
	ret
.LBB123_5:                              # %sw.bb3
	ld.d	$a0, $a0, 32
	ret
.LBB123_6:
	move	$a0, $zero
	ret
.Lfunc_end123:
	.size	_ZNK2kc29impl_unparseitem_UViewVarDecl9subphylumEi, .Lfunc_end123-_ZNK2kc29impl_unparseitem_UViewVarDecl9subphylumEi
                                        # -- End function
	.globl	_ZNK2kc24impl_unparseitem_UnpBody9subphylumEi # -- Begin function _ZNK2kc24impl_unparseitem_UnpBody9subphylumEi
	.p2align	5
	.type	_ZNK2kc24impl_unparseitem_UnpBody9subphylumEi,@function
_ZNK2kc24impl_unparseitem_UnpBody9subphylumEi: # @_ZNK2kc24impl_unparseitem_UnpBody9subphylumEi
# %bb.0:                                # %entry
	ori	$a2, $zero, 1
	beq	$a1, $a2, .LBB124_3
# %bb.1:                                # %entry
	bnez	$a1, .LBB124_4
# %bb.2:                                # %sw.bb
	ld.d	$a0, $a0, 16
	ret
.LBB124_3:                              # %sw.bb2
	ld.d	$a0, $a0, 24
	ret
.LBB124_4:
	move	$a0, $zero
	ret
.Lfunc_end124:
	.size	_ZNK2kc24impl_unparseitem_UnpBody9subphylumEi, .Lfunc_end124-_ZNK2kc24impl_unparseitem_UnpBody9subphylumEi
                                        # -- End function
	.globl	_ZNK2kc25impl_unparseitem_UnpCtext9subphylumEi # -- Begin function _ZNK2kc25impl_unparseitem_UnpCtext9subphylumEi
	.p2align	5
	.type	_ZNK2kc25impl_unparseitem_UnpCtext9subphylumEi,@function
_ZNK2kc25impl_unparseitem_UnpCtext9subphylumEi: # @_ZNK2kc25impl_unparseitem_UnpCtext9subphylumEi
# %bb.0:                                # %entry
	ori	$a2, $zero, 1
	beq	$a1, $a2, .LBB125_3
# %bb.1:                                # %entry
	bnez	$a1, .LBB125_4
# %bb.2:                                # %sw.bb
	ld.d	$a0, $a0, 16
	ret
.LBB125_3:                              # %sw.bb2
	ld.d	$a0, $a0, 24
	ret
.LBB125_4:
	move	$a0, $zero
	ret
.Lfunc_end125:
	.size	_ZNK2kc25impl_unparseitem_UnpCtext9subphylumEi, .Lfunc_end125-_ZNK2kc25impl_unparseitem_UnpCtext9subphylumEi
                                        # -- End function
	.globl	_ZNK2kc27impl_unparseitem_UnpSubexpr9subphylumEi # -- Begin function _ZNK2kc27impl_unparseitem_UnpSubexpr9subphylumEi
	.p2align	5
	.type	_ZNK2kc27impl_unparseitem_UnpSubexpr9subphylumEi,@function
_ZNK2kc27impl_unparseitem_UnpSubexpr9subphylumEi: # @_ZNK2kc27impl_unparseitem_UnpSubexpr9subphylumEi
# %bb.0:                                # %entry
	ori	$a2, $zero, 2
	beq	$a1, $a2, .LBB126_5
# %bb.1:                                # %entry
	ori	$a2, $zero, 1
	beq	$a1, $a2, .LBB126_4
# %bb.2:                                # %entry
	bnez	$a1, .LBB126_6
# %bb.3:                                # %sw.bb
	ld.d	$a0, $a0, 16
	ret
.LBB126_4:                              # %sw.bb2
	ld.d	$a0, $a0, 24
	ret
.LBB126_5:                              # %sw.bb3
	ld.d	$a0, $a0, 32
	ret
.LBB126_6:
	move	$a0, $zero
	ret
.Lfunc_end126:
	.size	_ZNK2kc27impl_unparseitem_UnpSubexpr9subphylumEi, .Lfunc_end126-_ZNK2kc27impl_unparseitem_UnpSubexpr9subphylumEi
                                        # -- End function
	.globl	_ZNK2kc23impl_unparseitem_UnpStr9subphylumEi # -- Begin function _ZNK2kc23impl_unparseitem_UnpStr9subphylumEi
	.p2align	5
	.type	_ZNK2kc23impl_unparseitem_UnpStr9subphylumEi,@function
_ZNK2kc23impl_unparseitem_UnpStr9subphylumEi: # @_ZNK2kc23impl_unparseitem_UnpStr9subphylumEi
# %bb.0:                                # %entry
	ori	$a2, $zero, 2
	beq	$a1, $a2, .LBB127_5
# %bb.1:                                # %entry
	ori	$a2, $zero, 1
	beq	$a1, $a2, .LBB127_4
# %bb.2:                                # %entry
	bnez	$a1, .LBB127_6
# %bb.3:                                # %sw.bb
	ld.d	$a0, $a0, 16
	ret
.LBB127_4:                              # %sw.bb2
	ld.d	$a0, $a0, 24
	ret
.LBB127_5:                              # %sw.bb3
	ld.d	$a0, $a0, 32
	ret
.LBB127_6:
	move	$a0, $zero
	ret
.Lfunc_end127:
	.size	_ZNK2kc23impl_unparseitem_UnpStr9subphylumEi, .Lfunc_end127-_ZNK2kc23impl_unparseitem_UnpStr9subphylumEi
                                        # -- End function
	.globl	_ZNK2kc17impl_unparseitems9subphylumEi # -- Begin function _ZNK2kc17impl_unparseitems9subphylumEi
	.p2align	5
	.type	_ZNK2kc17impl_unparseitems9subphylumEi,@function
_ZNK2kc17impl_unparseitems9subphylumEi: # @_ZNK2kc17impl_unparseitems9subphylumEi
# %bb.0:                                # %entry
	ori	$a2, $zero, 1
	beq	$a1, $a2, .LBB128_3
# %bb.1:                                # %entry
	bnez	$a1, .LBB128_4
# %bb.2:                                # %sw.bb
	ld.d	$a0, $a0, 8
	ret
.LBB128_3:                              # %sw.bb2
	ld.d	$a0, $a0, 16
	ret
.LBB128_4:
	move	$a0, $zero
	ret
.Lfunc_end128:
	.size	_ZNK2kc17impl_unparseitems9subphylumEi, .Lfunc_end128-_ZNK2kc17impl_unparseitems9subphylumEi
                                        # -- End function
	.globl	_ZNK2kc14impl_viewnames9subphylumEi # -- Begin function _ZNK2kc14impl_viewnames9subphylumEi
	.p2align	5
	.type	_ZNK2kc14impl_viewnames9subphylumEi,@function
_ZNK2kc14impl_viewnames9subphylumEi:    # @_ZNK2kc14impl_viewnames9subphylumEi
# %bb.0:                                # %entry
	ori	$a2, $zero, 1
	beq	$a1, $a2, .LBB129_3
# %bb.1:                                # %entry
	bnez	$a1, .LBB129_4
# %bb.2:                                # %sw.bb
	ld.d	$a0, $a0, 16
	ret
.LBB129_3:                              # %sw.bb2
	ld.d	$a0, $a0, 24
	ret
.LBB129_4:
	move	$a0, $zero
	ret
.Lfunc_end129:
	.size	_ZNK2kc14impl_viewnames9subphylumEi, .Lfunc_end129-_ZNK2kc14impl_viewnames9subphylumEi
                                        # -- End function
	.globl	_ZNK2kc32impl_unparseclause_UnparseClause9subphylumEi # -- Begin function _ZNK2kc32impl_unparseclause_UnparseClause9subphylumEi
	.p2align	5
	.type	_ZNK2kc32impl_unparseclause_UnparseClause9subphylumEi,@function
_ZNK2kc32impl_unparseclause_UnparseClause9subphylumEi: # @_ZNK2kc32impl_unparseclause_UnparseClause9subphylumEi
# %bb.0:                                # %entry
	ori	$a2, $zero, 1
	beq	$a1, $a2, .LBB130_3
# %bb.1:                                # %entry
	bnez	$a1, .LBB130_4
# %bb.2:                                # %sw.bb
	ld.d	$a0, $a0, 8
	ret
.LBB130_3:                              # %sw.bb2
	ld.d	$a0, $a0, 16
	ret
.LBB130_4:
	move	$a0, $zero
	ret
.Lfunc_end130:
	.size	_ZNK2kc32impl_unparseclause_UnparseClause9subphylumEi, .Lfunc_end130-_ZNK2kc32impl_unparseclause_UnparseClause9subphylumEi
                                        # -- End function
	.globl	_ZNK2kc19impl_unparseclauses9subphylumEi # -- Begin function _ZNK2kc19impl_unparseclauses9subphylumEi
	.p2align	5
	.type	_ZNK2kc19impl_unparseclauses9subphylumEi,@function
_ZNK2kc19impl_unparseclauses9subphylumEi: # @_ZNK2kc19impl_unparseclauses9subphylumEi
# %bb.0:                                # %entry
	ori	$a2, $zero, 1
	beq	$a1, $a2, .LBB131_3
# %bb.1:                                # %entry
	bnez	$a1, .LBB131_4
# %bb.2:                                # %sw.bb
	ld.d	$a0, $a0, 8
	ret
.LBB131_3:                              # %sw.bb2
	ld.d	$a0, $a0, 16
	ret
.LBB131_4:
	move	$a0, $zero
	ret
.Lfunc_end131:
	.size	_ZNK2kc19impl_unparseclauses9subphylumEi, .Lfunc_end131-_ZNK2kc19impl_unparseclauses9subphylumEi
                                        # -- End function
	.globl	_ZNK2kc42impl_unparsedeclaration_UnparseDeclaration9subphylumEi # -- Begin function _ZNK2kc42impl_unparsedeclaration_UnparseDeclaration9subphylumEi
	.p2align	5
	.type	_ZNK2kc42impl_unparsedeclaration_UnparseDeclaration9subphylumEi,@function
_ZNK2kc42impl_unparsedeclaration_UnparseDeclaration9subphylumEi: # @_ZNK2kc42impl_unparsedeclaration_UnparseDeclaration9subphylumEi
# %bb.0:                                # %entry
	ori	$a2, $zero, 1
	beq	$a1, $a2, .LBB132_3
# %bb.1:                                # %entry
	bnez	$a1, .LBB132_4
# %bb.2:                                # %sw.bb
	ld.d	$a0, $a0, 16
	ret
.LBB132_3:                              # %sw.bb2
	ld.d	$a0, $a0, 24
	ret
.LBB132_4:
	move	$a0, $zero
	ret
.Lfunc_end132:
	.size	_ZNK2kc42impl_unparsedeclaration_UnparseDeclaration9subphylumEi, .Lfunc_end132-_ZNK2kc42impl_unparsedeclaration_UnparseDeclaration9subphylumEi
                                        # -- End function
	.globl	_ZNK2kc24impl_unparsedeclarations9subphylumEi # -- Begin function _ZNK2kc24impl_unparsedeclarations9subphylumEi
	.p2align	5
	.type	_ZNK2kc24impl_unparsedeclarations9subphylumEi,@function
_ZNK2kc24impl_unparsedeclarations9subphylumEi: # @_ZNK2kc24impl_unparsedeclarations9subphylumEi
# %bb.0:                                # %entry
	ori	$a2, $zero, 1
	beq	$a1, $a2, .LBB133_3
# %bb.1:                                # %entry
	bnez	$a1, .LBB133_4
# %bb.2:                                # %sw.bb
	ld.d	$a0, $a0, 8
	ret
.LBB133_3:                              # %sw.bb2
	ld.d	$a0, $a0, 16
	ret
.LBB133_4:
	move	$a0, $zero
	ret
.Lfunc_end133:
	.size	_ZNK2kc24impl_unparsedeclarations9subphylumEi, .Lfunc_end133-_ZNK2kc24impl_unparsedeclarations9subphylumEi
                                        # -- End function
	.globl	_ZNK2kc22impl_withcase_Withcase9subphylumEi # -- Begin function _ZNK2kc22impl_withcase_Withcase9subphylumEi
	.p2align	5
	.type	_ZNK2kc22impl_withcase_Withcase9subphylumEi,@function
_ZNK2kc22impl_withcase_Withcase9subphylumEi: # @_ZNK2kc22impl_withcase_Withcase9subphylumEi
# %bb.0:                                # %entry
	ori	$a2, $zero, 1
	beq	$a1, $a2, .LBB134_3
# %bb.1:                                # %entry
	bnez	$a1, .LBB134_4
# %bb.2:                                # %sw.bb
	ld.d	$a0, $a0, 16
	ret
.LBB134_3:                              # %sw.bb2
	ld.d	$a0, $a0, 24
	ret
.LBB134_4:
	move	$a0, $zero
	ret
.Lfunc_end134:
	.size	_ZNK2kc22impl_withcase_Withcase9subphylumEi, .Lfunc_end134-_ZNK2kc22impl_withcase_Withcase9subphylumEi
                                        # -- End function
	.globl	_ZNK2kc14impl_withcases9subphylumEi # -- Begin function _ZNK2kc14impl_withcases9subphylumEi
	.p2align	5
	.type	_ZNK2kc14impl_withcases9subphylumEi,@function
_ZNK2kc14impl_withcases9subphylumEi:    # @_ZNK2kc14impl_withcases9subphylumEi
# %bb.0:                                # %entry
	ori	$a2, $zero, 1
	beq	$a1, $a2, .LBB135_3
# %bb.1:                                # %entry
	bnez	$a1, .LBB135_4
# %bb.2:                                # %sw.bb
	ld.d	$a0, $a0, 16
	ret
.LBB135_3:                              # %sw.bb2
	ld.d	$a0, $a0, 24
	ret
.LBB135_4:
	move	$a0, $zero
	ret
.Lfunc_end135:
	.size	_ZNK2kc14impl_withcases9subphylumEi, .Lfunc_end135-_ZNK2kc14impl_withcases9subphylumEi
                                        # -- End function
	.globl	_ZNK2kc33impl_withexpression_WECexpression9subphylumEi # -- Begin function _ZNK2kc33impl_withexpression_WECexpression9subphylumEi
	.p2align	5
	.type	_ZNK2kc33impl_withexpression_WECexpression9subphylumEi,@function
_ZNK2kc33impl_withexpression_WECexpression9subphylumEi: # @_ZNK2kc33impl_withexpression_WECexpression9subphylumEi
# %bb.0:                                # %entry
	ld.d	$a0, $a0, 32
	sltui	$a1, $a1, 1
	maskeqz	$a0, $a0, $a1
	ret
.Lfunc_end136:
	.size	_ZNK2kc33impl_withexpression_WECexpression9subphylumEi, .Lfunc_end136-_ZNK2kc33impl_withexpression_WECexpression9subphylumEi
                                        # -- End function
	.globl	_ZNK2kc30impl_withexpression_WEVariable9subphylumEi # -- Begin function _ZNK2kc30impl_withexpression_WEVariable9subphylumEi
	.p2align	5
	.type	_ZNK2kc30impl_withexpression_WEVariable9subphylumEi,@function
_ZNK2kc30impl_withexpression_WEVariable9subphylumEi: # @_ZNK2kc30impl_withexpression_WEVariable9subphylumEi
# %bb.0:                                # %entry
	ld.d	$a0, $a0, 32
	sltui	$a1, $a1, 1
	maskeqz	$a0, $a0, $a1
	ret
.Lfunc_end137:
	.size	_ZNK2kc30impl_withexpression_WEVariable9subphylumEi, .Lfunc_end137-_ZNK2kc30impl_withexpression_WEVariable9subphylumEi
                                        # -- End function
	.globl	_ZNK2kc20impl_withexpressions9subphylumEi # -- Begin function _ZNK2kc20impl_withexpressions9subphylumEi
	.p2align	5
	.type	_ZNK2kc20impl_withexpressions9subphylumEi,@function
_ZNK2kc20impl_withexpressions9subphylumEi: # @_ZNK2kc20impl_withexpressions9subphylumEi
# %bb.0:                                # %entry
	ori	$a2, $zero, 1
	beq	$a1, $a2, .LBB138_3
# %bb.1:                                # %entry
	bnez	$a1, .LBB138_4
# %bb.2:                                # %sw.bb
	ld.d	$a0, $a0, 32
	ret
.LBB138_3:                              # %sw.bb2
	ld.d	$a0, $a0, 40
	ret
.LBB138_4:
	move	$a0, $zero
	ret
.Lfunc_end138:
	.size	_ZNK2kc20impl_withexpressions9subphylumEi, .Lfunc_end138-_ZNK2kc20impl_withexpressions9subphylumEi
                                        # -- End function
	.globl	_ZNK2kc33impl_contextinfo_InForeachContext9subphylumEi # -- Begin function _ZNK2kc33impl_contextinfo_InForeachContext9subphylumEi
	.p2align	5
	.type	_ZNK2kc33impl_contextinfo_InForeachContext9subphylumEi,@function
_ZNK2kc33impl_contextinfo_InForeachContext9subphylumEi: # @_ZNK2kc33impl_contextinfo_InForeachContext9subphylumEi
# %bb.0:                                # %entry
	ld.d	$a0, $a0, 8
	sltui	$a1, $a1, 1
	maskeqz	$a0, $a0, $a1
	ret
.Lfunc_end139:
	.size	_ZNK2kc33impl_contextinfo_InForeachContext9subphylumEi, .Lfunc_end139-_ZNK2kc33impl_contextinfo_InForeachContext9subphylumEi
                                        # -- End function
	.globl	_ZNK2kc31impl_foreach_after_ForeachAfter9subphylumEi # -- Begin function _ZNK2kc31impl_foreach_after_ForeachAfter9subphylumEi
	.p2align	5
	.type	_ZNK2kc31impl_foreach_after_ForeachAfter9subphylumEi,@function
_ZNK2kc31impl_foreach_after_ForeachAfter9subphylumEi: # @_ZNK2kc31impl_foreach_after_ForeachAfter9subphylumEi
# %bb.0:                                # %entry
	ori	$a2, $zero, 3
	bltu	$a2, $a1, .LBB140_6
# %bb.1:                                # %entry
	slli.d	$a1, $a1, 2
	pcalau12i	$a2, %pc_hi20(.LJTI140_0)
	addi.d	$a2, $a2, %pc_lo12(.LJTI140_0)
	ldx.w	$a1, $a2, $a1
	add.d	$a1, $a2, $a1
	jr	$a1
.LBB140_2:                              # %sw.bb
	ld.d	$a0, $a0, 24
	ret
.LBB140_3:                              # %sw.bb3
	ld.d	$a0, $a0, 40
	ret
.LBB140_4:                              # %sw.bb4
	ld.d	$a0, $a0, 48
	ret
.LBB140_5:                              # %sw.bb2
	ld.d	$a0, $a0, 32
	ret
.LBB140_6:
	move	$a0, $zero
	ret
.Lfunc_end140:
	.size	_ZNK2kc31impl_foreach_after_ForeachAfter9subphylumEi, .Lfunc_end140-_ZNK2kc31impl_foreach_after_ForeachAfter9subphylumEi
	.section	.rodata,"a",@progbits
	.p2align	2, 0x0
.LJTI140_0:
	.word	.LBB140_2-.LJTI140_0
	.word	.LBB140_5-.LJTI140_0
	.word	.LBB140_3-.LJTI140_0
	.word	.LBB140_4-.LJTI140_0
                                        # -- End function
	.text
	.globl	_ZNK2kc35impl_Ctext_elem_CTextWithexpression9subphylumEi # -- Begin function _ZNK2kc35impl_Ctext_elem_CTextWithexpression9subphylumEi
	.p2align	5
	.type	_ZNK2kc35impl_Ctext_elem_CTextWithexpression9subphylumEi,@function
_ZNK2kc35impl_Ctext_elem_CTextWithexpression9subphylumEi: # @_ZNK2kc35impl_Ctext_elem_CTextWithexpression9subphylumEi
# %bb.0:                                # %entry
	ori	$a2, $zero, 2
	beq	$a1, $a2, .LBB141_5
# %bb.1:                                # %entry
	ori	$a2, $zero, 1
	beq	$a1, $a2, .LBB141_4
# %bb.2:                                # %entry
	bnez	$a1, .LBB141_6
# %bb.3:                                # %sw.bb
	ld.d	$a0, $a0, 24
	ret
.LBB141_4:                              # %sw.bb2
	ld.d	$a0, $a0, 32
	ret
.LBB141_5:                              # %sw.bb3
	ld.d	$a0, $a0, 40
	ret
.LBB141_6:
	move	$a0, $zero
	ret
.Lfunc_end141:
	.size	_ZNK2kc35impl_Ctext_elem_CTextWithexpression9subphylumEi, .Lfunc_end141-_ZNK2kc35impl_Ctext_elem_CTextWithexpression9subphylumEi
                                        # -- End function
	.globl	_ZNK2kc38impl_Ctext_elem_CTextForeachexpression9subphylumEi # -- Begin function _ZNK2kc38impl_Ctext_elem_CTextForeachexpression9subphylumEi
	.p2align	5
	.type	_ZNK2kc38impl_Ctext_elem_CTextForeachexpression9subphylumEi,@function
_ZNK2kc38impl_Ctext_elem_CTextForeachexpression9subphylumEi: # @_ZNK2kc38impl_Ctext_elem_CTextForeachexpression9subphylumEi
# %bb.0:                                # %entry
	ori	$a2, $zero, 4
	bltu	$a2, $a1, .LBB142_7
# %bb.1:                                # %entry
	slli.d	$a1, $a1, 2
	pcalau12i	$a2, %pc_hi20(.LJTI142_0)
	addi.d	$a2, $a2, %pc_lo12(.LJTI142_0)
	ldx.w	$a1, $a2, $a1
	add.d	$a1, $a2, $a1
	jr	$a1
.LBB142_2:                              # %sw.bb
	ld.d	$a0, $a0, 24
	ret
.LBB142_3:                              # %sw.bb5
	ld.d	$a0, $a0, 56
	ret
.LBB142_4:                              # %sw.bb3
	ld.d	$a0, $a0, 40
	ret
.LBB142_5:                              # %sw.bb4
	ld.d	$a0, $a0, 48
	ret
.LBB142_6:                              # %sw.bb2
	ld.d	$a0, $a0, 32
	ret
.LBB142_7:
	move	$a0, $zero
	ret
.Lfunc_end142:
	.size	_ZNK2kc38impl_Ctext_elem_CTextForeachexpression9subphylumEi, .Lfunc_end142-_ZNK2kc38impl_Ctext_elem_CTextForeachexpression9subphylumEi
	.section	.rodata,"a",@progbits
	.p2align	2, 0x0
.LJTI142_0:
	.word	.LBB142_2-.LJTI142_0
	.word	.LBB142_6-.LJTI142_0
	.word	.LBB142_4-.LJTI142_0
	.word	.LBB142_5-.LJTI142_0
	.word	.LBB142_3-.LJTI142_0
                                        # -- End function
	.text
	.globl	_ZNK2kc26impl_Ctext_elem_CTextCbody9subphylumEi # -- Begin function _ZNK2kc26impl_Ctext_elem_CTextCbody9subphylumEi
	.p2align	5
	.type	_ZNK2kc26impl_Ctext_elem_CTextCbody9subphylumEi,@function
_ZNK2kc26impl_Ctext_elem_CTextCbody9subphylumEi: # @_ZNK2kc26impl_Ctext_elem_CTextCbody9subphylumEi
# %bb.0:                                # %entry
	ld.d	$a0, $a0, 24
	sltui	$a1, $a1, 1
	maskeqz	$a0, $a0, $a1
	ret
.Lfunc_end143:
	.size	_ZNK2kc26impl_Ctext_elem_CTextCbody9subphylumEi, .Lfunc_end143-_ZNK2kc26impl_Ctext_elem_CTextCbody9subphylumEi
                                        # -- End function
	.globl	_ZNK2kc34impl_Ctext_elem_CTextCexpressionSQ9subphylumEi # -- Begin function _ZNK2kc34impl_Ctext_elem_CTextCexpressionSQ9subphylumEi
	.p2align	5
	.type	_ZNK2kc34impl_Ctext_elem_CTextCexpressionSQ9subphylumEi,@function
_ZNK2kc34impl_Ctext_elem_CTextCexpressionSQ9subphylumEi: # @_ZNK2kc34impl_Ctext_elem_CTextCexpressionSQ9subphylumEi
# %bb.0:                                # %entry
	ld.d	$a0, $a0, 24
	sltui	$a1, $a1, 1
	maskeqz	$a0, $a0, $a1
	ret
.Lfunc_end144:
	.size	_ZNK2kc34impl_Ctext_elem_CTextCexpressionSQ9subphylumEi, .Lfunc_end144-_ZNK2kc34impl_Ctext_elem_CTextCexpressionSQ9subphylumEi
                                        # -- End function
	.globl	_ZNK2kc34impl_Ctext_elem_CTextCexpressionDQ9subphylumEi # -- Begin function _ZNK2kc34impl_Ctext_elem_CTextCexpressionDQ9subphylumEi
	.p2align	5
	.type	_ZNK2kc34impl_Ctext_elem_CTextCexpressionDQ9subphylumEi,@function
_ZNK2kc34impl_Ctext_elem_CTextCexpressionDQ9subphylumEi: # @_ZNK2kc34impl_Ctext_elem_CTextCexpressionDQ9subphylumEi
# %bb.0:                                # %entry
	ld.d	$a0, $a0, 24
	sltui	$a1, $a1, 1
	maskeqz	$a0, $a0, $a1
	ret
.Lfunc_end145:
	.size	_ZNK2kc34impl_Ctext_elem_CTextCexpressionDQ9subphylumEi, .Lfunc_end145-_ZNK2kc34impl_Ctext_elem_CTextCexpressionDQ9subphylumEi
                                        # -- End function
	.globl	_ZNK2kc23impl_Ctext_elem_CTextNl9subphylumEi # -- Begin function _ZNK2kc23impl_Ctext_elem_CTextNl9subphylumEi
	.p2align	5
	.type	_ZNK2kc23impl_Ctext_elem_CTextNl9subphylumEi,@function
_ZNK2kc23impl_Ctext_elem_CTextNl9subphylumEi: # @_ZNK2kc23impl_Ctext_elem_CTextNl9subphylumEi
# %bb.0:                                # %entry
	ld.d	$a0, $a0, 24
	sltui	$a1, $a1, 1
	maskeqz	$a0, $a0, $a1
	ret
.Lfunc_end146:
	.size	_ZNK2kc23impl_Ctext_elem_CTextNl9subphylumEi, .Lfunc_end146-_ZNK2kc23impl_Ctext_elem_CTextNl9subphylumEi
                                        # -- End function
	.globl	_ZNK2kc30impl_Ctext_elem_CTextDollarVar9subphylumEi # -- Begin function _ZNK2kc30impl_Ctext_elem_CTextDollarVar9subphylumEi
	.p2align	5
	.type	_ZNK2kc30impl_Ctext_elem_CTextDollarVar9subphylumEi,@function
_ZNK2kc30impl_Ctext_elem_CTextDollarVar9subphylumEi: # @_ZNK2kc30impl_Ctext_elem_CTextDollarVar9subphylumEi
# %bb.0:                                # %entry
	ld.d	$a0, $a0, 24
	sltui	$a1, $a1, 1
	maskeqz	$a0, $a0, $a1
	ret
.Lfunc_end147:
	.size	_ZNK2kc30impl_Ctext_elem_CTextDollarVar9subphylumEi, .Lfunc_end147-_ZNK2kc30impl_Ctext_elem_CTextDollarVar9subphylumEi
                                        # -- End function
	.globl	_ZNK2kc25impl_Ctext_elem_CTextLine9subphylumEi # -- Begin function _ZNK2kc25impl_Ctext_elem_CTextLine9subphylumEi
	.p2align	5
	.type	_ZNK2kc25impl_Ctext_elem_CTextLine9subphylumEi,@function
_ZNK2kc25impl_Ctext_elem_CTextLine9subphylumEi: # @_ZNK2kc25impl_Ctext_elem_CTextLine9subphylumEi
# %bb.0:                                # %entry
	ld.d	$a0, $a0, 24
	sltui	$a1, $a1, 1
	maskeqz	$a0, $a0, $a1
	ret
.Lfunc_end148:
	.size	_ZNK2kc25impl_Ctext_elem_CTextLine9subphylumEi, .Lfunc_end148-_ZNK2kc25impl_Ctext_elem_CTextLine9subphylumEi
                                        # -- End function
	.globl	_ZNK2kc10impl_Ctext9subphylumEi # -- Begin function _ZNK2kc10impl_Ctext9subphylumEi
	.p2align	5
	.type	_ZNK2kc10impl_Ctext9subphylumEi,@function
_ZNK2kc10impl_Ctext9subphylumEi:        # @_ZNK2kc10impl_Ctext9subphylumEi
# %bb.0:                                # %entry
	ori	$a2, $zero, 1
	beq	$a1, $a2, .LBB149_3
# %bb.1:                                # %entry
	bnez	$a1, .LBB149_4
# %bb.2:                                # %sw.bb
	ld.d	$a0, $a0, 24
	ret
.LBB149_3:                              # %sw.bb2
	ld.d	$a0, $a0, 32
	ret
.LBB149_4:
	move	$a0, $zero
	ret
.Lfunc_end149:
	.size	_ZNK2kc10impl_Ctext9subphylumEi, .Lfunc_end149-_ZNK2kc10impl_Ctext9subphylumEi
                                        # -- End function
	.globl	_ZNK2kc21impl_fnclass_StaticFn9subphylumEi # -- Begin function _ZNK2kc21impl_fnclass_StaticFn9subphylumEi
	.p2align	5
	.type	_ZNK2kc21impl_fnclass_StaticFn9subphylumEi,@function
_ZNK2kc21impl_fnclass_StaticFn9subphylumEi: # @_ZNK2kc21impl_fnclass_StaticFn9subphylumEi
# %bb.0:                                # %entry
	ld.d	$a0, $a0, 8
	sltui	$a1, $a1, 1
	maskeqz	$a0, $a0, $a1
	ret
.Lfunc_end150:
	.size	_ZNK2kc21impl_fnclass_StaticFn9subphylumEi, .Lfunc_end150-_ZNK2kc21impl_fnclass_StaticFn9subphylumEi
                                        # -- End function
	.globl	_ZNK2kc38impl_fndeclaration_AcMemberDeclaration9subphylumEi # -- Begin function _ZNK2kc38impl_fndeclaration_AcMemberDeclaration9subphylumEi
	.p2align	5
	.type	_ZNK2kc38impl_fndeclaration_AcMemberDeclaration9subphylumEi,@function
_ZNK2kc38impl_fndeclaration_AcMemberDeclaration9subphylumEi: # @_ZNK2kc38impl_fndeclaration_AcMemberDeclaration9subphylumEi
# %bb.0:                                # %entry
	ori	$a2, $zero, 3
	bltu	$a2, $a1, .LBB151_6
# %bb.1:                                # %entry
	slli.d	$a1, $a1, 2
	pcalau12i	$a2, %pc_hi20(.LJTI151_0)
	addi.d	$a2, $a2, %pc_lo12(.LJTI151_0)
	ldx.w	$a1, $a2, $a1
	add.d	$a1, $a2, $a1
	jr	$a1
.LBB151_2:                              # %sw.bb
	ld.d	$a0, $a0, 40
	ret
.LBB151_3:                              # %sw.bb3
	ld.d	$a0, $a0, 56
	ret
.LBB151_4:                              # %sw.bb4
	ld.d	$a0, $a0, 64
	ret
.LBB151_5:                              # %sw.bb2
	ld.d	$a0, $a0, 48
	ret
.LBB151_6:
	move	$a0, $zero
	ret
.Lfunc_end151:
	.size	_ZNK2kc38impl_fndeclaration_AcMemberDeclaration9subphylumEi, .Lfunc_end151-_ZNK2kc38impl_fndeclaration_AcMemberDeclaration9subphylumEi
	.section	.rodata,"a",@progbits
	.p2align	2, 0x0
.LJTI151_0:
	.word	.LBB151_2-.LJTI151_0
	.word	.LBB151_5-.LJTI151_0
	.word	.LBB151_3-.LJTI151_0
	.word	.LBB151_4-.LJTI151_0
                                        # -- End function
	.text
	.globl	_ZNK2kc34impl_fndeclaration_FnAcDeclaration9subphylumEi # -- Begin function _ZNK2kc34impl_fndeclaration_FnAcDeclaration9subphylumEi
	.p2align	5
	.type	_ZNK2kc34impl_fndeclaration_FnAcDeclaration9subphylumEi,@function
_ZNK2kc34impl_fndeclaration_FnAcDeclaration9subphylumEi: # @_ZNK2kc34impl_fndeclaration_FnAcDeclaration9subphylumEi
# %bb.0:                                # %entry
	ori	$a2, $zero, 6
	bltu	$a2, $a1, .LBB152_6
# %bb.1:                                # %entry
	slli.d	$a1, $a1, 2
	pcalau12i	$a2, %pc_hi20(.LJTI152_0)
	addi.d	$a2, $a2, %pc_lo12(.LJTI152_0)
	ldx.w	$a1, $a2, $a1
	add.d	$a1, $a2, $a1
	jr	$a1
.LBB152_2:                              # %sw.bb
	ld.d	$a0, $a0, 40
	ret
.LBB152_3:                              # %sw.bb5
	ld.d	$a0, $a0, 72
	ret
.LBB152_4:                              # %sw.bb3
	ld.d	$a0, $a0, 56
	ret
.LBB152_5:                              # %sw.bb4
	ld.d	$a0, $a0, 64
	ret
.LBB152_6:
	move	$a0, $zero
	ret
.LBB152_7:                              # %sw.bb2
	ld.d	$a0, $a0, 48
	ret
.LBB152_8:                              # %sw.bb6
	ld.d	$a0, $a0, 80
	ret
.LBB152_9:                              # %sw.bb7
	ld.d	$a0, $a0, 88
	ret
.Lfunc_end152:
	.size	_ZNK2kc34impl_fndeclaration_FnAcDeclaration9subphylumEi, .Lfunc_end152-_ZNK2kc34impl_fndeclaration_FnAcDeclaration9subphylumEi
	.section	.rodata,"a",@progbits
	.p2align	2, 0x0
.LJTI152_0:
	.word	.LBB152_2-.LJTI152_0
	.word	.LBB152_7-.LJTI152_0
	.word	.LBB152_4-.LJTI152_0
	.word	.LBB152_5-.LJTI152_0
	.word	.LBB152_3-.LJTI152_0
	.word	.LBB152_8-.LJTI152_0
	.word	.LBB152_9-.LJTI152_0
                                        # -- End function
	.text
	.globl	_ZNK2kc19impl_fndeclarations9subphylumEi # -- Begin function _ZNK2kc19impl_fndeclarations9subphylumEi
	.p2align	5
	.type	_ZNK2kc19impl_fndeclarations9subphylumEi,@function
_ZNK2kc19impl_fndeclarations9subphylumEi: # @_ZNK2kc19impl_fndeclarations9subphylumEi
# %bb.0:                                # %entry
	ori	$a2, $zero, 1
	beq	$a1, $a2, .LBB153_3
# %bb.1:                                # %entry
	bnez	$a1, .LBB153_4
# %bb.2:                                # %sw.bb
	ld.d	$a0, $a0, 8
	ret
.LBB153_3:                              # %sw.bb2
	ld.d	$a0, $a0, 16
	ret
.LBB153_4:
	move	$a0, $zero
	ret
.Lfunc_end153:
	.size	_ZNK2kc19impl_fndeclarations9subphylumEi, .Lfunc_end153-_ZNK2kc19impl_fndeclarations9subphylumEi
                                        # -- End function
	.globl	_ZNK2kc18impl_fnfile_FnFile9subphylumEi # -- Begin function _ZNK2kc18impl_fnfile_FnFile9subphylumEi
	.p2align	5
	.type	_ZNK2kc18impl_fnfile_FnFile9subphylumEi,@function
_ZNK2kc18impl_fnfile_FnFile9subphylumEi: # @_ZNK2kc18impl_fnfile_FnFile9subphylumEi
# %bb.0:                                # %entry
	ld.d	$a0, $a0, 16
	sltui	$a1, $a1, 1
	maskeqz	$a0, $a0, $a1
	ret
.Lfunc_end154:
	.size	_ZNK2kc18impl_fnfile_FnFile9subphylumEi, .Lfunc_end154-_ZNK2kc18impl_fnfile_FnFile9subphylumEi
                                        # -- End function
	.globl	_ZNK2kc12impl_fnfiles9subphylumEi # -- Begin function _ZNK2kc12impl_fnfiles9subphylumEi
	.p2align	5
	.type	_ZNK2kc12impl_fnfiles9subphylumEi,@function
_ZNK2kc12impl_fnfiles9subphylumEi:      # @_ZNK2kc12impl_fnfiles9subphylumEi
# %bb.0:                                # %entry
	ori	$a2, $zero, 1
	beq	$a1, $a2, .LBB155_3
# %bb.1:                                # %entry
	bnez	$a1, .LBB155_4
# %bb.2:                                # %sw.bb
	ld.d	$a0, $a0, 8
	ret
.LBB155_3:                              # %sw.bb2
	ld.d	$a0, $a0, 16
	ret
.LBB155_4:
	move	$a0, $zero
	ret
.Lfunc_end155:
	.size	_ZNK2kc12impl_fnfiles9subphylumEi, .Lfunc_end155-_ZNK2kc12impl_fnfiles9subphylumEi
                                        # -- End function
	.globl	_ZNK2kc10impl_terms9subphylumEi # -- Begin function _ZNK2kc10impl_terms9subphylumEi
	.p2align	5
	.type	_ZNK2kc10impl_terms9subphylumEi,@function
_ZNK2kc10impl_terms9subphylumEi:        # @_ZNK2kc10impl_terms9subphylumEi
# %bb.0:                                # %entry
	ori	$a2, $zero, 1
	beq	$a1, $a2, .LBB156_3
# %bb.1:                                # %entry
	bnez	$a1, .LBB156_4
# %bb.2:                                # %sw.bb
	ld.d	$a0, $a0, 8
	ret
.LBB156_3:                              # %sw.bb2
	ld.d	$a0, $a0, 16
	ret
.LBB156_4:
	move	$a0, $zero
	ret
.Lfunc_end156:
	.size	_ZNK2kc10impl_terms9subphylumEi, .Lfunc_end156-_ZNK2kc10impl_terms9subphylumEi
                                        # -- End function
	.globl	_ZNK2kc21impl_term_TIntLiteral9subphylumEi # -- Begin function _ZNK2kc21impl_term_TIntLiteral9subphylumEi
	.p2align	5
	.type	_ZNK2kc21impl_term_TIntLiteral9subphylumEi,@function
_ZNK2kc21impl_term_TIntLiteral9subphylumEi: # @_ZNK2kc21impl_term_TIntLiteral9subphylumEi
# %bb.0:                                # %entry
	ld.d	$a0, $a0, 24
	sltui	$a1, $a1, 1
	maskeqz	$a0, $a0, $a1
	ret
.Lfunc_end157:
	.size	_ZNK2kc21impl_term_TIntLiteral9subphylumEi, .Lfunc_end157-_ZNK2kc21impl_term_TIntLiteral9subphylumEi
                                        # -- End function
	.globl	_ZNK2kc24impl_term_TStringLiteral9subphylumEi # -- Begin function _ZNK2kc24impl_term_TStringLiteral9subphylumEi
	.p2align	5
	.type	_ZNK2kc24impl_term_TStringLiteral9subphylumEi,@function
_ZNK2kc24impl_term_TStringLiteral9subphylumEi: # @_ZNK2kc24impl_term_TStringLiteral9subphylumEi
# %bb.0:                                # %entry
	ld.d	$a0, $a0, 24
	sltui	$a1, $a1, 1
	maskeqz	$a0, $a0, $a1
	ret
.Lfunc_end158:
	.size	_ZNK2kc24impl_term_TStringLiteral9subphylumEi, .Lfunc_end158-_ZNK2kc24impl_term_TStringLiteral9subphylumEi
                                        # -- End function
	.globl	_ZNK2kc16impl_term_TCTerm9subphylumEi # -- Begin function _ZNK2kc16impl_term_TCTerm9subphylumEi
	.p2align	5
	.type	_ZNK2kc16impl_term_TCTerm9subphylumEi,@function
_ZNK2kc16impl_term_TCTerm9subphylumEi:  # @_ZNK2kc16impl_term_TCTerm9subphylumEi
# %bb.0:                                # %entry
	ld.d	$a0, $a0, 24
	sltui	$a1, $a1, 1
	maskeqz	$a0, $a0, $a1
	ret
.Lfunc_end159:
	.size	_ZNK2kc16impl_term_TCTerm9subphylumEi, .Lfunc_end159-_ZNK2kc16impl_term_TCTerm9subphylumEi
                                        # -- End function
	.globl	_ZNK2kc23impl_term_TMemberVarDot9subphylumEi # -- Begin function _ZNK2kc23impl_term_TMemberVarDot9subphylumEi
	.p2align	5
	.type	_ZNK2kc23impl_term_TMemberVarDot9subphylumEi,@function
_ZNK2kc23impl_term_TMemberVarDot9subphylumEi: # @_ZNK2kc23impl_term_TMemberVarDot9subphylumEi
# %bb.0:                                # %entry
	ori	$a2, $zero, 1
	beq	$a1, $a2, .LBB160_3
# %bb.1:                                # %entry
	bnez	$a1, .LBB160_4
# %bb.2:                                # %sw.bb
	ld.d	$a0, $a0, 24
	ret
.LBB160_3:                              # %sw.bb2
	ld.d	$a0, $a0, 32
	ret
.LBB160_4:
	move	$a0, $zero
	ret
.Lfunc_end160:
	.size	_ZNK2kc23impl_term_TMemberVarDot9subphylumEi, .Lfunc_end160-_ZNK2kc23impl_term_TMemberVarDot9subphylumEi
                                        # -- End function
	.globl	_ZNK2kc20impl_term_TMemberVar9subphylumEi # -- Begin function _ZNK2kc20impl_term_TMemberVar9subphylumEi
	.p2align	5
	.type	_ZNK2kc20impl_term_TMemberVar9subphylumEi,@function
_ZNK2kc20impl_term_TMemberVar9subphylumEi: # @_ZNK2kc20impl_term_TMemberVar9subphylumEi
# %bb.0:                                # %entry
	ori	$a2, $zero, 1
	beq	$a1, $a2, .LBB161_3
# %bb.1:                                # %entry
	bnez	$a1, .LBB161_4
# %bb.2:                                # %sw.bb
	ld.d	$a0, $a0, 24
	ret
.LBB161_3:                              # %sw.bb2
	ld.d	$a0, $a0, 32
	ret
.LBB161_4:
	move	$a0, $zero
	ret
.Lfunc_end161:
	.size	_ZNK2kc20impl_term_TMemberVar9subphylumEi, .Lfunc_end161-_ZNK2kc20impl_term_TMemberVar9subphylumEi
                                        # -- End function
	.globl	_ZNK2kc20impl_term_TMethodDot9subphylumEi # -- Begin function _ZNK2kc20impl_term_TMethodDot9subphylumEi
	.p2align	5
	.type	_ZNK2kc20impl_term_TMethodDot9subphylumEi,@function
_ZNK2kc20impl_term_TMethodDot9subphylumEi: # @_ZNK2kc20impl_term_TMethodDot9subphylumEi
# %bb.0:                                # %entry
	ori	$a2, $zero, 2
	beq	$a1, $a2, .LBB162_5
# %bb.1:                                # %entry
	ori	$a2, $zero, 1
	beq	$a1, $a2, .LBB162_4
# %bb.2:                                # %entry
	bnez	$a1, .LBB162_6
# %bb.3:                                # %sw.bb
	ld.d	$a0, $a0, 24
	ret
.LBB162_4:                              # %sw.bb2
	ld.d	$a0, $a0, 32
	ret
.LBB162_5:                              # %sw.bb3
	ld.d	$a0, $a0, 40
	ret
.LBB162_6:
	move	$a0, $zero
	ret
.Lfunc_end162:
	.size	_ZNK2kc20impl_term_TMethodDot9subphylumEi, .Lfunc_end162-_ZNK2kc20impl_term_TMethodDot9subphylumEi
                                        # -- End function
	.globl	_ZNK2kc17impl_term_TMethod9subphylumEi # -- Begin function _ZNK2kc17impl_term_TMethod9subphylumEi
	.p2align	5
	.type	_ZNK2kc17impl_term_TMethod9subphylumEi,@function
_ZNK2kc17impl_term_TMethod9subphylumEi: # @_ZNK2kc17impl_term_TMethod9subphylumEi
# %bb.0:                                # %entry
	ori	$a2, $zero, 2
	beq	$a1, $a2, .LBB163_5
# %bb.1:                                # %entry
	ori	$a2, $zero, 1
	beq	$a1, $a2, .LBB163_4
# %bb.2:                                # %entry
	bnez	$a1, .LBB163_6
# %bb.3:                                # %sw.bb
	ld.d	$a0, $a0, 24
	ret
.LBB163_4:                              # %sw.bb2
	ld.d	$a0, $a0, 32
	ret
.LBB163_5:                              # %sw.bb3
	ld.d	$a0, $a0, 40
	ret
.LBB163_6:
	move	$a0, $zero
	ret
.Lfunc_end163:
	.size	_ZNK2kc17impl_term_TMethod9subphylumEi, .Lfunc_end163-_ZNK2kc17impl_term_TMethod9subphylumEi
                                        # -- End function
	.globl	_ZNK2kc19impl_term_TOperator9subphylumEi # -- Begin function _ZNK2kc19impl_term_TOperator9subphylumEi
	.p2align	5
	.type	_ZNK2kc19impl_term_TOperator9subphylumEi,@function
_ZNK2kc19impl_term_TOperator9subphylumEi: # @_ZNK2kc19impl_term_TOperator9subphylumEi
# %bb.0:                                # %entry
	ori	$a2, $zero, 1
	beq	$a1, $a2, .LBB164_3
# %bb.1:                                # %entry
	bnez	$a1, .LBB164_4
# %bb.2:                                # %sw.bb
	ld.d	$a0, $a0, 24
	ret
.LBB164_3:                              # %sw.bb2
	ld.d	$a0, $a0, 32
	ret
.LBB164_4:
	move	$a0, $zero
	ret
.Lfunc_end164:
	.size	_ZNK2kc19impl_term_TOperator9subphylumEi, .Lfunc_end164-_ZNK2kc19impl_term_TOperator9subphylumEi
                                        # -- End function
	.globl	_ZNK2kc19impl_term_TVariable9subphylumEi # -- Begin function _ZNK2kc19impl_term_TVariable9subphylumEi
	.p2align	5
	.type	_ZNK2kc19impl_term_TVariable9subphylumEi,@function
_ZNK2kc19impl_term_TVariable9subphylumEi: # @_ZNK2kc19impl_term_TVariable9subphylumEi
# %bb.0:                                # %entry
	ld.d	$a0, $a0, 24
	sltui	$a1, $a1, 1
	maskeqz	$a0, $a0, $a1
	ret
.Lfunc_end165:
	.size	_ZNK2kc19impl_term_TVariable9subphylumEi, .Lfunc_end165-_ZNK2kc19impl_term_TVariable9subphylumEi
                                        # -- End function
	.globl	_ZNK2kc13impl_patterns9subphylumEi # -- Begin function _ZNK2kc13impl_patterns9subphylumEi
	.p2align	5
	.type	_ZNK2kc13impl_patterns9subphylumEi,@function
_ZNK2kc13impl_patterns9subphylumEi:     # @_ZNK2kc13impl_patterns9subphylumEi
# %bb.0:                                # %entry
	ori	$a2, $zero, 1
	beq	$a1, $a2, .LBB166_3
# %bb.1:                                # %entry
	bnez	$a1, .LBB166_4
# %bb.2:                                # %sw.bb
	ld.d	$a0, $a0, 8
	ret
.LBB166_3:                              # %sw.bb2
	ld.d	$a0, $a0, 16
	ret
.LBB166_4:
	move	$a0, $zero
	ret
.Lfunc_end166:
	.size	_ZNK2kc13impl_patterns9subphylumEi, .Lfunc_end166-_ZNK2kc13impl_patterns9subphylumEi
                                        # -- End function
	.globl	_ZNK2kc24impl_pattern_PIntLiteral9subphylumEi # -- Begin function _ZNK2kc24impl_pattern_PIntLiteral9subphylumEi
	.p2align	5
	.type	_ZNK2kc24impl_pattern_PIntLiteral9subphylumEi,@function
_ZNK2kc24impl_pattern_PIntLiteral9subphylumEi: # @_ZNK2kc24impl_pattern_PIntLiteral9subphylumEi
# %bb.0:                                # %entry
	ld.d	$a0, $a0, 8
	sltui	$a1, $a1, 1
	maskeqz	$a0, $a0, $a1
	ret
.Lfunc_end167:
	.size	_ZNK2kc24impl_pattern_PIntLiteral9subphylumEi, .Lfunc_end167-_ZNK2kc24impl_pattern_PIntLiteral9subphylumEi
                                        # -- End function
	.globl	_ZNK2kc27impl_pattern_PStringLiteral9subphylumEi # -- Begin function _ZNK2kc27impl_pattern_PStringLiteral9subphylumEi
	.p2align	5
	.type	_ZNK2kc27impl_pattern_PStringLiteral9subphylumEi,@function
_ZNK2kc27impl_pattern_PStringLiteral9subphylumEi: # @_ZNK2kc27impl_pattern_PStringLiteral9subphylumEi
# %bb.0:                                # %entry
	ld.d	$a0, $a0, 8
	sltui	$a1, $a1, 1
	maskeqz	$a0, $a0, $a1
	ret
.Lfunc_end168:
	.size	_ZNK2kc27impl_pattern_PStringLiteral9subphylumEi, .Lfunc_end168-_ZNK2kc27impl_pattern_PStringLiteral9subphylumEi
                                        # -- End function
	.globl	_ZNK2kc29impl_pattern_PNonLeafVariable9subphylumEi # -- Begin function _ZNK2kc29impl_pattern_PNonLeafVariable9subphylumEi
	.p2align	5
	.type	_ZNK2kc29impl_pattern_PNonLeafVariable9subphylumEi,@function
_ZNK2kc29impl_pattern_PNonLeafVariable9subphylumEi: # @_ZNK2kc29impl_pattern_PNonLeafVariable9subphylumEi
# %bb.0:                                # %entry
	ori	$a2, $zero, 1
	beq	$a1, $a2, .LBB169_3
# %bb.1:                                # %entry
	bnez	$a1, .LBB169_4
# %bb.2:                                # %sw.bb
	ld.d	$a0, $a0, 8
	ret
.LBB169_3:                              # %sw.bb2
	ld.d	$a0, $a0, 16
	ret
.LBB169_4:
	move	$a0, $zero
	ret
.Lfunc_end169:
	.size	_ZNK2kc29impl_pattern_PNonLeafVariable9subphylumEi, .Lfunc_end169-_ZNK2kc29impl_pattern_PNonLeafVariable9subphylumEi
                                        # -- End function
	.globl	_ZNK2kc22impl_pattern_POperator9subphylumEi # -- Begin function _ZNK2kc22impl_pattern_POperator9subphylumEi
	.p2align	5
	.type	_ZNK2kc22impl_pattern_POperator9subphylumEi,@function
_ZNK2kc22impl_pattern_POperator9subphylumEi: # @_ZNK2kc22impl_pattern_POperator9subphylumEi
# %bb.0:                                # %entry
	ori	$a2, $zero, 1
	beq	$a1, $a2, .LBB170_3
# %bb.1:                                # %entry
	bnez	$a1, .LBB170_4
# %bb.2:                                # %sw.bb
	ld.d	$a0, $a0, 8
	ret
.LBB170_3:                              # %sw.bb2
	ld.d	$a0, $a0, 16
	ret
.LBB170_4:
	move	$a0, $zero
	ret
.Lfunc_end170:
	.size	_ZNK2kc22impl_pattern_POperator9subphylumEi, .Lfunc_end170-_ZNK2kc22impl_pattern_POperator9subphylumEi
                                        # -- End function
	.globl	_ZNK2kc22impl_pattern_PVariable9subphylumEi # -- Begin function _ZNK2kc22impl_pattern_PVariable9subphylumEi
	.p2align	5
	.type	_ZNK2kc22impl_pattern_PVariable9subphylumEi,@function
_ZNK2kc22impl_pattern_PVariable9subphylumEi: # @_ZNK2kc22impl_pattern_PVariable9subphylumEi
# %bb.0:                                # %entry
	ld.d	$a0, $a0, 8
	sltui	$a1, $a1, 1
	maskeqz	$a0, $a0, $a1
	ret
.Lfunc_end171:
	.size	_ZNK2kc22impl_pattern_PVariable9subphylumEi, .Lfunc_end171-_ZNK2kc22impl_pattern_PVariable9subphylumEi
                                        # -- End function
	.globl	_ZNK2kc29impl_outmostpattern_OPDefault9subphylumEi # -- Begin function _ZNK2kc29impl_outmostpattern_OPDefault9subphylumEi
	.p2align	5
	.type	_ZNK2kc29impl_outmostpattern_OPDefault9subphylumEi,@function
_ZNK2kc29impl_outmostpattern_OPDefault9subphylumEi: # @_ZNK2kc29impl_outmostpattern_OPDefault9subphylumEi
# %bb.0:                                # %entry
	ld.d	$a0, $a0, 32
	sltui	$a1, $a1, 1
	maskeqz	$a0, $a0, $a1
	ret
.Lfunc_end172:
	.size	_ZNK2kc29impl_outmostpattern_OPDefault9subphylumEi, .Lfunc_end172-_ZNK2kc29impl_outmostpattern_OPDefault9subphylumEi
                                        # -- End function
	.globl	_ZNK2kc30impl_outmostpattern_OPWildcard9subphylumEi # -- Begin function _ZNK2kc30impl_outmostpattern_OPWildcard9subphylumEi
	.p2align	5
	.type	_ZNK2kc30impl_outmostpattern_OPWildcard9subphylumEi,@function
_ZNK2kc30impl_outmostpattern_OPWildcard9subphylumEi: # @_ZNK2kc30impl_outmostpattern_OPWildcard9subphylumEi
# %bb.0:                                # %entry
	ld.d	$a0, $a0, 32
	sltui	$a1, $a1, 1
	maskeqz	$a0, $a0, $a1
	ret
.Lfunc_end173:
	.size	_ZNK2kc30impl_outmostpattern_OPWildcard9subphylumEi, .Lfunc_end173-_ZNK2kc30impl_outmostpattern_OPWildcard9subphylumEi
                                        # -- End function
	.globl	_ZNK2kc37impl_outmostpattern_OPNonLeafVariable9subphylumEi # -- Begin function _ZNK2kc37impl_outmostpattern_OPNonLeafVariable9subphylumEi
	.p2align	5
	.type	_ZNK2kc37impl_outmostpattern_OPNonLeafVariable9subphylumEi,@function
_ZNK2kc37impl_outmostpattern_OPNonLeafVariable9subphylumEi: # @_ZNK2kc37impl_outmostpattern_OPNonLeafVariable9subphylumEi
# %bb.0:                                # %entry
	ori	$a2, $zero, 1
	beq	$a1, $a2, .LBB174_3
# %bb.1:                                # %entry
	bnez	$a1, .LBB174_4
# %bb.2:                                # %sw.bb
	ld.d	$a0, $a0, 32
	ret
.LBB174_3:                              # %sw.bb2
	ld.d	$a0, $a0, 40
	ret
.LBB174_4:
	move	$a0, $zero
	ret
.Lfunc_end174:
	.size	_ZNK2kc37impl_outmostpattern_OPNonLeafVariable9subphylumEi, .Lfunc_end174-_ZNK2kc37impl_outmostpattern_OPNonLeafVariable9subphylumEi
                                        # -- End function
	.globl	_ZNK2kc30impl_outmostpattern_OPOperator9subphylumEi # -- Begin function _ZNK2kc30impl_outmostpattern_OPOperator9subphylumEi
	.p2align	5
	.type	_ZNK2kc30impl_outmostpattern_OPOperator9subphylumEi,@function
_ZNK2kc30impl_outmostpattern_OPOperator9subphylumEi: # @_ZNK2kc30impl_outmostpattern_OPOperator9subphylumEi
# %bb.0:                                # %entry
	ori	$a2, $zero, 2
	beq	$a1, $a2, .LBB175_5
# %bb.1:                                # %entry
	ori	$a2, $zero, 1
	beq	$a1, $a2, .LBB175_4
# %bb.2:                                # %entry
	bnez	$a1, .LBB175_6
# %bb.3:                                # %sw.bb
	ld.d	$a0, $a0, 32
	ret
.LBB175_4:                              # %sw.bb2
	ld.d	$a0, $a0, 40
	ret
.LBB175_5:                              # %sw.bb3
	ld.d	$a0, $a0, 48
	ret
.LBB175_6:
	move	$a0, $zero
	ret
.Lfunc_end175:
	.size	_ZNK2kc30impl_outmostpattern_OPOperator9subphylumEi, .Lfunc_end175-_ZNK2kc30impl_outmostpattern_OPOperator9subphylumEi
                                        # -- End function
	.globl	_ZNK2kc38impl_outmostpattern_OPOperatorWildcard9subphylumEi # -- Begin function _ZNK2kc38impl_outmostpattern_OPOperatorWildcard9subphylumEi
	.p2align	5
	.type	_ZNK2kc38impl_outmostpattern_OPOperatorWildcard9subphylumEi,@function
_ZNK2kc38impl_outmostpattern_OPOperatorWildcard9subphylumEi: # @_ZNK2kc38impl_outmostpattern_OPOperatorWildcard9subphylumEi
# %bb.0:                                # %entry
	ori	$a2, $zero, 1
	beq	$a1, $a2, .LBB176_3
# %bb.1:                                # %entry
	bnez	$a1, .LBB176_4
# %bb.2:                                # %sw.bb
	ld.d	$a0, $a0, 32
	ret
.LBB176_3:                              # %sw.bb2
	ld.d	$a0, $a0, 40
	ret
.LBB176_4:
	move	$a0, $zero
	ret
.Lfunc_end176:
	.size	_ZNK2kc38impl_outmostpattern_OPOperatorWildcard9subphylumEi, .Lfunc_end176-_ZNK2kc38impl_outmostpattern_OPOperatorWildcard9subphylumEi
                                        # -- End function
	.globl	_ZNK2kc46impl_patternchainitem_PatternchainitemDollarid9subphylumEi # -- Begin function _ZNK2kc46impl_patternchainitem_PatternchainitemDollarid9subphylumEi
	.p2align	5
	.type	_ZNK2kc46impl_patternchainitem_PatternchainitemDollarid9subphylumEi,@function
_ZNK2kc46impl_patternchainitem_PatternchainitemDollarid9subphylumEi: # @_ZNK2kc46impl_patternchainitem_PatternchainitemDollarid9subphylumEi
# %bb.0:                                # %entry
	ld.d	$a0, $a0, 32
	sltui	$a1, $a1, 1
	maskeqz	$a0, $a0, $a1
	ret
.Lfunc_end177:
	.size	_ZNK2kc46impl_patternchainitem_PatternchainitemDollarid9subphylumEi, .Lfunc_end177-_ZNK2kc46impl_patternchainitem_PatternchainitemDollarid9subphylumEi
                                        # -- End function
	.globl	_ZNK2kc43impl_patternchainitem_PatternchainitemGroup9subphylumEi # -- Begin function _ZNK2kc43impl_patternchainitem_PatternchainitemGroup9subphylumEi
	.p2align	5
	.type	_ZNK2kc43impl_patternchainitem_PatternchainitemGroup9subphylumEi,@function
_ZNK2kc43impl_patternchainitem_PatternchainitemGroup9subphylumEi: # @_ZNK2kc43impl_patternchainitem_PatternchainitemGroup9subphylumEi
# %bb.0:                                # %entry
	ld.d	$a0, $a0, 32
	sltui	$a1, $a1, 1
	maskeqz	$a0, $a0, $a1
	ret
.Lfunc_end178:
	.size	_ZNK2kc43impl_patternchainitem_PatternchainitemGroup9subphylumEi, .Lfunc_end178-_ZNK2kc43impl_patternchainitem_PatternchainitemGroup9subphylumEi
                                        # -- End function
	.globl	_ZNK2kc45impl_patternchainitem_PatternchainitemOutmost9subphylumEi # -- Begin function _ZNK2kc45impl_patternchainitem_PatternchainitemOutmost9subphylumEi
	.p2align	5
	.type	_ZNK2kc45impl_patternchainitem_PatternchainitemOutmost9subphylumEi,@function
_ZNK2kc45impl_patternchainitem_PatternchainitemOutmost9subphylumEi: # @_ZNK2kc45impl_patternchainitem_PatternchainitemOutmost9subphylumEi
# %bb.0:                                # %entry
	ld.d	$a0, $a0, 32
	sltui	$a1, $a1, 1
	maskeqz	$a0, $a0, $a1
	ret
.Lfunc_end179:
	.size	_ZNK2kc45impl_patternchainitem_PatternchainitemOutmost9subphylumEi, .Lfunc_end179-_ZNK2kc45impl_patternchainitem_PatternchainitemOutmost9subphylumEi
                                        # -- End function
	.globl	_ZNK2kc20impl_outmostpatterns9subphylumEi # -- Begin function _ZNK2kc20impl_outmostpatterns9subphylumEi
	.p2align	5
	.type	_ZNK2kc20impl_outmostpatterns9subphylumEi,@function
_ZNK2kc20impl_outmostpatterns9subphylumEi: # @_ZNK2kc20impl_outmostpatterns9subphylumEi
# %bb.0:                                # %entry
	ori	$a2, $zero, 1
	beq	$a1, $a2, .LBB180_3
# %bb.1:                                # %entry
	bnez	$a1, .LBB180_4
# %bb.2:                                # %sw.bb
	ld.d	$a0, $a0, 8
	ret
.LBB180_3:                              # %sw.bb2
	ld.d	$a0, $a0, 16
	ret
.LBB180_4:
	move	$a0, $zero
	ret
.Lfunc_end180:
	.size	_ZNK2kc20impl_outmostpatterns9subphylumEi, .Lfunc_end180-_ZNK2kc20impl_outmostpatterns9subphylumEi
                                        # -- End function
	.globl	_ZNK2kc17impl_patternchain9subphylumEi # -- Begin function _ZNK2kc17impl_patternchain9subphylumEi
	.p2align	5
	.type	_ZNK2kc17impl_patternchain9subphylumEi,@function
_ZNK2kc17impl_patternchain9subphylumEi: # @_ZNK2kc17impl_patternchain9subphylumEi
# %bb.0:                                # %entry
	ori	$a2, $zero, 1
	beq	$a1, $a2, .LBB181_3
# %bb.1:                                # %entry
	bnez	$a1, .LBB181_4
# %bb.2:                                # %sw.bb
	ld.d	$a0, $a0, 24
	ret
.LBB181_3:                              # %sw.bb2
	ld.d	$a0, $a0, 32
	ret
.LBB181_4:
	move	$a0, $zero
	ret
.Lfunc_end181:
	.size	_ZNK2kc17impl_patternchain9subphylumEi, .Lfunc_end181-_ZNK2kc17impl_patternchain9subphylumEi
                                        # -- End function
	.globl	_ZNK2kc18impl_patternchains9subphylumEi # -- Begin function _ZNK2kc18impl_patternchains9subphylumEi
	.p2align	5
	.type	_ZNK2kc18impl_patternchains9subphylumEi,@function
_ZNK2kc18impl_patternchains9subphylumEi: # @_ZNK2kc18impl_patternchains9subphylumEi
# %bb.0:                                # %entry
	ori	$a2, $zero, 1
	beq	$a1, $a2, .LBB182_3
# %bb.1:                                # %entry
	bnez	$a1, .LBB182_4
# %bb.2:                                # %sw.bb
	ld.d	$a0, $a0, 24
	ret
.LBB182_3:                              # %sw.bb2
	ld.d	$a0, $a0, 32
	ret
.LBB182_4:
	move	$a0, $zero
	ret
.Lfunc_end182:
	.size	_ZNK2kc18impl_patternchains9subphylumEi, .Lfunc_end182-_ZNK2kc18impl_patternchains9subphylumEi
                                        # -- End function
	.globl	_ZNK2kc32impl_rewriteclause_RewriteClause9subphylumEi # -- Begin function _ZNK2kc32impl_rewriteclause_RewriteClause9subphylumEi
	.p2align	5
	.type	_ZNK2kc32impl_rewriteclause_RewriteClause9subphylumEi,@function
_ZNK2kc32impl_rewriteclause_RewriteClause9subphylumEi: # @_ZNK2kc32impl_rewriteclause_RewriteClause9subphylumEi
# %bb.0:                                # %entry
	ori	$a2, $zero, 1
	beq	$a1, $a2, .LBB183_3
# %bb.1:                                # %entry
	bnez	$a1, .LBB183_4
# %bb.2:                                # %sw.bb
	ld.d	$a0, $a0, 8
	ret
.LBB183_3:                              # %sw.bb2
	ld.d	$a0, $a0, 16
	ret
.LBB183_4:
	move	$a0, $zero
	ret
.Lfunc_end183:
	.size	_ZNK2kc32impl_rewriteclause_RewriteClause9subphylumEi, .Lfunc_end183-_ZNK2kc32impl_rewriteclause_RewriteClause9subphylumEi
                                        # -- End function
	.globl	_ZNK2kc19impl_rewriteclauses9subphylumEi # -- Begin function _ZNK2kc19impl_rewriteclauses9subphylumEi
	.p2align	5
	.type	_ZNK2kc19impl_rewriteclauses9subphylumEi,@function
_ZNK2kc19impl_rewriteclauses9subphylumEi: # @_ZNK2kc19impl_rewriteclauses9subphylumEi
# %bb.0:                                # %entry
	ori	$a2, $zero, 1
	beq	$a1, $a2, .LBB184_3
# %bb.1:                                # %entry
	bnez	$a1, .LBB184_4
# %bb.2:                                # %sw.bb
	ld.d	$a0, $a0, 8
	ret
.LBB184_3:                              # %sw.bb2
	ld.d	$a0, $a0, 16
	ret
.LBB184_4:
	move	$a0, $zero
	ret
.Lfunc_end184:
	.size	_ZNK2kc19impl_rewriteclauses9subphylumEi, .Lfunc_end184-_ZNK2kc19impl_rewriteclauses9subphylumEi
                                        # -- End function
	.globl	_ZNK2kc32impl_rwdeclaration_RwDeclaration9subphylumEi # -- Begin function _ZNK2kc32impl_rwdeclaration_RwDeclaration9subphylumEi
	.p2align	5
	.type	_ZNK2kc32impl_rwdeclaration_RwDeclaration9subphylumEi,@function
_ZNK2kc32impl_rwdeclaration_RwDeclaration9subphylumEi: # @_ZNK2kc32impl_rwdeclaration_RwDeclaration9subphylumEi
# %bb.0:                                # %entry
	ori	$a2, $zero, 1
	beq	$a1, $a2, .LBB185_3
# %bb.1:                                # %entry
	bnez	$a1, .LBB185_4
# %bb.2:                                # %sw.bb
	ld.d	$a0, $a0, 8
	ret
.LBB185_3:                              # %sw.bb2
	ld.d	$a0, $a0, 16
	ret
.LBB185_4:
	move	$a0, $zero
	ret
.Lfunc_end185:
	.size	_ZNK2kc32impl_rwdeclaration_RwDeclaration9subphylumEi, .Lfunc_end185-_ZNK2kc32impl_rwdeclaration_RwDeclaration9subphylumEi
                                        # -- End function
	.globl	_ZNK2kc19impl_rwdeclarations9subphylumEi # -- Begin function _ZNK2kc19impl_rwdeclarations9subphylumEi
	.p2align	5
	.type	_ZNK2kc19impl_rwdeclarations9subphylumEi,@function
_ZNK2kc19impl_rwdeclarations9subphylumEi: # @_ZNK2kc19impl_rwdeclarations9subphylumEi
# %bb.0:                                # %entry
	ori	$a2, $zero, 1
	beq	$a1, $a2, .LBB186_3
# %bb.1:                                # %entry
	bnez	$a1, .LBB186_4
# %bb.2:                                # %sw.bb
	ld.d	$a0, $a0, 8
	ret
.LBB186_3:                              # %sw.bb2
	ld.d	$a0, $a0, 16
	ret
.LBB186_4:
	move	$a0, $zero
	ret
.Lfunc_end186:
	.size	_ZNK2kc19impl_rwdeclarations9subphylumEi, .Lfunc_end186-_ZNK2kc19impl_rwdeclarations9subphylumEi
                                        # -- End function
	.globl	_ZNK2kc42impl_includedeclaration_IncludeDeclaration9subphylumEi # -- Begin function _ZNK2kc42impl_includedeclaration_IncludeDeclaration9subphylumEi
	.p2align	5
	.type	_ZNK2kc42impl_includedeclaration_IncludeDeclaration9subphylumEi,@function
_ZNK2kc42impl_includedeclaration_IncludeDeclaration9subphylumEi: # @_ZNK2kc42impl_includedeclaration_IncludeDeclaration9subphylumEi
# %bb.0:                                # %entry
	ld.d	$a0, $a0, 24
	sltui	$a1, $a1, 1
	maskeqz	$a0, $a0, $a1
	ret
.Lfunc_end187:
	.size	_ZNK2kc42impl_includedeclaration_IncludeDeclaration9subphylumEi, .Lfunc_end187-_ZNK2kc42impl_includedeclaration_IncludeDeclaration9subphylumEi
                                        # -- End function
	.globl	_ZNK2kc24impl_includedeclarations9subphylumEi # -- Begin function _ZNK2kc24impl_includedeclarations9subphylumEi
	.p2align	5
	.type	_ZNK2kc24impl_includedeclarations9subphylumEi,@function
_ZNK2kc24impl_includedeclarations9subphylumEi: # @_ZNK2kc24impl_includedeclarations9subphylumEi
# %bb.0:                                # %entry
	ori	$a2, $zero, 1
	beq	$a1, $a2, .LBB188_3
# %bb.1:                                # %entry
	bnez	$a1, .LBB188_4
# %bb.2:                                # %sw.bb
	ld.d	$a0, $a0, 8
	ret
.LBB188_3:                              # %sw.bb2
	ld.d	$a0, $a0, 16
	ret
.LBB188_4:
	move	$a0, $zero
	ret
.Lfunc_end188:
	.size	_ZNK2kc24impl_includedeclarations9subphylumEi, .Lfunc_end188-_ZNK2kc24impl_includedeclarations9subphylumEi
                                        # -- End function
	.globl	_ZNK2kc28impl_includefile_IncludeFile9subphylumEi # -- Begin function _ZNK2kc28impl_includefile_IncludeFile9subphylumEi
	.p2align	5
	.type	_ZNK2kc28impl_includefile_IncludeFile9subphylumEi,@function
_ZNK2kc28impl_includefile_IncludeFile9subphylumEi: # @_ZNK2kc28impl_includefile_IncludeFile9subphylumEi
# %bb.0:                                # %entry
	ld.d	$a0, $a0, 32
	sltui	$a1, $a1, 1
	maskeqz	$a0, $a0, $a1
	ret
.Lfunc_end189:
	.size	_ZNK2kc28impl_includefile_IncludeFile9subphylumEi, .Lfunc_end189-_ZNK2kc28impl_includefile_IncludeFile9subphylumEi
                                        # -- End function
	.globl	_ZNK2kc17impl_includefiles9subphylumEi # -- Begin function _ZNK2kc17impl_includefiles9subphylumEi
	.p2align	5
	.type	_ZNK2kc17impl_includefiles9subphylumEi,@function
_ZNK2kc17impl_includefiles9subphylumEi: # @_ZNK2kc17impl_includefiles9subphylumEi
# %bb.0:                                # %entry
	ori	$a2, $zero, 1
	beq	$a1, $a2, .LBB190_3
# %bb.1:                                # %entry
	bnez	$a1, .LBB190_4
# %bb.2:                                # %sw.bb
	ld.d	$a0, $a0, 8
	ret
.LBB190_3:                              # %sw.bb2
	ld.d	$a0, $a0, 16
	ret
.LBB190_4:
	move	$a0, $zero
	ret
.Lfunc_end190:
	.size	_ZNK2kc17impl_includefiles9subphylumEi, .Lfunc_end190-_ZNK2kc17impl_includefiles9subphylumEi
                                        # -- End function
	.globl	_ZNK2kc11impl_Ctexts9subphylumEi # -- Begin function _ZNK2kc11impl_Ctexts9subphylumEi
	.p2align	5
	.type	_ZNK2kc11impl_Ctexts9subphylumEi,@function
_ZNK2kc11impl_Ctexts9subphylumEi:       # @_ZNK2kc11impl_Ctexts9subphylumEi
# %bb.0:                                # %entry
	ori	$a2, $zero, 1
	beq	$a1, $a2, .LBB191_3
# %bb.1:                                # %entry
	bnez	$a1, .LBB191_4
# %bb.2:                                # %sw.bb
	ld.d	$a0, $a0, 8
	ret
.LBB191_3:                              # %sw.bb2
	ld.d	$a0, $a0, 16
	ret
.LBB191_4:
	move	$a0, $zero
	ret
.Lfunc_end191:
	.size	_ZNK2kc11impl_Ctexts9subphylumEi, .Lfunc_end191-_ZNK2kc11impl_Ctexts9subphylumEi
                                        # -- End function
	.globl	_ZNK2kc32impl_idCexpression_IdCexpression9subphylumEi # -- Begin function _ZNK2kc32impl_idCexpression_IdCexpression9subphylumEi
	.p2align	5
	.type	_ZNK2kc32impl_idCexpression_IdCexpression9subphylumEi,@function
_ZNK2kc32impl_idCexpression_IdCexpression9subphylumEi: # @_ZNK2kc32impl_idCexpression_IdCexpression9subphylumEi
# %bb.0:                                # %entry
	ori	$a2, $zero, 1
	beq	$a1, $a2, .LBB192_3
# %bb.1:                                # %entry
	bnez	$a1, .LBB192_4
# %bb.2:                                # %sw.bb
	ld.d	$a0, $a0, 16
	ret
.LBB192_3:                              # %sw.bb2
	ld.d	$a0, $a0, 24
	ret
.LBB192_4:
	move	$a0, $zero
	ret
.Lfunc_end192:
	.size	_ZNK2kc32impl_idCexpression_IdCexpression9subphylumEi, .Lfunc_end192-_ZNK2kc32impl_idCexpression_IdCexpression9subphylumEi
                                        # -- End function
	.globl	_ZNK2kc19impl_idCexpressions9subphylumEi # -- Begin function _ZNK2kc19impl_idCexpressions9subphylumEi
	.p2align	5
	.type	_ZNK2kc19impl_idCexpressions9subphylumEi,@function
_ZNK2kc19impl_idCexpressions9subphylumEi: # @_ZNK2kc19impl_idCexpressions9subphylumEi
# %bb.0:                                # %entry
	ori	$a2, $zero, 1
	beq	$a1, $a2, .LBB193_3
# %bb.1:                                # %entry
	bnez	$a1, .LBB193_4
# %bb.2:                                # %sw.bb
	ld.d	$a0, $a0, 8
	ret
.LBB193_3:                              # %sw.bb2
	ld.d	$a0, $a0, 16
	ret
.LBB193_4:
	move	$a0, $zero
	ret
.Lfunc_end193:
	.size	_ZNK2kc19impl_idCexpressions9subphylumEi, .Lfunc_end193-_ZNK2kc19impl_idCexpressions9subphylumEi
                                        # -- End function
	.globl	_ZNK2kc41impl_CexpressionSQ_elem_CExpressionSQPart9subphylumEi # -- Begin function _ZNK2kc41impl_CexpressionSQ_elem_CExpressionSQPart9subphylumEi
	.p2align	5
	.type	_ZNK2kc41impl_CexpressionSQ_elem_CExpressionSQPart9subphylumEi,@function
_ZNK2kc41impl_CexpressionSQ_elem_CExpressionSQPart9subphylumEi: # @_ZNK2kc41impl_CexpressionSQ_elem_CExpressionSQPart9subphylumEi
# %bb.0:                                # %entry
	ld.d	$a0, $a0, 8
	sltui	$a1, $a1, 1
	maskeqz	$a0, $a0, $a1
	ret
.Lfunc_end194:
	.size	_ZNK2kc41impl_CexpressionSQ_elem_CExpressionSQPart9subphylumEi, .Lfunc_end194-_ZNK2kc41impl_CexpressionSQ_elem_CExpressionSQPart9subphylumEi
                                        # -- End function
	.globl	_ZNK2kc18impl_CexpressionSQ9subphylumEi # -- Begin function _ZNK2kc18impl_CexpressionSQ9subphylumEi
	.p2align	5
	.type	_ZNK2kc18impl_CexpressionSQ9subphylumEi,@function
_ZNK2kc18impl_CexpressionSQ9subphylumEi: # @_ZNK2kc18impl_CexpressionSQ9subphylumEi
# %bb.0:                                # %entry
	ori	$a2, $zero, 1
	beq	$a1, $a2, .LBB195_3
# %bb.1:                                # %entry
	bnez	$a1, .LBB195_4
# %bb.2:                                # %sw.bb
	ld.d	$a0, $a0, 8
	ret
.LBB195_3:                              # %sw.bb2
	ld.d	$a0, $a0, 16
	ret
.LBB195_4:
	move	$a0, $zero
	ret
.Lfunc_end195:
	.size	_ZNK2kc18impl_CexpressionSQ9subphylumEi, .Lfunc_end195-_ZNK2kc18impl_CexpressionSQ9subphylumEi
                                        # -- End function
	.globl	_ZNK2kc41impl_CexpressionDQ_elem_CExpressionDQPart9subphylumEi # -- Begin function _ZNK2kc41impl_CexpressionDQ_elem_CExpressionDQPart9subphylumEi
	.p2align	5
	.type	_ZNK2kc41impl_CexpressionDQ_elem_CExpressionDQPart9subphylumEi,@function
_ZNK2kc41impl_CexpressionDQ_elem_CExpressionDQPart9subphylumEi: # @_ZNK2kc41impl_CexpressionDQ_elem_CExpressionDQPart9subphylumEi
# %bb.0:                                # %entry
	ld.d	$a0, $a0, 8
	sltui	$a1, $a1, 1
	maskeqz	$a0, $a0, $a1
	ret
.Lfunc_end196:
	.size	_ZNK2kc41impl_CexpressionDQ_elem_CExpressionDQPart9subphylumEi, .Lfunc_end196-_ZNK2kc41impl_CexpressionDQ_elem_CExpressionDQPart9subphylumEi
                                        # -- End function
	.globl	_ZNK2kc18impl_CexpressionDQ9subphylumEi # -- Begin function _ZNK2kc18impl_CexpressionDQ9subphylumEi
	.p2align	5
	.type	_ZNK2kc18impl_CexpressionDQ9subphylumEi,@function
_ZNK2kc18impl_CexpressionDQ9subphylumEi: # @_ZNK2kc18impl_CexpressionDQ9subphylumEi
# %bb.0:                                # %entry
	ori	$a2, $zero, 1
	beq	$a1, $a2, .LBB197_3
# %bb.1:                                # %entry
	bnez	$a1, .LBB197_4
# %bb.2:                                # %sw.bb
	ld.d	$a0, $a0, 8
	ret
.LBB197_3:                              # %sw.bb2
	ld.d	$a0, $a0, 16
	ret
.LBB197_4:
	move	$a0, $zero
	ret
.Lfunc_end197:
	.size	_ZNK2kc18impl_CexpressionDQ9subphylumEi, .Lfunc_end197-_ZNK2kc18impl_CexpressionDQ9subphylumEi
                                        # -- End function
	.globl	_ZNK2kc38impl_Cexpression_elem_CExpressionArray9subphylumEi # -- Begin function _ZNK2kc38impl_Cexpression_elem_CExpressionArray9subphylumEi
	.p2align	5
	.type	_ZNK2kc38impl_Cexpression_elem_CExpressionArray9subphylumEi,@function
_ZNK2kc38impl_Cexpression_elem_CExpressionArray9subphylumEi: # @_ZNK2kc38impl_Cexpression_elem_CExpressionArray9subphylumEi
# %bb.0:                                # %entry
	ld.d	$a0, $a0, 8
	sltui	$a1, $a1, 1
	maskeqz	$a0, $a0, $a1
	ret
.Lfunc_end198:
	.size	_ZNK2kc38impl_Cexpression_elem_CExpressionArray9subphylumEi, .Lfunc_end198-_ZNK2kc38impl_Cexpression_elem_CExpressionArray9subphylumEi
                                        # -- End function
	.globl	_ZNK2kc37impl_Cexpression_elem_CExpressionPack9subphylumEi # -- Begin function _ZNK2kc37impl_Cexpression_elem_CExpressionPack9subphylumEi
	.p2align	5
	.type	_ZNK2kc37impl_Cexpression_elem_CExpressionPack9subphylumEi,@function
_ZNK2kc37impl_Cexpression_elem_CExpressionPack9subphylumEi: # @_ZNK2kc37impl_Cexpression_elem_CExpressionPack9subphylumEi
# %bb.0:                                # %entry
	ld.d	$a0, $a0, 8
	sltui	$a1, $a1, 1
	maskeqz	$a0, $a0, $a1
	ret
.Lfunc_end199:
	.size	_ZNK2kc37impl_Cexpression_elem_CExpressionPack9subphylumEi, .Lfunc_end199-_ZNK2kc37impl_Cexpression_elem_CExpressionPack9subphylumEi
                                        # -- End function
	.globl	_ZNK2kc35impl_Cexpression_elem_CExpressionSQ9subphylumEi # -- Begin function _ZNK2kc35impl_Cexpression_elem_CExpressionSQ9subphylumEi
	.p2align	5
	.type	_ZNK2kc35impl_Cexpression_elem_CExpressionSQ9subphylumEi,@function
_ZNK2kc35impl_Cexpression_elem_CExpressionSQ9subphylumEi: # @_ZNK2kc35impl_Cexpression_elem_CExpressionSQ9subphylumEi
# %bb.0:                                # %entry
	ld.d	$a0, $a0, 8
	sltui	$a1, $a1, 1
	maskeqz	$a0, $a0, $a1
	ret
.Lfunc_end200:
	.size	_ZNK2kc35impl_Cexpression_elem_CExpressionSQ9subphylumEi, .Lfunc_end200-_ZNK2kc35impl_Cexpression_elem_CExpressionSQ9subphylumEi
                                        # -- End function
	.globl	_ZNK2kc35impl_Cexpression_elem_CExpressionDQ9subphylumEi # -- Begin function _ZNK2kc35impl_Cexpression_elem_CExpressionDQ9subphylumEi
	.p2align	5
	.type	_ZNK2kc35impl_Cexpression_elem_CExpressionDQ9subphylumEi,@function
_ZNK2kc35impl_Cexpression_elem_CExpressionDQ9subphylumEi: # @_ZNK2kc35impl_Cexpression_elem_CExpressionDQ9subphylumEi
# %bb.0:                                # %entry
	ld.d	$a0, $a0, 8
	sltui	$a1, $a1, 1
	maskeqz	$a0, $a0, $a1
	ret
.Lfunc_end201:
	.size	_ZNK2kc35impl_Cexpression_elem_CExpressionDQ9subphylumEi, .Lfunc_end201-_ZNK2kc35impl_Cexpression_elem_CExpressionDQ9subphylumEi
                                        # -- End function
	.globl	_ZNK2kc42impl_Cexpression_elem_CExpressionDollarvar9subphylumEi # -- Begin function _ZNK2kc42impl_Cexpression_elem_CExpressionDollarvar9subphylumEi
	.p2align	5
	.type	_ZNK2kc42impl_Cexpression_elem_CExpressionDollarvar9subphylumEi,@function
_ZNK2kc42impl_Cexpression_elem_CExpressionDollarvar9subphylumEi: # @_ZNK2kc42impl_Cexpression_elem_CExpressionDollarvar9subphylumEi
# %bb.0:                                # %entry
	ld.d	$a0, $a0, 8
	sltui	$a1, $a1, 1
	maskeqz	$a0, $a0, $a1
	ret
.Lfunc_end202:
	.size	_ZNK2kc42impl_Cexpression_elem_CExpressionDollarvar9subphylumEi, .Lfunc_end202-_ZNK2kc42impl_Cexpression_elem_CExpressionDollarvar9subphylumEi
                                        # -- End function
	.globl	_ZNK2kc37impl_Cexpression_elem_CExpressionPart9subphylumEi # -- Begin function _ZNK2kc37impl_Cexpression_elem_CExpressionPart9subphylumEi
	.p2align	5
	.type	_ZNK2kc37impl_Cexpression_elem_CExpressionPart9subphylumEi,@function
_ZNK2kc37impl_Cexpression_elem_CExpressionPart9subphylumEi: # @_ZNK2kc37impl_Cexpression_elem_CExpressionPart9subphylumEi
# %bb.0:                                # %entry
	ld.d	$a0, $a0, 8
	sltui	$a1, $a1, 1
	maskeqz	$a0, $a0, $a1
	ret
.Lfunc_end203:
	.size	_ZNK2kc37impl_Cexpression_elem_CExpressionPart9subphylumEi, .Lfunc_end203-_ZNK2kc37impl_Cexpression_elem_CExpressionPart9subphylumEi
                                        # -- End function
	.globl	_ZNK2kc16impl_Cexpression9subphylumEi # -- Begin function _ZNK2kc16impl_Cexpression9subphylumEi
	.p2align	5
	.type	_ZNK2kc16impl_Cexpression9subphylumEi,@function
_ZNK2kc16impl_Cexpression9subphylumEi:  # @_ZNK2kc16impl_Cexpression9subphylumEi
# %bb.0:                                # %entry
	ori	$a2, $zero, 1
	beq	$a1, $a2, .LBB204_3
# %bb.1:                                # %entry
	bnez	$a1, .LBB204_4
# %bb.2:                                # %sw.bb
	ld.d	$a0, $a0, 24
	ret
.LBB204_3:                              # %sw.bb2
	ld.d	$a0, $a0, 32
	ret
.LBB204_4:
	move	$a0, $zero
	ret
.Lfunc_end204:
	.size	_ZNK2kc16impl_Cexpression9subphylumEi, .Lfunc_end204-_ZNK2kc16impl_Cexpression9subphylumEi
                                        # -- End function
	.globl	_ZNK2kc64impl_attribute_initialisation_option_Yesattribute_initialisation9subphylumEi # -- Begin function _ZNK2kc64impl_attribute_initialisation_option_Yesattribute_initialisation9subphylumEi
	.p2align	5
	.type	_ZNK2kc64impl_attribute_initialisation_option_Yesattribute_initialisation9subphylumEi,@function
_ZNK2kc64impl_attribute_initialisation_option_Yesattribute_initialisation9subphylumEi: # @_ZNK2kc64impl_attribute_initialisation_option_Yesattribute_initialisation9subphylumEi
# %bb.0:                                # %entry
	ld.d	$a0, $a0, 8
	sltui	$a1, $a1, 1
	maskeqz	$a0, $a0, $a1
	ret
.Lfunc_end205:
	.size	_ZNK2kc64impl_attribute_initialisation_option_Yesattribute_initialisation9subphylumEi, .Lfunc_end205-_ZNK2kc64impl_attribute_initialisation_option_Yesattribute_initialisation9subphylumEi
                                        # -- End function
	.globl	_ZNK2kc24impl_attribute_Attribute9subphylumEi # -- Begin function _ZNK2kc24impl_attribute_Attribute9subphylumEi
	.p2align	5
	.type	_ZNK2kc24impl_attribute_Attribute9subphylumEi,@function
_ZNK2kc24impl_attribute_Attribute9subphylumEi: # @_ZNK2kc24impl_attribute_Attribute9subphylumEi
# %bb.0:                                # %entry
	ori	$a2, $zero, 2
	beq	$a1, $a2, .LBB206_5
# %bb.1:                                # %entry
	ori	$a2, $zero, 1
	beq	$a1, $a2, .LBB206_4
# %bb.2:                                # %entry
	bnez	$a1, .LBB206_6
# %bb.3:                                # %sw.bb
	ld.d	$a0, $a0, 8
	ret
.LBB206_4:                              # %sw.bb2
	ld.d	$a0, $a0, 16
	ret
.LBB206_5:                              # %sw.bb3
	ld.d	$a0, $a0, 24
	ret
.LBB206_6:
	move	$a0, $zero
	ret
.Lfunc_end206:
	.size	_ZNK2kc24impl_attribute_Attribute9subphylumEi, .Lfunc_end206-_ZNK2kc24impl_attribute_Attribute9subphylumEi
                                        # -- End function
	.globl	_ZNK2kc15impl_attributes9subphylumEi # -- Begin function _ZNK2kc15impl_attributes9subphylumEi
	.p2align	5
	.type	_ZNK2kc15impl_attributes9subphylumEi,@function
_ZNK2kc15impl_attributes9subphylumEi:   # @_ZNK2kc15impl_attributes9subphylumEi
# %bb.0:                                # %entry
	ori	$a2, $zero, 1
	beq	$a1, $a2, .LBB207_3
# %bb.1:                                # %entry
	bnez	$a1, .LBB207_4
# %bb.2:                                # %sw.bb
	ld.d	$a0, $a0, 8
	ret
.LBB207_3:                              # %sw.bb2
	ld.d	$a0, $a0, 16
	ret
.LBB207_4:
	move	$a0, $zero
	ret
.Lfunc_end207:
	.size	_ZNK2kc15impl_attributes9subphylumEi, .Lfunc_end207-_ZNK2kc15impl_attributes9subphylumEi
                                        # -- End function
	.globl	_ZNK2kc29impl_Ccode_option_CcodeOption9subphylumEi # -- Begin function _ZNK2kc29impl_Ccode_option_CcodeOption9subphylumEi
	.p2align	5
	.type	_ZNK2kc29impl_Ccode_option_CcodeOption9subphylumEi,@function
_ZNK2kc29impl_Ccode_option_CcodeOption9subphylumEi: # @_ZNK2kc29impl_Ccode_option_CcodeOption9subphylumEi
# %bb.0:                                # %entry
	ori	$a2, $zero, 1
	beq	$a1, $a2, .LBB208_3
# %bb.1:                                # %entry
	bnez	$a1, .LBB208_4
# %bb.2:                                # %sw.bb
	ld.d	$a0, $a0, 8
	ret
.LBB208_3:                              # %sw.bb2
	ld.d	$a0, $a0, 16
	ret
.LBB208_4:
	move	$a0, $zero
	ret
.Lfunc_end208:
	.size	_ZNK2kc29impl_Ccode_option_CcodeOption9subphylumEi, .Lfunc_end208-_ZNK2kc29impl_Ccode_option_CcodeOption9subphylumEi
                                        # -- End function
	.globl	_ZNK2kc22impl_argument_Argument9subphylumEi # -- Begin function _ZNK2kc22impl_argument_Argument9subphylumEi
	.p2align	5
	.type	_ZNK2kc22impl_argument_Argument9subphylumEi,@function
_ZNK2kc22impl_argument_Argument9subphylumEi: # @_ZNK2kc22impl_argument_Argument9subphylumEi
# %bb.0:                                # %entry
	ori	$a2, $zero, 1
	beq	$a1, $a2, .LBB209_3
# %bb.1:                                # %entry
	bnez	$a1, .LBB209_4
# %bb.2:                                # %sw.bb
	ld.d	$a0, $a0, 8
	ret
.LBB209_3:                              # %sw.bb2
	ld.d	$a0, $a0, 16
	ret
.LBB209_4:
	move	$a0, $zero
	ret
.Lfunc_end209:
	.size	_ZNK2kc22impl_argument_Argument9subphylumEi, .Lfunc_end209-_ZNK2kc22impl_argument_Argument9subphylumEi
                                        # -- End function
	.globl	_ZNK2kc14impl_arguments9subphylumEi # -- Begin function _ZNK2kc14impl_arguments9subphylumEi
	.p2align	5
	.type	_ZNK2kc14impl_arguments9subphylumEi,@function
_ZNK2kc14impl_arguments9subphylumEi:    # @_ZNK2kc14impl_arguments9subphylumEi
# %bb.0:                                # %entry
	ori	$a2, $zero, 1
	beq	$a1, $a2, .LBB210_3
# %bb.1:                                # %entry
	bnez	$a1, .LBB210_4
# %bb.2:                                # %sw.bb
	ld.d	$a0, $a0, 16
	ret
.LBB210_3:                              # %sw.bb2
	ld.d	$a0, $a0, 24
	ret
.LBB210_4:
	move	$a0, $zero
	ret
.Lfunc_end210:
	.size	_ZNK2kc14impl_arguments9subphylumEi, .Lfunc_end210-_ZNK2kc14impl_arguments9subphylumEi
                                        # -- End function
	.globl	_ZNK2kc28impl_alternative_Alternative9subphylumEi # -- Begin function _ZNK2kc28impl_alternative_Alternative9subphylumEi
	.p2align	5
	.type	_ZNK2kc28impl_alternative_Alternative9subphylumEi,@function
_ZNK2kc28impl_alternative_Alternative9subphylumEi: # @_ZNK2kc28impl_alternative_Alternative9subphylumEi
# %bb.0:                                # %entry
	ori	$a2, $zero, 1
	beq	$a1, $a2, .LBB211_3
# %bb.1:                                # %entry
	bnez	$a1, .LBB211_4
# %bb.2:                                # %sw.bb
	ld.d	$a0, $a0, 40
	ret
.LBB211_3:                              # %sw.bb2
	ld.d	$a0, $a0, 48
	ret
.LBB211_4:
	move	$a0, $zero
	ret
.Lfunc_end211:
	.size	_ZNK2kc28impl_alternative_Alternative9subphylumEi, .Lfunc_end211-_ZNK2kc28impl_alternative_Alternative9subphylumEi
                                        # -- End function
	.globl	_ZNK2kc17impl_alternatives9subphylumEi # -- Begin function _ZNK2kc17impl_alternatives9subphylumEi
	.p2align	5
	.type	_ZNK2kc17impl_alternatives9subphylumEi,@function
_ZNK2kc17impl_alternatives9subphylumEi: # @_ZNK2kc17impl_alternatives9subphylumEi
# %bb.0:                                # %entry
	ori	$a2, $zero, 1
	beq	$a1, $a2, .LBB212_3
# %bb.1:                                # %entry
	bnez	$a1, .LBB212_4
# %bb.2:                                # %sw.bb
	ld.d	$a0, $a0, 8
	ret
.LBB212_3:                              # %sw.bb2
	ld.d	$a0, $a0, 16
	ret
.LBB212_4:
	move	$a0, $zero
	ret
.Lfunc_end212:
	.size	_ZNK2kc17impl_alternatives9subphylumEi, .Lfunc_end212-_ZNK2kc17impl_alternatives9subphylumEi
                                        # -- End function
	.globl	_ZNK2kc43impl_productionblock_PredefinedAlternatives9subphylumEi # -- Begin function _ZNK2kc43impl_productionblock_PredefinedAlternatives9subphylumEi
	.p2align	5
	.type	_ZNK2kc43impl_productionblock_PredefinedAlternatives9subphylumEi,@function
_ZNK2kc43impl_productionblock_PredefinedAlternatives9subphylumEi: # @_ZNK2kc43impl_productionblock_PredefinedAlternatives9subphylumEi
# %bb.0:                                # %entry
	ld.d	$a0, $a0, 8
	sltui	$a1, $a1, 1
	maskeqz	$a0, $a0, $a1
	ret
.Lfunc_end213:
	.size	_ZNK2kc43impl_productionblock_PredefinedAlternatives9subphylumEi, .Lfunc_end213-_ZNK2kc43impl_productionblock_PredefinedAlternatives9subphylumEi
                                        # -- End function
	.globl	_ZNK2kc40impl_productionblock_NonlistAlternatives9subphylumEi # -- Begin function _ZNK2kc40impl_productionblock_NonlistAlternatives9subphylumEi
	.p2align	5
	.type	_ZNK2kc40impl_productionblock_NonlistAlternatives9subphylumEi,@function
_ZNK2kc40impl_productionblock_NonlistAlternatives9subphylumEi: # @_ZNK2kc40impl_productionblock_NonlistAlternatives9subphylumEi
# %bb.0:                                # %entry
	ld.d	$a0, $a0, 8
	sltui	$a1, $a1, 1
	maskeqz	$a0, $a0, $a1
	ret
.Lfunc_end214:
	.size	_ZNK2kc40impl_productionblock_NonlistAlternatives9subphylumEi, .Lfunc_end214-_ZNK2kc40impl_productionblock_NonlistAlternatives9subphylumEi
                                        # -- End function
	.globl	_ZNK2kc37impl_productionblock_ListAlternatives9subphylumEi # -- Begin function _ZNK2kc37impl_productionblock_ListAlternatives9subphylumEi
	.p2align	5
	.type	_ZNK2kc37impl_productionblock_ListAlternatives9subphylumEi,@function
_ZNK2kc37impl_productionblock_ListAlternatives9subphylumEi: # @_ZNK2kc37impl_productionblock_ListAlternatives9subphylumEi
# %bb.0:                                # %entry
	ori	$a2, $zero, 1
	beq	$a1, $a2, .LBB215_3
# %bb.1:                                # %entry
	bnez	$a1, .LBB215_4
# %bb.2:                                # %sw.bb
	ld.d	$a0, $a0, 8
	ret
.LBB215_3:                              # %sw.bb2
	ld.d	$a0, $a0, 16
	ret
.LBB215_4:
	move	$a0, $zero
	ret
.Lfunc_end215:
	.size	_ZNK2kc37impl_productionblock_ListAlternatives9subphylumEi, .Lfunc_end215-_ZNK2kc37impl_productionblock_ListAlternatives9subphylumEi
                                        # -- End function
	.globl	_ZNK2kc19impl_storageclasses9subphylumEi # -- Begin function _ZNK2kc19impl_storageclasses9subphylumEi
	.p2align	5
	.type	_ZNK2kc19impl_storageclasses9subphylumEi,@function
_ZNK2kc19impl_storageclasses9subphylumEi: # @_ZNK2kc19impl_storageclasses9subphylumEi
# %bb.0:                                # %entry
	ori	$a2, $zero, 1
	beq	$a1, $a2, .LBB216_3
# %bb.1:                                # %entry
	bnez	$a1, .LBB216_4
# %bb.2:                                # %sw.bb
	ld.d	$a0, $a0, 16
	ret
.LBB216_3:                              # %sw.bb2
	ld.d	$a0, $a0, 24
	ret
.LBB216_4:
	move	$a0, $zero
	ret
.Lfunc_end216:
	.size	_ZNK2kc19impl_storageclasses9subphylumEi, .Lfunc_end216-_ZNK2kc19impl_storageclasses9subphylumEi
                                        # -- End function
	.globl	_ZNK2kc40impl_storageoption_PositiveStorageOption9subphylumEi # -- Begin function _ZNK2kc40impl_storageoption_PositiveStorageOption9subphylumEi
	.p2align	5
	.type	_ZNK2kc40impl_storageoption_PositiveStorageOption9subphylumEi,@function
_ZNK2kc40impl_storageoption_PositiveStorageOption9subphylumEi: # @_ZNK2kc40impl_storageoption_PositiveStorageOption9subphylumEi
# %bb.0:                                # %entry
	ld.d	$a0, $a0, 8
	sltui	$a1, $a1, 1
	maskeqz	$a0, $a0, $a1
	ret
.Lfunc_end217:
	.size	_ZNK2kc40impl_storageoption_PositiveStorageOption9subphylumEi, .Lfunc_end217-_ZNK2kc40impl_storageoption_PositiveStorageOption9subphylumEi
                                        # -- End function
	.globl	_ZNK2kc40impl_storageoption_NegativeStorageOption9subphylumEi # -- Begin function _ZNK2kc40impl_storageoption_NegativeStorageOption9subphylumEi
	.p2align	5
	.type	_ZNK2kc40impl_storageoption_NegativeStorageOption9subphylumEi,@function
_ZNK2kc40impl_storageoption_NegativeStorageOption9subphylumEi: # @_ZNK2kc40impl_storageoption_NegativeStorageOption9subphylumEi
# %bb.0:                                # %entry
	ld.d	$a0, $a0, 8
	sltui	$a1, $a1, 1
	maskeqz	$a0, $a0, $a1
	ret
.Lfunc_end218:
	.size	_ZNK2kc40impl_storageoption_NegativeStorageOption9subphylumEi, .Lfunc_end218-_ZNK2kc40impl_storageoption_NegativeStorageOption9subphylumEi
                                        # -- End function
	.globl	_ZNK2kc40impl_phylumdeclaration_PhylumDeclaration9subphylumEi # -- Begin function _ZNK2kc40impl_phylumdeclaration_PhylumDeclaration9subphylumEi
	.p2align	5
	.type	_ZNK2kc40impl_phylumdeclaration_PhylumDeclaration9subphylumEi,@function
_ZNK2kc40impl_phylumdeclaration_PhylumDeclaration9subphylumEi: # @_ZNK2kc40impl_phylumdeclaration_PhylumDeclaration9subphylumEi
# %bb.0:                                # %entry
	ori	$a2, $zero, 3
	bltu	$a2, $a1, .LBB219_6
# %bb.1:                                # %entry
	slli.d	$a1, $a1, 2
	pcalau12i	$a2, %pc_hi20(.LJTI219_0)
	addi.d	$a2, $a2, %pc_lo12(.LJTI219_0)
	ldx.w	$a1, $a2, $a1
	add.d	$a1, $a2, $a1
	jr	$a1
.LBB219_2:                              # %sw.bb
	ld.d	$a0, $a0, 32
	ret
.LBB219_3:                              # %sw.bb3
	ld.d	$a0, $a0, 48
	ret
.LBB219_4:                              # %sw.bb4
	ld.d	$a0, $a0, 56
	ret
.LBB219_5:                              # %sw.bb2
	ld.d	$a0, $a0, 40
	ret
.LBB219_6:
	move	$a0, $zero
	ret
.Lfunc_end219:
	.size	_ZNK2kc40impl_phylumdeclaration_PhylumDeclaration9subphylumEi, .Lfunc_end219-_ZNK2kc40impl_phylumdeclaration_PhylumDeclaration9subphylumEi
	.section	.rodata,"a",@progbits
	.p2align	2, 0x0
.LJTI219_0:
	.word	.LBB219_2-.LJTI219_0
	.word	.LBB219_5-.LJTI219_0
	.word	.LBB219_3-.LJTI219_0
	.word	.LBB219_4-.LJTI219_0
                                        # -- End function
	.text
	.globl	_ZNK2kc16impl_phylumnames9subphylumEi # -- Begin function _ZNK2kc16impl_phylumnames9subphylumEi
	.p2align	5
	.type	_ZNK2kc16impl_phylumnames9subphylumEi,@function
_ZNK2kc16impl_phylumnames9subphylumEi:  # @_ZNK2kc16impl_phylumnames9subphylumEi
# %bb.0:                                # %entry
	ori	$a2, $zero, 1
	beq	$a1, $a2, .LBB220_3
# %bb.1:                                # %entry
	bnez	$a1, .LBB220_4
# %bb.2:                                # %sw.bb
	ld.d	$a0, $a0, 8
	ret
.LBB220_3:                              # %sw.bb2
	ld.d	$a0, $a0, 16
	ret
.LBB220_4:
	move	$a0, $zero
	ret
.Lfunc_end220:
	.size	_ZNK2kc16impl_phylumnames9subphylumEi, .Lfunc_end220-_ZNK2kc16impl_phylumnames9subphylumEi
                                        # -- End function
	.globl	_ZNK2kc23impl_phylumdeclarations9subphylumEi # -- Begin function _ZNK2kc23impl_phylumdeclarations9subphylumEi
	.p2align	5
	.type	_ZNK2kc23impl_phylumdeclarations9subphylumEi,@function
_ZNK2kc23impl_phylumdeclarations9subphylumEi: # @_ZNK2kc23impl_phylumdeclarations9subphylumEi
# %bb.0:                                # %entry
	ori	$a2, $zero, 1
	beq	$a1, $a2, .LBB221_3
# %bb.1:                                # %entry
	bnez	$a1, .LBB221_4
# %bb.2:                                # %sw.bb
	ld.d	$a0, $a0, 8
	ret
.LBB221_3:                              # %sw.bb2
	ld.d	$a0, $a0, 16
	ret
.LBB221_4:
	move	$a0, $zero
	ret
.Lfunc_end221:
	.size	_ZNK2kc23impl_phylumdeclarations9subphylumEi, .Lfunc_end221-_ZNK2kc23impl_phylumdeclarations9subphylumEi
                                        # -- End function
	.globl	_ZNK2kc46impl_phylumdeclarationsroot_PhylumDeclarations9subphylumEi # -- Begin function _ZNK2kc46impl_phylumdeclarationsroot_PhylumDeclarations9subphylumEi
	.p2align	5
	.type	_ZNK2kc46impl_phylumdeclarationsroot_PhylumDeclarations9subphylumEi,@function
_ZNK2kc46impl_phylumdeclarationsroot_PhylumDeclarations9subphylumEi: # @_ZNK2kc46impl_phylumdeclarationsroot_PhylumDeclarations9subphylumEi
# %bb.0:                                # %entry
	ld.d	$a0, $a0, 8
	sltui	$a1, $a1, 1
	maskeqz	$a0, $a0, $a1
	ret
.Lfunc_end222:
	.size	_ZNK2kc46impl_phylumdeclarationsroot_PhylumDeclarations9subphylumEi, .Lfunc_end222-_ZNK2kc46impl_phylumdeclarationsroot_PhylumDeclarations9subphylumEi
                                        # -- End function
	.globl	_ZNK2kc18impl_STRING_String9subphylumEi # -- Begin function _ZNK2kc18impl_STRING_String9subphylumEi
	.p2align	5
	.type	_ZNK2kc18impl_STRING_String9subphylumEi,@function
_ZNK2kc18impl_STRING_String9subphylumEi: # @_ZNK2kc18impl_STRING_String9subphylumEi
# %bb.0:                                # %entry
	ld.d	$a0, $a0, 24
	sltui	$a1, $a1, 1
	maskeqz	$a0, $a0, $a1
	ret
.Lfunc_end223:
	.size	_ZNK2kc18impl_STRING_String9subphylumEi, .Lfunc_end223-_ZNK2kc18impl_STRING_String9subphylumEi
                                        # -- End function
	.globl	_ZNK2kc12impl_INT_Int9subphylumEi # -- Begin function _ZNK2kc12impl_INT_Int9subphylumEi
	.p2align	5
	.type	_ZNK2kc12impl_INT_Int9subphylumEi,@function
_ZNK2kc12impl_INT_Int9subphylumEi:      # @_ZNK2kc12impl_INT_Int9subphylumEi
# %bb.0:                                # %entry
	ld.d	$a0, $a0, 24
	sltui	$a1, $a1, 1
	maskeqz	$a0, $a0, $a1
	ret
.Lfunc_end224:
	.size	_ZNK2kc12impl_INT_Int9subphylumEi, .Lfunc_end224-_ZNK2kc12impl_INT_Int9subphylumEi
                                        # -- End function
	.globl	_ZNK2kc10impl_ID_Id9subphylumEi # -- Begin function _ZNK2kc10impl_ID_Id9subphylumEi
	.p2align	5
	.type	_ZNK2kc10impl_ID_Id9subphylumEi,@function
_ZNK2kc10impl_ID_Id9subphylumEi:        # @_ZNK2kc10impl_ID_Id9subphylumEi
# %bb.0:                                # %entry
	ld.d	$a0, $a0, 40
	sltui	$a1, $a1, 1
	maskeqz	$a0, $a0, $a1
	ret
.Lfunc_end225:
	.size	_ZNK2kc10impl_ID_Id9subphylumEi, .Lfunc_end225-_ZNK2kc10impl_ID_Id9subphylumEi
                                        # -- End function
	.globl	_ZNK2kc15impl_uniqID_Str9subphylumEi # -- Begin function _ZNK2kc15impl_uniqID_Str9subphylumEi
	.p2align	5
	.type	_ZNK2kc15impl_uniqID_Str9subphylumEi,@function
_ZNK2kc15impl_uniqID_Str9subphylumEi:   # @_ZNK2kc15impl_uniqID_Str9subphylumEi
# %bb.0:                                # %entry
	ld.d	$a0, $a0, 40
	sltui	$a1, $a1, 1
	maskeqz	$a0, $a0, $a1
	ret
.Lfunc_end226:
	.size	_ZNK2kc15impl_uniqID_Str9subphylumEi, .Lfunc_end226-_ZNK2kc15impl_uniqID_Str9subphylumEi
                                        # -- End function
	.globl	_ZN2kc32impl_bindingidmark_BindingIdMark13set_subphylumEiPNS_20impl_abstract_phylumE # -- Begin function _ZN2kc32impl_bindingidmark_BindingIdMark13set_subphylumEiPNS_20impl_abstract_phylumE
	.p2align	5
	.type	_ZN2kc32impl_bindingidmark_BindingIdMark13set_subphylumEiPNS_20impl_abstract_phylumE,@function
_ZN2kc32impl_bindingidmark_BindingIdMark13set_subphylumEiPNS_20impl_abstract_phylumE: # @_ZN2kc32impl_bindingidmark_BindingIdMark13set_subphylumEiPNS_20impl_abstract_phylumE
# %bb.0:                                # %entry
	beqz	$a1, .LBB227_2
# %bb.1:                                # %sw.epilog
	ret
.LBB227_2:                              # %sw.bb
	beqz	$a2, .LBB227_4
# %bb.3:                                # %dynamic_cast.notnull
	addi.d	$sp, $sp, -16
	st.d	$ra, $sp, 8                     # 8-byte Folded Spill
	st.d	$fp, $sp, 0                     # 8-byte Folded Spill
	pcalau12i	$a1, %pc_hi20(_ZTIN2kc20impl_abstract_phylumE)
	addi.d	$a1, $a1, %pc_lo12(_ZTIN2kc20impl_abstract_phylumE)
	pcalau12i	$a3, %pc_hi20(_ZTIN2kc11impl_uniqIDE)
	addi.d	$a3, $a3, %pc_lo12(_ZTIN2kc11impl_uniqIDE)
	move	$fp, $a0
	move	$a0, $a2
	move	$a2, $a3
	move	$a3, $zero
	pcaddu18i	$ra, %call36(__dynamic_cast)
	jirl	$ra, $ra, 0
	move	$a1, $a0
	move	$a0, $fp
	ld.d	$fp, $sp, 0                     # 8-byte Folded Reload
	ld.d	$ra, $sp, 8                     # 8-byte Folded Reload
	addi.d	$sp, $sp, 16
	st.d	$a1, $a0, 16
	ret
.LBB227_4:
	move	$a1, $zero
	st.d	$a1, $a0, 16
	ret
.Lfunc_end227:
	.size	_ZN2kc32impl_bindingidmark_BindingIdMark13set_subphylumEiPNS_20impl_abstract_phylumE, .Lfunc_end227-_ZN2kc32impl_bindingidmark_BindingIdMark13set_subphylumEiPNS_20impl_abstract_phylumE
                                        # -- End function
	.globl	_ZN2kc19impl_bindingidmarks13set_subphylumEiPNS_20impl_abstract_phylumE # -- Begin function _ZN2kc19impl_bindingidmarks13set_subphylumEiPNS_20impl_abstract_phylumE
	.p2align	5
	.type	_ZN2kc19impl_bindingidmarks13set_subphylumEiPNS_20impl_abstract_phylumE,@function
_ZN2kc19impl_bindingidmarks13set_subphylumEiPNS_20impl_abstract_phylumE: # @_ZN2kc19impl_bindingidmarks13set_subphylumEiPNS_20impl_abstract_phylumE
# %bb.0:                                # %entry
	addi.d	$sp, $sp, -32
	st.d	$ra, $sp, 24                    # 8-byte Folded Spill
	st.d	$fp, $sp, 16                    # 8-byte Folded Spill
	st.d	$s0, $sp, 8                     # 8-byte Folded Spill
	ori	$a3, $zero, 1
	move	$fp, $a0
	beq	$a1, $a3, .LBB228_4
# %bb.1:                                # %entry
	bnez	$a1, .LBB228_9
# %bb.2:                                # %sw.bb
	ori	$s0, $zero, 8
	beqz	$a2, .LBB228_7
# %bb.3:
	pcalau12i	$a0, %pc_hi20(_ZTIN2kc18impl_bindingidmarkE)
	addi.d	$a3, $a0, %pc_lo12(_ZTIN2kc18impl_bindingidmarkE)
	b	.LBB228_6
.LBB228_4:                              # %sw.bb2
	ori	$s0, $zero, 16
	beqz	$a2, .LBB228_7
# %bb.5:
	pcalau12i	$a0, %pc_hi20(_ZTIN2kc19impl_bindingidmarksE)
	addi.d	$a3, $a0, %pc_lo12(_ZTIN2kc19impl_bindingidmarksE)
.LBB228_6:                              # %sw.epilog.sink.split.sink.split
	pcalau12i	$a0, %pc_hi20(_ZTIN2kc20impl_abstract_phylumE)
	addi.d	$a1, $a0, %pc_lo12(_ZTIN2kc20impl_abstract_phylumE)
	move	$a0, $a2
	move	$a2, $a3
	move	$a3, $zero
	pcaddu18i	$ra, %call36(__dynamic_cast)
	jirl	$ra, $ra, 0
	b	.LBB228_8
.LBB228_7:
	move	$a0, $zero
.LBB228_8:                              # %sw.epilog.sink.split
	stx.d	$a0, $fp, $s0
.LBB228_9:                              # %sw.epilog
	ld.d	$s0, $sp, 8                     # 8-byte Folded Reload
	ld.d	$fp, $sp, 16                    # 8-byte Folded Reload
	ld.d	$ra, $sp, 24                    # 8-byte Folded Reload
	addi.d	$sp, $sp, 32
	ret
.Lfunc_end228:
	.size	_ZN2kc19impl_bindingidmarks13set_subphylumEiPNS_20impl_abstract_phylumE, .Lfunc_end228-_ZN2kc19impl_bindingidmarks13set_subphylumEiPNS_20impl_abstract_phylumE
                                        # -- End function
	.globl	_ZN2kc54impl_countedphylumdeclaration_CountedPhylumdeclaration13set_subphylumEiPNS_20impl_abstract_phylumE # -- Begin function _ZN2kc54impl_countedphylumdeclaration_CountedPhylumdeclaration13set_subphylumEiPNS_20impl_abstract_phylumE
	.p2align	5
	.type	_ZN2kc54impl_countedphylumdeclaration_CountedPhylumdeclaration13set_subphylumEiPNS_20impl_abstract_phylumE,@function
_ZN2kc54impl_countedphylumdeclaration_CountedPhylumdeclaration13set_subphylumEiPNS_20impl_abstract_phylumE: # @_ZN2kc54impl_countedphylumdeclaration_CountedPhylumdeclaration13set_subphylumEiPNS_20impl_abstract_phylumE
# %bb.0:                                # %entry
	beqz	$a1, .LBB229_2
# %bb.1:                                # %sw.epilog
	ret
.LBB229_2:                              # %sw.bb
	beqz	$a2, .LBB229_4
# %bb.3:                                # %dynamic_cast.notnull
	addi.d	$sp, $sp, -16
	st.d	$ra, $sp, 8                     # 8-byte Folded Spill
	st.d	$fp, $sp, 0                     # 8-byte Folded Spill
	pcalau12i	$a1, %pc_hi20(_ZTIN2kc20impl_abstract_phylumE)
	addi.d	$a1, $a1, %pc_lo12(_ZTIN2kc20impl_abstract_phylumE)
	pcalau12i	$a3, %pc_hi20(_ZTIN2kc11impl_uniqIDE)
	addi.d	$a3, $a3, %pc_lo12(_ZTIN2kc11impl_uniqIDE)
	move	$fp, $a0
	move	$a0, $a2
	move	$a2, $a3
	move	$a3, $zero
	pcaddu18i	$ra, %call36(__dynamic_cast)
	jirl	$ra, $ra, 0
	move	$a1, $a0
	move	$a0, $fp
	ld.d	$fp, $sp, 0                     # 8-byte Folded Reload
	ld.d	$ra, $sp, 8                     # 8-byte Folded Reload
	addi.d	$sp, $sp, 16
	st.d	$a1, $a0, 16
	ret
.LBB229_4:
	move	$a1, $zero
	st.d	$a1, $a0, 16
	ret
.Lfunc_end229:
	.size	_ZN2kc54impl_countedphylumdeclaration_CountedPhylumdeclaration13set_subphylumEiPNS_20impl_abstract_phylumE, .Lfunc_end229-_ZN2kc54impl_countedphylumdeclaration_CountedPhylumdeclaration13set_subphylumEiPNS_20impl_abstract_phylumE
                                        # -- End function
	.globl	_ZN2kc30impl_countedphylumdeclarations13set_subphylumEiPNS_20impl_abstract_phylumE # -- Begin function _ZN2kc30impl_countedphylumdeclarations13set_subphylumEiPNS_20impl_abstract_phylumE
	.p2align	5
	.type	_ZN2kc30impl_countedphylumdeclarations13set_subphylumEiPNS_20impl_abstract_phylumE,@function
_ZN2kc30impl_countedphylumdeclarations13set_subphylumEiPNS_20impl_abstract_phylumE: # @_ZN2kc30impl_countedphylumdeclarations13set_subphylumEiPNS_20impl_abstract_phylumE
# %bb.0:                                # %entry
	addi.d	$sp, $sp, -32
	st.d	$ra, $sp, 24                    # 8-byte Folded Spill
	st.d	$fp, $sp, 16                    # 8-byte Folded Spill
	st.d	$s0, $sp, 8                     # 8-byte Folded Spill
	ori	$a3, $zero, 1
	move	$fp, $a0
	beq	$a1, $a3, .LBB230_4
# %bb.1:                                # %entry
	bnez	$a1, .LBB230_9
# %bb.2:                                # %sw.bb
	ori	$s0, $zero, 8
	beqz	$a2, .LBB230_7
# %bb.3:
	pcalau12i	$a0, %pc_hi20(_ZTIN2kc29impl_countedphylumdeclarationE)
	addi.d	$a3, $a0, %pc_lo12(_ZTIN2kc29impl_countedphylumdeclarationE)
	b	.LBB230_6
.LBB230_4:                              # %sw.bb2
	ori	$s0, $zero, 16
	beqz	$a2, .LBB230_7
# %bb.5:
	pcalau12i	$a0, %pc_hi20(_ZTIN2kc30impl_countedphylumdeclarationsE)
	addi.d	$a3, $a0, %pc_lo12(_ZTIN2kc30impl_countedphylumdeclarationsE)
.LBB230_6:                              # %sw.epilog.sink.split.sink.split
	pcalau12i	$a0, %pc_hi20(_ZTIN2kc20impl_abstract_phylumE)
	addi.d	$a1, $a0, %pc_lo12(_ZTIN2kc20impl_abstract_phylumE)
	move	$a0, $a2
	move	$a2, $a3
	move	$a3, $zero
	pcaddu18i	$ra, %call36(__dynamic_cast)
	jirl	$ra, $ra, 0
	b	.LBB230_8
.LBB230_7:
	move	$a0, $zero
.LBB230_8:                              # %sw.epilog.sink.split
	stx.d	$a0, $fp, $s0
.LBB230_9:                              # %sw.epilog
	ld.d	$s0, $sp, 8                     # 8-byte Folded Reload
	ld.d	$fp, $sp, 16                    # 8-byte Folded Reload
	ld.d	$ra, $sp, 24                    # 8-byte Folded Reload
	addi.d	$sp, $sp, 32
	ret
.Lfunc_end230:
	.size	_ZN2kc30impl_countedphylumdeclarations13set_subphylumEiPNS_20impl_abstract_phylumE, .Lfunc_end230-_ZN2kc30impl_countedphylumdeclarations13set_subphylumEiPNS_20impl_abstract_phylumE
                                        # -- End function
	.globl	_ZN2kc50impl_addedphylumdeclaration_AddedPhylumdeclaration13set_subphylumEiPNS_20impl_abstract_phylumE # -- Begin function _ZN2kc50impl_addedphylumdeclaration_AddedPhylumdeclaration13set_subphylumEiPNS_20impl_abstract_phylumE
	.p2align	5
	.type	_ZN2kc50impl_addedphylumdeclaration_AddedPhylumdeclaration13set_subphylumEiPNS_20impl_abstract_phylumE,@function
_ZN2kc50impl_addedphylumdeclaration_AddedPhylumdeclaration13set_subphylumEiPNS_20impl_abstract_phylumE: # @_ZN2kc50impl_addedphylumdeclaration_AddedPhylumdeclaration13set_subphylumEiPNS_20impl_abstract_phylumE
# %bb.0:                                # %entry
	beqz	$a1, .LBB231_2
# %bb.1:                                # %sw.epilog
	ret
.LBB231_2:                              # %sw.bb
	beqz	$a2, .LBB231_4
# %bb.3:                                # %dynamic_cast.notnull
	addi.d	$sp, $sp, -16
	st.d	$ra, $sp, 8                     # 8-byte Folded Spill
	st.d	$fp, $sp, 0                     # 8-byte Folded Spill
	pcalau12i	$a1, %pc_hi20(_ZTIN2kc20impl_abstract_phylumE)
	addi.d	$a1, $a1, %pc_lo12(_ZTIN2kc20impl_abstract_phylumE)
	pcalau12i	$a3, %pc_hi20(_ZTIN2kc11impl_uniqIDE)
	addi.d	$a3, $a3, %pc_lo12(_ZTIN2kc11impl_uniqIDE)
	move	$fp, $a0
	move	$a0, $a2
	move	$a2, $a3
	move	$a3, $zero
	pcaddu18i	$ra, %call36(__dynamic_cast)
	jirl	$ra, $ra, 0
	move	$a1, $a0
	move	$a0, $fp
	ld.d	$fp, $sp, 0                     # 8-byte Folded Reload
	ld.d	$ra, $sp, 8                     # 8-byte Folded Reload
	addi.d	$sp, $sp, 16
	st.d	$a1, $a0, 16
	ret
.LBB231_4:
	move	$a1, $zero
	st.d	$a1, $a0, 16
	ret
.Lfunc_end231:
	.size	_ZN2kc50impl_addedphylumdeclaration_AddedPhylumdeclaration13set_subphylumEiPNS_20impl_abstract_phylumE, .Lfunc_end231-_ZN2kc50impl_addedphylumdeclaration_AddedPhylumdeclaration13set_subphylumEiPNS_20impl_abstract_phylumE
                                        # -- End function
	.globl	_ZN2kc28impl_addedphylumdeclarations13set_subphylumEiPNS_20impl_abstract_phylumE # -- Begin function _ZN2kc28impl_addedphylumdeclarations13set_subphylumEiPNS_20impl_abstract_phylumE
	.p2align	5
	.type	_ZN2kc28impl_addedphylumdeclarations13set_subphylumEiPNS_20impl_abstract_phylumE,@function
_ZN2kc28impl_addedphylumdeclarations13set_subphylumEiPNS_20impl_abstract_phylumE: # @_ZN2kc28impl_addedphylumdeclarations13set_subphylumEiPNS_20impl_abstract_phylumE
# %bb.0:                                # %entry
	addi.d	$sp, $sp, -32
	st.d	$ra, $sp, 24                    # 8-byte Folded Spill
	st.d	$fp, $sp, 16                    # 8-byte Folded Spill
	st.d	$s0, $sp, 8                     # 8-byte Folded Spill
	ori	$a3, $zero, 1
	move	$fp, $a0
	beq	$a1, $a3, .LBB232_4
# %bb.1:                                # %entry
	bnez	$a1, .LBB232_9
# %bb.2:                                # %sw.bb
	ori	$s0, $zero, 8
	beqz	$a2, .LBB232_7
# %bb.3:
	pcalau12i	$a0, %pc_hi20(_ZTIN2kc27impl_addedphylumdeclarationE)
	addi.d	$a3, $a0, %pc_lo12(_ZTIN2kc27impl_addedphylumdeclarationE)
	b	.LBB232_6
.LBB232_4:                              # %sw.bb2
	ori	$s0, $zero, 16
	beqz	$a2, .LBB232_7
# %bb.5:
	pcalau12i	$a0, %pc_hi20(_ZTIN2kc28impl_addedphylumdeclarationsE)
	addi.d	$a3, $a0, %pc_lo12(_ZTIN2kc28impl_addedphylumdeclarationsE)
.LBB232_6:                              # %sw.epilog.sink.split.sink.split
	pcalau12i	$a0, %pc_hi20(_ZTIN2kc20impl_abstract_phylumE)
	addi.d	$a1, $a0, %pc_lo12(_ZTIN2kc20impl_abstract_phylumE)
	move	$a0, $a2
	move	$a2, $a3
	move	$a3, $zero
	pcaddu18i	$ra, %call36(__dynamic_cast)
	jirl	$ra, $ra, 0
	b	.LBB232_8
.LBB232_7:
	move	$a0, $zero
.LBB232_8:                              # %sw.epilog.sink.split
	stx.d	$a0, $fp, $s0
.LBB232_9:                              # %sw.epilog
	ld.d	$s0, $sp, 8                     # 8-byte Folded Reload
	ld.d	$fp, $sp, 16                    # 8-byte Folded Reload
	ld.d	$ra, $sp, 24                    # 8-byte Folded Reload
	addi.d	$sp, $sp, 32
	ret
.Lfunc_end232:
	.size	_ZN2kc28impl_addedphylumdeclarations13set_subphylumEiPNS_20impl_abstract_phylumE, .Lfunc_end232-_ZN2kc28impl_addedphylumdeclarations13set_subphylumEiPNS_20impl_abstract_phylumE
                                        # -- End function
	.globl	_ZN2kc21impl_problem_Problem613set_subphylumEiPNS_20impl_abstract_phylumE # -- Begin function _ZN2kc21impl_problem_Problem613set_subphylumEiPNS_20impl_abstract_phylumE
	.p2align	5
	.type	_ZN2kc21impl_problem_Problem613set_subphylumEiPNS_20impl_abstract_phylumE,@function
_ZN2kc21impl_problem_Problem613set_subphylumEiPNS_20impl_abstract_phylumE: # @_ZN2kc21impl_problem_Problem613set_subphylumEiPNS_20impl_abstract_phylumE
# %bb.0:                                # %entry
	ori	$a3, $zero, 5
	bltu	$a3, $a1, .LBB233_8
# %bb.1:                                # %entry
	addi.d	$sp, $sp, -32
	st.d	$ra, $sp, 24                    # 8-byte Folded Spill
	st.d	$fp, $sp, 16                    # 8-byte Folded Spill
	st.d	$s0, $sp, 8                     # 8-byte Folded Spill
	move	$fp, $a0
	slli.d	$a0, $a1, 2
	pcalau12i	$a1, %pc_hi20(.LJTI233_0)
	addi.d	$a1, $a1, %pc_lo12(.LJTI233_0)
	ldx.w	$a0, $a1, $a0
	add.d	$a0, $a1, $a0
	jr	$a0
.LBB233_2:                              # %sw.bb
	ori	$s0, $zero, 8
	bnez	$a2, .LBB233_4
	b	.LBB233_6
.LBB233_3:                              # %sw.bb14
	ori	$s0, $zero, 40
	beqz	$a2, .LBB233_6
.LBB233_4:                              # %sw.epilog.sink.split.sink.split
	pcalau12i	$a0, %pc_hi20(_ZTIN2kc20impl_abstract_phylumE)
	addi.d	$a1, $a0, %pc_lo12(_ZTIN2kc20impl_abstract_phylumE)
	pcalau12i	$a0, %got_pc_hi20(_ZTIN2kc20impl_casestring__StrE)
	ld.d	$a3, $a0, %got_pc_lo12(_ZTIN2kc20impl_casestring__StrE)
	move	$a0, $a2
	move	$a2, $a3
	move	$a3, $zero
	pcaddu18i	$ra, %call36(__dynamic_cast)
	jirl	$ra, $ra, 0
	b	.LBB233_7
.LBB233_5:                              # %sw.bb6
	ori	$s0, $zero, 24
	bnez	$a2, .LBB233_4
.LBB233_6:
	move	$a0, $zero
.LBB233_7:                              # %sw.epilog.sink.split
	stx.d	$a0, $fp, $s0
	ld.d	$s0, $sp, 8                     # 8-byte Folded Reload
	ld.d	$fp, $sp, 16                    # 8-byte Folded Reload
	ld.d	$ra, $sp, 24                    # 8-byte Folded Reload
	addi.d	$sp, $sp, 32
.LBB233_8:                              # %sw.epilog
	ret
.LBB233_9:                              # %sw.bb10
	ori	$s0, $zero, 32
	bnez	$a2, .LBB233_4
	b	.LBB233_6
.LBB233_10:                             # %sw.bb2
	ori	$s0, $zero, 16
	bnez	$a2, .LBB233_4
	b	.LBB233_6
.LBB233_11:                             # %sw.bb18
	ori	$s0, $zero, 48
	bnez	$a2, .LBB233_4
	b	.LBB233_6
.Lfunc_end233:
	.size	_ZN2kc21impl_problem_Problem613set_subphylumEiPNS_20impl_abstract_phylumE, .Lfunc_end233-_ZN2kc21impl_problem_Problem613set_subphylumEiPNS_20impl_abstract_phylumE
	.section	.rodata,"a",@progbits
	.p2align	2, 0x0
.LJTI233_0:
	.word	.LBB233_2-.LJTI233_0
	.word	.LBB233_10-.LJTI233_0
	.word	.LBB233_5-.LJTI233_0
	.word	.LBB233_9-.LJTI233_0
	.word	.LBB233_3-.LJTI233_0
	.word	.LBB233_11-.LJTI233_0
                                        # -- End function
	.text
	.globl	_ZN2kc21impl_problem_Problem513set_subphylumEiPNS_20impl_abstract_phylumE # -- Begin function _ZN2kc21impl_problem_Problem513set_subphylumEiPNS_20impl_abstract_phylumE
	.p2align	5
	.type	_ZN2kc21impl_problem_Problem513set_subphylumEiPNS_20impl_abstract_phylumE,@function
_ZN2kc21impl_problem_Problem513set_subphylumEiPNS_20impl_abstract_phylumE: # @_ZN2kc21impl_problem_Problem513set_subphylumEiPNS_20impl_abstract_phylumE
# %bb.0:                                # %entry
	ori	$a3, $zero, 4
	bltu	$a3, $a1, .LBB234_8
# %bb.1:                                # %entry
	addi.d	$sp, $sp, -32
	st.d	$ra, $sp, 24                    # 8-byte Folded Spill
	st.d	$fp, $sp, 16                    # 8-byte Folded Spill
	st.d	$s0, $sp, 8                     # 8-byte Folded Spill
	move	$fp, $a0
	slli.d	$a0, $a1, 2
	pcalau12i	$a1, %pc_hi20(.LJTI234_0)
	addi.d	$a1, $a1, %pc_lo12(.LJTI234_0)
	ldx.w	$a0, $a1, $a0
	add.d	$a0, $a1, $a0
	jr	$a0
.LBB234_2:                              # %sw.bb
	ori	$s0, $zero, 8
	bnez	$a2, .LBB234_4
	b	.LBB234_6
.LBB234_3:                              # %sw.bb14
	ori	$s0, $zero, 40
	beqz	$a2, .LBB234_6
.LBB234_4:                              # %sw.epilog.sink.split.sink.split
	pcalau12i	$a0, %pc_hi20(_ZTIN2kc20impl_abstract_phylumE)
	addi.d	$a1, $a0, %pc_lo12(_ZTIN2kc20impl_abstract_phylumE)
	pcalau12i	$a0, %got_pc_hi20(_ZTIN2kc20impl_casestring__StrE)
	ld.d	$a3, $a0, %got_pc_lo12(_ZTIN2kc20impl_casestring__StrE)
	move	$a0, $a2
	move	$a2, $a3
	move	$a3, $zero
	pcaddu18i	$ra, %call36(__dynamic_cast)
	jirl	$ra, $ra, 0
	b	.LBB234_7
.LBB234_5:                              # %sw.bb6
	ori	$s0, $zero, 24
	bnez	$a2, .LBB234_4
.LBB234_6:
	move	$a0, $zero
.LBB234_7:                              # %sw.epilog.sink.split
	stx.d	$a0, $fp, $s0
	ld.d	$s0, $sp, 8                     # 8-byte Folded Reload
	ld.d	$fp, $sp, 16                    # 8-byte Folded Reload
	ld.d	$ra, $sp, 24                    # 8-byte Folded Reload
	addi.d	$sp, $sp, 32
.LBB234_8:                              # %sw.epilog
	ret
.LBB234_9:                              # %sw.bb10
	ori	$s0, $zero, 32
	bnez	$a2, .LBB234_4
	b	.LBB234_6
.LBB234_10:                             # %sw.bb2
	ori	$s0, $zero, 16
	bnez	$a2, .LBB234_4
	b	.LBB234_6
.Lfunc_end234:
	.size	_ZN2kc21impl_problem_Problem513set_subphylumEiPNS_20impl_abstract_phylumE, .Lfunc_end234-_ZN2kc21impl_problem_Problem513set_subphylumEiPNS_20impl_abstract_phylumE
	.section	.rodata,"a",@progbits
	.p2align	2, 0x0
.LJTI234_0:
	.word	.LBB234_2-.LJTI234_0
	.word	.LBB234_10-.LJTI234_0
	.word	.LBB234_5-.LJTI234_0
	.word	.LBB234_9-.LJTI234_0
	.word	.LBB234_3-.LJTI234_0
                                        # -- End function
	.text
	.globl	_ZN2kc21impl_problem_Problem413set_subphylumEiPNS_20impl_abstract_phylumE # -- Begin function _ZN2kc21impl_problem_Problem413set_subphylumEiPNS_20impl_abstract_phylumE
	.p2align	5
	.type	_ZN2kc21impl_problem_Problem413set_subphylumEiPNS_20impl_abstract_phylumE,@function
_ZN2kc21impl_problem_Problem413set_subphylumEiPNS_20impl_abstract_phylumE: # @_ZN2kc21impl_problem_Problem413set_subphylumEiPNS_20impl_abstract_phylumE
# %bb.0:                                # %entry
	ori	$a3, $zero, 3
	bltu	$a3, $a1, .LBB235_8
# %bb.1:                                # %entry
	addi.d	$sp, $sp, -32
	st.d	$ra, $sp, 24                    # 8-byte Folded Spill
	st.d	$fp, $sp, 16                    # 8-byte Folded Spill
	st.d	$s0, $sp, 8                     # 8-byte Folded Spill
	move	$fp, $a0
	slli.d	$a0, $a1, 2
	pcalau12i	$a1, %pc_hi20(.LJTI235_0)
	addi.d	$a1, $a1, %pc_lo12(.LJTI235_0)
	ldx.w	$a0, $a1, $a0
	add.d	$a0, $a1, $a0
	jr	$a0
.LBB235_2:                              # %sw.bb
	ori	$s0, $zero, 8
	bnez	$a2, .LBB235_4
	b	.LBB235_6
.LBB235_3:                              # %sw.bb6
	ori	$s0, $zero, 24
	beqz	$a2, .LBB235_6
.LBB235_4:                              # %sw.epilog.sink.split.sink.split
	pcalau12i	$a0, %pc_hi20(_ZTIN2kc20impl_abstract_phylumE)
	addi.d	$a1, $a0, %pc_lo12(_ZTIN2kc20impl_abstract_phylumE)
	pcalau12i	$a0, %got_pc_hi20(_ZTIN2kc20impl_casestring__StrE)
	ld.d	$a3, $a0, %got_pc_lo12(_ZTIN2kc20impl_casestring__StrE)
	move	$a0, $a2
	move	$a2, $a3
	move	$a3, $zero
	pcaddu18i	$ra, %call36(__dynamic_cast)
	jirl	$ra, $ra, 0
	b	.LBB235_7
.LBB235_5:                              # %sw.bb10
	ori	$s0, $zero, 32
	bnez	$a2, .LBB235_4
.LBB235_6:
	move	$a0, $zero
.LBB235_7:                              # %sw.epilog.sink.split
	stx.d	$a0, $fp, $s0
	ld.d	$s0, $sp, 8                     # 8-byte Folded Reload
	ld.d	$fp, $sp, 16                    # 8-byte Folded Reload
	ld.d	$ra, $sp, 24                    # 8-byte Folded Reload
	addi.d	$sp, $sp, 32
.LBB235_8:                              # %sw.epilog
	ret
.LBB235_9:                              # %sw.bb2
	ori	$s0, $zero, 16
	bnez	$a2, .LBB235_4
	b	.LBB235_6
.Lfunc_end235:
	.size	_ZN2kc21impl_problem_Problem413set_subphylumEiPNS_20impl_abstract_phylumE, .Lfunc_end235-_ZN2kc21impl_problem_Problem413set_subphylumEiPNS_20impl_abstract_phylumE
	.section	.rodata,"a",@progbits
	.p2align	2, 0x0
.LJTI235_0:
	.word	.LBB235_2-.LJTI235_0
	.word	.LBB235_9-.LJTI235_0
	.word	.LBB235_3-.LJTI235_0
	.word	.LBB235_5-.LJTI235_0
                                        # -- End function
	.text
	.globl	_ZN2kc25impl_problem_Problem3int113set_subphylumEiPNS_20impl_abstract_phylumE # -- Begin function _ZN2kc25impl_problem_Problem3int113set_subphylumEiPNS_20impl_abstract_phylumE
	.p2align	5
	.type	_ZN2kc25impl_problem_Problem3int113set_subphylumEiPNS_20impl_abstract_phylumE,@function
_ZN2kc25impl_problem_Problem3int113set_subphylumEiPNS_20impl_abstract_phylumE: # @_ZN2kc25impl_problem_Problem3int113set_subphylumEiPNS_20impl_abstract_phylumE
# %bb.0:                                # %entry
	ori	$a3, $zero, 4
	bltu	$a3, $a1, .LBB236_12
# %bb.1:                                # %entry
	addi.d	$sp, $sp, -32
	st.d	$ra, $sp, 24                    # 8-byte Folded Spill
	st.d	$fp, $sp, 16                    # 8-byte Folded Spill
	st.d	$s0, $sp, 8                     # 8-byte Folded Spill
	move	$fp, $a0
	slli.d	$a0, $a1, 2
	pcalau12i	$a1, %pc_hi20(.LJTI236_0)
	addi.d	$a1, $a1, %pc_lo12(.LJTI236_0)
	ldx.w	$a0, $a1, $a0
	add.d	$a0, $a1, $a0
	jr	$a0
.LBB236_2:                              # %sw.bb
	ori	$s0, $zero, 8
	bnez	$a2, .LBB236_8
	b	.LBB236_10
.LBB236_3:                              # %sw.bb14
	ori	$s0, $zero, 40
	bnez	$a2, .LBB236_8
	b	.LBB236_10
.LBB236_4:                              # %sw.bb6
	ori	$s0, $zero, 24
	bnez	$a2, .LBB236_8
	b	.LBB236_10
.LBB236_5:                              # %sw.bb10
	ori	$s0, $zero, 32
	beqz	$a2, .LBB236_10
# %bb.6:
	pcalau12i	$a0, %got_pc_hi20(_ZTIN2kc17impl_integer__IntE)
	ld.d	$a3, $a0, %got_pc_lo12(_ZTIN2kc17impl_integer__IntE)
	b	.LBB236_9
.LBB236_7:                              # %sw.bb2
	ori	$s0, $zero, 16
	beqz	$a2, .LBB236_10
.LBB236_8:
	pcalau12i	$a0, %got_pc_hi20(_ZTIN2kc20impl_casestring__StrE)
	ld.d	$a3, $a0, %got_pc_lo12(_ZTIN2kc20impl_casestring__StrE)
.LBB236_9:                              # %sw.epilog.sink.split.sink.split
	pcalau12i	$a0, %pc_hi20(_ZTIN2kc20impl_abstract_phylumE)
	addi.d	$a1, $a0, %pc_lo12(_ZTIN2kc20impl_abstract_phylumE)
	move	$a0, $a2
	move	$a2, $a3
	move	$a3, $zero
	pcaddu18i	$ra, %call36(__dynamic_cast)
	jirl	$ra, $ra, 0
	b	.LBB236_11
.LBB236_10:
	move	$a0, $zero
.LBB236_11:                             # %sw.epilog.sink.split
	stx.d	$a0, $fp, $s0
	ld.d	$s0, $sp, 8                     # 8-byte Folded Reload
	ld.d	$fp, $sp, 16                    # 8-byte Folded Reload
	ld.d	$ra, $sp, 24                    # 8-byte Folded Reload
	addi.d	$sp, $sp, 32
.LBB236_12:                             # %sw.epilog
	ret
.Lfunc_end236:
	.size	_ZN2kc25impl_problem_Problem3int113set_subphylumEiPNS_20impl_abstract_phylumE, .Lfunc_end236-_ZN2kc25impl_problem_Problem3int113set_subphylumEiPNS_20impl_abstract_phylumE
	.section	.rodata,"a",@progbits
	.p2align	2, 0x0
.LJTI236_0:
	.word	.LBB236_2-.LJTI236_0
	.word	.LBB236_7-.LJTI236_0
	.word	.LBB236_4-.LJTI236_0
	.word	.LBB236_5-.LJTI236_0
	.word	.LBB236_3-.LJTI236_0
                                        # -- End function
	.text
	.globl	_ZN2kc21impl_problem_Problem313set_subphylumEiPNS_20impl_abstract_phylumE # -- Begin function _ZN2kc21impl_problem_Problem313set_subphylumEiPNS_20impl_abstract_phylumE
	.p2align	5
	.type	_ZN2kc21impl_problem_Problem313set_subphylumEiPNS_20impl_abstract_phylumE,@function
_ZN2kc21impl_problem_Problem313set_subphylumEiPNS_20impl_abstract_phylumE: # @_ZN2kc21impl_problem_Problem313set_subphylumEiPNS_20impl_abstract_phylumE
# %bb.0:                                # %entry
	addi.d	$sp, $sp, -32
	st.d	$ra, $sp, 24                    # 8-byte Folded Spill
	st.d	$fp, $sp, 16                    # 8-byte Folded Spill
	st.d	$s0, $sp, 8                     # 8-byte Folded Spill
	ori	$a3, $zero, 2
	move	$fp, $a0
	beq	$a1, $a3, .LBB237_6
# %bb.1:                                # %entry
	ori	$a0, $zero, 1
	beq	$a1, $a0, .LBB237_4
# %bb.2:                                # %entry
	bnez	$a1, .LBB237_9
# %bb.3:                                # %sw.bb
	ori	$s0, $zero, 8
	bnez	$a2, .LBB237_5
	b	.LBB237_7
.LBB237_4:                              # %sw.bb2
	ori	$s0, $zero, 16
	beqz	$a2, .LBB237_7
.LBB237_5:                              # %sw.epilog.sink.split.sink.split
	pcalau12i	$a0, %pc_hi20(_ZTIN2kc20impl_abstract_phylumE)
	addi.d	$a1, $a0, %pc_lo12(_ZTIN2kc20impl_abstract_phylumE)
	pcalau12i	$a0, %got_pc_hi20(_ZTIN2kc20impl_casestring__StrE)
	ld.d	$a3, $a0, %got_pc_lo12(_ZTIN2kc20impl_casestring__StrE)
	move	$a0, $a2
	move	$a2, $a3
	move	$a3, $zero
	pcaddu18i	$ra, %call36(__dynamic_cast)
	jirl	$ra, $ra, 0
	b	.LBB237_8
.LBB237_6:                              # %sw.bb6
	ori	$s0, $zero, 24
	bnez	$a2, .LBB237_5
.LBB237_7:
	move	$a0, $zero
.LBB237_8:                              # %sw.epilog.sink.split
	stx.d	$a0, $fp, $s0
.LBB237_9:                              # %sw.epilog
	ld.d	$s0, $sp, 8                     # 8-byte Folded Reload
	ld.d	$fp, $sp, 16                    # 8-byte Folded Reload
	ld.d	$ra, $sp, 24                    # 8-byte Folded Reload
	addi.d	$sp, $sp, 32
	ret
.Lfunc_end237:
	.size	_ZN2kc21impl_problem_Problem313set_subphylumEiPNS_20impl_abstract_phylumE, .Lfunc_end237-_ZN2kc21impl_problem_Problem313set_subphylumEiPNS_20impl_abstract_phylumE
                                        # -- End function
	.globl	_ZN2kc21impl_problem_Problem213set_subphylumEiPNS_20impl_abstract_phylumE # -- Begin function _ZN2kc21impl_problem_Problem213set_subphylumEiPNS_20impl_abstract_phylumE
	.p2align	5
	.type	_ZN2kc21impl_problem_Problem213set_subphylumEiPNS_20impl_abstract_phylumE,@function
_ZN2kc21impl_problem_Problem213set_subphylumEiPNS_20impl_abstract_phylumE: # @_ZN2kc21impl_problem_Problem213set_subphylumEiPNS_20impl_abstract_phylumE
# %bb.0:                                # %entry
	addi.d	$sp, $sp, -32
	st.d	$ra, $sp, 24                    # 8-byte Folded Spill
	st.d	$fp, $sp, 16                    # 8-byte Folded Spill
	st.d	$s0, $sp, 8                     # 8-byte Folded Spill
	ori	$a3, $zero, 1
	move	$fp, $a0
	beq	$a1, $a3, .LBB238_4
# %bb.1:                                # %entry
	bnez	$a1, .LBB238_7
# %bb.2:                                # %sw.bb
	ori	$s0, $zero, 8
	beqz	$a2, .LBB238_5
.LBB238_3:                              # %sw.epilog.sink.split.sink.split
	pcalau12i	$a0, %pc_hi20(_ZTIN2kc20impl_abstract_phylumE)
	addi.d	$a1, $a0, %pc_lo12(_ZTIN2kc20impl_abstract_phylumE)
	pcalau12i	$a0, %got_pc_hi20(_ZTIN2kc20impl_casestring__StrE)
	ld.d	$a3, $a0, %got_pc_lo12(_ZTIN2kc20impl_casestring__StrE)
	move	$a0, $a2
	move	$a2, $a3
	move	$a3, $zero
	pcaddu18i	$ra, %call36(__dynamic_cast)
	jirl	$ra, $ra, 0
	b	.LBB238_6
.LBB238_4:                              # %sw.bb2
	ori	$s0, $zero, 16
	bnez	$a2, .LBB238_3
.LBB238_5:
	move	$a0, $zero
.LBB238_6:                              # %sw.epilog.sink.split
	stx.d	$a0, $fp, $s0
.LBB238_7:                              # %sw.epilog
	ld.d	$s0, $sp, 8                     # 8-byte Folded Reload
	ld.d	$fp, $sp, 16                    # 8-byte Folded Reload
	ld.d	$ra, $sp, 24                    # 8-byte Folded Reload
	addi.d	$sp, $sp, 32
	ret
.Lfunc_end238:
	.size	_ZN2kc21impl_problem_Problem213set_subphylumEiPNS_20impl_abstract_phylumE, .Lfunc_end238-_ZN2kc21impl_problem_Problem213set_subphylumEiPNS_20impl_abstract_phylumE
                                        # -- End function
	.globl	_ZN2kc37impl_problem_Problem1storageoption1ID13set_subphylumEiPNS_20impl_abstract_phylumE # -- Begin function _ZN2kc37impl_problem_Problem1storageoption1ID13set_subphylumEiPNS_20impl_abstract_phylumE
	.p2align	5
	.type	_ZN2kc37impl_problem_Problem1storageoption1ID13set_subphylumEiPNS_20impl_abstract_phylumE,@function
_ZN2kc37impl_problem_Problem1storageoption1ID13set_subphylumEiPNS_20impl_abstract_phylumE: # @_ZN2kc37impl_problem_Problem1storageoption1ID13set_subphylumEiPNS_20impl_abstract_phylumE
# %bb.0:                                # %entry
	ori	$a3, $zero, 3
	bltu	$a3, $a1, .LBB239_12
# %bb.1:                                # %entry
	addi.d	$sp, $sp, -32
	st.d	$ra, $sp, 24                    # 8-byte Folded Spill
	st.d	$fp, $sp, 16                    # 8-byte Folded Spill
	st.d	$s0, $sp, 8                     # 8-byte Folded Spill
	move	$fp, $a0
	slli.d	$a0, $a1, 2
	pcalau12i	$a1, %pc_hi20(.LJTI239_0)
	addi.d	$a1, $a1, %pc_lo12(.LJTI239_0)
	ldx.w	$a0, $a1, $a0
	add.d	$a0, $a1, $a0
	jr	$a0
.LBB239_2:                              # %sw.bb
	ori	$s0, $zero, 8
	bnez	$a2, .LBB239_4
	b	.LBB239_10
.LBB239_3:                              # %sw.bb6
	ori	$s0, $zero, 24
	beqz	$a2, .LBB239_10
.LBB239_4:
	pcalau12i	$a0, %got_pc_hi20(_ZTIN2kc20impl_casestring__StrE)
	ld.d	$a3, $a0, %got_pc_lo12(_ZTIN2kc20impl_casestring__StrE)
	b	.LBB239_9
.LBB239_5:                              # %sw.bb10
	ori	$s0, $zero, 32
	beqz	$a2, .LBB239_10
# %bb.6:
	pcalau12i	$a0, %pc_hi20(_ZTIN2kc7impl_IDE)
	addi.d	$a3, $a0, %pc_lo12(_ZTIN2kc7impl_IDE)
	b	.LBB239_9
.LBB239_7:                              # %sw.bb2
	ori	$s0, $zero, 16
	beqz	$a2, .LBB239_10
# %bb.8:
	pcalau12i	$a0, %pc_hi20(_ZTIN2kc18impl_storageoptionE)
	addi.d	$a3, $a0, %pc_lo12(_ZTIN2kc18impl_storageoptionE)
.LBB239_9:                              # %sw.epilog.sink.split.sink.split
	pcalau12i	$a0, %pc_hi20(_ZTIN2kc20impl_abstract_phylumE)
	addi.d	$a1, $a0, %pc_lo12(_ZTIN2kc20impl_abstract_phylumE)
	move	$a0, $a2
	move	$a2, $a3
	move	$a3, $zero
	pcaddu18i	$ra, %call36(__dynamic_cast)
	jirl	$ra, $ra, 0
	b	.LBB239_11
.LBB239_10:
	move	$a0, $zero
.LBB239_11:                             # %sw.epilog.sink.split
	stx.d	$a0, $fp, $s0
	ld.d	$s0, $sp, 8                     # 8-byte Folded Reload
	ld.d	$fp, $sp, 16                    # 8-byte Folded Reload
	ld.d	$ra, $sp, 24                    # 8-byte Folded Reload
	addi.d	$sp, $sp, 32
.LBB239_12:                             # %sw.epilog
	ret
.Lfunc_end239:
	.size	_ZN2kc37impl_problem_Problem1storageoption1ID13set_subphylumEiPNS_20impl_abstract_phylumE, .Lfunc_end239-_ZN2kc37impl_problem_Problem1storageoption1ID13set_subphylumEiPNS_20impl_abstract_phylumE
	.section	.rodata,"a",@progbits
	.p2align	2, 0x0
.LJTI239_0:
	.word	.LBB239_2-.LJTI239_0
	.word	.LBB239_7-.LJTI239_0
	.word	.LBB239_3-.LJTI239_0
	.word	.LBB239_5-.LJTI239_0
                                        # -- End function
	.text
	.globl	_ZN2kc30impl_problem_Problem1INT1ID1ID13set_subphylumEiPNS_20impl_abstract_phylumE # -- Begin function _ZN2kc30impl_problem_Problem1INT1ID1ID13set_subphylumEiPNS_20impl_abstract_phylumE
	.p2align	5
	.type	_ZN2kc30impl_problem_Problem1INT1ID1ID13set_subphylumEiPNS_20impl_abstract_phylumE,@function
_ZN2kc30impl_problem_Problem1INT1ID1ID13set_subphylumEiPNS_20impl_abstract_phylumE: # @_ZN2kc30impl_problem_Problem1INT1ID1ID13set_subphylumEiPNS_20impl_abstract_phylumE
# %bb.0:                                # %entry
	ori	$a3, $zero, 5
	bltu	$a3, $a1, .LBB240_14
# %bb.1:                                # %entry
	addi.d	$sp, $sp, -32
	st.d	$ra, $sp, 24                    # 8-byte Folded Spill
	st.d	$fp, $sp, 16                    # 8-byte Folded Spill
	st.d	$s0, $sp, 8                     # 8-byte Folded Spill
	move	$fp, $a0
	slli.d	$a0, $a1, 2
	pcalau12i	$a1, %pc_hi20(.LJTI240_0)
	addi.d	$a1, $a1, %pc_lo12(.LJTI240_0)
	ldx.w	$a0, $a1, $a0
	add.d	$a0, $a1, $a0
	jr	$a0
.LBB240_2:                              # %sw.bb
	ori	$s0, $zero, 8
	bnez	$a2, .LBB240_5
	b	.LBB240_12
.LBB240_3:                              # %sw.bb14
	ori	$s0, $zero, 40
	bnez	$a2, .LBB240_5
	b	.LBB240_12
.LBB240_4:                              # %sw.bb6
	ori	$s0, $zero, 24
	beqz	$a2, .LBB240_12
.LBB240_5:
	pcalau12i	$a0, %got_pc_hi20(_ZTIN2kc20impl_casestring__StrE)
	ld.d	$a3, $a0, %got_pc_lo12(_ZTIN2kc20impl_casestring__StrE)
	b	.LBB240_11
.LBB240_6:                              # %sw.bb10
	ori	$s0, $zero, 32
	bnez	$a2, .LBB240_10
	b	.LBB240_12
.LBB240_7:                              # %sw.bb2
	ori	$s0, $zero, 16
	beqz	$a2, .LBB240_12
# %bb.8:
	pcalau12i	$a0, %pc_hi20(_ZTIN2kc8impl_INTE)
	addi.d	$a3, $a0, %pc_lo12(_ZTIN2kc8impl_INTE)
	b	.LBB240_11
.LBB240_9:                              # %sw.bb18
	ori	$s0, $zero, 48
	beqz	$a2, .LBB240_12
.LBB240_10:
	pcalau12i	$a0, %pc_hi20(_ZTIN2kc7impl_IDE)
	addi.d	$a3, $a0, %pc_lo12(_ZTIN2kc7impl_IDE)
.LBB240_11:                             # %sw.epilog.sink.split.sink.split
	pcalau12i	$a0, %pc_hi20(_ZTIN2kc20impl_abstract_phylumE)
	addi.d	$a1, $a0, %pc_lo12(_ZTIN2kc20impl_abstract_phylumE)
	move	$a0, $a2
	move	$a2, $a3
	move	$a3, $zero
	pcaddu18i	$ra, %call36(__dynamic_cast)
	jirl	$ra, $ra, 0
	b	.LBB240_13
.LBB240_12:
	move	$a0, $zero
.LBB240_13:                             # %sw.epilog.sink.split
	stx.d	$a0, $fp, $s0
	ld.d	$s0, $sp, 8                     # 8-byte Folded Reload
	ld.d	$fp, $sp, 16                    # 8-byte Folded Reload
	ld.d	$ra, $sp, 24                    # 8-byte Folded Reload
	addi.d	$sp, $sp, 32
.LBB240_14:                             # %sw.epilog
	ret
.Lfunc_end240:
	.size	_ZN2kc30impl_problem_Problem1INT1ID1ID13set_subphylumEiPNS_20impl_abstract_phylumE, .Lfunc_end240-_ZN2kc30impl_problem_Problem1INT1ID1ID13set_subphylumEiPNS_20impl_abstract_phylumE
	.section	.rodata,"a",@progbits
	.p2align	2, 0x0
.LJTI240_0:
	.word	.LBB240_2-.LJTI240_0
	.word	.LBB240_7-.LJTI240_0
	.word	.LBB240_4-.LJTI240_0
	.word	.LBB240_6-.LJTI240_0
	.word	.LBB240_3-.LJTI240_0
	.word	.LBB240_9-.LJTI240_0
                                        # -- End function
	.text
	.globl	_ZN2kc29impl_problem_Problem1ID1ID1ID13set_subphylumEiPNS_20impl_abstract_phylumE # -- Begin function _ZN2kc29impl_problem_Problem1ID1ID1ID13set_subphylumEiPNS_20impl_abstract_phylumE
	.p2align	5
	.type	_ZN2kc29impl_problem_Problem1ID1ID1ID13set_subphylumEiPNS_20impl_abstract_phylumE,@function
_ZN2kc29impl_problem_Problem1ID1ID1ID13set_subphylumEiPNS_20impl_abstract_phylumE: # @_ZN2kc29impl_problem_Problem1ID1ID1ID13set_subphylumEiPNS_20impl_abstract_phylumE
# %bb.0:                                # %entry
	ori	$a3, $zero, 5
	bltu	$a3, $a1, .LBB241_12
# %bb.1:                                # %entry
	addi.d	$sp, $sp, -32
	st.d	$ra, $sp, 24                    # 8-byte Folded Spill
	st.d	$fp, $sp, 16                    # 8-byte Folded Spill
	st.d	$s0, $sp, 8                     # 8-byte Folded Spill
	move	$fp, $a0
	slli.d	$a0, $a1, 2
	pcalau12i	$a1, %pc_hi20(.LJTI241_0)
	addi.d	$a1, $a1, %pc_lo12(.LJTI241_0)
	ldx.w	$a0, $a1, $a0
	add.d	$a0, $a1, $a0
	jr	$a0
.LBB241_2:                              # %sw.bb
	ori	$s0, $zero, 8
	bnez	$a2, .LBB241_5
	b	.LBB241_10
.LBB241_3:                              # %sw.bb14
	ori	$s0, $zero, 40
	bnez	$a2, .LBB241_5
	b	.LBB241_10
.LBB241_4:                              # %sw.bb6
	ori	$s0, $zero, 24
	beqz	$a2, .LBB241_10
.LBB241_5:
	pcalau12i	$a0, %got_pc_hi20(_ZTIN2kc20impl_casestring__StrE)
	ld.d	$a3, $a0, %got_pc_lo12(_ZTIN2kc20impl_casestring__StrE)
	b	.LBB241_8
.LBB241_6:                              # %sw.bb10
	ori	$s0, $zero, 32
	beqz	$a2, .LBB241_10
.LBB241_7:
	pcalau12i	$a0, %pc_hi20(_ZTIN2kc7impl_IDE)
	addi.d	$a3, $a0, %pc_lo12(_ZTIN2kc7impl_IDE)
.LBB241_8:                              # %sw.epilog.sink.split.sink.split
	pcalau12i	$a0, %pc_hi20(_ZTIN2kc20impl_abstract_phylumE)
	addi.d	$a1, $a0, %pc_lo12(_ZTIN2kc20impl_abstract_phylumE)
	move	$a0, $a2
	move	$a2, $a3
	move	$a3, $zero
	pcaddu18i	$ra, %call36(__dynamic_cast)
	jirl	$ra, $ra, 0
	b	.LBB241_11
.LBB241_9:                              # %sw.bb2
	ori	$s0, $zero, 16
	bnez	$a2, .LBB241_7
.LBB241_10:
	move	$a0, $zero
.LBB241_11:                             # %sw.epilog.sink.split
	stx.d	$a0, $fp, $s0
	ld.d	$s0, $sp, 8                     # 8-byte Folded Reload
	ld.d	$fp, $sp, 16                    # 8-byte Folded Reload
	ld.d	$ra, $sp, 24                    # 8-byte Folded Reload
	addi.d	$sp, $sp, 32
.LBB241_12:                             # %sw.epilog
	ret
.LBB241_13:                             # %sw.bb18
	ori	$s0, $zero, 48
	bnez	$a2, .LBB241_7
	b	.LBB241_10
.Lfunc_end241:
	.size	_ZN2kc29impl_problem_Problem1ID1ID1ID13set_subphylumEiPNS_20impl_abstract_phylumE, .Lfunc_end241-_ZN2kc29impl_problem_Problem1ID1ID1ID13set_subphylumEiPNS_20impl_abstract_phylumE
	.section	.rodata,"a",@progbits
	.p2align	2, 0x0
.LJTI241_0:
	.word	.LBB241_2-.LJTI241_0
	.word	.LBB241_9-.LJTI241_0
	.word	.LBB241_4-.LJTI241_0
	.word	.LBB241_6-.LJTI241_0
	.word	.LBB241_3-.LJTI241_0
	.word	.LBB241_13-.LJTI241_0
                                        # -- End function
	.text
	.globl	_ZN2kc27impl_problem_Problem1INT1ID13set_subphylumEiPNS_20impl_abstract_phylumE # -- Begin function _ZN2kc27impl_problem_Problem1INT1ID13set_subphylumEiPNS_20impl_abstract_phylumE
	.p2align	5
	.type	_ZN2kc27impl_problem_Problem1INT1ID13set_subphylumEiPNS_20impl_abstract_phylumE,@function
_ZN2kc27impl_problem_Problem1INT1ID13set_subphylumEiPNS_20impl_abstract_phylumE: # @_ZN2kc27impl_problem_Problem1INT1ID13set_subphylumEiPNS_20impl_abstract_phylumE
# %bb.0:                                # %entry
	ori	$a3, $zero, 3
	bltu	$a3, $a1, .LBB242_12
# %bb.1:                                # %entry
	addi.d	$sp, $sp, -32
	st.d	$ra, $sp, 24                    # 8-byte Folded Spill
	st.d	$fp, $sp, 16                    # 8-byte Folded Spill
	st.d	$s0, $sp, 8                     # 8-byte Folded Spill
	move	$fp, $a0
	slli.d	$a0, $a1, 2
	pcalau12i	$a1, %pc_hi20(.LJTI242_0)
	addi.d	$a1, $a1, %pc_lo12(.LJTI242_0)
	ldx.w	$a0, $a1, $a0
	add.d	$a0, $a1, $a0
	jr	$a0
.LBB242_2:                              # %sw.bb
	ori	$s0, $zero, 8
	bnez	$a2, .LBB242_4
	b	.LBB242_10
.LBB242_3:                              # %sw.bb6
	ori	$s0, $zero, 24
	beqz	$a2, .LBB242_10
.LBB242_4:
	pcalau12i	$a0, %got_pc_hi20(_ZTIN2kc20impl_casestring__StrE)
	ld.d	$a3, $a0, %got_pc_lo12(_ZTIN2kc20impl_casestring__StrE)
	b	.LBB242_9
.LBB242_5:                              # %sw.bb10
	ori	$s0, $zero, 32
	beqz	$a2, .LBB242_10
# %bb.6:
	pcalau12i	$a0, %pc_hi20(_ZTIN2kc7impl_IDE)
	addi.d	$a3, $a0, %pc_lo12(_ZTIN2kc7impl_IDE)
	b	.LBB242_9
.LBB242_7:                              # %sw.bb2
	ori	$s0, $zero, 16
	beqz	$a2, .LBB242_10
# %bb.8:
	pcalau12i	$a0, %pc_hi20(_ZTIN2kc8impl_INTE)
	addi.d	$a3, $a0, %pc_lo12(_ZTIN2kc8impl_INTE)
.LBB242_9:                              # %sw.epilog.sink.split.sink.split
	pcalau12i	$a0, %pc_hi20(_ZTIN2kc20impl_abstract_phylumE)
	addi.d	$a1, $a0, %pc_lo12(_ZTIN2kc20impl_abstract_phylumE)
	move	$a0, $a2
	move	$a2, $a3
	move	$a3, $zero
	pcaddu18i	$ra, %call36(__dynamic_cast)
	jirl	$ra, $ra, 0
	b	.LBB242_11
.LBB242_10:
	move	$a0, $zero
.LBB242_11:                             # %sw.epilog.sink.split
	stx.d	$a0, $fp, $s0
	ld.d	$s0, $sp, 8                     # 8-byte Folded Reload
	ld.d	$fp, $sp, 16                    # 8-byte Folded Reload
	ld.d	$ra, $sp, 24                    # 8-byte Folded Reload
	addi.d	$sp, $sp, 32
.LBB242_12:                             # %sw.epilog
	ret
.Lfunc_end242:
	.size	_ZN2kc27impl_problem_Problem1INT1ID13set_subphylumEiPNS_20impl_abstract_phylumE, .Lfunc_end242-_ZN2kc27impl_problem_Problem1INT1ID13set_subphylumEiPNS_20impl_abstract_phylumE
	.section	.rodata,"a",@progbits
	.p2align	2, 0x0
.LJTI242_0:
	.word	.LBB242_2-.LJTI242_0
	.word	.LBB242_7-.LJTI242_0
	.word	.LBB242_3-.LJTI242_0
	.word	.LBB242_5-.LJTI242_0
                                        # -- End function
	.text
	.globl	_ZN2kc25impl_problem_Problem1int113set_subphylumEiPNS_20impl_abstract_phylumE # -- Begin function _ZN2kc25impl_problem_Problem1int113set_subphylumEiPNS_20impl_abstract_phylumE
	.p2align	5
	.type	_ZN2kc25impl_problem_Problem1int113set_subphylumEiPNS_20impl_abstract_phylumE,@function
_ZN2kc25impl_problem_Problem1int113set_subphylumEiPNS_20impl_abstract_phylumE: # @_ZN2kc25impl_problem_Problem1int113set_subphylumEiPNS_20impl_abstract_phylumE
# %bb.0:                                # %entry
	addi.d	$sp, $sp, -32
	st.d	$ra, $sp, 24                    # 8-byte Folded Spill
	st.d	$fp, $sp, 16                    # 8-byte Folded Spill
	st.d	$s0, $sp, 8                     # 8-byte Folded Spill
	ori	$a3, $zero, 2
	move	$fp, $a0
	beq	$a1, $a3, .LBB243_6
# %bb.1:                                # %entry
	ori	$a0, $zero, 1
	beq	$a1, $a0, .LBB243_4
# %bb.2:                                # %entry
	bnez	$a1, .LBB243_11
# %bb.3:                                # %sw.bb
	ori	$s0, $zero, 8
	bnez	$a2, .LBB243_7
	b	.LBB243_9
.LBB243_4:                              # %sw.bb2
	ori	$s0, $zero, 16
	beqz	$a2, .LBB243_9
# %bb.5:
	pcalau12i	$a0, %got_pc_hi20(_ZTIN2kc17impl_integer__IntE)
	ld.d	$a3, $a0, %got_pc_lo12(_ZTIN2kc17impl_integer__IntE)
	b	.LBB243_8
.LBB243_6:                              # %sw.bb6
	ori	$s0, $zero, 24
	beqz	$a2, .LBB243_9
.LBB243_7:
	pcalau12i	$a0, %got_pc_hi20(_ZTIN2kc20impl_casestring__StrE)
	ld.d	$a3, $a0, %got_pc_lo12(_ZTIN2kc20impl_casestring__StrE)
.LBB243_8:                              # %sw.epilog.sink.split.sink.split
	pcalau12i	$a0, %pc_hi20(_ZTIN2kc20impl_abstract_phylumE)
	addi.d	$a1, $a0, %pc_lo12(_ZTIN2kc20impl_abstract_phylumE)
	move	$a0, $a2
	move	$a2, $a3
	move	$a3, $zero
	pcaddu18i	$ra, %call36(__dynamic_cast)
	jirl	$ra, $ra, 0
	b	.LBB243_10
.LBB243_9:
	move	$a0, $zero
.LBB243_10:                             # %sw.epilog.sink.split
	stx.d	$a0, $fp, $s0
.LBB243_11:                             # %sw.epilog
	ld.d	$s0, $sp, 8                     # 8-byte Folded Reload
	ld.d	$fp, $sp, 16                    # 8-byte Folded Reload
	ld.d	$ra, $sp, 24                    # 8-byte Folded Reload
	addi.d	$sp, $sp, 32
	ret
.Lfunc_end243:
	.size	_ZN2kc25impl_problem_Problem1int113set_subphylumEiPNS_20impl_abstract_phylumE, .Lfunc_end243-_ZN2kc25impl_problem_Problem1int113set_subphylumEiPNS_20impl_abstract_phylumE
                                        # -- End function
	.globl	_ZN2kc24impl_problem_Problem1INT13set_subphylumEiPNS_20impl_abstract_phylumE # -- Begin function _ZN2kc24impl_problem_Problem1INT13set_subphylumEiPNS_20impl_abstract_phylumE
	.p2align	5
	.type	_ZN2kc24impl_problem_Problem1INT13set_subphylumEiPNS_20impl_abstract_phylumE,@function
_ZN2kc24impl_problem_Problem1INT13set_subphylumEiPNS_20impl_abstract_phylumE: # @_ZN2kc24impl_problem_Problem1INT13set_subphylumEiPNS_20impl_abstract_phylumE
# %bb.0:                                # %entry
	addi.d	$sp, $sp, -32
	st.d	$ra, $sp, 24                    # 8-byte Folded Spill
	st.d	$fp, $sp, 16                    # 8-byte Folded Spill
	st.d	$s0, $sp, 8                     # 8-byte Folded Spill
	ori	$a3, $zero, 1
	move	$fp, $a0
	beq	$a1, $a3, .LBB244_4
# %bb.1:                                # %entry
	bnez	$a1, .LBB244_9
# %bb.2:                                # %sw.bb
	ori	$s0, $zero, 8
	beqz	$a2, .LBB244_7
# %bb.3:
	pcalau12i	$a0, %got_pc_hi20(_ZTIN2kc20impl_casestring__StrE)
	ld.d	$a3, $a0, %got_pc_lo12(_ZTIN2kc20impl_casestring__StrE)
	b	.LBB244_6
.LBB244_4:                              # %sw.bb2
	ori	$s0, $zero, 16
	beqz	$a2, .LBB244_7
# %bb.5:
	pcalau12i	$a0, %pc_hi20(_ZTIN2kc8impl_INTE)
	addi.d	$a3, $a0, %pc_lo12(_ZTIN2kc8impl_INTE)
.LBB244_6:                              # %sw.epilog.sink.split.sink.split
	pcalau12i	$a0, %pc_hi20(_ZTIN2kc20impl_abstract_phylumE)
	addi.d	$a1, $a0, %pc_lo12(_ZTIN2kc20impl_abstract_phylumE)
	move	$a0, $a2
	move	$a2, $a3
	move	$a3, $zero
	pcaddu18i	$ra, %call36(__dynamic_cast)
	jirl	$ra, $ra, 0
	b	.LBB244_8
.LBB244_7:
	move	$a0, $zero
.LBB244_8:                              # %sw.epilog.sink.split
	stx.d	$a0, $fp, $s0
.LBB244_9:                              # %sw.epilog
	ld.d	$s0, $sp, 8                     # 8-byte Folded Reload
	ld.d	$fp, $sp, 16                    # 8-byte Folded Reload
	ld.d	$ra, $sp, 24                    # 8-byte Folded Reload
	addi.d	$sp, $sp, 32
	ret
.Lfunc_end244:
	.size	_ZN2kc24impl_problem_Problem1INT13set_subphylumEiPNS_20impl_abstract_phylumE, .Lfunc_end244-_ZN2kc24impl_problem_Problem1INT13set_subphylumEiPNS_20impl_abstract_phylumE
                                        # -- End function
	.globl	_ZN2kc25impl_problem_Problem1t1ID13set_subphylumEiPNS_20impl_abstract_phylumE # -- Begin function _ZN2kc25impl_problem_Problem1t1ID13set_subphylumEiPNS_20impl_abstract_phylumE
	.p2align	5
	.type	_ZN2kc25impl_problem_Problem1t1ID13set_subphylumEiPNS_20impl_abstract_phylumE,@function
_ZN2kc25impl_problem_Problem1t1ID13set_subphylumEiPNS_20impl_abstract_phylumE: # @_ZN2kc25impl_problem_Problem1t1ID13set_subphylumEiPNS_20impl_abstract_phylumE
# %bb.0:                                # %entry
	ori	$a3, $zero, 3
	bltu	$a3, $a1, .LBB245_12
# %bb.1:                                # %entry
	addi.d	$sp, $sp, -32
	st.d	$ra, $sp, 24                    # 8-byte Folded Spill
	st.d	$fp, $sp, 16                    # 8-byte Folded Spill
	st.d	$s0, $sp, 8                     # 8-byte Folded Spill
	move	$fp, $a0
	slli.d	$a0, $a1, 2
	pcalau12i	$a1, %pc_hi20(.LJTI245_0)
	addi.d	$a1, $a1, %pc_lo12(.LJTI245_0)
	ldx.w	$a0, $a1, $a0
	add.d	$a0, $a1, $a0
	jr	$a0
.LBB245_2:                              # %sw.bb
	ori	$s0, $zero, 8
	bnez	$a2, .LBB245_4
	b	.LBB245_10
.LBB245_3:                              # %sw.bb6
	ori	$s0, $zero, 24
	beqz	$a2, .LBB245_10
.LBB245_4:
	pcalau12i	$a0, %got_pc_hi20(_ZTIN2kc20impl_casestring__StrE)
	ld.d	$a3, $a0, %got_pc_lo12(_ZTIN2kc20impl_casestring__StrE)
	b	.LBB245_9
.LBB245_5:                              # %sw.bb10
	ori	$s0, $zero, 32
	beqz	$a2, .LBB245_10
# %bb.6:
	pcalau12i	$a0, %pc_hi20(_ZTIN2kc7impl_IDE)
	addi.d	$a3, $a0, %pc_lo12(_ZTIN2kc7impl_IDE)
	b	.LBB245_9
.LBB245_7:                              # %sw.bb2
	ori	$s0, $zero, 16
	beqz	$a2, .LBB245_10
# %bb.8:
	pcalau12i	$a0, %pc_hi20(_ZTIN2kc11impl_IDtypeE)
	addi.d	$a3, $a0, %pc_lo12(_ZTIN2kc11impl_IDtypeE)
.LBB245_9:                              # %sw.epilog.sink.split.sink.split
	pcalau12i	$a0, %pc_hi20(_ZTIN2kc20impl_abstract_phylumE)
	addi.d	$a1, $a0, %pc_lo12(_ZTIN2kc20impl_abstract_phylumE)
	move	$a0, $a2
	move	$a2, $a3
	move	$a3, $zero
	pcaddu18i	$ra, %call36(__dynamic_cast)
	jirl	$ra, $ra, 0
	b	.LBB245_11
.LBB245_10:
	move	$a0, $zero
.LBB245_11:                             # %sw.epilog.sink.split
	stx.d	$a0, $fp, $s0
	ld.d	$s0, $sp, 8                     # 8-byte Folded Reload
	ld.d	$fp, $sp, 16                    # 8-byte Folded Reload
	ld.d	$ra, $sp, 24                    # 8-byte Folded Reload
	addi.d	$sp, $sp, 32
.LBB245_12:                             # %sw.epilog
	ret
.Lfunc_end245:
	.size	_ZN2kc25impl_problem_Problem1t1ID13set_subphylumEiPNS_20impl_abstract_phylumE, .Lfunc_end245-_ZN2kc25impl_problem_Problem1t1ID13set_subphylumEiPNS_20impl_abstract_phylumE
	.section	.rodata,"a",@progbits
	.p2align	2, 0x0
.LJTI245_0:
	.word	.LBB245_2-.LJTI245_0
	.word	.LBB245_7-.LJTI245_0
	.word	.LBB245_3-.LJTI245_0
	.word	.LBB245_5-.LJTI245_0
                                        # -- End function
	.text
	.globl	_ZN2kc26impl_problem_Problem1ID1ID13set_subphylumEiPNS_20impl_abstract_phylumE # -- Begin function _ZN2kc26impl_problem_Problem1ID1ID13set_subphylumEiPNS_20impl_abstract_phylumE
	.p2align	5
	.type	_ZN2kc26impl_problem_Problem1ID1ID13set_subphylumEiPNS_20impl_abstract_phylumE,@function
_ZN2kc26impl_problem_Problem1ID1ID13set_subphylumEiPNS_20impl_abstract_phylumE: # @_ZN2kc26impl_problem_Problem1ID1ID13set_subphylumEiPNS_20impl_abstract_phylumE
# %bb.0:                                # %entry
	ori	$a3, $zero, 3
	bltu	$a3, $a1, .LBB246_11
# %bb.1:                                # %entry
	addi.d	$sp, $sp, -32
	st.d	$ra, $sp, 24                    # 8-byte Folded Spill
	st.d	$fp, $sp, 16                    # 8-byte Folded Spill
	st.d	$s0, $sp, 8                     # 8-byte Folded Spill
	move	$fp, $a0
	slli.d	$a0, $a1, 2
	pcalau12i	$a1, %pc_hi20(.LJTI246_0)
	addi.d	$a1, $a1, %pc_lo12(.LJTI246_0)
	ldx.w	$a0, $a1, $a0
	add.d	$a0, $a1, $a0
	jr	$a0
.LBB246_2:                              # %sw.bb
	ori	$s0, $zero, 8
	bnez	$a2, .LBB246_4
	b	.LBB246_9
.LBB246_3:                              # %sw.bb6
	ori	$s0, $zero, 24
	beqz	$a2, .LBB246_9
.LBB246_4:
	pcalau12i	$a0, %got_pc_hi20(_ZTIN2kc20impl_casestring__StrE)
	ld.d	$a3, $a0, %got_pc_lo12(_ZTIN2kc20impl_casestring__StrE)
	b	.LBB246_7
.LBB246_5:                              # %sw.bb10
	ori	$s0, $zero, 32
	beqz	$a2, .LBB246_9
.LBB246_6:
	pcalau12i	$a0, %pc_hi20(_ZTIN2kc7impl_IDE)
	addi.d	$a3, $a0, %pc_lo12(_ZTIN2kc7impl_IDE)
.LBB246_7:                              # %sw.epilog.sink.split.sink.split
	pcalau12i	$a0, %pc_hi20(_ZTIN2kc20impl_abstract_phylumE)
	addi.d	$a1, $a0, %pc_lo12(_ZTIN2kc20impl_abstract_phylumE)
	move	$a0, $a2
	move	$a2, $a3
	move	$a3, $zero
	pcaddu18i	$ra, %call36(__dynamic_cast)
	jirl	$ra, $ra, 0
	b	.LBB246_10
.LBB246_8:                              # %sw.bb2
	ori	$s0, $zero, 16
	bnez	$a2, .LBB246_6
.LBB246_9:
	move	$a0, $zero
.LBB246_10:                             # %sw.epilog.sink.split
	stx.d	$a0, $fp, $s0
	ld.d	$s0, $sp, 8                     # 8-byte Folded Reload
	ld.d	$fp, $sp, 16                    # 8-byte Folded Reload
	ld.d	$ra, $sp, 24                    # 8-byte Folded Reload
	addi.d	$sp, $sp, 32
.LBB246_11:                             # %sw.epilog
	ret
.Lfunc_end246:
	.size	_ZN2kc26impl_problem_Problem1ID1ID13set_subphylumEiPNS_20impl_abstract_phylumE, .Lfunc_end246-_ZN2kc26impl_problem_Problem1ID1ID13set_subphylumEiPNS_20impl_abstract_phylumE
	.section	.rodata,"a",@progbits
	.p2align	2, 0x0
.LJTI246_0:
	.word	.LBB246_2-.LJTI246_0
	.word	.LBB246_8-.LJTI246_0
	.word	.LBB246_3-.LJTI246_0
	.word	.LBB246_5-.LJTI246_0
                                        # -- End function
	.text
	.globl	_ZN2kc23impl_problem_Problem1we13set_subphylumEiPNS_20impl_abstract_phylumE # -- Begin function _ZN2kc23impl_problem_Problem1we13set_subphylumEiPNS_20impl_abstract_phylumE
	.p2align	5
	.type	_ZN2kc23impl_problem_Problem1we13set_subphylumEiPNS_20impl_abstract_phylumE,@function
_ZN2kc23impl_problem_Problem1we13set_subphylumEiPNS_20impl_abstract_phylumE: # @_ZN2kc23impl_problem_Problem1we13set_subphylumEiPNS_20impl_abstract_phylumE
# %bb.0:                                # %entry
	addi.d	$sp, $sp, -32
	st.d	$ra, $sp, 24                    # 8-byte Folded Spill
	st.d	$fp, $sp, 16                    # 8-byte Folded Spill
	st.d	$s0, $sp, 8                     # 8-byte Folded Spill
	ori	$a3, $zero, 1
	move	$fp, $a0
	beq	$a1, $a3, .LBB247_4
# %bb.1:                                # %entry
	bnez	$a1, .LBB247_9
# %bb.2:                                # %sw.bb
	ori	$s0, $zero, 8
	beqz	$a2, .LBB247_7
# %bb.3:
	pcalau12i	$a0, %got_pc_hi20(_ZTIN2kc20impl_casestring__StrE)
	ld.d	$a3, $a0, %got_pc_lo12(_ZTIN2kc20impl_casestring__StrE)
	b	.LBB247_6
.LBB247_4:                              # %sw.bb2
	ori	$s0, $zero, 16
	beqz	$a2, .LBB247_7
# %bb.5:
	pcalau12i	$a0, %pc_hi20(_ZTIN2kc19impl_withexpressionE)
	addi.d	$a3, $a0, %pc_lo12(_ZTIN2kc19impl_withexpressionE)
.LBB247_6:                              # %sw.epilog.sink.split.sink.split
	pcalau12i	$a0, %pc_hi20(_ZTIN2kc20impl_abstract_phylumE)
	addi.d	$a1, $a0, %pc_lo12(_ZTIN2kc20impl_abstract_phylumE)
	move	$a0, $a2
	move	$a2, $a3
	move	$a3, $zero
	pcaddu18i	$ra, %call36(__dynamic_cast)
	jirl	$ra, $ra, 0
	b	.LBB247_8
.LBB247_7:
	move	$a0, $zero
.LBB247_8:                              # %sw.epilog.sink.split
	stx.d	$a0, $fp, $s0
.LBB247_9:                              # %sw.epilog
	ld.d	$s0, $sp, 8                     # 8-byte Folded Reload
	ld.d	$fp, $sp, 16                    # 8-byte Folded Reload
	ld.d	$ra, $sp, 24                    # 8-byte Folded Reload
	addi.d	$sp, $sp, 32
	ret
.Lfunc_end247:
	.size	_ZN2kc23impl_problem_Problem1we13set_subphylumEiPNS_20impl_abstract_phylumE, .Lfunc_end247-_ZN2kc23impl_problem_Problem1we13set_subphylumEiPNS_20impl_abstract_phylumE
                                        # -- End function
	.globl	_ZN2kc24impl_problem_Problem1tID13set_subphylumEiPNS_20impl_abstract_phylumE # -- Begin function _ZN2kc24impl_problem_Problem1tID13set_subphylumEiPNS_20impl_abstract_phylumE
	.p2align	5
	.type	_ZN2kc24impl_problem_Problem1tID13set_subphylumEiPNS_20impl_abstract_phylumE,@function
_ZN2kc24impl_problem_Problem1tID13set_subphylumEiPNS_20impl_abstract_phylumE: # @_ZN2kc24impl_problem_Problem1tID13set_subphylumEiPNS_20impl_abstract_phylumE
# %bb.0:                                # %entry
	addi.d	$sp, $sp, -32
	st.d	$ra, $sp, 24                    # 8-byte Folded Spill
	st.d	$fp, $sp, 16                    # 8-byte Folded Spill
	st.d	$s0, $sp, 8                     # 8-byte Folded Spill
	ori	$a3, $zero, 1
	move	$fp, $a0
	beq	$a1, $a3, .LBB248_4
# %bb.1:                                # %entry
	bnez	$a1, .LBB248_9
# %bb.2:                                # %sw.bb
	ori	$s0, $zero, 8
	beqz	$a2, .LBB248_7
# %bb.3:
	pcalau12i	$a0, %got_pc_hi20(_ZTIN2kc20impl_casestring__StrE)
	ld.d	$a3, $a0, %got_pc_lo12(_ZTIN2kc20impl_casestring__StrE)
	b	.LBB248_6
.LBB248_4:                              # %sw.bb2
	ori	$s0, $zero, 16
	beqz	$a2, .LBB248_7
# %bb.5:
	pcalau12i	$a0, %pc_hi20(_ZTIN2kc7impl_IDE)
	addi.d	$a3, $a0, %pc_lo12(_ZTIN2kc7impl_IDE)
.LBB248_6:                              # %sw.epilog.sink.split.sink.split
	pcalau12i	$a0, %pc_hi20(_ZTIN2kc20impl_abstract_phylumE)
	addi.d	$a1, $a0, %pc_lo12(_ZTIN2kc20impl_abstract_phylumE)
	move	$a0, $a2
	move	$a2, $a3
	move	$a3, $zero
	pcaddu18i	$ra, %call36(__dynamic_cast)
	jirl	$ra, $ra, 0
	b	.LBB248_8
.LBB248_7:
	move	$a0, $zero
.LBB248_8:                              # %sw.epilog.sink.split
	stx.d	$a0, $fp, $s0
.LBB248_9:                              # %sw.epilog
	ld.d	$s0, $sp, 8                     # 8-byte Folded Reload
	ld.d	$fp, $sp, 16                    # 8-byte Folded Reload
	ld.d	$ra, $sp, 24                    # 8-byte Folded Reload
	addi.d	$sp, $sp, 32
	ret
.Lfunc_end248:
	.size	_ZN2kc24impl_problem_Problem1tID13set_subphylumEiPNS_20impl_abstract_phylumE, .Lfunc_end248-_ZN2kc24impl_problem_Problem1tID13set_subphylumEiPNS_20impl_abstract_phylumE
                                        # -- End function
	.globl	_ZN2kc23impl_problem_Problem1ID13set_subphylumEiPNS_20impl_abstract_phylumE # -- Begin function _ZN2kc23impl_problem_Problem1ID13set_subphylumEiPNS_20impl_abstract_phylumE
	.p2align	5
	.type	_ZN2kc23impl_problem_Problem1ID13set_subphylumEiPNS_20impl_abstract_phylumE,@function
_ZN2kc23impl_problem_Problem1ID13set_subphylumEiPNS_20impl_abstract_phylumE: # @_ZN2kc23impl_problem_Problem1ID13set_subphylumEiPNS_20impl_abstract_phylumE
# %bb.0:                                # %entry
	addi.d	$sp, $sp, -32
