	.file	"main.cc"
                                        # Start of file scope inline assembly
	.globl	_ZSt21ios_base_library_initv

                                        # End of file scope inline assembly
	.section	.text._ZN15cmdline_optionsD2Ev,"axG",@progbits,_ZN15cmdline_optionsD2Ev,comdat
	.weak	_ZN15cmdline_optionsD2Ev        # -- Begin function _ZN15cmdline_optionsD2Ev
	.p2align	2
	.type	_ZN15cmdline_optionsD2Ev,@function
_ZN15cmdline_optionsD2Ev:               # @_ZN15cmdline_optionsD2Ev
	.cfi_startproc
# %bb.0:                                # %entry
	addi.d	$sp, $sp, -16
	.cfi_def_cfa_offset 16
	st.d	$ra, $sp, 8                     # 8-byte Folded Spill
	st.d	$fp, $sp, 0                     # 8-byte Folded Spill
	.cfi_offset 1, -8
	.cfi_offset 22, -16
	move	$fp, $a0
	ld.d	$a0, $a0, 312
	addi.d	$a1, $fp, 328
	beq	$a0, $a1, .LBB0_2
# %bb.1:                                # %if.then.i.i
	ld.d	$a1, $a1, 0
	addi.d	$a1, $a1, 1
	pcaddu18i	$ra, %call36(_ZdlPvm)
	jirl	$ra, $ra, 0
.LBB0_2:                                # %_ZNSt7__cxx1112basic_stringIcSt11char_traitsIcESaIcEED2Ev.exit
	ld.d	$a0, $fp, 280
	addi.d	$a1, $fp, 296
	beq	$a0, $a1, .LBB0_4
# %bb.3:                                # %if.then.i.i2
	ld.d	$a1, $a1, 0
	addi.d	$a1, $a1, 1
	pcaddu18i	$ra, %call36(_ZdlPvm)
	jirl	$ra, $ra, 0
.LBB0_4:                                # %_ZNSt7__cxx1112basic_stringIcSt11char_traitsIcESaIcEED2Ev.exit7
	ld.d	$a0, $fp, 248
	addi.d	$a1, $fp, 264
	beq	$a0, $a1, .LBB0_6
# %bb.5:                                # %if.then.i.i9
	ld.d	$a1, $a1, 0
	addi.d	$a1, $a1, 1
	pcaddu18i	$ra, %call36(_ZdlPvm)
	jirl	$ra, $ra, 0
.LBB0_6:                                # %_ZNSt7__cxx1112basic_stringIcSt11char_traitsIcESaIcEED2Ev.exit14
	ld.d	$a0, $fp, 216
	addi.d	$a1, $fp, 232
	beq	$a0, $a1, .LBB0_8
# %bb.7:                                # %if.then.i.i16
	ld.d	$a1, $a1, 0
	addi.d	$a1, $a1, 1
	pcaddu18i	$ra, %call36(_ZdlPvm)
	jirl	$ra, $ra, 0
.LBB0_8:                                # %_ZNSt7__cxx1112basic_stringIcSt11char_traitsIcESaIcEED2Ev.exit21
	ld.d	$a0, $fp, 184
	addi.d	$a1, $fp, 200
	beq	$a0, $a1, .LBB0_10
# %bb.9:                                # %if.then.i.i23
	ld.d	$a1, $a1, 0
	addi.d	$a1, $a1, 1
	pcaddu18i	$ra, %call36(_ZdlPvm)
	jirl	$ra, $ra, 0
.LBB0_10:                               # %_ZNSt7__cxx1112basic_stringIcSt11char_traitsIcESaIcEED2Ev.exit28
	ld.d	$a0, $fp, 152
	addi.d	$a1, $fp, 168
	beq	$a0, $a1, .LBB0_12
# %bb.11:                               # %if.then.i.i30
	ld.d	$a1, $a1, 0
	addi.d	$a1, $a1, 1
	pcaddu18i	$ra, %call36(_ZdlPvm)
	jirl	$ra, $ra, 0
.LBB0_12:                               # %_ZNSt7__cxx1112basic_stringIcSt11char_traitsIcESaIcEED2Ev.exit35
	ld.d	$a0, $fp, 120
	addi.d	$a1, $fp, 136
	beq	$a0, $a1, .LBB0_14
# %bb.13:                               # %if.then.i.i37
	ld.d	$a1, $a1, 0
	addi.d	$a1, $a1, 1
	pcaddu18i	$ra, %call36(_ZdlPvm)
	jirl	$ra, $ra, 0
.LBB0_14:                               # %_ZNSt7__cxx1112basic_stringIcSt11char_traitsIcESaIcEED2Ev.exit42
	ld.d	$a0, $fp, 80
	addi.d	$a1, $fp, 96
	beq	$a0, $a1, .LBB0_16
# %bb.15:                               # %if.then.i.i44
	ld.d	$a1, $a1, 0
	addi.d	$a1, $a1, 1
	pcaddu18i	$ra, %call36(_ZdlPvm)
	jirl	$ra, $ra, 0
.LBB0_16:                               # %_ZNSt7__cxx1112basic_stringIcSt11char_traitsIcESaIcEED2Ev.exit49
	ld.d	$a0, $fp, 32
	addi.d	$a1, $fp, 48
	beq	$a0, $a1, .LBB0_18
# %bb.17:                               # %if.then.i.i51
	ld.d	$a1, $a1, 0
	addi.d	$a1, $a1, 1
	pcaddu18i	$ra, %call36(_ZdlPvm)
	jirl	$ra, $ra, 0
.LBB0_18:                               # %_ZNSt7__cxx1112basic_stringIcSt11char_traitsIcESaIcEED2Ev.exit56
	ld.d	$a0, $fp, 0
	addi.d	$a1, $fp, 16
	beq	$a0, $a1, .LBB0_20
# %bb.19:                               # %if.then.i.i58
	ld.d	$a1, $a1, 0
	addi.d	$a1, $a1, 1
	ld.d	$fp, $sp, 0                     # 8-byte Folded Reload
	ld.d	$ra, $sp, 8                     # 8-byte Folded Reload
	addi.d	$sp, $sp, 16
	pcaddu18i	$t8, %call36(_ZdlPvm)
	jr	$t8
.LBB0_20:                               # %_ZNSt7__cxx1112basic_stringIcSt11char_traitsIcESaIcEED2Ev.exit63
	ld.d	$fp, $sp, 0                     # 8-byte Folded Reload
	ld.d	$ra, $sp, 8                     # 8-byte Folded Reload
	addi.d	$sp, $sp, 16
	ret
.Lfunc_end0:
	.size	_ZN15cmdline_optionsD2Ev, .Lfunc_end0-_ZN15cmdline_optionsD2Ev
	.cfi_endproc
                                        # -- End function
	.section	.text.unlikely.,"ax",@progbits
	.globl	cleanup_and_die                 # -- Begin function cleanup_and_die
	.p2align	5
	.type	cleanup_and_die,@function
cleanup_and_die:                        # @cleanup_and_die
	.cfi_startproc
# %bb.0:                                # %entry
	addi.d	$sp, $sp, -16
	.cfi_def_cfa_offset 16
	st.d	$ra, $sp, 8                     # 8-byte Folded Spill
	.cfi_offset 1, -8
	pcalau12i	$a1, %got_pc_hi20(stderr)
	ld.d	$a1, $a1, %got_pc_lo12(stderr)
	pcalau12i	$a2, %pc_hi20(g_progname)
	ld.d	$a2, $a2, %pc_lo12(g_progname)
	ld.d	$a4, $a1, 0
	ld.d	$a2, $a2, 8
	move	$a3, $a0
	pcalau12i	$a0, %pc_hi20(.L.str.1)
	addi.d	$a1, $a0, %pc_lo12(.L.str.1)
	move	$a0, $a4
	pcaddu18i	$ra, %call36(fprintf)
	jirl	$ra, $ra, 0
	ori	$a0, $zero, 1
	pcaddu18i	$ra, %call36(_ZN2kc5leaveEi)
	jirl	$ra, $ra, 0
.Lfunc_end1:
	.size	cleanup_and_die, .Lfunc_end1-cleanup_and_die
	.cfi_endproc
                                        # -- End function
	.text
	.globl	_ZN2kc5leaveEi                  # -- Begin function _ZN2kc5leaveEi
	.p2align	5
	.type	_ZN2kc5leaveEi,@function
_ZN2kc5leaveEi:                         # @_ZN2kc5leaveEi
	.cfi_startproc
# %bb.0:                                # %entry
	addi.d	$sp, $sp, -32
	.cfi_def_cfa_offset 32
	st.d	$ra, $sp, 24                    # 8-byte Folded Spill
	st.d	$fp, $sp, 16                    # 8-byte Folded Spill
	st.d	$s0, $sp, 8                     # 8-byte Folded Spill
	st.d	$s1, $sp, 0                     # 8-byte Folded Spill
	.cfi_offset 1, -8
	.cfi_offset 22, -16
	.cfi_offset 23, -24
	.cfi_offset 24, -32
	pcalau12i	$a1, %got_pc_hi20(v_ccfile_printer)
	ld.d	$s0, $a1, %got_pc_lo12(v_ccfile_printer)
	ld.d	$a1, $s0, 8
	move	$fp, $a0
	beqz	$a1, .LBB2_3
# %bb.1:                                # %_ZN14kc_filePrinter6fcloseEv.exit.i
	move	$a0, $a1
	pcaddu18i	$ra, %call36(fclose)
	jirl	$ra, $ra, 0
	addi.w	$a1, $zero, -1
	st.d	$zero, $s0, 8
	bne	$a0, $a1, .LBB2_3
# %bb.2:                                # %if.then.i
	pcaddu18i	$ra, %call36(_ZN2kc10NoFileLineEv)
	jirl	$ra, $ra, 0
	move	$s0, $a0
	pcalau12i	$a0, %pc_hi20(.L.str.124)
	addi.d	$a0, $a0, %pc_lo12(.L.str.124)
	pcalau12i	$a1, %pc_hi20(.L.str.12)
	addi.d	$a1, $a1, %pc_lo12(.L.str.12)
	pcaddu18i	$ra, %call36(_ZN2kc9Problem2SEPKcS1_)
	jirl	$ra, $ra, 0
	move	$a1, $a0
	move	$a0, $s0
	pcaddu18i	$ra, %call36(_ZN2kc5FatalEPNS_13impl_filelineEPNS_12impl_problemE)
	jirl	$ra, $ra, 0
	pcaddu18i	$ra, %call36(_ZN2kc8v_reportEPNS_10impl_errorE)
	jirl	$ra, $ra, 0
.LBB2_3:                                # %if.end.i
	pcalau12i	$a0, %got_pc_hi20(v_hfile_printer)
	ld.d	$s0, $a0, %got_pc_lo12(v_hfile_printer)
	ld.d	$a0, $s0, 8
	beqz	$a0, .LBB2_6
# %bb.4:                                # %_ZN14kc_filePrinter6fcloseEv.exit5.i
	pcaddu18i	$ra, %call36(fclose)
	jirl	$ra, $ra, 0
	addi.w	$a1, $zero, -1
	st.d	$zero, $s0, 8
	bne	$a0, $a1, .LBB2_6
# %bb.5:                                # %if.then6.i
	pcaddu18i	$ra, %call36(_ZN2kc10NoFileLineEv)
	jirl	$ra, $ra, 0
	move	$s0, $a0
	pcalau12i	$a0, %pc_hi20(.L.str.124)
	addi.d	$a0, $a0, %pc_lo12(.L.str.124)
	pcalau12i	$a1, %pc_hi20(.L.str.9)
	addi.d	$a1, $a1, %pc_lo12(.L.str.9)
	pcaddu18i	$ra, %call36(_ZN2kc9Problem2SEPKcS1_)
	jirl	$ra, $ra, 0
	move	$a1, $a0
	move	$a0, $s0
	pcaddu18i	$ra, %call36(_ZN2kc5FatalEPNS_13impl_filelineEPNS_12impl_problemE)
	jirl	$ra, $ra, 0
	pcaddu18i	$ra, %call36(_ZN2kc8v_reportEPNS_10impl_errorE)
	jirl	$ra, $ra, 0
.LBB2_6:                                # %if.end10.i
	pcalau12i	$a0, %pc_hi20(.L.str.12)
	addi.d	$a0, $a0, %pc_lo12(.L.str.12)
	ori	$a1, $zero, 4
	pcaddu18i	$ra, %call36(access)
	jirl	$ra, $ra, 0
	pcalau12i	$s1, %pc_hi20(g_options+65)
	bnez	$a0, .LBB2_15
# %bb.7:                                # %if.then13.i
	ld.bu	$a0, $s1, %pc_lo12(g_options+65)
	ori	$a1, $zero, 1
	bne	$a0, $a1, .LBB2_13
# %bb.8:                                # %if.then14.i
	pcalau12i	$a0, %got_pc_hi20(_ZSt4cout)
	ld.d	$s0, $a0, %got_pc_lo12(_ZSt4cout)
	pcalau12i	$a0, %pc_hi20(.L.str.125)
	addi.d	$a1, $a0, %pc_lo12(.L.str.125)
	ori	$a2, $zero, 9
	move	$a0, $s0
	pcaddu18i	$ra, %call36(_ZSt16__ostream_insertIcSt11char_traitsIcEERSt13basic_ostreamIT_T0_ES6_PKS3_l)
	jirl	$ra, $ra, 0
	pcalau12i	$a0, %pc_hi20(.L.str.12)
	addi.d	$a1, $a0, %pc_lo12(.L.str.12)
	ori	$a2, $zero, 11
	move	$a0, $s0
	pcaddu18i	$ra, %call36(_ZSt16__ostream_insertIcSt11char_traitsIcEERSt13basic_ostreamIT_T0_ES6_PKS3_l)
	jirl	$ra, $ra, 0
	ld.d	$a0, $s0, 0
	ld.d	$a0, $a0, -24
	add.d	$a0, $s0, $a0
	ld.d	$s0, $a0, 240
	beqz	$s0, .LBB2_27
# %bb.9:                                # %_ZSt13__check_facetISt5ctypeIcEERKT_PS3_.exit.i.i.i
	ld.bu	$a0, $s0, 56
	bnez	$a0, .LBB2_11
# %bb.10:                               # %if.end.i.i.i.i
	move	$a0, $s0
	pcaddu18i	$ra, %call36(_ZNKSt5ctypeIcE13_M_widen_initEv)
	jirl	$ra, $ra, 0
	ld.d	$a0, $s0, 0
	ld.d	$a2, $a0, 48
	ori	$a1, $zero, 10
	move	$a0, $s0
	jirl	$ra, $a2, 0
	b	.LBB2_12
.LBB2_11:                               # %if.then.i2.i.i.i
	ld.bu	$a0, $s0, 67
.LBB2_12:                               # %_ZSt4endlIcSt11char_traitsIcEERSt13basic_ostreamIT_T0_ES6_.exit.i
	pcalau12i	$a1, %got_pc_hi20(_ZSt4cout)
	ld.d	$a2, $a1, %got_pc_lo12(_ZSt4cout)
	ext.w.b	$a1, $a0
	move	$a0, $a2
	pcaddu18i	$ra, %call36(_ZNSo3putEc)
	jirl	$ra, $ra, 0
	pcaddu18i	$ra, %call36(_ZNSo5flushEv)
	jirl	$ra, $ra, 0
.LBB2_13:                               # %if.end18.i
	pcalau12i	$a0, %pc_hi20(.L.str.12)
	addi.d	$a0, $a0, %pc_lo12(.L.str.12)
	pcaddu18i	$ra, %call36(remove)
	jirl	$ra, $ra, 0
	beqz	$a0, .LBB2_15
# %bb.14:                               # %if.then.i10.i
	pcalau12i	$a0, %pc_hi20(.L.str.122)
	addi.d	$a0, $a0, %pc_lo12(.L.str.122)
	pcaddu18i	$ra, %call36(perror)
	jirl	$ra, $ra, 0
	pcaddu18i	$ra, %call36(_ZN2kc10NoFileLineEv)
	jirl	$ra, $ra, 0
	move	$s0, $a0
	pcalau12i	$a0, %pc_hi20(.L.str.123)
	addi.d	$a0, $a0, %pc_lo12(.L.str.123)
	pcalau12i	$a1, %pc_hi20(.L.str.12)
	addi.d	$a1, $a1, %pc_lo12(.L.str.12)
	pcaddu18i	$ra, %call36(_ZN2kc9Problem2SEPKcS1_)
	jirl	$ra, $ra, 0
	move	$a1, $a0
	move	$a0, $s0
	pcaddu18i	$ra, %call36(_ZN2kc8NonFatalEPNS_13impl_filelineEPNS_12impl_problemE)
	jirl	$ra, $ra, 0
	pcaddu18i	$ra, %call36(_ZN2kc8v_reportEPNS_10impl_errorE)
	jirl	$ra, $ra, 0
.LBB2_15:                               # %if.end19.i
	pcalau12i	$a0, %pc_hi20(.L.str.9)
	addi.d	$a0, $a0, %pc_lo12(.L.str.9)
	ori	$a1, $zero, 4
	pcaddu18i	$ra, %call36(access)
	jirl	$ra, $ra, 0
	bnez	$a0, .LBB2_24
# %bb.16:                               # %if.then22.i
	ld.bu	$a0, $s1, %pc_lo12(g_options+65)
	ori	$a1, $zero, 1
	bne	$a0, $a1, .LBB2_22
# %bb.17:                               # %if.then24.i
	pcalau12i	$a0, %got_pc_hi20(_ZSt4cout)
	ld.d	$s0, $a0, %got_pc_lo12(_ZSt4cout)
	pcalau12i	$a0, %pc_hi20(.L.str.125)
	addi.d	$a1, $a0, %pc_lo12(.L.str.125)
	ori	$a2, $zero, 9
	move	$a0, $s0
	pcaddu18i	$ra, %call36(_ZSt16__ostream_insertIcSt11char_traitsIcEERSt13basic_ostreamIT_T0_ES6_PKS3_l)
	jirl	$ra, $ra, 0
	pcalau12i	$a0, %pc_hi20(.L.str.9)
	addi.d	$a1, $a0, %pc_lo12(.L.str.9)
	ori	$a2, $zero, 9
	move	$a0, $s0
	pcaddu18i	$ra, %call36(_ZSt16__ostream_insertIcSt11char_traitsIcEERSt13basic_ostreamIT_T0_ES6_PKS3_l)
	jirl	$ra, $ra, 0
	ld.d	$a0, $s0, 0
	ld.d	$a0, $a0, -24
	add.d	$a0, $s0, $a0
	ld.d	$s0, $a0, 240
	beqz	$s0, .LBB2_27
# %bb.18:                               # %_ZSt13__check_facetISt5ctypeIcEERKT_PS3_.exit.i.i32.i
	ld.bu	$a0, $s0, 56
	bnez	$a0, .LBB2_20
# %bb.19:                               # %if.end.i.i.i40.i
	move	$a0, $s0
	pcaddu18i	$ra, %call36(_ZNKSt5ctypeIcE13_M_widen_initEv)
	jirl	$ra, $ra, 0
	ld.d	$a0, $s0, 0
	ld.d	$a2, $a0, 48
	ori	$a1, $zero, 10
	move	$a0, $s0
	jirl	$ra, $a2, 0
	b	.LBB2_21
.LBB2_20:                               # %if.then.i2.i.i35.i
	ld.bu	$a0, $s0, 67
.LBB2_21:                               # %_ZSt4endlIcSt11char_traitsIcEERSt13basic_ostreamIT_T0_ES6_.exit45.i
	pcalau12i	$a1, %got_pc_hi20(_ZSt4cout)
	ld.d	$a2, $a1, %got_pc_lo12(_ZSt4cout)
	ext.w.b	$a1, $a0
	move	$a0, $a2
	pcaddu18i	$ra, %call36(_ZNSo3putEc)
	jirl	$ra, $ra, 0
	pcaddu18i	$ra, %call36(_ZNSo5flushEv)
	jirl	$ra, $ra, 0
.LBB2_22:                               # %if.end28.i
	pcalau12i	$a0, %pc_hi20(.L.str.9)
	addi.d	$a0, $a0, %pc_lo12(.L.str.9)
	pcaddu18i	$ra, %call36(remove)
	jirl	$ra, $ra, 0
	beqz	$a0, .LBB2_24
# %bb.23:                               # %if.then.i19.i
	pcalau12i	$a0, %pc_hi20(.L.str.122)
	addi.d	$a0, $a0, %pc_lo12(.L.str.122)
	pcaddu18i	$ra, %call36(perror)
	jirl	$ra, $ra, 0
	pcaddu18i	$ra, %call36(_ZN2kc10NoFileLineEv)
	jirl	$ra, $ra, 0
	move	$s0, $a0
	pcalau12i	$a0, %pc_hi20(.L.str.123)
	addi.d	$a0, $a0, %pc_lo12(.L.str.123)
	pcalau12i	$a1, %pc_hi20(.L.str.9)
	addi.d	$a1, $a1, %pc_lo12(.L.str.9)
	pcaddu18i	$ra, %call36(_ZN2kc9Problem2SEPKcS1_)
	jirl	$ra, $ra, 0
	move	$a1, $a0
	move	$a0, $s0
	pcaddu18i	$ra, %call36(_ZN2kc8NonFatalEPNS_13impl_filelineEPNS_12impl_problemE)
	jirl	$ra, $ra, 0
	pcaddu18i	$ra, %call36(_ZN2kc8v_reportEPNS_10impl_errorE)
	jirl	$ra, $ra, 0
.LBB2_24:                               # %_ZN2kcL7cleanupEv.exit
	pcalau12i	$a0, %got_pc_hi20(gp_no_fatal_problems)
	ld.d	$a0, $a0, %got_pc_lo12(gp_no_fatal_problems)
	ld.bu	$a1, $a0, 0
	ori	$a0, $zero, 1
	bne	$a1, $a0, .LBB2_26
# %bb.25:                               # %if.then
	move	$a0, $fp
	pcaddu18i	$ra, %call36(exit)
	jirl	$ra, $ra, 0
.LBB2_26:                               # %if.else
	sltu	$a1, $a0, $fp
	masknez	$a0, $a0, $a1
	maskeqz	$a1, $fp, $a1
	or	$a0, $a1, $a0
	pcaddu18i	$ra, %call36(exit)
	jirl	$ra, $ra, 0
.LBB2_27:                               # %if.then.i.i.i.i
	pcaddu18i	$ra, %call36(_ZSt16__throw_bad_castv)
	jirl	$ra, $ra, 0
.Lfunc_end2:
	.size	_ZN2kc5leaveEi, .Lfunc_end2-_ZN2kc5leaveEi
	.cfi_endproc
                                        # -- End function
	.section	.text.unlikely.,"ax",@progbits
	.globl	cleanup_and_abort               # -- Begin function cleanup_and_abort
	.p2align	5
	.type	cleanup_and_abort,@function
cleanup_and_abort:                      # @cleanup_and_abort
	.cfi_startproc
# %bb.0:                                # %entry
	addi.d	$sp, $sp, -32
	.cfi_def_cfa_offset 32
	st.d	$ra, $sp, 24                    # 8-byte Folded Spill
	st.d	$fp, $sp, 16                    # 8-byte Folded Spill
	st.d	$s0, $sp, 8                     # 8-byte Folded Spill
	.cfi_offset 1, -8
	.cfi_offset 22, -16
	.cfi_offset 23, -24
	pcalau12i	$a1, %got_pc_hi20(stderr)
	ld.d	$s0, $a1, %got_pc_lo12(stderr)
	move	$fp, $a0
	addi.d	$a0, $a0, -11
	sltui	$a0, $a0, 1
	ld.d	$a3, $s0, 0
	ori	$a1, $zero, 34
	masknez	$a1, $a1, $a0
	ori	$a2, $zero, 29
	maskeqz	$a2, $a2, $a0
	or	$a1, $a2, $a1
	pcalau12i	$a2, %pc_hi20(.L.str.3)
	addi.d	$a2, $a2, %pc_lo12(.L.str.3)
	masknez	$a2, $a2, $a0
	pcalau12i	$a4, %pc_hi20(.L.str.2)
	addi.d	$a4, $a4, %pc_lo12(.L.str.2)
	maskeqz	$a0, $a4, $a0
	or	$a0, $a0, $a2
	ori	$a2, $zero, 1
	pcaddu18i	$ra, %call36(fwrite)
	jirl	$ra, $ra, 0
	pcalau12i	$a0, %pc_hi20(g_progname)
	ld.d	$a1, $a0, %pc_lo12(g_progname)
	ld.d	$a0, $s0, 0
	ld.d	$a2, $a1, 8
	pcalau12i	$a1, %pc_hi20(.L.str.1)
	addi.d	$a1, $a1, %pc_lo12(.L.str.1)
	move	$a3, $fp
	pcaddu18i	$ra, %call36(fprintf)
	jirl	$ra, $ra, 0
	ori	$a0, $zero, 1
	pcaddu18i	$ra, %call36(_ZN2kc5leaveEi)
	jirl	$ra, $ra, 0
.Lfunc_end3:
	.size	cleanup_and_abort, .Lfunc_end3-cleanup_and_abort
	.cfi_endproc
                                        # -- End function
	.text
	.globl	main                            # -- Begin function main
	.p2align	5
	.type	main,@function
main:                                   # @main
.Lfunc_begin0:
	.cfi_startproc
	.cfi_personality 155, DW.ref.__gxx_personality_v0
	.cfi_lsda 27, .Lexception0
# %bb.0:                                # %entry
	addi.d	$sp, $sp, -560
	.cfi_def_cfa_offset 560
	st.d	$ra, $sp, 552                   # 8-byte Folded Spill
	st.d	$fp, $sp, 544                   # 8-byte Folded Spill
	st.d	$s0, $sp, 536                   # 8-byte Folded Spill
	st.d	$s1, $sp, 528                   # 8-byte Folded Spill
	st.d	$s2, $sp, 520                   # 8-byte Folded Spill
	st.d	$s3, $sp, 512                   # 8-byte Folded Spill
	st.d	$s4, $sp, 504                   # 8-byte Folded Spill
	st.d	$s5, $sp, 496                   # 8-byte Folded Spill
	st.d	$s6, $sp, 488                   # 8-byte Folded Spill
	st.d	$s7, $sp, 480                   # 8-byte Folded Spill
	st.d	$s8, $sp, 472                   # 8-byte Folded Spill
	.cfi_offset 1, -8
	.cfi_offset 22, -16
	.cfi_offset 23, -24
	.cfi_offset 24, -32
	.cfi_offset 25, -40
	.cfi_offset 26, -48
	.cfi_offset 27, -56
	.cfi_offset 28, -64
	.cfi_offset 29, -72
	.cfi_offset 30, -80
	.cfi_offset 31, -88
	pcalau12i	$a2, %got_pc_hi20(yydebug)
	ld.d	$a2, $a2, %got_pc_lo12(yydebug)
	move	$s1, $a1
	move	$s3, $a0
	ori	$fp, $zero, 1
	st.w	$fp, $a2, 0
	pcalau12i	$a0, %pc_hi20(.L.str.55)
	addi.d	$a0, $a0, %pc_lo12(.L.str.55)
	addi.w	$s0, $zero, -1
	move	$a1, $s0
	pcaddu18i	$ra, %call36(_ZN2kc12mkcasestringEPKci)
	jirl	$ra, $ra, 0
	pcalau12i	$s2, %pc_hi20(g_progname)
	st.d	$a0, $s2, %pc_lo12(g_progname)
	pcalau12i	$a0, %pc_hi20(.L.str.4)
	addi.d	$a0, $a0, %pc_lo12(.L.str.4)
	pcaddu18i	$ra, %call36(_ZN2kcL16make_pg_filenameEPKc)
	jirl	$ra, $ra, 0
	pcalau12i	$a1, %got_pc_hi20(pg_filename)
	ld.d	$a3, $a1, %got_pc_lo12(pg_filename)
	pcalau12i	$a1, %got_pc_hi20(gp_no_fatal_problems)
	ld.d	$a4, $a1, %got_pc_lo12(gp_no_fatal_problems)
	pcalau12i	$a1, %got_pc_hi20(pg_uviewshavebeendefined)
	ld.d	$a1, $a1, %got_pc_lo12(pg_uviewshavebeendefined)
	pcalau12i	$a2, %got_pc_hi20(pg_rviewshavebeendefined)
	ld.d	$a2, $a2, %got_pc_lo12(pg_rviewshavebeendefined)
	st.d	$a3, $sp, 160                   # 8-byte Folded Spill
	st.d	$a0, $a3, 0
	st.d	$a4, $sp, 120                   # 8-byte Folded Spill
	st.b	$fp, $a4, 0
	st.b	$zero, $a1, 0
	st.b	$zero, $a2, 0
	pcalau12i	$a0, %got_pc_hi20(pg_storageclasseshavebeendefined)
	ld.d	$a0, $a0, %got_pc_lo12(pg_storageclasseshavebeendefined)
	pcalau12i	$a1, %got_pc_hi20(pg_lineno)
	ld.d	$a3, $a1, %got_pc_lo12(pg_lineno)
	pcalau12i	$a1, %got_pc_hi20(pg_column)
	ld.d	$a2, $a1, %got_pc_lo12(pg_column)
	pcalau12i	$a1, %got_pc_hi20(pg_charpos)
	ld.d	$a1, $a1, %got_pc_lo12(pg_charpos)
	st.b	$zero, $a0, 0
	st.d	$a3, $sp, 136                   # 8-byte Folded Spill
	st.w	$zero, $a3, 0
	st.d	$a2, $sp, 152                   # 8-byte Folded Spill
	st.w	$zero, $a2, 0
	st.d	$a1, $sp, 144                   # 8-byte Folded Spill
	st.w	$zero, $a1, 0
	ld.d	$fp, $s1, 0
	ori	$a1, $zero, 47
	move	$a0, $fp
	pcaddu18i	$ra, %call36(strrchr)
	jirl	$ra, $ra, 0
	sltui	$a1, $a0, 1
	addi.d	$a0, $a0, 1
	masknez	$a0, $a0, $a1
	maskeqz	$a1, $fp, $a1
	or	$a0, $a1, $a0
	st.d	$s0, $sp, 192                   # 8-byte Folded Spill
	move	$a1, $s0
	pcaddu18i	$ra, %call36(_ZN2kc12mkcasestringEPKci)
	jirl	$ra, $ra, 0
	st.d	$s2, $sp, 128                   # 8-byte Folded Spill
	st.d	$a0, $s2, %pc_lo12(g_progname)
	addi.d	$s2, $sp, 456
	pcalau12i	$a0, %pc_hi20(.L.str.56)
	addi.d	$s8, $a0, %pc_lo12(.L.str.56)
	ori	$s7, $zero, 122
	pcalau12i	$a0, %pc_hi20(.LJTI4_0)
	addi.d	$s6, $a0, %pc_lo12(.LJTI4_0)
	st.d	$s1, $sp, 168                   # 8-byte Folded Spill
	st.d	$s3, $sp, 184                   # 8-byte Folded Spill
	st.d	$s6, $sp, 200                   # 8-byte Folded Spill
	st.d	$s8, $sp, 176                   # 8-byte Folded Spill
	b	.LBB4_3
.LBB4_1:                                # %sw.bb106.i
                                        #   in Loop: Header=BB4_3 Depth=1
	pcalau12i	$a0, %got_pc_hi20(optarg)
	ld.d	$a0, $a0, %got_pc_lo12(optarg)
	ld.d	$s4, $a0, 0
	pcalau12i	$a0, %pc_hi20(g_options)
	addi.d	$fp, $a0, %pc_lo12(g_options)
	ld.d	$s5, $fp, 224
	move	$a0, $s4
	pcaddu18i	$ra, %call36(strlen)
	jirl	$ra, $ra, 0
	move	$a4, $a0
	addi.d	$a0, $fp, 216
.LBB4_2:                                # %while.cond.i
                                        #   in Loop: Header=BB4_3 Depth=1
	move	$a1, $zero
	move	$a2, $s5
	move	$a3, $s4
	pcaddu18i	$ra, %call36(_ZNSt7__cxx1112basic_stringIcSt11char_traitsIcESaIcEE10_M_replaceEmmPKcm)
	jirl	$ra, $ra, 0
	.p2align	4, , 16
.LBB4_3:                                # %while.cond.i
                                        # =>This Loop Header: Depth=1
                                        #     Child Loop BB4_33 Depth 2
                                        #       Child Loop BB4_47 Depth 3
                                        #     Child Loop BB4_75 Depth 2
                                        #     Child Loop BB4_95 Depth 2
	move	$a0, $s3
	move	$a1, $s1
	move	$a2, $s8
	pcaddu18i	$ra, %call36(getopt)
	jirl	$ra, $ra, 0
	addi.d	$a0, $a0, 1
	bltu	$s7, $a0, .LBB4_3
# %bb.4:                                # %while.cond.i
                                        #   in Loop: Header=BB4_3 Depth=1
	slli.d	$a0, $a0, 2
	ldx.w	$a0, $s6, $a0
	add.d	$a0, $s6, $a0
	jr	$a0
.LBB4_5:                                # %sw.bb154.i
                                        #   in Loop: Header=BB4_3 Depth=1
	pcalau12i	$a0, %got_pc_hi20(optarg)
	ld.d	$a0, $a0, %got_pc_lo12(optarg)
	ld.d	$a0, $a0, 0
	sltui	$a1, $a0, 1
	masknez	$a0, $a0, $a1
	pcalau12i	$a2, %pc_hi20(.L.str.69)
	pcalau12i	$a3, %pc_hi20(g_options)
	addi.d	$fp, $a3, %pc_lo12(g_options)
	ld.d	$s4, $fp, 128
	addi.d	$a2, $a2, %pc_lo12(.L.str.69)
	maskeqz	$a1, $a2, $a1
	or	$s5, $a1, $a0
	move	$a0, $s5
	pcaddu18i	$ra, %call36(strlen)
	jirl	$ra, $ra, 0
	move	$a4, $a0
	addi.d	$a0, $fp, 120
	b	.LBB4_25
.LBB4_6:                                # %sw.bb116.i
                                        #   in Loop: Header=BB4_3 Depth=1
	pcalau12i	$a0, %pc_hi20(g_options+68)
	ori	$a1, $zero, 1
	st.b	$a1, $a0, %pc_lo12(g_options+68)
	b	.LBB4_3
.LBB4_7:                                # %sw.bb118.i
                                        #   in Loop: Header=BB4_3 Depth=1
	pcalau12i	$a0, %pc_hi20(g_options+70)
	ori	$a1, $zero, 1
	st.b	$a1, $a0, %pc_lo12(g_options+70)
	b	.LBB4_3
.LBB4_8:                                # %sw.bb10.i
                                        #   in Loop: Header=BB4_3 Depth=1
	pcalau12i	$a0, %pc_hi20(g_options)
	addi.d	$a0, $a0, %pc_lo12(g_options)
	ld.bu	$a1, $a0, 64
	ori	$a2, $zero, 1
	st.b	$a2, $a0, 65
	bne	$a1, $a2, .LBB4_3
# %bb.9:                                # %if.then12.i
                                        #   in Loop: Header=BB4_3 Depth=1
	pcaddu18i	$ra, %call36(_ZN2kc10NoFileLineEv)
	jirl	$ra, $ra, 0
	move	$s4, $a0
	pcalau12i	$a0, %pc_hi20(.L.str.58)
	addi.d	$a0, $a0, %pc_lo12(.L.str.58)
	b	.LBB4_68
.LBB4_10:                               # %sw.bb120.i
                                        #   in Loop: Header=BB4_3 Depth=1
	pcalau12i	$a0, %pc_hi20(g_options+72)
	ori	$a1, $zero, 1
	st.b	$a1, $a0, %pc_lo12(g_options+72)
	b	.LBB4_3
.LBB4_11:                               # %sw.bb115.i
                                        #   in Loop: Header=BB4_3 Depth=1
	pcalau12i	$a0, %pc_hi20(g_options+67)
	ori	$a1, $zero, 1
	st.b	$a1, $a0, %pc_lo12(g_options+67)
	b	.LBB4_3
.LBB4_12:                               # %sw.bb122.i
                                        #   in Loop: Header=BB4_3 Depth=1
	pcalau12i	$a0, %pc_hi20(g_options+113)
	ori	$a1, $zero, 1
	st.b	$a1, $a0, %pc_lo12(g_options+113)
	b	.LBB4_3
.LBB4_13:                               # %sw.bb123.i
                                        #   in Loop: Header=BB4_3 Depth=1
	pcalau12i	$a0, %got_pc_hi20(optarg)
	ld.d	$s0, $a0, %got_pc_lo12(optarg)
	ld.d	$a0, $s0, 0
	ld.bu	$a0, $a0, 0
	addi.d	$a1, $a0, -110
	ori	$a2, $zero, 11
	bltu	$a2, $a1, .LBB4_15
# %bb.14:                               # %sw.bb123.i
                                        #   in Loop: Header=BB4_3 Depth=1
	ori	$a2, $zero, 1
	sll.d	$a1, $a2, $a1
	andi	$a1, $a1, 2053
	bnez	$a1, .LBB4_16
.LBB4_15:                               # %if.then134.i
                                        #   in Loop: Header=BB4_3 Depth=1
	pcaddu18i	$ra, %call36(_ZN2kc10NoFileLineEv)
	jirl	$ra, $ra, 0
	move	$s4, $a0
	pcalau12i	$a0, %pc_hi20(.L.str.67)
	addi.d	$a0, $a0, %pc_lo12(.L.str.67)
	pcaddu18i	$ra, %call36(_ZN2kc9Problem1SEPKc)
	jirl	$ra, $ra, 0
	move	$a1, $a0
	move	$a0, $s4
	pcaddu18i	$ra, %call36(_ZN2kc7WarningEPNS_13impl_filelineEPNS_12impl_problemE)
	jirl	$ra, $ra, 0
	pcaddu18i	$ra, %call36(_ZN2kc8v_reportEPNS_10impl_errorE)
	jirl	$ra, $ra, 0
	ld.d	$a0, $s0, 0
	ld.bu	$a0, $a0, 0
.LBB4_16:                               # %if.end138.i
                                        #   in Loop: Header=BB4_3 Depth=1
	pcalau12i	$a1, %pc_hi20(g_options+74)
	st.b	$a0, $a1, %pc_lo12(g_options+74)
	b	.LBB4_3
.LBB4_17:                               # %sw.bb4.i
                                        #   in Loop: Header=BB4_3 Depth=1
	pcalau12i	$a0, %got_pc_hi20(optarg)
	ld.d	$a0, $a0, %got_pc_lo12(optarg)
	ld.d	$s4, $a0, 0
	pcalau12i	$a0, %pc_hi20(g_options)
	addi.d	$fp, $a0, %pc_lo12(g_options)
	ld.d	$s5, $fp, 256
	move	$a0, $s4
	pcaddu18i	$ra, %call36(strlen)
	jirl	$ra, $ra, 0
	move	$a4, $a0
	addi.d	$a0, $fp, 248
	b	.LBB4_2
.LBB4_18:                               # %sw.bb183.i
                                        #   in Loop: Header=BB4_3 Depth=1
	pcalau12i	$a0, %got_pc_hi20(optarg)
	ld.d	$a0, $a0, %got_pc_lo12(optarg)
	ld.d	$s4, $a0, 0
	pcalau12i	$a0, %pc_hi20(g_options)
	addi.d	$fp, $a0, %pc_lo12(g_options)
	ld.d	$s5, $fp, 288
	move	$a0, $s4
	pcaddu18i	$ra, %call36(strlen)
	jirl	$ra, $ra, 0
	move	$a4, $a0
	addi.d	$a0, $fp, 280
	b	.LBB4_2
.LBB4_19:                               # %sw.bb117.i
                                        #   in Loop: Header=BB4_3 Depth=1
	pcalau12i	$a0, %pc_hi20(g_options+69)
	ori	$a1, $zero, 1
	st.b	$a1, $a0, %pc_lo12(g_options+69)
	b	.LBB4_3
.LBB4_20:                               # %sw.bb140.i
                                        #   in Loop: Header=BB4_3 Depth=1
	pcalau12i	$a0, %pc_hi20(g_options+114)
	st.b	$zero, $a0, %pc_lo12(g_options+114)
	b	.LBB4_3
.LBB4_21:                               # %sw.bb141.i
                                        #   in Loop: Header=BB4_3 Depth=1
	pcalau12i	$a0, %pc_hi20(pg_line)
	pcalau12i	$a1, %pc_hi20(.L.str.68)
	addi.d	$a1, $a1, %pc_lo12(.L.str.68)
	st.d	$a1, $a0, %pc_lo12(pg_line)
	b	.LBB4_3
.LBB4_22:                               # %sw.bb161.i
                                        #   in Loop: Header=BB4_3 Depth=1
	pcalau12i	$a0, %pc_hi20(g_options+115)
	ori	$a1, $zero, 1
	st.b	$a1, $a0, %pc_lo12(g_options+115)
	b	.LBB4_3
.LBB4_23:                               # %sw.bb119.i
                                        #   in Loop: Header=BB4_3 Depth=1
	pcalau12i	$a0, %pc_hi20(g_options+71)
	ori	$a1, $zero, 1
	st.b	$a1, $a0, %pc_lo12(g_options+71)
	b	.LBB4_3
.LBB4_24:                               # %sw.bb111.i
                                        #   in Loop: Header=BB4_3 Depth=1
	pcalau12i	$a0, %got_pc_hi20(optarg)
	ld.d	$a0, $a0, %got_pc_lo12(optarg)
	ld.d	$a0, $a0, 0
	sltui	$a1, $a0, 1
	masknez	$a0, $a0, $a1
	pcalau12i	$a2, %pc_hi20(.L.str.66)
	pcalau12i	$a3, %pc_hi20(g_options)
	addi.d	$fp, $a3, %pc_lo12(g_options)
	ld.d	$s4, $fp, 88
	addi.d	$a2, $a2, %pc_lo12(.L.str.66)
	maskeqz	$a1, $a2, $a1
	or	$s5, $a1, $a0
	move	$a0, $s5
	pcaddu18i	$ra, %call36(strlen)
	jirl	$ra, $ra, 0
	move	$a4, $a0
	addi.d	$a0, $fp, 80
.LBB4_25:                               # %while.cond.i
                                        #   in Loop: Header=BB4_3 Depth=1
	move	$a1, $zero
	move	$a2, $s4
	move	$a3, $s5
	pcaddu18i	$ra, %call36(_ZNSt7__cxx1112basic_stringIcSt11char_traitsIcESaIcEE10_M_replaceEmmPKcm)
	jirl	$ra, $ra, 0
	b	.LBB4_3
.LBB4_26:                               # %sw.bb17.i
                                        #   in Loop: Header=BB4_3 Depth=1
	pcalau12i	$a0, %got_pc_hi20(optarg)
	ld.d	$s0, $a0, %got_pc_lo12(optarg)
	ld.d	$a0, $s0, 0
	beqz	$a0, .LBB4_101
# %bb.27:                               # %if.else.i.i.i
                                        #   in Loop: Header=BB4_3 Depth=1
	st.d	$zero, $sp, 424
	vrepli.b	$vr0, 0
	vst	$vr0, $sp, 408
	st.d	$s2, $sp, 440
	st.d	$zero, $sp, 448
	st.b	$zero, $sp, 456
.Ltmp0:                                 # EH_LABEL
	addi.d	$a0, $sp, 408
	addi.d	$a1, $sp, 440
	pcaddu18i	$ra, %call36(_ZNSt6vectorINSt7__cxx1112basic_stringIcSt11char_traitsIcESaIcEEESaIS5_EE17_M_realloc_appendIJS5_EEEvDpOT_)
	jirl	$ra, $ra, 0
.Ltmp1:                                 # EH_LABEL
# %bb.28:                               # %invoke.cont21.i
                                        #   in Loop: Header=BB4_3 Depth=1
	ld.d	$a0, $sp, 440
	beq	$a0, $s2, .LBB4_30
# %bb.29:                               # %if.then.i.i65.i
                                        #   in Loop: Header=BB4_3 Depth=1
	ld.d	$a1, $sp, 456
	addi.d	$a1, $a1, 1
	pcaddu18i	$ra, %call36(_ZdlPvm)
	jirl	$ra, $ra, 0
.LBB4_30:                               # %_ZNSt7__cxx1112basic_stringIcSt11char_traitsIcESaIcEED2Ev.exit.i
                                        #   in Loop: Header=BB4_3 Depth=1
	ld.d	$a0, $s0, 0
	move	$fp, $zero
	b	.LBB4_33
	.p2align	4, , 16
.LBB4_31:                               # %_ZNSt7__cxx1112basic_stringIcSt11char_traitsIcESaIcEEpLEc.exit.i
                                        #   in Loop: Header=BB4_33 Depth=2
	stx.b	$s1, $a0, $s5
	ld.d	$a0, $s4, 0
	addi.d	$a1, $s5, 1
	st.d	$a1, $s4, 8
	stx.b	$zero, $a0, $a1
.LBB4_32:                               # %if.end45.i
                                        #   in Loop: Header=BB4_33 Depth=2
	ld.d	$a0, $s0, 0
	addi.d	$a0, $a0, 1
	st.d	$a0, $s0, 0
.LBB4_33:                               # %while.cond24.i
                                        #   Parent Loop BB4_3 Depth=1
                                        # =>  This Loop Header: Depth=2
                                        #       Child Loop BB4_47 Depth 3
	ld.bu	$s1, $a0, 0
	ori	$a0, $zero, 44
	beq	$s1, $a0, .LBB4_38
# %bb.34:                               # %while.cond24.i
                                        #   in Loop: Header=BB4_33 Depth=2
	beqz	$s1, .LBB4_71
# %bb.35:                               # %if.else39.i
                                        #   in Loop: Header=BB4_33 Depth=2
	ld.d	$a0, $sp, 408
	slli.d	$a1, $fp, 5
	add.d	$s4, $a0, $a1
	ldx.d	$a0, $a0, $a1
	ld.d	$s5, $s4, 8
	ld.d	$a1, $s4, 16
	addi.d	$a2, $s4, 16
	xor	$a2, $a0, $a2
	sltui	$a2, $a2, 1
	masknez	$a1, $a1, $a2
	ori	$a3, $zero, 15
	maskeqz	$a2, $a3, $a2
	or	$a1, $a2, $a1
	bltu	$s5, $a1, .LBB4_31
# %bb.36:                               # %if.then.i.i123.i
                                        #   in Loop: Header=BB4_33 Depth=2
.Ltmp18:                                # EH_LABEL
	ori	$a4, $zero, 1
	move	$a0, $s4
	move	$a1, $s5
	move	$a2, $zero
	move	$a3, $zero
	pcaddu18i	$ra, %call36(_ZNSt7__cxx1112basic_stringIcSt11char_traitsIcESaIcEE9_M_mutateEmmPKcm)
	jirl	$ra, $ra, 0
.Ltmp19:                                # EH_LABEL
# %bb.37:                               # %.noexc127.i
                                        #   in Loop: Header=BB4_33 Depth=2
	ld.d	$a0, $s4, 0
	b	.LBB4_31
	.p2align	4, , 16
.LBB4_38:                               # %if.then28.i
                                        #   in Loop: Header=BB4_33 Depth=2
	ld.d	$s1, $sp, 416
	ld.d	$a0, $sp, 424
	st.d	$s2, $sp, 440
	st.d	$zero, $sp, 448
	st.b	$zero, $sp, 456
	beq	$s1, $a0, .LBB4_41
# %bb.39:                               # %if.then.i.i82.i
                                        #   in Loop: Header=BB4_33 Depth=2
	addi.d	$a0, $s1, 16
	st.d	$a0, $s1, 0
	ld.d	$a1, $sp, 440
	beq	$a1, $s2, .LBB4_49
# %bb.40:                               # %if.else.i.i.i84.i
                                        #   in Loop: Header=BB4_33 Depth=2
	st.d	$a1, $s1, 0
	ld.d	$a0, $sp, 456
	st.d	$a0, $s1, 16
	b	.LBB4_50
.LBB4_41:                               # %if.else.i.i94.i
                                        #   in Loop: Header=BB4_33 Depth=2
	ld.d	$s4, $sp, 408
	sub.d	$s7, $s1, $s4
	addi.w	$a0, $zero, -32
	lu52i.d	$a0, $a0, 2047
	beq	$s7, $a0, .LBB4_104
# %bb.42:                               # %_ZNKSt6vectorINSt7__cxx1112basic_stringIcSt11char_traitsIcESaIcEEESaIS5_EE12_M_check_lenEmPKc.exit.i.i
                                        #   in Loop: Header=BB4_33 Depth=2
	srai.d	$a0, $s7, 5
	ori	$a1, $zero, 1
	sltu	$a2, $a1, $a0
	masknez	$a1, $a1, $a2
	maskeqz	$a2, $a0, $a2
	or	$a1, $a2, $a1
	add.d	$a0, $a1, $a0
	ld.d	$a1, $sp, 192                   # 8-byte Folded Reload
	lu52i.d	$a1, $a1, 63
	sltu	$a2, $a0, $a1
	maskeqz	$a0, $a0, $a2
	masknez	$a1, $a1, $a2
	or	$a0, $a0, $a1
	slli.d	$s5, $a0, 5
.Ltmp3:                                 # EH_LABEL
	move	$a0, $s5
	pcaddu18i	$ra, %call36(_Znwm)
	jirl	$ra, $ra, 0
.Ltmp4:                                 # EH_LABEL
# %bb.43:                               # %_ZNSt7__cxx1112basic_stringIcSt11char_traitsIcESaIcEEC2EOS4_.exit.i.i
                                        #   in Loop: Header=BB4_33 Depth=2
	move	$s6, $a0
	st.d	$fp, $sp, 208                   # 8-byte Folded Spill
	add.d	$a0, $a0, $s7
	addi.d	$a1, $a0, 16
	stx.d	$a1, $s6, $s7
	st.b	$zero, $a0, 16
	st.d	$zero, $a0, 8
	st.d	$s2, $sp, 440
	st.d	$zero, $sp, 448
	st.b	$zero, $sp, 456
	move	$fp, $s6
	beq	$s4, $s1, .LBB4_52
# %bb.44:                               # %for.body.i.i.i.i.i.i.preheader
                                        #   in Loop: Header=BB4_33 Depth=2
	move	$s8, $zero
	b	.LBB4_47
	.p2align	4, , 16
.LBB4_45:                               # %if.else.i.i.i.i.i.i.i.i
                                        #   in Loop: Header=BB4_47 Depth=3
	st.d	$a1, $s3, 0
	ld.d	$a0, $s7, 0
	st.d	$a0, $s3, 16
	ld.d	$s2, $fp, 8
.LBB4_46:                               # %_ZSt19__relocate_object_aINSt7__cxx1112basic_stringIcSt11char_traitsIcESaIcEEES5_SaIS5_EEvPT_PT0_RT1_.exit.i.i.i.i.i.i
                                        #   in Loop: Header=BB4_47 Depth=3
	st.d	$s2, $s3, 8
	stx.d	$s7, $s4, $s8
	st.d	$zero, $fp, 8
	addi.d	$s8, $s8, 32
	add.d	$a0, $s4, $s8
	st.b	$zero, $s7, 0
	beq	$a0, $s1, .LBB4_51
.LBB4_47:                               # %for.body.i.i.i.i.i.i
                                        #   Parent Loop BB4_3 Depth=1
                                        #     Parent Loop BB4_33 Depth=2
                                        # =>    This Inner Loop Header: Depth=3
	add.d	$s3, $s6, $s8
	addi.d	$a0, $s3, 16
	stx.d	$a0, $s6, $s8
	ldx.d	$a1, $s4, $s8
	add.d	$fp, $s4, $s8
	addi.d	$s7, $fp, 16
	bne	$s7, $a1, .LBB4_45
# %bb.48:                               # %_ZNSt11char_traitsIcE4copyEPcPKcm.exit.i.i.i.i.i.i.i.i
                                        #   in Loop: Header=BB4_47 Depth=3
	ld.d	$s2, $fp, 8
	addi.d	$a2, $s2, 1
	move	$a1, $s7
	pcaddu18i	$ra, %call36(memcpy)
	jirl	$ra, $ra, 0
	b	.LBB4_46
.LBB4_49:                               # %_ZNSt11char_traitsIcE4copyEPcPKcm.exit.i.i.i90.i
                                        #   in Loop: Header=BB4_33 Depth=2
	ld.b	$a1, $sp, 456
	st.b	$a1, $a0, 0
.LBB4_50:                               # %invoke.cont34.thread.i
                                        #   in Loop: Header=BB4_33 Depth=2
	st.d	$zero, $s1, 8
	addi.d	$a0, $s1, 32
	st.d	$a0, $sp, 416
	addi.w	$fp, $fp, 1
	b	.LBB4_32
.LBB4_51:                               # %_ZNSt6vectorINSt7__cxx1112basic_stringIcSt11char_traitsIcESaIcEEESaIS5_EE11_S_relocateEPS5_S8_S8_RS6_.exit.i.i.loopexit
                                        #   in Loop: Header=BB4_33 Depth=2
	add.d	$fp, $s6, $s8
	addi.d	$s2, $sp, 456
	ld.d	$s3, $sp, 184                   # 8-byte Folded Reload
	ld.d	$s8, $sp, 176                   # 8-byte Folded Reload
.LBB4_52:                               # %_ZNSt6vectorINSt7__cxx1112basic_stringIcSt11char_traitsIcESaIcEEESaIS5_EE11_S_relocateEPS5_S8_S8_RS6_.exit.i.i
                                        #   in Loop: Header=BB4_33 Depth=2
	beqz	$s4, .LBB4_54
# %bb.53:                               # %_ZNSt12_Vector_baseINSt7__cxx1112basic_stringIcSt11char_traitsIcESaIcEEESaIS5_EE13_M_deallocateEPS5_m.exit.i.i.i
                                        #   in Loop: Header=BB4_33 Depth=2
	ld.d	$a0, $sp, 424
	sub.d	$a1, $a0, $s4
	move	$a0, $s4
	pcaddu18i	$ra, %call36(_ZdlPvm)
	jirl	$ra, $ra, 0
.LBB4_54:                               # %invoke.cont34.i
                                        #   in Loop: Header=BB4_33 Depth=2
	addi.d	$a1, $fp, 32
	ld.d	$a0, $sp, 440
	st.d	$s6, $sp, 408
	st.d	$a1, $sp, 416
	add.d	$a1, $s6, $s5
	st.d	$a1, $sp, 424
	ori	$s7, $zero, 122
	ld.d	$s6, $sp, 200                   # 8-byte Folded Reload
	ld.d	$fp, $sp, 208                   # 8-byte Folded Reload
	beq	$a0, $s2, .LBB4_56
# %bb.55:                               # %if.then.i.i98.i
                                        #   in Loop: Header=BB4_33 Depth=2
	ld.d	$a1, $sp, 456
	addi.d	$a1, $a1, 1
	pcaddu18i	$ra, %call36(_ZdlPvm)
	jirl	$ra, $ra, 0
.LBB4_56:                               # %_ZNSt7__cxx1112basic_stringIcSt11char_traitsIcESaIcEED2Ev.exit103.i
                                        #   in Loop: Header=BB4_33 Depth=2
	addi.w	$fp, $fp, 1
	b	.LBB4_32
.LBB4_57:                               # %sw.bb162.i
                                        #   in Loop: Header=BB4_3 Depth=1
	pcalau12i	$a0, %got_pc_hi20(optarg)
	ld.d	$s0, $a0, %got_pc_lo12(optarg)
	ld.d	$s4, $s0, 0
	ld.bu	$a0, $s4, 0
	ori	$a1, $zero, 45
	bne	$a0, $a1, .LBB4_97
.LBB4_58:                               # %if.then177.i
                                        #   in Loop: Header=BB4_3 Depth=1
	pcaddu18i	$ra, %call36(_ZN2kc10NoFileLineEv)
	jirl	$ra, $ra, 0
	ld.d	$a1, $s0, 0
	move	$s4, $a0
	pcalau12i	$a0, %pc_hi20(.L.str.70)
	addi.d	$a0, $a0, %pc_lo12(.L.str.70)
	pcalau12i	$a2, %pc_hi20(.L.str.71)
	addi.d	$a2, $a2, %pc_lo12(.L.str.71)
	pcaddu18i	$ra, %call36(_ZN2kc9Problem3SEPKcS1_S1_)
	jirl	$ra, $ra, 0
	move	$a1, $a0
	move	$a0, $s4
	pcaddu18i	$ra, %call36(_ZN2kc7WarningEPNS_13impl_filelineEPNS_12impl_problemE)
	jirl	$ra, $ra, 0
	pcaddu18i	$ra, %call36(_ZN2kc8v_reportEPNS_10impl_errorE)
	jirl	$ra, $ra, 0
	ld.d	$s4, $s0, 0
	b	.LBB4_99
.LBB4_59:                               # %sw.bb114.i
                                        #   in Loop: Header=BB4_3 Depth=1
	pcalau12i	$a0, %pc_hi20(g_options+66)
	ori	$a1, $zero, 1
	st.b	$a1, $a0, %pc_lo12(g_options+66)
	b	.LBB4_3
.LBB4_60:                               # %sw.bb142.i
                                        #   in Loop: Header=BB4_3 Depth=1
	move	$a0, $zero
	move	$a1, $zero
	pcaddu18i	$ra, %call36(getcwd)
	jirl	$ra, $ra, 0
	pcalau12i	$a1, %pc_hi20(g_options)
	addi.d	$s0, $a1, %pc_lo12(g_options)
	ld.d	$s4, $s0, 320
	move	$s6, $a0
	pcaddu18i	$ra, %call36(strlen)
	jirl	$ra, $ra, 0
	move	$a4, $a0
	addi.d	$s5, $s0, 312
	move	$a0, $s5
	move	$a1, $zero
	move	$a2, $s4
	move	$a3, $s6
	pcaddu18i	$ra, %call36(_ZNSt7__cxx1112basic_stringIcSt11char_traitsIcESaIcEE10_M_replaceEmmPKcm)
	jirl	$ra, $ra, 0
	move	$a0, $s6
	ld.d	$s6, $sp, 200                   # 8-byte Folded Reload
	pcaddu18i	$ra, %call36(free)
	jirl	$ra, $ra, 0
	ld.d	$s4, $s0, 320
	beqz	$s4, .LBB4_3
# %bb.61:                               # %land.lhs.true146.i
                                        #   in Loop: Header=BB4_3 Depth=1
	ld.d	$a0, $s0, 312
	add.d	$a1, $a0, $s4
	ld.bu	$a1, $a1, -1
	ori	$a2, $zero, 47
	beq	$a1, $a2, .LBB4_3
# %bb.62:                               # %if.then151.i
                                        #   in Loop: Header=BB4_3 Depth=1
	ld.d	$a1, $s0, 328
	addi.d	$a2, $s0, 328
	xor	$a2, $a0, $a2
	sltui	$a2, $a2, 1
	masknez	$a1, $a1, $a2
	ori	$a3, $zero, 15
	maskeqz	$a2, $a3, $a2
	or	$a1, $a2, $a1
	bltu	$s4, $a1, .LBB4_64
# %bb.63:                               # %if.then.i.i208.i
                                        #   in Loop: Header=BB4_3 Depth=1
	ori	$a4, $zero, 1
	move	$a0, $s5
	move	$a1, $s4
	move	$a2, $zero
	move	$a3, $zero
	pcaddu18i	$ra, %call36(_ZNSt7__cxx1112basic_stringIcSt11char_traitsIcESaIcEE9_M_mutateEmmPKcm)
	jirl	$ra, $ra, 0
	ld.d	$a0, $s0, 312
.LBB4_64:                               # %_ZNSt7__cxx1112basic_stringIcSt11char_traitsIcESaIcEEpLEc.exit215.i
                                        #   in Loop: Header=BB4_3 Depth=1
	ori	$a1, $zero, 47
	stx.b	$a1, $a0, $s4
	ld.d	$a0, $s0, 312
	addi.d	$a1, $s4, 1
	st.d	$a1, $s0, 320
	stx.b	$zero, $a0, $a1
	b	.LBB4_3
.LBB4_65:                               # %sw.bb108.i
                                        #   in Loop: Header=BB4_3 Depth=1
	pcalau12i	$a0, %got_pc_hi20(optarg)
	ld.d	$a0, $a0, %got_pc_lo12(optarg)
	ld.d	$s4, $a0, 0
	pcalau12i	$a0, %pc_hi20(g_options)
	addi.d	$fp, $a0, %pc_lo12(g_options)
	ld.d	$s5, $fp, 192
	move	$a0, $s4
	pcaddu18i	$ra, %call36(strlen)
	jirl	$ra, $ra, 0
	move	$a4, $a0
	addi.d	$a0, $fp, 184
	b	.LBB4_2
.LBB4_66:                               # %sw.bb6.i
                                        #   in Loop: Header=BB4_3 Depth=1
	pcalau12i	$a0, %pc_hi20(g_options)
	addi.d	$a0, $a0, %pc_lo12(g_options)
	ld.bu	$a1, $a0, 65
	ori	$a2, $zero, 1
	st.b	$a2, $a0, 64
	bne	$a1, $a2, .LBB4_3
# %bb.67:                               # %if.then.i
                                        #   in Loop: Header=BB4_3 Depth=1
	pcaddu18i	$ra, %call36(_ZN2kc10NoFileLineEv)
	jirl	$ra, $ra, 0
	move	$s4, $a0
	pcalau12i	$a0, %pc_hi20(.L.str.57)
	addi.d	$a0, $a0, %pc_lo12(.L.str.57)
.LBB4_68:                               # %while.cond.i
                                        #   in Loop: Header=BB4_3 Depth=1
	pcaddu18i	$ra, %call36(_ZN2kc9Problem1SEPKc)
	jirl	$ra, $ra, 0
	move	$a1, $a0
	move	$a0, $s4
	pcaddu18i	$ra, %call36(_ZN2kc7WarningEPNS_13impl_filelineEPNS_12impl_problemE)
	jirl	$ra, $ra, 0
	pcaddu18i	$ra, %call36(_ZN2kc8v_reportEPNS_10impl_errorE)
	jirl	$ra, $ra, 0
	b	.LBB4_3
.LBB4_69:                               # %sw.bb121.i
                                        #   in Loop: Header=BB4_3 Depth=1
	pcalau12i	$a0, %pc_hi20(g_options+72)
	ori	$a1, $zero, 257
	st.h	$a1, $a0, %pc_lo12(g_options+72)
	b	.LBB4_3
.LBB4_70:                               # %sw.bb110.i
                                        #   in Loop: Header=BB4_3 Depth=1
	pcalau12i	$a0, %pc_hi20(g_options+112)
	ori	$a1, $zero, 1
	st.b	$a1, $a0, %pc_lo12(g_options+112)
	b	.LBB4_3
.LBB4_71:                               # %for.cond.preheader.i
                                        #   in Loop: Header=BB4_3 Depth=1
	ld.d	$s1, $sp, 168                   # 8-byte Folded Reload
	bltz	$fp, .LBB4_92
# %bb.72:                               # %for.body.preheader.i
                                        #   in Loop: Header=BB4_3 Depth=1
	move	$s0, $zero
	addi.d	$a0, $fp, 1
	bstrpick.d	$a0, $a0, 31, 0
	slli.d	$s2, $a0, 5
	b	.LBB4_75
.LBB4_73:                               # %if.then58.i
                                        #   in Loop: Header=BB4_75 Depth=2
	pcalau12i	$a0, %pc_hi20(g_options+344)
	st.b	$zero, $a0, %pc_lo12(g_options+344)
	.p2align	4, , 16
.LBB4_74:                               # %for.inc.i
                                        #   in Loop: Header=BB4_75 Depth=2
	addi.d	$s0, $s0, 32
	beq	$s2, $s0, .LBB4_92
.LBB4_75:                               # %for.body.i
                                        #   Parent Loop BB4_3 Depth=1
                                        # =>  This Inner Loop Header: Depth=2
	ld.d	$a0, $sp, 408
	add.d	$a0, $a0, $s0
	ld.d	$a1, $a0, 8
	addi.d	$a1, $a1, -4
	ori	$a2, $zero, 5
	bltu	$a2, $a1, .LBB4_86
# %bb.76:                               # %for.body.i
                                        #   in Loop: Header=BB4_75 Depth=2
	slli.d	$a1, $a1, 2
	pcalau12i	$a2, %pc_hi20(.LJTI4_1)
	addi.d	$a2, $a2, %pc_lo12(.LJTI4_1)
	ldx.w	$a1, $a2, $a1
	add.d	$a1, $a2, $a1
	jr	$a1
.LBB4_77:                               # %invoke.cont50.i
                                        #   in Loop: Header=BB4_75 Depth=2
	ld.d	$a0, $a0, 0
	ld.w	$a0, $a0, 0
	lu12i.w	$a1, 460535
	ori	$a1, $a1, 612
	bne	$a0, $a1, .LBB4_86
# %bb.78:                               # %if.then52.i
                                        #   in Loop: Header=BB4_75 Depth=2
	pcalau12i	$a0, %pc_hi20(g_options+344)
	ori	$a1, $zero, 1
	st.b	$a1, $a0, %pc_lo12(g_options+344)
	b	.LBB4_74
.LBB4_79:                               # %invoke.cont56.i
                                        #   in Loop: Header=BB4_75 Depth=2
	ld.d	$a0, $a0, 0
	pcalau12i	$a1, %pc_hi20(.L.str.60)
	addi.d	$a1, $a1, %pc_lo12(.L.str.60)
	ori	$a2, $zero, 6
	pcaddu18i	$ra, %call36(bcmp)
	jirl	$ra, $ra, 0
	bnez	$a0, .LBB4_86
	b	.LBB4_73
.LBB4_80:                               # %invoke.cont62.i
                                        #   in Loop: Header=BB4_75 Depth=2
	ld.d	$a0, $a0, 0
	pcalau12i	$a1, %pc_hi20(.L.str.61)
	addi.d	$a1, $a1, %pc_lo12(.L.str.61)
	ori	$a2, $zero, 5
	pcaddu18i	$ra, %call36(bcmp)
	jirl	$ra, $ra, 0
	bnez	$a0, .LBB4_86
# %bb.81:                               # %if.then64.i
                                        #   in Loop: Header=BB4_75 Depth=2
	pcalau12i	$a0, %pc_hi20(g_options+345)
	ori	$a1, $zero, 1
	st.b	$a1, $a0, %pc_lo12(g_options+345)
	b	.LBB4_74
.LBB4_82:                               # %invoke.cont68.i
                                        #   in Loop: Header=BB4_75 Depth=2
	ld.d	$s4, $a0, 0
	pcalau12i	$a0, %pc_hi20(.L.str.62)
	addi.d	$a1, $a0, %pc_lo12(.L.str.62)
	ori	$a2, $zero, 7
	move	$a0, $s4
	pcaddu18i	$ra, %call36(bcmp)
	jirl	$ra, $ra, 0
	beqz	$a0, .LBB4_90
# %bb.83:                               # %invoke.cont74.i
                                        #   in Loop: Header=BB4_75 Depth=2
	pcalau12i	$a0, %pc_hi20(.L.str.63)
	addi.d	$a1, $a0, %pc_lo12(.L.str.63)
	ori	$a2, $zero, 7
	move	$a0, $s4
	pcaddu18i	$ra, %call36(bcmp)
	jirl	$ra, $ra, 0
	bnez	$a0, .LBB4_86
# %bb.84:                               # %if.then76.i
                                        #   in Loop: Header=BB4_75 Depth=2
	pcalau12i	$a0, %pc_hi20(g_options+346)
	ori	$a1, $zero, 1
	st.b	$a1, $a0, %pc_lo12(g_options+346)
	b	.LBB4_74
.LBB4_85:                               # %invoke.cont80.i
                                        #   in Loop: Header=BB4_75 Depth=2
	ld.d	$a0, $a0, 0
	pcalau12i	$a1, %pc_hi20(.L.str.64)
	addi.d	$a1, $a1, %pc_lo12(.L.str.64)
	ori	$a2, $zero, 9
	pcaddu18i	$ra, %call36(bcmp)
	jirl	$ra, $ra, 0
	beqz	$a0, .LBB4_91
	.p2align	4, , 16
.LBB4_86:                               # %if.else83.i
                                        #   in Loop: Header=BB4_75 Depth=2
.Ltmp9:                                 # EH_LABEL
	pcaddu18i	$ra, %call36(_ZN2kc10NoFileLineEv)
	jirl	$ra, $ra, 0
.Ltmp10:                                # EH_LABEL
# %bb.87:                               # %invoke.cont84.i
                                        #   in Loop: Header=BB4_75 Depth=2
	move	$s4, $a0
	ld.d	$a0, $sp, 408
	ldx.d	$a1, $a0, $s0
.Ltmp11:                                # EH_LABEL
	pcalau12i	$a0, %pc_hi20(.L.str.65)
	addi.d	$a0, $a0, %pc_lo12(.L.str.65)
	pcaddu18i	$ra, %call36(_ZN2kc9Problem2SEPKcS1_)
	jirl	$ra, $ra, 0
	move	$a1, $a0
.Ltmp12:                                # EH_LABEL
# %bb.88:                               # %invoke.cont89.i
                                        #   in Loop: Header=BB4_75 Depth=2
.Ltmp13:                                # EH_LABEL
	move	$a0, $s4
	pcaddu18i	$ra, %call36(_ZN2kc7WarningEPNS_13impl_filelineEPNS_12impl_problemE)
	jirl	$ra, $ra, 0
.Ltmp14:                                # EH_LABEL
# %bb.89:                               # %invoke.cont91.i
                                        #   in Loop: Header=BB4_75 Depth=2
.Ltmp15:                                # EH_LABEL
	pcaddu18i	$ra, %call36(_ZN2kc8v_reportEPNS_10impl_errorE)
	jirl	$ra, $ra, 0
.Ltmp16:                                # EH_LABEL
	b	.LBB4_74
.LBB4_90:                               # %if.then70.i
                                        #   in Loop: Header=BB4_75 Depth=2
	pcalau12i	$a0, %pc_hi20(g_options+345)
	st.b	$zero, $a0, %pc_lo12(g_options+345)
	b	.LBB4_74
.LBB4_91:                               # %if.then82.i
                                        #   in Loop: Header=BB4_75 Depth=2
	pcalau12i	$a0, %pc_hi20(g_options+346)
	st.b	$zero, $a0, %pc_lo12(g_options+346)
	b	.LBB4_74
.LBB4_92:                               # %for.cond.cleanup.i
                                        #   in Loop: Header=BB4_3 Depth=1
	ld.d	$a0, $sp, 408
	ld.d	$fp, $sp, 416
	beq	$a0, $fp, .LBB4_102
# %bb.93:                               # %for.body.i.i.i.preheader
                                        #   in Loop: Header=BB4_3 Depth=1
	addi.d	$s0, $a0, 16
	addi.d	$s2, $sp, 456
	b	.LBB4_95
	.p2align	4, , 16
.LBB4_94:                               # %_ZSt8_DestroyINSt7__cxx1112basic_stringIcSt11char_traitsIcESaIcEEEEvPT_.exit.i.i.i
                                        #   in Loop: Header=BB4_95 Depth=2
	addi.d	$a0, $s0, 16
	addi.d	$s0, $s0, 32
	beq	$a0, $fp, .LBB4_100
.LBB4_95:                               # %for.body.i.i.i
                                        #   Parent Loop BB4_3 Depth=1
                                        # =>  This Inner Loop Header: Depth=2
	ld.d	$a0, $s0, -16
	beq	$s0, $a0, .LBB4_94
# %bb.96:                               # %if.then.i.i.i.i.i.i
                                        #   in Loop: Header=BB4_95 Depth=2
	ld.d	$a1, $s0, 0
	addi.d	$a1, $a1, 1
	pcaddu18i	$ra, %call36(_ZdlPvm)
	jirl	$ra, $ra, 0
	b	.LBB4_94
.LBB4_97:                               # %lor.lhs.false.i
                                        #   in Loop: Header=BB4_3 Depth=1
	move	$a0, $s4
	pcaddu18i	$ra, %call36(strlen)
	jirl	$ra, $ra, 0
	add.d	$a0, $s4, $a0
	ld.bu	$a1, $a0, -1
	ori	$a2, $zero, 107
	bne	$a1, $a2, .LBB4_99
# %bb.98:                               # %land.lhs.true171.i
                                        #   in Loop: Header=BB4_3 Depth=1
	ld.bu	$a0, $a0, -2
	ori	$a1, $zero, 46
	beq	$a0, $a1, .LBB4_58
.LBB4_99:                               # %if.end181.i
                                        #   in Loop: Header=BB4_3 Depth=1
	pcalau12i	$a0, %pc_hi20(g_options)
	addi.d	$fp, $a0, %pc_lo12(g_options)
	ld.d	$s5, $fp, 160
	move	$a0, $s4
	pcaddu18i	$ra, %call36(strlen)
	jirl	$ra, $ra, 0
	move	$a4, $a0
	addi.d	$a0, $fp, 152
	b	.LBB4_2
.LBB4_100:                              # %invoke.contthread-pre-split.i.i
                                        #   in Loop: Header=BB4_3 Depth=1
	ld.d	$a0, $sp, 408
	bnez	$a0, .LBB4_103
	b	.LBB4_3
.LBB4_101:                              # %if.then18.i
                                        #   in Loop: Header=BB4_3 Depth=1
	pcalau12i	$a0, %pc_hi20(g_options)
	addi.d	$a0, $a0, %pc_lo12(g_options)
	ori	$a1, $zero, 257
	st.h	$a1, $a0, 344
	ori	$a1, $zero, 1
	st.b	$a1, $a0, 346
	b	.LBB4_3
.LBB4_102:                              #   in Loop: Header=BB4_3 Depth=1
	addi.d	$s2, $sp, 456
	beqz	$a0, .LBB4_3
.LBB4_103:                              # %if.then.i.i.i.i
                                        #   in Loop: Header=BB4_3 Depth=1
	ld.d	$a1, $sp, 424
	sub.d	$a1, $a1, $a0
	pcaddu18i	$ra, %call36(_ZdlPvm)
	jirl	$ra, $ra, 0
	b	.LBB4_3
.LBB4_104:                              # %if.then.i.i681.i
.Ltmp6:                                 # EH_LABEL
	pcalau12i	$a0, %pc_hi20(.L.str.92)
	addi.d	$a0, $a0, %pc_lo12(.L.str.92)
	pcaddu18i	$ra, %call36(_ZSt20__throw_length_errorPKc)
	jirl	$ra, $ra, 0
.Ltmp7:                                 # EH_LABEL
# %bb.105:                              # %.noexc682.i
.LBB4_106:                              # %sw.bb3.i
	ld.d	$a0, $sp, 128                   # 8-byte Folded Reload
	ld.d	$a0, $a0, %pc_lo12(g_progname)
	ld.d	$a1, $a0, 8
	pcalau12i	$a0, %pc_hi20(.L.str.86)
	addi.d	$a0, $a0, %pc_lo12(.L.str.86)
	pcaddu18i	$ra, %call36(printf)
	jirl	$ra, $ra, 0
	pcalau12i	$a0, %pc_hi20(.Lstr)
	addi.d	$a0, $a0, %pc_lo12(.Lstr)
	pcaddu18i	$ra, %call36(puts)
	jirl	$ra, $ra, 0
	pcalau12i	$a0, %pc_hi20(.Lstr.1)
	addi.d	$a0, $a0, %pc_lo12(.Lstr.1)
	pcaddu18i	$ra, %call36(puts)
	jirl	$ra, $ra, 0
	pcalau12i	$a0, %pc_hi20(.Lstr.2)
	addi.d	$a0, $a0, %pc_lo12(.Lstr.2)
	pcaddu18i	$ra, %call36(puts)
	jirl	$ra, $ra, 0
	pcalau12i	$a0, %pc_hi20(.Lstr.3)
	addi.d	$a0, $a0, %pc_lo12(.Lstr.3)
	pcaddu18i	$ra, %call36(puts)
	jirl	$ra, $ra, 0
	pcalau12i	$a0, %pc_hi20(.L.str.91)
	addi.d	$a0, $a0, %pc_lo12(.L.str.91)
	pcaddu18i	$ra, %call36(printf)
	jirl	$ra, $ra, 0
	move	$a0, $zero
	pcaddu18i	$ra, %call36(_ZN2kc5leaveEi)
	jirl	$ra, $ra, 0
.LBB4_107:                              # %while.end185.i
	pcalau12i	$a0, %pc_hi20(g_options)
	addi.d	$s8, $a0, %pc_lo12(g_options)
	ld.bu	$a0, $s8, 66
	ori	$a1, $zero, 1
	bne	$a0, $a1, .LBB4_109
# %bb.108:                              # %while.end185.i
	ld.b	$a0, $s8, 69
	andi	$a0, $a0, 1
	bnez	$a0, .LBB4_110
.LBB4_109:                              # %if.then189.i
	st.b	$zero, $s8, 70
.LBB4_110:                              # %if.end190.i
	pcalau12i	$a0, %got_pc_hi20(optind)
	ld.d	$a0, $a0, %got_pc_lo12(optind)
	st.d	$a0, $sp, 128                   # 8-byte Folded Spill
	ld.w	$a0, $a0, 0
	bge	$a0, $s3, .LBB4_218
# %bb.111:                              # %for.body195.lr.ph.i
	addi.d	$s6, $sp, 264
	addi.d	$s3, $sp, 296
	ld.d	$a1, $sp, 184                   # 8-byte Folded Reload
	sub.d	$fp, $a1, $a0
	alsl.d	$s0, $a0, $s1, 3
	addi.w	$a0, $zero, -2
	lu52i.d	$a0, $a0, 2047
	st.d	$a0, $sp, 208                   # 8-byte Folded Spill
	addi.w	$a0, $zero, -4
	lu52i.d	$a0, $a0, 2047
	st.d	$a0, $sp, 192                   # 8-byte Folded Spill
	pcalau12i	$a0, %pc_hi20(.L.str.73)
	addi.d	$a0, $a0, %pc_lo12(.L.str.73)
	st.d	$a0, $sp, 176                   # 8-byte Folded Spill
	b	.LBB4_114
	.p2align	4, , 16
.LBB4_112:                              # %if.then214.i
                                        #   in Loop: Header=BB4_114 Depth=1
	pcaddu18i	$ra, %call36(_ZN2kc10NoFileLineEv)
	jirl	$ra, $ra, 0
	ld.d	$a1, $s0, 0
	move	$s4, $a0
	pcalau12i	$a0, %pc_hi20(.L.str.72)
	addi.d	$a0, $a0, %pc_lo12(.L.str.72)
	pcaddu18i	$ra, %call36(_ZN2kc9Problem2SEPKcS1_)
	jirl	$ra, $ra, 0
	move	$a1, $a0
	move	$a0, $s4
	pcaddu18i	$ra, %call36(_ZN2kc8NonFatalEPNS_13impl_filelineEPNS_12impl_problemE)
	jirl	$ra, $ra, 0
	pcaddu18i	$ra, %call36(_ZN2kc8v_reportEPNS_10impl_errorE)
	jirl	$ra, $ra, 0
.LBB4_113:                              # %if.end354.i
                                        #   in Loop: Header=BB4_114 Depth=1
	addi.w	$fp, $fp, -1
	addi.d	$s0, $s0, 8
	beqz	$fp, .LBB4_218
.LBB4_114:                              # %for.body195.i
                                        # =>This Inner Loop Header: Depth=1
	ld.d	$s4, $s0, 0
	move	$a0, $s4
	pcaddu18i	$ra, %call36(strlen)
	jirl	$ra, $ra, 0
	move	$s5, $a0
	ori	$a1, $zero, 47
	move	$a0, $s4
	pcaddu18i	$ra, %call36(strrchr)
	jirl	$ra, $ra, 0
	add.d	$a1, $s4, $s5
	ld.bu	$a2, $a1, -1
	move	$s7, $a0
	ori	$a0, $zero, 107
	beq	$a2, $a0, .LBB4_116
# %bb.115:                              # %land.lhs.true207.i
                                        #   in Loop: Header=BB4_114 Depth=1
	ld.bu	$a0, $a1, -2
	ori	$a1, $zero, 46
	beq	$a0, $a1, .LBB4_112
.LBB4_116:                              # %if.else220.i
                                        #   in Loop: Header=BB4_114 Depth=1
	st.d	$s0, $sp, 200                   # 8-byte Folded Spill
	move	$s0, $fp
	move	$fp, $s3
	move	$s3, $s6
	ld.d	$s5, $s8, 184
	move	$s6, $s8
	ld.d	$s8, $s8, 192
	st.d	$s2, $sp, 440
	st.d	$zero, $sp, 448
	st.b	$zero, $sp, 456
	addi.d	$a1, $s8, 3
.Ltmp21:                                # EH_LABEL
	addi.d	$a0, $sp, 440
	pcaddu18i	$ra, %call36(_ZNSt7__cxx1112basic_stringIcSt11char_traitsIcESaIcEE7reserveEm)
	jirl	$ra, $ra, 0
.Ltmp22:                                # EH_LABEL
	addi.d	$s1, $sp, 392
# %bb.117:                              # %invoke.cont.i.i.i
                                        #   in Loop: Header=BB4_114 Depth=1
	ld.d	$a0, $sp, 448
	ld.d	$a1, $sp, 208                   # 8-byte Folded Reload
	sub.d	$a0, $a1, $a0
	bltu	$a0, $s8, .LBB4_302
# %bb.118:                              # %_ZNKSt7__cxx1112basic_stringIcSt11char_traitsIcESaIcEE15_M_check_lengthEmmPKc.exit.i.i.i.i
                                        #   in Loop: Header=BB4_114 Depth=1
.Ltmp23:                                # EH_LABEL
	addi.d	$a0, $sp, 440
	move	$a1, $s5
	move	$a2, $s8
	pcaddu18i	$ra, %call36(_ZNSt7__cxx1112basic_stringIcSt11char_traitsIcESaIcEE9_M_appendEPKcm)
	jirl	$ra, $ra, 0
.Ltmp24:                                # EH_LABEL
# %bb.119:                              # %invoke.cont1.i.i.i
                                        #   in Loop: Header=BB4_114 Depth=1
	ld.d	$a0, $sp, 448
	ld.d	$a1, $sp, 192                   # 8-byte Folded Reload
	bgeu	$a0, $a1, .LBB4_302
# %bb.120:                              # %_ZNKSt7__cxx1112basic_stringIcSt11char_traitsIcESaIcEE15_M_check_lengthEmmPKc.exit.i9.i.i.i
                                        #   in Loop: Header=BB4_114 Depth=1
.Ltmp25:                                # EH_LABEL
	addi.d	$a0, $sp, 440
	ori	$a2, $zero, 3
	ld.d	$a1, $sp, 176                   # 8-byte Folded Reload
	pcaddu18i	$ra, %call36(_ZNSt7__cxx1112basic_stringIcSt11char_traitsIcESaIcEE9_M_appendEPKcm)
	jirl	$ra, $ra, 0
.Ltmp26:                                # EH_LABEL
# %bb.121:                              # %_ZStplIcSt11char_traitsIcESaIcEENSt7__cxx1112basic_stringIT_T0_T1_EERKS8_PKS5_.exit.i
                                        #   in Loop: Header=BB4_114 Depth=1
	sltui	$a0, $s7, 1
	addi.d	$a1, $s7, 1
	ld.d	$s7, $sp, 440
	masknez	$a1, $a1, $a0
	maskeqz	$a0, $s4, $a0
	or	$s4, $a0, $a1
	move	$a0, $s4
	move	$a1, $s7
	pcaddu18i	$ra, %call36(strcmp)
	jirl	$ra, $ra, 0
	beqz	$a0, .LBB4_160
# %bb.122:                              # %lor.lhs.false225.i
                                        #   in Loop: Header=BB4_114 Depth=1
	move	$s8, $s6
	ld.d	$s5, $s6, 184
	ld.d	$s7, $s6, 192
	addi.d	$a0, $sp, 424
	st.d	$a0, $sp, 408
	st.d	$zero, $sp, 416
	st.b	$zero, $sp, 424
	addi.d	$a1, $s7, 4
.Ltmp28:                                # EH_LABEL
	addi.d	$a0, $sp, 408
	pcaddu18i	$ra, %call36(_ZNSt7__cxx1112basic_stringIcSt11char_traitsIcESaIcEE7reserveEm)
	jirl	$ra, $ra, 0
.Ltmp29:                                # EH_LABEL
	move	$s6, $s3
	move	$s3, $fp
	move	$fp, $s0
	ld.d	$s0, $sp, 200                   # 8-byte Folded Reload
# %bb.123:                              # %invoke.cont.i.i245.i
                                        #   in Loop: Header=BB4_114 Depth=1
	ld.d	$a0, $sp, 416
	ld.d	$a1, $sp, 208                   # 8-byte Folded Reload
	sub.d	$a0, $a1, $a0
	bltu	$a0, $s7, .LBB4_304
# %bb.124:                              # %_ZNKSt7__cxx1112basic_stringIcSt11char_traitsIcESaIcEE15_M_check_lengthEmmPKc.exit.i.i.i249.i
                                        #   in Loop: Header=BB4_114 Depth=1
.Ltmp30:                                # EH_LABEL
	addi.d	$a0, $sp, 408
	move	$a1, $s5
	move	$a2, $s7
	pcaddu18i	$ra, %call36(_ZNSt7__cxx1112basic_stringIcSt11char_traitsIcESaIcEE9_M_appendEPKcm)
	jirl	$ra, $ra, 0
.Ltmp31:                                # EH_LABEL
# %bb.125:                              # %invoke.cont1.i.i251.i
                                        #   in Loop: Header=BB4_114 Depth=1
	ld.d	$a0, $sp, 416
	addi.w	$a1, $zero, -5
	lu52i.d	$a1, $a1, 2047
	bgeu	$a0, $a1, .LBB4_304
# %bb.126:                              # %_ZNKSt7__cxx1112basic_stringIcSt11char_traitsIcESaIcEE15_M_check_lengthEmmPKc.exit.i9.i.i255.i
                                        #   in Loop: Header=BB4_114 Depth=1
.Ltmp32:                                # EH_LABEL
	pcalau12i	$a0, %pc_hi20(.L.str.74)
	addi.d	$a1, $a0, %pc_lo12(.L.str.74)
	addi.d	$a0, $sp, 408
	ori	$a2, $zero, 4
	pcaddu18i	$ra, %call36(_ZNSt7__cxx1112basic_stringIcSt11char_traitsIcESaIcEE9_M_appendEPKcm)
	jirl	$ra, $ra, 0
.Ltmp33:                                # EH_LABEL
# %bb.127:                              # %invoke.cont228.i
                                        #   in Loop: Header=BB4_114 Depth=1
	ld.d	$s7, $sp, 408
	move	$a0, $s4
	move	$a1, $s7
	pcaddu18i	$ra, %call36(strcmp)
	jirl	$ra, $ra, 0
	beqz	$a0, .LBB4_161
# %bb.128:                              # %lor.lhs.false233.i
                                        #   in Loop: Header=BB4_114 Depth=1
	ld.d	$s5, $s8, 184
	ld.d	$s7, $s8, 192
	st.d	$s1, $sp, 376
	st.d	$zero, $sp, 384
	st.b	$zero, $sp, 392
	addi.d	$a1, $s7, 6
.Ltmp35:                                # EH_LABEL
	addi.d	$a0, $sp, 376
	pcaddu18i	$ra, %call36(_ZNSt7__cxx1112basic_stringIcSt11char_traitsIcESaIcEE7reserveEm)
	jirl	$ra, $ra, 0
.Ltmp36:                                # EH_LABEL
# %bb.129:                              # %invoke.cont.i.i272.i
                                        #   in Loop: Header=BB4_114 Depth=1
	ld.d	$a0, $sp, 384
	ld.d	$a1, $sp, 208                   # 8-byte Folded Reload
	sub.d	$a0, $a1, $a0
	bltu	$a0, $s7, .LBB4_320
# %bb.130:                              # %_ZNKSt7__cxx1112basic_stringIcSt11char_traitsIcESaIcEE15_M_check_lengthEmmPKc.exit.i.i.i276.i
                                        #   in Loop: Header=BB4_114 Depth=1
.Ltmp37:                                # EH_LABEL
	addi.d	$a0, $sp, 376
	move	$a1, $s5
	move	$a2, $s7
	pcaddu18i	$ra, %call36(_ZNSt7__cxx1112basic_stringIcSt11char_traitsIcESaIcEE9_M_appendEPKcm)
	jirl	$ra, $ra, 0
.Ltmp38:                                # EH_LABEL
# %bb.131:                              # %invoke.cont1.i.i278.i
                                        #   in Loop: Header=BB4_114 Depth=1
	ld.d	$a0, $sp, 384
	addi.w	$a1, $zero, -7
	lu52i.d	$a1, $a1, 2047
	bgeu	$a0, $a1, .LBB4_320
# %bb.132:                              # %_ZNKSt7__cxx1112basic_stringIcSt11char_traitsIcESaIcEE15_M_check_lengthEmmPKc.exit.i9.i.i282.i
                                        #   in Loop: Header=BB4_114 Depth=1
.Ltmp39:                                # EH_LABEL
	pcalau12i	$a0, %pc_hi20(.L.str.75)
	addi.d	$a1, $a0, %pc_lo12(.L.str.75)
	addi.d	$a0, $sp, 376
	ori	$a2, $zero, 6
	pcaddu18i	$ra, %call36(_ZNSt7__cxx1112basic_stringIcSt11char_traitsIcESaIcEE9_M_appendEPKcm)
	jirl	$ra, $ra, 0
.Ltmp40:                                # EH_LABEL
# %bb.133:                              # %invoke.cont237.i
                                        #   in Loop: Header=BB4_114 Depth=1
	ld.d	$s7, $sp, 376
	move	$a0, $s4
	move	$a1, $s7
	pcaddu18i	$ra, %call36(strcmp)
	jirl	$ra, $ra, 0
	beqz	$a0, .LBB4_215
# %bb.134:                              # %lor.lhs.false242.i
                                        #   in Loop: Header=BB4_114 Depth=1
	ld.d	$s5, $s8, 184
	ld.d	$s7, $s8, 192
	addi.d	$a0, $sp, 360
	st.d	$a0, $sp, 344
	st.d	$zero, $sp, 352
	st.b	$zero, $sp, 360
	addi.d	$a1, $s7, 8
.Ltmp42:                                # EH_LABEL
	addi.d	$a0, $sp, 344
	pcaddu18i	$ra, %call36(_ZNSt7__cxx1112basic_stringIcSt11char_traitsIcESaIcEE7reserveEm)
	jirl	$ra, $ra, 0
.Ltmp43:                                # EH_LABEL
# %bb.135:                              # %invoke.cont.i.i300.i
                                        #   in Loop: Header=BB4_114 Depth=1
	ld.d	$a0, $sp, 352
	ld.d	$a1, $sp, 208                   # 8-byte Folded Reload
	sub.d	$a0, $a1, $a0
	bltu	$a0, $s7, .LBB4_336
# %bb.136:                              # %_ZNKSt7__cxx1112basic_stringIcSt11char_traitsIcESaIcEE15_M_check_lengthEmmPKc.exit.i.i.i304.i
                                        #   in Loop: Header=BB4_114 Depth=1
.Ltmp44:                                # EH_LABEL
	addi.d	$a0, $sp, 344
	move	$a1, $s5
	move	$a2, $s7
	pcaddu18i	$ra, %call36(_ZNSt7__cxx1112basic_stringIcSt11char_traitsIcESaIcEE9_M_appendEPKcm)
	jirl	$ra, $ra, 0
.Ltmp45:                                # EH_LABEL
# %bb.137:                              # %invoke.cont1.i.i306.i
                                        #   in Loop: Header=BB4_114 Depth=1
	ld.d	$a0, $sp, 352
	addi.w	$a1, $zero, -9
	lu52i.d	$a1, $a1, 2047
	bgeu	$a0, $a1, .LBB4_336
# %bb.138:                              # %_ZNKSt7__cxx1112basic_stringIcSt11char_traitsIcESaIcEE15_M_check_lengthEmmPKc.exit.i9.i.i310.i
                                        #   in Loop: Header=BB4_114 Depth=1
.Ltmp46:                                # EH_LABEL
	pcalau12i	$a0, %pc_hi20(.L.str.76)
	addi.d	$a1, $a0, %pc_lo12(.L.str.76)
	addi.d	$a0, $sp, 344
	ori	$a2, $zero, 8
	pcaddu18i	$ra, %call36(_ZNSt7__cxx1112basic_stringIcSt11char_traitsIcESaIcEE9_M_appendEPKcm)
	jirl	$ra, $ra, 0
.Ltmp47:                                # EH_LABEL
# %bb.139:                              # %invoke.cont246.i
                                        #   in Loop: Header=BB4_114 Depth=1
	ld.d	$s7, $sp, 344
	move	$a0, $s4
	move	$a1, $s7
	pcaddu18i	$ra, %call36(strcmp)
	jirl	$ra, $ra, 0
	beqz	$a0, .LBB4_216
# %bb.140:                              # %lor.rhs.i
                                        #   in Loop: Header=BB4_114 Depth=1
	pcalau12i	$a0, %pc_hi20(.L.str.77)
	addi.d	$a1, $a0, %pc_lo12(.L.str.77)
	move	$a0, $s4
	pcaddu18i	$ra, %call36(strcmp)
	jirl	$ra, $ra, 0
	sltui	$s1, $a0, 1
	addi.d	$a0, $sp, 424
	addi.d	$a1, $sp, 360
	beq	$s7, $a1, .LBB4_142
.LBB4_141:                              # %if.then.i.i318.i
                                        #   in Loop: Header=BB4_114 Depth=1
	ld.d	$a0, $sp, 360
	addi.d	$a1, $a0, 1
	move	$a0, $s7
	pcaddu18i	$ra, %call36(_ZdlPvm)
	jirl	$ra, $ra, 0
	addi.d	$a0, $sp, 424
.LBB4_142:                              # %cleanup.done255.thread.i
                                        #   in Loop: Header=BB4_114 Depth=1
	ld.d	$s7, $sp, 376
	addi.d	$a1, $sp, 392
	beq	$s7, $a1, .LBB4_144
.LBB4_143:                              # %if.then.i.i326.i
                                        #   in Loop: Header=BB4_114 Depth=1
	ld.d	$a0, $sp, 392
	addi.d	$a1, $a0, 1
	move	$a0, $s7
	pcaddu18i	$ra, %call36(_ZdlPvm)
	jirl	$ra, $ra, 0
	addi.d	$a0, $sp, 424
.LBB4_144:                              # %cleanup.done269.thread.i
                                        #   in Loop: Header=BB4_114 Depth=1
	ld.d	$s7, $sp, 408
	beq	$s7, $a0, .LBB4_146
.LBB4_145:                              # %if.then.i.i334.i
                                        #   in Loop: Header=BB4_114 Depth=1
	ld.d	$a0, $sp, 424
	addi.d	$a1, $a0, 1
	move	$a0, $s7
	pcaddu18i	$ra, %call36(_ZdlPvm)
	jirl	$ra, $ra, 0
.LBB4_146:                              # %_ZNSt7__cxx1112basic_stringIcSt11char_traitsIcESaIcEED2Ev.exit340.i
                                        #   in Loop: Header=BB4_114 Depth=1
	ld.d	$s7, $sp, 440
	beq	$s7, $s2, .LBB4_148
.LBB4_147:                              # %if.then.i.i342.i
                                        #   in Loop: Header=BB4_114 Depth=1
	ld.d	$a0, $sp, 456
	addi.d	$a1, $a0, 1
	move	$a0, $s7
	pcaddu18i	$ra, %call36(_ZdlPvm)
	jirl	$ra, $ra, 0
.LBB4_148:                              # %_ZNSt7__cxx1112basic_stringIcSt11char_traitsIcESaIcEED2Ev.exit348.i
                                        #   in Loop: Header=BB4_114 Depth=1
	beqz	$s1, .LBB4_158
# %bb.149:                              # %if.then290.i
                                        #   in Loop: Header=BB4_114 Depth=1
	ld.d	$s4, $s8, 184
	ld.d	$s7, $s8, 192
	addi.d	$a0, $sp, 232
	st.d	$a0, $sp, 216
	st.d	$zero, $sp, 224
	st.b	$zero, $sp, 232
	addi.d	$a1, $s7, 27
.Ltmp58:                                # EH_LABEL
	addi.d	$a0, $sp, 216
	pcaddu18i	$ra, %call36(_ZNSt7__cxx1112basic_stringIcSt11char_traitsIcESaIcEE7reserveEm)
	jirl	$ra, $ra, 0
.Ltmp59:                                # EH_LABEL
# %bb.150:                              # %invoke.cont.i.i360.i
                                        #   in Loop: Header=BB4_114 Depth=1
	ld.d	$a0, $sp, 224
	addi.w	$a1, $zero, -29
	lu52i.d	$a1, $a1, 2047
	bltu	$a1, $a0, .LBB4_306
# %bb.151:                              # %_ZNKSt7__cxx1112basic_stringIcSt11char_traitsIcESaIcEE15_M_check_lengthEmmPKc.exit.i.i.i364.i
                                        #   in Loop: Header=BB4_114 Depth=1
.Ltmp60:                                # EH_LABEL
	pcalau12i	$a0, %pc_hi20(.L.str.78)
	addi.d	$a1, $a0, %pc_lo12(.L.str.78)
	addi.d	$a0, $sp, 216
	ori	$a2, $zero, 27
	pcaddu18i	$ra, %call36(_ZNSt7__cxx1112basic_stringIcSt11char_traitsIcESaIcEE9_M_appendEPKcm)
	jirl	$ra, $ra, 0
.Ltmp61:                                # EH_LABEL
# %bb.152:                              # %invoke.cont1.i.i366.i
                                        #   in Loop: Header=BB4_114 Depth=1
	ld.d	$a0, $sp, 224
	ld.d	$a1, $sp, 208                   # 8-byte Folded Reload
	sub.d	$a0, $a1, $a0
	bltu	$a0, $s7, .LBB4_306
# %bb.153:                              # %_ZNKSt7__cxx1112basic_stringIcSt11char_traitsIcESaIcEE15_M_check_lengthEmmPKc.exit.i9.i.i370.i
                                        #   in Loop: Header=BB4_114 Depth=1
.Ltmp62:                                # EH_LABEL
	addi.d	$a0, $sp, 216
	move	$a1, $s4
	move	$a2, $s7
	pcaddu18i	$ra, %call36(_ZNSt7__cxx1112basic_stringIcSt11char_traitsIcESaIcEE9_M_appendEPKcm)
	jirl	$ra, $ra, 0
.Ltmp63:                                # EH_LABEL
# %bb.154:                              # %_ZStplIcSt11char_traitsIcESaIcEENSt7__cxx1112basic_stringIT_T0_T1_EEPKS5_RKS8_.exit.i
                                        #   in Loop: Header=BB4_114 Depth=1
	ld.d	$a0, $sp, 224
	addi.w	$a1, $zero, -8
	lu52i.d	$a1, $a1, 2047
	bgeu	$a0, $a1, .LBB4_322
# %bb.155:                              # %_ZNSt7__cxx1112basic_stringIcSt11char_traitsIcESaIcEE6appendEPKc.exit.i.i
                                        #   in Loop: Header=BB4_114 Depth=1
.Ltmp65:                                # EH_LABEL
	pcalau12i	$a0, %pc_hi20(.L.str.79)
	addi.d	$a1, $a0, %pc_lo12(.L.str.79)
	addi.d	$a0, $sp, 216
	ori	$a2, $zero, 7
	pcaddu18i	$ra, %call36(_ZNSt7__cxx1112basic_stringIcSt11char_traitsIcESaIcEE9_M_appendEPKcm)
	jirl	$ra, $ra, 0
.Ltmp66:                                # EH_LABEL
# %bb.156:                              # %call2.i.i.noexc.i
                                        #   in Loop: Header=BB4_114 Depth=1
	st.d	$s6, $sp, 248
	ld.d	$a1, $a0, 0
	addi.d	$s4, $a0, 16
	beq	$a1, $s4, .LBB4_164
# %bb.157:                              # %if.else.i.i379.i
                                        #   in Loop: Header=BB4_114 Depth=1
	ld.d	$a2, $a0, 16
	st.d	$a2, $sp, 264
	ld.d	$s1, $a0, 8
	st.d	$a1, $sp, 248
	b	.LBB4_165
	.p2align	4, , 16
.LBB4_158:                              # %if.else339.i
                                        #   in Loop: Header=BB4_114 Depth=1
	ld.d	$a0, $s0, 0
	pcalau12i	$a1, %pc_hi20(.L.str.83)
	addi.d	$a1, $a1, %pc_lo12(.L.str.83)
	pcaddu18i	$ra, %call36(fopen)
	jirl	$ra, $ra, 0
	pcalau12i	$a1, %got_pc_hi20(yyin)
	ld.d	$a1, $a1, %got_pc_lo12(yyin)
	st.d	$a0, $a1, 0
	beqz	$a0, .LBB4_162
# %bb.159:                              # %if.else350.i
                                        #   in Loop: Header=BB4_114 Depth=1
	pcaddu18i	$ra, %call36(fclose)
	jirl	$ra, $ra, 0
	b	.LBB4_163
	.p2align	4, , 16
.LBB4_160:                              #   in Loop: Header=BB4_114 Depth=1
	ori	$s1, $zero, 1
	move	$s8, $s6
	move	$s6, $s3
	move	$s3, $fp
	move	$fp, $s0
	ld.d	$s0, $sp, 200                   # 8-byte Folded Reload
	bne	$s7, $s2, .LBB4_147
	b	.LBB4_148
.LBB4_161:                              #   in Loop: Header=BB4_114 Depth=1
	ori	$s1, $zero, 1
	addi.d	$a0, $sp, 424
	bne	$s7, $a0, .LBB4_145
	b	.LBB4_146
.LBB4_162:                              # %if.then344.i
                                        #   in Loop: Header=BB4_114 Depth=1
	pcaddu18i	$ra, %call36(_ZN2kc10NoFileLineEv)
	jirl	$ra, $ra, 0
	ld.d	$a1, $s0, 0
	move	$s4, $a0
	pcalau12i	$a0, %pc_hi20(.L.str.84)
	addi.d	$a0, $a0, %pc_lo12(.L.str.84)
	pcaddu18i	$ra, %call36(_ZN2kc9Problem2SEPKcS1_)
	jirl	$ra, $ra, 0
	move	$a1, $a0
	move	$a0, $s4
	pcaddu18i	$ra, %call36(_ZN2kc8NonFatalEPNS_13impl_filelineEPNS_12impl_problemE)
	jirl	$ra, $ra, 0
	pcaddu18i	$ra, %call36(_ZN2kc8v_reportEPNS_10impl_errorE)
	jirl	$ra, $ra, 0
.LBB4_163:                              # %if.end354.i
                                        #   in Loop: Header=BB4_114 Depth=1
	ld.d	$s1, $sp, 168                   # 8-byte Folded Reload
	b	.LBB4_113
.LBB4_164:                              # %_ZNSt11char_traitsIcE4copyEPcPKcm.exit.i.i.i
                                        #   in Loop: Header=BB4_114 Depth=1
	ld.d	$s1, $a0, 8
	addi.d	$a2, $s1, 1
	move	$s2, $a0
	move	$a0, $s6
	move	$a1, $s4
	pcaddu18i	$ra, %call36(memcpy)
	jirl	$ra, $ra, 0
	move	$a0, $s2
	addi.d	$s2, $sp, 456
.LBB4_165:                              # %invoke.cont299.i
                                        #   in Loop: Header=BB4_114 Depth=1
	addi.d	$s5, $sp, 328
	st.d	$s1, $sp, 256
	st.d	$s4, $a0, 0
	st.d	$zero, $a0, 8
	st.b	$zero, $a0, 16
	ld.d	$a0, $sp, 256
	ld.d	$a2, $s8, 192
	ld.d	$a1, $sp, 208                   # 8-byte Folded Reload
	sub.d	$a0, $a1, $a0
	bltu	$a0, $a2, .LBB4_324
# %bb.166:                              # %_ZNSt7__cxx1112basic_stringIcSt11char_traitsIcESaIcEE6appendERKS4_.exit.i.i
                                        #   in Loop: Header=BB4_114 Depth=1
.Ltmp68:                                # EH_LABEL
	ld.d	$a1, $s8, 184
	addi.d	$a0, $sp, 248
	pcaddu18i	$ra, %call36(_ZNSt7__cxx1112basic_stringIcSt11char_traitsIcESaIcEE9_M_appendEPKcm)
	jirl	$ra, $ra, 0
.Ltmp69:                                # EH_LABEL
# %bb.167:                              # %call.i.i.i391.noexc.i
                                        #   in Loop: Header=BB4_114 Depth=1
	st.d	$s3, $sp, 280
	ld.d	$a1, $a0, 0
	addi.d	$s4, $a0, 16
	beq	$a1, $s4, .LBB4_169
# %bb.168:                              # %if.else.i.i393.i
                                        #   in Loop: Header=BB4_114 Depth=1
	ld.d	$a2, $a0, 16
	st.d	$a2, $sp, 296
	ld.d	$s1, $a0, 8
	st.d	$a1, $sp, 280
	b	.LBB4_170
.LBB4_169:                              # %_ZNSt11char_traitsIcE4copyEPcPKcm.exit.i.i399.i
                                        #   in Loop: Header=BB4_114 Depth=1
	ld.d	$s1, $a0, 8
	addi.d	$a2, $s1, 1
	move	$s2, $a0
	move	$a0, $s3
	move	$a1, $s4
	pcaddu18i	$ra, %call36(memcpy)
	jirl	$ra, $ra, 0
	move	$a0, $s2
	addi.d	$s2, $sp, 456
.LBB4_170:                              # %invoke.cont301.i
                                        #   in Loop: Header=BB4_114 Depth=1
	st.d	$s1, $sp, 288
	st.d	$s4, $a0, 0
	st.d	$zero, $a0, 8
	ld.d	$a1, $sp, 288
	addi.w	$a2, $zero, -9
	lu52i.d	$a2, $a2, 2047
	st.b	$zero, $a0, 16
	bgeu	$a1, $a2, .LBB4_326
# %bb.171:                              # %_ZNSt7__cxx1112basic_stringIcSt11char_traitsIcESaIcEE6appendEPKc.exit.i410.i
                                        #   in Loop: Header=BB4_114 Depth=1
.Ltmp71:                                # EH_LABEL
	pcalau12i	$a0, %pc_hi20(.L.str.80)
	addi.d	$a1, $a0, %pc_lo12(.L.str.80)
	addi.d	$a0, $sp, 280
	ori	$a2, $zero, 8
	pcaddu18i	$ra, %call36(_ZNSt7__cxx1112basic_stringIcSt11char_traitsIcESaIcEE9_M_appendEPKcm)
	jirl	$ra, $ra, 0
.Ltmp72:                                # EH_LABEL
# %bb.172:                              # %call2.i.i.noexc424.i
                                        #   in Loop: Header=BB4_114 Depth=1
	st.d	$s5, $sp, 312
	ld.d	$a1, $a0, 0
	addi.d	$s4, $a0, 16
	beq	$a1, $s4, .LBB4_174
# %bb.173:                              # %if.else.i.i412.i
                                        #   in Loop: Header=BB4_114 Depth=1
	ld.d	$a2, $a0, 16
	st.d	$a2, $sp, 328
	ld.d	$s1, $a0, 8
	st.d	$a1, $sp, 312
	b	.LBB4_175
.LBB4_174:                              # %_ZNSt11char_traitsIcE4copyEPcPKcm.exit.i.i418.i
                                        #   in Loop: Header=BB4_114 Depth=1
	ld.d	$s1, $a0, 8
	addi.d	$a2, $s1, 1
	move	$s2, $a0
	move	$a0, $s5
	move	$a1, $s4
	pcaddu18i	$ra, %call36(memcpy)
	jirl	$ra, $ra, 0
	move	$a0, $s2
	addi.d	$s2, $sp, 456
.LBB4_175:                              # %invoke.cont303.i
                                        #   in Loop: Header=BB4_114 Depth=1
	st.d	$s1, $sp, 320
	st.d	$s4, $a0, 0
	st.d	$zero, $a0, 8
	st.b	$zero, $a0, 16
	ld.d	$a0, $sp, 320
	ld.d	$a2, $s8, 192
	ld.d	$a1, $sp, 208                   # 8-byte Folded Reload
	sub.d	$a0, $a1, $a0
	bltu	$a0, $a2, .LBB4_328
# %bb.176:                              # %_ZNSt7__cxx1112basic_stringIcSt11char_traitsIcESaIcEE6appendERKS4_.exit.i432.i
                                        #   in Loop: Header=BB4_114 Depth=1
.Ltmp74:                                # EH_LABEL
	ld.d	$a1, $s8, 184
	addi.d	$a0, $sp, 312
	pcaddu18i	$ra, %call36(_ZNSt7__cxx1112basic_stringIcSt11char_traitsIcESaIcEE9_M_appendEPKcm)
	jirl	$ra, $ra, 0
.Ltmp75:                                # EH_LABEL
# %bb.177:                              # %call.i.i.i433.noexc.i
                                        #   in Loop: Header=BB4_114 Depth=1
	addi.d	$a3, $sp, 360
	st.d	$a3, $sp, 344
	ld.d	$a1, $a0, 0
	addi.d	$s4, $a0, 16
	beq	$a1, $s4, .LBB4_179
# %bb.178:                              # %if.else.i.i435.i
                                        #   in Loop: Header=BB4_114 Depth=1
	ld.d	$a2, $a0, 16
	st.d	$a2, $sp, 360
	ld.d	$s1, $a0, 8
	st.d	$a1, $sp, 344
	b	.LBB4_180
.LBB4_179:                              # %_ZNSt11char_traitsIcE4copyEPcPKcm.exit.i.i441.i
                                        #   in Loop: Header=BB4_114 Depth=1
	ld.d	$s1, $a0, 8
	addi.d	$a2, $s1, 1
	move	$s2, $a0
	move	$a0, $a3
	move	$a1, $s4
	pcaddu18i	$ra, %call36(memcpy)
	jirl	$ra, $ra, 0
	move	$a0, $s2
	addi.d	$s2, $sp, 456
.LBB4_180:                              # %invoke.cont305.i
                                        #   in Loop: Header=BB4_114 Depth=1
	st.d	$s1, $sp, 352
	st.d	$s4, $a0, 0
	st.d	$zero, $a0, 8
	ld.d	$a1, $sp, 352
	addi.w	$a2, $zero, -11
	lu52i.d	$a2, $a2, 2047
	st.b	$zero, $a0, 16
	bgeu	$a1, $a2, .LBB4_330
# %bb.181:                              # %_ZNSt7__cxx1112basic_stringIcSt11char_traitsIcESaIcEE6appendEPKc.exit.i454.i
                                        #   in Loop: Header=BB4_114 Depth=1
.Ltmp77:                                # EH_LABEL
	pcalau12i	$a0, %pc_hi20(.L.str.81)
	addi.d	$a1, $a0, %pc_lo12(.L.str.81)
	addi.d	$a0, $sp, 344
	ori	$a2, $zero, 10
	addi.d	$s1, $sp, 360
	pcaddu18i	$ra, %call36(_ZNSt7__cxx1112basic_stringIcSt11char_traitsIcESaIcEE9_M_appendEPKcm)
	jirl	$ra, $ra, 0
.Ltmp78:                                # EH_LABEL
# %bb.182:                              # %call2.i.i.noexc468.i
                                        #   in Loop: Header=BB4_114 Depth=1
	addi.d	$a3, $sp, 392
	st.d	$a3, $sp, 376
	ld.d	$a1, $a0, 0
	addi.d	$s4, $a0, 16
	beq	$a1, $s4, .LBB4_184
# %bb.183:                              # %if.else.i.i456.i
                                        #   in Loop: Header=BB4_114 Depth=1
	ld.d	$a2, $a0, 16
	st.d	$a2, $sp, 392
	ld.d	$s1, $a0, 8
	st.d	$a1, $sp, 376
	b	.LBB4_185
.LBB4_184:                              # %_ZNSt11char_traitsIcE4copyEPcPKcm.exit.i.i462.i
                                        #   in Loop: Header=BB4_114 Depth=1
	ld.d	$s1, $a0, 8
	addi.d	$a2, $s1, 1
	move	$s2, $a0
	move	$a0, $a3
	move	$a1, $s4
	pcaddu18i	$ra, %call36(memcpy)
	jirl	$ra, $ra, 0
	move	$a0, $s2
	addi.d	$s2, $sp, 456
.LBB4_185:                              # %invoke.cont307.i
                                        #   in Loop: Header=BB4_114 Depth=1
	st.d	$s1, $sp, 384
	st.d	$s4, $a0, 0
	st.d	$zero, $a0, 8
	st.b	$zero, $a0, 16
	ld.d	$a0, $sp, 384
	ld.d	$a2, $s8, 192
	ld.d	$a1, $sp, 208                   # 8-byte Folded Reload
	sub.d	$a0, $a1, $a0
	bltu	$a0, $a2, .LBB4_332
# %bb.186:                              # %_ZNSt7__cxx1112basic_stringIcSt11char_traitsIcESaIcEE6appendERKS4_.exit.i476.i
                                        #   in Loop: Header=BB4_114 Depth=1
.Ltmp80:                                # EH_LABEL
	ld.d	$a1, $s8, 184
	addi.d	$a0, $sp, 376
	addi.d	$s1, $sp, 392
	pcaddu18i	$ra, %call36(_ZNSt7__cxx1112basic_stringIcSt11char_traitsIcESaIcEE9_M_appendEPKcm)
	jirl	$ra, $ra, 0
.Ltmp81:                                # EH_LABEL
# %bb.187:                              # %call.i.i.i477.noexc.i
                                        #   in Loop: Header=BB4_114 Depth=1
	addi.d	$a3, $sp, 424
	st.d	$a3, $sp, 408
	ld.d	$a1, $a0, 0
	addi.d	$s4, $a0, 16
	beq	$a1, $s4, .LBB4_189
# %bb.188:                              # %if.else.i.i479.i
                                        #   in Loop: Header=BB4_114 Depth=1
	ld.d	$a2, $a0, 16
	st.d	$a2, $sp, 424
	ld.d	$s1, $a0, 8
	st.d	$a1, $sp, 408
	b	.LBB4_190
.LBB4_189:                              # %_ZNSt11char_traitsIcE4copyEPcPKcm.exit.i.i485.i
                                        #   in Loop: Header=BB4_114 Depth=1
	ld.d	$s1, $a0, 8
	addi.d	$a2, $s1, 1
	move	$s2, $a0
	move	$a0, $a3
	move	$a1, $s4
	pcaddu18i	$ra, %call36(memcpy)
	jirl	$ra, $ra, 0
	move	$a0, $s2
	addi.d	$s2, $sp, 456
.LBB4_190:                              # %invoke.cont309.i
                                        #   in Loop: Header=BB4_114 Depth=1
	st.d	$s1, $sp, 416
	st.d	$s4, $a0, 0
	st.d	$zero, $a0, 8
	ld.d	$a1, $sp, 416
	addi.w	$a2, $zero, -37
	lu52i.d	$a2, $a2, 2047
	st.b	$zero, $a0, 16
	bgeu	$a1, $a2, .LBB4_334
# %bb.191:                              # %_ZNSt7__cxx1112basic_stringIcSt11char_traitsIcESaIcEE6appendEPKc.exit.i498.i
                                        #   in Loop: Header=BB4_114 Depth=1
.Ltmp83:                                # EH_LABEL
	pcalau12i	$a0, %pc_hi20(.L.str.82)
	addi.d	$a1, $a0, %pc_lo12(.L.str.82)
	addi.d	$a0, $sp, 408
	ori	$a2, $zero, 36
	addi.d	$s1, $sp, 392
	pcaddu18i	$ra, %call36(_ZNSt7__cxx1112basic_stringIcSt11char_traitsIcESaIcEE9_M_appendEPKcm)
	jirl	$ra, $ra, 0
.Ltmp84:                                # EH_LABEL
# %bb.192:                              # %call2.i.i.noexc512.i
                                        #   in Loop: Header=BB4_114 Depth=1
	st.d	$s2, $sp, 440
	ld.d	$a1, $a0, 0
	addi.d	$s4, $a0, 16
	beq	$a1, $s4, .LBB4_194
# %bb.193:                              # %if.else.i.i500.i
                                        #   in Loop: Header=BB4_114 Depth=1
	ld.d	$a2, $a0, 16
	st.d	$a2, $sp, 456
	ld.d	$s1, $a0, 8
	st.d	$a1, $sp, 440
	b	.LBB4_195
.LBB4_194:                              # %_ZNSt11char_traitsIcE4copyEPcPKcm.exit.i.i506.i
                                        #   in Loop: Header=BB4_114 Depth=1
	ld.d	$s1, $a0, 8
	addi.d	$a2, $s1, 1
	move	$s2, $a0
	addi.d	$a0, $sp, 456
	move	$a1, $s4
	pcaddu18i	$ra, %call36(memcpy)
	jirl	$ra, $ra, 0
	move	$a0, $s2
	addi.d	$s2, $sp, 456
.LBB4_195:                              # %invoke.cont311.i
                                        #   in Loop: Header=BB4_114 Depth=1
	st.d	$s1, $sp, 448
	st.d	$s4, $a0, 0
	ld.d	$a2, $sp, 408
	st.d	$zero, $a0, 8
	st.b	$zero, $a0, 16
	addi.d	$a0, $sp, 424
	beq	$a2, $a0, .LBB4_197
# %bb.196:                              # %if.then.i.i516.i
                                        #   in Loop: Header=BB4_114 Depth=1
	ld.d	$a0, $sp, 424
	addi.d	$a1, $a0, 1
	move	$a0, $a2
	pcaddu18i	$ra, %call36(_ZdlPvm)
	jirl	$ra, $ra, 0
.LBB4_197:                              # %_ZNSt7__cxx1112basic_stringIcSt11char_traitsIcESaIcEED2Ev.exit522.i
                                        #   in Loop: Header=BB4_114 Depth=1
	ld.d	$a0, $sp, 376
	ld.d	$s1, $sp, 168                   # 8-byte Folded Reload
	addi.d	$a1, $sp, 392
	beq	$a0, $a1, .LBB4_199
# %bb.198:                              # %if.then.i.i524.i
                                        #   in Loop: Header=BB4_114 Depth=1
	ld.d	$a1, $sp, 392
	addi.d	$a1, $a1, 1
	pcaddu18i	$ra, %call36(_ZdlPvm)
	jirl	$ra, $ra, 0
.LBB4_199:                              # %_ZNSt7__cxx1112basic_stringIcSt11char_traitsIcESaIcEED2Ev.exit530.i
                                        #   in Loop: Header=BB4_114 Depth=1
	ld.d	$a0, $sp, 344
	addi.d	$a1, $sp, 360
	beq	$a0, $a1, .LBB4_201
# %bb.200:                              # %if.then.i.i532.i
                                        #   in Loop: Header=BB4_114 Depth=1
	ld.d	$a1, $sp, 360
	addi.d	$a1, $a1, 1
	pcaddu18i	$ra, %call36(_ZdlPvm)
	jirl	$ra, $ra, 0
.LBB4_201:                              # %_ZNSt7__cxx1112basic_stringIcSt11char_traitsIcESaIcEED2Ev.exit538.i
                                        #   in Loop: Header=BB4_114 Depth=1
	ld.d	$a0, $sp, 312
	beq	$a0, $s5, .LBB4_203
# %bb.202:                              # %if.then.i.i540.i
                                        #   in Loop: Header=BB4_114 Depth=1
	ld.d	$a1, $sp, 328
	addi.d	$a1, $a1, 1
	pcaddu18i	$ra, %call36(_ZdlPvm)
	jirl	$ra, $ra, 0
.LBB4_203:                              # %_ZNSt7__cxx1112basic_stringIcSt11char_traitsIcESaIcEED2Ev.exit546.i
                                        #   in Loop: Header=BB4_114 Depth=1
	ld.d	$a0, $sp, 280
	beq	$a0, $s3, .LBB4_205
# %bb.204:                              # %if.then.i.i548.i
                                        #   in Loop: Header=BB4_114 Depth=1
	ld.d	$a1, $sp, 296
	addi.d	$a1, $a1, 1
	pcaddu18i	$ra, %call36(_ZdlPvm)
	jirl	$ra, $ra, 0
.LBB4_205:                              # %_ZNSt7__cxx1112basic_stringIcSt11char_traitsIcESaIcEED2Ev.exit554.i
                                        #   in Loop: Header=BB4_114 Depth=1
	ld.d	$a0, $sp, 248
	beq	$a0, $s6, .LBB4_207
# %bb.206:                              # %if.then.i.i556.i
                                        #   in Loop: Header=BB4_114 Depth=1
	ld.d	$a1, $sp, 264
	addi.d	$a1, $a1, 1
	pcaddu18i	$ra, %call36(_ZdlPvm)
	jirl	$ra, $ra, 0
.LBB4_207:                              # %_ZNSt7__cxx1112basic_stringIcSt11char_traitsIcESaIcEED2Ev.exit562.i
                                        #   in Loop: Header=BB4_114 Depth=1
	ld.d	$a0, $sp, 216
	addi.d	$a1, $sp, 232
	beq	$a0, $a1, .LBB4_209
# %bb.208:                              # %if.then.i.i564.i
                                        #   in Loop: Header=BB4_114 Depth=1
	ld.d	$a1, $sp, 232
	addi.d	$a1, $a1, 1
	pcaddu18i	$ra, %call36(_ZdlPvm)
	jirl	$ra, $ra, 0
.LBB4_209:                              # %_ZNSt7__cxx1112basic_stringIcSt11char_traitsIcESaIcEED2Ev.exit570.i
                                        #   in Loop: Header=BB4_114 Depth=1
.Ltmp86:                                # EH_LABEL
	pcaddu18i	$ra, %call36(_ZN2kc10NoFileLineEv)
	jirl	$ra, $ra, 0
.Ltmp87:                                # EH_LABEL
# %bb.210:                              # %invoke.cont327.i
                                        #   in Loop: Header=BB4_114 Depth=1
	move	$s4, $a0
	ld.d	$a0, $sp, 440
	ld.d	$a1, $s0, 0
.Ltmp88:                                # EH_LABEL
	pcaddu18i	$ra, %call36(_ZN2kc9Problem2SEPKcS1_)
	jirl	$ra, $ra, 0
	move	$a1, $a0
.Ltmp89:                                # EH_LABEL
# %bb.211:                              # %invoke.cont332.i
                                        #   in Loop: Header=BB4_114 Depth=1
.Ltmp90:                                # EH_LABEL
	move	$a0, $s4
	pcaddu18i	$ra, %call36(_ZN2kc8NonFatalEPNS_13impl_filelineEPNS_12impl_problemE)
	jirl	$ra, $ra, 0
.Ltmp91:                                # EH_LABEL
# %bb.212:                              # %invoke.cont334.i
                                        #   in Loop: Header=BB4_114 Depth=1
.Ltmp92:                                # EH_LABEL
	pcaddu18i	$ra, %call36(_ZN2kc8v_reportEPNS_10impl_errorE)
	jirl	$ra, $ra, 0
.Ltmp93:                                # EH_LABEL
# %bb.213:                              # %invoke.cont336.i
                                        #   in Loop: Header=BB4_114 Depth=1
	ld.d	$a0, $sp, 440
	beq	$a0, $s2, .LBB4_113
# %bb.214:                              # %if.then.i.i572.i
                                        #   in Loop: Header=BB4_114 Depth=1
	ld.d	$a1, $sp, 456
	addi.d	$a1, $a1, 1
	pcaddu18i	$ra, %call36(_ZdlPvm)
	jirl	$ra, $ra, 0
	b	.LBB4_113
.LBB4_215:                              #   in Loop: Header=BB4_114 Depth=1
	ori	$s1, $zero, 1
	addi.d	$a0, $sp, 424
	addi.d	$a1, $sp, 392
	bne	$s7, $a1, .LBB4_143
	b	.LBB4_144
.LBB4_216:                              #   in Loop: Header=BB4_114 Depth=1
	ori	$s1, $zero, 1
	addi.d	$a0, $sp, 424
	addi.d	$a1, $sp, 360
	bne	$s7, $a1, .LBB4_141
	b	.LBB4_142
.LBB4_217:                              # %sw.bb.i
	pcalau12i	$a0, %pc_hi20(.L.str.85)
	addi.d	$a0, $a0, %pc_lo12(.L.str.85)
	pcalau12i	$a1, %pc_hi20(_ZL15kimwitu_version)
	addi.d	$a1, $a1, %pc_lo12(_ZL15kimwitu_version)
	pcaddu18i	$ra, %call36(printf)
	jirl	$ra, $ra, 0
	move	$a0, $zero
	pcaddu18i	$ra, %call36(_ZN2kc5leaveEi)
	jirl	$ra, $ra, 0
.LBB4_218:                              # %for.cond.cleanup194.i
	ld.d	$a0, $sp, 120                   # 8-byte Folded Reload
	ld.bu	$a0, $a0, 0
	ld.d	$fp, $sp, 160                   # 8-byte Folded Reload
	beqz	$a0, .LBB4_301
# %bb.219:                              # %if.then361.i
	st.d	$s8, $sp, 192                   # 8-byte Folded Spill
	ld.d	$a0, $sp, 128                   # 8-byte Folded Reload
	ld.w	$a1, $a0, 0
	pcalau12i	$s7, %pc_hi20(_ZL14inputfilenames)
	pcalau12i	$a0, %pc_hi20(_ZL13no_inputfiles)
	st.d	$a0, $sp, 176                   # 8-byte Folded Spill
	pcalau12i	$s8, %pc_hi20(_ZL17current_inputfile)
	ld.d	$a3, $sp, 184                   # 8-byte Folded Reload
	bge	$a1, $a3, .LBB4_223
# %bb.220:                              # %if.then363.i
	alsl.d	$a0, $a1, $s1, 3
	slli.d	$a2, $a1, 3
	st.d	$a0, $s7, %pc_lo12(_ZL14inputfilenames)
	ldx.d	$a0, $s1, $a2
	sub.d	$a1, $a3, $a1
	ld.d	$a2, $sp, 176                   # 8-byte Folded Reload
	st.w	$a1, $a2, %pc_lo12(_ZL13no_inputfiles)
	st.w	$zero, $s8, %pc_lo12(_ZL17current_inputfile)
	pcaddu18i	$ra, %call36(_ZN2kcL16make_pg_filenameEPKc)
	jirl	$ra, $ra, 0
	ld.w	$a1, $s8, %pc_lo12(_ZL17current_inputfile)
	ld.d	$a2, $s7, %pc_lo12(_ZL14inputfilenames)
	st.d	$a0, $fp, 0
	slli.d	$a0, $a1, 3
	ldx.d	$a0, $a2, $a0
	pcaddu18i	$ra, %call36(_ZN2kcL8openfileEPKcS1_)
	jirl	$ra, $ra, 0
	pcalau12i	$a1, %got_pc_hi20(yyin)
	ld.d	$a1, $a1, %got_pc_lo12(yyin)
	st.d	$a0, $a1, 0
	bnez	$a0, .LBB4_222
# %bb.221:                              # %if.then372.i
	pcaddu18i	$ra, %call36(_ZN2kc10NoFileLineEv)
	jirl	$ra, $ra, 0
	ld.w	$a1, $s8, %pc_lo12(_ZL17current_inputfile)
	ld.d	$a2, $s7, %pc_lo12(_ZL14inputfilenames)
	slli.d	$a1, $a1, 3
	ldx.d	$a1, $a2, $a1
	move	$s1, $a0
	pcalau12i	$a0, %pc_hi20(.L.str.84)
	addi.d	$a0, $a0, %pc_lo12(.L.str.84)
	pcaddu18i	$ra, %call36(_ZN2kc9Problem2SEPKcS1_)
	jirl	$ra, $ra, 0
	move	$a1, $a0
	move	$a0, $s1
	pcaddu18i	$ra, %call36(_ZN2kc5FatalEPNS_13impl_filelineEPNS_12impl_problemE)
	jirl	$ra, $ra, 0
	pcaddu18i	$ra, %call36(_ZN2kc8v_reportEPNS_10impl_errorE)
	jirl	$ra, $ra, 0
.LBB4_222:                              # %if.end378.i
	ori	$a0, $zero, 1
	ld.d	$a1, $sp, 136                   # 8-byte Folded Reload
	st.w	$a0, $a1, 0
	ld.d	$a0, $sp, 152                   # 8-byte Folded Reload
	st.w	$zero, $a0, 0
	ld.d	$a0, $sp, 144                   # 8-byte Folded Reload
	st.w	$zero, $a0, 0
.LBB4_223:                              # %_ZN2kcL11processargsEiPPc.exit
	pcalau12i	$a0, %pc_hi20(cleanup_and_die)
	addi.d	$s1, $a0, %pc_lo12(cleanup_and_die)
	ori	$a0, $zero, 2
	move	$a1, $s1
	pcaddu18i	$ra, %call36(signal)
	jirl	$ra, $ra, 0
	ori	$a0, $zero, 15
	move	$a1, $s1
	pcaddu18i	$ra, %call36(signal)
	jirl	$ra, $ra, 0
	pcalau12i	$a0, %pc_hi20(cleanup_and_abort)
	addi.d	$s2, $a0, %pc_lo12(cleanup_and_abort)
	ori	$a0, $zero, 11
	move	$a1, $s2
	pcaddu18i	$ra, %call36(signal)
	jirl	$ra, $ra, 0
	ori	$a0, $zero, 4
	move	$a1, $s2
	pcaddu18i	$ra, %call36(signal)
	jirl	$ra, $ra, 0
	ori	$a0, $zero, 31
	move	$a1, $s2
	pcaddu18i	$ra, %call36(signal)
	jirl	$ra, $ra, 0
	ori	$a0, $zero, 6
	move	$a1, $s2
	pcaddu18i	$ra, %call36(signal)
	jirl	$ra, $ra, 0
	ori	$a0, $zero, 1
	ori	$s0, $zero, 1
	move	$a1, $s1
	pcaddu18i	$ra, %call36(signal)
	jirl	$ra, $ra, 0
	ori	$a0, $zero, 3
	move	$a1, $s1
	pcaddu18i	$ra, %call36(signal)
	jirl	$ra, $ra, 0
	ori	$a0, $zero, 7
	move	$a1, $s2
	pcaddu18i	$ra, %call36(signal)
	jirl	$ra, $ra, 0
	ld.d	$a0, $sp, 192                   # 8-byte Folded Reload
	ld.bu	$a0, $a0, 65
	ld.d	$a1, $sp, 136                   # 8-byte Folded Reload
	st.w	$s0, $a1, 0
	ld.d	$a1, $sp, 152                   # 8-byte Folded Reload
	st.w	$zero, $a1, 0
	ld.d	$a1, $sp, 144                   # 8-byte Folded Reload
	st.w	$zero, $a1, 0
	bne	$a0, $s0, .LBB4_225
# %bb.224:                              # %if.then
	pcalau12i	$a0, %got_pc_hi20(_ZSt4cout)
	ld.d	$s1, $a0, %got_pc_lo12(_ZSt4cout)
	pcalau12i	$a0, %pc_hi20(.L.str.5)
	addi.d	$a1, $a0, %pc_lo12(.L.str.5)
	ori	$a2, $zero, 23
	move	$a0, $s1
	pcaddu18i	$ra, %call36(_ZSt16__ostream_insertIcSt11char_traitsIcEERSt13basic_ostreamIT_T0_ES6_PKS3_l)
	jirl	$ra, $ra, 0
	move	$a0, $s1
	pcaddu18i	$ra, %call36(_ZNSo5flushEv)
	jirl	$ra, $ra, 0
.LBB4_225:                              # %if.end
	pcalau12i	$a0, %pc_hi20(.L.str.93)
	addi.d	$a0, $a0, %pc_lo12(.L.str.93)
	addi.w	$fp, $zero, -1
	move	$a1, $fp
	pcaddu18i	$ra, %call36(_ZN2kc12mkcasestringEPKci)
	jirl	$ra, $ra, 0
	pcaddu18i	$ra, %call36(_ZN2kc11IncludeFileEPNS_20impl_casestring__StrE)
	jirl	$ra, $ra, 0
	move	$s1, $a0
	pcalau12i	$a0, %pc_hi20(.L.str.94)
	addi.d	$a0, $a0, %pc_lo12(.L.str.94)
	move	$a1, $fp
	pcaddu18i	$ra, %call36(_ZN2kc12mkcasestringEPKci)
	jirl	$ra, $ra, 0
	pcaddu18i	$ra, %call36(_ZN2kc11IncludeFileEPNS_20impl_casestring__StrE)
	jirl	$ra, $ra, 0
	move	$s2, $a0
	pcalau12i	$a0, %pc_hi20(.L.str.95)
	addi.d	$a0, $a0, %pc_lo12(.L.str.95)
	move	$a1, $fp
	pcaddu18i	$ra, %call36(_ZN2kc12mkcasestringEPKci)
	jirl	$ra, $ra, 0
	pcaddu18i	$ra, %call36(_ZN2kc3StrEPNS_20impl_casestring__StrE)
	jirl	$ra, $ra, 0
	pcaddu18i	$ra, %call36(_ZN2kc2IdEPNS_11impl_uniqIDE)
	jirl	$ra, $ra, 0
	st.d	$a0, $sp, 112                   # 8-byte Folded Spill
	pcalau12i	$a0, %pc_hi20(.L.str.96)
	addi.d	$a0, $a0, %pc_lo12(.L.str.96)
	move	$a1, $fp
	pcaddu18i	$ra, %call36(_ZN2kc12mkcasestringEPKci)
	jirl	$ra, $ra, 0
	pcaddu18i	$ra, %call36(_ZN2kc3StrEPNS_20impl_casestring__StrE)
	jirl	$ra, $ra, 0
	pcaddu18i	$ra, %call36(_ZN2kc2IdEPNS_11impl_uniqIDE)
	jirl	$ra, $ra, 0
	st.d	$a0, $sp, 200                   # 8-byte Folded Spill
	pcalau12i	$a0, %pc_hi20(.L.str.97)
	addi.d	$a0, $a0, %pc_lo12(.L.str.97)
	move	$a1, $fp
	pcaddu18i	$ra, %call36(_ZN2kc12mkcasestringEPKci)
	jirl	$ra, $ra, 0
	pcaddu18i	$ra, %call36(_ZN2kc3StrEPNS_20impl_casestring__StrE)
	jirl	$ra, $ra, 0
	pcaddu18i	$ra, %call36(_ZN2kc2IdEPNS_11impl_uniqIDE)
	jirl	$ra, $ra, 0
	st.d	$a0, $sp, 168                   # 8-byte Folded Spill
	pcalau12i	$a0, %pc_hi20(.L.str.98)
	addi.d	$s6, $a0, %pc_lo12(.L.str.98)
	move	$a0, $s6
	st.d	$s6, $sp, 208                   # 8-byte Folded Spill
	move	$a1, $fp
	pcaddu18i	$ra, %call36(_ZN2kc12mkcasestringEPKci)
	jirl	$ra, $ra, 0
	pcaddu18i	$ra, %call36(_ZN2kc3StrEPNS_20impl_casestring__StrE)
	jirl	$ra, $ra, 0
	pcaddu18i	$ra, %call36(_ZN2kc2IdEPNS_11impl_uniqIDE)
	jirl	$ra, $ra, 0
	st.d	$a0, $sp, 128                   # 8-byte Folded Spill
	pcalau12i	$a0, %pc_hi20(.L.str.99)
	addi.d	$a0, $a0, %pc_lo12(.L.str.99)
	move	$a1, $fp
	pcaddu18i	$ra, %call36(_ZN2kc12mkcasestringEPKci)
	jirl	$ra, $ra, 0
	pcaddu18i	$ra, %call36(_ZN2kc3StrEPNS_20impl_casestring__StrE)
	jirl	$ra, $ra, 0
	pcaddu18i	$ra, %call36(_ZN2kc2IdEPNS_11impl_uniqIDE)
	jirl	$ra, $ra, 0
	move	$s4, $a0
	pcaddu18i	$ra, %call36(_ZN2kc9f_emptyIdEv)
	jirl	$ra, $ra, 0
	pcaddu18i	$ra, %call36(_ZN2kc21PositiveStorageOptionEPNS_7impl_IDE)
	jirl	$ra, $ra, 0
	st.d	$a0, $sp, 184                   # 8-byte Folded Spill
	pcaddu18i	$ra, %call36(_ZN2kc20EmptyproductionblockEv)
	jirl	$ra, $ra, 0
	move	$s3, $a0
	pcaddu18i	$ra, %call36(_ZN2kc13NilattributesEv)
	jirl	$ra, $ra, 0
	move	$s5, $a0
	pcaddu18i	$ra, %call36(_ZN2kc9NilCtextsEv)
	jirl	$ra, $ra, 0
	move	$a1, $a0
	move	$a0, $s5
	pcaddu18i	$ra, %call36(_ZN2kc11CcodeOptionEPNS_15impl_attributesEPNS_11impl_CtextsE)
	jirl	$ra, $ra, 0
	move	$a3, $a0
	move	$a0, $s4
	ld.d	$a1, $sp, 184                   # 8-byte Folded Reload
	move	$a2, $s3
	pcaddu18i	$ra, %call36(_ZN2kc17PhylumDeclarationEPNS_7impl_IDEPNS_18impl_storageoptionEPNS_20impl_productionblockEPNS_17impl_Ccode_optionE)
	jirl	$ra, $ra, 0
	move	$s5, $a0
	pcaddu18i	$ra, %call36(_ZN2kc18ITPredefinedPhylumEPNS_22impl_phylumdeclarationE)
	jirl	$ra, $ra, 0
	move	$a1, $a0
	move	$a0, $s4
	pcaddu18i	$ra, %call36(_ZN2kc10v_defoccurEPNS_7impl_IDEPNS_11impl_IDtypeE)
	jirl	$ra, $ra, 0
	pcalau12i	$a0, %got_pc_hi20(The_abstract_phylum_decl)
	ld.d	$a0, $a0, %got_pc_lo12(The_abstract_phylum_decl)
	st.d	$s5, $a0, 0
	pcalau12i	$a0, %pc_hi20(.L.str.100)
	addi.d	$a0, $a0, %pc_lo12(.L.str.100)
	move	$a1, $fp
	pcaddu18i	$ra, %call36(_ZN2kc12mkcasestringEPKci)
	jirl	$ra, $ra, 0
	pcaddu18i	$ra, %call36(_ZN2kc3StrEPNS_20impl_casestring__StrE)
	jirl	$ra, $ra, 0
	pcaddu18i	$ra, %call36(_ZN2kc2IdEPNS_11impl_uniqIDE)
	jirl	$ra, $ra, 0
	move	$s4, $a0
	pcaddu18i	$ra, %call36(_ZN2kc9f_emptyIdEv)
	jirl	$ra, $ra, 0
	pcaddu18i	$ra, %call36(_ZN2kc21PositiveStorageOptionEPNS_7impl_IDE)
	jirl	$ra, $ra, 0
	st.d	$a0, $sp, 184                   # 8-byte Folded Spill
	pcaddu18i	$ra, %call36(_ZN2kc20EmptyproductionblockEv)
	jirl	$ra, $ra, 0
	move	$s3, $a0
	pcaddu18i	$ra, %call36(_ZN2kc13NilattributesEv)
	jirl	$ra, $ra, 0
	move	$s5, $a0
	pcaddu18i	$ra, %call36(_ZN2kc9NilCtextsEv)
	jirl	$ra, $ra, 0
	move	$a1, $a0
	move	$a0, $s5
	pcaddu18i	$ra, %call36(_ZN2kc11CcodeOptionEPNS_15impl_attributesEPNS_11impl_CtextsE)
	jirl	$ra, $ra, 0
	move	$a3, $a0
	move	$a0, $s4
	ld.d	$a1, $sp, 184                   # 8-byte Folded Reload
	move	$a2, $s3
	pcaddu18i	$ra, %call36(_ZN2kc17PhylumDeclarationEPNS_7impl_IDEPNS_18impl_storageoptionEPNS_20impl_productionblockEPNS_17impl_Ccode_optionE)
	jirl	$ra, $ra, 0
	move	$s5, $a0
	pcaddu18i	$ra, %call36(_ZN2kc18ITPredefinedPhylumEPNS_22impl_phylumdeclarationE)
	jirl	$ra, $ra, 0
	move	$a1, $a0
	move	$a0, $s4
	pcaddu18i	$ra, %call36(_ZN2kc10v_defoccurEPNS_7impl_IDEPNS_11impl_IDtypeE)
	jirl	$ra, $ra, 0
	pcalau12i	$a0, %got_pc_hi20(The_abstract_phylum_ref_decl)
	ld.d	$a0, $a0, %got_pc_lo12(The_abstract_phylum_ref_decl)
	st.d	$s5, $a0, 0
	pcalau12i	$a0, %pc_hi20(.L.str.101)
	addi.d	$a0, $a0, %pc_lo12(.L.str.101)
	move	$a1, $fp
	pcaddu18i	$ra, %call36(_ZN2kc12mkcasestringEPKci)
	jirl	$ra, $ra, 0
	pcaddu18i	$ra, %call36(_ZN2kc3StrEPNS_20impl_casestring__StrE)
	jirl	$ra, $ra, 0
	pcaddu18i	$ra, %call36(_ZN2kc2IdEPNS_11impl_uniqIDE)
	jirl	$ra, $ra, 0
	move	$s4, $a0
	pcaddu18i	$ra, %call36(_ZN2kc9f_emptyIdEv)
	jirl	$ra, $ra, 0
	pcaddu18i	$ra, %call36(_ZN2kc21PositiveStorageOptionEPNS_7impl_IDE)
	jirl	$ra, $ra, 0
	st.d	$a0, $sp, 184                   # 8-byte Folded Spill
	pcaddu18i	$ra, %call36(_ZN2kc20EmptyproductionblockEv)
	jirl	$ra, $ra, 0
	move	$s3, $a0
	pcaddu18i	$ra, %call36(_ZN2kc13NilattributesEv)
	jirl	$ra, $ra, 0
	move	$s5, $a0
	pcaddu18i	$ra, %call36(_ZN2kc9NilCtextsEv)
	jirl	$ra, $ra, 0
	move	$a1, $a0
	move	$a0, $s5
	pcaddu18i	$ra, %call36(_ZN2kc11CcodeOptionEPNS_15impl_attributesEPNS_11impl_CtextsE)
	jirl	$ra, $ra, 0
	move	$a3, $a0
	move	$a0, $s4
	ld.d	$a1, $sp, 184                   # 8-byte Folded Reload
	move	$a2, $s3
	pcaddu18i	$ra, %call36(_ZN2kc17PhylumDeclarationEPNS_7impl_IDEPNS_18impl_storageoptionEPNS_20impl_productionblockEPNS_17impl_Ccode_optionE)
	jirl	$ra, $ra, 0
	move	$s5, $a0
	pcaddu18i	$ra, %call36(_ZN2kc18ITPredefinedPhylumEPNS_22impl_phylumdeclarationE)
	jirl	$ra, $ra, 0
	move	$a1, $a0
	move	$a0, $s4
	pcaddu18i	$ra, %call36(_ZN2kc10v_defoccurEPNS_7impl_IDEPNS_11impl_IDtypeE)
	jirl	$ra, $ra, 0
	pcalau12i	$a0, %got_pc_hi20(The_abstract_list_decl)
	ld.d	$a0, $a0, %got_pc_lo12(The_abstract_list_decl)
	st.d	$s5, $a0, 0
	pcaddu18i	$ra, %call36(_ZN2kc21NilphylumdeclarationsEv)
	jirl	$ra, $ra, 0
	st.d	$a0, $sp, 184                   # 8-byte Folded Spill
	pcalau12i	$a0, %pc_hi20(.L.str.102)
	addi.d	$a0, $a0, %pc_lo12(.L.str.102)
	move	$a1, $fp
	pcaddu18i	$ra, %call36(_ZN2kc12mkcasestringEPKci)
	jirl	$ra, $ra, 0
	pcaddu18i	$ra, %call36(_ZN2kc3StrEPNS_20impl_casestring__StrE)
	jirl	$ra, $ra, 0
	pcaddu18i	$ra, %call36(_ZN2kc2IdEPNS_11impl_uniqIDE)
	jirl	$ra, $ra, 0
	st.d	$a0, $sp, 96                    # 8-byte Folded Spill
	move	$a0, $s6
	move	$a1, $fp
	pcaddu18i	$ra, %call36(_ZN2kc12mkcasestringEPKci)
	jirl	$ra, $ra, 0
	pcaddu18i	$ra, %call36(_ZN2kc3StrEPNS_20impl_casestring__StrE)
	jirl	$ra, $ra, 0
	pcaddu18i	$ra, %call36(_ZN2kc2IdEPNS_11impl_uniqIDE)
	jirl	$ra, $ra, 0
	move	$s3, $a0
	pcalau12i	$a0, %pc_hi20(.L.str.103)
	addi.d	$a0, $a0, %pc_lo12(.L.str.103)
	move	$a1, $fp
	pcaddu18i	$ra, %call36(_ZN2kc12mkcasestringEPKci)
	jirl	$ra, $ra, 0
	pcaddu18i	$ra, %call36(_ZN2kc3StrEPNS_20impl_casestring__StrE)
	jirl	$ra, $ra, 0
	pcaddu18i	$ra, %call36(_ZN2kc2IdEPNS_11impl_uniqIDE)
	jirl	$ra, $ra, 0
	move	$s4, $a0
	st.d	$a0, $sp, 88                    # 8-byte Folded Spill
	pcaddu18i	$ra, %call36(_ZN2kc12NilargumentsEv)
	jirl	$ra, $ra, 0
	move	$a1, $a0
	move	$a0, $s4
	pcaddu18i	$ra, %call36(_ZN2kc11AlternativeEPNS_7impl_IDEPNS_14impl_argumentsE)
	jirl	$ra, $ra, 0
	move	$s5, $a0
	move	$a0, $s3
	pcaddu18i	$ra, %call36(_ZN2kc21PositiveStorageOptionEPNS_7impl_IDE)
	jirl	$ra, $ra, 0
	st.d	$a0, $sp, 104                   # 8-byte Folded Spill
	pcaddu18i	$ra, %call36(_ZN2kc15NilalternativesEv)
	jirl	$ra, $ra, 0
	move	$a1, $a0
	move	$a0, $s5
	pcaddu18i	$ra, %call36(_ZN2kc16ConsalternativesEPNS_16impl_alternativeEPNS_17impl_alternativesE)
	jirl	$ra, $ra, 0
	pcaddu18i	$ra, %call36(_ZN2kc22PredefinedAlternativesEPNS_17impl_alternativesE)
	jirl	$ra, $ra, 0
	move	$s4, $a0
	pcaddu18i	$ra, %call36(_ZN2kc13NilattributesEv)
	jirl	$ra, $ra, 0
	move	$s3, $a0
	pcaddu18i	$ra, %call36(_ZN2kc9NilCtextsEv)
	jirl	$ra, $ra, 0
	move	$a1, $a0
	move	$a0, $s3
	pcaddu18i	$ra, %call36(_ZN2kc11CcodeOptionEPNS_15impl_attributesEPNS_11impl_CtextsE)
	jirl	$ra, $ra, 0
	move	$a3, $a0
	ld.d	$s6, $sp, 96                    # 8-byte Folded Reload
	move	$a0, $s6
	ld.d	$a1, $sp, 104                   # 8-byte Folded Reload
	move	$a2, $s4
	pcaddu18i	$ra, %call36(_ZN2kc17PhylumDeclarationEPNS_7impl_IDEPNS_18impl_storageoptionEPNS_20impl_productionblockEPNS_17impl_Ccode_optionE)
	jirl	$ra, $ra, 0
	move	$s3, $a0
	st.d	$a0, $sp, 104                   # 8-byte Folded Spill
	move	$a0, $s5
	move	$a1, $s6
	pcaddu18i	$ra, %call36(_ZN2kc20ITPredefinedOperatorEPNS_16impl_alternativeEPNS_7impl_IDE)
	jirl	$ra, $ra, 0
	move	$a1, $a0
	ld.d	$a0, $sp, 88                    # 8-byte Folded Reload
	pcaddu18i	$ra, %call36(_ZN2kc10v_defoccurEPNS_7impl_IDEPNS_11impl_IDtypeE)
	jirl	$ra, $ra, 0
	move	$a0, $s3
	pcaddu18i	$ra, %call36(_ZN2kc18ITPredefinedPhylumEPNS_22impl_phylumdeclarationE)
	jirl	$ra, $ra, 0
	move	$a1, $a0
	move	$a0, $s6
	pcaddu18i	$ra, %call36(_ZN2kc10v_defoccurEPNS_7impl_IDEPNS_11impl_IDtypeE)
	jirl	$ra, $ra, 0
	pcalau12i	$a0, %pc_hi20(.L.str.104)
	addi.d	$a0, $a0, %pc_lo12(.L.str.104)
	move	$a1, $fp
	pcaddu18i	$ra, %call36(_ZN2kc12mkcasestringEPKci)
	jirl	$ra, $ra, 0
	pcaddu18i	$ra, %call36(_ZN2kc3StrEPNS_20impl_casestring__StrE)
	jirl	$ra, $ra, 0
	pcaddu18i	$ra, %call36(_ZN2kc2IdEPNS_11impl_uniqIDE)
	jirl	$ra, $ra, 0
	st.d	$a0, $sp, 88                    # 8-byte Folded Spill
	ld.d	$a0, $sp, 208                   # 8-byte Folded Reload
	move	$a1, $fp
	pcaddu18i	$ra, %call36(_ZN2kc12mkcasestringEPKci)
	jirl	$ra, $ra, 0
	pcaddu18i	$ra, %call36(_ZN2kc3StrEPNS_20impl_casestring__StrE)
	jirl	$ra, $ra, 0
	pcaddu18i	$ra, %call36(_ZN2kc2IdEPNS_11impl_uniqIDE)
	jirl	$ra, $ra, 0
	move	$s3, $a0
	pcalau12i	$a0, %pc_hi20(.L.str.105)
	addi.d	$a0, $a0, %pc_lo12(.L.str.105)
	move	$a1, $fp
	pcaddu18i	$ra, %call36(_ZN2kc12mkcasestringEPKci)
	jirl	$ra, $ra, 0
	pcaddu18i	$ra, %call36(_ZN2kc3StrEPNS_20impl_casestring__StrE)
	jirl	$ra, $ra, 0
	pcaddu18i	$ra, %call36(_ZN2kc2IdEPNS_11impl_uniqIDE)
	jirl	$ra, $ra, 0
	move	$s6, $a0
	pcaddu18i	$ra, %call36(_ZN2kc12NilargumentsEv)
	jirl	$ra, $ra, 0
	move	$a1, $a0
	move	$a0, $s6
	pcaddu18i	$ra, %call36(_ZN2kc11AlternativeEPNS_7impl_IDEPNS_14impl_argumentsE)
	jirl	$ra, $ra, 0
	move	$s5, $a0
	move	$a0, $s3
	pcaddu18i	$ra, %call36(_ZN2kc21PositiveStorageOptionEPNS_7impl_IDE)
	jirl	$ra, $ra, 0
	st.d	$a0, $sp, 96                    # 8-byte Folded Spill
	pcaddu18i	$ra, %call36(_ZN2kc15NilalternativesEv)
	jirl	$ra, $ra, 0
	move	$a1, $a0
	move	$a0, $s5
	pcaddu18i	$ra, %call36(_ZN2kc16ConsalternativesEPNS_16impl_alternativeEPNS_17impl_alternativesE)
	jirl	$ra, $ra, 0
	pcaddu18i	$ra, %call36(_ZN2kc22PredefinedAlternativesEPNS_17impl_alternativesE)
	jirl	$ra, $ra, 0
	move	$s3, $a0
	pcaddu18i	$ra, %call36(_ZN2kc13NilattributesEv)
	jirl	$ra, $ra, 0
	move	$s4, $a0
	pcaddu18i	$ra, %call36(_ZN2kc9NilCtextsEv)
	jirl	$ra, $ra, 0
	move	$a1, $a0
	move	$a0, $s4
	pcaddu18i	$ra, %call36(_ZN2kc11CcodeOptionEPNS_15impl_attributesEPNS_11impl_CtextsE)
	jirl	$ra, $ra, 0
	move	$a3, $a0
	ld.d	$s4, $sp, 88                    # 8-byte Folded Reload
	move	$a0, $s4
	ld.d	$a1, $sp, 96                    # 8-byte Folded Reload
	move	$a2, $s3
	pcaddu18i	$ra, %call36(_ZN2kc17PhylumDeclarationEPNS_7impl_IDEPNS_18impl_storageoptionEPNS_20impl_productionblockEPNS_17impl_Ccode_optionE)
	jirl	$ra, $ra, 0
	move	$s3, $a0
	st.d	$a0, $sp, 96                    # 8-byte Folded Spill
	move	$a0, $s5
	move	$a1, $s4
	pcaddu18i	$ra, %call36(_ZN2kc20ITPredefinedOperatorEPNS_16impl_alternativeEPNS_7impl_IDE)
	jirl	$ra, $ra, 0
	move	$a1, $a0
	move	$a0, $s6
	pcaddu18i	$ra, %call36(_ZN2kc10v_defoccurEPNS_7impl_IDEPNS_11impl_IDtypeE)
	jirl	$ra, $ra, 0
	move	$a0, $s3
	pcaddu18i	$ra, %call36(_ZN2kc18ITPredefinedPhylumEPNS_22impl_phylumdeclarationE)
	jirl	$ra, $ra, 0
	move	$a1, $a0
	move	$a0, $s4
	pcaddu18i	$ra, %call36(_ZN2kc10v_defoccurEPNS_7impl_IDEPNS_11impl_IDtypeE)
	jirl	$ra, $ra, 0
	pcalau12i	$a0, %pc_hi20(.L.str.106)
	addi.d	$a0, $a0, %pc_lo12(.L.str.106)
	move	$a1, $fp
	pcaddu18i	$ra, %call36(_ZN2kc12mkcasestringEPKci)
	jirl	$ra, $ra, 0
	pcaddu18i	$ra, %call36(_ZN2kc3StrEPNS_20impl_casestring__StrE)
	jirl	$ra, $ra, 0
	pcaddu18i	$ra, %call36(_ZN2kc2IdEPNS_11impl_uniqIDE)
	jirl	$ra, $ra, 0
	st.d	$a0, $sp, 80                    # 8-byte Folded Spill
	ld.d	$a0, $sp, 208                   # 8-byte Folded Reload
	move	$a1, $fp
	pcaddu18i	$ra, %call36(_ZN2kc12mkcasestringEPKci)
	jirl	$ra, $ra, 0
	pcaddu18i	$ra, %call36(_ZN2kc3StrEPNS_20impl_casestring__StrE)
	jirl	$ra, $ra, 0
	pcaddu18i	$ra, %call36(_ZN2kc2IdEPNS_11impl_uniqIDE)
	jirl	$ra, $ra, 0
	move	$s3, $a0
	pcalau12i	$a0, %pc_hi20(.L.str.107)
	addi.d	$a0, $a0, %pc_lo12(.L.str.107)
	move	$a1, $fp
	pcaddu18i	$ra, %call36(_ZN2kc12mkcasestringEPKci)
	jirl	$ra, $ra, 0
	pcaddu18i	$ra, %call36(_ZN2kc3StrEPNS_20impl_casestring__StrE)
	jirl	$ra, $ra, 0
	pcaddu18i	$ra, %call36(_ZN2kc2IdEPNS_11impl_uniqIDE)
	jirl	$ra, $ra, 0
	move	$s6, $a0
	pcaddu18i	$ra, %call36(_ZN2kc12NilargumentsEv)
	jirl	$ra, $ra, 0
	move	$a1, $a0
	move	$a0, $s6
	pcaddu18i	$ra, %call36(_ZN2kc11AlternativeEPNS_7impl_IDEPNS_14impl_argumentsE)
	jirl	$ra, $ra, 0
	move	$s5, $a0
	move	$a0, $s3
	pcaddu18i	$ra, %call36(_ZN2kc21PositiveStorageOptionEPNS_7impl_IDE)
	jirl	$ra, $ra, 0
	st.d	$a0, $sp, 88                    # 8-byte Folded Spill
	pcaddu18i	$ra, %call36(_ZN2kc15NilalternativesEv)
	jirl	$ra, $ra, 0
	move	$a1, $a0
	move	$a0, $s5
	pcaddu18i	$ra, %call36(_ZN2kc16ConsalternativesEPNS_16impl_alternativeEPNS_17impl_alternativesE)
	jirl	$ra, $ra, 0
	pcaddu18i	$ra, %call36(_ZN2kc22PredefinedAlternativesEPNS_17impl_alternativesE)
	jirl	$ra, $ra, 0
	move	$s3, $a0
	pcaddu18i	$ra, %call36(_ZN2kc13NilattributesEv)
	jirl	$ra, $ra, 0
	move	$s4, $a0
	pcaddu18i	$ra, %call36(_ZN2kc9NilCtextsEv)
	jirl	$ra, $ra, 0
	move	$a1, $a0
	move	$a0, $s4
	pcaddu18i	$ra, %call36(_ZN2kc11CcodeOptionEPNS_15impl_attributesEPNS_11impl_CtextsE)
	jirl	$ra, $ra, 0
	move	$a3, $a0
	ld.d	$s4, $sp, 80                    # 8-byte Folded Reload
	move	$a0, $s4
	ld.d	$a1, $sp, 88                    # 8-byte Folded Reload
	move	$a2, $s3
	pcaddu18i	$ra, %call36(_ZN2kc17PhylumDeclarationEPNS_7impl_IDEPNS_18impl_storageoptionEPNS_20impl_productionblockEPNS_17impl_Ccode_optionE)
	jirl	$ra, $ra, 0
	move	$s3, $a0
	st.d	$a0, $sp, 88                    # 8-byte Folded Spill
	move	$a0, $s5
	move	$a1, $s4
	pcaddu18i	$ra, %call36(_ZN2kc20ITPredefinedOperatorEPNS_16impl_alternativeEPNS_7impl_IDE)
	jirl	$ra, $ra, 0
	move	$a1, $a0
	move	$a0, $s6
	pcaddu18i	$ra, %call36(_ZN2kc10v_defoccurEPNS_7impl_IDEPNS_11impl_IDtypeE)
	jirl	$ra, $ra, 0
	move	$a0, $s3
	pcaddu18i	$ra, %call36(_ZN2kc18ITPredefinedPhylumEPNS_22impl_phylumdeclarationE)
	jirl	$ra, $ra, 0
	move	$a1, $a0
	move	$a0, $s4
	pcaddu18i	$ra, %call36(_ZN2kc10v_defoccurEPNS_7impl_IDEPNS_11impl_IDtypeE)
	jirl	$ra, $ra, 0
	pcalau12i	$a0, %pc_hi20(.L.str.108)
	addi.d	$a0, $a0, %pc_lo12(.L.str.108)
	move	$a1, $fp
	pcaddu18i	$ra, %call36(_ZN2kc12mkcasestringEPKci)
	jirl	$ra, $ra, 0
	pcaddu18i	$ra, %call36(_ZN2kc3StrEPNS_20impl_casestring__StrE)
	jirl	$ra, $ra, 0
	pcaddu18i	$ra, %call36(_ZN2kc2IdEPNS_11impl_uniqIDE)
	jirl	$ra, $ra, 0
	st.d	$a0, $sp, 72                    # 8-byte Folded Spill
	ld.d	$a0, $sp, 208                   # 8-byte Folded Reload
	move	$a1, $fp
	pcaddu18i	$ra, %call36(_ZN2kc12mkcasestringEPKci)
	jirl	$ra, $ra, 0
	pcaddu18i	$ra, %call36(_ZN2kc3StrEPNS_20impl_casestring__StrE)
	jirl	$ra, $ra, 0
	pcaddu18i	$ra, %call36(_ZN2kc2IdEPNS_11impl_uniqIDE)
	jirl	$ra, $ra, 0
	move	$s3, $a0
	pcalau12i	$a0, %pc_hi20(.L.str.109)
	addi.d	$a0, $a0, %pc_lo12(.L.str.109)
	move	$a1, $fp
	pcaddu18i	$ra, %call36(_ZN2kc12mkcasestringEPKci)
	jirl	$ra, $ra, 0
	pcaddu18i	$ra, %call36(_ZN2kc3StrEPNS_20impl_casestring__StrE)
	jirl	$ra, $ra, 0
	pcaddu18i	$ra, %call36(_ZN2kc2IdEPNS_11impl_uniqIDE)
	jirl	$ra, $ra, 0
	move	$s6, $a0
	pcaddu18i	$ra, %call36(_ZN2kc12NilargumentsEv)
	jirl	$ra, $ra, 0
	move	$a1, $a0
	move	$a0, $s6
	pcaddu18i	$ra, %call36(_ZN2kc11AlternativeEPNS_7impl_IDEPNS_14impl_argumentsE)
	jirl	$ra, $ra, 0
	move	$s5, $a0
	move	$a0, $s3
	pcaddu18i	$ra, %call36(_ZN2kc21PositiveStorageOptionEPNS_7impl_IDE)
	jirl	$ra, $ra, 0
	st.d	$a0, $sp, 80                    # 8-byte Folded Spill
	pcaddu18i	$ra, %call36(_ZN2kc15NilalternativesEv)
	jirl	$ra, $ra, 0
	move	$a1, $a0
	move	$a0, $s5
	pcaddu18i	$ra, %call36(_ZN2kc16ConsalternativesEPNS_16impl_alternativeEPNS_17impl_alternativesE)
	jirl	$ra, $ra, 0
	pcaddu18i	$ra, %call36(_ZN2kc22PredefinedAlternativesEPNS_17impl_alternativesE)
	jirl	$ra, $ra, 0
	move	$s4, $a0
	pcaddu18i	$ra, %call36(_ZN2kc13NilattributesEv)
	jirl	$ra, $ra, 0
	move	$s3, $a0
	pcaddu18i	$ra, %call36(_ZN2kc9NilCtextsEv)
	jirl	$ra, $ra, 0
	move	$a1, $a0
	move	$a0, $s3
	pcaddu18i	$ra, %call36(_ZN2kc11CcodeOptionEPNS_15impl_attributesEPNS_11impl_CtextsE)
	jirl	$ra, $ra, 0
	move	$a3, $a0
	ld.d	$s3, $sp, 72                    # 8-byte Folded Reload
	move	$a0, $s3
	ld.d	$a1, $sp, 80                    # 8-byte Folded Reload
	move	$a2, $s4
	pcaddu18i	$ra, %call36(_ZN2kc17PhylumDeclarationEPNS_7impl_IDEPNS_18impl_storageoptionEPNS_20impl_productionblockEPNS_17impl_Ccode_optionE)
	jirl	$ra, $ra, 0
	move	$s4, $a0
	st.d	$a0, $sp, 80                    # 8-byte Folded Spill
	move	$a0, $s5
	move	$a1, $s3
	pcaddu18i	$ra, %call36(_ZN2kc20ITPredefinedOperatorEPNS_16impl_alternativeEPNS_7impl_IDE)
	jirl	$ra, $ra, 0
	move	$a1, $a0
	move	$a0, $s6
	pcaddu18i	$ra, %call36(_ZN2kc10v_defoccurEPNS_7impl_IDEPNS_11impl_IDtypeE)
	jirl	$ra, $ra, 0
	move	$a0, $s4
	pcaddu18i	$ra, %call36(_ZN2kc18ITPredefinedPhylumEPNS_22impl_phylumdeclarationE)
	jirl	$ra, $ra, 0
	move	$a1, $a0
	move	$a0, $s3
	pcaddu18i	$ra, %call36(_ZN2kc10v_defoccurEPNS_7impl_IDEPNS_11impl_IDtypeE)
	jirl	$ra, $ra, 0
	pcalau12i	$a0, %pc_hi20(.L.str.110)
	addi.d	$a0, $a0, %pc_lo12(.L.str.110)
	move	$a1, $fp
	pcaddu18i	$ra, %call36(_ZN2kc12mkcasestringEPKci)
	jirl	$ra, $ra, 0
	pcaddu18i	$ra, %call36(_ZN2kc3StrEPNS_20impl_casestring__StrE)
	jirl	$ra, $ra, 0
	pcaddu18i	$ra, %call36(_ZN2kc2IdEPNS_11impl_uniqIDE)
	jirl	$ra, $ra, 0
	move	$s6, $a0
	ld.d	$a0, $sp, 208                   # 8-byte Folded Reload
	move	$a1, $fp
	pcaddu18i	$ra, %call36(_ZN2kc12mkcasestringEPKci)
	jirl	$ra, $ra, 0
	pcaddu18i	$ra, %call36(_ZN2kc3StrEPNS_20impl_casestring__StrE)
	jirl	$ra, $ra, 0
	pcaddu18i	$ra, %call36(_ZN2kc2IdEPNS_11impl_uniqIDE)
	jirl	$ra, $ra, 0
	move	$s3, $a0
	pcalau12i	$a0, %pc_hi20(.L.str.111)
	addi.d	$a0, $a0, %pc_lo12(.L.str.111)
	move	$a1, $fp
	pcaddu18i	$ra, %call36(_ZN2kc12mkcasestringEPKci)
	jirl	$ra, $ra, 0
	pcaddu18i	$ra, %call36(_ZN2kc3StrEPNS_20impl_casestring__StrE)
	jirl	$ra, $ra, 0
	pcaddu18i	$ra, %call36(_ZN2kc2IdEPNS_11impl_uniqIDE)
	jirl	$ra, $ra, 0
	move	$s4, $a0
	st.d	$a0, $sp, 208                   # 8-byte Folded Spill
	pcaddu18i	$ra, %call36(_ZN2kc12NilargumentsEv)
	jirl	$ra, $ra, 0
	move	$a1, $a0
	move	$a0, $s4
	pcaddu18i	$ra, %call36(_ZN2kc11AlternativeEPNS_7impl_IDEPNS_14impl_argumentsE)
	jirl	$ra, $ra, 0
	move	$s5, $a0
	move	$a0, $s3
	pcaddu18i	$ra, %call36(_ZN2kc21PositiveStorageOptionEPNS_7impl_IDE)
	jirl	$ra, $ra, 0
	st.d	$a0, $sp, 72                    # 8-byte Folded Spill
	pcaddu18i	$ra, %call36(_ZN2kc15NilalternativesEv)
	jirl	$ra, $ra, 0
	move	$a1, $a0
	move	$a0, $s5
	pcaddu18i	$ra, %call36(_ZN2kc16ConsalternativesEPNS_16impl_alternativeEPNS_17impl_alternativesE)
	jirl	$ra, $ra, 0
	pcaddu18i	$ra, %call36(_ZN2kc22PredefinedAlternativesEPNS_17impl_alternativesE)
	jirl	$ra, $ra, 0
	move	$s3, $a0
	pcaddu18i	$ra, %call36(_ZN2kc13NilattributesEv)
	jirl	$ra, $ra, 0
	move	$s4, $a0
	pcaddu18i	$ra, %call36(_ZN2kc9NilCtextsEv)
	jirl	$ra, $ra, 0
	move	$a1, $a0
	move	$a0, $s4
	pcaddu18i	$ra, %call36(_ZN2kc11CcodeOptionEPNS_15impl_attributesEPNS_11impl_CtextsE)
	jirl	$ra, $ra, 0
	move	$a3, $a0
	move	$a0, $s6
	ld.d	$a1, $sp, 72                    # 8-byte Folded Reload
	move	$a2, $s3
	pcaddu18i	$ra, %call36(_ZN2kc17PhylumDeclarationEPNS_7impl_IDEPNS_18impl_storageoptionEPNS_20impl_productionblockEPNS_17impl_Ccode_optionE)
	jirl	$ra, $ra, 0
	move	$s3, $a0
	move	$a0, $s5
	move	$a1, $s6
	pcaddu18i	$ra, %call36(_ZN2kc20ITPredefinedOperatorEPNS_16impl_alternativeEPNS_7impl_IDE)
	jirl	$ra, $ra, 0
	move	$a1, $a0
	ld.d	$a0, $sp, 208                   # 8-byte Folded Reload
	pcaddu18i	$ra, %call36(_ZN2kc10v_defoccurEPNS_7impl_IDEPNS_11impl_IDtypeE)
	jirl	$ra, $ra, 0
	move	$a0, $s3
	pcaddu18i	$ra, %call36(_ZN2kc18ITPredefinedPhylumEPNS_22impl_phylumdeclarationE)
	jirl	$ra, $ra, 0
	move	$a1, $a0
	move	$a0, $s6
	pcaddu18i	$ra, %call36(_ZN2kc10v_defoccurEPNS_7impl_IDEPNS_11impl_IDtypeE)
	jirl	$ra, $ra, 0
	move	$a0, $s3
	ld.d	$a1, $sp, 184                   # 8-byte Folded Reload
	pcaddu18i	$ra, %call36(_ZN2kc22ConsphylumdeclarationsEPNS_22impl_phylumdeclarationEPNS_23impl_phylumdeclarationsE)
	jirl	$ra, $ra, 0
	move	$a1, $a0
	ld.d	$a0, $sp, 80                    # 8-byte Folded Reload
	pcaddu18i	$ra, %call36(_ZN2kc22ConsphylumdeclarationsEPNS_22impl_phylumdeclarationEPNS_23impl_phylumdeclarationsE)
	jirl	$ra, $ra, 0
	move	$a1, $a0
	ld.d	$a0, $sp, 88                    # 8-byte Folded Reload
	pcaddu18i	$ra, %call36(_ZN2kc22ConsphylumdeclarationsEPNS_22impl_phylumdeclarationEPNS_23impl_phylumdeclarationsE)
	jirl	$ra, $ra, 0
	move	$a1, $a0
	ld.d	$a0, $sp, 96                    # 8-byte Folded Reload
	pcaddu18i	$ra, %call36(_ZN2kc22ConsphylumdeclarationsEPNS_22impl_phylumdeclarationEPNS_23impl_phylumdeclarationsE)
	jirl	$ra, $ra, 0
	move	$a1, $a0
	ld.d	$a0, $sp, 104                   # 8-byte Folded Reload
	pcaddu18i	$ra, %call36(_ZN2kc22ConsphylumdeclarationsEPNS_22impl_phylumdeclarationEPNS_23impl_phylumdeclarationsE)
	jirl	$ra, $ra, 0
	pcalau12i	$a1, %got_pc_hi20(Thephylumdeclarations)
	ld.d	$a1, $a1, %got_pc_lo12(Thephylumdeclarations)
	st.d	$a1, $sp, 184                   # 8-byte Folded Spill
	st.d	$a0, $a1, 0
	pcaddu18i	$ra, %call36(_ZN2kc17NilrwdeclarationsEv)
	jirl	$ra, $ra, 0
	pcalau12i	$a1, %got_pc_hi20(Therwdeclarations)
	ld.d	$a1, $a1, %got_pc_lo12(Therwdeclarations)
	st.d	$a1, $sp, 96                    # 8-byte Folded Spill
	st.d	$a0, $a1, 0
	pcaddu18i	$ra, %call36(_ZN2kc22NilunparsedeclarationsEv)
	jirl	$ra, $ra, 0
	pcalau12i	$a1, %got_pc_hi20(Theunparsedeclarations)
	ld.d	$a1, $a1, %got_pc_lo12(Theunparsedeclarations)
	st.d	$a1, $sp, 104                   # 8-byte Folded Spill
	st.d	$a0, $a1, 0
	pcaddu18i	$ra, %call36(_ZN2kc14NilargsnumbersEv)
	jirl	$ra, $ra, 0
	pcalau12i	$a1, %got_pc_hi20(Theargsnumbers)
	ld.d	$a1, $a1, %got_pc_lo12(Theargsnumbers)
	st.d	$a1, $sp, 88                    # 8-byte Folded Spill
	st.d	$a0, $a1, 0
	pcaddu18i	$ra, %call36(_ZN2kc17NilfndeclarationsEv)
	jirl	$ra, $ra, 0
	pcalau12i	$a1, %got_pc_hi20(Thefndeclarations)
	ld.d	$s5, $a1, %got_pc_lo12(Thefndeclarations)
	st.d	$a0, $s5, 0
	pcaddu18i	$ra, %call36(_ZN2kc16NillanguagenamesEv)
	jirl	$ra, $ra, 0
	pcalau12i	$a1, %got_pc_hi20(Thelanguages)
	ld.d	$a1, $a1, %got_pc_lo12(Thelanguages)
	st.d	$a0, $a1, 0
	pcaddu18i	$ra, %call36(_ZN2kc25Nilbaseclass_declarationsEv)
	jirl	$ra, $ra, 0
	pcalau12i	$a1, %got_pc_hi20(Thebaseclasses)
	ld.d	$a1, $a1, %got_pc_lo12(Thebaseclasses)
	st.d	$a1, $sp, 80                    # 8-byte Folded Spill
	st.d	$a0, $a1, 0
	st.w	$zero, $s1, 8
	st.w	$s0, $s2, 8
	pcalau12i	$a0, %pc_hi20(.L.str.16)
	addi.d	$a0, $a0, %pc_lo12(.L.str.16)
	move	$a1, $fp
	pcaddu18i	$ra, %call36(_ZN2kc12mkcasestringEPKci)
	jirl	$ra, $ra, 0
	pcaddu18i	$ra, %call36(_ZN2kc11IncludeFileEPNS_20impl_casestring__StrE)
	jirl	$ra, $ra, 0
	st.w	$zero, $a0, 8
	pcalau12i	$a0, %pc_hi20(.L.str.17)
	addi.d	$a0, $a0, %pc_lo12(.L.str.17)
	move	$a1, $fp
	pcaddu18i	$ra, %call36(_ZN2kc12mkcasestringEPKci)
	jirl	$ra, $ra, 0
	pcaddu18i	$ra, %call36(_ZN2kc11IncludeFileEPNS_20impl_casestring__StrE)
	jirl	$ra, $ra, 0
	st.w	$s0, $a0, 8
	pcalau12i	$a0, %pc_hi20(.L.str.37)
	addi.d	$a0, $a0, %pc_lo12(.L.str.37)
	move	$a1, $fp
	pcaddu18i	$ra, %call36(_ZN2kc12mkcasestringEPKci)
	jirl	$ra, $ra, 0
	pcaddu18i	$ra, %call36(_ZN2kc11IncludeFileEPNS_20impl_casestring__StrE)
	jirl	$ra, $ra, 0
	st.w	$zero, $a0, 8
	pcalau12i	$a0, %pc_hi20(.L.str.38)
	addi.d	$a0, $a0, %pc_lo12(.L.str.38)
	move	$a1, $fp
	pcaddu18i	$ra, %call36(_ZN2kc12mkcasestringEPKci)
	jirl	$ra, $ra, 0
	pcaddu18i	$ra, %call36(_ZN2kc11IncludeFileEPNS_20impl_casestring__StrE)
	jirl	$ra, $ra, 0
	st.w	$s0, $a0, 8
	pcalau12i	$a0, %pc_hi20(.L.str.23)
	addi.d	$a0, $a0, %pc_lo12(.L.str.23)
	move	$a1, $fp
	pcaddu18i	$ra, %call36(_ZN2kc12mkcasestringEPKci)
	jirl	$ra, $ra, 0
	pcaddu18i	$ra, %call36(_ZN2kc11IncludeFileEPNS_20impl_casestring__StrE)
	jirl	$ra, $ra, 0
	st.w	$zero, $a0, 8
	pcalau12i	$a0, %pc_hi20(.L.str.24)
	addi.d	$a0, $a0, %pc_lo12(.L.str.24)
	move	$a1, $fp
	pcaddu18i	$ra, %call36(_ZN2kc12mkcasestringEPKci)
	jirl	$ra, $ra, 0
	pcaddu18i	$ra, %call36(_ZN2kc11IncludeFileEPNS_20impl_casestring__StrE)
	jirl	$ra, $ra, 0
	st.w	$s0, $a0, 8
	pcalau12i	$a0, %pc_hi20(.L.str.30)
	addi.d	$a0, $a0, %pc_lo12(.L.str.30)
	move	$a1, $fp
	pcaddu18i	$ra, %call36(_ZN2kc12mkcasestringEPKci)
	jirl	$ra, $ra, 0
	pcaddu18i	$ra, %call36(_ZN2kc11IncludeFileEPNS_20impl_casestring__StrE)
	jirl	$ra, $ra, 0
	st.w	$zero, $a0, 8
	pcalau12i	$a0, %pc_hi20(.L.str.31)
	addi.d	$a0, $a0, %pc_lo12(.L.str.31)
	move	$a1, $fp
	pcaddu18i	$ra, %call36(_ZN2kc12mkcasestringEPKci)
	jirl	$ra, $ra, 0
	pcaddu18i	$ra, %call36(_ZN2kc11IncludeFileEPNS_20impl_casestring__StrE)
	jirl	$ra, $ra, 0
	st.w	$s0, $a0, 8
	pcaddu18i	$ra, %call36(_ZN2kc17ITPredefinedUViewEv)
	jirl	$ra, $ra, 0
	move	$a1, $a0
	ld.d	$s4, $sp, 112                   # 8-byte Folded Reload
	move	$a0, $s4
	pcaddu18i	$ra, %call36(_ZN2kc10v_defoccurEPNS_7impl_IDEPNS_11impl_IDtypeE)
	jirl	$ra, $ra, 0
	pcaddu18i	$ra, %call36(_ZN2kc17ITPredefinedRViewEv)
	jirl	$ra, $ra, 0
	move	$a1, $a0
	ld.d	$fp, $sp, 200                   # 8-byte Folded Reload
	move	$a0, $fp
	pcaddu18i	$ra, %call36(_ZN2kc10v_defoccurEPNS_7impl_IDEPNS_11impl_IDtypeE)
	jirl	$ra, $ra, 0
	pcaddu18i	$ra, %call36(_ZN2kc24ITPredefinedStorageClassEv)
	jirl	$ra, $ra, 0
	move	$a1, $a0
	ld.d	$s3, $sp, 128                   # 8-byte Folded Reload
	move	$a0, $s3
	pcaddu18i	$ra, %call36(_ZN2kc10v_defoccurEPNS_7impl_IDEPNS_11impl_IDtypeE)
	jirl	$ra, $ra, 0
	pcaddu18i	$ra, %call36(_ZN2kc12NilviewnamesEv)
	jirl	$ra, $ra, 0
	move	$a1, $a0
	move	$a0, $s4
	pcaddu18i	$ra, %call36(_ZN2kc13ConsviewnamesEPNS_7impl_IDEPNS_14impl_viewnamesE)
	jirl	$ra, $ra, 0
	pcalau12i	$a1, %got_pc_hi20(Theuviewnames)
	ld.d	$a1, $a1, %got_pc_lo12(Theuviewnames)
	st.d	$a1, $sp, 208                   # 8-byte Folded Spill
	st.d	$a0, $a1, 0
	pcaddu18i	$ra, %call36(_ZN2kc12NilviewnamesEv)
	jirl	$ra, $ra, 0
	move	$a1, $a0
	move	$a0, $fp
	pcaddu18i	$ra, %call36(_ZN2kc13ConsviewnamesEPNS_7impl_IDEPNS_14impl_viewnamesE)
	jirl	$ra, $ra, 0
	pcalau12i	$a1, %got_pc_hi20(Therviewnames)
	ld.d	$a1, $a1, %got_pc_lo12(Therviewnames)
	st.d	$a1, $sp, 200                   # 8-byte Folded Spill
	st.d	$a0, $a1, 0
	pcaddu18i	$ra, %call36(_ZN2kc17NilstorageclassesEv)
	jirl	$ra, $ra, 0
	move	$a1, $a0
	ld.d	$a0, $sp, 168                   # 8-byte Folded Reload
	pcaddu18i	$ra, %call36(_ZN2kc18ConsstorageclassesEPNS_7impl_IDEPNS_19impl_storageclassesE)
	jirl	$ra, $ra, 0
	move	$a1, $a0
	move	$a0, $s3
	pcaddu18i	$ra, %call36(_ZN2kc18ConsstorageclassesEPNS_7impl_IDEPNS_19impl_storageclassesE)
	jirl	$ra, $ra, 0
	pcalau12i	$a1, %got_pc_hi20(Thestorageclasses)
	ld.d	$a1, $a1, %got_pc_lo12(Thestorageclasses)
	st.d	$a1, $sp, 168                   # 8-byte Folded Spill
	st.d	$a0, $a1, 0
	addi.d	$fp, $s1, 16
	addi.d	$s6, $s2, 16
	b	.LBB4_227
	.p2align	4, , 16
.LBB4_226:                              # %_ZN2kcL21prepare_for_next_fileEv.exit.i
                                        #   in Loop: Header=BB4_227 Depth=1
	pcaddu18i	$ra, %call36(_Z9yyrestartP8_IO_FILE)
	jirl	$ra, $ra, 0
.LBB4_227:                              # %do.body.i
                                        # =>This Inner Loop Header: Depth=1
	pcalau12i	$a0, %pc_hi20(.L.str.44)
	addi.d	$a0, $a0, %pc_lo12(.L.str.44)
	pcaddu18i	$ra, %call36(_ZN2kcL17mkfunctionincnameEPKc)
	jirl	$ra, $ra, 0
	pcaddu18i	$ra, %call36(_ZN2kc11IncludeFileEPNS_20impl_casestring__StrE)
	jirl	$ra, $ra, 0
	st.w	$s0, $a0, 8
	pcalau12i	$a0, %pc_hi20(.L.str.43)
	addi.d	$a0, $a0, %pc_lo12(.L.str.43)
	pcaddu18i	$ra, %call36(_ZN2kcL17mkfunctionincnameEPKc)
	jirl	$ra, $ra, 0
	pcaddu18i	$ra, %call36(_ZN2kc11IncludeFileEPNS_20impl_casestring__StrE)
	jirl	$ra, $ra, 0
	st.w	$zero, $a0, 8
	ld.d	$a0, $sp, 192                   # 8-byte Folded Reload
	ld.bu	$a0, $a0, 65
	ld.d	$s4, $sp, 160                   # 8-byte Folded Reload
	bne	$a0, $s0, .LBB4_229
# %bb.228:                              # %_ZStlsISt11char_traitsIcEERSt13basic_ostreamIcT_ES5_PKc.exit.i
                                        #   in Loop: Header=BB4_227 Depth=1
	pcalau12i	$a0, %got_pc_hi20(_ZSt4cout)
	ld.d	$s3, $a0, %got_pc_lo12(_ZSt4cout)
	pcalau12i	$a0, %pc_hi20(.L.str.14)
	addi.d	$a1, $a0, %pc_lo12(.L.str.14)
	ori	$a2, $zero, 1
	move	$a0, $s3
	pcaddu18i	$ra, %call36(_ZSt16__ostream_insertIcSt11char_traitsIcEERSt13basic_ostreamIT_T0_ES6_PKS3_l)
	jirl	$ra, $ra, 0
	ld.d	$a0, $s4, 0
	ld.d	$s4, $a0, 8
	ori	$a1, $zero, 47
	move	$a0, $s4
	pcaddu18i	$ra, %call36(strrchr)
	jirl	$ra, $ra, 0
	sltui	$a1, $a0, 1
	addi.d	$a0, $a0, 1
	masknez	$a0, $a0, $a1
	maskeqz	$a1, $s4, $a1
	or	$s4, $a1, $a0
	move	$a0, $s4
	pcaddu18i	$ra, %call36(strlen)
	jirl	$ra, $ra, 0
	move	$a2, $a0
	move	$a0, $s3
	move	$a1, $s4
	ld.d	$s4, $sp, 160                   # 8-byte Folded Reload
	pcaddu18i	$ra, %call36(_ZSt16__ostream_insertIcSt11char_traitsIcEERSt13basic_ostreamIT_T0_ES6_PKS3_l)
	jirl	$ra, $ra, 0
	move	$a0, $s3
	pcaddu18i	$ra, %call36(_ZNSo5flushEv)
	jirl	$ra, $ra, 0
.LBB4_229:                              # %if.end.i
                                        #   in Loop: Header=BB4_227 Depth=1
.Ltmp95:                                # EH_LABEL
	pcaddu18i	$ra, %call36(_Z7yyparsev)
	jirl	$ra, $ra, 0
.Ltmp96:                                # EH_LABEL
# %bb.230:                              # %invoke.cont.i
                                        #   in Loop: Header=BB4_227 Depth=1
	ld.d	$s3, $s5, 0
	ld.d	$a0, $s4, 0
.Ltmp97:                                # EH_LABEL
	pcaddu18i	$ra, %call36(_ZN2kc6FnFileEPNS_20impl_casestring__StrE)
	jirl	$ra, $ra, 0
.Ltmp98:                                # EH_LABEL
# %bb.231:                              # %invoke.cont73.i
                                        #   in Loop: Header=BB4_227 Depth=1
	st.d	$s3, $a0, 8
	ld.w	$a0, $s1, 8
	sltu	$a0, $zero, $a0
	slli.d	$a0, $a0, 3
	ldx.d	$s3, $fp, $a0
	ld.d	$a0, $s4, 0
.Ltmp99:                                # EH_LABEL
	pcaddu18i	$ra, %call36(_ZN2kc11IncludeFileEPNS_20impl_casestring__StrE)
	jirl	$ra, $ra, 0
.Ltmp100:                               # EH_LABEL
# %bb.232:                              # %invoke.cont78.i
                                        #   in Loop: Header=BB4_227 Depth=1
	st.d	$s3, $a0, 16
	ld.w	$a0, $s2, 8
	sltu	$a0, $zero, $a0
	slli.d	$a0, $a0, 3
	ldx.d	$s3, $s6, $a0
	ld.d	$a0, $s4, 0
.Ltmp101:                               # EH_LABEL
	pcaddu18i	$ra, %call36(_ZN2kc11IncludeFileEPNS_20impl_casestring__StrE)
	jirl	$ra, $ra, 0
.Ltmp102:                               # EH_LABEL
# %bb.233:                              # %invoke.cont87.i
                                        #   in Loop: Header=BB4_227 Depth=1
	ld.d	$a1, $s4, 0
	st.d	$s3, $a0, 24
.Ltmp103:                               # EH_LABEL
	move	$a0, $a1
	pcaddu18i	$ra, %call36(_ZN2kc11IncludeFileEPNS_20impl_casestring__StrE)
	jirl	$ra, $ra, 0
.Ltmp104:                               # EH_LABEL
# %bb.234:                              # %invoke.cont92.i
                                        #   in Loop: Header=BB4_227 Depth=1
	ori	$a1, $zero, 3
	st.w	$a1, $a0, 8
.Ltmp105:                               # EH_LABEL
	pcaddu18i	$ra, %call36(_ZN2kc22NilincludedeclarationsEv)
	jirl	$ra, $ra, 0
.Ltmp106:                               # EH_LABEL
# %bb.235:                              # %invoke.cont95.i
                                        #   in Loop: Header=BB4_227 Depth=1
	ld.w	$a1, $s1, 8
	sltu	$a1, $zero, $a1
	slli.d	$a1, $a1, 3
	stx.d	$a0, $fp, $a1
.Ltmp107:                               # EH_LABEL
	pcaddu18i	$ra, %call36(_ZN2kc22NilincludedeclarationsEv)
	jirl	$ra, $ra, 0
.Ltmp108:                               # EH_LABEL
# %bb.236:                              # %invoke.cont101.i
                                        #   in Loop: Header=BB4_227 Depth=1
	ld.w	$a1, $s2, 8
	sltu	$a1, $zero, $a1
	slli.d	$a1, $a1, 3
	stx.d	$a0, $s6, $a1
.LBB4_237:                              # %try.cont.i
                                        #   in Loop: Header=BB4_227 Depth=1
	pcaddu18i	$ra, %call36(_ZN2kc17NilfndeclarationsEv)
	jirl	$ra, $ra, 0
	ld.d	$a1, $sp, 176                   # 8-byte Folded Reload
	ld.w	$a2, $a1, %pc_lo12(_ZL13no_inputfiles)
	ld.w	$a1, $s8, %pc_lo12(_ZL17current_inputfile)
	addi.w	$a2, $a2, -1
	st.d	$a0, $s5, 0
	bge	$a1, $a2, .LBB4_242
# %bb.238:                              # %if.then.i61.i
                                        #   in Loop: Header=BB4_227 Depth=1
	ld.d	$a0, $s7, %pc_lo12(_ZL14inputfilenames)
	addi.w	$a1, $a1, 1
	slli.d	$a2, $a1, 3
	ldx.d	$a0, $a0, $a2
	st.w	$a1, $s8, %pc_lo12(_ZL17current_inputfile)
	pcaddu18i	$ra, %call36(_ZN2kcL16make_pg_filenameEPKc)
	jirl	$ra, $ra, 0
	pcalau12i	$a1, %got_pc_hi20(yyin)
	move	$a2, $s4
	ld.d	$s4, $a1, %got_pc_lo12(yyin)
	st.d	$a0, $a2, 0
	ld.d	$a0, $s4, 0
	ld.d	$a1, $sp, 136                   # 8-byte Folded Reload
	st.w	$s0, $a1, 0
	ld.d	$a1, $sp, 152                   # 8-byte Folded Reload
	st.w	$zero, $a1, 0
	ld.d	$a1, $sp, 144                   # 8-byte Folded Reload
	st.w	$zero, $a1, 0
	pcaddu18i	$ra, %call36(fclose)
	jirl	$ra, $ra, 0
	ld.w	$a0, $s8, %pc_lo12(_ZL17current_inputfile)
	ld.d	$a1, $s7, %pc_lo12(_ZL14inputfilenames)
	slli.d	$a0, $a0, 3
	ldx.d	$a0, $a1, $a0
	pcaddu18i	$ra, %call36(_ZN2kcL8openfileEPKcS1_)
	jirl	$ra, $ra, 0
	st.d	$a0, $s4, 0
	bnez	$a0, .LBB4_226
# %bb.239:                              # %if.then6.i.i
                                        #   in Loop: Header=BB4_227 Depth=1
	pcaddu18i	$ra, %call36(_ZN2kc10NoFileLineEv)
	jirl	$ra, $ra, 0
	ld.w	$a1, $s8, %pc_lo12(_ZL17current_inputfile)
	ld.d	$a2, $s7, %pc_lo12(_ZL14inputfilenames)
	slli.d	$a1, $a1, 3
	ldx.d	$a1, $a2, $a1
	move	$s3, $a0
	pcalau12i	$a0, %pc_hi20(.L.str.84)
	addi.d	$a0, $a0, %pc_lo12(.L.str.84)
	pcaddu18i	$ra, %call36(_ZN2kc9Problem2SEPKcS1_)
	jirl	$ra, $ra, 0
	move	$a1, $a0
	move	$a0, $s3
	pcaddu18i	$ra, %call36(_ZN2kc5FatalEPNS_13impl_filelineEPNS_12impl_problemE)
	jirl	$ra, $ra, 0
	pcaddu18i	$ra, %call36(_ZN2kc8v_reportEPNS_10impl_errorE)
	jirl	$ra, $ra, 0
	ld.d	$a0, $s4, 0
	b	.LBB4_226
.LBB4_240:                              # %lpad.i
                                        #   in Loop: Header=BB4_227 Depth=1
.Ltmp109:                               # EH_LABEL
	addi.w	$a1, $a1, 0
	move	$s3, $a0
	bne	$a1, $s0, .LBB4_702
# %bb.241:                              # %catch.i
                                        #   in Loop: Header=BB4_227 Depth=1
	move	$a0, $s3
	pcaddu18i	$ra, %call36(__cxa_begin_catch)
	jirl	$ra, $ra, 0
	pcaddu18i	$ra, %call36(__cxa_end_catch)
	jirl	$ra, $ra, 0
	b	.LBB4_237
.LBB4_242:                              # %if.end12.i.i
	pcaddu18i	$ra, %call36(_Z9do_NORMALv)
	jirl	$ra, $ra, 0
	ld.d	$a0, $sp, 176                   # 8-byte Folded Reload
	ld.w	$a0, $a0, %pc_lo12(_ZL13no_inputfiles)
	ori	$a1, $zero, 1
	blt	$a0, $a1, .LBB4_244
# %bb.243:                              # %if.then14.i.i
	pcalau12i	$a0, %got_pc_hi20(yyin)
	ld.d	$a0, $a0, %got_pc_lo12(yyin)
	ld.d	$a0, $a0, 0
	pcaddu18i	$ra, %call36(fclose)
	jirl	$ra, $ra, 0
.LBB4_244:                              # %do.end.i
	ld.d	$a0, $sp, 120                   # 8-byte Folded Reload
	ld.bu	$a0, $a0, 0
	ld.d	$fp, $sp, 192                   # 8-byte Folded Reload
	beqz	$a0, .LBB4_301
# %bb.245:                              # %_ZN2kcL8do_parseEv.exit
	ld.bu	$a0, $fp, 65
	beqz	$a0, .LBB4_248
# %bb.246:                              # %if.end7
	pcalau12i	$a0, %got_pc_hi20(_ZSt4cout)
	ld.d	$a0, $a0, %got_pc_lo12(_ZSt4cout)
	pcalau12i	$a1, %pc_hi20(.L.str.6)
	addi.d	$a1, $a1, %pc_lo12(.L.str.6)
	ori	$a2, $zero, 9
	pcaddu18i	$ra, %call36(_ZSt16__ostream_insertIcSt11char_traitsIcEERSt13basic_ostreamIT_T0_ES6_PKS3_l)
	jirl	$ra, $ra, 0
	ld.bu	$a0, $fp, 65
	ld.d	$a1, $sp, 136                   # 8-byte Folded Reload
	st.w	$zero, $a1, 0
	pcalau12i	$a1, %got_pc_hi20(Thebindingidmarks)
	ld.d	$a1, $a1, %got_pc_lo12(Thebindingidmarks)
	ld.d	$a2, $sp, 152                   # 8-byte Folded Reload
	st.w	$zero, $a2, 0
	ld.d	$a2, $sp, 144                   # 8-byte Folded Reload
	st.w	$zero, $a2, 0
	ori	$a2, $zero, 1
	st.d	$zero, $a1, 0
	bne	$a0, $a2, .LBB4_249
# %bb.247:                              # %if.then9
	pcalau12i	$a0, %got_pc_hi20(_ZSt4cout)
	ld.d	$a0, $a0, %got_pc_lo12(_ZSt4cout)
	pcalau12i	$a1, %pc_hi20(.L.str.7)
	addi.d	$a1, $a1, %pc_lo12(.L.str.7)
	ori	$a2, $zero, 16
	pcaddu18i	$ra, %call36(_ZSt16__ostream_insertIcSt11char_traitsIcEERSt13basic_ostreamIT_T0_ES6_PKS3_l)
	jirl	$ra, $ra, 0
	b	.LBB4_249
.LBB4_248:                              # %if.end7.thread
	pcalau12i	$a0, %got_pc_hi20(Thebindingidmarks)
	ld.d	$a0, $a0, %got_pc_lo12(Thebindingidmarks)
	ld.d	$a1, $sp, 136                   # 8-byte Folded Reload
	st.w	$zero, $a1, 0
	ld.d	$a1, $sp, 152                   # 8-byte Folded Reload
	st.w	$zero, $a1, 0
	ld.d	$a1, $sp, 144                   # 8-byte Folded Reload
	st.w	$zero, $a1, 0
	st.d	$zero, $a0, 0
.LBB4_249:                              # %if.end11
	ld.d	$fp, $sp, 184                   # 8-byte Folded Reload
	ld.d	$a0, $fp, 0
	ld.d	$a1, $a0, 0
	ld.d	$a3, $a1, 72
	pcalau12i	$a1, %got_pc_hi20(v_null_printer)
	ld.d	$s1, $a1, %got_pc_lo12(v_null_printer)
	pcalau12i	$a1, %got_pc_hi20(_ZN2kc16view_check_countE)
	ld.d	$a2, $a1, %got_pc_lo12(_ZN2kc16view_check_countE)
	move	$a1, $s1
	jirl	$ra, $a3, 0
	ld.d	$a0, $fp, 0
	ld.d	$a1, $a0, 0
	ld.d	$a3, $a1, 72
	pcalau12i	$a1, %got_pc_hi20(_ZN2kc10view_checkE)
	ld.d	$s2, $a1, %got_pc_lo12(_ZN2kc10view_checkE)
	move	$a1, $s1
	move	$a2, $s2
	jirl	$ra, $a3, 0
	ld.d	$a0, $sp, 96                    # 8-byte Folded Reload
	ld.d	$a0, $a0, 0
	ld.d	$a1, $a0, 0
	ld.d	$a3, $a1, 72
	move	$a1, $s1
	move	$a2, $s2
	jirl	$ra, $a3, 0
	pcalau12i	$a0, %got_pc_hi20(Thefnfiles)
	ld.d	$s0, $a0, %got_pc_lo12(Thefnfiles)
	ld.d	$s1, $s0, 0
	ld.d	$a0, $s1, 0
	ld.d	$a1, $a0, 0
	move	$a0, $s1
	jirl	$ra, $a1, 0
	ori	$fp, $zero, 105
	bne	$a0, $fp, .LBB4_252
# %bb.250:
	pcalau12i	$a0, %got_pc_hi20(v_null_printer)
	ld.d	$s2, $a0, %got_pc_lo12(v_null_printer)
	pcalau12i	$a0, %got_pc_hi20(_ZN2kc10view_checkE)
	ld.d	$s3, $a0, %got_pc_lo12(_ZN2kc10view_checkE)
	.p2align	4, , 16
.LBB4_251:                              # %while.body
                                        # =>This Inner Loop Header: Depth=1
	ld.d	$a0, $s1, 8
	ld.d	$a0, $a0, 8
	ld.d	$a1, $a0, 0
	ld.d	$a3, $a1, 72
	move	$a1, $s2
	move	$a2, $s3
	jirl	$ra, $a3, 0
	ld.d	$s1, $s1, 16
	ld.d	$a0, $s1, 0
	ld.d	$a1, $a0, 0
	move	$a0, $s1
	jirl	$ra, $a1, 0
	beq	$a0, $fp, .LBB4_251
.LBB4_252:                              # %while.cond14.preheader
	ld.d	$s1, $s0, 0
	ld.d	$a0, $s1, 0
	ld.d	$a1, $a0, 0
	move	$a0, $s1
	jirl	$ra, $a1, 0
	bne	$a0, $fp, .LBB4_255
# %bb.253:
	ori	$fp, $zero, 105
	.p2align	4, , 16
.LBB4_254:                              # %while.body19
                                        # =>This Inner Loop Header: Depth=1
	ld.d	$a0, $s1, 8
	ld.d	$a0, $a0, 8
	pcaddu18i	$ra, %call36(_ZN2kc17f_collect_membersEPNS_19impl_fndeclarationsE)
	jirl	$ra, $ra, 0
	ld.d	$s1, $s1, 16
	ld.d	$a0, $s1, 0
	ld.d	$a1, $a0, 0
	move	$a0, $s1
	jirl	$ra, $a1, 0
	beq	$a0, $fp, .LBB4_254
.LBB4_255:                              # %while.end25
	ld.d	$a0, $sp, 80                    # 8-byte Folded Reload
	ld.d	$a0, $a0, 0
	pcaddu18i	$ra, %call36(_ZN2kc20prepare_base_classesEPNS_27impl_baseclass_declarationsE)
	jirl	$ra, $ra, 0
	ld.d	$s2, $sp, 104                   # 8-byte Folded Reload
	ld.d	$a0, $s2, 0
	ld.d	$a1, $a0, 0
	ld.d	$a3, $a1, 72
	pcalau12i	$a1, %got_pc_hi20(v_null_printer)
	ld.d	$s1, $a1, %got_pc_lo12(v_null_printer)
	pcalau12i	$a1, %got_pc_hi20(_ZN2kc10view_checkE)
	ld.d	$a2, $a1, %got_pc_lo12(_ZN2kc10view_checkE)
	move	$a1, $s1
	jirl	$ra, $a3, 0
	ld.d	$a0, $s2, 0
	ld.d	$a1, $a0, 0
	ld.d	$a3, $a1, 72
	pcalau12i	$a1, %got_pc_hi20(_ZN2kc20view_check_viewnamesE)
	ld.d	$a2, $a1, %got_pc_lo12(_ZN2kc20view_check_viewnamesE)
	move	$a1, $s1
	jirl	$ra, $a3, 0
	ld.d	$fp, $sp, 184                   # 8-byte Folded Reload
	ld.d	$a0, $fp, 0
	ld.d	$a1, $a0, 0
	ld.d	$a3, $a1, 72
	pcalau12i	$a1, %got_pc_hi20(_ZN2kc15view_check_uniqE)
	ld.d	$a2, $a1, %got_pc_lo12(_ZN2kc15view_check_uniqE)
	move	$a1, $s1
	jirl	$ra, $a3, 0
	ld.d	$a0, $s2, 0
	ld.d	$a1, $a0, 0
	ld.d	$a3, $a1, 72
	pcalau12i	$a1, %got_pc_hi20(_ZN2kc23view_checklanguagenamesE)
	ld.d	$a2, $a1, %got_pc_lo12(_ZN2kc23view_checklanguagenamesE)
	move	$a1, $s1
	jirl	$ra, $a3, 0
	ld.d	$a0, $fp, 0
	ld.d	$a1, $a0, 0
	ld.d	$a3, $a1, 72
	pcalau12i	$a1, %got_pc_hi20(_ZN2kc21view_make_patternrepsE)
	ld.d	$s2, $a1, %got_pc_lo12(_ZN2kc21view_make_patternrepsE)
	move	$a1, $s1
	move	$a2, $s2
	jirl	$ra, $a3, 0
	ld.d	$a0, $sp, 96                    # 8-byte Folded Reload
	ld.d	$a0, $a0, 0
	ld.d	$a1, $a0, 0
	ld.d	$a3, $a1, 72
	move	$a1, $s1
	move	$a2, $s2
	jirl	$ra, $a3, 0
	st.d	$s0, $sp, 176                   # 8-byte Folded Spill
	ld.d	$s1, $s0, 0
	ld.d	$a0, $s1, 0
	ld.d	$a1, $a0, 0
	move	$a0, $s1
	jirl	$ra, $a1, 0
	ori	$fp, $zero, 105
	bne	$a0, $fp, .LBB4_258
# %bb.256:                              # %while.body32.preheader
	pcalau12i	$a0, %got_pc_hi20(v_null_printer)
	ld.d	$s2, $a0, %got_pc_lo12(v_null_printer)
	pcalau12i	$a0, %got_pc_hi20(_ZN2kc21view_make_patternrepsE)
	ld.d	$s3, $a0, %got_pc_lo12(_ZN2kc21view_make_patternrepsE)
	.p2align	4, , 16
.LBB4_257:                              # %while.body32
                                        # =>This Inner Loop Header: Depth=1
	ld.d	$a0, $s1, 8
	ld.d	$a0, $a0, 8
	ld.d	$a1, $a0, 0
	ld.d	$a3, $a1, 72
	move	$a1, $s2
	move	$a2, $s3
	jirl	$ra, $a3, 0
	ld.d	$s1, $s1, 16
	ld.d	$a0, $s1, 0
	ld.d	$a1, $a0, 0
	move	$a0, $s1
	jirl	$ra, $a1, 0
	beq	$a0, $fp, .LBB4_257
.LBB4_258:                              # %while.end38
	ld.d	$a0, $sp, 104                   # 8-byte Folded Reload
	ld.d	$a0, $a0, 0
	ld.d	$a1, $a0, 0
	ld.d	$a3, $a1, 72
	pcalau12i	$a1, %got_pc_hi20(v_null_printer)
	ld.d	$a1, $a1, %got_pc_lo12(v_null_printer)
	pcalau12i	$a2, %got_pc_hi20(_ZN2kc21view_make_patternrepsE)
	ld.d	$a2, $a2, %got_pc_lo12(_ZN2kc21view_make_patternrepsE)
	jirl	$ra, $a3, 0
	ld.d	$a0, $sp, 184                   # 8-byte Folded Reload
	ld.d	$s1, $a0, 0
	ld.d	$a0, $s1, 0
	ld.d	$a1, $a0, 0
	move	$a0, $s1
	jirl	$ra, $a1, 0
	ori	$a1, $zero, 12
	bne	$a0, $a1, .LBB4_290
# %bb.259:                              # %while.body45.preheader
	ori	$s0, $zero, 26
	ori	$s7, $zero, 227
	ori	$s8, $zero, 228
	ori	$fp, $zero, 224
	ori	$s6, $zero, 225
	b	.LBB4_261
	.p2align	4, , 16
.LBB4_260:                              # %if.end174
                                        #   in Loop: Header=BB4_261 Depth=1
	ld.d	$s1, $s1, 16
	ld.d	$a0, $s1, 0
	ld.d	$a1, $a0, 0
	move	$a0, $s1
	jirl	$ra, $a1, 0
	ori	$a1, $zero, 12
	bne	$a0, $a1, .LBB4_290
.LBB4_261:                              # %while.body45
                                        # =>This Loop Header: Depth=1
                                        #     Child Loop BB4_279 Depth 2
                                        #       Child Loop BB4_282 Depth 3
                                        #       Child Loop BB4_287 Depth 3
                                        #     Child Loop BB4_265 Depth 2
                                        #       Child Loop BB4_268 Depth 3
                                        #       Child Loop BB4_273 Depth 3
	ld.d	$s2, $s1, 8
	ld.d	$a0, $s2, 0
	ld.d	$a1, $a0, 0
	move	$a0, $s2
	jirl	$ra, $a1, 0
	ori	$a1, $zero, 15
	bne	$a0, $a1, .LBB4_260
# %bb.262:                              # %if.then51
                                        #   in Loop: Header=BB4_261 Depth=1
	ld.d	$s2, $s2, 48
	ld.d	$a0, $s2, 0
	ld.d	$a1, $a0, 0
	move	$a0, $s2
	jirl	$ra, $a1, 0
	ori	$a1, $zero, 23
	bne	$a0, $a1, .LBB4_276
# %bb.263:                              # %if.then58
                                        #   in Loop: Header=BB4_261 Depth=1
	ld.d	$s2, $s2, 8
	b	.LBB4_265
	.p2align	4, , 16
.LBB4_264:                              # %while.end100
                                        #   in Loop: Header=BB4_265 Depth=2
	ld.d	$s2, $s2, 16
.LBB4_265:                              # %if.then58
                                        #   Parent Loop BB4_261 Depth=1
                                        # =>  This Loop Header: Depth=2
                                        #       Child Loop BB4_268 Depth 3
                                        #       Child Loop BB4_273 Depth 3
	ld.d	$a0, $s2, 0
	ld.d	$a1, $a0, 0
	move	$a0, $s2
	jirl	$ra, $a1, 0
	bne	$a0, $s0, .LBB4_260
# %bb.266:                              # %while.body66
                                        #   in Loop: Header=BB4_265 Depth=2
	ld.d	$s3, $s2, 8
	ld.d	$a0, $sp, 208                   # 8-byte Folded Reload
	ld.d	$a1, $a0, 0
	move	$a0, $s3
	pcaddu18i	$ra, %call36(_ZN2kc33f_unparseviewsinfo_of_alternativeEPNS_16impl_alternativeEPNS_14impl_viewnamesE)
	jirl	$ra, $ra, 0
	move	$s4, $a0
	ld.d	$a0, $a0, 0
	b	.LBB4_268
	.p2align	4, , 16
.LBB4_267:                              # %if.end81
                                        #   in Loop: Header=BB4_268 Depth=3
	ld.d	$s4, $s4, 16
	ld.d	$a0, $s4, 0
.LBB4_268:                              # %while.body66
                                        #   Parent Loop BB4_261 Depth=1
                                        #     Parent Loop BB4_265 Depth=2
                                        # =>    This Inner Loop Header: Depth=3
	ld.d	$a1, $a0, 0
	move	$a0, $s4
	jirl	$ra, $a1, 0
	bne	$a0, $s7, .LBB4_271
# %bb.269:                              # %while.body74
                                        #   in Loop: Header=BB4_268 Depth=3
	ld.d	$s5, $s4, 8
	ld.d	$a0, $s5, 0
	ld.d	$a1, $a0, 0
	move	$a0, $s5
	jirl	$ra, $a1, 0
	bne	$a0, $s8, .LBB4_267
# %bb.270:                              # %if.then79
                                        #   in Loop: Header=BB4_268 Depth=3
	ld.d	$a0, $s5, 16
	pcaddu18i	$ra, %call36(_ZN2kc22check_unparse_patternsEPNS_21impl_unparsedeclsinfoE)
	jirl	$ra, $ra, 0
	b	.LBB4_267
	.p2align	4, , 16
.LBB4_271:                              # %while.end82
                                        #   in Loop: Header=BB4_265 Depth=2
	ld.d	$a0, $sp, 200                   # 8-byte Folded Reload
	ld.d	$a1, $a0, 0
	move	$a0, $s3
	pcaddu18i	$ra, %call36(_ZN2kc33f_rewriteviewsinfo_of_alternativeEPNS_16impl_alternativeEPNS_14impl_viewnamesE)
	jirl	$ra, $ra, 0
	move	$s3, $a0
	ld.d	$a0, $a0, 0
	b	.LBB4_273
	.p2align	4, , 16
.LBB4_272:                              # %if.end99
                                        #   in Loop: Header=BB4_273 Depth=3
	ld.d	$s3, $s3, 16
	ld.d	$a0, $s3, 0
.LBB4_273:                              # %while.end82
                                        #   Parent Loop BB4_261 Depth=1
                                        #     Parent Loop BB4_265 Depth=2
                                        # =>    This Inner Loop Header: Depth=3
	ld.d	$a1, $a0, 0
	move	$a0, $s3
	jirl	$ra, $a1, 0
	bne	$a0, $fp, .LBB4_264
# %bb.274:                              # %while.body90
                                        #   in Loop: Header=BB4_273 Depth=3
	ld.d	$s4, $s3, 8
	ld.d	$a0, $s4, 0
	ld.d	$a1, $a0, 0
	move	$a0, $s4
	jirl	$ra, $a1, 0
	bne	$a0, $s6, .LBB4_272
# %bb.275:                              # %if.then96
                                        #   in Loop: Header=BB4_273 Depth=3
	ld.d	$a0, $s4, 16
	pcaddu18i	$ra, %call36(_ZN2kc22check_rewrite_patternsEPNS_21impl_rewriterulesinfoE)
	jirl	$ra, $ra, 0
	b	.LBB4_272
	.p2align	4, , 16
.LBB4_276:                              # %if.else103
                                        #   in Loop: Header=BB4_261 Depth=1
	ld.d	$a0, $s2, 0
	ld.d	$a1, $a0, 0
	move	$a0, $s2
	jirl	$ra, $a1, 0
	ori	$a1, $zero, 22
	bne	$a0, $a1, .LBB4_260
# %bb.277:                              # %if.then108
                                        #   in Loop: Header=BB4_261 Depth=1
	ld.d	$s2, $s2, 8
	b	.LBB4_279
	.p2align	4, , 16
.LBB4_278:                              # %while.end167
                                        #   in Loop: Header=BB4_279 Depth=2
	ld.d	$s2, $s2, 16
.LBB4_279:                              # %if.then108
                                        #   Parent Loop BB4_261 Depth=1
                                        # =>  This Loop Header: Depth=2
                                        #       Child Loop BB4_282 Depth 3
                                        #       Child Loop BB4_287 Depth 3
	ld.d	$a0, $s2, 0
	ld.d	$a1, $a0, 0
	move	$a0, $s2
	jirl	$ra, $a1, 0
	bne	$a0, $s0, .LBB4_260
# %bb.280:                              # %while.body118
                                        #   in Loop: Header=BB4_279 Depth=2
	ld.d	$s3, $s2, 8
	ld.d	$a0, $sp, 208                   # 8-byte Folded Reload
	ld.d	$a1, $a0, 0
	move	$a0, $s3
	pcaddu18i	$ra, %call36(_ZN2kc33f_unparseviewsinfo_of_alternativeEPNS_16impl_alternativeEPNS_14impl_viewnamesE)
	jirl	$ra, $ra, 0
	move	$s4, $a0
	ld.d	$a0, $a0, 0
	b	.LBB4_282
	.p2align	4, , 16
.LBB4_281:                              # %if.end142
                                        #   in Loop: Header=BB4_282 Depth=3
	ld.d	$s4, $s4, 16
	ld.d	$a0, $s4, 0
.LBB4_282:                              # %while.body118
                                        #   Parent Loop BB4_261 Depth=1
                                        #     Parent Loop BB4_279 Depth=2
                                        # =>    This Inner Loop Header: Depth=3
	ld.d	$a1, $a0, 0
	move	$a0, $s4
	jirl	$ra, $a1, 0
	bne	$a0, $s7, .LBB4_285
# %bb.283:                              # %while.body130
                                        #   in Loop: Header=BB4_282 Depth=3
	ld.d	$s5, $s4, 8
	ld.d	$a0, $s5, 0
	ld.d	$a1, $a0, 0
	move	$a0, $s5
	jirl	$ra, $a1, 0
	bne	$a0, $s8, .LBB4_281
# %bb.284:                              # %if.then137
                                        #   in Loop: Header=BB4_282 Depth=3
	ld.d	$a0, $s5, 16
	pcaddu18i	$ra, %call36(_ZN2kc22check_unparse_patternsEPNS_21impl_unparsedeclsinfoE)
	jirl	$ra, $ra, 0
	b	.LBB4_281
	.p2align	4, , 16
.LBB4_285:                              # %while.end144
                                        #   in Loop: Header=BB4_279 Depth=2
	ld.d	$a0, $sp, 200                   # 8-byte Folded Reload
	ld.d	$a1, $a0, 0
	move	$a0, $s3
	pcaddu18i	$ra, %call36(_ZN2kc33f_rewriteviewsinfo_of_alternativeEPNS_16impl_alternativeEPNS_14impl_viewnamesE)
	jirl	$ra, $ra, 0
	move	$s3, $a0
	ld.d	$a0, $a0, 0
	b	.LBB4_287
	.p2align	4, , 16
.LBB4_286:                              # %if.end165
                                        #   in Loop: Header=BB4_287 Depth=3
	ld.d	$s3, $s3, 16
	ld.d	$a0, $s3, 0
.LBB4_287:                              # %while.end144
                                        #   Parent Loop BB4_261 Depth=1
                                        #     Parent Loop BB4_279 Depth=2
                                        # =>    This Inner Loop Header: Depth=3
	ld.d	$a1, $a0, 0
	move	$a0, $s3
	jirl	$ra, $a1, 0
	bne	$a0, $fp, .LBB4_278
# %bb.288:                              # %while.body153
                                        #   in Loop: Header=BB4_287 Depth=3
	ld.d	$s4, $s3, 8
	ld.d	$a0, $s4, 0
	ld.d	$a1, $a0, 0
	move	$a0, $s4
	jirl	$ra, $a1, 0
	bne	$a0, $s6, .LBB4_286
# %bb.289:                              # %if.then160
                                        #   in Loop: Header=BB4_287 Depth=3
	ld.d	$a0, $s4, 16
	pcaddu18i	$ra, %call36(_ZN2kc22check_rewrite_patternsEPNS_21impl_rewriterulesinfoE)
	jirl	$ra, $ra, 0
	b	.LBB4_286
.LBB4_290:                              # %while.end175
	pcalau12i	$a0, %got_pc_hi20(pg_languageshavebeendefined)
	ld.d	$s7, $a0, %got_pc_lo12(pg_languageshavebeendefined)
	ld.bu	$a0, $s7, 0
	ori	$a1, $zero, 1
	bne	$a0, $a1, .LBB4_292
# %bb.291:                              # %if.then177
	pcaddu18i	$ra, %call36(_ZN2kc15collect_stringsEv)
	jirl	$ra, $ra, 0
.LBB4_292:                              # %if.end178
	ld.d	$a0, $sp, 120                   # 8-byte Folded Reload
	ld.bu	$a0, $a0, 0
	ld.d	$fp, $sp, 192                   # 8-byte Folded Reload
	ld.d	$s0, $sp, 88                    # 8-byte Folded Reload
	beqz	$a0, .LBB4_301
# %bb.293:                              # %if.end181
	ld.d	$a0, $sp, 184                   # 8-byte Folded Reload
	ld.d	$a0, $a0, 0
	pcaddu18i	$ra, %call36(_ZN2kc18PhylumDeclarationsEPNS_23impl_phylumdeclarationsE)
	jirl	$ra, $ra, 0
	ld.d	$a1, $s0, 0
	move	$s1, $a0
	move	$a0, $a1
	pcaddu18i	$ra, %call36(_ZNK2kc18impl_abstract_list6lengthEv)
	jirl	$ra, $ra, 0
	bnez	$a0, .LBB4_295
# %bb.294:                              # %if.then185
	move	$a0, $zero
	pcaddu18i	$ra, %call36(_ZN2kc9mkintegerEi)
	jirl	$ra, $ra, 0
	ld.d	$a1, $s0, 0
	pcaddu18i	$ra, %call36(_ZN2kc15ConsargsnumbersEPNS_17impl_integer__IntEPNS_16impl_argsnumbersE)
	jirl	$ra, $ra, 0
	st.d	$a0, $s0, 0
.LBB4_295:                              # %if.end188
	ld.bu	$a0, $fp, 65
	ori	$a1, $zero, 1
	bne	$a0, $a1, .LBB4_297
# %bb.296:                              # %if.then190
	pcalau12i	$a0, %got_pc_hi20(_ZSt4cout)
	ld.d	$s2, $a0, %got_pc_lo12(_ZSt4cout)
	pcalau12i	$a0, %pc_hi20(.L.str.8)
	addi.d	$a1, $a0, %pc_lo12(.L.str.8)
	ori	$a2, $zero, 24
	move	$a0, $s2
	pcaddu18i	$ra, %call36(_ZSt16__ostream_insertIcSt11char_traitsIcEERSt13basic_ostreamIT_T0_ES6_PKS3_l)
	jirl	$ra, $ra, 0
	move	$a0, $s2
	pcaddu18i	$ra, %call36(_ZNSo5flushEv)
	jirl	$ra, $ra, 0
.LBB4_297:                              # %if.end193
	ld.d	$s2, $fp, 184
	ld.d	$s3, $fp, 192
	addi.d	$a0, $sp, 456
	st.d	$a0, $sp, 440
	st.d	$zero, $sp, 448
	st.b	$zero, $sp, 456
	addi.d	$a1, $s3, 3
.Ltmp110:                               # EH_LABEL
	addi.d	$a0, $sp, 440
	pcaddu18i	$ra, %call36(_ZNSt7__cxx1112basic_stringIcSt11char_traitsIcESaIcEE7reserveEm)
	jirl	$ra, $ra, 0
.Ltmp111:                               # EH_LABEL
# %bb.298:                              # %invoke.cont.i.i216
	ld.d	$a0, $sp, 448
	addi.w	$a1, $zero, -2
	lu52i.d	$fp, $a1, 2047
	sub.d	$a0, $fp, $a0
	bgeu	$a0, $s3, .LBB4_308
.LBB4_299:                              # %if.then.i.i10.invoke.i.i
.Ltmp295:                               # EH_LABEL
	pcalau12i	$a0, %pc_hi20(.L.str.126)
	addi.d	$a0, $a0, %pc_lo12(.L.str.126)
	pcaddu18i	$ra, %call36(_ZSt20__throw_length_errorPKc)
	jirl	$ra, $ra, 0
.Ltmp296:                               # EH_LABEL
# %bb.300:                              # %if.then.i.i10.cont.i.i
.LBB4_301:                              # %if.else380.i
	ori	$a0, $zero, 1
	pcaddu18i	$ra, %call36(_ZN2kc5leaveEi)
	jirl	$ra, $ra, 0
.LBB4_302:                              # %if.then.i.i10.invoke.i.i.i
.Ltmp322:                               # EH_LABEL
	pcalau12i	$a0, %pc_hi20(.L.str.126)
	addi.d	$a0, $a0, %pc_lo12(.L.str.126)
	pcaddu18i	$ra, %call36(_ZSt20__throw_length_errorPKc)
	jirl	$ra, $ra, 0
.Ltmp323:                               # EH_LABEL
# %bb.303:                              # %if.then.i.i10.cont.i.i.i
.LBB4_304:                              # %if.then.i.i10.invoke.i.i258.i
.Ltmp55:                                # EH_LABEL
	pcalau12i	$a0, %pc_hi20(.L.str.126)
	addi.d	$a0, $a0, %pc_lo12(.L.str.126)
	pcaddu18i	$ra, %call36(_ZSt20__throw_length_errorPKc)
	jirl	$ra, $ra, 0
.Ltmp56:                                # EH_LABEL
# %bb.305:                              # %if.then.i.i10.cont.i.i259.i
.LBB4_306:                              # %if.then.i.i10.invoke.i.i373.i
.Ltmp319:                               # EH_LABEL
	pcalau12i	$a0, %pc_hi20(.L.str.126)
	addi.d	$a0, $a0, %pc_lo12(.L.str.126)
	pcaddu18i	$ra, %call36(_ZSt20__throw_length_errorPKc)
	jirl	$ra, $ra, 0
.Ltmp320:                               # EH_LABEL
# %bb.307:                              # %if.then.i.i10.cont.i.i374.i
.LBB4_308:                              # %_ZNKSt7__cxx1112basic_stringIcSt11char_traitsIcESaIcEE15_M_check_lengthEmmPKc.exit.i.i.i
.Ltmp112:                               # EH_LABEL
	addi.d	$a0, $sp, 440
	move	$a1, $s2
	move	$a2, $s3
	pcaddu18i	$ra, %call36(_ZNSt7__cxx1112basic_stringIcSt11char_traitsIcESaIcEE9_M_appendEPKcm)
	jirl	$ra, $ra, 0
.Ltmp113:                               # EH_LABEL
# %bb.309:                              # %invoke.cont1.i.i
	ld.d	$a0, $sp, 448
	addi.w	$a1, $zero, -4
	lu52i.d	$a1, $a1, 2047
	bgeu	$a0, $a1, .LBB4_299
# %bb.310:                              # %_ZNKSt7__cxx1112basic_stringIcSt11char_traitsIcESaIcEE15_M_check_lengthEmmPKc.exit.i9.i.i
.Ltmp114:                               # EH_LABEL
	pcalau12i	$a0, %pc_hi20(.L.str.11)
	addi.d	$a1, $a0, %pc_lo12(.L.str.11)
	addi.d	$a0, $sp, 440
	ori	$a2, $zero, 3
	pcaddu18i	$ra, %call36(_ZNSt7__cxx1112basic_stringIcSt11char_traitsIcESaIcEE9_M_appendEPKcm)
	jirl	$ra, $ra, 0
.Ltmp115:                               # EH_LABEL
# %bb.311:                              # %_ZStplIcSt11char_traitsIcESaIcEENSt7__cxx1112basic_stringIT_T0_T1_EERKS8_PKS5_.exit
.Ltmp116:                               # EH_LABEL
	pcalau12i	$a0, %got_pc_hi20(v_hfile_printer)
	ld.d	$a0, $a0, %got_pc_lo12(v_hfile_printer)
	pcalau12i	$a1, %pc_hi20(.L.str.9)
	addi.d	$a1, $a1, %pc_lo12(.L.str.9)
	pcalau12i	$a2, %pc_hi20(.L.str.10)
	addi.d	$a2, $a2, %pc_lo12(.L.str.10)
	addi.d	$a3, $sp, 440
	pcaddu18i	$ra, %call36(_ZN14kc_filePrinter4initEPKcS1_RKNSt7__cxx1112basic_stringIcSt11char_traitsIcESaIcEEE)
	jirl	$ra, $ra, 0
.Ltmp117:                               # EH_LABEL
# %bb.312:                              # %invoke.cont
	ld.d	$a0, $sp, 440
	addi.d	$a1, $sp, 456
	beq	$a0, $a1, .LBB4_314
# %bb.313:                              # %if.then.i.i
	ld.d	$a1, $sp, 456
	addi.d	$a1, $a1, 1
	pcaddu18i	$ra, %call36(_ZdlPvm)
	jirl	$ra, $ra, 0
.LBB4_314:                              # %_ZNSt7__cxx1112basic_stringIcSt11char_traitsIcESaIcEED2Ev.exit
	ld.d	$a0, $sp, 192                   # 8-byte Folded Reload
	ld.d	$s2, $a0, 184
	ld.d	$s3, $a0, 192
	addi.d	$a0, $sp, 424
	st.d	$a0, $sp, 408
	st.d	$zero, $sp, 416
	st.b	$zero, $sp, 424
	addi.d	$a1, $s3, 2
.Ltmp119:                               # EH_LABEL
	addi.d	$a0, $sp, 408
	pcaddu18i	$ra, %call36(_ZNSt7__cxx1112basic_stringIcSt11char_traitsIcESaIcEE7reserveEm)
	jirl	$ra, $ra, 0
.Ltmp120:                               # EH_LABEL
# %bb.315:                              # %invoke.cont.i.i233
	ld.d	$a0, $sp, 416
	sub.d	$a0, $fp, $a0
	bltu	$a0, $s3, .LBB4_318
# %bb.316:                              # %_ZNKSt7__cxx1112basic_stringIcSt11char_traitsIcESaIcEE15_M_check_lengthEmmPKc.exit.i.i.i237
.Ltmp121:                               # EH_LABEL
	addi.d	$a0, $sp, 408
	move	$a1, $s2
	move	$a2, $s3
	pcaddu18i	$ra, %call36(_ZNSt7__cxx1112basic_stringIcSt11char_traitsIcESaIcEE9_M_appendEPKcm)
	jirl	$ra, $ra, 0
.Ltmp122:                               # EH_LABEL
# %bb.317:                              # %invoke.cont1.i.i239
	ld.d	$a0, $sp, 416
	addi.w	$a1, $zero, -3
	lu52i.d	$s6, $a1, 2047
	bltu	$a0, $s6, .LBB4_338
.LBB4_318:                              # %if.then.i.i10.invoke.i.i246
.Ltmp292:                               # EH_LABEL
	pcalau12i	$a0, %pc_hi20(.L.str.126)
	addi.d	$a0, $a0, %pc_lo12(.L.str.126)
	pcaddu18i	$ra, %call36(_ZSt20__throw_length_errorPKc)
	jirl	$ra, $ra, 0
.Ltmp293:                               # EH_LABEL
# %bb.319:                              # %if.then.i.i10.cont.i.i247
.LBB4_320:                              # %if.then.i.i10.invoke.i.i285.i
.Ltmp52:                                # EH_LABEL
	pcalau12i	$a0, %pc_hi20(.L.str.126)
	addi.d	$a0, $a0, %pc_lo12(.L.str.126)
	pcaddu18i	$ra, %call36(_ZSt20__throw_length_errorPKc)
	jirl	$ra, $ra, 0
.Ltmp53:                                # EH_LABEL
# %bb.321:                              # %if.then.i.i10.cont.i.i286.i
.LBB4_322:                              # %if.then.i.i.i383.i
.Ltmp316:                               # EH_LABEL
	pcalau12i	$a0, %pc_hi20(.L.str.126)
	addi.d	$a0, $a0, %pc_lo12(.L.str.126)
	pcaddu18i	$ra, %call36(_ZSt20__throw_length_errorPKc)
	jirl	$ra, $ra, 0
.Ltmp317:                               # EH_LABEL
# %bb.323:                              # %.noexc384.i
.LBB4_324:                              # %if.then.i.i.i.i402.i
.Ltmp313:                               # EH_LABEL
	pcalau12i	$a0, %pc_hi20(.L.str.126)
	addi.d	$a0, $a0, %pc_lo12(.L.str.126)
	pcaddu18i	$ra, %call36(_ZSt20__throw_length_errorPKc)
	jirl	$ra, $ra, 0
.Ltmp314:                               # EH_LABEL
# %bb.325:                              # %.noexc403.i
.LBB4_326:                              # %if.then.i.i.i422.i
.Ltmp310:                               # EH_LABEL
	pcalau12i	$a0, %pc_hi20(.L.str.126)
	addi.d	$a0, $a0, %pc_lo12(.L.str.126)
	pcaddu18i	$ra, %call36(_ZSt20__throw_length_errorPKc)
	jirl	$ra, $ra, 0
.Ltmp311:                               # EH_LABEL
# %bb.327:                              # %.noexc423.i
.LBB4_328:                              # %if.then.i.i.i.i445.i
.Ltmp307:                               # EH_LABEL
	pcalau12i	$a0, %pc_hi20(.L.str.126)
	addi.d	$a0, $a0, %pc_lo12(.L.str.126)
	pcaddu18i	$ra, %call36(_ZSt20__throw_length_errorPKc)
	jirl	$ra, $ra, 0
.Ltmp308:                               # EH_LABEL
# %bb.329:                              # %.noexc446.i
.LBB4_330:                              # %if.then.i.i.i466.i
.Ltmp304:                               # EH_LABEL
	pcalau12i	$a0, %pc_hi20(.L.str.126)
	addi.d	$a0, $a0, %pc_lo12(.L.str.126)
	addi.d	$s1, $sp, 360
	pcaddu18i	$ra, %call36(_ZSt20__throw_length_errorPKc)
	jirl	$ra, $ra, 0
.Ltmp305:                               # EH_LABEL
# %bb.331:                              # %.noexc467.i
.LBB4_332:                              # %if.then.i.i.i.i489.i
.Ltmp301:                               # EH_LABEL
	pcalau12i	$a0, %pc_hi20(.L.str.126)
	addi.d	$a0, $a0, %pc_lo12(.L.str.126)
	addi.d	$s1, $sp, 392
	pcaddu18i	$ra, %call36(_ZSt20__throw_length_errorPKc)
	jirl	$ra, $ra, 0
.Ltmp302:                               # EH_LABEL
# %bb.333:                              # %.noexc490.i
.LBB4_334:                              # %if.then.i.i.i510.i
.Ltmp298:                               # EH_LABEL
	pcalau12i	$a0, %pc_hi20(.L.str.126)
	addi.d	$a0, $a0, %pc_lo12(.L.str.126)
	addi.d	$s1, $sp, 392
	pcaddu18i	$ra, %call36(_ZSt20__throw_length_errorPKc)
	jirl	$ra, $ra, 0
.Ltmp299:                               # EH_LABEL
# %bb.335:                              # %.noexc511.i
.LBB4_336:                              # %if.then.i.i10.invoke.i.i313.i
.Ltmp49:                                # EH_LABEL
	pcalau12i	$a0, %pc_hi20(.L.str.126)
	addi.d	$a0, $a0, %pc_lo12(.L.str.126)
	pcaddu18i	$ra, %call36(_ZSt20__throw_length_errorPKc)
	jirl	$ra, $ra, 0
.Ltmp50:                                # EH_LABEL
# %bb.337:                              # %if.then.i.i10.cont.i.i314.i
.LBB4_338:                              # %_ZNKSt7__cxx1112basic_stringIcSt11char_traitsIcESaIcEE15_M_check_lengthEmmPKc.exit.i9.i.i243
.Ltmp123:                               # EH_LABEL
	pcalau12i	$a0, %pc_hi20(.L.str.13)
	addi.d	$a1, $a0, %pc_lo12(.L.str.13)
	addi.d	$a0, $sp, 408
	ori	$a2, $zero, 2
	pcaddu18i	$ra, %call36(_ZNSt7__cxx1112basic_stringIcSt11char_traitsIcESaIcEE9_M_appendEPKcm)
	jirl	$ra, $ra, 0
.Ltmp124:                               # EH_LABEL
# %bb.339:                              # %_ZStplIcSt11char_traitsIcESaIcEENSt7__cxx1112basic_stringIT_T0_T1_EERKS8_PKS5_.exit248
	ld.d	$a0, $sp, 416
	ld.d	$a1, $sp, 192                   # 8-byte Folded Reload
	ld.d	$a2, $a1, 224
	sub.d	$a0, $fp, $a0
	bgeu	$a0, $a2, .LBB4_342
# %bb.340:                              # %if.then.i.i.i.i258
.Ltmp289:                               # EH_LABEL
	pcalau12i	$a0, %pc_hi20(.L.str.126)
	addi.d	$a0, $a0, %pc_lo12(.L.str.126)
	pcaddu18i	$ra, %call36(_ZSt20__throw_length_errorPKc)
	jirl	$ra, $ra, 0
.Ltmp290:                               # EH_LABEL
# %bb.341:                              # %.noexc
.LBB4_342:                              # %_ZNSt7__cxx1112basic_stringIcSt11char_traitsIcESaIcEE6appendERKS4_.exit.i
.Ltmp125:                               # EH_LABEL
	ld.d	$a0, $sp, 192                   # 8-byte Folded Reload
	ld.d	$a1, $a0, 216
	addi.d	$a0, $sp, 408
	pcaddu18i	$ra, %call36(_ZNSt7__cxx1112basic_stringIcSt11char_traitsIcESaIcEE9_M_appendEPKcm)
	jirl	$ra, $ra, 0
.Ltmp126:                               # EH_LABEL
# %bb.343:                              # %call.i.i.i254.noexc
	move	$s2, $a0
	addi.d	$a0, $sp, 456
	st.d	$a0, $sp, 440
	ld.d	$a0, $s2, 0
	addi.d	$s3, $s2, 16
	bne	$a0, $s3, .LBB4_345
# %bb.344:                              # %_ZNSt11char_traitsIcE4copyEPcPKcm.exit.i.i
	ld.d	$s0, $s2, 8
	addi.d	$a2, $s0, 1
	addi.d	$a0, $sp, 456
	move	$a1, $s3
	pcaddu18i	$ra, %call36(memcpy)
	jirl	$ra, $ra, 0
	b	.LBB4_346
.LBB4_345:                              # %if.else.i.i
	ld.d	$a1, $s2, 16
	st.d	$a1, $sp, 456
	ld.d	$s0, $s2, 8
	st.d	$a0, $sp, 440
.LBB4_346:                              # %invoke.cont197
	st.d	$s0, $sp, 448
	st.d	$s3, $s2, 0
	st.d	$zero, $s2, 8
	st.b	$zero, $s2, 16
.Ltmp127:                               # EH_LABEL
	pcalau12i	$a0, %got_pc_hi20(v_ccfile_printer)
	ld.d	$a0, $a0, %got_pc_lo12(v_ccfile_printer)
	pcalau12i	$a1, %pc_hi20(.L.str.12)
	addi.d	$a1, $a1, %pc_lo12(.L.str.12)
	pcalau12i	$a2, %pc_hi20(.L.str.10)
	addi.d	$a2, $a2, %pc_lo12(.L.str.10)
	addi.d	$a3, $sp, 440
	pcaddu18i	$ra, %call36(_ZN14kc_filePrinter4initEPKcS1_RKNSt7__cxx1112basic_stringIcSt11char_traitsIcESaIcEEE)
	jirl	$ra, $ra, 0
.Ltmp128:                               # EH_LABEL
# %bb.347:                              # %invoke.cont199
	ld.d	$a0, $sp, 440
	addi.d	$a1, $sp, 456
	bne	$a0, $a1, .LBB4_350
# %bb.348:                              # %_ZNSt7__cxx1112basic_stringIcSt11char_traitsIcESaIcEED2Ev.exit267
	ld.d	$a0, $sp, 408
	addi.d	$a1, $sp, 424
	bne	$a0, $a1, .LBB4_351
.LBB4_349:                              # %_ZNSt7__cxx1112basic_stringIcSt11char_traitsIcESaIcEED2Ev.exit275
	ld.d	$a0, $sp, 192                   # 8-byte Folded Reload
	ld.bu	$a0, $a0, 65
	ori	$a1, $zero, 1
	beq	$a0, $a1, .LBB4_352
	b	.LBB4_372
.LBB4_350:                              # %if.then.i.i261
	ld.d	$a1, $sp, 456
	addi.d	$a1, $a1, 1
	pcaddu18i	$ra, %call36(_ZdlPvm)
	jirl	$ra, $ra, 0
	ld.d	$a0, $sp, 408
	addi.d	$a1, $sp, 424
	beq	$a0, $a1, .LBB4_349
.LBB4_351:                              # %if.then.i.i269
	ld.d	$a1, $sp, 424
	addi.d	$a1, $a1, 1
	pcaddu18i	$ra, %call36(_ZdlPvm)
	jirl	$ra, $ra, 0
	ld.d	$a0, $sp, 192                   # 8-byte Folded Reload
	ld.bu	$a0, $a0, 65
	ori	$a1, $zero, 1
	bne	$a0, $a1, .LBB4_372
.LBB4_352:                              # %if.then203
	ld.d	$a0, $sp, 192                   # 8-byte Folded Reload
	ld.d	$s2, $a0, 184
	ld.d	$s3, $a0, 192
	addi.d	$a0, $sp, 424
	st.d	$a0, $sp, 408
	st.d	$zero, $sp, 416
	st.b	$zero, $sp, 424
	addi.d	$a1, $s3, 1
.Ltmp130:                               # EH_LABEL
	addi.d	$a0, $sp, 408
	pcaddu18i	$ra, %call36(_ZNSt7__cxx1112basic_stringIcSt11char_traitsIcESaIcEE7reserveEm)
	jirl	$ra, $ra, 0
.Ltmp131:                               # EH_LABEL
# %bb.353:                              # %invoke.cont.i.i287
	ld.d	$a0, $sp, 416
	beq	$a0, $fp, .LBB4_356
# %bb.354:                              # %_ZNKSt7__cxx1112basic_stringIcSt11char_traitsIcESaIcEE15_M_check_lengthEmmPKc.exit.i.i.i291
.Ltmp132:                               # EH_LABEL
	pcalau12i	$a0, %pc_hi20(.L.str.14)
	addi.d	$a1, $a0, %pc_lo12(.L.str.14)
	addi.d	$a0, $sp, 408
	ori	$a2, $zero, 1
	pcaddu18i	$ra, %call36(_ZNSt7__cxx1112basic_stringIcSt11char_traitsIcESaIcEE9_M_appendEPKcm)
	jirl	$ra, $ra, 0
.Ltmp133:                               # EH_LABEL
# %bb.355:                              # %invoke.cont1.i.i293
	ld.d	$a0, $sp, 416
	sub.d	$a0, $fp, $a0
	bgeu	$a0, $s3, .LBB4_358
.LBB4_356:                              # %if.then.i.i10.invoke.i.i300
.Ltmp286:                               # EH_LABEL
	pcalau12i	$a0, %pc_hi20(.L.str.126)
	addi.d	$a0, $a0, %pc_lo12(.L.str.126)
	pcaddu18i	$ra, %call36(_ZSt20__throw_length_errorPKc)
	jirl	$ra, $ra, 0
.Ltmp287:                               # EH_LABEL
# %bb.357:                              # %if.then.i.i10.cont.i.i301
.LBB4_358:                              # %_ZNKSt7__cxx1112basic_stringIcSt11char_traitsIcESaIcEE15_M_check_lengthEmmPKc.exit.i9.i.i297
.Ltmp134:                               # EH_LABEL
	addi.d	$a0, $sp, 408
	move	$a1, $s2
	move	$a2, $s3
	pcaddu18i	$ra, %call36(_ZNSt7__cxx1112basic_stringIcSt11char_traitsIcESaIcEE9_M_appendEPKcm)
	jirl	$ra, $ra, 0
.Ltmp135:                               # EH_LABEL
# %bb.359:                              # %_ZStplIcSt11char_traitsIcESaIcEENSt7__cxx1112basic_stringIT_T0_T1_EEPKS5_RKS8_.exit
	ld.d	$a0, $sp, 416
	bne	$a0, $fp, .LBB4_362
# %bb.360:                              # %if.then.i.i.i
.Ltmp283:                               # EH_LABEL
	pcalau12i	$a0, %pc_hi20(.L.str.126)
	addi.d	$a0, $a0, %pc_lo12(.L.str.126)
	pcaddu18i	$ra, %call36(_ZSt20__throw_length_errorPKc)
	jirl	$ra, $ra, 0
.Ltmp284:                               # EH_LABEL
# %bb.361:                              # %.noexc317
.LBB4_362:                              # %_ZNSt7__cxx1112basic_stringIcSt11char_traitsIcESaIcEE6appendEPKc.exit.i
.Ltmp136:                               # EH_LABEL
	pcalau12i	$a0, %pc_hi20(.L.str.15)
	addi.d	$a1, $a0, %pc_lo12(.L.str.15)
	addi.d	$a0, $sp, 408
	ori	$a2, $zero, 1
	pcaddu18i	$ra, %call36(_ZNSt7__cxx1112basic_stringIcSt11char_traitsIcESaIcEE9_M_appendEPKcm)
	jirl	$ra, $ra, 0
.Ltmp137:                               # EH_LABEL
# %bb.363:                              # %call2.i.i305.noexc
	move	$s2, $a0
	addi.d	$a0, $sp, 456
	st.d	$a0, $sp, 440
	ld.d	$a0, $s2, 0
	addi.d	$s3, $s2, 16
	bne	$a0, $s3, .LBB4_365
# %bb.364:                              # %_ZNSt11char_traitsIcE4copyEPcPKcm.exit.i.i313
	ld.d	$s0, $s2, 8
	addi.d	$a2, $s0, 1
	addi.d	$a0, $sp, 456
	move	$a1, $s3
	pcaddu18i	$ra, %call36(memcpy)
	jirl	$ra, $ra, 0
	b	.LBB4_366
.LBB4_365:                              # %if.else.i.i307
	ld.d	$a1, $s2, 16
	st.d	$a1, $sp, 456
	ld.d	$s0, $s2, 8
	st.d	$a0, $sp, 440
.LBB4_366:                              # %invoke.cont207
	st.d	$s0, $sp, 448
	st.d	$s3, $s2, 0
	st.d	$zero, $s2, 8
	ld.d	$a1, $sp, 440
	ld.d	$a2, $sp, 448
	st.b	$zero, $s2, 16
.Ltmp138:                               # EH_LABEL
	pcalau12i	$a0, %got_pc_hi20(_ZSt4cout)
	ld.d	$a0, $a0, %got_pc_lo12(_ZSt4cout)
	pcaddu18i	$ra, %call36(_ZSt16__ostream_insertIcSt11char_traitsIcEERSt13basic_ostreamIT_T0_ES6_PKS3_l)
	jirl	$ra, $ra, 0
.Ltmp139:                               # EH_LABEL
# %bb.367:                              # %invoke.cont209
.Ltmp140:                               # EH_LABEL
	pcaddu18i	$ra, %call36(_ZNSo5flushEv)
	jirl	$ra, $ra, 0
.Ltmp141:                               # EH_LABEL
# %bb.368:                              # %invoke.cont211
	ld.d	$a0, $sp, 440
	addi.d	$a1, $sp, 456
	beq	$a0, $a1, .LBB4_370
# %bb.369:                              # %if.then.i.i325
	ld.d	$a1, $sp, 456
	addi.d	$a1, $a1, 1
	pcaddu18i	$ra, %call36(_ZdlPvm)
	jirl	$ra, $ra, 0
.LBB4_370:                              # %_ZNSt7__cxx1112basic_stringIcSt11char_traitsIcESaIcEED2Ev.exit331
	ld.d	$a0, $sp, 408
	addi.d	$a1, $sp, 424
	beq	$a0, $a1, .LBB4_372
# %bb.371:                              # %if.then.i.i333
	ld.d	$a1, $sp, 424
	addi.d	$a1, $a1, 1
	pcaddu18i	$ra, %call36(_ZdlPvm)
	jirl	$ra, $ra, 0
.LBB4_372:                              # %if.end217
	ld.d	$a0, $s1, 0
	ld.d	$a3, $a0, 72
	pcalau12i	$a0, %got_pc_hi20(v_hfile_printer)
	ld.d	$s2, $a0, %got_pc_lo12(v_hfile_printer)
	pcalau12i	$a0, %got_pc_hi20(_ZN2kc12view_gen_k_hE)
	ld.d	$a2, $a0, %got_pc_lo12(_ZN2kc12view_gen_k_hE)
	move	$a0, $s1
	move	$a1, $s2
	jirl	$ra, $a3, 0
	ld.d	$a0, $s1, 0
	ld.d	$a3, $a0, 72
	pcalau12i	$a0, %got_pc_hi20(v_ccfile_printer)
	ld.d	$s8, $a0, %got_pc_lo12(v_ccfile_printer)
	pcalau12i	$a0, %got_pc_hi20(_ZN2kc12view_gen_k_cE)
	ld.d	$a2, $a0, %got_pc_lo12(_ZN2kc12view_gen_k_cE)
	move	$a0, $s1
	move	$a1, $s8
	jirl	$ra, $a3, 0
	ld.d	$a0, $s1, 0
	ld.d	$a3, $a0, 72
	pcalau12i	$a0, %got_pc_hi20(_ZN2kc20view_gen_enumphyla_hE)
	ld.d	$a2, $a0, %got_pc_lo12(_ZN2kc20view_gen_enumphyla_hE)
	move	$a0, $s1
	move	$a1, $s2
	jirl	$ra, $a3, 0
	ld.d	$a0, $s1, 0
	ld.d	$a3, $a0, 72
	pcalau12i	$a0, %got_pc_hi20(_ZN2kc24view_gen_enumoperators_hE)
	ld.d	$a2, $a0, %got_pc_lo12(_ZN2kc24view_gen_enumoperators_hE)
	move	$a0, $s1
	move	$a1, $s2
	jirl	$ra, $a3, 0
	ld.d	$a0, $s1, 0
	ld.d	$a3, $a0, 72
	pcalau12i	$a0, %got_pc_hi20(_ZN2kc22view_gen_classdecls1_hE)
	ld.d	$a2, $a0, %got_pc_lo12(_ZN2kc22view_gen_classdecls1_hE)
	move	$a0, $s1
	move	$a1, $s2
	jirl	$ra, $a3, 0
	ld.d	$a0, $s1, 0
	ld.d	$a3, $a0, 72
	pcalau12i	$a0, %got_pc_hi20(_ZN2kc23view_gen_nodetypedefs_hE)
	ld.d	$a2, $a0, %got_pc_lo12(_ZN2kc23view_gen_nodetypedefs_hE)
	move	$a0, $s1
	move	$a1, $s2
	jirl	$ra, $a3, 0
	ld.d	$a0, $s1, 0
	ld.d	$a3, $a0, 72
	pcalau12i	$a0, %got_pc_hi20(_ZN2kc27view_gen_operatormap_type_hE)
	ld.d	$a2, $a0, %got_pc_lo12(_ZN2kc27view_gen_operatormap_type_hE)
	move	$a0, $s1
	move	$a1, $s2
	jirl	$ra, $a3, 0
	ld.d	$a0, $s1, 0
	ld.d	$a3, $a0, 72
	pcalau12i	$a0, %got_pc_hi20(_ZN2kc24view_gen_subphylumdefs_cE)
	ld.d	$a2, $a0, %got_pc_lo12(_ZN2kc24view_gen_subphylumdefs_cE)
	move	$a0, $s1
	move	$a1, $s8
	jirl	$ra, $a3, 0
	ld.d	$a0, $s1, 0
	ld.d	$a3, $a0, 72
	pcalau12i	$a0, %got_pc_hi20(_ZN2kc28view_gen_set_subphylumdefs_cE)
	ld.d	$a2, $a0, %got_pc_lo12(_ZN2kc28view_gen_set_subphylumdefs_cE)
	move	$a0, $s1
	move	$a1, $s8
	jirl	$ra, $a3, 0
	ld.d	$a0, $s1, 0
	ld.d	$a3, $a0, 72
	pcalau12i	$a0, %got_pc_hi20(_ZN2kc26view_gen_copy_attributes_cE)
	ld.d	$a2, $a0, %got_pc_lo12(_ZN2kc26view_gen_copy_attributes_cE)
	move	$a0, $s1
	move	$a1, $s8
	jirl	$ra, $a3, 0
	ld.d	$a0, $s1, 0
	ld.d	$a3, $a0, 72
	pcalau12i	$a0, %got_pc_hi20(_ZN2kc20view_gen_phylummap_cE)
	ld.d	$a2, $a0, %got_pc_lo12(_ZN2kc20view_gen_phylummap_cE)
	move	$a0, $s1
	move	$a1, $s8
	jirl	$ra, $a3, 0
	ld.d	$a0, $s1, 0
	ld.d	$a3, $a0, 72
	pcalau12i	$a0, %got_pc_hi20(_ZN2kc22view_gen_operatormap_cE)
	ld.d	$a2, $a0, %got_pc_lo12(_ZN2kc22view_gen_operatormap_cE)
	move	$a0, $s1
	move	$a1, $s8
	jirl	$ra, $a3, 0
	ld.d	$a0, $sp, 168                   # 8-byte Folded Reload
	ld.d	$a0, $a0, 0
	ld.d	$a1, $a0, 0
	ld.d	$a3, $a1, 72
	pcalau12i	$a1, %got_pc_hi20(_ZN2kc18view_gen_uniqmap_cE)
	ld.d	$a2, $a1, %got_pc_lo12(_ZN2kc18view_gen_uniqmap_cE)
	move	$a1, $s8
	jirl	$ra, $a3, 0
	ld.d	$a0, $s1, 0
	ld.d	$a3, $a0, 72
	pcalau12i	$a0, %got_pc_hi20(_ZN2kc20view_gen_nodetypes_hE)
	ld.d	$a2, $a0, %got_pc_lo12(_ZN2kc20view_gen_nodetypes_hE)
	move	$a0, $s1
	move	$a1, $s2
	jirl	$ra, $a3, 0
	ld.d	$a0, $s1, 0
	ld.d	$a3, $a0, 72
	pcalau12i	$a0, %got_pc_hi20(_ZN2kc24view_gen_noofoperators_hE)
	ld.d	$a2, $a0, %got_pc_lo12(_ZN2kc24view_gen_noofoperators_hE)
	move	$a0, $s1
	move	$a1, $s2
	jirl	$ra, $a3, 0
	ld.d	$a0, $s1, 0
	ld.d	$a3, $a0, 72
	pcalau12i	$a0, %got_pc_hi20(_ZN2kc20view_close_namespaceE)
	ld.d	$s3, $a0, %got_pc_lo12(_ZN2kc20view_close_namespaceE)
	move	$a0, $s1
	move	$a1, $s2
	move	$a2, $s3
	jirl	$ra, $a3, 0
	ld.d	$a0, $s1, 0
	ld.d	$a3, $a0, 72
	move	$a0, $s1
	move	$a1, $s8
	move	$a2, $s3
	jirl	$ra, $a3, 0
	pcalau12i	$a0, %pc_hi20(.L.str.16)
	addi.d	$s3, $a0, %pc_lo12(.L.str.16)
	addi.w	$s0, $zero, -1
	move	$a0, $s3
	move	$a1, $s0
	pcaddu18i	$ra, %call36(_ZN2kc12mkcasestringEPKci)
	jirl	$ra, $ra, 0
	pcaddu18i	$ra, %call36(_ZN2kc11IncludeFileEPNS_20impl_casestring__StrE)
	jirl	$ra, $ra, 0
	move	$s4, $a0
	move	$a0, $s3
	move	$a1, $s0
	pcaddu18i	$ra, %call36(_ZN2kc12mkcasestringEPKci)
	jirl	$ra, $ra, 0
	pcaddu18i	$ra, %call36(_ZN2kc11IncludeFileEPNS_20impl_casestring__StrE)
	jirl	$ra, $ra, 0
	ld.w	$a0, $a0, 8
	sltu	$a0, $zero, $a0
	alsl.d	$a0, $a0, $s4, 3
	ld.d	$a0, $a0, 16
	ld.d	$a1, $a0, 0
	ld.d	$a3, $a1, 72
	pcalau12i	$a1, %got_pc_hi20(_ZN2kc17view_gen_includesE)
	ld.d	$s3, $a1, %got_pc_lo12(_ZN2kc17view_gen_includesE)
	move	$a1, $s2
	move	$a2, $s3
	jirl	$ra, $a3, 0
	pcalau12i	$a0, %pc_hi20(.L.str.17)
	addi.d	$s4, $a0, %pc_lo12(.L.str.17)
	move	$a0, $s4
	move	$a1, $s0
	pcaddu18i	$ra, %call36(_ZN2kc12mkcasestringEPKci)
	jirl	$ra, $ra, 0
	pcaddu18i	$ra, %call36(_ZN2kc11IncludeFileEPNS_20impl_casestring__StrE)
	jirl	$ra, $ra, 0
	move	$s5, $a0
	move	$a0, $s4
	st.d	$s0, $sp, 24                    # 8-byte Folded Spill
	move	$a1, $s0
	pcaddu18i	$ra, %call36(_ZN2kc12mkcasestringEPKci)
	jirl	$ra, $ra, 0
	pcaddu18i	$ra, %call36(_ZN2kc11IncludeFileEPNS_20impl_casestring__StrE)
	jirl	$ra, $ra, 0
	ld.w	$a0, $a0, 8
	sltu	$a0, $zero, $a0
	alsl.d	$a0, $a0, $s5, 3
	ld.d	$a0, $a0, 16
	ld.d	$a1, $a0, 0
	ld.d	$a3, $a1, 72
	move	$a1, $s8
	move	$a2, $s3
	jirl	$ra, $a3, 0
	ld.d	$a0, $s1, 0
	ld.d	$a3, $a0, 72
	pcalau12i	$a0, %got_pc_hi20(_ZN2kc19view_open_namespaceE)
	ld.d	$s3, $a0, %got_pc_lo12(_ZN2kc19view_open_namespaceE)
	move	$a0, $s1
	move	$a1, $s2
	move	$a2, $s3
	jirl	$ra, $a3, 0
	ld.d	$a0, $s1, 0
	ld.d	$a3, $a0, 72
	move	$a0, $s1
	move	$a1, $s8
	move	$a2, $s3
	jirl	$ra, $a3, 0
	ld.d	$a0, $s1, 0
	ld.d	$a3, $a0, 72
	pcalau12i	$a0, %got_pc_hi20(_ZN2kc23view_gen_assertmacros_hE)
	ld.d	$a2, $a0, %got_pc_lo12(_ZN2kc23view_gen_assertmacros_hE)
	move	$a0, $s1
	move	$a1, $s2
	jirl	$ra, $a3, 0
	ld.d	$a0, $s1, 0
	ld.d	$a3, $a0, 72
	pcalau12i	$a0, %got_pc_hi20(_ZN2kc23view_gen_assertmacros_cE)
	ld.d	$a2, $a0, %got_pc_lo12(_ZN2kc23view_gen_assertmacros_cE)
	move	$a0, $s1
	move	$a1, $s8
	jirl	$ra, $a3, 0
	ld.d	$a0, $s1, 0
	ld.d	$a3, $a0, 72
	pcalau12i	$a0, %got_pc_hi20(_ZN2kc24view_gen_operatordecls_hE)
	ld.d	$a2, $a0, %got_pc_lo12(_ZN2kc24view_gen_operatordecls_hE)
	move	$a0, $s1
	move	$a1, $s2
	jirl	$ra, $a3, 0
	ld.d	$a0, $s1, 0
	ld.d	$a3, $a0, 72
	pcalau12i	$a0, %got_pc_hi20(_ZN2kc22view_gen_classdecls2_hE)
	ld.d	$a2, $a0, %got_pc_lo12(_ZN2kc22view_gen_classdecls2_hE)
	move	$a0, $s1
	move	$a1, $s2
	jirl	$ra, $a3, 0
	ld.d	$a0, $s1, 0
	ld.d	$a3, $a0, 72
	pcalau12i	$a0, %got_pc_hi20(_ZN2kc20view_gen_classdefs_cE)
	ld.d	$a2, $a0, %got_pc_lo12(_ZN2kc20view_gen_classdefs_cE)
	move	$a0, $s1
	move	$a1, $s8
	jirl	$ra, $a3, 0
	ld.d	$a0, $s1, 0
	ld.d	$a3, $a0, 72
	pcalau12i	$a0, %got_pc_hi20(_ZN2kc16view_gen_alloc_hE)
	ld.d	$a2, $a0, %got_pc_lo12(_ZN2kc16view_gen_alloc_hE)
	move	$a0, $s1
	move	$a1, $s2
	jirl	$ra, $a3, 0
	ld.d	$a0, $s1, 0
	ld.d	$a3, $a0, 72
	pcalau12i	$a0, %got_pc_hi20(_ZN2kc16view_gen_alloc_cE)
	ld.d	$a2, $a0, %got_pc_lo12(_ZN2kc16view_gen_alloc_cE)
	move	$a0, $s1
	move	$a1, $s8
	jirl	$ra, $a3, 0
	ld.d	$a0, $s1, 0
	ld.d	$a3, $a0, 72
	pcalau12i	$a0, %got_pc_hi20(_ZN2kc21view_gen_hashtables_hE)
	ld.d	$a2, $a0, %got_pc_lo12(_ZN2kc21view_gen_hashtables_hE)
	move	$a0, $s1
	move	$a1, $s2
	jirl	$ra, $a3, 0
	ld.d	$a0, $s1, 0
	ld.d	$a3, $a0, 72
	pcalau12i	$a0, %got_pc_hi20(_ZN2kc23view_gen_operatordefs_cE)
	ld.d	$a2, $a0, %got_pc_lo12(_ZN2kc23view_gen_operatordefs_cE)
	move	$a0, $s1
	move	$a1, $s8
	jirl	$ra, $a3, 0
	ld.d	$a0, $s1, 0
	ld.d	$a3, $a0, 72
	pcalau12i	$a0, %got_pc_hi20(_ZN2kc21view_gen_hashtables_cE)
	ld.d	$a2, $a0, %got_pc_lo12(_ZN2kc21view_gen_hashtables_cE)
	move	$a0, $s1
	move	$a1, $s8
	jirl	$ra, $a3, 0
	ld.d	$a0, $s1, 0
	ld.d	$a3, $a0, 72
	pcalau12i	$a0, %got_pc_hi20(_ZN2kc22view_gen_error_decls_hE)
	ld.d	$a2, $a0, %got_pc_lo12(_ZN2kc22view_gen_error_decls_hE)
	move	$a0, $s1
	move	$a1, $s2
	jirl	$ra, $a3, 0
	ld.d	$a0, $s1, 0
	ld.d	$a3, $a0, 72
	pcalau12i	$a0, %got_pc_hi20(_ZN2kc21view_gen_error_defs_cE)
	ld.d	$a2, $a0, %got_pc_lo12(_ZN2kc21view_gen_error_defs_cE)
	move	$a0, $s1
	st.d	$s8, $sp, 200                   # 8-byte Folded Spill
	move	$a1, $s8
	jirl	$ra, $a3, 0
	ld.d	$a0, $sp, 192                   # 8-byte Folded Reload
	ld.bu	$a0, $a0, 69
	bnez	$a0, .LBB4_374
# %bb.373:                              # %if.then231
	ld.d	$a0, $s1, 0
	ld.d	$a3, $a0, 72
	pcalau12i	$a0, %got_pc_hi20(v_hfile_printer)
	ld.d	$a1, $a0, %got_pc_lo12(v_hfile_printer)
	pcalau12i	$a0, %got_pc_hi20(_ZN2kc24view_gen_printdotdecls_hE)
	ld.d	$a2, $a0, %got_pc_lo12(_ZN2kc24view_gen_printdotdecls_hE)
	move	$a0, $s1
	jirl	$ra, $a3, 0
	ld.d	$a0, $s1, 0
	ld.d	$a3, $a0, 72
	pcalau12i	$a0, %got_pc_hi20(v_ccfile_printer)
	ld.d	$a1, $a0, %got_pc_lo12(v_ccfile_printer)
	pcalau12i	$a0, %got_pc_hi20(_ZN2kc23view_gen_printdotdefs_cE)
	ld.d	$a2, $a0, %got_pc_lo12(_ZN2kc23view_gen_printdotdefs_cE)
	move	$a0, $s1
	jirl	$ra, $a3, 0
.LBB4_374:                              # %if.end232
	ld.d	$a0, $s1, 0
	ld.d	$a3, $a0, 72
	pcalau12i	$a0, %got_pc_hi20(_ZN2kc19view_gen_listdefs_cE)
	ld.d	$a2, $a0, %got_pc_lo12(_ZN2kc19view_gen_listdefs_cE)
	move	$a0, $s1
	ld.d	$s0, $sp, 200                   # 8-byte Folded Reload
	move	$a1, $s0
	jirl	$ra, $a3, 0
	ld.d	$a0, $s1, 0
	ld.d	$a3, $a0, 72
	pcalau12i	$a0, %got_pc_hi20(_ZN2kc19view_gen_copydefs_cE)
	ld.d	$a2, $a0, %got_pc_lo12(_ZN2kc19view_gen_copydefs_cE)
	move	$a0, $s1
	move	$a1, $s0
	jirl	$ra, $a3, 0
	ld.d	$a0, $s1, 0
	ld.d	$a3, $a0, 72
	pcalau12i	$a0, %got_pc_hi20(v_hfile_printer)
	ld.d	$a1, $a0, %got_pc_lo12(v_hfile_printer)
	pcalau12i	$a0, %got_pc_hi20(_ZN2kc16view_gen_end_k_hE)
	ld.d	$a2, $a0, %got_pc_lo12(_ZN2kc16view_gen_end_k_hE)
	move	$a0, $s1
	st.d	$a1, $sp, 208                   # 8-byte Folded Spill
	jirl	$ra, $a3, 0
	ld.d	$a0, $s1, 0
	ld.d	$a3, $a0, 72
	pcalau12i	$a0, %got_pc_hi20(_ZN2kc20view_close_namespaceE)
	ld.d	$a2, $a0, %got_pc_lo12(_ZN2kc20view_close_namespaceE)
	move	$a0, $s1
	move	$a1, $s0
	jirl	$ra, $a3, 0
	ld.d	$a0, $s0, 8
	beqz	$a0, .LBB4_377
# %bb.375:                              # %_ZN14kc_filePrinter6fcloseEv.exit
	pcaddu18i	$ra, %call36(fclose)
	jirl	$ra, $ra, 0
	ld.d	$a1, $sp, 200                   # 8-byte Folded Reload
	st.d	$zero, $a1, 8
	ld.d	$a1, $sp, 24                    # 8-byte Folded Reload
	bne	$a0, $a1, .LBB4_377
# %bb.376:                              # %if.then235
	pcaddu18i	$ra, %call36(_ZN2kc10NoFileLineEv)
	jirl	$ra, $ra, 0
	move	$s2, $a0
	pcalau12i	$a0, %pc_hi20(.L.str.18)
	addi.d	$a0, $a0, %pc_lo12(.L.str.18)
	pcalau12i	$a1, %pc_hi20(.L.str.12)
	addi.d	$a1, $a1, %pc_lo12(.L.str.12)
	pcaddu18i	$ra, %call36(_ZN2kc9Problem2SEPKcS1_)
	jirl	$ra, $ra, 0
	move	$a1, $a0
	move	$a0, $s2
	pcaddu18i	$ra, %call36(_ZN2kc5FatalEPNS_13impl_filelineEPNS_12impl_problemE)
	jirl	$ra, $ra, 0
	pcaddu18i	$ra, %call36(_ZN2kc8v_reportEPNS_10impl_errorE)
	jirl	$ra, $ra, 0
.LBB4_377:                              # %if.end239
	ld.d	$a0, $sp, 208                   # 8-byte Folded Reload
	ld.d	$a0, $a0, 8
	beqz	$a0, .LBB4_380
# %bb.378:                              # %_ZN14kc_filePrinter6fcloseEv.exit471
	pcaddu18i	$ra, %call36(fclose)
	jirl	$ra, $ra, 0
	ld.d	$a1, $sp, 208                   # 8-byte Folded Reload
	st.d	$zero, $a1, 8
	ld.d	$a1, $sp, 24                    # 8-byte Folded Reload
	bne	$a0, $a1, .LBB4_380
# %bb.379:                              # %if.then242
	pcaddu18i	$ra, %call36(_ZN2kc10NoFileLineEv)
	jirl	$ra, $ra, 0
	move	$s2, $a0
	pcalau12i	$a0, %pc_hi20(.L.str.19)
	addi.d	$a0, $a0, %pc_lo12(.L.str.19)
	pcalau12i	$a1, %pc_hi20(.L.str.9)
	addi.d	$a1, $a1, %pc_lo12(.L.str.9)
	pcaddu18i	$ra, %call36(_ZN2kc9Problem2SEPKcS1_)
	jirl	$ra, $ra, 0
	move	$a1, $a0
	move	$a0, $s2
	pcaddu18i	$ra, %call36(_ZN2kc5FatalEPNS_13impl_filelineEPNS_12impl_problemE)
	jirl	$ra, $ra, 0
	pcaddu18i	$ra, %call36(_ZN2kc8v_reportEPNS_10impl_errorE)
	jirl	$ra, $ra, 0
.LBB4_380:                              # %if.end246
	ld.d	$a0, $sp, 192                   # 8-byte Folded Reload
	ld.d	$s2, $a0, 184
	ld.d	$s3, $a0, 192
	addi.d	$a0, $sp, 424
	st.d	$a0, $sp, 408
	st.d	$zero, $sp, 416
	st.b	$zero, $sp, 424
	addi.d	$a1, $s3, 2
.Ltmp143:                               # EH_LABEL
	addi.d	$a0, $sp, 408
	pcaddu18i	$ra, %call36(_ZNSt7__cxx1112basic_stringIcSt11char_traitsIcESaIcEE7reserveEm)
	jirl	$ra, $ra, 0
.Ltmp144:                               # EH_LABEL
# %bb.381:                              # %invoke.cont.i.i483
	ld.d	$a0, $sp, 416
	sub.d	$a0, $fp, $a0
	bgeu	$a0, $s3, .LBB4_384
.LBB4_382:                              # %if.then.i.i10.invoke.i.i496
.Ltmp280:                               # EH_LABEL
	pcalau12i	$a0, %pc_hi20(.L.str.126)
	addi.d	$a0, $a0, %pc_lo12(.L.str.126)
	pcaddu18i	$ra, %call36(_ZSt20__throw_length_errorPKc)
	jirl	$ra, $ra, 0
.Ltmp281:                               # EH_LABEL
# %bb.383:                              # %if.then.i.i10.cont.i.i497
.LBB4_384:                              # %_ZNKSt7__cxx1112basic_stringIcSt11char_traitsIcESaIcEE15_M_check_lengthEmmPKc.exit.i.i.i487
.Ltmp145:                               # EH_LABEL
	addi.d	$a0, $sp, 408
	move	$a1, $s2
	move	$a2, $s3
	pcaddu18i	$ra, %call36(_ZNSt7__cxx1112basic_stringIcSt11char_traitsIcESaIcEE9_M_appendEPKcm)
	jirl	$ra, $ra, 0
.Ltmp146:                               # EH_LABEL
# %bb.385:                              # %invoke.cont1.i.i489
	ld.d	$a0, $sp, 416
	bgeu	$a0, $s6, .LBB4_382
# %bb.386:                              # %_ZNKSt7__cxx1112basic_stringIcSt11char_traitsIcESaIcEE15_M_check_lengthEmmPKc.exit.i9.i.i493
.Ltmp147:                               # EH_LABEL
	pcalau12i	$a0, %pc_hi20(.L.str.13)
	addi.d	$a1, $a0, %pc_lo12(.L.str.13)
	addi.d	$a0, $sp, 408
	ori	$a2, $zero, 2
	pcaddu18i	$ra, %call36(_ZNSt7__cxx1112basic_stringIcSt11char_traitsIcESaIcEE9_M_appendEPKcm)
	jirl	$ra, $ra, 0
.Ltmp148:                               # EH_LABEL
# %bb.387:                              # %_ZStplIcSt11char_traitsIcESaIcEENSt7__cxx1112basic_stringIT_T0_T1_EERKS8_PKS5_.exit498
	ld.d	$a0, $sp, 416
	ld.d	$a1, $sp, 192                   # 8-byte Folded Reload
	ld.d	$a2, $a1, 224
	sub.d	$a0, $fp, $a0
	bgeu	$a0, $a2, .LBB4_390
# %bb.388:                              # %if.then.i.i.i.i517
.Ltmp277:                               # EH_LABEL
	pcalau12i	$a0, %pc_hi20(.L.str.126)
	addi.d	$a0, $a0, %pc_lo12(.L.str.126)
	pcaddu18i	$ra, %call36(_ZSt20__throw_length_errorPKc)
	jirl	$ra, $ra, 0
.Ltmp278:                               # EH_LABEL
# %bb.389:                              # %.noexc518
.LBB4_390:                              # %_ZNSt7__cxx1112basic_stringIcSt11char_traitsIcESaIcEE6appendERKS4_.exit.i504
.Ltmp149:                               # EH_LABEL
	ld.d	$a0, $sp, 192                   # 8-byte Folded Reload
	ld.d	$a1, $a0, 216
	addi.d	$a0, $sp, 408
	pcaddu18i	$ra, %call36(_ZNSt7__cxx1112basic_stringIcSt11char_traitsIcESaIcEE9_M_appendEPKcm)
	jirl	$ra, $ra, 0
.Ltmp150:                               # EH_LABEL
# %bb.391:                              # %call.i.i.i505.noexc
	move	$s2, $a0
	addi.d	$a0, $sp, 456
	st.d	$a0, $sp, 440
	ld.d	$a0, $s2, 0
	addi.d	$s3, $s2, 16
	bne	$a0, $s3, .LBB4_393
# %bb.392:                              # %_ZNSt11char_traitsIcE4copyEPcPKcm.exit.i.i513
	ld.d	$fp, $s2, 8
	addi.d	$a2, $fp, 1
	addi.d	$a0, $sp, 456
	move	$a1, $s3
	pcaddu18i	$ra, %call36(memcpy)
	jirl	$ra, $ra, 0
	b	.LBB4_394
.LBB4_393:                              # %if.else.i.i507
	ld.d	$a1, $s2, 16
	st.d	$a1, $sp, 456
	ld.d	$fp, $s2, 8
	st.d	$a0, $sp, 440
.LBB4_394:                              # %invoke.cont250
	st.d	$fp, $sp, 448
	st.d	$s3, $s2, 0
	ld.d	$a1, $sp, 440
	st.d	$zero, $s2, 8
	st.b	$zero, $s2, 16
.Ltmp151:                               # EH_LABEL
	pcalau12i	$a0, %pc_hi20(.L.str.12)
	addi.d	$a0, $a0, %pc_lo12(.L.str.12)
	pcaddu18i	$ra, %call36(_ZN2kcL26compare_and_delete_or_moveEPKcRKNSt7__cxx1112basic_stringIcSt11char_traitsIcESaIcEEE)
	jirl	$ra, $ra, 0
.Ltmp152:                               # EH_LABEL
# %bb.395:                              # %invoke.cont252
	ld.d	$a0, $sp, 440
	addi.d	$a1, $sp, 456
	beq	$a0, $a1, .LBB4_397
# %bb.396:                              # %if.then.i.i522
	ld.d	$a1, $sp, 456
	addi.d	$a1, $a1, 1
	pcaddu18i	$ra, %call36(_ZdlPvm)
	jirl	$ra, $ra, 0
.LBB4_397:                              # %_ZNSt7__cxx1112basic_stringIcSt11char_traitsIcESaIcEED2Ev.exit528
	ld.d	$a0, $sp, 408
	addi.d	$a1, $sp, 424
	beq	$a0, $a1, .LBB4_399
# %bb.398:                              # %if.then.i.i530
	ld.d	$a1, $sp, 424
	addi.d	$a1, $a1, 1
	pcaddu18i	$ra, %call36(_ZdlPvm)
	jirl	$ra, $ra, 0
.LBB4_399:                              # %_ZNSt7__cxx1112basic_stringIcSt11char_traitsIcESaIcEED2Ev.exit536
	ld.d	$a0, $sp, 192                   # 8-byte Folded Reload
	addi.d	$a1, $a0, 184
	pcalau12i	$a0, %pc_hi20(.L.str.11)
	addi.d	$a2, $a0, %pc_lo12(.L.str.11)
	addi.d	$a0, $sp, 440
	st.d	$a1, $sp, 16                    # 8-byte Folded Spill
	pcaddu18i	$ra, %call36(_ZStplIcSt11char_traitsIcESaIcEENSt7__cxx1112basic_stringIT_T0_T1_EERKS8_PKS5_)
	jirl	$ra, $ra, 0
	ld.d	$a1, $sp, 440
.Ltmp154:                               # EH_LABEL
	pcalau12i	$a0, %pc_hi20(.L.str.9)
	addi.d	$a0, $a0, %pc_lo12(.L.str.9)
	pcaddu18i	$ra, %call36(_ZN2kcL26compare_and_delete_or_moveEPKcRKNSt7__cxx1112basic_stringIcSt11char_traitsIcESaIcEEE)
	jirl	$ra, $ra, 0
.Ltmp155:                               # EH_LABEL
# %bb.400:                              # %invoke.cont259
	ld.d	$a0, $sp, 440
	addi.d	$a1, $sp, 456
	beq	$a0, $a1, .LBB4_402
# %bb.401:                              # %if.then.i.i538
	ld.d	$a1, $sp, 456
	addi.d	$a1, $a1, 1
	pcaddu18i	$ra, %call36(_ZdlPvm)
	jirl	$ra, $ra, 0
.LBB4_402:                              # %_ZNSt7__cxx1112basic_stringIcSt11char_traitsIcESaIcEED2Ev.exit544
	ld.d	$a0, $sp, 192                   # 8-byte Folded Reload
	ld.bu	$a0, $a0, 66
	bnez	$a0, .LBB4_435
# %bb.403:                              # %if.then263
	pcalau12i	$a0, %pc_hi20(.L.str.20)
	addi.d	$a2, $a0, %pc_lo12(.L.str.20)
	addi.d	$a0, $sp, 440
	ld.d	$a1, $sp, 16                    # 8-byte Folded Reload
	pcaddu18i	$ra, %call36(_ZStplIcSt11char_traitsIcESaIcEENSt7__cxx1112basic_stringIT_T0_T1_EERKS8_PKS5_)
	jirl	$ra, $ra, 0
.Ltmp157:                               # EH_LABEL
	pcalau12i	$a0, %got_pc_hi20(v_hfile_printer)
	ld.d	$a0, $a0, %got_pc_lo12(v_hfile_printer)
	pcalau12i	$a1, %pc_hi20(.L.str.9)
	addi.d	$a1, $a1, %pc_lo12(.L.str.9)
	pcalau12i	$a2, %pc_hi20(.L.str.10)
	addi.d	$a2, $a2, %pc_lo12(.L.str.10)
	addi.d	$a3, $sp, 440
	pcaddu18i	$ra, %call36(_ZN14kc_filePrinter4initEPKcS1_RKNSt7__cxx1112basic_stringIcSt11char_traitsIcESaIcEEE)
	jirl	$ra, $ra, 0
.Ltmp158:                               # EH_LABEL
# %bb.404:                              # %invoke.cont266
	ld.d	$a0, $sp, 440
	addi.d	$a1, $sp, 456
	beq	$a0, $a1, .LBB4_406
# %bb.405:                              # %if.then.i.i546
	ld.d	$a1, $sp, 456
	addi.d	$a1, $a1, 1
	pcaddu18i	$ra, %call36(_ZdlPvm)
	jirl	$ra, $ra, 0
.LBB4_406:                              # %_ZNSt7__cxx1112basic_stringIcSt11char_traitsIcESaIcEED2Ev.exit552
	pcalau12i	$a0, %pc_hi20(.L.str.21)
	addi.d	$a2, $a0, %pc_lo12(.L.str.21)
	addi.d	$a0, $sp, 408
	ld.d	$a1, $sp, 16                    # 8-byte Folded Reload
	pcaddu18i	$ra, %call36(_ZStplIcSt11char_traitsIcESaIcEENSt7__cxx1112basic_stringIT_T0_T1_EERKS8_PKS5_)
	jirl	$ra, $ra, 0
.Ltmp160:                               # EH_LABEL
	ld.d	$a0, $sp, 192                   # 8-byte Folded Reload
	addi.d	$a2, $a0, 216
	addi.d	$a0, $sp, 440
	addi.d	$a1, $sp, 408
	st.d	$a2, $sp, 184                   # 8-byte Folded Spill
	pcaddu18i	$ra, %call36(_ZStplIcSt11char_traitsIcESaIcEENSt7__cxx1112basic_stringIT_T0_T1_EEOS8_RKS8_)
	jirl	$ra, $ra, 0
.Ltmp161:                               # EH_LABEL
# %bb.407:                              # %invoke.cont272
.Ltmp163:                               # EH_LABEL
	pcalau12i	$a0, %got_pc_hi20(v_ccfile_printer)
	ld.d	$s4, $a0, %got_pc_lo12(v_ccfile_printer)
	pcalau12i	$a0, %pc_hi20(.L.str.12)
	addi.d	$a1, $a0, %pc_lo12(.L.str.12)
	pcalau12i	$a0, %pc_hi20(.L.str.10)
	addi.d	$a2, $a0, %pc_lo12(.L.str.10)
	addi.d	$a3, $sp, 440
	move	$a0, $s4
	pcaddu18i	$ra, %call36(_ZN14kc_filePrinter4initEPKcS1_RKNSt7__cxx1112basic_stringIcSt11char_traitsIcESaIcEEE)
	jirl	$ra, $ra, 0
.Ltmp164:                               # EH_LABEL
# %bb.408:                              # %invoke.cont274
	ld.d	$a0, $sp, 440
	addi.d	$a1, $sp, 456
	bne	$a0, $a1, .LBB4_411
# %bb.409:                              # %_ZNSt7__cxx1112basic_stringIcSt11char_traitsIcESaIcEED2Ev.exit560
	ld.d	$a0, $sp, 408
	addi.d	$a1, $sp, 424
	bne	$a0, $a1, .LBB4_412
.LBB4_410:                              # %_ZNSt7__cxx1112basic_stringIcSt11char_traitsIcESaIcEED2Ev.exit568
	ld.d	$a0, $sp, 192                   # 8-byte Folded Reload
	ld.bu	$a0, $a0, 65
	ori	$a1, $zero, 1
	beq	$a0, $a1, .LBB4_413
	b	.LBB4_420
.LBB4_411:                              # %if.then.i.i554
	ld.d	$a1, $sp, 456
	addi.d	$a1, $a1, 1
	pcaddu18i	$ra, %call36(_ZdlPvm)
	jirl	$ra, $ra, 0
	ld.d	$a0, $sp, 408
	addi.d	$a1, $sp, 424
	beq	$a0, $a1, .LBB4_410
.LBB4_412:                              # %if.then.i.i562
	ld.d	$a1, $sp, 424
	addi.d	$a1, $a1, 1
	pcaddu18i	$ra, %call36(_ZdlPvm)
	jirl	$ra, $ra, 0
	ld.d	$a0, $sp, 192                   # 8-byte Folded Reload
	ld.bu	$a0, $a0, 65
	ori	$a1, $zero, 1
	bne	$a0, $a1, .LBB4_420
.LBB4_413:                              # %if.then280
	pcalau12i	$a0, %pc_hi20(.L.str.14)
	addi.d	$a1, $a0, %pc_lo12(.L.str.14)
	addi.d	$a0, $sp, 408
	ld.d	$a2, $sp, 16                    # 8-byte Folded Reload
	pcaddu18i	$ra, %call36(_ZStplIcSt11char_traitsIcESaIcEENSt7__cxx1112basic_stringIT_T0_T1_EEPKS5_RKS8_)
	jirl	$ra, $ra, 0
.Ltmp166:                               # EH_LABEL
	pcalau12i	$a0, %pc_hi20(.L.str.22)
	addi.d	$a2, $a0, %pc_lo12(.L.str.22)
	addi.d	$a0, $sp, 440
	addi.d	$a1, $sp, 408
	pcaddu18i	$ra, %call36(_ZStplIcSt11char_traitsIcESaIcEENSt7__cxx1112basic_stringIT_T0_T1_EEOS8_PKS5_)
	jirl	$ra, $ra, 0
.Ltmp167:                               # EH_LABEL
# %bb.414:                              # %invoke.cont284
	ld.d	$a1, $sp, 440
	ld.d	$a2, $sp, 448
.Ltmp169:                               # EH_LABEL
	pcalau12i	$a0, %got_pc_hi20(_ZSt4cout)
	ld.d	$a0, $a0, %got_pc_lo12(_ZSt4cout)
	pcaddu18i	$ra, %call36(_ZSt16__ostream_insertIcSt11char_traitsIcEERSt13basic_ostreamIT_T0_ES6_PKS3_l)
	jirl	$ra, $ra, 0
.Ltmp170:                               # EH_LABEL
# %bb.415:                              # %invoke.cont286
.Ltmp171:                               # EH_LABEL
	pcaddu18i	$ra, %call36(_ZNSo5flushEv)
	jirl	$ra, $ra, 0
.Ltmp172:                               # EH_LABEL
# %bb.416:                              # %invoke.cont288
	ld.d	$a0, $sp, 440
	addi.d	$a1, $sp, 456
	beq	$a0, $a1, .LBB4_418
# %bb.417:                              # %if.then.i.i578
	ld.d	$a1, $sp, 456
	addi.d	$a1, $a1, 1
	pcaddu18i	$ra, %call36(_ZdlPvm)
	jirl	$ra, $ra, 0
.LBB4_418:                              # %_ZNSt7__cxx1112basic_stringIcSt11char_traitsIcESaIcEED2Ev.exit584
	ld.d	$a0, $sp, 408
	addi.d	$a1, $sp, 424
	beq	$a0, $a1, .LBB4_420
# %bb.419:                              # %if.then.i.i586
	ld.d	$a1, $sp, 424
	addi.d	$a1, $a1, 1
	pcaddu18i	$ra, %call36(_ZdlPvm)
	jirl	$ra, $ra, 0
.LBB4_420:                              # %if.end294
	ld.d	$a0, $s1, 0
	ld.d	$a3, $a0, 72
	pcalau12i	$a0, %got_pc_hi20(v_hfile_printer)
	ld.d	$s5, $a0, %got_pc_lo12(v_hfile_printer)
	pcalau12i	$a0, %got_pc_hi20(_ZN2kc22view_gen_csgio_start_hE)
	ld.d	$a2, $a0, %got_pc_lo12(_ZN2kc22view_gen_csgio_start_hE)
	move	$a0, $s1
	move	$a1, $s5
	jirl	$ra, $a3, 0
	pcalau12i	$a0, %pc_hi20(.L.str.23)
	addi.d	$s2, $a0, %pc_lo12(.L.str.23)
	addi.w	$s8, $zero, -1
	move	$a0, $s2
	move	$a1, $s8
	pcaddu18i	$ra, %call36(_ZN2kc12mkcasestringEPKci)
	jirl	$ra, $ra, 0
	pcaddu18i	$ra, %call36(_ZN2kc11IncludeFileEPNS_20impl_casestring__StrE)
	jirl	$ra, $ra, 0
	move	$s3, $a0
	move	$a0, $s2
	move	$a1, $s8
	pcaddu18i	$ra, %call36(_ZN2kc12mkcasestringEPKci)
	jirl	$ra, $ra, 0
	pcaddu18i	$ra, %call36(_ZN2kc11IncludeFileEPNS_20impl_casestring__StrE)
	jirl	$ra, $ra, 0
	ld.w	$a0, $a0, 8
	sltu	$a0, $zero, $a0
	alsl.d	$a0, $a0, $s3, 3
	ld.d	$a0, $a0, 16
	ld.d	$a1, $a0, 0
	ld.d	$a3, $a1, 72
	pcalau12i	$a1, %got_pc_hi20(_ZN2kc17view_gen_includesE)
	ld.d	$s0, $a1, %got_pc_lo12(_ZN2kc17view_gen_includesE)
	move	$a1, $s5
	move	$a2, $s0
	jirl	$ra, $a3, 0
	ld.d	$a0, $s1, 0
	ld.d	$a3, $a0, 72
	pcalau12i	$a0, %got_pc_hi20(_ZN2kc19view_open_namespaceE)
	ld.d	$s6, $a0, %got_pc_lo12(_ZN2kc19view_open_namespaceE)
	move	$a0, $s1
	move	$a1, $s5
	move	$a2, $s6
	jirl	$ra, $a3, 0
	ld.d	$a0, $s1, 0
	ld.d	$a3, $a0, 72
	pcalau12i	$a0, %got_pc_hi20(_ZN2kc16view_gen_csgio_hE)
	ld.d	$a2, $a0, %got_pc_lo12(_ZN2kc16view_gen_csgio_hE)
	move	$a0, $s1
	move	$a1, $s5
	jirl	$ra, $a3, 0
	ld.d	$a0, $s1, 0
	ld.d	$a3, $a0, 72
	pcalau12i	$a0, %got_pc_hi20(_ZN2kc20view_close_namespaceE)
	ld.d	$fp, $a0, %got_pc_lo12(_ZN2kc20view_close_namespaceE)
	move	$a0, $s1
	move	$a1, $s5
	move	$a2, $fp
	jirl	$ra, $a3, 0
	ld.d	$a0, $s1, 0
	ld.d	$a3, $a0, 72
	pcalau12i	$a0, %got_pc_hi20(_ZN2kc20view_gen_csgio_end_hE)
	ld.d	$a2, $a0, %got_pc_lo12(_ZN2kc20view_gen_csgio_end_hE)
	move	$a0, $s1
	move	$a1, $s5
	jirl	$ra, $a3, 0
	ld.d	$a0, $s1, 0
	ld.d	$a3, $a0, 72
	pcalau12i	$a0, %got_pc_hi20(_ZN2kc22view_gen_csgio_start_cE)
	ld.d	$a2, $a0, %got_pc_lo12(_ZN2kc22view_gen_csgio_start_cE)
	move	$a0, $s1
	move	$a1, $s4
	jirl	$ra, $a3, 0
	pcalau12i	$a0, %pc_hi20(.L.str.24)
	addi.d	$s3, $a0, %pc_lo12(.L.str.24)
	move	$a0, $s3
	move	$a1, $s8
	pcaddu18i	$ra, %call36(_ZN2kc12mkcasestringEPKci)
	jirl	$ra, $ra, 0
	pcaddu18i	$ra, %call36(_ZN2kc11IncludeFileEPNS_20impl_casestring__StrE)
	jirl	$ra, $ra, 0
	move	$s2, $a0
	move	$a0, $s3
	move	$a1, $s8
	pcaddu18i	$ra, %call36(_ZN2kc12mkcasestringEPKci)
	jirl	$ra, $ra, 0
	pcaddu18i	$ra, %call36(_ZN2kc11IncludeFileEPNS_20impl_casestring__StrE)
	jirl	$ra, $ra, 0
	ld.w	$a0, $a0, 8
	sltu	$a0, $zero, $a0
	alsl.d	$a0, $a0, $s2, 3
	ld.d	$a0, $a0, 16
	ld.d	$a1, $a0, 0
	ld.d	$a3, $a1, 72
	move	$a1, $s4
	move	$a2, $s0
	jirl	$ra, $a3, 0
	ld.d	$a0, $s1, 0
	ld.d	$a3, $a0, 72
	move	$a0, $s1
	move	$a1, $s4
	move	$a2, $s6
	jirl	$ra, $a3, 0
	ld.d	$a0, $s1, 0
	ld.d	$a3, $a0, 72
	pcalau12i	$a0, %got_pc_hi20(_ZN2kc16view_gen_csgio_cE)
	ld.d	$a2, $a0, %got_pc_lo12(_ZN2kc16view_gen_csgio_cE)
	move	$a0, $s1
	move	$a1, $s4
	jirl	$ra, $a3, 0
	ld.d	$a0, $s1, 0
	ld.d	$a3, $a0, 72
	move	$a0, $s1
	move	$a1, $s4
	move	$a2, $fp
	jirl	$ra, $a3, 0
	ld.d	$a0, $s4, 8
	beqz	$a0, .LBB4_423
# %bb.421:                              # %_ZN14kc_filePrinter6fcloseEv.exit690
	pcaddu18i	$ra, %call36(fclose)
	jirl	$ra, $ra, 0
	st.d	$zero, $s4, 8
	bne	$a0, $s8, .LBB4_423
# %bb.422:                              # %if.then311
	pcaddu18i	$ra, %call36(_ZN2kc10NoFileLineEv)
	jirl	$ra, $ra, 0
	move	$s2, $a0
	pcalau12i	$a0, %pc_hi20(.L.str.25)
	addi.d	$a0, $a0, %pc_lo12(.L.str.25)
	pcalau12i	$a1, %pc_hi20(.L.str.12)
	addi.d	$a1, $a1, %pc_lo12(.L.str.12)
	pcaddu18i	$ra, %call36(_ZN2kc9Problem2SEPKcS1_)
	jirl	$ra, $ra, 0
	move	$a1, $a0
	move	$a0, $s2
	pcaddu18i	$ra, %call36(_ZN2kc5FatalEPNS_13impl_filelineEPNS_12impl_problemE)
	jirl	$ra, $ra, 0
	pcaddu18i	$ra, %call36(_ZN2kc8v_reportEPNS_10impl_errorE)
	jirl	$ra, $ra, 0
.LBB4_423:                              # %if.end315
	ld.d	$a0, $s5, 8
	beqz	$a0, .LBB4_426
# %bb.424:                              # %_ZN14kc_filePrinter6fcloseEv.exit696
	pcaddu18i	$ra, %call36(fclose)
	jirl	$ra, $ra, 0
	st.d	$zero, $s5, 8
	bne	$a0, $s8, .LBB4_426
# %bb.425:                              # %if.then318
	pcaddu18i	$ra, %call36(_ZN2kc10NoFileLineEv)
	jirl	$ra, $ra, 0
	move	$s2, $a0
	pcalau12i	$a0, %pc_hi20(.L.str.26)
	addi.d	$a0, $a0, %pc_lo12(.L.str.26)
	pcalau12i	$a1, %pc_hi20(.L.str.9)
	addi.d	$a1, $a1, %pc_lo12(.L.str.9)
	pcaddu18i	$ra, %call36(_ZN2kc9Problem2SEPKcS1_)
	jirl	$ra, $ra, 0
	move	$a1, $a0
	move	$a0, $s2
	pcaddu18i	$ra, %call36(_ZN2kc5FatalEPNS_13impl_filelineEPNS_12impl_problemE)
	jirl	$ra, $ra, 0
	pcaddu18i	$ra, %call36(_ZN2kc8v_reportEPNS_10impl_errorE)
	jirl	$ra, $ra, 0
.LBB4_426:                              # %if.end322
	pcalau12i	$a0, %pc_hi20(.L.str.21)
	addi.d	$a2, $a0, %pc_lo12(.L.str.21)
	addi.d	$a0, $sp, 408
	ld.d	$a1, $sp, 16                    # 8-byte Folded Reload
	pcaddu18i	$ra, %call36(_ZStplIcSt11char_traitsIcESaIcEENSt7__cxx1112basic_stringIT_T0_T1_EERKS8_PKS5_)
	jirl	$ra, $ra, 0
.Ltmp174:                               # EH_LABEL
	addi.d	$a0, $sp, 440
	addi.d	$a1, $sp, 408
	ld.d	$a2, $sp, 184                   # 8-byte Folded Reload
	pcaddu18i	$ra, %call36(_ZStplIcSt11char_traitsIcESaIcEENSt7__cxx1112basic_stringIT_T0_T1_EEOS8_RKS8_)
	jirl	$ra, $ra, 0
.Ltmp175:                               # EH_LABEL
# %bb.427:                              # %invoke.cont326
	ld.d	$a1, $sp, 440
.Ltmp177:                               # EH_LABEL
	pcalau12i	$a0, %pc_hi20(.L.str.12)
	addi.d	$a0, $a0, %pc_lo12(.L.str.12)
	pcaddu18i	$ra, %call36(_ZN2kcL26compare_and_delete_or_moveEPKcRKNSt7__cxx1112basic_stringIcSt11char_traitsIcESaIcEEE)
	jirl	$ra, $ra, 0
.Ltmp178:                               # EH_LABEL
# %bb.428:                              # %invoke.cont328
	ld.d	$a0, $sp, 440
	addi.d	$a1, $sp, 456
	beq	$a0, $a1, .LBB4_430
# %bb.429:                              # %if.then.i.i698
	ld.d	$a1, $sp, 456
	addi.d	$a1, $a1, 1
	pcaddu18i	$ra, %call36(_ZdlPvm)
	jirl	$ra, $ra, 0
.LBB4_430:                              # %_ZNSt7__cxx1112basic_stringIcSt11char_traitsIcESaIcEED2Ev.exit704
	ld.d	$a0, $sp, 408
	addi.d	$a1, $sp, 424
	beq	$a0, $a1, .LBB4_432
# %bb.431:                              # %if.then.i.i706
	ld.d	$a1, $sp, 424
	addi.d	$a1, $a1, 1
	pcaddu18i	$ra, %call36(_ZdlPvm)
	jirl	$ra, $ra, 0
.LBB4_432:                              # %_ZNSt7__cxx1112basic_stringIcSt11char_traitsIcESaIcEED2Ev.exit712
	pcalau12i	$a0, %pc_hi20(.L.str.20)
	addi.d	$a2, $a0, %pc_lo12(.L.str.20)
	addi.d	$a0, $sp, 440
	ld.d	$a1, $sp, 16                    # 8-byte Folded Reload
	pcaddu18i	$ra, %call36(_ZStplIcSt11char_traitsIcESaIcEENSt7__cxx1112basic_stringIT_T0_T1_EERKS8_PKS5_)
	jirl	$ra, $ra, 0
	ld.d	$a1, $sp, 440
.Ltmp180:                               # EH_LABEL
	pcalau12i	$a0, %pc_hi20(.L.str.9)
	addi.d	$a0, $a0, %pc_lo12(.L.str.9)
	pcaddu18i	$ra, %call36(_ZN2kcL26compare_and_delete_or_moveEPKcRKNSt7__cxx1112basic_stringIcSt11char_traitsIcESaIcEEE)
	jirl	$ra, $ra, 0
.Ltmp181:                               # EH_LABEL
# %bb.433:                              # %invoke.cont335
	ld.d	$a0, $sp, 440
	addi.d	$a1, $sp, 456
	beq	$a0, $a1, .LBB4_435
# %bb.434:                              # %if.then.i.i714
	ld.d	$a1, $sp, 456
	addi.d	$a1, $a1, 1
	pcaddu18i	$ra, %call36(_ZdlPvm)
	jirl	$ra, $ra, 0
.LBB4_435:                              # %if.end338
	ld.d	$a0, $sp, 192                   # 8-byte Folded Reload
	ld.bu	$a0, $a0, 67
	bnez	$a0, .LBB4_470
# %bb.436:                              # %if.then340
	pcalau12i	$a0, %pc_hi20(.L.str.27)
	addi.d	$a2, $a0, %pc_lo12(.L.str.27)
	addi.d	$a0, $sp, 440
	ld.d	$a1, $sp, 16                    # 8-byte Folded Reload
	pcaddu18i	$ra, %call36(_ZStplIcSt11char_traitsIcESaIcEENSt7__cxx1112basic_stringIT_T0_T1_EERKS8_PKS5_)
	jirl	$ra, $ra, 0
.Ltmp183:                               # EH_LABEL
	pcalau12i	$a0, %got_pc_hi20(v_hfile_printer)
	ld.d	$a0, $a0, %got_pc_lo12(v_hfile_printer)
	pcalau12i	$a1, %pc_hi20(.L.str.9)
	addi.d	$a1, $a1, %pc_lo12(.L.str.9)
	pcalau12i	$a2, %pc_hi20(.L.str.10)
	addi.d	$a2, $a2, %pc_lo12(.L.str.10)
	addi.d	$a3, $sp, 440
	pcaddu18i	$ra, %call36(_ZN14kc_filePrinter4initEPKcS1_RKNSt7__cxx1112basic_stringIcSt11char_traitsIcESaIcEEE)
	jirl	$ra, $ra, 0
.Ltmp184:                               # EH_LABEL
# %bb.437:                              # %invoke.cont343
	ld.d	$a0, $sp, 440
	addi.d	$a1, $sp, 456
	beq	$a0, $a1, .LBB4_439
# %bb.438:                              # %if.then.i.i746
	ld.d	$a1, $sp, 456
	addi.d	$a1, $a1, 1
	pcaddu18i	$ra, %call36(_ZdlPvm)
	jirl	$ra, $ra, 0
.LBB4_439:                              # %_ZNSt7__cxx1112basic_stringIcSt11char_traitsIcESaIcEED2Ev.exit752
	pcalau12i	$a0, %pc_hi20(.L.str.28)
	addi.d	$a2, $a0, %pc_lo12(.L.str.28)
	addi.d	$a0, $sp, 408
	ld.d	$a1, $sp, 16                    # 8-byte Folded Reload
	pcaddu18i	$ra, %call36(_ZStplIcSt11char_traitsIcESaIcEENSt7__cxx1112basic_stringIT_T0_T1_EERKS8_PKS5_)
	jirl	$ra, $ra, 0
.Ltmp186:                               # EH_LABEL
	ld.d	$a0, $sp, 192                   # 8-byte Folded Reload
	addi.d	$s0, $a0, 216
	addi.d	$a0, $sp, 440
	addi.d	$a1, $sp, 408
	move	$a2, $s0
	pcaddu18i	$ra, %call36(_ZStplIcSt11char_traitsIcESaIcEENSt7__cxx1112basic_stringIT_T0_T1_EEOS8_RKS8_)
	jirl	$ra, $ra, 0
.Ltmp187:                               # EH_LABEL
# %bb.440:                              # %invoke.cont349
.Ltmp189:                               # EH_LABEL
	pcalau12i	$a0, %got_pc_hi20(v_ccfile_printer)
	ld.d	$a0, $a0, %got_pc_lo12(v_ccfile_printer)
	pcalau12i	$a1, %pc_hi20(.L.str.12)
	addi.d	$a1, $a1, %pc_lo12(.L.str.12)
	pcalau12i	$a2, %pc_hi20(.L.str.10)
	addi.d	$a2, $a2, %pc_lo12(.L.str.10)
	addi.d	$a3, $sp, 440
	pcaddu18i	$ra, %call36(_ZN14kc_filePrinter4initEPKcS1_RKNSt7__cxx1112basic_stringIcSt11char_traitsIcESaIcEEE)
	jirl	$ra, $ra, 0
.Ltmp190:                               # EH_LABEL
# %bb.441:                              # %invoke.cont351
	ld.d	$a0, $sp, 440
	addi.d	$a1, $sp, 456
	bne	$a0, $a1, .LBB4_444
# %bb.442:                              # %_ZNSt7__cxx1112basic_stringIcSt11char_traitsIcESaIcEED2Ev.exit760
	ld.d	$a0, $sp, 408
	addi.d	$a1, $sp, 424
	bne	$a0, $a1, .LBB4_445
.LBB4_443:                              # %_ZNSt7__cxx1112basic_stringIcSt11char_traitsIcESaIcEED2Ev.exit768
	ld.d	$a0, $sp, 192                   # 8-byte Folded Reload
	ld.bu	$a0, $a0, 65
	ori	$a1, $zero, 1
	beq	$a0, $a1, .LBB4_446
	b	.LBB4_453
.LBB4_444:                              # %if.then.i.i754
	ld.d	$a1, $sp, 456
	addi.d	$a1, $a1, 1
	pcaddu18i	$ra, %call36(_ZdlPvm)
	jirl	$ra, $ra, 0
	ld.d	$a0, $sp, 408
	addi.d	$a1, $sp, 424
	beq	$a0, $a1, .LBB4_443
.LBB4_445:                              # %if.then.i.i762
	ld.d	$a1, $sp, 424
	addi.d	$a1, $a1, 1
	pcaddu18i	$ra, %call36(_ZdlPvm)
	jirl	$ra, $ra, 0
	ld.d	$a0, $sp, 192                   # 8-byte Folded Reload
	ld.bu	$a0, $a0, 65
	ori	$a1, $zero, 1
	bne	$a0, $a1, .LBB4_453
.LBB4_446:                              # %if.then357
	pcalau12i	$a0, %pc_hi20(.L.str.14)
	addi.d	$a1, $a0, %pc_lo12(.L.str.14)
	addi.d	$a0, $sp, 408
	ld.d	$a2, $sp, 16                    # 8-byte Folded Reload
	pcaddu18i	$ra, %call36(_ZStplIcSt11char_traitsIcESaIcEENSt7__cxx1112basic_stringIT_T0_T1_EEPKS5_RKS8_)
	jirl	$ra, $ra, 0
.Ltmp192:                               # EH_LABEL
	pcalau12i	$a0, %pc_hi20(.L.str.29)
	addi.d	$a2, $a0, %pc_lo12(.L.str.29)
	addi.d	$a0, $sp, 440
	addi.d	$a1, $sp, 408
	pcaddu18i	$ra, %call36(_ZStplIcSt11char_traitsIcESaIcEENSt7__cxx1112basic_stringIT_T0_T1_EEOS8_PKS5_)
	jirl	$ra, $ra, 0
.Ltmp193:                               # EH_LABEL
# %bb.447:                              # %invoke.cont361
	ld.d	$a1, $sp, 440
	ld.d	$a2, $sp, 448
.Ltmp195:                               # EH_LABEL
	pcalau12i	$a0, %got_pc_hi20(_ZSt4cout)
	ld.d	$a0, $a0, %got_pc_lo12(_ZSt4cout)
	pcaddu18i	$ra, %call36(_ZSt16__ostream_insertIcSt11char_traitsIcEERSt13basic_ostreamIT_T0_ES6_PKS3_l)
	jirl	$ra, $ra, 0
.Ltmp196:                               # EH_LABEL
# %bb.448:                              # %invoke.cont363
.Ltmp197:                               # EH_LABEL
	pcaddu18i	$ra, %call36(_ZNSo5flushEv)
	jirl	$ra, $ra, 0
.Ltmp198:                               # EH_LABEL
# %bb.449:                              # %invoke.cont365
	ld.d	$a0, $sp, 440
	addi.d	$a1, $sp, 456
	beq	$a0, $a1, .LBB4_451
# %bb.450:                              # %if.then.i.i778
	ld.d	$a1, $sp, 456
	addi.d	$a1, $a1, 1
	pcaddu18i	$ra, %call36(_ZdlPvm)
	jirl	$ra, $ra, 0
.LBB4_451:                              # %_ZNSt7__cxx1112basic_stringIcSt11char_traitsIcESaIcEED2Ev.exit784
	ld.d	$a0, $sp, 408
	addi.d	$a1, $sp, 424
	beq	$a0, $a1, .LBB4_453
# %bb.452:                              # %if.then.i.i786
	ld.d	$a1, $sp, 424
	addi.d	$a1, $a1, 1
	pcaddu18i	$ra, %call36(_ZdlPvm)
	jirl	$ra, $ra, 0
.LBB4_453:                              # %if.end371
	ld.d	$a0, $s1, 0
	ld.d	$a3, $a0, 72
	pcalau12i	$a0, %got_pc_hi20(v_hfile_printer)
	ld.d	$s4, $a0, %got_pc_lo12(v_hfile_printer)
	pcalau12i	$a0, %got_pc_hi20(_ZN2kc15view_gen_unpk_hE)
	ld.d	$a2, $a0, %got_pc_lo12(_ZN2kc15view_gen_unpk_hE)
	move	$a0, $s1
	move	$a1, $s4
	jirl	$ra, $a3, 0
	pcalau12i	$a0, %pc_hi20(.L.str.30)
	addi.d	$s2, $a0, %pc_lo12(.L.str.30)
	addi.w	$s5, $zero, -1
	move	$a0, $s2
	move	$a1, $s5
	pcaddu18i	$ra, %call36(_ZN2kc12mkcasestringEPKci)
	jirl	$ra, $ra, 0
	pcaddu18i	$ra, %call36(_ZN2kc11IncludeFileEPNS_20impl_casestring__StrE)
	jirl	$ra, $ra, 0
	move	$s3, $a0
	move	$a0, $s2
	move	$a1, $s5
	pcaddu18i	$ra, %call36(_ZN2kc12mkcasestringEPKci)
	jirl	$ra, $ra, 0
	pcaddu18i	$ra, %call36(_ZN2kc11IncludeFileEPNS_20impl_casestring__StrE)
	jirl	$ra, $ra, 0
	ld.w	$a0, $a0, 8
	sltu	$a0, $zero, $a0
	alsl.d	$a0, $a0, $s3, 3
	ld.d	$a0, $a0, 16
	ld.d	$a1, $a0, 0
	ld.d	$a3, $a1, 72
	pcalau12i	$a1, %got_pc_hi20(_ZN2kc17view_gen_includesE)
	ld.d	$s6, $a1, %got_pc_lo12(_ZN2kc17view_gen_includesE)
	move	$a1, $s4
	move	$a2, $s6
	jirl	$ra, $a3, 0
	ld.d	$a0, $s1, 0
	ld.d	$a3, $a0, 72
	pcalau12i	$a0, %got_pc_hi20(_ZN2kc19view_open_namespaceE)
	ld.d	$fp, $a0, %got_pc_lo12(_ZN2kc19view_open_namespaceE)
	move	$a0, $s1
	move	$a1, $s4
	move	$a2, $fp
	jirl	$ra, $a3, 0
	ld.d	$a0, $s1, 0
	ld.d	$a3, $a0, 72
	pcalau12i	$a0, %got_pc_hi20(_ZN2kc21view_uview_class_declE)
	ld.d	$a2, $a0, %got_pc_lo12(_ZN2kc21view_uview_class_declE)
	move	$a0, $s1
	move	$a1, $s4
	jirl	$ra, $a3, 0
	ld.d	$a0, $s1, 0
	ld.d	$a3, $a0, 72
	pcalau12i	$a0, %got_pc_hi20(_ZN2kc23view_gen_unparsedecls_hE)
	ld.d	$a2, $a0, %got_pc_lo12(_ZN2kc23view_gen_unparsedecls_hE)
	move	$a0, $s1
	move	$a1, $s4
	jirl	$ra, $a3, 0
	ld.d	$a0, $s1, 0
	ld.d	$a3, $a0, 72
	pcalau12i	$a0, %got_pc_hi20(_ZN2kc20view_close_namespaceE)
	ld.d	$s3, $a0, %got_pc_lo12(_ZN2kc20view_close_namespaceE)
	move	$a0, $s1
	move	$a1, $s4
	move	$a2, $s3
	jirl	$ra, $a3, 0
	ld.d	$a0, $s1, 0
	ld.d	$a3, $a0, 72
	pcalau12i	$a0, %got_pc_hi20(_ZN2kc19view_gen_end_unpk_hE)
	ld.d	$a2, $a0, %got_pc_lo12(_ZN2kc19view_gen_end_unpk_hE)
	move	$a0, $s1
	move	$a1, $s4
	jirl	$ra, $a3, 0
	ld.d	$a0, $s1, 0
	ld.d	$a3, $a0, 72
	pcalau12i	$a0, %got_pc_hi20(v_ccfile_printer)
	ld.d	$s8, $a0, %got_pc_lo12(v_ccfile_printer)
	pcalau12i	$a0, %got_pc_hi20(_ZN2kc15view_gen_unpk_cE)
	ld.d	$a2, $a0, %got_pc_lo12(_ZN2kc15view_gen_unpk_cE)
	move	$a0, $s1
	move	$a1, $s8
	jirl	$ra, $a3, 0
	ld.d	$a0, $s1, 0
	ld.d	$a3, $a0, 72
	move	$a0, $s1
	move	$a1, $s8
	move	$a2, $s3
	jirl	$ra, $a3, 0
	pcalau12i	$a0, %pc_hi20(.L.str.31)
	addi.d	$s3, $a0, %pc_lo12(.L.str.31)
	move	$a0, $s3
	move	$a1, $s5
	pcaddu18i	$ra, %call36(_ZN2kc12mkcasestringEPKci)
	jirl	$ra, $ra, 0
	pcaddu18i	$ra, %call36(_ZN2kc11IncludeFileEPNS_20impl_casestring__StrE)
	jirl	$ra, $ra, 0
	move	$s2, $a0
	move	$a0, $s3
	move	$a1, $s5
	pcaddu18i	$ra, %call36(_ZN2kc12mkcasestringEPKci)
	jirl	$ra, $ra, 0
	pcaddu18i	$ra, %call36(_ZN2kc11IncludeFileEPNS_20impl_casestring__StrE)
	jirl	$ra, $ra, 0
	ld.w	$a0, $a0, 8
	sltu	$a0, $zero, $a0
	alsl.d	$a0, $a0, $s2, 3
	ld.d	$a0, $a0, 16
	ld.d	$a1, $a0, 0
	ld.d	$a3, $a1, 72
	move	$a1, $s8
	move	$a2, $s6
	jirl	$ra, $a3, 0
	ld.d	$a0, $s1, 0
	ld.d	$a3, $a0, 72
	move	$a0, $s1
	move	$a1, $s8
	move	$a2, $fp
	jirl	$ra, $a3, 0
	ld.d	$a0, $s1, 0
	ld.d	$a3, $a0, 72
	pcalau12i	$a0, %got_pc_hi20(_ZN2kc29view_gen_default_types_unpk_cE)
	ld.d	$a2, $a0, %got_pc_lo12(_ZN2kc29view_gen_default_types_unpk_cE)
	move	$a0, $s1
	move	$a1, $s8
	jirl	$ra, $a3, 0
	ld.d	$a0, $s1, 0
	ld.d	$a3, $a0, 72
	pcalau12i	$a0, %got_pc_hi20(_ZN2kc22view_gen_unparsedefs_cE)
	ld.d	$a2, $a0, %got_pc_lo12(_ZN2kc22view_gen_unparsedefs_cE)
	move	$a0, $s1
	move	$a1, $s8
	jirl	$ra, $a3, 0
	ld.bu	$a0, $s7, 0
	ori	$a1, $zero, 1
	bne	$a0, $a1, .LBB4_455
# %bb.454:                              # %if.then387
	pcaddu18i	$ra, %call36(_ZN2kc25unparse_string_collectionEv)
	jirl	$ra, $ra, 0
.LBB4_455:                              # %if.end388
	ld.d	$a0, $s1, 0
	ld.d	$a3, $a0, 72
	pcalau12i	$a0, %got_pc_hi20(_ZN2kc20view_close_namespaceE)
	ld.d	$a2, $a0, %got_pc_lo12(_ZN2kc20view_close_namespaceE)
	move	$a0, $s1
	move	$a1, $s8
	jirl	$ra, $a3, 0
	ld.d	$a0, $s8, 8
	beqz	$a0, .LBB4_458
# %bb.456:                              # %_ZN14kc_filePrinter6fcloseEv.exit872
	pcaddu18i	$ra, %call36(fclose)
	jirl	$ra, $ra, 0
	st.d	$zero, $s8, 8
	bne	$a0, $s5, .LBB4_458
# %bb.457:                              # %if.then391
	pcaddu18i	$ra, %call36(_ZN2kc10NoFileLineEv)
	jirl	$ra, $ra, 0
	move	$s2, $a0
	pcalau12i	$a0, %pc_hi20(.L.str.32)
	addi.d	$a0, $a0, %pc_lo12(.L.str.32)
	pcalau12i	$a1, %pc_hi20(.L.str.12)
	addi.d	$a1, $a1, %pc_lo12(.L.str.12)
	pcaddu18i	$ra, %call36(_ZN2kc9Problem2SEPKcS1_)
	jirl	$ra, $ra, 0
	move	$a1, $a0
	move	$a0, $s2
	pcaddu18i	$ra, %call36(_ZN2kc5FatalEPNS_13impl_filelineEPNS_12impl_problemE)
	jirl	$ra, $ra, 0
	pcaddu18i	$ra, %call36(_ZN2kc8v_reportEPNS_10impl_errorE)
	jirl	$ra, $ra, 0
.LBB4_458:                              # %if.end395
	ld.d	$a0, $s4, 8
	beqz	$a0, .LBB4_461
# %bb.459:                              # %_ZN14kc_filePrinter6fcloseEv.exit878
	pcaddu18i	$ra, %call36(fclose)
	jirl	$ra, $ra, 0
	st.d	$zero, $s4, 8
	bne	$a0, $s5, .LBB4_461
# %bb.460:                              # %if.then398
	pcaddu18i	$ra, %call36(_ZN2kc10NoFileLineEv)
	jirl	$ra, $ra, 0
	move	$s2, $a0
	pcalau12i	$a0, %pc_hi20(.L.str.33)
	addi.d	$a0, $a0, %pc_lo12(.L.str.33)
	pcalau12i	$a1, %pc_hi20(.L.str.9)
	addi.d	$a1, $a1, %pc_lo12(.L.str.9)
	pcaddu18i	$ra, %call36(_ZN2kc9Problem2SEPKcS1_)
	jirl	$ra, $ra, 0
	move	$a1, $a0
	move	$a0, $s2
	pcaddu18i	$ra, %call36(_ZN2kc5FatalEPNS_13impl_filelineEPNS_12impl_problemE)
	jirl	$ra, $ra, 0
	pcaddu18i	$ra, %call36(_ZN2kc8v_reportEPNS_10impl_errorE)
	jirl	$ra, $ra, 0
.LBB4_461:                              # %if.end402
	pcalau12i	$a0, %pc_hi20(.L.str.28)
	addi.d	$a2, $a0, %pc_lo12(.L.str.28)
	addi.d	$a0, $sp, 408
	ld.d	$a1, $sp, 16                    # 8-byte Folded Reload
	pcaddu18i	$ra, %call36(_ZStplIcSt11char_traitsIcESaIcEENSt7__cxx1112basic_stringIT_T0_T1_EERKS8_PKS5_)
	jirl	$ra, $ra, 0
.Ltmp200:                               # EH_LABEL
	addi.d	$a0, $sp, 440
	addi.d	$a1, $sp, 408
	move	$a2, $s0
	pcaddu18i	$ra, %call36(_ZStplIcSt11char_traitsIcESaIcEENSt7__cxx1112basic_stringIT_T0_T1_EEOS8_RKS8_)
	jirl	$ra, $ra, 0
.Ltmp201:                               # EH_LABEL
# %bb.462:                              # %invoke.cont406
	ld.d	$a1, $sp, 440
.Ltmp203:                               # EH_LABEL
	pcalau12i	$a0, %pc_hi20(.L.str.12)
	addi.d	$a0, $a0, %pc_lo12(.L.str.12)
	pcaddu18i	$ra, %call36(_ZN2kcL26compare_and_delete_or_moveEPKcRKNSt7__cxx1112basic_stringIcSt11char_traitsIcESaIcEEE)
	jirl	$ra, $ra, 0
.Ltmp204:                               # EH_LABEL
# %bb.463:                              # %invoke.cont408
	ld.d	$a0, $sp, 440
	addi.d	$a1, $sp, 456
	beq	$a0, $a1, .LBB4_465
# %bb.464:                              # %if.then.i.i880
	ld.d	$a1, $sp, 456
	addi.d	$a1, $a1, 1
	pcaddu18i	$ra, %call36(_ZdlPvm)
	jirl	$ra, $ra, 0
.LBB4_465:                              # %_ZNSt7__cxx1112basic_stringIcSt11char_traitsIcESaIcEED2Ev.exit886
	ld.d	$a0, $sp, 408
	addi.d	$a1, $sp, 424
	beq	$a0, $a1, .LBB4_467
# %bb.466:                              # %if.then.i.i888
	ld.d	$a1, $sp, 424
	addi.d	$a1, $a1, 1
	pcaddu18i	$ra, %call36(_ZdlPvm)
	jirl	$ra, $ra, 0
.LBB4_467:                              # %_ZNSt7__cxx1112basic_stringIcSt11char_traitsIcESaIcEED2Ev.exit894
	pcalau12i	$a0, %pc_hi20(.L.str.27)
	addi.d	$a2, $a0, %pc_lo12(.L.str.27)
	addi.d	$a0, $sp, 440
	ld.d	$a1, $sp, 16                    # 8-byte Folded Reload
	pcaddu18i	$ra, %call36(_ZStplIcSt11char_traitsIcESaIcEENSt7__cxx1112basic_stringIT_T0_T1_EERKS8_PKS5_)
	jirl	$ra, $ra, 0
	ld.d	$a1, $sp, 440
.Ltmp206:                               # EH_LABEL
	pcalau12i	$a0, %pc_hi20(.L.str.9)
	addi.d	$a0, $a0, %pc_lo12(.L.str.9)
	pcaddu18i	$ra, %call36(_ZN2kcL26compare_and_delete_or_moveEPKcRKNSt7__cxx1112basic_stringIcSt11char_traitsIcESaIcEEE)
	jirl	$ra, $ra, 0
.Ltmp207:                               # EH_LABEL
# %bb.468:                              # %invoke.cont415
	ld.d	$a0, $sp, 440
	addi.d	$a1, $sp, 456
	beq	$a0, $a1, .LBB4_470
# %bb.469:                              # %if.then.i.i896
	ld.d	$a1, $sp, 456
	addi.d	$a1, $a1, 1
	pcaddu18i	$ra, %call36(_ZdlPvm)
	jirl	$ra, $ra, 0
.LBB4_470:                              # %if.end418
	ld.d	$a0, $sp, 192                   # 8-byte Folded Reload
	ld.bu	$a0, $a0, 68
	bnez	$a0, .LBB4_503
# %bb.471:                              # %if.then420
	pcalau12i	$a0, %pc_hi20(.L.str.34)
	addi.d	$a2, $a0, %pc_lo12(.L.str.34)
	addi.d	$a0, $sp, 440
	ld.d	$a1, $sp, 16                    # 8-byte Folded Reload
	pcaddu18i	$ra, %call36(_ZStplIcSt11char_traitsIcESaIcEENSt7__cxx1112basic_stringIT_T0_T1_EERKS8_PKS5_)
	jirl	$ra, $ra, 0
.Ltmp209:                               # EH_LABEL
	pcalau12i	$a0, %got_pc_hi20(v_hfile_printer)
	ld.d	$a0, $a0, %got_pc_lo12(v_hfile_printer)
	pcalau12i	$a1, %pc_hi20(.L.str.9)
	addi.d	$a1, $a1, %pc_lo12(.L.str.9)
	pcalau12i	$a2, %pc_hi20(.L.str.10)
	addi.d	$a2, $a2, %pc_lo12(.L.str.10)
	addi.d	$a3, $sp, 440
	pcaddu18i	$ra, %call36(_ZN14kc_filePrinter4initEPKcS1_RKNSt7__cxx1112basic_stringIcSt11char_traitsIcESaIcEEE)
	jirl	$ra, $ra, 0
.Ltmp210:                               # EH_LABEL
# %bb.472:                              # %invoke.cont423
	ld.d	$a0, $sp, 440
	addi.d	$a1, $sp, 456
	beq	$a0, $a1, .LBB4_474
# %bb.473:                              # %if.then.i.i928
	ld.d	$a1, $sp, 456
	addi.d	$a1, $a1, 1
	pcaddu18i	$ra, %call36(_ZdlPvm)
	jirl	$ra, $ra, 0
.LBB4_474:                              # %_ZNSt7__cxx1112basic_stringIcSt11char_traitsIcESaIcEED2Ev.exit934
	pcalau12i	$a0, %pc_hi20(.L.str.35)
	addi.d	$a2, $a0, %pc_lo12(.L.str.35)
	addi.d	$a0, $sp, 408
	ld.d	$a1, $sp, 16                    # 8-byte Folded Reload
	pcaddu18i	$ra, %call36(_ZStplIcSt11char_traitsIcESaIcEENSt7__cxx1112basic_stringIT_T0_T1_EERKS8_PKS5_)
	jirl	$ra, $ra, 0
.Ltmp212:                               # EH_LABEL
	ld.d	$a0, $sp, 192                   # 8-byte Folded Reload
	addi.d	$fp, $a0, 216
	addi.d	$a0, $sp, 440
	addi.d	$a1, $sp, 408
	move	$a2, $fp
	pcaddu18i	$ra, %call36(_ZStplIcSt11char_traitsIcESaIcEENSt7__cxx1112basic_stringIT_T0_T1_EEOS8_RKS8_)
	jirl	$ra, $ra, 0
.Ltmp213:                               # EH_LABEL
# %bb.475:                              # %invoke.cont429
.Ltmp215:                               # EH_LABEL
	pcalau12i	$a0, %got_pc_hi20(v_ccfile_printer)
	ld.d	$s4, $a0, %got_pc_lo12(v_ccfile_printer)
	pcalau12i	$a0, %pc_hi20(.L.str.12)
	addi.d	$a1, $a0, %pc_lo12(.L.str.12)
	pcalau12i	$a0, %pc_hi20(.L.str.10)
	addi.d	$a2, $a0, %pc_lo12(.L.str.10)
	addi.d	$a3, $sp, 440
	move	$a0, $s4
	pcaddu18i	$ra, %call36(_ZN14kc_filePrinter4initEPKcS1_RKNSt7__cxx1112basic_stringIcSt11char_traitsIcESaIcEEE)
	jirl	$ra, $ra, 0
.Ltmp216:                               # EH_LABEL
# %bb.476:                              # %invoke.cont431
	ld.d	$a0, $sp, 440
	addi.d	$a1, $sp, 456
	bne	$a0, $a1, .LBB4_479
# %bb.477:                              # %_ZNSt7__cxx1112basic_stringIcSt11char_traitsIcESaIcEED2Ev.exit942
	ld.d	$a0, $sp, 408
	addi.d	$a1, $sp, 424
	bne	$a0, $a1, .LBB4_480
.LBB4_478:                              # %_ZNSt7__cxx1112basic_stringIcSt11char_traitsIcESaIcEED2Ev.exit950
	ld.d	$a0, $sp, 192                   # 8-byte Folded Reload
	ld.bu	$a0, $a0, 65
	ori	$a1, $zero, 1
	beq	$a0, $a1, .LBB4_481
	b	.LBB4_488
.LBB4_479:                              # %if.then.i.i936
	ld.d	$a1, $sp, 456
	addi.d	$a1, $a1, 1
	pcaddu18i	$ra, %call36(_ZdlPvm)
	jirl	$ra, $ra, 0
	ld.d	$a0, $sp, 408
	addi.d	$a1, $sp, 424
	beq	$a0, $a1, .LBB4_478
.LBB4_480:                              # %if.then.i.i944
	ld.d	$a1, $sp, 424
	addi.d	$a1, $a1, 1
	pcaddu18i	$ra, %call36(_ZdlPvm)
	jirl	$ra, $ra, 0
	ld.d	$a0, $sp, 192                   # 8-byte Folded Reload
	ld.bu	$a0, $a0, 65
	ori	$a1, $zero, 1
	bne	$a0, $a1, .LBB4_488
.LBB4_481:                              # %if.then437
	pcalau12i	$a0, %pc_hi20(.L.str.14)
	addi.d	$a1, $a0, %pc_lo12(.L.str.14)
	addi.d	$a0, $sp, 408
	ld.d	$a2, $sp, 16                    # 8-byte Folded Reload
	pcaddu18i	$ra, %call36(_ZStplIcSt11char_traitsIcESaIcEENSt7__cxx1112basic_stringIT_T0_T1_EEPKS5_RKS8_)
	jirl	$ra, $ra, 0
.Ltmp218:                               # EH_LABEL
	pcalau12i	$a0, %pc_hi20(.L.str.36)
	addi.d	$a2, $a0, %pc_lo12(.L.str.36)
	addi.d	$a0, $sp, 440
	addi.d	$a1, $sp, 408
	pcaddu18i	$ra, %call36(_ZStplIcSt11char_traitsIcESaIcEENSt7__cxx1112basic_stringIT_T0_T1_EEOS8_PKS5_)
	jirl	$ra, $ra, 0
.Ltmp219:                               # EH_LABEL
# %bb.482:                              # %invoke.cont441
	ld.d	$a1, $sp, 440
	ld.d	$a2, $sp, 448
.Ltmp221:                               # EH_LABEL
	pcalau12i	$a0, %got_pc_hi20(_ZSt4cout)
	ld.d	$a0, $a0, %got_pc_lo12(_ZSt4cout)
	pcaddu18i	$ra, %call36(_ZSt16__ostream_insertIcSt11char_traitsIcEERSt13basic_ostreamIT_T0_ES6_PKS3_l)
	jirl	$ra, $ra, 0
.Ltmp222:                               # EH_LABEL
# %bb.483:                              # %invoke.cont443
.Ltmp223:                               # EH_LABEL
	pcaddu18i	$ra, %call36(_ZNSo5flushEv)
	jirl	$ra, $ra, 0
.Ltmp224:                               # EH_LABEL
# %bb.484:                              # %invoke.cont445
	ld.d	$a0, $sp, 440
	addi.d	$a1, $sp, 456
	beq	$a0, $a1, .LBB4_486
# %bb.485:                              # %if.then.i.i960
	ld.d	$a1, $sp, 456
	addi.d	$a1, $a1, 1
	pcaddu18i	$ra, %call36(_ZdlPvm)
	jirl	$ra, $ra, 0
.LBB4_486:                              # %_ZNSt7__cxx1112basic_stringIcSt11char_traitsIcESaIcEED2Ev.exit966
	ld.d	$a0, $sp, 408
	addi.d	$a1, $sp, 424
	beq	$a0, $a1, .LBB4_488
# %bb.487:                              # %if.then.i.i968
	ld.d	$a1, $sp, 424
	addi.d	$a1, $a1, 1
	pcaddu18i	$ra, %call36(_ZdlPvm)
	jirl	$ra, $ra, 0
.LBB4_488:                              # %if.end451
	ld.d	$a0, $s1, 0
	ld.d	$a3, $a0, 72
	pcalau12i	$a0, %got_pc_hi20(v_hfile_printer)
	ld.d	$s5, $a0, %got_pc_lo12(v_hfile_printer)
	pcalau12i	$a0, %got_pc_hi20(_ZN2kc19view_gen_rewritek_hE)
	ld.d	$a2, $a0, %got_pc_lo12(_ZN2kc19view_gen_rewritek_hE)
	move	$a0, $s1
	move	$a1, $s5
	jirl	$ra, $a3, 0
	pcalau12i	$a0, %pc_hi20(.L.str.37)
	addi.d	$s2, $a0, %pc_lo12(.L.str.37)
	addi.w	$s7, $zero, -1
	move	$a0, $s2
	move	$a1, $s7
	pcaddu18i	$ra, %call36(_ZN2kc12mkcasestringEPKci)
	jirl	$ra, $ra, 0
	pcaddu18i	$ra, %call36(_ZN2kc11IncludeFileEPNS_20impl_casestring__StrE)
	jirl	$ra, $ra, 0
	move	$s3, $a0
	move	$a0, $s2
	move	$a1, $s7
	pcaddu18i	$ra, %call36(_ZN2kc12mkcasestringEPKci)
	jirl	$ra, $ra, 0
	pcaddu18i	$ra, %call36(_ZN2kc11IncludeFileEPNS_20impl_casestring__StrE)
	jirl	$ra, $ra, 0
	ld.w	$a0, $a0, 8
	sltu	$a0, $zero, $a0
	alsl.d	$a0, $a0, $s3, 3
	ld.d	$a0, $a0, 16
	ld.d	$a1, $a0, 0
	ld.d	$a3, $a1, 72
	pcalau12i	$a1, %got_pc_hi20(_ZN2kc17view_gen_includesE)
	ld.d	$s0, $a1, %got_pc_lo12(_ZN2kc17view_gen_includesE)
	move	$a1, $s5
	move	$a2, $s0
	jirl	$ra, $a3, 0
	ld.d	$a0, $s1, 0
	ld.d	$a3, $a0, 72
	pcalau12i	$a0, %got_pc_hi20(_ZN2kc19view_open_namespaceE)
	ld.d	$s6, $a0, %got_pc_lo12(_ZN2kc19view_open_namespaceE)
	move	$a0, $s1
	move	$a1, $s5
	move	$a2, $s6
	jirl	$ra, $a3, 0
	ld.d	$a0, $s1, 0
	ld.d	$a3, $a0, 72
	pcalau12i	$a0, %got_pc_hi20(_ZN2kc21view_rview_class_declE)
	ld.d	$a2, $a0, %got_pc_lo12(_ZN2kc21view_rview_class_declE)
	move	$a0, $s1
	move	$a1, $s5
	jirl	$ra, $a3, 0
	ld.d	$a0, $s1, 0
	ld.d	$a3, $a0, 72
	pcalau12i	$a0, %got_pc_hi20(_ZN2kc23view_gen_rewritedecls_hE)
	ld.d	$a2, $a0, %got_pc_lo12(_ZN2kc23view_gen_rewritedecls_hE)
	move	$a0, $s1
	move	$a1, $s5
	jirl	$ra, $a3, 0
	ld.d	$a0, $s1, 0
	ld.d	$a3, $a0, 72
	pcalau12i	$a0, %got_pc_hi20(_ZN2kc20view_close_namespaceE)
	ld.d	$s8, $a0, %got_pc_lo12(_ZN2kc20view_close_namespaceE)
	move	$a0, $s1
	move	$a1, $s5
	move	$a2, $s8
	jirl	$ra, $a3, 0
	ld.d	$a0, $s1, 0
	ld.d	$a3, $a0, 72
	pcalau12i	$a0, %got_pc_hi20(_ZN2kc23view_gen_end_rewritek_hE)
	ld.d	$a2, $a0, %got_pc_lo12(_ZN2kc23view_gen_end_rewritek_hE)
	move	$a0, $s1
	move	$a1, $s5
	jirl	$ra, $a3, 0
	ld.d	$a0, $s1, 0
	ld.d	$a3, $a0, 72
	pcalau12i	$a0, %got_pc_hi20(_ZN2kc19view_gen_rewritek_cE)
	ld.d	$a2, $a0, %got_pc_lo12(_ZN2kc19view_gen_rewritek_cE)
	move	$a0, $s1
	move	$a1, $s4
	jirl	$ra, $a3, 0
	ld.d	$a0, $s1, 0
	ld.d	$a3, $a0, 72
	move	$a0, $s1
	move	$a1, $s4
	move	$a2, $s8
	jirl	$ra, $a3, 0
	pcalau12i	$a0, %pc_hi20(.L.str.38)
	addi.d	$s3, $a0, %pc_lo12(.L.str.38)
	move	$a0, $s3
	move	$a1, $s7
	pcaddu18i	$ra, %call36(_ZN2kc12mkcasestringEPKci)
	jirl	$ra, $ra, 0
	pcaddu18i	$ra, %call36(_ZN2kc11IncludeFileEPNS_20impl_casestring__StrE)
	jirl	$ra, $ra, 0
	move	$s2, $a0
	move	$a0, $s3
	move	$a1, $s7
	pcaddu18i	$ra, %call36(_ZN2kc12mkcasestringEPKci)
	jirl	$ra, $ra, 0
	pcaddu18i	$ra, %call36(_ZN2kc11IncludeFileEPNS_20impl_casestring__StrE)
	jirl	$ra, $ra, 0
	ld.w	$a0, $a0, 8
	sltu	$a0, $zero, $a0
	alsl.d	$a0, $a0, $s2, 3
	ld.d	$a0, $a0, 16
	ld.d	$a1, $a0, 0
	ld.d	$a3, $a1, 72
	move	$a1, $s4
	move	$a2, $s0
	jirl	$ra, $a3, 0
	ld.d	$a0, $s1, 0
	ld.d	$a3, $a0, 72
	move	$a0, $s1
	move	$a1, $s4
	move	$a2, $s6
	jirl	$ra, $a3, 0
	ld.d	$a0, $s1, 0
	ld.d	$a3, $a0, 72
	pcalau12i	$a0, %got_pc_hi20(_ZN2kc22view_gen_rewritedefs_cE)
	ld.d	$a2, $a0, %got_pc_lo12(_ZN2kc22view_gen_rewritedefs_cE)
	move	$a0, $s1
	move	$a1, $s4
	jirl	$ra, $a3, 0
	ld.d	$a0, $s1, 0
	ld.d	$a3, $a0, 72
	move	$a0, $s1
	move	$a1, $s4
	move	$a2, $s8
	jirl	$ra, $a3, 0
	ld.d	$a0, $s4, 8
	beqz	$a0, .LBB4_491
# %bb.489:                              # %_ZN14kc_filePrinter6fcloseEv.exit1052
	pcaddu18i	$ra, %call36(fclose)
	jirl	$ra, $ra, 0
	st.d	$zero, $s4, 8
	bne	$a0, $s7, .LBB4_491
# %bb.490:                              # %if.then468
	pcaddu18i	$ra, %call36(_ZN2kc10NoFileLineEv)
	jirl	$ra, $ra, 0
	move	$s2, $a0
	pcalau12i	$a0, %pc_hi20(.L.str.39)
	addi.d	$a0, $a0, %pc_lo12(.L.str.39)
	pcalau12i	$a1, %pc_hi20(.L.str.12)
	addi.d	$a1, $a1, %pc_lo12(.L.str.12)
	pcaddu18i	$ra, %call36(_ZN2kc9Problem2SEPKcS1_)
	jirl	$ra, $ra, 0
	move	$a1, $a0
	move	$a0, $s2
	pcaddu18i	$ra, %call36(_ZN2kc5FatalEPNS_13impl_filelineEPNS_12impl_problemE)
	jirl	$ra, $ra, 0
	pcaddu18i	$ra, %call36(_ZN2kc8v_reportEPNS_10impl_errorE)
	jirl	$ra, $ra, 0
.LBB4_491:                              # %if.end472
	ld.d	$a0, $s5, 8
	beqz	$a0, .LBB4_494
# %bb.492:                              # %_ZN14kc_filePrinter6fcloseEv.exit1058
	pcaddu18i	$ra, %call36(fclose)
	jirl	$ra, $ra, 0
	st.d	$zero, $s5, 8
	bne	$a0, $s7, .LBB4_494
# %bb.493:                              # %if.then475
	pcaddu18i	$ra, %call36(_ZN2kc10NoFileLineEv)
	jirl	$ra, $ra, 0
	move	$s2, $a0
	pcalau12i	$a0, %pc_hi20(.L.str.40)
	addi.d	$a0, $a0, %pc_lo12(.L.str.40)
	pcalau12i	$a1, %pc_hi20(.L.str.9)
	addi.d	$a1, $a1, %pc_lo12(.L.str.9)
	pcaddu18i	$ra, %call36(_ZN2kc9Problem2SEPKcS1_)
	jirl	$ra, $ra, 0
	move	$a1, $a0
	move	$a0, $s2
	pcaddu18i	$ra, %call36(_ZN2kc5FatalEPNS_13impl_filelineEPNS_12impl_problemE)
	jirl	$ra, $ra, 0
	pcaddu18i	$ra, %call36(_ZN2kc8v_reportEPNS_10impl_errorE)
	jirl	$ra, $ra, 0
.LBB4_494:                              # %if.end479
	pcalau12i	$a0, %pc_hi20(.L.str.35)
	addi.d	$a2, $a0, %pc_lo12(.L.str.35)
	addi.d	$a0, $sp, 408
	ld.d	$a1, $sp, 16                    # 8-byte Folded Reload
	pcaddu18i	$ra, %call36(_ZStplIcSt11char_traitsIcESaIcEENSt7__cxx1112basic_stringIT_T0_T1_EERKS8_PKS5_)
	jirl	$ra, $ra, 0
.Ltmp226:                               # EH_LABEL
	addi.d	$a0, $sp, 440
	addi.d	$a1, $sp, 408
	move	$a2, $fp
	pcaddu18i	$ra, %call36(_ZStplIcSt11char_traitsIcESaIcEENSt7__cxx1112basic_stringIT_T0_T1_EEOS8_RKS8_)
	jirl	$ra, $ra, 0
.Ltmp227:                               # EH_LABEL
# %bb.495:                              # %invoke.cont483
	ld.d	$a1, $sp, 440
.Ltmp229:                               # EH_LABEL
	pcalau12i	$a0, %pc_hi20(.L.str.12)
	addi.d	$a0, $a0, %pc_lo12(.L.str.12)
	pcaddu18i	$ra, %call36(_ZN2kcL26compare_and_delete_or_moveEPKcRKNSt7__cxx1112basic_stringIcSt11char_traitsIcESaIcEEE)
	jirl	$ra, $ra, 0
.Ltmp230:                               # EH_LABEL
# %bb.496:                              # %invoke.cont485
	ld.d	$a0, $sp, 440
	addi.d	$a1, $sp, 456
	beq	$a0, $a1, .LBB4_498
# %bb.497:                              # %if.then.i.i1060
	ld.d	$a1, $sp, 456
	addi.d	$a1, $a1, 1
	pcaddu18i	$ra, %call36(_ZdlPvm)
	jirl	$ra, $ra, 0
.LBB4_498:                              # %_ZNSt7__cxx1112basic_stringIcSt11char_traitsIcESaIcEED2Ev.exit1066
	ld.d	$a0, $sp, 408
	addi.d	$a1, $sp, 424
	beq	$a0, $a1, .LBB4_500
# %bb.499:                              # %if.then.i.i1068
	ld.d	$a1, $sp, 424
	addi.d	$a1, $a1, 1
	pcaddu18i	$ra, %call36(_ZdlPvm)
	jirl	$ra, $ra, 0
.LBB4_500:                              # %_ZNSt7__cxx1112basic_stringIcSt11char_traitsIcESaIcEED2Ev.exit1074
	pcalau12i	$a0, %pc_hi20(.L.str.34)
	addi.d	$a2, $a0, %pc_lo12(.L.str.34)
	addi.d	$a0, $sp, 440
	ld.d	$a1, $sp, 16                    # 8-byte Folded Reload
	pcaddu18i	$ra, %call36(_ZStplIcSt11char_traitsIcESaIcEENSt7__cxx1112basic_stringIT_T0_T1_EERKS8_PKS5_)
	jirl	$ra, $ra, 0
	ld.d	$a1, $sp, 440
.Ltmp232:                               # EH_LABEL
	pcalau12i	$a0, %pc_hi20(.L.str.9)
	addi.d	$a0, $a0, %pc_lo12(.L.str.9)
	pcaddu18i	$ra, %call36(_ZN2kcL26compare_and_delete_or_moveEPKcRKNSt7__cxx1112basic_stringIcSt11char_traitsIcESaIcEEE)
	jirl	$ra, $ra, 0
.Ltmp233:                               # EH_LABEL
# %bb.501:                              # %invoke.cont492
	ld.d	$a0, $sp, 440
	addi.d	$a1, $sp, 456
	beq	$a0, $a1, .LBB4_503
# %bb.502:                              # %if.then.i.i1076
	ld.d	$a1, $sp, 456
	addi.d	$a1, $a1, 1
	pcaddu18i	$ra, %call36(_ZdlPvm)
	jirl	$ra, $ra, 0
.LBB4_503:                              # %if.end495
	ld.d	$a0, $sp, 176                   # 8-byte Folded Reload
	ld.d	$s6, $a0, 0
	ld.d	$a0, $s6, 0
	ld.d	$a1, $a0, 0
	move	$a0, $s6
	jirl	$ra, $a1, 0
	ori	$a1, $zero, 105
	bne	$a0, $a1, .LBB4_536
# %bb.504:                              # %while.body502.preheader
	pcalau12i	$a0, %pc_hi20(.L.str.41)
	addi.d	$a0, $a0, %pc_lo12(.L.str.41)
	st.d	$a0, $sp, 152                   # 8-byte Folded Spill
	ld.d	$a0, $sp, 192                   # 8-byte Folded Reload
	addi.d	$a1, $a0, 216
	st.d	$a1, $sp, 144                   # 8-byte Folded Spill
	addi.d	$a0, $a0, 32
	st.d	$a0, $sp, 136                   # 8-byte Folded Spill
	pcalau12i	$a0, %pc_hi20(.L.str.9)
	addi.d	$a0, $a0, %pc_lo12(.L.str.9)
	st.d	$a0, $sp, 128                   # 8-byte Folded Spill
	pcalau12i	$a0, %pc_hi20(.L.str.10)
	addi.d	$a0, $a0, %pc_lo12(.L.str.10)
	st.d	$a0, $sp, 120                   # 8-byte Folded Spill
	pcalau12i	$a0, %pc_hi20(.L.str.12)
	addi.d	$a0, $a0, %pc_lo12(.L.str.12)
	st.d	$a0, $sp, 112                   # 8-byte Folded Spill
	pcalau12i	$a0, %got_pc_hi20(_ZSt4cout)
	ld.d	$a0, $a0, %got_pc_lo12(_ZSt4cout)
	st.d	$a0, $sp, 168                   # 8-byte Folded Spill
	pcalau12i	$a0, %pc_hi20(.L.str.14)
	addi.d	$a0, $a0, %pc_lo12(.L.str.14)
	st.d	$a0, $sp, 40                    # 8-byte Folded Spill
	pcalau12i	$a0, %pc_hi20(.L.str.42)
	addi.d	$a0, $a0, %pc_lo12(.L.str.42)
	st.d	$a0, $sp, 32                    # 8-byte Folded Spill
	pcalau12i	$a0, %got_pc_hi20(_ZN2kc20view_gen_fns_start_hE)
	ld.d	$a0, $a0, %got_pc_lo12(_ZN2kc20view_gen_fns_start_hE)
	st.d	$a0, $sp, 104                   # 8-byte Folded Spill
	pcalau12i	$a0, %got_pc_hi20(_ZN2kc17view_gen_includesE)
	ld.d	$s8, $a0, %got_pc_lo12(_ZN2kc17view_gen_includesE)
	pcalau12i	$a0, %pc_hi20(.L.str.43)
	addi.d	$a0, $a0, %pc_lo12(.L.str.43)
	st.d	$a0, $sp, 96                    # 8-byte Folded Spill
	addi.w	$a0, $zero, -1
	st.d	$a0, $sp, 88                    # 8-byte Folded Spill
	pcalau12i	$a0, %got_pc_hi20(_ZN2kc19view_open_namespaceE)
	ld.d	$a0, $a0, %got_pc_lo12(_ZN2kc19view_open_namespaceE)
	st.d	$a0, $sp, 184                   # 8-byte Folded Spill
	pcalau12i	$a0, %got_pc_hi20(_ZN2kc14view_gen_fnk_hE)
	ld.d	$a0, $a0, %got_pc_lo12(_ZN2kc14view_gen_fnk_hE)
	st.d	$a0, $sp, 80                    # 8-byte Folded Spill
	pcalau12i	$a0, %got_pc_hi20(_ZN2kc20view_close_namespaceE)
	ld.d	$a0, $a0, %got_pc_lo12(_ZN2kc20view_close_namespaceE)
	st.d	$a0, $sp, 176                   # 8-byte Folded Spill
	pcalau12i	$a0, %got_pc_hi20(_ZN2kc18view_gen_fns_end_hE)
	ld.d	$a0, $a0, %got_pc_lo12(_ZN2kc18view_gen_fns_end_hE)
	st.d	$a0, $sp, 72                    # 8-byte Folded Spill
	pcalau12i	$a0, %got_pc_hi20(_ZN2kc20view_gen_fns_start_cE)
	ld.d	$a0, $a0, %got_pc_lo12(_ZN2kc20view_gen_fns_start_cE)
	st.d	$a0, $sp, 64                    # 8-byte Folded Spill
	pcalau12i	$a0, %got_pc_hi20(_ZN2kc25view_gen_fns_owninclude_cE)
	ld.d	$a0, $a0, %got_pc_lo12(_ZN2kc25view_gen_fns_owninclude_cE)
	st.d	$a0, $sp, 56                    # 8-byte Folded Spill
	pcalau12i	$a0, %pc_hi20(.L.str.44)
	addi.d	$a0, $a0, %pc_lo12(.L.str.44)
	st.d	$a0, $sp, 48                    # 8-byte Folded Spill
	ori	$fp, $zero, 95
	b	.LBB4_507
.LBB4_505:                              # %if.else558
                                        #   in Loop: Header=BB4_507 Depth=1
	pcalau12i	$a0, %pc_hi20(.L.str.47)
	addi.d	$a0, $a0, %pc_lo12(.L.str.47)
	pcalau12i	$a1, %pc_hi20(.L.str.48)
	addi.d	$a2, $a1, %pc_lo12(.L.str.48)
	ori	$a1, $zero, 1165
	pcaddu18i	$ra, %call36(_ZN2kc21kc_no_default_in_withEPKciS1_)
	jirl	$ra, $ra, 0
.LBB4_506:                              # %if.end559
                                        #   in Loop: Header=BB4_507 Depth=1
	ld.d	$s6, $s6, 16
	ld.d	$a0, $s6, 0
	ld.d	$a1, $a0, 0
	move	$a0, $s6
	jirl	$ra, $a1, 0
	ori	$a1, $zero, 105
	bne	$a0, $a1, .LBB4_536
.LBB4_507:                              # %while.body502
                                        # =>This Loop Header: Depth=1
                                        #     Child Loop BB4_518 Depth 2
                                        #     Child Loop BB4_526 Depth 2
	ld.d	$s7, $s6, 8
	ld.d	$a0, $s7, 0
	ld.d	$a1, $a0, 0
	move	$a0, $s7
	jirl	$ra, $a1, 0
	ori	$a1, $zero, 106
	bne	$a0, $a1, .LBB4_505
# %bb.508:                              # %if.then512
                                        #   in Loop: Header=BB4_507 Depth=1
	ld.d	$s2, $s7, 16
	move	$a0, $s2
	ld.d	$a1, $sp, 152                   # 8-byte Folded Reload
	pcaddu18i	$ra, %call36(_ZN2kc13f_mk_filenameEPNS_20impl_casestring__StrEPKc)
	jirl	$ra, $ra, 0
	ld.d	$s0, $sp, 192                   # 8-byte Folded Reload
	ld.d	$s3, $s0, 8
	move	$s4, $a0
	pcaddu18i	$ra, %call36(strlen)
	jirl	$ra, $ra, 0
	move	$a4, $a0
	move	$a0, $s0
	move	$a1, $zero
	move	$a2, $s3
	move	$a3, $s4
	pcaddu18i	$ra, %call36(_ZNSt7__cxx1112basic_stringIcSt11char_traitsIcESaIcEE10_M_replaceEmmPKcm)
	jirl	$ra, $ra, 0
	move	$a0, $s2
	ld.d	$a1, $sp, 144                   # 8-byte Folded Reload
	pcaddu18i	$ra, %call36(_ZN2kc13f_mk_filenameEPNS_20impl_casestring__StrERKNSt7__cxx1112basic_stringIcSt11char_traitsIcESaIcEEE)
	jirl	$ra, $ra, 0
	ld.d	$s3, $s0, 40
	move	$s4, $a0
	pcaddu18i	$ra, %call36(strlen)
	jirl	$ra, $ra, 0
	move	$a4, $a0
	ld.d	$s5, $sp, 136                   # 8-byte Folded Reload
	move	$a0, $s5
	move	$a1, $zero
	move	$a2, $s3
	move	$a3, $s4
	pcaddu18i	$ra, %call36(_ZNSt7__cxx1112basic_stringIcSt11char_traitsIcESaIcEE10_M_replaceEmmPKcm)
	jirl	$ra, $ra, 0
	ld.d	$a0, $sp, 160                   # 8-byte Folded Reload
	st.d	$s2, $a0, 0
	ld.d	$a0, $sp, 208                   # 8-byte Folded Reload
	ld.d	$a1, $sp, 128                   # 8-byte Folded Reload
	ld.d	$s3, $sp, 120                   # 8-byte Folded Reload
	move	$a2, $s3
	move	$a3, $s0
	pcaddu18i	$ra, %call36(_ZN14kc_filePrinter4initEPKcS1_RKNSt7__cxx1112basic_stringIcSt11char_traitsIcESaIcEEE)
	jirl	$ra, $ra, 0
	ld.d	$a0, $sp, 200                   # 8-byte Folded Reload
	ld.d	$a1, $sp, 112                   # 8-byte Folded Reload
	move	$a2, $s3
	move	$a3, $s5
	pcaddu18i	$ra, %call36(_ZN14kc_filePrinter4initEPKcS1_RKNSt7__cxx1112basic_stringIcSt11char_traitsIcESaIcEEE)
	jirl	$ra, $ra, 0
	ld.bu	$a0, $s0, 65
	ori	$a1, $zero, 1
	bne	$a0, $a1, .LBB4_513
# %bb.509:                              # %if.then519
                                        #   in Loop: Header=BB4_507 Depth=1
	ori	$a2, $zero, 1
	ld.d	$a0, $sp, 168                   # 8-byte Folded Reload
	ld.d	$a1, $sp, 40                    # 8-byte Folded Reload
	pcaddu18i	$ra, %call36(_ZSt16__ostream_insertIcSt11char_traitsIcEERSt13basic_ostreamIT_T0_ES6_PKS3_l)
	jirl	$ra, $ra, 0
	move	$a0, $s2
	ld.d	$a1, $sp, 32                    # 8-byte Folded Reload
	pcaddu18i	$ra, %call36(_ZN2kc13f_mk_filenameEPNS_20impl_casestring__StrEPKc)
	jirl	$ra, $ra, 0
	beqz	$a0, .LBB4_511
# %bb.510:                              # %if.else.i
                                        #   in Loop: Header=BB4_507 Depth=1
	move	$s3, $a0
	pcaddu18i	$ra, %call36(strlen)
	jirl	$ra, $ra, 0
	move	$a2, $a0
	ld.d	$a0, $sp, 168                   # 8-byte Folded Reload
	move	$a1, $s3
	pcaddu18i	$ra, %call36(_ZSt16__ostream_insertIcSt11char_traitsIcEERSt13basic_ostreamIT_T0_ES6_PKS3_l)
	jirl	$ra, $ra, 0
	b	.LBB4_512
.LBB4_511:                              # %if.then.i1120
                                        #   in Loop: Header=BB4_507 Depth=1
	ld.d	$a1, $sp, 168                   # 8-byte Folded Reload
	ld.d	$a0, $a1, 0
	ld.d	$a0, $a0, -24
	add.d	$a0, $a1, $a0
	ld.w	$a1, $a0, 32
	ori	$a1, $a1, 1
	pcaddu18i	$ra, %call36(_ZNSt9basic_iosIcSt11char_traitsIcEE5clearESt12_Ios_Iostate)
	jirl	$ra, $ra, 0
.LBB4_512:                              # %_ZStlsISt11char_traitsIcEERSt13basic_ostreamIcT_ES5_PKc.exit
                                        #   in Loop: Header=BB4_507 Depth=1
	ld.d	$a0, $sp, 168                   # 8-byte Folded Reload
	pcaddu18i	$ra, %call36(_ZNSo5flushEv)
	jirl	$ra, $ra, 0
.LBB4_513:                              # %if.end524
                                        #   in Loop: Header=BB4_507 Depth=1
	ld.d	$a0, $s1, 0
	ld.d	$a3, $a0, 72
	move	$a0, $s1
	ld.d	$s0, $sp, 208                   # 8-byte Folded Reload
	move	$a1, $s0
	ld.d	$a2, $sp, 104                   # 8-byte Folded Reload
	jirl	$ra, $a3, 0
	move	$a0, $s2
	pcaddu18i	$ra, %call36(_ZN2kc11IncludeFileEPNS_20impl_casestring__StrE)
	jirl	$ra, $ra, 0
	ld.d	$a0, $a0, 16
	ld.d	$a1, $a0, 0
	ld.d	$a3, $a1, 72
	move	$a1, $s0
	move	$a2, $s8
	jirl	$ra, $a3, 0
	ld.d	$a0, $sp, 160                   # 8-byte Folded Reload
	ld.d	$a0, $a0, 0
	ld.d	$s3, $a0, 8
	move	$a0, $s3
	pcaddu18i	$ra, %call36(strlen)
	jirl	$ra, $ra, 0
	addi.d	$a0, $a0, 1
	pcaddu18i	$ra, %call36(_Znam)
	jirl	$ra, $ra, 0
	move	$s4, $a0
	move	$a1, $s3
	pcaddu18i	$ra, %call36(strcpy)
	jirl	$ra, $ra, 0
	ori	$a1, $zero, 46
	move	$a0, $s4
	pcaddu18i	$ra, %call36(strrchr)
	jirl	$ra, $ra, 0
	beqz	$a0, .LBB4_515
# %bb.514:                              # %if.then.i1134
                                        #   in Loop: Header=BB4_507 Depth=1
	st.b	$zero, $a0, 0
.LBB4_515:                              # %if.end.i1135
                                        #   in Loop: Header=BB4_507 Depth=1
	move	$a0, $s4
	pcaddu18i	$ra, %call36(strlen)
	jirl	$ra, $ra, 0
	addi.d	$a0, $a0, 23
	pcaddu18i	$ra, %call36(_Znam)
	jirl	$ra, $ra, 0
	move	$s3, $a0
	ld.d	$a1, $sp, 96                    # 8-byte Folded Reload
	move	$a2, $s4
	pcaddu18i	$ra, %call36(sprintf)
	jirl	$ra, $ra, 0
	ld.bu	$a0, $s3, 0
	beqz	$a0, .LBB4_521
# %bb.516:                              # %for.body.i1140.preheader
                                        #   in Loop: Header=BB4_507 Depth=1
	addi.d	$s5, $s3, 1
	b	.LBB4_518
.LBB4_517:                              # %for.inc.i1143
                                        #   in Loop: Header=BB4_518 Depth=2
	ld.bu	$a0, $s5, 0
	addi.d	$s5, $s5, 1
	beqz	$a0, .LBB4_521
.LBB4_518:                              # %for.body.i1140
                                        #   Parent Loop BB4_507 Depth=1
                                        # =>  This Inner Loop Header: Depth=2
	andi	$s0, $a0, 255
	ext.w.b	$a0, $a0
	pcaddu18i	$ra, %call36(isalnum)
	jirl	$ra, $ra, 0
	beq	$s0, $fp, .LBB4_517
# %bb.519:                              # %for.body.i1140
                                        #   in Loop: Header=BB4_518 Depth=2
	bnez	$a0, .LBB4_517
# %bb.520:                              # %if.then16.i
                                        #   in Loop: Header=BB4_518 Depth=2
	st.b	$fp, $s5, -1
	b	.LBB4_517
.LBB4_521:                              # %_ZN2kcL17mkfunctionincnameEPKc.exit
                                        #   in Loop: Header=BB4_507 Depth=1
	move	$a0, $s3
	ld.d	$a1, $sp, 88                    # 8-byte Folded Reload
	pcaddu18i	$ra, %call36(_ZN2kc12mkcasestringEPKci)
	jirl	$ra, $ra, 0
	move	$s5, $a0
	move	$a0, $s4
	pcaddu18i	$ra, %call36(_ZdaPv)
	jirl	$ra, $ra, 0
	move	$a0, $s3
	pcaddu18i	$ra, %call36(_ZdaPv)
	jirl	$ra, $ra, 0
	move	$a0, $s5
	pcaddu18i	$ra, %call36(_ZN2kc11IncludeFileEPNS_20impl_casestring__StrE)
	jirl	$ra, $ra, 0
	ld.d	$a0, $a0, 16
	ld.d	$a1, $a0, 0
	ld.d	$a3, $a1, 72
	ld.d	$s0, $sp, 208                   # 8-byte Folded Reload
	move	$a1, $s0
	move	$a2, $s8
	jirl	$ra, $a3, 0
	ld.d	$a0, $s1, 0
	ld.d	$a3, $a0, 72
	move	$a0, $s1
	move	$a1, $s0
	ld.d	$a2, $sp, 184                   # 8-byte Folded Reload
	jirl	$ra, $a3, 0
	ld.d	$a0, $s7, 8
	ld.d	$a1, $a0, 0
	ld.d	$a3, $a1, 72
	move	$a1, $s0
	ld.d	$a2, $sp, 80                    # 8-byte Folded Reload
	jirl	$ra, $a3, 0
	ld.d	$a0, $s1, 0
	ld.d	$a3, $a0, 72
	move	$a0, $s1
	move	$a1, $s0
	ld.d	$a2, $sp, 176                   # 8-byte Folded Reload
	jirl	$ra, $a3, 0
	ld.d	$a0, $s1, 0
	ld.d	$a3, $a0, 72
	move	$a0, $s1
	move	$a1, $s0
	ld.d	$a2, $sp, 72                    # 8-byte Folded Reload
	jirl	$ra, $a3, 0
	ld.d	$a0, $s1, 0
	ld.d	$a3, $a0, 72
	move	$a0, $s1
	ld.d	$s0, $sp, 200                   # 8-byte Folded Reload
	move	$a1, $s0
	ld.d	$a2, $sp, 64                    # 8-byte Folded Reload
	jirl	$ra, $a3, 0
	ld.d	$a0, $s1, 0
	ld.d	$a3, $a0, 72
	move	$a0, $s1
	move	$a1, $s0
	ld.d	$a2, $sp, 56                    # 8-byte Folded Reload
	jirl	$ra, $a3, 0
	move	$a0, $s2
	pcaddu18i	$ra, %call36(_ZN2kc11IncludeFileEPNS_20impl_casestring__StrE)
	jirl	$ra, $ra, 0
	ld.d	$a0, $a0, 24
	ld.d	$a1, $a0, 0
	ld.d	$a3, $a1, 72
	move	$a1, $s0
	move	$a2, $s8
	jirl	$ra, $a3, 0
	ld.d	$a0, $sp, 160                   # 8-byte Folded Reload
	ld.d	$a0, $a0, 0
	ld.d	$s2, $a0, 8
	move	$a0, $s2
	pcaddu18i	$ra, %call36(strlen)
	jirl	$ra, $ra, 0
	addi.d	$a0, $a0, 1
	pcaddu18i	$ra, %call36(_Znam)
	jirl	$ra, $ra, 0
	move	$s4, $a0
	move	$a1, $s2
	pcaddu18i	$ra, %call36(strcpy)
	jirl	$ra, $ra, 0
	ori	$a1, $zero, 46
	move	$a0, $s4
	pcaddu18i	$ra, %call36(strrchr)
	jirl	$ra, $ra, 0
	beqz	$a0, .LBB4_523
# %bb.522:                              # %if.then.i1171
                                        #   in Loop: Header=BB4_507 Depth=1
	st.b	$zero, $a0, 0
.LBB4_523:                              # %if.end.i1172
                                        #   in Loop: Header=BB4_507 Depth=1
	move	$a0, $s4
	pcaddu18i	$ra, %call36(strlen)
	jirl	$ra, $ra, 0
	addi.d	$a0, $a0, 16
	pcaddu18i	$ra, %call36(_Znam)
	jirl	$ra, $ra, 0
	move	$s3, $a0
	ld.d	$a1, $sp, 48                    # 8-byte Folded Reload
	move	$a2, $s4
	pcaddu18i	$ra, %call36(sprintf)
	jirl	$ra, $ra, 0
	ld.bu	$a0, $s3, 0
	beqz	$a0, .LBB4_529
# %bb.524:                              # %for.body.i1180.preheader
                                        #   in Loop: Header=BB4_507 Depth=1
	addi.d	$s2, $s3, 1
	b	.LBB4_526
.LBB4_525:                              # %for.inc.i1188
                                        #   in Loop: Header=BB4_526 Depth=2
	ld.bu	$a0, $s2, 0
	addi.d	$s2, $s2, 1
	beqz	$a0, .LBB4_529
.LBB4_526:                              # %for.body.i1180
                                        #   Parent Loop BB4_507 Depth=1
                                        # =>  This Inner Loop Header: Depth=2
	andi	$s0, $a0, 255
	ext.w.b	$a0, $a0
	pcaddu18i	$ra, %call36(isalnum)
	jirl	$ra, $ra, 0
	beq	$s0, $fp, .LBB4_525
# %bb.527:                              # %for.body.i1180
                                        #   in Loop: Header=BB4_526 Depth=2
	bnez	$a0, .LBB4_525
# %bb.528:                              # %if.then16.i1187
                                        #   in Loop: Header=BB4_526 Depth=2
	st.b	$fp, $s2, -1
	b	.LBB4_525
.LBB4_529:                              # %_ZN2kcL17mkfunctionincnameEPKc.exit1193
                                        #   in Loop: Header=BB4_507 Depth=1
	addi.w	$s2, $zero, -1
	move	$a0, $s3
	move	$a1, $s2
	pcaddu18i	$ra, %call36(_ZN2kc12mkcasestringEPKci)
	jirl	$ra, $ra, 0
	move	$s5, $a0
	move	$a0, $s4
	pcaddu18i	$ra, %call36(_ZdaPv)
	jirl	$ra, $ra, 0
	move	$a0, $s3
	pcaddu18i	$ra, %call36(_ZdaPv)
	jirl	$ra, $ra, 0
	move	$a0, $s5
	pcaddu18i	$ra, %call36(_ZN2kc11IncludeFileEPNS_20impl_casestring__StrE)
	jirl	$ra, $ra, 0
	ld.d	$a0, $a0, 24
	ld.d	$a1, $a0, 0
	ld.d	$a3, $a1, 72
	ld.d	$s0, $sp, 200                   # 8-byte Folded Reload
	move	$a1, $s0
	move	$a2, $s8
	jirl	$ra, $a3, 0
	ld.d	$a0, $s1, 0
	ld.d	$a3, $a0, 72
	move	$a0, $s1
	move	$a1, $s0
	ld.d	$a2, $sp, 184                   # 8-byte Folded Reload
	jirl	$ra, $a3, 0
	ld.d	$a0, $s7, 8
	ld.d	$a1, $a0, 0
	ld.d	$a3, $a1, 72
	pcalau12i	$a1, %got_pc_hi20(_ZN2kc19view_gen_fnkdecls_cE)
	ld.d	$a2, $a1, %got_pc_lo12(_ZN2kc19view_gen_fnkdecls_cE)
	move	$a1, $s0
	jirl	$ra, $a3, 0
	ld.d	$a0, $s7, 8
	ld.d	$a1, $a0, 0
	ld.d	$a3, $a1, 72
	pcalau12i	$a1, %got_pc_hi20(_ZN2kc14view_gen_fnk_cE)
	ld.d	$a2, $a1, %got_pc_lo12(_ZN2kc14view_gen_fnk_cE)
	move	$a1, $s0
	jirl	$ra, $a3, 0
	ld.d	$a0, $s1, 0
	ld.d	$a3, $a0, 72
	move	$a0, $s1
	move	$a1, $s0
	ld.d	$a2, $sp, 176                   # 8-byte Folded Reload
	jirl	$ra, $a3, 0
	ld.d	$a0, $s0, 8
	beqz	$a0, .LBB4_532
# %bb.530:                              # %_ZN14kc_filePrinter6fcloseEv.exit1210
                                        #   in Loop: Header=BB4_507 Depth=1
	pcaddu18i	$ra, %call36(fclose)
	jirl	$ra, $ra, 0
	ld.d	$a1, $sp, 200                   # 8-byte Folded Reload
	st.d	$zero, $a1, 8
	bne	$a0, $s2, .LBB4_532
# %bb.531:                              # %if.then544
                                        #   in Loop: Header=BB4_507 Depth=1
	pcaddu18i	$ra, %call36(_ZN2kc10NoFileLineEv)
	jirl	$ra, $ra, 0
	ld.d	$a1, $sp, 192                   # 8-byte Folded Reload
	ld.d	$a1, $a1, 32
	move	$s3, $a0
	pcalau12i	$a0, %pc_hi20(.L.str.45)
	addi.d	$a0, $a0, %pc_lo12(.L.str.45)
	pcalau12i	$a2, %pc_hi20(.L.str.46)
	addi.d	$a2, $a2, %pc_lo12(.L.str.46)
	pcalau12i	$a3, %pc_hi20(.L.str.12)
	addi.d	$a3, $a3, %pc_lo12(.L.str.12)
	pcaddu18i	$ra, %call36(_ZN2kc9Problem4SEPKcS1_S1_S1_)
	jirl	$ra, $ra, 0
	move	$a1, $a0
	move	$a0, $s3
	pcaddu18i	$ra, %call36(_ZN2kc5FatalEPNS_13impl_filelineEPNS_12impl_problemE)
	jirl	$ra, $ra, 0
	pcaddu18i	$ra, %call36(_ZN2kc8v_reportEPNS_10impl_errorE)
	jirl	$ra, $ra, 0
.LBB4_532:                              # %if.end549
                                        #   in Loop: Header=BB4_507 Depth=1
	ld.d	$a0, $sp, 208                   # 8-byte Folded Reload
	ld.d	$a0, $a0, 8
	beqz	$a0, .LBB4_535
# %bb.533:                              # %_ZN14kc_filePrinter6fcloseEv.exit1216
                                        #   in Loop: Header=BB4_507 Depth=1
	pcaddu18i	$ra, %call36(fclose)
	jirl	$ra, $ra, 0
	ld.d	$a1, $sp, 208                   # 8-byte Folded Reload
	st.d	$zero, $a1, 8
	bne	$a0, $s2, .LBB4_535
# %bb.534:                              # %if.then552
                                        #   in Loop: Header=BB4_507 Depth=1
	pcaddu18i	$ra, %call36(_ZN2kc10NoFileLineEv)
	jirl	$ra, $ra, 0
	ld.d	$a1, $sp, 192                   # 8-byte Folded Reload
	ld.d	$a1, $a1, 0
	move	$s2, $a0
	pcalau12i	$a0, %pc_hi20(.L.str.45)
	addi.d	$a0, $a0, %pc_lo12(.L.str.45)
	pcalau12i	$a2, %pc_hi20(.L.str.46)
	addi.d	$a2, $a2, %pc_lo12(.L.str.46)
	pcalau12i	$a3, %pc_hi20(.L.str.9)
	addi.d	$a3, $a3, %pc_lo12(.L.str.9)
	pcaddu18i	$ra, %call36(_ZN2kc9Problem4SEPKcS1_S1_S1_)
	jirl	$ra, $ra, 0
	move	$a1, $a0
	move	$a0, $s2
	pcaddu18i	$ra, %call36(_ZN2kc5FatalEPNS_13impl_filelineEPNS_12impl_problemE)
	jirl	$ra, $ra, 0
	pcaddu18i	$ra, %call36(_ZN2kc8v_reportEPNS_10impl_errorE)
	jirl	$ra, $ra, 0
.LBB4_535:                              # %if.end557
                                        #   in Loop: Header=BB4_507 Depth=1
	ld.d	$s0, $sp, 192                   # 8-byte Folded Reload
	ld.d	$a1, $s0, 32
	pcalau12i	$a0, %pc_hi20(.L.str.12)
	addi.d	$a0, $a0, %pc_lo12(.L.str.12)
	pcaddu18i	$ra, %call36(_ZN2kcL26compare_and_delete_or_moveEPKcRKNSt7__cxx1112basic_stringIcSt11char_traitsIcESaIcEEE)
	jirl	$ra, $ra, 0
	ld.d	$a1, $s0, 0
	pcalau12i	$a0, %pc_hi20(.L.str.9)
	addi.d	$a0, $a0, %pc_lo12(.L.str.9)
	pcaddu18i	$ra, %call36(_ZN2kcL26compare_and_delete_or_moveEPKcRKNSt7__cxx1112basic_stringIcSt11char_traitsIcESaIcEEE)
	jirl	$ra, $ra, 0
	b	.LBB4_506
.LBB4_536:                              # %while.end561
	ld.d	$a0, $sp, 192                   # 8-byte Folded Reload
	ld.bu	$a0, $a0, 71
	ori	$a1, $zero, 1
	bne	$a0, $a1, .LBB4_554
# %bb.537:                              # %if.then563
	pcalau12i	$a0, %pc_hi20(.L.str.49)
	addi.d	$a2, $a0, %pc_lo12(.L.str.49)
	addi.d	$a0, $sp, 440
	ld.d	$a1, $sp, 16                    # 8-byte Folded Reload
	pcaddu18i	$ra, %call36(_ZStplIcSt11char_traitsIcESaIcEENSt7__cxx1112basic_stringIT_T0_T1_EERKS8_PKS5_)
	jirl	$ra, $ra, 0
.Ltmp235:                               # EH_LABEL
	pcalau12i	$a0, %got_pc_hi20(v_hfile_printer)
	ld.d	$s2, $a0, %got_pc_lo12(v_hfile_printer)
	pcalau12i	$a0, %pc_hi20(.L.str.9)
	addi.d	$a1, $a0, %pc_lo12(.L.str.9)
	pcalau12i	$a0, %pc_hi20(.L.str.10)
	addi.d	$a2, $a0, %pc_lo12(.L.str.10)
	addi.d	$a3, $sp, 440
	move	$a0, $s2
	pcaddu18i	$ra, %call36(_ZN14kc_filePrinter4initEPKcS1_RKNSt7__cxx1112basic_stringIcSt11char_traitsIcESaIcEEE)
	jirl	$ra, $ra, 0
.Ltmp236:                               # EH_LABEL
# %bb.538:                              # %invoke.cont566
	ld.d	$a0, $sp, 440
	addi.d	$a1, $sp, 456
	beq	$a0, $a1, .LBB4_540
# %bb.539:                              # %if.then.i.i1218
	ld.d	$a1, $sp, 456
	addi.d	$a1, $a1, 1
	pcaddu18i	$ra, %call36(_ZdlPvm)
	jirl	$ra, $ra, 0
.LBB4_540:                              # %_ZNSt7__cxx1112basic_stringIcSt11char_traitsIcESaIcEED2Ev.exit1224
	ld.d	$a0, $sp, 192                   # 8-byte Folded Reload
	ld.bu	$a0, $a0, 65
	ori	$a1, $zero, 1
	bne	$a0, $a1, .LBB4_548
# %bb.541:                              # %if.then570
	pcalau12i	$a0, %pc_hi20(.L.str.14)
	addi.d	$a1, $a0, %pc_lo12(.L.str.14)
	addi.d	$a0, $sp, 408
	ld.d	$a2, $sp, 16                    # 8-byte Folded Reload
	pcaddu18i	$ra, %call36(_ZStplIcSt11char_traitsIcESaIcEENSt7__cxx1112basic_stringIT_T0_T1_EEPKS5_RKS8_)
	jirl	$ra, $ra, 0
.Ltmp238:                               # EH_LABEL
	pcalau12i	$a0, %pc_hi20(.L.str.49)
	addi.d	$a2, $a0, %pc_lo12(.L.str.49)
	addi.d	$a0, $sp, 440
	addi.d	$a1, $sp, 408
	pcaddu18i	$ra, %call36(_ZStplIcSt11char_traitsIcESaIcEENSt7__cxx1112basic_stringIT_T0_T1_EEOS8_PKS5_)
	jirl	$ra, $ra, 0
.Ltmp239:                               # EH_LABEL
# %bb.542:                              # %invoke.cont574
	ld.d	$a1, $sp, 440
	ld.d	$a2, $sp, 448
.Ltmp241:                               # EH_LABEL
	pcalau12i	$a0, %got_pc_hi20(_ZSt4cout)
	ld.d	$a0, $a0, %got_pc_lo12(_ZSt4cout)
	pcaddu18i	$ra, %call36(_ZSt16__ostream_insertIcSt11char_traitsIcEERSt13basic_ostreamIT_T0_ES6_PKS3_l)
	jirl	$ra, $ra, 0
.Ltmp242:                               # EH_LABEL
# %bb.543:                              # %invoke.cont576
.Ltmp243:                               # EH_LABEL
	pcaddu18i	$ra, %call36(_ZNSo5flushEv)
	jirl	$ra, $ra, 0
.Ltmp244:                               # EH_LABEL
# %bb.544:                              # %invoke.cont578
	ld.d	$a0, $sp, 440
	addi.d	$a1, $sp, 456
	beq	$a0, $a1, .LBB4_546
# %bb.545:                              # %if.then.i.i1234
	ld.d	$a1, $sp, 456
	addi.d	$a1, $a1, 1
	pcaddu18i	$ra, %call36(_ZdlPvm)
	jirl	$ra, $ra, 0
.LBB4_546:                              # %_ZNSt7__cxx1112basic_stringIcSt11char_traitsIcESaIcEED2Ev.exit1240
	ld.d	$a0, $sp, 408
	addi.d	$a1, $sp, 424
	beq	$a0, $a1, .LBB4_548
# %bb.547:                              # %if.then.i.i1242
	ld.d	$a1, $sp, 424
	addi.d	$a1, $a1, 1
	pcaddu18i	$ra, %call36(_ZdlPvm)
	jirl	$ra, $ra, 0
.LBB4_548:                              # %if.end584
	ld.d	$a0, $s1, 0
	ld.d	$a3, $a0, 72
	pcalau12i	$a0, %got_pc_hi20(_ZN2kc23view_gen_operatorcast_hE)
	ld.d	$a2, $a0, %got_pc_lo12(_ZN2kc23view_gen_operatorcast_hE)
	move	$a0, $s1
	move	$a1, $s2
	jirl	$ra, $a3, 0
	ld.d	$a0, $s2, 8
	beqz	$a0, .LBB4_551
# %bb.549:                              # %_ZN14kc_filePrinter6fcloseEv.exit1280
	pcaddu18i	$ra, %call36(fclose)
	jirl	$ra, $ra, 0
	st.d	$zero, $s2, 8
	ld.d	$a1, $sp, 24                    # 8-byte Folded Reload
	bne	$a0, $a1, .LBB4_551
# %bb.550:                              # %if.then587
	pcaddu18i	$ra, %call36(_ZN2kc10NoFileLineEv)
	jirl	$ra, $ra, 0
	move	$s2, $a0
	pcalau12i	$a0, %pc_hi20(.L.str.50)
	addi.d	$a0, $a0, %pc_lo12(.L.str.50)
	pcalau12i	$a1, %pc_hi20(.L.str.9)
	addi.d	$a1, $a1, %pc_lo12(.L.str.9)
	pcaddu18i	$ra, %call36(_ZN2kc9Problem2SEPKcS1_)
	jirl	$ra, $ra, 0
	move	$a1, $a0
	move	$a0, $s2
	pcaddu18i	$ra, %call36(_ZN2kc5FatalEPNS_13impl_filelineEPNS_12impl_problemE)
	jirl	$ra, $ra, 0
	pcaddu18i	$ra, %call36(_ZN2kc8v_reportEPNS_10impl_errorE)
	jirl	$ra, $ra, 0
.LBB4_551:                              # %if.end591
	pcalau12i	$a0, %pc_hi20(.L.str.49)
	addi.d	$a2, $a0, %pc_lo12(.L.str.49)
	addi.d	$a0, $sp, 440
	ld.d	$a1, $sp, 16                    # 8-byte Folded Reload
	pcaddu18i	$ra, %call36(_ZStplIcSt11char_traitsIcESaIcEENSt7__cxx1112basic_stringIT_T0_T1_EERKS8_PKS5_)
	jirl	$ra, $ra, 0
	ld.d	$a1, $sp, 440
.Ltmp246:                               # EH_LABEL
	pcalau12i	$a0, %pc_hi20(.L.str.9)
	addi.d	$a0, $a0, %pc_lo12(.L.str.9)
	pcaddu18i	$ra, %call36(_ZN2kcL26compare_and_delete_or_moveEPKcRKNSt7__cxx1112basic_stringIcSt11char_traitsIcESaIcEEE)
	jirl	$ra, $ra, 0
.Ltmp247:                               # EH_LABEL
# %bb.552:                              # %invoke.cont594
	ld.d	$a0, $sp, 440
	addi.d	$a1, $sp, 456
	beq	$a0, $a1, .LBB4_554
# %bb.553:                              # %if.then.i.i1282
	ld.d	$a1, $sp, 456
	addi.d	$a1, $a1, 1
	pcaddu18i	$ra, %call36(_ZdlPvm)
	jirl	$ra, $ra, 0
.LBB4_554:                              # %if.end597
	ld.d	$a0, $sp, 192                   # 8-byte Folded Reload
	addi.d	$s2, $a0, 80
	pcalau12i	$a0, %pc_hi20(.L.str.42)
	addi.d	$a1, $a0, %pc_lo12(.L.str.42)
	move	$a0, $s2
	pcaddu18i	$ra, %call36(_ZStneIcSt11char_traitsIcESaIcEEbRKNSt7__cxx1112basic_stringIT_T0_T1_EEPKS5_)
	jirl	$ra, $ra, 0
	beqz	$a0, .LBB4_572
# %bb.555:                              # %if.then599
	addi.d	$a0, $sp, 440
	ld.d	$a1, $sp, 16                    # 8-byte Folded Reload
	move	$a2, $s2
	pcaddu18i	$ra, %call36(_ZStplIcSt11char_traitsIcESaIcEENSt7__cxx1112basic_stringIT_T0_T1_EERKS8_SA_)
	jirl	$ra, $ra, 0
.Ltmp249:                               # EH_LABEL
	pcalau12i	$a0, %got_pc_hi20(v_hfile_printer)
	ld.d	$s3, $a0, %got_pc_lo12(v_hfile_printer)
	pcalau12i	$a0, %pc_hi20(.L.str.9)
	addi.d	$a1, $a0, %pc_lo12(.L.str.9)
	pcalau12i	$a0, %pc_hi20(.L.str.10)
	addi.d	$a2, $a0, %pc_lo12(.L.str.10)
	addi.d	$a3, $sp, 440
	move	$a0, $s3
	pcaddu18i	$ra, %call36(_ZN14kc_filePrinter4initEPKcS1_RKNSt7__cxx1112basic_stringIcSt11char_traitsIcESaIcEEE)
	jirl	$ra, $ra, 0
.Ltmp250:                               # EH_LABEL
# %bb.556:                              # %invoke.cont602
	ld.d	$a0, $sp, 440
	addi.d	$a1, $sp, 456
	beq	$a0, $a1, .LBB4_558
# %bb.557:                              # %if.then.i.i1298
	ld.d	$a1, $sp, 456
	addi.d	$a1, $a1, 1
	pcaddu18i	$ra, %call36(_ZdlPvm)
	jirl	$ra, $ra, 0
.LBB4_558:                              # %_ZNSt7__cxx1112basic_stringIcSt11char_traitsIcESaIcEED2Ev.exit1304
	ld.d	$a0, $sp, 192                   # 8-byte Folded Reload
	ld.bu	$a0, $a0, 65
	ori	$a1, $zero, 1
	bne	$a0, $a1, .LBB4_566
# %bb.559:                              # %if.then606
	pcalau12i	$a0, %pc_hi20(.L.str.14)
	addi.d	$a1, $a0, %pc_lo12(.L.str.14)
	addi.d	$a0, $sp, 408
	ld.d	$a2, $sp, 16                    # 8-byte Folded Reload
	pcaddu18i	$ra, %call36(_ZStplIcSt11char_traitsIcESaIcEENSt7__cxx1112basic_stringIT_T0_T1_EEPKS5_RKS8_)
	jirl	$ra, $ra, 0
.Ltmp252:                               # EH_LABEL
	addi.d	$a0, $sp, 440
	addi.d	$a1, $sp, 408
	move	$a2, $s2
	pcaddu18i	$ra, %call36(_ZStplIcSt11char_traitsIcESaIcEENSt7__cxx1112basic_stringIT_T0_T1_EEOS8_RKS8_)
	jirl	$ra, $ra, 0
.Ltmp253:                               # EH_LABEL
# %bb.560:                              # %invoke.cont610
	ld.d	$a1, $sp, 440
	ld.d	$a2, $sp, 448
.Ltmp255:                               # EH_LABEL
	pcalau12i	$a0, %got_pc_hi20(_ZSt4cout)
	ld.d	$a0, $a0, %got_pc_lo12(_ZSt4cout)
	pcaddu18i	$ra, %call36(_ZSt16__ostream_insertIcSt11char_traitsIcEERSt13basic_ostreamIT_T0_ES6_PKS3_l)
	jirl	$ra, $ra, 0
.Ltmp256:                               # EH_LABEL
# %bb.561:                              # %invoke.cont612
.Ltmp257:                               # EH_LABEL
	pcaddu18i	$ra, %call36(_ZNSo5flushEv)
	jirl	$ra, $ra, 0
.Ltmp258:                               # EH_LABEL
# %bb.562:                              # %invoke.cont614
	ld.d	$a0, $sp, 440
	addi.d	$a1, $sp, 456
	beq	$a0, $a1, .LBB4_564
# %bb.563:                              # %if.then.i.i1314
	ld.d	$a1, $sp, 456
	addi.d	$a1, $a1, 1
	pcaddu18i	$ra, %call36(_ZdlPvm)
	jirl	$ra, $ra, 0
.LBB4_564:                              # %_ZNSt7__cxx1112basic_stringIcSt11char_traitsIcESaIcEED2Ev.exit1320
	ld.d	$a0, $sp, 408
	addi.d	$a1, $sp, 424
	beq	$a0, $a1, .LBB4_566
# %bb.565:                              # %if.then.i.i1322
	ld.d	$a1, $sp, 424
	addi.d	$a1, $a1, 1
	pcaddu18i	$ra, %call36(_ZdlPvm)
	jirl	$ra, $ra, 0
.LBB4_566:                              # %if.end620
	ld.d	$a0, $s1, 0
	ld.d	$a3, $a0, 72
	pcalau12i	$a0, %got_pc_hi20(_ZN2kc24view_gen_yaccstacktype_hE)
	ld.d	$a2, $a0, %got_pc_lo12(_ZN2kc24view_gen_yaccstacktype_hE)
	move	$a0, $s1
