	.file	"rk.cc"
	.text
	.globl	_ZN2kc15impl_uniqID_Str7rewriteERNS_11rview_classE # -- Begin function _ZN2kc15impl_uniqID_Str7rewriteERNS_11rview_classE
	.p2align	2
	.type	_ZN2kc15impl_uniqID_Str7rewriteERNS_11rview_classE,@function
_ZN2kc15impl_uniqID_Str7rewriteERNS_11rview_classE: # @_ZN2kc15impl_uniqID_Str7rewriteERNS_11rview_classE
	.cfi_startproc
# %bb.0:                                # %entry
	addi.d	$sp, $sp, -32
	.cfi_def_cfa_offset 32
	st.d	$ra, $sp, 24                    # 8-byte Folded Spill
	st.d	$fp, $sp, 16                    # 8-byte Folded Spill
	st.d	$s0, $sp, 8                     # 8-byte Folded Spill
	.cfi_offset 1, -8
	.cfi_offset 22, -16
	.cfi_offset 23, -24
	move	$fp, $a0
	ld.d	$a0, $a0, 40
	ld.d	$a2, $a0, 0
	ld.d	$a2, $a2, 24
	jirl	$ra, $a2, 0
	ld.d	$a1, $fp, 40
	beq	$a0, $a1, .LBB0_2
# %bb.1:                                # %if.else
	pcaddu18i	$ra, %call36(_ZN2kc3StrEPNS_20impl_casestring__StrE)
	jirl	$ra, $ra, 0
	move	$s0, $a0
	ld.d	$a0, $a0, 0
	ld.d	$a2, $a0, 40
	move	$a0, $s0
	move	$a1, $fp
	jirl	$ra, $a2, 0
	move	$fp, $s0
.LBB0_2:                                # %cleanup
	move	$a0, $fp
	ld.d	$s0, $sp, 8                     # 8-byte Folded Reload
	ld.d	$fp, $sp, 16                    # 8-byte Folded Reload
	ld.d	$ra, $sp, 24                    # 8-byte Folded Reload
	addi.d	$sp, $sp, 32
	ret
.Lfunc_end0:
	.size	_ZN2kc15impl_uniqID_Str7rewriteERNS_11rview_classE, .Lfunc_end0-_ZN2kc15impl_uniqID_Str7rewriteERNS_11rview_classE
	.cfi_endproc
                                        # -- End function
	.globl	_ZN2kc10impl_ID_Id7rewriteERNS_11rview_classE # -- Begin function _ZN2kc10impl_ID_Id7rewriteERNS_11rview_classE
	.p2align	2
	.type	_ZN2kc10impl_ID_Id7rewriteERNS_11rview_classE,@function
_ZN2kc10impl_ID_Id7rewriteERNS_11rview_classE: # @_ZN2kc10impl_ID_Id7rewriteERNS_11rview_classE
	.cfi_startproc
# %bb.0:                                # %entry
	addi.d	$sp, $sp, -32
	.cfi_def_cfa_offset 32
	st.d	$ra, $sp, 24                    # 8-byte Folded Spill
	st.d	$fp, $sp, 16                    # 8-byte Folded Spill
	st.d	$s0, $sp, 8                     # 8-byte Folded Spill
	.cfi_offset 1, -8
	.cfi_offset 22, -16
	.cfi_offset 23, -24
	move	$fp, $a0
	ld.d	$a0, $a0, 40
	ld.d	$a2, $a0, 0
	ld.d	$a2, $a2, 24
	jirl	$ra, $a2, 0
	ld.d	$a1, $fp, 40
	beq	$a0, $a1, .LBB1_2
# %bb.1:                                # %if.else
	pcaddu18i	$ra, %call36(_ZN2kc2IdEPNS_11impl_uniqIDE)
	jirl	$ra, $ra, 0
	move	$s0, $a0
	ld.d	$a0, $a0, 0
	ld.d	$a2, $a0, 40
	move	$a0, $s0
	move	$a1, $fp
	jirl	$ra, $a2, 0
	move	$fp, $s0
.LBB1_2:                                # %cleanup
	move	$a0, $fp
	ld.d	$s0, $sp, 8                     # 8-byte Folded Reload
	ld.d	$fp, $sp, 16                    # 8-byte Folded Reload
	ld.d	$ra, $sp, 24                    # 8-byte Folded Reload
	addi.d	$sp, $sp, 32
	ret
.Lfunc_end1:
	.size	_ZN2kc10impl_ID_Id7rewriteERNS_11rview_classE, .Lfunc_end1-_ZN2kc10impl_ID_Id7rewriteERNS_11rview_classE
	.cfi_endproc
                                        # -- End function
	.globl	_ZN2kc12impl_INT_Int7rewriteERNS_11rview_classE # -- Begin function _ZN2kc12impl_INT_Int7rewriteERNS_11rview_classE
	.p2align	2
	.type	_ZN2kc12impl_INT_Int7rewriteERNS_11rview_classE,@function
_ZN2kc12impl_INT_Int7rewriteERNS_11rview_classE: # @_ZN2kc12impl_INT_Int7rewriteERNS_11rview_classE
	.cfi_startproc
# %bb.0:                                # %entry
	addi.d	$sp, $sp, -32
	.cfi_def_cfa_offset 32
	st.d	$ra, $sp, 24                    # 8-byte Folded Spill
	st.d	$fp, $sp, 16                    # 8-byte Folded Spill
	st.d	$s0, $sp, 8                     # 8-byte Folded Spill
	.cfi_offset 1, -8
	.cfi_offset 22, -16
	.cfi_offset 23, -24
	move	$fp, $a0
	ld.d	$a0, $a0, 24
	ld.d	$a2, $a0, 0
	ld.d	$a2, $a2, 24
	jirl	$ra, $a2, 0
	ld.d	$a1, $fp, 24
	beq	$a0, $a1, .LBB2_2
# %bb.1:                                # %if.else
	pcaddu18i	$ra, %call36(_ZN2kc3IntEPNS_17impl_integer__IntE)
	jirl	$ra, $ra, 0
	move	$s0, $a0
	ld.d	$a0, $a0, 0
	ld.d	$a2, $a0, 40
	move	$a0, $s0
	move	$a1, $fp
	jirl	$ra, $a2, 0
	move	$fp, $s0
.LBB2_2:                                # %cleanup
	move	$a0, $fp
	ld.d	$s0, $sp, 8                     # 8-byte Folded Reload
	ld.d	$fp, $sp, 16                    # 8-byte Folded Reload
	ld.d	$ra, $sp, 24                    # 8-byte Folded Reload
	addi.d	$sp, $sp, 32
	ret
.Lfunc_end2:
	.size	_ZN2kc12impl_INT_Int7rewriteERNS_11rview_classE, .Lfunc_end2-_ZN2kc12impl_INT_Int7rewriteERNS_11rview_classE
	.cfi_endproc
                                        # -- End function
	.globl	_ZN2kc18impl_STRING_String7rewriteERNS_11rview_classE # -- Begin function _ZN2kc18impl_STRING_String7rewriteERNS_11rview_classE
	.p2align	2
	.type	_ZN2kc18impl_STRING_String7rewriteERNS_11rview_classE,@function
_ZN2kc18impl_STRING_String7rewriteERNS_11rview_classE: # @_ZN2kc18impl_STRING_String7rewriteERNS_11rview_classE
	.cfi_startproc
# %bb.0:                                # %entry
	addi.d	$sp, $sp, -32
	.cfi_def_cfa_offset 32
	st.d	$ra, $sp, 24                    # 8-byte Folded Spill
	st.d	$fp, $sp, 16                    # 8-byte Folded Spill
	st.d	$s0, $sp, 8                     # 8-byte Folded Spill
	.cfi_offset 1, -8
	.cfi_offset 22, -16
	.cfi_offset 23, -24
	move	$fp, $a0
	ld.d	$a0, $a0, 24
	ld.d	$a2, $a0, 0
	ld.d	$a2, $a2, 24
	jirl	$ra, $a2, 0
	ld.d	$a1, $fp, 24
	beq	$a0, $a1, .LBB3_2
# %bb.1:                                # %if.else
	pcaddu18i	$ra, %call36(_ZN2kc6StringEPNS_20impl_casestring__StrE)
	jirl	$ra, $ra, 0
	move	$s0, $a0
	ld.d	$a0, $a0, 0
	ld.d	$a2, $a0, 40
	move	$a0, $s0
	move	$a1, $fp
	jirl	$ra, $a2, 0
	move	$fp, $s0
.LBB3_2:                                # %cleanup
	move	$a0, $fp
	ld.d	$s0, $sp, 8                     # 8-byte Folded Reload
	ld.d	$fp, $sp, 16                    # 8-byte Folded Reload
	ld.d	$ra, $sp, 24                    # 8-byte Folded Reload
	addi.d	$sp, $sp, 32
	ret
.Lfunc_end3:
	.size	_ZN2kc18impl_STRING_String7rewriteERNS_11rview_classE, .Lfunc_end3-_ZN2kc18impl_STRING_String7rewriteERNS_11rview_classE
	.cfi_endproc
                                        # -- End function
	.globl	_ZN2kc46impl_phylumdeclarationsroot_PhylumDeclarations7rewriteERNS_11rview_classE # -- Begin function _ZN2kc46impl_phylumdeclarationsroot_PhylumDeclarations7rewriteERNS_11rview_classE
	.p2align	2
	.type	_ZN2kc46impl_phylumdeclarationsroot_PhylumDeclarations7rewriteERNS_11rview_classE,@function
_ZN2kc46impl_phylumdeclarationsroot_PhylumDeclarations7rewriteERNS_11rview_classE: # @_ZN2kc46impl_phylumdeclarationsroot_PhylumDeclarations7rewriteERNS_11rview_classE
	.cfi_startproc
# %bb.0:                                # %entry
	addi.d	$sp, $sp, -32
	.cfi_def_cfa_offset 32
	st.d	$ra, $sp, 24                    # 8-byte Folded Spill
	st.d	$fp, $sp, 16                    # 8-byte Folded Spill
	st.d	$s0, $sp, 8                     # 8-byte Folded Spill
	.cfi_offset 1, -8
	.cfi_offset 22, -16
	.cfi_offset 23, -24
	move	$fp, $a0
	ld.d	$a0, $a0, 8
	ld.d	$a2, $a0, 0
	ld.d	$a2, $a2, 24
	jirl	$ra, $a2, 0
	ld.d	$a1, $fp, 8
	beq	$a0, $a1, .LBB4_2
# %bb.1:                                # %if.else
	pcaddu18i	$ra, %call36(_ZN2kc18PhylumDeclarationsEPNS_23impl_phylumdeclarationsE)
	jirl	$ra, $ra, 0
	move	$s0, $a0
	ld.d	$a0, $a0, 0
	ld.d	$a2, $a0, 40
	move	$a0, $s0
	move	$a1, $fp
	jirl	$ra, $a2, 0
	move	$fp, $s0
.LBB4_2:                                # %cleanup
	move	$a0, $fp
	ld.d	$s0, $sp, 8                     # 8-byte Folded Reload
	ld.d	$fp, $sp, 16                    # 8-byte Folded Reload
	ld.d	$ra, $sp, 24                    # 8-byte Folded Reload
	addi.d	$sp, $sp, 32
	ret
.Lfunc_end4:
	.size	_ZN2kc46impl_phylumdeclarationsroot_PhylumDeclarations7rewriteERNS_11rview_classE, .Lfunc_end4-_ZN2kc46impl_phylumdeclarationsroot_PhylumDeclarations7rewriteERNS_11rview_classE
	.cfi_endproc
                                        # -- End function
	.globl	_ZN2kc23impl_phylumdeclarations7rewriteERNS_11rview_classE # -- Begin function _ZN2kc23impl_phylumdeclarations7rewriteERNS_11rview_classE
	.p2align	2
	.type	_ZN2kc23impl_phylumdeclarations7rewriteERNS_11rview_classE,@function
_ZN2kc23impl_phylumdeclarations7rewriteERNS_11rview_classE: # @_ZN2kc23impl_phylumdeclarations7rewriteERNS_11rview_classE
	.cfi_startproc
# %bb.0:                                # %entry
	addi.d	$sp, $sp, -32
	.cfi_def_cfa_offset 32
	st.d	$ra, $sp, 24                    # 8-byte Folded Spill
	st.d	$fp, $sp, 16                    # 8-byte Folded Spill
	st.d	$s0, $sp, 8                     # 8-byte Folded Spill
	st.d	$s1, $sp, 0                     # 8-byte Folded Spill
	.cfi_offset 1, -8
	.cfi_offset 22, -16
	.cfi_offset 23, -24
	.cfi_offset 24, -32
	move	$fp, $a0
	ld.d	$a0, $a0, 0
	ld.d	$a2, $a0, 88
	move	$s0, $a1
	move	$a0, $fp
	jirl	$ra, $a2, 0
	bnez	$a0, .LBB5_4
# %bb.1:                                # %if.else
	ld.d	$a0, $fp, 8
	ld.d	$a1, $a0, 0
	ld.d	$a2, $a1, 24
	move	$a1, $s0
	jirl	$ra, $a2, 0
	ld.d	$a1, $fp, 16
	ld.d	$a2, $a1, 0
	ld.d	$a2, $a2, 24
	move	$s1, $a0
	move	$a0, $a1
	move	$a1, $s0
	jirl	$ra, $a2, 0
	ld.d	$a2, $fp, 8
	move	$a1, $a0
	bne	$s1, $a2, .LBB5_3
# %bb.2:                                # %if.else
	ld.d	$a2, $fp, 16
	beq	$a1, $a2, .LBB5_4
.LBB5_3:                                # %if.else12
	move	$a0, $s1
	pcaddu18i	$ra, %call36(_ZN2kc22ConsphylumdeclarationsEPNS_22impl_phylumdeclarationEPNS_23impl_phylumdeclarationsE)
	jirl	$ra, $ra, 0
	move	$s0, $a0
	ld.d	$a0, $a0, 0
	ld.d	$a2, $a0, 40
	move	$a0, $s0
	move	$a1, $fp
	jirl	$ra, $a2, 0
	move	$fp, $s0
.LBB5_4:                                # %return
	move	$a0, $fp
	ld.d	$s1, $sp, 0                     # 8-byte Folded Reload
	ld.d	$s0, $sp, 8                     # 8-byte Folded Reload
	ld.d	$fp, $sp, 16                    # 8-byte Folded Reload
	ld.d	$ra, $sp, 24                    # 8-byte Folded Reload
	addi.d	$sp, $sp, 32
	ret
.Lfunc_end5:
	.size	_ZN2kc23impl_phylumdeclarations7rewriteERNS_11rview_classE, .Lfunc_end5-_ZN2kc23impl_phylumdeclarations7rewriteERNS_11rview_classE
	.cfi_endproc
                                        # -- End function
	.globl	_ZN2kc16impl_phylumnames7rewriteERNS_11rview_classE # -- Begin function _ZN2kc16impl_phylumnames7rewriteERNS_11rview_classE
	.p2align	2
	.type	_ZN2kc16impl_phylumnames7rewriteERNS_11rview_classE,@function
_ZN2kc16impl_phylumnames7rewriteERNS_11rview_classE: # @_ZN2kc16impl_phylumnames7rewriteERNS_11rview_classE
	.cfi_startproc
# %bb.0:                                # %entry
	addi.d	$sp, $sp, -32
	.cfi_def_cfa_offset 32
	st.d	$ra, $sp, 24                    # 8-byte Folded Spill
	st.d	$fp, $sp, 16                    # 8-byte Folded Spill
	st.d	$s0, $sp, 8                     # 8-byte Folded Spill
	st.d	$s1, $sp, 0                     # 8-byte Folded Spill
	.cfi_offset 1, -8
	.cfi_offset 22, -16
	.cfi_offset 23, -24
	.cfi_offset 24, -32
	move	$fp, $a0
	ld.d	$a0, $a0, 0
	ld.d	$a2, $a0, 88
	move	$s0, $a1
	move	$a0, $fp
	jirl	$ra, $a2, 0
	bnez	$a0, .LBB6_4
# %bb.1:                                # %if.else
	ld.d	$a0, $fp, 8
	ld.d	$a1, $a0, 0
	ld.d	$a2, $a1, 24
	move	$a1, $s0
	jirl	$ra, $a2, 0
	ld.d	$a1, $fp, 16
	ld.d	$a2, $a1, 0
	ld.d	$a2, $a2, 24
	move	$s1, $a0
	move	$a0, $a1
	move	$a1, $s0
	jirl	$ra, $a2, 0
	ld.d	$a2, $fp, 8
	move	$a1, $a0
	bne	$s1, $a2, .LBB6_3
# %bb.2:                                # %if.else
	ld.d	$a2, $fp, 16
	beq	$a1, $a2, .LBB6_4
.LBB6_3:                                # %if.else12
	move	$a0, $s1
	pcaddu18i	$ra, %call36(_ZN2kc15ConsphylumnamesEPNS_7impl_IDEPNS_16impl_phylumnamesE)
	jirl	$ra, $ra, 0
	move	$s0, $a0
	ld.d	$a0, $a0, 0
	ld.d	$a2, $a0, 40
	move	$a0, $s0
	move	$a1, $fp
	jirl	$ra, $a2, 0
	move	$fp, $s0
.LBB6_4:                                # %return
	move	$a0, $fp
	ld.d	$s1, $sp, 0                     # 8-byte Folded Reload
	ld.d	$s0, $sp, 8                     # 8-byte Folded Reload
	ld.d	$fp, $sp, 16                    # 8-byte Folded Reload
	ld.d	$ra, $sp, 24                    # 8-byte Folded Reload
	addi.d	$sp, $sp, 32
	ret
.Lfunc_end6:
	.size	_ZN2kc16impl_phylumnames7rewriteERNS_11rview_classE, .Lfunc_end6-_ZN2kc16impl_phylumnames7rewriteERNS_11rview_classE
	.cfi_endproc
                                        # -- End function
	.globl	_ZN2kc40impl_phylumdeclaration_PhylumDeclaration7rewriteERNS_11rview_classE # -- Begin function _ZN2kc40impl_phylumdeclaration_PhylumDeclaration7rewriteERNS_11rview_classE
	.p2align	2
	.type	_ZN2kc40impl_phylumdeclaration_PhylumDeclaration7rewriteERNS_11rview_classE,@function
_ZN2kc40impl_phylumdeclaration_PhylumDeclaration7rewriteERNS_11rview_classE: # @_ZN2kc40impl_phylumdeclaration_PhylumDeclaration7rewriteERNS_11rview_classE
	.cfi_startproc
# %bb.0:                                # %entry
	addi.d	$sp, $sp, -48
	.cfi_def_cfa_offset 48
	st.d	$ra, $sp, 40                    # 8-byte Folded Spill
	st.d	$fp, $sp, 32                    # 8-byte Folded Spill
	st.d	$s0, $sp, 24                    # 8-byte Folded Spill
	st.d	$s1, $sp, 16                    # 8-byte Folded Spill
	st.d	$s2, $sp, 8                     # 8-byte Folded Spill
	st.d	$s3, $sp, 0                     # 8-byte Folded Spill
	.cfi_offset 1, -8
	.cfi_offset 22, -16
	.cfi_offset 23, -24
	.cfi_offset 24, -32
	.cfi_offset 25, -40
	.cfi_offset 26, -48
	move	$fp, $a0
	ld.d	$a0, $a0, 32
	ld.d	$a2, $a0, 0
	ld.d	$a2, $a2, 24
	move	$s2, $a1
	jirl	$ra, $a2, 0
	ld.d	$a1, $fp, 40
	ld.d	$a2, $a1, 0
	ld.d	$a2, $a2, 24
	move	$s3, $a0
	move	$a0, $a1
	move	$a1, $s2
	jirl	$ra, $a2, 0
	ld.d	$a1, $fp, 48
	ld.d	$a2, $a1, 0
	ld.d	$a2, $a2, 24
	move	$s0, $a0
	move	$a0, $a1
	move	$a1, $s2
	jirl	$ra, $a2, 0
	ld.d	$a1, $fp, 56
	ld.d	$a2, $a1, 0
	ld.d	$a2, $a2, 24
	move	$s1, $a0
	move	$a0, $a1
	move	$a1, $s2
	jirl	$ra, $a2, 0
	xvld	$xr0, $fp, 32
	xvinsgr2vr.d	$xr1, $s3, 0
	xvinsgr2vr.d	$xr1, $s0, 1
	xvinsgr2vr.d	$xr1, $s1, 2
	xvinsgr2vr.d	$xr1, $a0, 3
	xvseq.d	$xr0, $xr1, $xr0
	xvmskltz.d	$xr0, $xr0
	xvpickve2gr.wu	$a1, $xr0, 0
	xvpickve2gr.wu	$a2, $xr0, 4
	bstrins.d	$a1, $a2, 3, 2
	ori	$a2, $zero, 15
	beq	$a1, $a2, .LBB7_2
# %bb.1:                                # %if.else
	move	$a3, $a0
	move	$a0, $s3
	move	$a1, $s0
	move	$a2, $s1
	pcaddu18i	$ra, %call36(_ZN2kc17PhylumDeclarationEPNS_7impl_IDEPNS_18impl_storageoptionEPNS_20impl_productionblockEPNS_17impl_Ccode_optionE)
	jirl	$ra, $ra, 0
	move	$s0, $a0
	ld.d	$a0, $a0, 0
	ld.d	$a2, $a0, 40
	move	$a0, $s0
	move	$a1, $fp
	jirl	$ra, $a2, 0
	move	$fp, $s0
.LBB7_2:                                # %cleanup
	move	$a0, $fp
	ld.d	$s3, $sp, 0                     # 8-byte Folded Reload
	ld.d	$s2, $sp, 8                     # 8-byte Folded Reload
	ld.d	$s1, $sp, 16                    # 8-byte Folded Reload
	ld.d	$s0, $sp, 24                    # 8-byte Folded Reload
	ld.d	$fp, $sp, 32                    # 8-byte Folded Reload
	ld.d	$ra, $sp, 40                    # 8-byte Folded Reload
	addi.d	$sp, $sp, 48
	ret
.Lfunc_end7:
	.size	_ZN2kc40impl_phylumdeclaration_PhylumDeclaration7rewriteERNS_11rview_classE, .Lfunc_end7-_ZN2kc40impl_phylumdeclaration_PhylumDeclaration7rewriteERNS_11rview_classE
	.cfi_endproc
                                        # -- End function
	.globl	_ZN2kc40impl_storageoption_PositiveStorageOption7rewriteERNS_11rview_classE # -- Begin function _ZN2kc40impl_storageoption_PositiveStorageOption7rewriteERNS_11rview_classE
	.p2align	2
	.type	_ZN2kc40impl_storageoption_PositiveStorageOption7rewriteERNS_11rview_classE,@function
_ZN2kc40impl_storageoption_PositiveStorageOption7rewriteERNS_11rview_classE: # @_ZN2kc40impl_storageoption_PositiveStorageOption7rewriteERNS_11rview_classE
	.cfi_startproc
# %bb.0:                                # %entry
	addi.d	$sp, $sp, -32
	.cfi_def_cfa_offset 32
	st.d	$ra, $sp, 24                    # 8-byte Folded Spill
	st.d	$fp, $sp, 16                    # 8-byte Folded Spill
	st.d	$s0, $sp, 8                     # 8-byte Folded Spill
	.cfi_offset 1, -8
	.cfi_offset 22, -16
	.cfi_offset 23, -24
	move	$fp, $a0
	ld.d	$a0, $a0, 8
	ld.d	$a2, $a0, 0
	ld.d	$a2, $a2, 24
	jirl	$ra, $a2, 0
	ld.d	$a1, $fp, 8
	beq	$a0, $a1, .LBB8_2
# %bb.1:                                # %if.else
	pcaddu18i	$ra, %call36(_ZN2kc21PositiveStorageOptionEPNS_7impl_IDE)
	jirl	$ra, $ra, 0
	move	$s0, $a0
	ld.d	$a0, $a0, 0
	ld.d	$a2, $a0, 40
	move	$a0, $s0
	move	$a1, $fp
	jirl	$ra, $a2, 0
	move	$fp, $s0
.LBB8_2:                                # %cleanup
	move	$a0, $fp
	ld.d	$s0, $sp, 8                     # 8-byte Folded Reload
	ld.d	$fp, $sp, 16                    # 8-byte Folded Reload
	ld.d	$ra, $sp, 24                    # 8-byte Folded Reload
	addi.d	$sp, $sp, 32
	ret
.Lfunc_end8:
	.size	_ZN2kc40impl_storageoption_PositiveStorageOption7rewriteERNS_11rview_classE, .Lfunc_end8-_ZN2kc40impl_storageoption_PositiveStorageOption7rewriteERNS_11rview_classE
	.cfi_endproc
                                        # -- End function
	.globl	_ZN2kc40impl_storageoption_NegativeStorageOption7rewriteERNS_11rview_classE # -- Begin function _ZN2kc40impl_storageoption_NegativeStorageOption7rewriteERNS_11rview_classE
	.p2align	2
	.type	_ZN2kc40impl_storageoption_NegativeStorageOption7rewriteERNS_11rview_classE,@function
_ZN2kc40impl_storageoption_NegativeStorageOption7rewriteERNS_11rview_classE: # @_ZN2kc40impl_storageoption_NegativeStorageOption7rewriteERNS_11rview_classE
	.cfi_startproc
# %bb.0:                                # %entry
	addi.d	$sp, $sp, -32
	.cfi_def_cfa_offset 32
	st.d	$ra, $sp, 24                    # 8-byte Folded Spill
	st.d	$fp, $sp, 16                    # 8-byte Folded Spill
	st.d	$s0, $sp, 8                     # 8-byte Folded Spill
	.cfi_offset 1, -8
	.cfi_offset 22, -16
	.cfi_offset 23, -24
	move	$fp, $a0
	ld.d	$a0, $a0, 8
	ld.d	$a2, $a0, 0
	ld.d	$a2, $a2, 24
	jirl	$ra, $a2, 0
	ld.d	$a1, $fp, 8
	beq	$a0, $a1, .LBB9_2
# %bb.1:                                # %if.else
	pcaddu18i	$ra, %call36(_ZN2kc21NegativeStorageOptionEPNS_7impl_IDE)
	jirl	$ra, $ra, 0
	move	$s0, $a0
	ld.d	$a0, $a0, 0
	ld.d	$a2, $a0, 40
	move	$a0, $s0
	move	$a1, $fp
	jirl	$ra, $a2, 0
	move	$fp, $s0
.LBB9_2:                                # %cleanup
	move	$a0, $fp
	ld.d	$s0, $sp, 8                     # 8-byte Folded Reload
	ld.d	$fp, $sp, 16                    # 8-byte Folded Reload
	ld.d	$ra, $sp, 24                    # 8-byte Folded Reload
	addi.d	$sp, $sp, 32
	ret
.Lfunc_end9:
	.size	_ZN2kc40impl_storageoption_NegativeStorageOption7rewriteERNS_11rview_classE, .Lfunc_end9-_ZN2kc40impl_storageoption_NegativeStorageOption7rewriteERNS_11rview_classE
	.cfi_endproc
                                        # -- End function
	.globl	_ZN2kc34impl_storageoption_NoStorageOption7rewriteERNS_11rview_classE # -- Begin function _ZN2kc34impl_storageoption_NoStorageOption7rewriteERNS_11rview_classE
	.p2align	2
	.type	_ZN2kc34impl_storageoption_NoStorageOption7rewriteERNS_11rview_classE,@function
_ZN2kc34impl_storageoption_NoStorageOption7rewriteERNS_11rview_classE: # @_ZN2kc34impl_storageoption_NoStorageOption7rewriteERNS_11rview_classE
# %bb.0:                                # %entry
	ret
.Lfunc_end10:
	.size	_ZN2kc34impl_storageoption_NoStorageOption7rewriteERNS_11rview_classE, .Lfunc_end10-_ZN2kc34impl_storageoption_NoStorageOption7rewriteERNS_11rview_classE
                                        # -- End function
	.globl	_ZN2kc19impl_storageclasses7rewriteERNS_11rview_classE # -- Begin function _ZN2kc19impl_storageclasses7rewriteERNS_11rview_classE
	.p2align	2
	.type	_ZN2kc19impl_storageclasses7rewriteERNS_11rview_classE,@function
_ZN2kc19impl_storageclasses7rewriteERNS_11rview_classE: # @_ZN2kc19impl_storageclasses7rewriteERNS_11rview_classE
	.cfi_startproc
# %bb.0:                                # %entry
	addi.d	$sp, $sp, -32
	.cfi_def_cfa_offset 32
	st.d	$ra, $sp, 24                    # 8-byte Folded Spill
	st.d	$fp, $sp, 16                    # 8-byte Folded Spill
	st.d	$s0, $sp, 8                     # 8-byte Folded Spill
	st.d	$s1, $sp, 0                     # 8-byte Folded Spill
	.cfi_offset 1, -8
	.cfi_offset 22, -16
	.cfi_offset 23, -24
	.cfi_offset 24, -32
	move	$fp, $a0
	ld.d	$a0, $a0, 0
	ld.d	$a2, $a0, 88
	move	$s0, $a1
	move	$a0, $fp
	jirl	$ra, $a2, 0
	bnez	$a0, .LBB11_4
# %bb.1:                                # %if.else
	ld.d	$a0, $fp, 16
	ld.d	$a1, $a0, 0
	ld.d	$a2, $a1, 24
	move	$a1, $s0
	jirl	$ra, $a2, 0
	ld.d	$a1, $fp, 24
	ld.d	$a2, $a1, 0
	ld.d	$a2, $a2, 24
	move	$s1, $a0
	move	$a0, $a1
	move	$a1, $s0
	jirl	$ra, $a2, 0
	ld.d	$a2, $fp, 16
	move	$a1, $a0
	bne	$s1, $a2, .LBB11_3
# %bb.2:                                # %if.else
	ld.d	$a2, $fp, 24
	beq	$a1, $a2, .LBB11_4
.LBB11_3:                               # %if.else12
	move	$a0, $s1
	pcaddu18i	$ra, %call36(_ZN2kc18ConsstorageclassesEPNS_7impl_IDEPNS_19impl_storageclassesE)
	jirl	$ra, $ra, 0
	move	$s0, $a0
	ld.d	$a0, $a0, 0
	ld.d	$a2, $a0, 40
	move	$a0, $s0
	move	$a1, $fp
	jirl	$ra, $a2, 0
	move	$fp, $s0
.LBB11_4:                               # %return
	move	$a0, $fp
	ld.d	$s1, $sp, 0                     # 8-byte Folded Reload
	ld.d	$s0, $sp, 8                     # 8-byte Folded Reload
	ld.d	$fp, $sp, 16                    # 8-byte Folded Reload
	ld.d	$ra, $sp, 24                    # 8-byte Folded Reload
	addi.d	$sp, $sp, 32
	ret
.Lfunc_end11:
	.size	_ZN2kc19impl_storageclasses7rewriteERNS_11rview_classE, .Lfunc_end11-_ZN2kc19impl_storageclasses7rewriteERNS_11rview_classE
	.cfi_endproc
                                        # -- End function
	.globl	_ZN2kc43impl_productionblock_PredefinedAlternatives7rewriteERNS_11rview_classE # -- Begin function _ZN2kc43impl_productionblock_PredefinedAlternatives7rewriteERNS_11rview_classE
	.p2align	2
	.type	_ZN2kc43impl_productionblock_PredefinedAlternatives7rewriteERNS_11rview_classE,@function
_ZN2kc43impl_productionblock_PredefinedAlternatives7rewriteERNS_11rview_classE: # @_ZN2kc43impl_productionblock_PredefinedAlternatives7rewriteERNS_11rview_classE
	.cfi_startproc
# %bb.0:                                # %entry
	addi.d	$sp, $sp, -32
	.cfi_def_cfa_offset 32
	st.d	$ra, $sp, 24                    # 8-byte Folded Spill
	st.d	$fp, $sp, 16                    # 8-byte Folded Spill
	st.d	$s0, $sp, 8                     # 8-byte Folded Spill
	.cfi_offset 1, -8
	.cfi_offset 22, -16
	.cfi_offset 23, -24
	move	$fp, $a0
	ld.d	$a0, $a0, 8
	ld.d	$a2, $a0, 0
	ld.d	$a2, $a2, 24
	jirl	$ra, $a2, 0
	ld.d	$a1, $fp, 8
	beq	$a0, $a1, .LBB12_2
# %bb.1:                                # %if.else
	pcaddu18i	$ra, %call36(_ZN2kc22PredefinedAlternativesEPNS_17impl_alternativesE)
	jirl	$ra, $ra, 0
	move	$s0, $a0
	ld.d	$a0, $a0, 0
	ld.d	$a2, $a0, 40
	move	$a0, $s0
	move	$a1, $fp
	jirl	$ra, $a2, 0
	move	$fp, $s0
.LBB12_2:                               # %cleanup
	move	$a0, $fp
	ld.d	$s0, $sp, 8                     # 8-byte Folded Reload
	ld.d	$fp, $sp, 16                    # 8-byte Folded Reload
	ld.d	$ra, $sp, 24                    # 8-byte Folded Reload
	addi.d	$sp, $sp, 32
	ret
.Lfunc_end12:
	.size	_ZN2kc43impl_productionblock_PredefinedAlternatives7rewriteERNS_11rview_classE, .Lfunc_end12-_ZN2kc43impl_productionblock_PredefinedAlternatives7rewriteERNS_11rview_classE
	.cfi_endproc
                                        # -- End function
	.globl	_ZN2kc40impl_productionblock_NonlistAlternatives7rewriteERNS_11rview_classE # -- Begin function _ZN2kc40impl_productionblock_NonlistAlternatives7rewriteERNS_11rview_classE
	.p2align	2
	.type	_ZN2kc40impl_productionblock_NonlistAlternatives7rewriteERNS_11rview_classE,@function
_ZN2kc40impl_productionblock_NonlistAlternatives7rewriteERNS_11rview_classE: # @_ZN2kc40impl_productionblock_NonlistAlternatives7rewriteERNS_11rview_classE
	.cfi_startproc
# %bb.0:                                # %entry
	addi.d	$sp, $sp, -32
	.cfi_def_cfa_offset 32
	st.d	$ra, $sp, 24                    # 8-byte Folded Spill
	st.d	$fp, $sp, 16                    # 8-byte Folded Spill
	st.d	$s0, $sp, 8                     # 8-byte Folded Spill
	.cfi_offset 1, -8
	.cfi_offset 22, -16
	.cfi_offset 23, -24
	move	$fp, $a0
	ld.d	$a0, $a0, 8
	ld.d	$a2, $a0, 0
	ld.d	$a2, $a2, 24
	jirl	$ra, $a2, 0
	ld.d	$a1, $fp, 8
	beq	$a0, $a1, .LBB13_2
# %bb.1:                                # %if.else
	pcaddu18i	$ra, %call36(_ZN2kc19NonlistAlternativesEPNS_17impl_alternativesE)
	jirl	$ra, $ra, 0
	move	$s0, $a0
	ld.d	$a0, $a0, 0
	ld.d	$a2, $a0, 40
	move	$a0, $s0
	move	$a1, $fp
	jirl	$ra, $a2, 0
	move	$fp, $s0
.LBB13_2:                               # %cleanup
	move	$a0, $fp
	ld.d	$s0, $sp, 8                     # 8-byte Folded Reload
	ld.d	$fp, $sp, 16                    # 8-byte Folded Reload
	ld.d	$ra, $sp, 24                    # 8-byte Folded Reload
	addi.d	$sp, $sp, 32
	ret
.Lfunc_end13:
	.size	_ZN2kc40impl_productionblock_NonlistAlternatives7rewriteERNS_11rview_classE, .Lfunc_end13-_ZN2kc40impl_productionblock_NonlistAlternatives7rewriteERNS_11rview_classE
	.cfi_endproc
                                        # -- End function
	.globl	_ZN2kc37impl_productionblock_ListAlternatives7rewriteERNS_11rview_classE # -- Begin function _ZN2kc37impl_productionblock_ListAlternatives7rewriteERNS_11rview_classE
	.p2align	2
	.type	_ZN2kc37impl_productionblock_ListAlternatives7rewriteERNS_11rview_classE,@function
_ZN2kc37impl_productionblock_ListAlternatives7rewriteERNS_11rview_classE: # @_ZN2kc37impl_productionblock_ListAlternatives7rewriteERNS_11rview_classE
	.cfi_startproc
# %bb.0:                                # %entry
	addi.d	$sp, $sp, -32
	.cfi_def_cfa_offset 32
	st.d	$ra, $sp, 24                    # 8-byte Folded Spill
	st.d	$fp, $sp, 16                    # 8-byte Folded Spill
	st.d	$s0, $sp, 8                     # 8-byte Folded Spill
	st.d	$s1, $sp, 0                     # 8-byte Folded Spill
	.cfi_offset 1, -8
	.cfi_offset 22, -16
	.cfi_offset 23, -24
	.cfi_offset 24, -32
	move	$fp, $a0
	ld.d	$a0, $a0, 8
	ld.d	$a2, $a0, 0
	ld.d	$a2, $a2, 24
	move	$s0, $a1
	jirl	$ra, $a2, 0
	ld.d	$a1, $fp, 16
	ld.d	$a2, $a1, 0
	ld.d	$a2, $a2, 24
	move	$s1, $a0
	move	$a0, $a1
	move	$a1, $s0
	jirl	$ra, $a2, 0
	ld.d	$a2, $fp, 8
	move	$a1, $a0
	bne	$s1, $a2, .LBB14_2
# %bb.1:                                # %entry
	ld.d	$a2, $fp, 16
	beq	$a1, $a2, .LBB14_3
.LBB14_2:                               # %if.else
	move	$a0, $s1
	pcaddu18i	$ra, %call36(_ZN2kc16ListAlternativesEPNS_17impl_alternativesEPNS_7impl_IDE)
	jirl	$ra, $ra, 0
	move	$s0, $a0
	ld.d	$a0, $a0, 0
	ld.d	$a2, $a0, 40
	move	$a0, $s0
	move	$a1, $fp
	jirl	$ra, $a2, 0
	move	$fp, $s0
.LBB14_3:                               # %cleanup
	move	$a0, $fp
	ld.d	$s1, $sp, 0                     # 8-byte Folded Reload
	ld.d	$s0, $sp, 8                     # 8-byte Folded Reload
	ld.d	$fp, $sp, 16                    # 8-byte Folded Reload
	ld.d	$ra, $sp, 24                    # 8-byte Folded Reload
	addi.d	$sp, $sp, 32
	ret
.Lfunc_end14:
	.size	_ZN2kc37impl_productionblock_ListAlternatives7rewriteERNS_11rview_classE, .Lfunc_end14-_ZN2kc37impl_productionblock_ListAlternatives7rewriteERNS_11rview_classE
	.cfi_endproc
                                        # -- End function
	.globl	_ZN2kc41impl_productionblock_Emptyproductionblock7rewriteERNS_11rview_classE # -- Begin function _ZN2kc41impl_productionblock_Emptyproductionblock7rewriteERNS_11rview_classE
	.p2align	2
	.type	_ZN2kc41impl_productionblock_Emptyproductionblock7rewriteERNS_11rview_classE,@function
_ZN2kc41impl_productionblock_Emptyproductionblock7rewriteERNS_11rview_classE: # @_ZN2kc41impl_productionblock_Emptyproductionblock7rewriteERNS_11rview_classE
# %bb.0:                                # %entry
	ret
.Lfunc_end15:
	.size	_ZN2kc41impl_productionblock_Emptyproductionblock7rewriteERNS_11rview_classE, .Lfunc_end15-_ZN2kc41impl_productionblock_Emptyproductionblock7rewriteERNS_11rview_classE
                                        # -- End function
	.globl	_ZN2kc17impl_alternatives7rewriteERNS_11rview_classE # -- Begin function _ZN2kc17impl_alternatives7rewriteERNS_11rview_classE
	.p2align	2
	.type	_ZN2kc17impl_alternatives7rewriteERNS_11rview_classE,@function
_ZN2kc17impl_alternatives7rewriteERNS_11rview_classE: # @_ZN2kc17impl_alternatives7rewriteERNS_11rview_classE
	.cfi_startproc
# %bb.0:                                # %entry
	addi.d	$sp, $sp, -32
	.cfi_def_cfa_offset 32
	st.d	$ra, $sp, 24                    # 8-byte Folded Spill
	st.d	$fp, $sp, 16                    # 8-byte Folded Spill
	st.d	$s0, $sp, 8                     # 8-byte Folded Spill
	st.d	$s1, $sp, 0                     # 8-byte Folded Spill
	.cfi_offset 1, -8
	.cfi_offset 22, -16
	.cfi_offset 23, -24
	.cfi_offset 24, -32
	move	$fp, $a0
	ld.d	$a0, $a0, 0
	ld.d	$a2, $a0, 88
	move	$s0, $a1
	move	$a0, $fp
	jirl	$ra, $a2, 0
	bnez	$a0, .LBB16_4
# %bb.1:                                # %if.else
	ld.d	$a0, $fp, 8
	ld.d	$a1, $a0, 0
	ld.d	$a2, $a1, 24
	move	$a1, $s0
	jirl	$ra, $a2, 0
	ld.d	$a1, $fp, 16
	ld.d	$a2, $a1, 0
	ld.d	$a2, $a2, 24
	move	$s1, $a0
	move	$a0, $a1
	move	$a1, $s0
	jirl	$ra, $a2, 0
	ld.d	$a2, $fp, 8
	move	$a1, $a0
	bne	$s1, $a2, .LBB16_3
# %bb.2:                                # %if.else
	ld.d	$a2, $fp, 16
	beq	$a1, $a2, .LBB16_4
.LBB16_3:                               # %if.else12
	move	$a0, $s1
	pcaddu18i	$ra, %call36(_ZN2kc16ConsalternativesEPNS_16impl_alternativeEPNS_17impl_alternativesE)
	jirl	$ra, $ra, 0
	move	$s0, $a0
	ld.d	$a0, $a0, 0
	ld.d	$a2, $a0, 40
	move	$a0, $s0
	move	$a1, $fp
	jirl	$ra, $a2, 0
	move	$fp, $s0
.LBB16_4:                               # %return
	move	$a0, $fp
	ld.d	$s1, $sp, 0                     # 8-byte Folded Reload
	ld.d	$s0, $sp, 8                     # 8-byte Folded Reload
	ld.d	$fp, $sp, 16                    # 8-byte Folded Reload
	ld.d	$ra, $sp, 24                    # 8-byte Folded Reload
	addi.d	$sp, $sp, 32
	ret
.Lfunc_end16:
	.size	_ZN2kc17impl_alternatives7rewriteERNS_11rview_classE, .Lfunc_end16-_ZN2kc17impl_alternatives7rewriteERNS_11rview_classE
	.cfi_endproc
                                        # -- End function
	.globl	_ZN2kc28impl_alternative_Alternative7rewriteERNS_11rview_classE # -- Begin function _ZN2kc28impl_alternative_Alternative7rewriteERNS_11rview_classE
	.p2align	2
	.type	_ZN2kc28impl_alternative_Alternative7rewriteERNS_11rview_classE,@function
_ZN2kc28impl_alternative_Alternative7rewriteERNS_11rview_classE: # @_ZN2kc28impl_alternative_Alternative7rewriteERNS_11rview_classE
	.cfi_startproc
# %bb.0:                                # %entry
	addi.d	$sp, $sp, -32
	.cfi_def_cfa_offset 32
	st.d	$ra, $sp, 24                    # 8-byte Folded Spill
	st.d	$fp, $sp, 16                    # 8-byte Folded Spill
	st.d	$s0, $sp, 8                     # 8-byte Folded Spill
	st.d	$s1, $sp, 0                     # 8-byte Folded Spill
	.cfi_offset 1, -8
	.cfi_offset 22, -16
	.cfi_offset 23, -24
	.cfi_offset 24, -32
	move	$fp, $a0
	ld.d	$a0, $a0, 40
	ld.d	$a2, $a0, 0
	ld.d	$a2, $a2, 24
	move	$s0, $a1
	jirl	$ra, $a2, 0
	ld.d	$a1, $fp, 48
	ld.d	$a2, $a1, 0
	ld.d	$a2, $a2, 24
	move	$s1, $a0
	move	$a0, $a1
	move	$a1, $s0
	jirl	$ra, $a2, 0
	ld.d	$a2, $fp, 40
	move	$a1, $a0
	bne	$s1, $a2, .LBB17_2
# %bb.1:                                # %entry
	ld.d	$a2, $fp, 48
	beq	$a1, $a2, .LBB17_3
.LBB17_2:                               # %if.else
	move	$a0, $s1
	pcaddu18i	$ra, %call36(_ZN2kc11AlternativeEPNS_7impl_IDEPNS_14impl_argumentsE)
	jirl	$ra, $ra, 0
	move	$s0, $a0
	ld.d	$a0, $a0, 0
	ld.d	$a2, $a0, 40
	move	$a0, $s0
	move	$a1, $fp
	jirl	$ra, $a2, 0
	move	$fp, $s0
.LBB17_3:                               # %cleanup
	move	$a0, $fp
	ld.d	$s1, $sp, 0                     # 8-byte Folded Reload
	ld.d	$s0, $sp, 8                     # 8-byte Folded Reload
	ld.d	$fp, $sp, 16                    # 8-byte Folded Reload
	ld.d	$ra, $sp, 24                    # 8-byte Folded Reload
	addi.d	$sp, $sp, 32
	ret
.Lfunc_end17:
	.size	_ZN2kc28impl_alternative_Alternative7rewriteERNS_11rview_classE, .Lfunc_end17-_ZN2kc28impl_alternative_Alternative7rewriteERNS_11rview_classE
	.cfi_endproc
                                        # -- End function
	.globl	_ZN2kc14impl_arguments7rewriteERNS_11rview_classE # -- Begin function _ZN2kc14impl_arguments7rewriteERNS_11rview_classE
	.p2align	2
	.type	_ZN2kc14impl_arguments7rewriteERNS_11rview_classE,@function
_ZN2kc14impl_arguments7rewriteERNS_11rview_classE: # @_ZN2kc14impl_arguments7rewriteERNS_11rview_classE
	.cfi_startproc
# %bb.0:                                # %entry
	addi.d	$sp, $sp, -32
	.cfi_def_cfa_offset 32
	st.d	$ra, $sp, 24                    # 8-byte Folded Spill
	st.d	$fp, $sp, 16                    # 8-byte Folded Spill
	st.d	$s0, $sp, 8                     # 8-byte Folded Spill
	st.d	$s1, $sp, 0                     # 8-byte Folded Spill
	.cfi_offset 1, -8
	.cfi_offset 22, -16
	.cfi_offset 23, -24
	.cfi_offset 24, -32
	move	$fp, $a0
	ld.d	$a0, $a0, 0
	ld.d	$a2, $a0, 88
	move	$s0, $a1
	move	$a0, $fp
	jirl	$ra, $a2, 0
	bnez	$a0, .LBB18_4
# %bb.1:                                # %if.else
	ld.d	$a0, $fp, 16
	ld.d	$a1, $a0, 0
	ld.d	$a2, $a1, 24
	move	$a1, $s0
	jirl	$ra, $a2, 0
	ld.d	$a1, $fp, 24
	ld.d	$a2, $a1, 0
	ld.d	$a2, $a2, 24
	move	$s1, $a0
	move	$a0, $a1
	move	$a1, $s0
	jirl	$ra, $a2, 0
	ld.d	$a2, $fp, 16
	move	$a1, $a0
	bne	$s1, $a2, .LBB18_3
# %bb.2:                                # %if.else
	ld.d	$a2, $fp, 24
	beq	$a1, $a2, .LBB18_4
.LBB18_3:                               # %if.else12
	move	$a0, $s1
	pcaddu18i	$ra, %call36(_ZN2kc13ConsargumentsEPNS_7impl_IDEPNS_14impl_argumentsE)
	jirl	$ra, $ra, 0
	move	$s0, $a0
	ld.d	$a0, $a0, 0
	ld.d	$a2, $a0, 40
	move	$a0, $s0
	move	$a1, $fp
	jirl	$ra, $a2, 0
	move	$fp, $s0
.LBB18_4:                               # %return
	move	$a0, $fp
	ld.d	$s1, $sp, 0                     # 8-byte Folded Reload
	ld.d	$s0, $sp, 8                     # 8-byte Folded Reload
	ld.d	$fp, $sp, 16                    # 8-byte Folded Reload
	ld.d	$ra, $sp, 24                    # 8-byte Folded Reload
	addi.d	$sp, $sp, 32
	ret
.Lfunc_end18:
	.size	_ZN2kc14impl_arguments7rewriteERNS_11rview_classE, .Lfunc_end18-_ZN2kc14impl_arguments7rewriteERNS_11rview_classE
	.cfi_endproc
                                        # -- End function
	.globl	_ZN2kc22impl_argument_Argument7rewriteERNS_11rview_classE # -- Begin function _ZN2kc22impl_argument_Argument7rewriteERNS_11rview_classE
	.p2align	2
	.type	_ZN2kc22impl_argument_Argument7rewriteERNS_11rview_classE,@function
_ZN2kc22impl_argument_Argument7rewriteERNS_11rview_classE: # @_ZN2kc22impl_argument_Argument7rewriteERNS_11rview_classE
	.cfi_startproc
# %bb.0:                                # %entry
	addi.d	$sp, $sp, -32
	.cfi_def_cfa_offset 32
	st.d	$ra, $sp, 24                    # 8-byte Folded Spill
	st.d	$fp, $sp, 16                    # 8-byte Folded Spill
	st.d	$s0, $sp, 8                     # 8-byte Folded Spill
	st.d	$s1, $sp, 0                     # 8-byte Folded Spill
	.cfi_offset 1, -8
	.cfi_offset 22, -16
	.cfi_offset 23, -24
	.cfi_offset 24, -32
	move	$fp, $a0
	ld.d	$a0, $a0, 8
	ld.d	$a2, $a0, 0
	ld.d	$a2, $a2, 24
	move	$s0, $a1
	jirl	$ra, $a2, 0
	ld.d	$a1, $fp, 16
	ld.d	$a2, $a1, 0
	ld.d	$a2, $a2, 24
	move	$s1, $a0
	move	$a0, $a1
	move	$a1, $s0
	jirl	$ra, $a2, 0
	ld.d	$a2, $fp, 8
	move	$a1, $a0
	bne	$s1, $a2, .LBB19_2
# %bb.1:                                # %entry
	ld.d	$a2, $fp, 16
	beq	$a1, $a2, .LBB19_3
.LBB19_2:                               # %if.else
	move	$a0, $s1
	pcaddu18i	$ra, %call36(_ZN2kc8ArgumentEPNS_7impl_IDEPNS_17impl_integer__IntE)
	jirl	$ra, $ra, 0
	move	$s0, $a0
	ld.d	$a0, $a0, 0
	ld.d	$a2, $a0, 40
	move	$a0, $s0
	move	$a1, $fp
	jirl	$ra, $a2, 0
	move	$fp, $s0
.LBB19_3:                               # %cleanup
	move	$a0, $fp
	ld.d	$s1, $sp, 0                     # 8-byte Folded Reload
	ld.d	$s0, $sp, 8                     # 8-byte Folded Reload
	ld.d	$fp, $sp, 16                    # 8-byte Folded Reload
	ld.d	$ra, $sp, 24                    # 8-byte Folded Reload
	addi.d	$sp, $sp, 32
	ret
.Lfunc_end19:
	.size	_ZN2kc22impl_argument_Argument7rewriteERNS_11rview_classE, .Lfunc_end19-_ZN2kc22impl_argument_Argument7rewriteERNS_11rview_classE
	.cfi_endproc
                                        # -- End function
	.globl	_ZN2kc29impl_Ccode_option_CcodeOption7rewriteERNS_11rview_classE # -- Begin function _ZN2kc29impl_Ccode_option_CcodeOption7rewriteERNS_11rview_classE
	.p2align	2
	.type	_ZN2kc29impl_Ccode_option_CcodeOption7rewriteERNS_11rview_classE,@function
_ZN2kc29impl_Ccode_option_CcodeOption7rewriteERNS_11rview_classE: # @_ZN2kc29impl_Ccode_option_CcodeOption7rewriteERNS_11rview_classE
	.cfi_startproc
# %bb.0:                                # %entry
	addi.d	$sp, $sp, -32
	.cfi_def_cfa_offset 32
	st.d	$ra, $sp, 24                    # 8-byte Folded Spill
	st.d	$fp, $sp, 16                    # 8-byte Folded Spill
	st.d	$s0, $sp, 8                     # 8-byte Folded Spill
	st.d	$s1, $sp, 0                     # 8-byte Folded Spill
	.cfi_offset 1, -8
	.cfi_offset 22, -16
	.cfi_offset 23, -24
	.cfi_offset 24, -32
	move	$fp, $a0
	ld.d	$a0, $a0, 8
	ld.d	$a2, $a0, 0
	ld.d	$a2, $a2, 24
	move	$s0, $a1
	jirl	$ra, $a2, 0
	ld.d	$a1, $fp, 16
	ld.d	$a2, $a1, 0
	ld.d	$a2, $a2, 24
	move	$s1, $a0
	move	$a0, $a1
	move	$a1, $s0
	jirl	$ra, $a2, 0
	ld.d	$a2, $fp, 8
	move	$a1, $a0
	bne	$s1, $a2, .LBB20_2
# %bb.1:                                # %entry
	ld.d	$a2, $fp, 16
	beq	$a1, $a2, .LBB20_3
.LBB20_2:                               # %if.else
	move	$a0, $s1
	pcaddu18i	$ra, %call36(_ZN2kc11CcodeOptionEPNS_15impl_attributesEPNS_11impl_CtextsE)
	jirl	$ra, $ra, 0
	move	$s0, $a0
	ld.d	$a0, $a0, 0
	ld.d	$a2, $a0, 40
	move	$a0, $s0
	move	$a1, $fp
	jirl	$ra, $a2, 0
	move	$fp, $s0
.LBB20_3:                               # %cleanup
	move	$a0, $fp
	ld.d	$s1, $sp, 0                     # 8-byte Folded Reload
	ld.d	$s0, $sp, 8                     # 8-byte Folded Reload
	ld.d	$fp, $sp, 16                    # 8-byte Folded Reload
	ld.d	$ra, $sp, 24                    # 8-byte Folded Reload
	addi.d	$sp, $sp, 32
	ret
.Lfunc_end20:
	.size	_ZN2kc29impl_Ccode_option_CcodeOption7rewriteERNS_11rview_classE, .Lfunc_end20-_ZN2kc29impl_Ccode_option_CcodeOption7rewriteERNS_11rview_classE
	.cfi_endproc
                                        # -- End function
	.globl	_ZN2kc15impl_attributes7rewriteERNS_11rview_classE # -- Begin function _ZN2kc15impl_attributes7rewriteERNS_11rview_classE
	.p2align	2
	.type	_ZN2kc15impl_attributes7rewriteERNS_11rview_classE,@function
_ZN2kc15impl_attributes7rewriteERNS_11rview_classE: # @_ZN2kc15impl_attributes7rewriteERNS_11rview_classE
	.cfi_startproc
# %bb.0:                                # %entry
	addi.d	$sp, $sp, -32
	.cfi_def_cfa_offset 32
	st.d	$ra, $sp, 24                    # 8-byte Folded Spill
	st.d	$fp, $sp, 16                    # 8-byte Folded Spill
	st.d	$s0, $sp, 8                     # 8-byte Folded Spill
	st.d	$s1, $sp, 0                     # 8-byte Folded Spill
	.cfi_offset 1, -8
	.cfi_offset 22, -16
	.cfi_offset 23, -24
	.cfi_offset 24, -32
	move	$fp, $a0
	ld.d	$a0, $a0, 0
	ld.d	$a2, $a0, 88
	move	$s0, $a1
	move	$a0, $fp
	jirl	$ra, $a2, 0
	bnez	$a0, .LBB21_4
# %bb.1:                                # %if.else
	ld.d	$a0, $fp, 8
	ld.d	$a1, $a0, 0
	ld.d	$a2, $a1, 24
	move	$a1, $s0
	jirl	$ra, $a2, 0
	ld.d	$a1, $fp, 16
	ld.d	$a2, $a1, 0
	ld.d	$a2, $a2, 24
	move	$s1, $a0
	move	$a0, $a1
	move	$a1, $s0
	jirl	$ra, $a2, 0
	ld.d	$a2, $fp, 8
	move	$a1, $a0
	bne	$s1, $a2, .LBB21_3
# %bb.2:                                # %if.else
	ld.d	$a2, $fp, 16
	beq	$a1, $a2, .LBB21_4
.LBB21_3:                               # %if.else12
	move	$a0, $s1
	pcaddu18i	$ra, %call36(_ZN2kc14ConsattributesEPNS_14impl_attributeEPNS_15impl_attributesE)
	jirl	$ra, $ra, 0
	move	$s0, $a0
	ld.d	$a0, $a0, 0
	ld.d	$a2, $a0, 40
	move	$a0, $s0
	move	$a1, $fp
	jirl	$ra, $a2, 0
	move	$fp, $s0
.LBB21_4:                               # %return
	move	$a0, $fp
	ld.d	$s1, $sp, 0                     # 8-byte Folded Reload
	ld.d	$s0, $sp, 8                     # 8-byte Folded Reload
	ld.d	$fp, $sp, 16                    # 8-byte Folded Reload
	ld.d	$ra, $sp, 24                    # 8-byte Folded Reload
	addi.d	$sp, $sp, 32
	ret
.Lfunc_end21:
	.size	_ZN2kc15impl_attributes7rewriteERNS_11rview_classE, .Lfunc_end21-_ZN2kc15impl_attributes7rewriteERNS_11rview_classE
	.cfi_endproc
                                        # -- End function
	.globl	_ZN2kc24impl_attribute_Attribute7rewriteERNS_11rview_classE # -- Begin function _ZN2kc24impl_attribute_Attribute7rewriteERNS_11rview_classE
	.p2align	2
	.type	_ZN2kc24impl_attribute_Attribute7rewriteERNS_11rview_classE,@function
_ZN2kc24impl_attribute_Attribute7rewriteERNS_11rview_classE: # @_ZN2kc24impl_attribute_Attribute7rewriteERNS_11rview_classE
	.cfi_startproc
# %bb.0:                                # %entry
	addi.d	$sp, $sp, -48
	.cfi_def_cfa_offset 48
	st.d	$ra, $sp, 40                    # 8-byte Folded Spill
	st.d	$fp, $sp, 32                    # 8-byte Folded Spill
	st.d	$s0, $sp, 24                    # 8-byte Folded Spill
	st.d	$s1, $sp, 16                    # 8-byte Folded Spill
	st.d	$s2, $sp, 8                     # 8-byte Folded Spill
	.cfi_offset 1, -8
	.cfi_offset 22, -16
	.cfi_offset 23, -24
	.cfi_offset 24, -32
	.cfi_offset 25, -40
	move	$fp, $a0
	ld.d	$a0, $a0, 8
	ld.d	$a2, $a0, 0
	ld.d	$a2, $a2, 24
	move	$s1, $a1
	jirl	$ra, $a2, 0
	ld.d	$a1, $fp, 16
	ld.d	$a2, $a1, 0
	ld.d	$a2, $a2, 24
	move	$s2, $a0
	move	$a0, $a1
	move	$a1, $s1
	jirl	$ra, $a2, 0
	ld.d	$a1, $fp, 24
	ld.d	$a2, $a1, 0
	ld.d	$a2, $a2, 24
	move	$s0, $a0
	move	$a0, $a1
	move	$a1, $s1
	jirl	$ra, $a2, 0
	ld.d	$a1, $fp, 8
	move	$a2, $a0
	bne	$s2, $a1, .LBB22_3
# %bb.1:                                # %entry
	ld.d	$a1, $fp, 16
	bne	$s0, $a1, .LBB22_3
# %bb.2:                                # %entry
	ld.d	$a1, $fp, 24
	beq	$a2, $a1, .LBB22_4
.LBB22_3:                               # %if.else
	move	$a0, $s2
	move	$a1, $s0
	pcaddu18i	$ra, %call36(_ZN2kc9AttributeEPNS_7impl_IDES1_PNS_36impl_attribute_initialisation_optionE)
	jirl	$ra, $ra, 0
	move	$s0, $a0
	ld.d	$a0, $a0, 0
	ld.d	$a2, $a0, 40
	move	$a0, $s0
	move	$a1, $fp
	jirl	$ra, $a2, 0
	move	$fp, $s0
.LBB22_4:                               # %cleanup
	move	$a0, $fp
	ld.d	$s2, $sp, 8                     # 8-byte Folded Reload
	ld.d	$s1, $sp, 16                    # 8-byte Folded Reload
	ld.d	$s0, $sp, 24                    # 8-byte Folded Reload
	ld.d	$fp, $sp, 32                    # 8-byte Folded Reload
	ld.d	$ra, $sp, 40                    # 8-byte Folded Reload
	addi.d	$sp, $sp, 48
	ret
.Lfunc_end22:
	.size	_ZN2kc24impl_attribute_Attribute7rewriteERNS_11rview_classE, .Lfunc_end22-_ZN2kc24impl_attribute_Attribute7rewriteERNS_11rview_classE
	.cfi_endproc
                                        # -- End function
	.globl	_ZN2kc64impl_attribute_initialisation_option_Yesattribute_initialisation7rewriteERNS_11rview_classE # -- Begin function _ZN2kc64impl_attribute_initialisation_option_Yesattribute_initialisation7rewriteERNS_11rview_classE
	.p2align	2
	.type	_ZN2kc64impl_attribute_initialisation_option_Yesattribute_initialisation7rewriteERNS_11rview_classE,@function
_ZN2kc64impl_attribute_initialisation_option_Yesattribute_initialisation7rewriteERNS_11rview_classE: # @_ZN2kc64impl_attribute_initialisation_option_Yesattribute_initialisation7rewriteERNS_11rview_classE
	.cfi_startproc
# %bb.0:                                # %entry
	addi.d	$sp, $sp, -32
	.cfi_def_cfa_offset 32
	st.d	$ra, $sp, 24                    # 8-byte Folded Spill
	st.d	$fp, $sp, 16                    # 8-byte Folded Spill
	st.d	$s0, $sp, 8                     # 8-byte Folded Spill
	.cfi_offset 1, -8
	.cfi_offset 22, -16
	.cfi_offset 23, -24
	move	$fp, $a0
	ld.d	$a0, $a0, 8
	ld.d	$a2, $a0, 0
	ld.d	$a2, $a2, 24
	jirl	$ra, $a2, 0
	ld.d	$a1, $fp, 8
	beq	$a0, $a1, .LBB23_2
# %bb.1:                                # %if.else
	pcaddu18i	$ra, %call36(_ZN2kc27Yesattribute_initialisationEPNS_16impl_CexpressionE)
	jirl	$ra, $ra, 0
	move	$s0, $a0
	ld.d	$a0, $a0, 0
	ld.d	$a2, $a0, 40
	move	$a0, $s0
	move	$a1, $fp
	jirl	$ra, $a2, 0
	move	$fp, $s0
.LBB23_2:                               # %cleanup
	move	$a0, $fp
	ld.d	$s0, $sp, 8                     # 8-byte Folded Reload
	ld.d	$fp, $sp, 16                    # 8-byte Folded Reload
	ld.d	$ra, $sp, 24                    # 8-byte Folded Reload
	addi.d	$sp, $sp, 32
	ret
.Lfunc_end23:
	.size	_ZN2kc64impl_attribute_initialisation_option_Yesattribute_initialisation7rewriteERNS_11rview_classE, .Lfunc_end23-_ZN2kc64impl_attribute_initialisation_option_Yesattribute_initialisation7rewriteERNS_11rview_classE
	.cfi_endproc
                                        # -- End function
	.globl	_ZN2kc63impl_attribute_initialisation_option_Noattribute_initialisation7rewriteERNS_11rview_classE # -- Begin function _ZN2kc63impl_attribute_initialisation_option_Noattribute_initialisation7rewriteERNS_11rview_classE
	.p2align	2
	.type	_ZN2kc63impl_attribute_initialisation_option_Noattribute_initialisation7rewriteERNS_11rview_classE,@function
_ZN2kc63impl_attribute_initialisation_option_Noattribute_initialisation7rewriteERNS_11rview_classE: # @_ZN2kc63impl_attribute_initialisation_option_Noattribute_initialisation7rewriteERNS_11rview_classE
# %bb.0:                                # %entry
	ret
.Lfunc_end24:
	.size	_ZN2kc63impl_attribute_initialisation_option_Noattribute_initialisation7rewriteERNS_11rview_classE, .Lfunc_end24-_ZN2kc63impl_attribute_initialisation_option_Noattribute_initialisation7rewriteERNS_11rview_classE
                                        # -- End function
	.globl	_ZN2kc16impl_Cexpression7rewriteERNS_11rview_classE # -- Begin function _ZN2kc16impl_Cexpression7rewriteERNS_11rview_classE
	.p2align	2
	.type	_ZN2kc16impl_Cexpression7rewriteERNS_11rview_classE,@function
_ZN2kc16impl_Cexpression7rewriteERNS_11rview_classE: # @_ZN2kc16impl_Cexpression7rewriteERNS_11rview_classE
	.cfi_startproc
# %bb.0:                                # %entry
	addi.d	$sp, $sp, -32
	.cfi_def_cfa_offset 32
	st.d	$ra, $sp, 24                    # 8-byte Folded Spill
	st.d	$fp, $sp, 16                    # 8-byte Folded Spill
	st.d	$s0, $sp, 8                     # 8-byte Folded Spill
	st.d	$s1, $sp, 0                     # 8-byte Folded Spill
	.cfi_offset 1, -8
	.cfi_offset 22, -16
	.cfi_offset 23, -24
	.cfi_offset 24, -32
	move	$fp, $a0
	ld.d	$a0, $a0, 0
	ld.d	$a2, $a0, 88
	move	$s0, $a1
	move	$a0, $fp
	jirl	$ra, $a2, 0
	bnez	$a0, .LBB25_4
# %bb.1:                                # %if.else
	ld.d	$a0, $fp, 24
	ld.d	$a1, $a0, 0
	ld.d	$a2, $a1, 24
	move	$a1, $s0
	jirl	$ra, $a2, 0
	ld.d	$a1, $fp, 32
	ld.d	$a2, $a1, 0
	ld.d	$a2, $a2, 24
	move	$s1, $a0
	move	$a0, $a1
	move	$a1, $s0
	jirl	$ra, $a2, 0
	ld.d	$a2, $fp, 24
	move	$a1, $a0
	bne	$s1, $a2, .LBB25_3
# %bb.2:                                # %if.else
	ld.d	$a2, $fp, 32
	beq	$a1, $a2, .LBB25_4
.LBB25_3:                               # %if.else12
	move	$a0, $s1
	pcaddu18i	$ra, %call36(_ZN2kc15ConsCexpressionEPNS_21impl_Cexpression_elemEPNS_16impl_CexpressionE)
	jirl	$ra, $ra, 0
	move	$s0, $a0
	ld.d	$a0, $a0, 0
	ld.d	$a2, $a0, 40
	move	$a0, $s0
	move	$a1, $fp
	jirl	$ra, $a2, 0
	move	$fp, $s0
.LBB25_4:                               # %return
	move	$a0, $fp
	ld.d	$s1, $sp, 0                     # 8-byte Folded Reload
	ld.d	$s0, $sp, 8                     # 8-byte Folded Reload
	ld.d	$fp, $sp, 16                    # 8-byte Folded Reload
	ld.d	$ra, $sp, 24                    # 8-byte Folded Reload
	addi.d	$sp, $sp, 32
	ret
.Lfunc_end25:
	.size	_ZN2kc16impl_Cexpression7rewriteERNS_11rview_classE, .Lfunc_end25-_ZN2kc16impl_Cexpression7rewriteERNS_11rview_classE
	.cfi_endproc
                                        # -- End function
	.globl	_ZN2kc38impl_Cexpression_elem_CExpressionArray7rewriteERNS_11rview_classE # -- Begin function _ZN2kc38impl_Cexpression_elem_CExpressionArray7rewriteERNS_11rview_classE
	.p2align	2
	.type	_ZN2kc38impl_Cexpression_elem_CExpressionArray7rewriteERNS_11rview_classE,@function
_ZN2kc38impl_Cexpression_elem_CExpressionArray7rewriteERNS_11rview_classE: # @_ZN2kc38impl_Cexpression_elem_CExpressionArray7rewriteERNS_11rview_classE
	.cfi_startproc
# %bb.0:                                # %entry
	addi.d	$sp, $sp, -32
	.cfi_def_cfa_offset 32
	st.d	$ra, $sp, 24                    # 8-byte Folded Spill
	st.d	$fp, $sp, 16                    # 8-byte Folded Spill
	st.d	$s0, $sp, 8                     # 8-byte Folded Spill
	.cfi_offset 1, -8
	.cfi_offset 22, -16
	.cfi_offset 23, -24
	move	$fp, $a0
	ld.d	$a0, $a0, 8
	ld.d	$a2, $a0, 0
	ld.d	$a2, $a2, 24
	jirl	$ra, $a2, 0
	ld.d	$a1, $fp, 8
	beq	$a0, $a1, .LBB26_2
# %bb.1:                                # %if.else
	pcaddu18i	$ra, %call36(_ZN2kc16CExpressionArrayEPNS_16impl_CexpressionE)
	jirl	$ra, $ra, 0
	move	$s0, $a0
	ld.d	$a0, $a0, 0
	ld.d	$a2, $a0, 40
	move	$a0, $s0
	move	$a1, $fp
	jirl	$ra, $a2, 0
	move	$fp, $s0
.LBB26_2:                               # %cleanup
	move	$a0, $fp
	ld.d	$s0, $sp, 8                     # 8-byte Folded Reload
	ld.d	$fp, $sp, 16                    # 8-byte Folded Reload
	ld.d	$ra, $sp, 24                    # 8-byte Folded Reload
	addi.d	$sp, $sp, 32
	ret
.Lfunc_end26:
	.size	_ZN2kc38impl_Cexpression_elem_CExpressionArray7rewriteERNS_11rview_classE, .Lfunc_end26-_ZN2kc38impl_Cexpression_elem_CExpressionArray7rewriteERNS_11rview_classE
	.cfi_endproc
                                        # -- End function
	.globl	_ZN2kc37impl_Cexpression_elem_CExpressionPack7rewriteERNS_11rview_classE # -- Begin function _ZN2kc37impl_Cexpression_elem_CExpressionPack7rewriteERNS_11rview_classE
	.p2align	2
	.type	_ZN2kc37impl_Cexpression_elem_CExpressionPack7rewriteERNS_11rview_classE,@function
_ZN2kc37impl_Cexpression_elem_CExpressionPack7rewriteERNS_11rview_classE: # @_ZN2kc37impl_Cexpression_elem_CExpressionPack7rewriteERNS_11rview_classE
	.cfi_startproc
# %bb.0:                                # %entry
	addi.d	$sp, $sp, -32
	.cfi_def_cfa_offset 32
	st.d	$ra, $sp, 24                    # 8-byte Folded Spill
	st.d	$fp, $sp, 16                    # 8-byte Folded Spill
	st.d	$s0, $sp, 8                     # 8-byte Folded Spill
	.cfi_offset 1, -8
	.cfi_offset 22, -16
	.cfi_offset 23, -24
	move	$fp, $a0
	ld.d	$a0, $a0, 8
	ld.d	$a2, $a0, 0
	ld.d	$a2, $a2, 24
	jirl	$ra, $a2, 0
	ld.d	$a1, $fp, 8
	beq	$a0, $a1, .LBB27_2
# %bb.1:                                # %if.else
	pcaddu18i	$ra, %call36(_ZN2kc15CExpressionPackEPNS_16impl_CexpressionE)
	jirl	$ra, $ra, 0
	move	$s0, $a0
	ld.d	$a0, $a0, 0
	ld.d	$a2, $a0, 40
	move	$a0, $s0
	move	$a1, $fp
	jirl	$ra, $a2, 0
	move	$fp, $s0
.LBB27_2:                               # %cleanup
	move	$a0, $fp
	ld.d	$s0, $sp, 8                     # 8-byte Folded Reload
	ld.d	$fp, $sp, 16                    # 8-byte Folded Reload
	ld.d	$ra, $sp, 24                    # 8-byte Folded Reload
	addi.d	$sp, $sp, 32
	ret
.Lfunc_end27:
	.size	_ZN2kc37impl_Cexpression_elem_CExpressionPack7rewriteERNS_11rview_classE, .Lfunc_end27-_ZN2kc37impl_Cexpression_elem_CExpressionPack7rewriteERNS_11rview_classE
	.cfi_endproc
                                        # -- End function
	.globl	_ZN2kc35impl_Cexpression_elem_CExpressionSQ7rewriteERNS_11rview_classE # -- Begin function _ZN2kc35impl_Cexpression_elem_CExpressionSQ7rewriteERNS_11rview_classE
	.p2align	2
	.type	_ZN2kc35impl_Cexpression_elem_CExpressionSQ7rewriteERNS_11rview_classE,@function
_ZN2kc35impl_Cexpression_elem_CExpressionSQ7rewriteERNS_11rview_classE: # @_ZN2kc35impl_Cexpression_elem_CExpressionSQ7rewriteERNS_11rview_classE
	.cfi_startproc
# %bb.0:                                # %entry
	addi.d	$sp, $sp, -32
	.cfi_def_cfa_offset 32
	st.d	$ra, $sp, 24                    # 8-byte Folded Spill
	st.d	$fp, $sp, 16                    # 8-byte Folded Spill
	st.d	$s0, $sp, 8                     # 8-byte Folded Spill
	.cfi_offset 1, -8
	.cfi_offset 22, -16
	.cfi_offset 23, -24
	move	$fp, $a0
	ld.d	$a0, $a0, 8
	ld.d	$a2, $a0, 0
	ld.d	$a2, $a2, 24
	jirl	$ra, $a2, 0
	ld.d	$a1, $fp, 8
	beq	$a0, $a1, .LBB28_2
# %bb.1:                                # %if.else
	pcaddu18i	$ra, %call36(_ZN2kc13CExpressionSQEPNS_18impl_CexpressionSQE)
	jirl	$ra, $ra, 0
	move	$s0, $a0
	ld.d	$a0, $a0, 0
	ld.d	$a2, $a0, 40
	move	$a0, $s0
	move	$a1, $fp
	jirl	$ra, $a2, 0
	move	$fp, $s0
.LBB28_2:                               # %cleanup
	move	$a0, $fp
	ld.d	$s0, $sp, 8                     # 8-byte Folded Reload
	ld.d	$fp, $sp, 16                    # 8-byte Folded Reload
	ld.d	$ra, $sp, 24                    # 8-byte Folded Reload
	addi.d	$sp, $sp, 32
	ret
.Lfunc_end28:
	.size	_ZN2kc35impl_Cexpression_elem_CExpressionSQ7rewriteERNS_11rview_classE, .Lfunc_end28-_ZN2kc35impl_Cexpression_elem_CExpressionSQ7rewriteERNS_11rview_classE
	.cfi_endproc
                                        # -- End function
	.globl	_ZN2kc35impl_Cexpression_elem_CExpressionDQ7rewriteERNS_11rview_classE # -- Begin function _ZN2kc35impl_Cexpression_elem_CExpressionDQ7rewriteERNS_11rview_classE
	.p2align	2
	.type	_ZN2kc35impl_Cexpression_elem_CExpressionDQ7rewriteERNS_11rview_classE,@function
_ZN2kc35impl_Cexpression_elem_CExpressionDQ7rewriteERNS_11rview_classE: # @_ZN2kc35impl_Cexpression_elem_CExpressionDQ7rewriteERNS_11rview_classE
	.cfi_startproc
# %bb.0:                                # %entry
	addi.d	$sp, $sp, -32
	.cfi_def_cfa_offset 32
	st.d	$ra, $sp, 24                    # 8-byte Folded Spill
	st.d	$fp, $sp, 16                    # 8-byte Folded Spill
	st.d	$s0, $sp, 8                     # 8-byte Folded Spill
	.cfi_offset 1, -8
	.cfi_offset 22, -16
	.cfi_offset 23, -24
	move	$fp, $a0
	ld.d	$a0, $a0, 8
	ld.d	$a2, $a0, 0
	ld.d	$a2, $a2, 24
	jirl	$ra, $a2, 0
	ld.d	$a1, $fp, 8
	beq	$a0, $a1, .LBB29_2
# %bb.1:                                # %if.else
	pcaddu18i	$ra, %call36(_ZN2kc13CExpressionDQEPNS_18impl_CexpressionDQE)
	jirl	$ra, $ra, 0
	move	$s0, $a0
	ld.d	$a0, $a0, 0
	ld.d	$a2, $a0, 40
	move	$a0, $s0
	move	$a1, $fp
	jirl	$ra, $a2, 0
	move	$fp, $s0
.LBB29_2:                               # %cleanup
	move	$a0, $fp
	ld.d	$s0, $sp, 8                     # 8-byte Folded Reload
	ld.d	$fp, $sp, 16                    # 8-byte Folded Reload
	ld.d	$ra, $sp, 24                    # 8-byte Folded Reload
	addi.d	$sp, $sp, 32
	ret
.Lfunc_end29:
	.size	_ZN2kc35impl_Cexpression_elem_CExpressionDQ7rewriteERNS_11rview_classE, .Lfunc_end29-_ZN2kc35impl_Cexpression_elem_CExpressionDQ7rewriteERNS_11rview_classE
	.cfi_endproc
                                        # -- End function
	.globl	_ZN2kc35impl_Cexpression_elem_CExpressionNl7rewriteERNS_11rview_classE # -- Begin function _ZN2kc35impl_Cexpression_elem_CExpressionNl7rewriteERNS_11rview_classE
	.p2align	2
	.type	_ZN2kc35impl_Cexpression_elem_CExpressionNl7rewriteERNS_11rview_classE,@function
_ZN2kc35impl_Cexpression_elem_CExpressionNl7rewriteERNS_11rview_classE: # @_ZN2kc35impl_Cexpression_elem_CExpressionNl7rewriteERNS_11rview_classE
# %bb.0:                                # %entry
	ret
.Lfunc_end30:
	.size	_ZN2kc35impl_Cexpression_elem_CExpressionNl7rewriteERNS_11rview_classE, .Lfunc_end30-_ZN2kc35impl_Cexpression_elem_CExpressionNl7rewriteERNS_11rview_classE
                                        # -- End function
	.globl	_ZN2kc42impl_Cexpression_elem_CExpressionDollarvar7rewriteERNS_11rview_classE # -- Begin function _ZN2kc42impl_Cexpression_elem_CExpressionDollarvar7rewriteERNS_11rview_classE
	.p2align	2
	.type	_ZN2kc42impl_Cexpression_elem_CExpressionDollarvar7rewriteERNS_11rview_classE,@function
_ZN2kc42impl_Cexpression_elem_CExpressionDollarvar7rewriteERNS_11rview_classE: # @_ZN2kc42impl_Cexpression_elem_CExpressionDollarvar7rewriteERNS_11rview_classE
	.cfi_startproc
# %bb.0:                                # %entry
	addi.d	$sp, $sp, -32
	.cfi_def_cfa_offset 32
	st.d	$ra, $sp, 24                    # 8-byte Folded Spill
	st.d	$fp, $sp, 16                    # 8-byte Folded Spill
	st.d	$s0, $sp, 8                     # 8-byte Folded Spill
	.cfi_offset 1, -8
	.cfi_offset 22, -16
	.cfi_offset 23, -24
	move	$fp, $a0
	ld.d	$a0, $a0, 8
	ld.d	$a2, $a0, 0
	ld.d	$a2, $a2, 24
	jirl	$ra, $a2, 0
	ld.d	$a1, $fp, 8
	beq	$a0, $a1, .LBB31_2
# %bb.1:                                # %if.else
	pcaddu18i	$ra, %call36(_ZN2kc20CExpressionDollarvarEPNS_8impl_INTE)
	jirl	$ra, $ra, 0
	move	$s0, $a0
	ld.d	$a0, $a0, 0
	ld.d	$a2, $a0, 40
	move	$a0, $s0
	move	$a1, $fp
	jirl	$ra, $a2, 0
	move	$fp, $s0
.LBB31_2:                               # %cleanup
	move	$a0, $fp
	ld.d	$s0, $sp, 8                     # 8-byte Folded Reload
	ld.d	$fp, $sp, 16                    # 8-byte Folded Reload
	ld.d	$ra, $sp, 24                    # 8-byte Folded Reload
	addi.d	$sp, $sp, 32
	ret
.Lfunc_end31:
	.size	_ZN2kc42impl_Cexpression_elem_CExpressionDollarvar7rewriteERNS_11rview_classE, .Lfunc_end31-_ZN2kc42impl_Cexpression_elem_CExpressionDollarvar7rewriteERNS_11rview_classE
	.cfi_endproc
                                        # -- End function
	.globl	_ZN2kc37impl_Cexpression_elem_CExpressionPart7rewriteERNS_11rview_classE # -- Begin function _ZN2kc37impl_Cexpression_elem_CExpressionPart7rewriteERNS_11rview_classE
	.p2align	2
	.type	_ZN2kc37impl_Cexpression_elem_CExpressionPart7rewriteERNS_11rview_classE,@function
_ZN2kc37impl_Cexpression_elem_CExpressionPart7rewriteERNS_11rview_classE: # @_ZN2kc37impl_Cexpression_elem_CExpressionPart7rewriteERNS_11rview_classE
	.cfi_startproc
# %bb.0:                                # %entry
	addi.d	$sp, $sp, -32
	.cfi_def_cfa_offset 32
	st.d	$ra, $sp, 24                    # 8-byte Folded Spill
	st.d	$fp, $sp, 16                    # 8-byte Folded Spill
	st.d	$s0, $sp, 8                     # 8-byte Folded Spill
	.cfi_offset 1, -8
	.cfi_offset 22, -16
	.cfi_offset 23, -24
	move	$fp, $a0
	ld.d	$a0, $a0, 8
	ld.d	$a2, $a0, 0
	ld.d	$a2, $a2, 24
	jirl	$ra, $a2, 0
	ld.d	$a1, $fp, 8
	beq	$a0, $a1, .LBB32_2
# %bb.1:                                # %if.else
	pcaddu18i	$ra, %call36(_ZN2kc15CExpressionPartEPNS_20impl_casestring__StrE)
	jirl	$ra, $ra, 0
	move	$s0, $a0
	ld.d	$a0, $a0, 0
	ld.d	$a2, $a0, 40
	move	$a0, $s0
	move	$a1, $fp
	jirl	$ra, $a2, 0
	move	$fp, $s0
.LBB32_2:                               # %cleanup
	move	$a0, $fp
	ld.d	$s0, $sp, 8                     # 8-byte Folded Reload
	ld.d	$fp, $sp, 16                    # 8-byte Folded Reload
	ld.d	$ra, $sp, 24                    # 8-byte Folded Reload
	addi.d	$sp, $sp, 32
	ret
.Lfunc_end32:
	.size	_ZN2kc37impl_Cexpression_elem_CExpressionPart7rewriteERNS_11rview_classE, .Lfunc_end32-_ZN2kc37impl_Cexpression_elem_CExpressionPart7rewriteERNS_11rview_classE
	.cfi_endproc
                                        # -- End function
	.globl	_ZN2kc18impl_CexpressionDQ7rewriteERNS_11rview_classE # -- Begin function _ZN2kc18impl_CexpressionDQ7rewriteERNS_11rview_classE
	.p2align	2
	.type	_ZN2kc18impl_CexpressionDQ7rewriteERNS_11rview_classE,@function
_ZN2kc18impl_CexpressionDQ7rewriteERNS_11rview_classE: # @_ZN2kc18impl_CexpressionDQ7rewriteERNS_11rview_classE
	.cfi_startproc
# %bb.0:                                # %entry
	addi.d	$sp, $sp, -32
	.cfi_def_cfa_offset 32
	st.d	$ra, $sp, 24                    # 8-byte Folded Spill
	st.d	$fp, $sp, 16                    # 8-byte Folded Spill
	st.d	$s0, $sp, 8                     # 8-byte Folded Spill
	st.d	$s1, $sp, 0                     # 8-byte Folded Spill
	.cfi_offset 1, -8
	.cfi_offset 22, -16
	.cfi_offset 23, -24
	.cfi_offset 24, -32
	move	$fp, $a0
	ld.d	$a0, $a0, 0
	ld.d	$a2, $a0, 88
	move	$s0, $a1
	move	$a0, $fp
	jirl	$ra, $a2, 0
	bnez	$a0, .LBB33_4
# %bb.1:                                # %if.else
	ld.d	$a0, $fp, 8
	ld.d	$a1, $a0, 0
	ld.d	$a2, $a1, 24
	move	$a1, $s0
	jirl	$ra, $a2, 0
	ld.d	$a1, $fp, 16
	ld.d	$a2, $a1, 0
	ld.d	$a2, $a2, 24
	move	$s1, $a0
	move	$a0, $a1
	move	$a1, $s0
	jirl	$ra, $a2, 0
	ld.d	$a2, $fp, 8
	move	$a1, $a0
	bne	$s1, $a2, .LBB33_3
# %bb.2:                                # %if.else
	ld.d	$a2, $fp, 16
	beq	$a1, $a2, .LBB33_4
.LBB33_3:                               # %if.else12
	move	$a0, $s1
	pcaddu18i	$ra, %call36(_ZN2kc17ConsCexpressionDQEPNS_23impl_CexpressionDQ_elemEPNS_18impl_CexpressionDQE)
	jirl	$ra, $ra, 0
	move	$s0, $a0
	ld.d	$a0, $a0, 0
	ld.d	$a2, $a0, 40
	move	$a0, $s0
	move	$a1, $fp
	jirl	$ra, $a2, 0
	move	$fp, $s0
.LBB33_4:                               # %return
	move	$a0, $fp
	ld.d	$s1, $sp, 0                     # 8-byte Folded Reload
	ld.d	$s0, $sp, 8                     # 8-byte Folded Reload
	ld.d	$fp, $sp, 16                    # 8-byte Folded Reload
	ld.d	$ra, $sp, 24                    # 8-byte Folded Reload
	addi.d	$sp, $sp, 32
	ret
.Lfunc_end33:
	.size	_ZN2kc18impl_CexpressionDQ7rewriteERNS_11rview_classE, .Lfunc_end33-_ZN2kc18impl_CexpressionDQ7rewriteERNS_11rview_classE
	.cfi_endproc
                                        # -- End function
	.globl	_ZN2kc39impl_CexpressionDQ_elem_CExpressionDQNl7rewriteERNS_11rview_classE # -- Begin function _ZN2kc39impl_CexpressionDQ_elem_CExpressionDQNl7rewriteERNS_11rview_classE
	.p2align	2
	.type	_ZN2kc39impl_CexpressionDQ_elem_CExpressionDQNl7rewriteERNS_11rview_classE,@function
_ZN2kc39impl_CexpressionDQ_elem_CExpressionDQNl7rewriteERNS_11rview_classE: # @_ZN2kc39impl_CexpressionDQ_elem_CExpressionDQNl7rewriteERNS_11rview_classE
# %bb.0:                                # %entry
	ret
.Lfunc_end34:
	.size	_ZN2kc39impl_CexpressionDQ_elem_CExpressionDQNl7rewriteERNS_11rview_classE, .Lfunc_end34-_ZN2kc39impl_CexpressionDQ_elem_CExpressionDQNl7rewriteERNS_11rview_classE
                                        # -- End function
	.globl	_ZN2kc41impl_CexpressionDQ_elem_CExpressionDQPart7rewriteERNS_11rview_classE # -- Begin function _ZN2kc41impl_CexpressionDQ_elem_CExpressionDQPart7rewriteERNS_11rview_classE
	.p2align	2
	.type	_ZN2kc41impl_CexpressionDQ_elem_CExpressionDQPart7rewriteERNS_11rview_classE,@function
_ZN2kc41impl_CexpressionDQ_elem_CExpressionDQPart7rewriteERNS_11rview_classE: # @_ZN2kc41impl_CexpressionDQ_elem_CExpressionDQPart7rewriteERNS_11rview_classE
	.cfi_startproc
# %bb.0:                                # %entry
	addi.d	$sp, $sp, -32
	.cfi_def_cfa_offset 32
	st.d	$ra, $sp, 24                    # 8-byte Folded Spill
	st.d	$fp, $sp, 16                    # 8-byte Folded Spill
	st.d	$s0, $sp, 8                     # 8-byte Folded Spill
	.cfi_offset 1, -8
	.cfi_offset 22, -16
	.cfi_offset 23, -24
	move	$fp, $a0
	ld.d	$a0, $a0, 8
	ld.d	$a2, $a0, 0
	ld.d	$a2, $a2, 24
	jirl	$ra, $a2, 0
	ld.d	$a1, $fp, 8
	beq	$a0, $a1, .LBB35_2
# %bb.1:                                # %if.else
	pcaddu18i	$ra, %call36(_ZN2kc17CExpressionDQPartEPNS_20impl_casestring__StrE)
	jirl	$ra, $ra, 0
	move	$s0, $a0
	ld.d	$a0, $a0, 0
	ld.d	$a2, $a0, 40
	move	$a0, $s0
	move	$a1, $fp
	jirl	$ra, $a2, 0
	move	$fp, $s0
.LBB35_2:                               # %cleanup
	move	$a0, $fp
	ld.d	$s0, $sp, 8                     # 8-byte Folded Reload
	ld.d	$fp, $sp, 16                    # 8-byte Folded Reload
	ld.d	$ra, $sp, 24                    # 8-byte Folded Reload
	addi.d	$sp, $sp, 32
	ret
.Lfunc_end35:
	.size	_ZN2kc41impl_CexpressionDQ_elem_CExpressionDQPart7rewriteERNS_11rview_classE, .Lfunc_end35-_ZN2kc41impl_CexpressionDQ_elem_CExpressionDQPart7rewriteERNS_11rview_classE
	.cfi_endproc
                                        # -- End function
	.globl	_ZN2kc18impl_CexpressionSQ7rewriteERNS_11rview_classE # -- Begin function _ZN2kc18impl_CexpressionSQ7rewriteERNS_11rview_classE
	.p2align	2
	.type	_ZN2kc18impl_CexpressionSQ7rewriteERNS_11rview_classE,@function
_ZN2kc18impl_CexpressionSQ7rewriteERNS_11rview_classE: # @_ZN2kc18impl_CexpressionSQ7rewriteERNS_11rview_classE
	.cfi_startproc
# %bb.0:                                # %entry
	addi.d	$sp, $sp, -32
	.cfi_def_cfa_offset 32
	st.d	$ra, $sp, 24                    # 8-byte Folded Spill
	st.d	$fp, $sp, 16                    # 8-byte Folded Spill
	st.d	$s0, $sp, 8                     # 8-byte Folded Spill
	st.d	$s1, $sp, 0                     # 8-byte Folded Spill
	.cfi_offset 1, -8
	.cfi_offset 22, -16
	.cfi_offset 23, -24
	.cfi_offset 24, -32
	move	$fp, $a0
	ld.d	$a0, $a0, 0
	ld.d	$a2, $a0, 88
	move	$s0, $a1
	move	$a0, $fp
	jirl	$ra, $a2, 0
	bnez	$a0, .LBB36_4
# %bb.1:                                # %if.else
	ld.d	$a0, $fp, 8
	ld.d	$a1, $a0, 0
	ld.d	$a2, $a1, 24
	move	$a1, $s0
	jirl	$ra, $a2, 0
	ld.d	$a1, $fp, 16
	ld.d	$a2, $a1, 0
	ld.d	$a2, $a2, 24
	move	$s1, $a0
	move	$a0, $a1
	move	$a1, $s0
	jirl	$ra, $a2, 0
	ld.d	$a2, $fp, 8
	move	$a1, $a0
	bne	$s1, $a2, .LBB36_3
# %bb.2:                                # %if.else
	ld.d	$a2, $fp, 16
	beq	$a1, $a2, .LBB36_4
.LBB36_3:                               # %if.else12
	move	$a0, $s1
	pcaddu18i	$ra, %call36(_ZN2kc17ConsCexpressionSQEPNS_23impl_CexpressionSQ_elemEPNS_18impl_CexpressionSQE)
	jirl	$ra, $ra, 0
	move	$s0, $a0
	ld.d	$a0, $a0, 0
	ld.d	$a2, $a0, 40
	move	$a0, $s0
	move	$a1, $fp
	jirl	$ra, $a2, 0
	move	$fp, $s0
.LBB36_4:                               # %return
	move	$a0, $fp
	ld.d	$s1, $sp, 0                     # 8-byte Folded Reload
	ld.d	$s0, $sp, 8                     # 8-byte Folded Reload
	ld.d	$fp, $sp, 16                    # 8-byte Folded Reload
	ld.d	$ra, $sp, 24                    # 8-byte Folded Reload
	addi.d	$sp, $sp, 32
	ret
.Lfunc_end36:
	.size	_ZN2kc18impl_CexpressionSQ7rewriteERNS_11rview_classE, .Lfunc_end36-_ZN2kc18impl_CexpressionSQ7rewriteERNS_11rview_classE
	.cfi_endproc
                                        # -- End function
	.globl	_ZN2kc39impl_CexpressionSQ_elem_CExpressionSQNl7rewriteERNS_11rview_classE # -- Begin function _ZN2kc39impl_CexpressionSQ_elem_CExpressionSQNl7rewriteERNS_11rview_classE
	.p2align	2
	.type	_ZN2kc39impl_CexpressionSQ_elem_CExpressionSQNl7rewriteERNS_11rview_classE,@function
_ZN2kc39impl_CexpressionSQ_elem_CExpressionSQNl7rewriteERNS_11rview_classE: # @_ZN2kc39impl_CexpressionSQ_elem_CExpressionSQNl7rewriteERNS_11rview_classE
# %bb.0:                                # %entry
	ret
.Lfunc_end37:
	.size	_ZN2kc39impl_CexpressionSQ_elem_CExpressionSQNl7rewriteERNS_11rview_classE, .Lfunc_end37-_ZN2kc39impl_CexpressionSQ_elem_CExpressionSQNl7rewriteERNS_11rview_classE
                                        # -- End function
	.globl	_ZN2kc41impl_CexpressionSQ_elem_CExpressionSQPart7rewriteERNS_11rview_classE # -- Begin function _ZN2kc41impl_CexpressionSQ_elem_CExpressionSQPart7rewriteERNS_11rview_classE
	.p2align	2
	.type	_ZN2kc41impl_CexpressionSQ_elem_CExpressionSQPart7rewriteERNS_11rview_classE,@function
_ZN2kc41impl_CexpressionSQ_elem_CExpressionSQPart7rewriteERNS_11rview_classE: # @_ZN2kc41impl_CexpressionSQ_elem_CExpressionSQPart7rewriteERNS_11rview_classE
	.cfi_startproc
# %bb.0:                                # %entry
	addi.d	$sp, $sp, -32
	.cfi_def_cfa_offset 32
	st.d	$ra, $sp, 24                    # 8-byte Folded Spill
	st.d	$fp, $sp, 16                    # 8-byte Folded Spill
	st.d	$s0, $sp, 8                     # 8-byte Folded Spill
	.cfi_offset 1, -8
	.cfi_offset 22, -16
	.cfi_offset 23, -24
	move	$fp, $a0
	ld.d	$a0, $a0, 8
	ld.d	$a2, $a0, 0
	ld.d	$a2, $a2, 24
	jirl	$ra, $a2, 0
	ld.d	$a1, $fp, 8
	beq	$a0, $a1, .LBB38_2
# %bb.1:                                # %if.else
	pcaddu18i	$ra, %call36(_ZN2kc17CExpressionSQPartEPNS_20impl_casestring__StrE)
	jirl	$ra, $ra, 0
	move	$s0, $a0
	ld.d	$a0, $a0, 0
	ld.d	$a2, $a0, 40
	move	$a0, $s0
	move	$a1, $fp
	jirl	$ra, $a2, 0
	move	$fp, $s0
.LBB38_2:                               # %cleanup
	move	$a0, $fp
	ld.d	$s0, $sp, 8                     # 8-byte Folded Reload
	ld.d	$fp, $sp, 16                    # 8-byte Folded Reload
	ld.d	$ra, $sp, 24                    # 8-byte Folded Reload
	addi.d	$sp, $sp, 32
	ret
.Lfunc_end38:
	.size	_ZN2kc41impl_CexpressionSQ_elem_CExpressionSQPart7rewriteERNS_11rview_classE, .Lfunc_end38-_ZN2kc41impl_CexpressionSQ_elem_CExpressionSQPart7rewriteERNS_11rview_classE
	.cfi_endproc
                                        # -- End function
	.globl	_ZN2kc19impl_idCexpressions7rewriteERNS_11rview_classE # -- Begin function _ZN2kc19impl_idCexpressions7rewriteERNS_11rview_classE
	.p2align	2
	.type	_ZN2kc19impl_idCexpressions7rewriteERNS_11rview_classE,@function
_ZN2kc19impl_idCexpressions7rewriteERNS_11rview_classE: # @_ZN2kc19impl_idCexpressions7rewriteERNS_11rview_classE
	.cfi_startproc
# %bb.0:                                # %entry
	addi.d	$sp, $sp, -32
	.cfi_def_cfa_offset 32
	st.d	$ra, $sp, 24                    # 8-byte Folded Spill
	st.d	$fp, $sp, 16                    # 8-byte Folded Spill
	st.d	$s0, $sp, 8                     # 8-byte Folded Spill
	st.d	$s1, $sp, 0                     # 8-byte Folded Spill
	.cfi_offset 1, -8
	.cfi_offset 22, -16
	.cfi_offset 23, -24
	.cfi_offset 24, -32
	move	$fp, $a0
	ld.d	$a0, $a0, 0
	ld.d	$a2, $a0, 88
	move	$s0, $a1
	move	$a0, $fp
	jirl	$ra, $a2, 0
	bnez	$a0, .LBB39_4
# %bb.1:                                # %if.else
	ld.d	$a0, $fp, 8
	ld.d	$a1, $a0, 0
	ld.d	$a2, $a1, 24
	move	$a1, $s0
	jirl	$ra, $a2, 0
	ld.d	$a1, $fp, 16
	ld.d	$a2, $a1, 0
	ld.d	$a2, $a2, 24
	move	$s1, $a0
	move	$a0, $a1
	move	$a1, $s0
	jirl	$ra, $a2, 0
	ld.d	$a2, $fp, 8
	move	$a1, $a0
	bne	$s1, $a2, .LBB39_3
# %bb.2:                                # %if.else
	ld.d	$a2, $fp, 16
	beq	$a1, $a2, .LBB39_4
.LBB39_3:                               # %if.else12
	move	$a0, $s1
	pcaddu18i	$ra, %call36(_ZN2kc18ConsidCexpressionsEPNS_18impl_idCexpressionEPNS_19impl_idCexpressionsE)
	jirl	$ra, $ra, 0
	move	$s0, $a0
	ld.d	$a0, $a0, 0
	ld.d	$a2, $a0, 40
	move	$a0, $s0
	move	$a1, $fp
	jirl	$ra, $a2, 0
	move	$fp, $s0
.LBB39_4:                               # %return
	move	$a0, $fp
	ld.d	$s1, $sp, 0                     # 8-byte Folded Reload
	ld.d	$s0, $sp, 8                     # 8-byte Folded Reload
	ld.d	$fp, $sp, 16                    # 8-byte Folded Reload
	ld.d	$ra, $sp, 24                    # 8-byte Folded Reload
	addi.d	$sp, $sp, 32
	ret
.Lfunc_end39:
	.size	_ZN2kc19impl_idCexpressions7rewriteERNS_11rview_classE, .Lfunc_end39-_ZN2kc19impl_idCexpressions7rewriteERNS_11rview_classE
	.cfi_endproc
                                        # -- End function
	.globl	_ZN2kc32impl_idCexpression_IdCexpression7rewriteERNS_11rview_classE # -- Begin function _ZN2kc32impl_idCexpression_IdCexpression7rewriteERNS_11rview_classE
	.p2align	2
	.type	_ZN2kc32impl_idCexpression_IdCexpression7rewriteERNS_11rview_classE,@function
_ZN2kc32impl_idCexpression_IdCexpression7rewriteERNS_11rview_classE: # @_ZN2kc32impl_idCexpression_IdCexpression7rewriteERNS_11rview_classE
	.cfi_startproc
# %bb.0:                                # %entry
	addi.d	$sp, $sp, -32
	.cfi_def_cfa_offset 32
	st.d	$ra, $sp, 24                    # 8-byte Folded Spill
	st.d	$fp, $sp, 16                    # 8-byte Folded Spill
	st.d	$s0, $sp, 8                     # 8-byte Folded Spill
	st.d	$s1, $sp, 0                     # 8-byte Folded Spill
	.cfi_offset 1, -8
	.cfi_offset 22, -16
	.cfi_offset 23, -24
	.cfi_offset 24, -32
	move	$fp, $a0
	ld.d	$a0, $a0, 16
	ld.d	$a2, $a0, 0
	ld.d	$a2, $a2, 24
	move	$s0, $a1
	jirl	$ra, $a2, 0
	ld.d	$a1, $fp, 24
	ld.d	$a2, $a1, 0
	ld.d	$a2, $a2, 24
	move	$s1, $a0
	move	$a0, $a1
	move	$a1, $s0
	jirl	$ra, $a2, 0
	ld.d	$a2, $fp, 16
	move	$a1, $a0
	bne	$s1, $a2, .LBB40_2
# %bb.1:                                # %entry
	ld.d	$a2, $fp, 24
	beq	$a1, $a2, .LBB40_3
.LBB40_2:                               # %if.else
	move	$a0, $s1
	pcaddu18i	$ra, %call36(_ZN2kc13IdCexpressionEPNS_7impl_IDEPNS_16impl_CexpressionE)
	jirl	$ra, $ra, 0
	move	$s0, $a0
	ld.d	$a0, $a0, 0
	ld.d	$a2, $a0, 40
	move	$a0, $s0
	move	$a1, $fp
	jirl	$ra, $a2, 0
	move	$fp, $s0
.LBB40_3:                               # %cleanup
	move	$a0, $fp
	ld.d	$s1, $sp, 0                     # 8-byte Folded Reload
	ld.d	$s0, $sp, 8                     # 8-byte Folded Reload
	ld.d	$fp, $sp, 16                    # 8-byte Folded Reload
	ld.d	$ra, $sp, 24                    # 8-byte Folded Reload
	addi.d	$sp, $sp, 32
	ret
.Lfunc_end40:
	.size	_ZN2kc32impl_idCexpression_IdCexpression7rewriteERNS_11rview_classE, .Lfunc_end40-_ZN2kc32impl_idCexpression_IdCexpression7rewriteERNS_11rview_classE
	.cfi_endproc
                                        # -- End function
	.globl	_ZN2kc11impl_Ctexts7rewriteERNS_11rview_classE # -- Begin function _ZN2kc11impl_Ctexts7rewriteERNS_11rview_classE
	.p2align	2
	.type	_ZN2kc11impl_Ctexts7rewriteERNS_11rview_classE,@function
_ZN2kc11impl_Ctexts7rewriteERNS_11rview_classE: # @_ZN2kc11impl_Ctexts7rewriteERNS_11rview_classE
	.cfi_startproc
# %bb.0:                                # %entry
	addi.d	$sp, $sp, -32
	.cfi_def_cfa_offset 32
	st.d	$ra, $sp, 24                    # 8-byte Folded Spill
	st.d	$fp, $sp, 16                    # 8-byte Folded Spill
	st.d	$s0, $sp, 8                     # 8-byte Folded Spill
	st.d	$s1, $sp, 0                     # 8-byte Folded Spill
	.cfi_offset 1, -8
	.cfi_offset 22, -16
	.cfi_offset 23, -24
	.cfi_offset 24, -32
	move	$fp, $a0
	ld.d	$a0, $a0, 0
	ld.d	$a2, $a0, 88
	move	$s0, $a1
	move	$a0, $fp
	jirl	$ra, $a2, 0
	bnez	$a0, .LBB41_4
# %bb.1:                                # %if.else
	ld.d	$a0, $fp, 8
	ld.d	$a1, $a0, 0
	ld.d	$a2, $a1, 24
	move	$a1, $s0
	jirl	$ra, $a2, 0
	ld.d	$a1, $fp, 16
	ld.d	$a2, $a1, 0
	ld.d	$a2, $a2, 24
	move	$s1, $a0
	move	$a0, $a1
	move	$a1, $s0
	jirl	$ra, $a2, 0
	ld.d	$a2, $fp, 8
	move	$a1, $a0
	bne	$s1, $a2, .LBB41_3
# %bb.2:                                # %if.else
	ld.d	$a2, $fp, 16
	beq	$a1, $a2, .LBB41_4
.LBB41_3:                               # %if.else12
	move	$a0, $s1
	pcaddu18i	$ra, %call36(_ZN2kc10ConsCtextsEPNS_10impl_CtextEPNS_11impl_CtextsE)
	jirl	$ra, $ra, 0
	move	$s0, $a0
	ld.d	$a0, $a0, 0
	ld.d	$a2, $a0, 40
	move	$a0, $s0
	move	$a1, $fp
	jirl	$ra, $a2, 0
	move	$fp, $s0
.LBB41_4:                               # %return
	move	$a0, $fp
	ld.d	$s1, $sp, 0                     # 8-byte Folded Reload
	ld.d	$s0, $sp, 8                     # 8-byte Folded Reload
	ld.d	$fp, $sp, 16                    # 8-byte Folded Reload
	ld.d	$ra, $sp, 24                    # 8-byte Folded Reload
	addi.d	$sp, $sp, 32
	ret
.Lfunc_end41:
	.size	_ZN2kc11impl_Ctexts7rewriteERNS_11rview_classE, .Lfunc_end41-_ZN2kc11impl_Ctexts7rewriteERNS_11rview_classE
	.cfi_endproc
                                        # -- End function
	.globl	_ZN2kc17impl_includefiles7rewriteERNS_11rview_classE # -- Begin function _ZN2kc17impl_includefiles7rewriteERNS_11rview_classE
	.p2align	2
	.type	_ZN2kc17impl_includefiles7rewriteERNS_11rview_classE,@function
_ZN2kc17impl_includefiles7rewriteERNS_11rview_classE: # @_ZN2kc17impl_includefiles7rewriteERNS_11rview_classE
	.cfi_startproc
# %bb.0:                                # %entry
	addi.d	$sp, $sp, -32
	.cfi_def_cfa_offset 32
	st.d	$ra, $sp, 24                    # 8-byte Folded Spill
	st.d	$fp, $sp, 16                    # 8-byte Folded Spill
	st.d	$s0, $sp, 8                     # 8-byte Folded Spill
	st.d	$s1, $sp, 0                     # 8-byte Folded Spill
	.cfi_offset 1, -8
	.cfi_offset 22, -16
	.cfi_offset 23, -24
	.cfi_offset 24, -32
	move	$fp, $a0
	ld.d	$a0, $a0, 0
	ld.d	$a2, $a0, 88
	move	$s0, $a1
	move	$a0, $fp
	jirl	$ra, $a2, 0
	bnez	$a0, .LBB42_4
# %bb.1:                                # %if.else
	ld.d	$a0, $fp, 8
	ld.d	$a1, $a0, 0
	ld.d	$a2, $a1, 24
	move	$a1, $s0
	jirl	$ra, $a2, 0
	ld.d	$a1, $fp, 16
	ld.d	$a2, $a1, 0
	ld.d	$a2, $a2, 24
	move	$s1, $a0
	move	$a0, $a1
	move	$a1, $s0
	jirl	$ra, $a2, 0
	ld.d	$a2, $fp, 8
	move	$a1, $a0
	bne	$s1, $a2, .LBB42_3
# %bb.2:                                # %if.else
	ld.d	$a2, $fp, 16
	beq	$a1, $a2, .LBB42_4
.LBB42_3:                               # %if.else12
	move	$a0, $s1
	pcaddu18i	$ra, %call36(_ZN2kc16ConsincludefilesEPNS_16impl_includefileEPNS_17impl_includefilesE)
	jirl	$ra, $ra, 0
	move	$s0, $a0
	ld.d	$a0, $a0, 0
	ld.d	$a2, $a0, 40
	move	$a0, $s0
	move	$a1, $fp
	jirl	$ra, $a2, 0
	move	$fp, $s0
.LBB42_4:                               # %return
	move	$a0, $fp
	ld.d	$s1, $sp, 0                     # 8-byte Folded Reload
	ld.d	$s0, $sp, 8                     # 8-byte Folded Reload
	ld.d	$fp, $sp, 16                    # 8-byte Folded Reload
	ld.d	$ra, $sp, 24                    # 8-byte Folded Reload
	addi.d	$sp, $sp, 32
	ret
.Lfunc_end42:
	.size	_ZN2kc17impl_includefiles7rewriteERNS_11rview_classE, .Lfunc_end42-_ZN2kc17impl_includefiles7rewriteERNS_11rview_classE
	.cfi_endproc
                                        # -- End function
	.globl	_ZN2kc28impl_includefile_IncludeFile7rewriteERNS_11rview_classE # -- Begin function _ZN2kc28impl_includefile_IncludeFile7rewriteERNS_11rview_classE
	.p2align	2
	.type	_ZN2kc28impl_includefile_IncludeFile7rewriteERNS_11rview_classE,@function
_ZN2kc28impl_includefile_IncludeFile7rewriteERNS_11rview_classE: # @_ZN2kc28impl_includefile_IncludeFile7rewriteERNS_11rview_classE
	.cfi_startproc
# %bb.0:                                # %entry
	addi.d	$sp, $sp, -32
	.cfi_def_cfa_offset 32
	st.d	$ra, $sp, 24                    # 8-byte Folded Spill
	st.d	$fp, $sp, 16                    # 8-byte Folded Spill
	st.d	$s0, $sp, 8                     # 8-byte Folded Spill
	.cfi_offset 1, -8
	.cfi_offset 22, -16
	.cfi_offset 23, -24
	move	$fp, $a0
	ld.d	$a0, $a0, 32
	ld.d	$a2, $a0, 0
	ld.d	$a2, $a2, 24
	jirl	$ra, $a2, 0
	ld.d	$a1, $fp, 32
	beq	$a0, $a1, .LBB43_2
# %bb.1:                                # %if.else
	pcaddu18i	$ra, %call36(_ZN2kc11IncludeFileEPNS_20impl_casestring__StrE)
	jirl	$ra, $ra, 0
	move	$s0, $a0
	ld.d	$a0, $a0, 0
	ld.d	$a2, $a0, 40
	move	$a0, $s0
	move	$a1, $fp
	jirl	$ra, $a2, 0
	move	$fp, $s0
.LBB43_2:                               # %cleanup
	move	$a0, $fp
	ld.d	$s0, $sp, 8                     # 8-byte Folded Reload
	ld.d	$fp, $sp, 16                    # 8-byte Folded Reload
	ld.d	$ra, $sp, 24                    # 8-byte Folded Reload
	addi.d	$sp, $sp, 32
	ret
.Lfunc_end43:
	.size	_ZN2kc28impl_includefile_IncludeFile7rewriteERNS_11rview_classE, .Lfunc_end43-_ZN2kc28impl_includefile_IncludeFile7rewriteERNS_11rview_classE
	.cfi_endproc
                                        # -- End function
	.globl	_ZN2kc24impl_includedeclarations7rewriteERNS_11rview_classE # -- Begin function _ZN2kc24impl_includedeclarations7rewriteERNS_11rview_classE
	.p2align	2
	.type	_ZN2kc24impl_includedeclarations7rewriteERNS_11rview_classE,@function
_ZN2kc24impl_includedeclarations7rewriteERNS_11rview_classE: # @_ZN2kc24impl_includedeclarations7rewriteERNS_11rview_classE
	.cfi_startproc
# %bb.0:                                # %entry
	addi.d	$sp, $sp, -32
	.cfi_def_cfa_offset 32
	st.d	$ra, $sp, 24                    # 8-byte Folded Spill
	st.d	$fp, $sp, 16                    # 8-byte Folded Spill
	st.d	$s0, $sp, 8                     # 8-byte Folded Spill
	st.d	$s1, $sp, 0                     # 8-byte Folded Spill
	.cfi_offset 1, -8
	.cfi_offset 22, -16
	.cfi_offset 23, -24
	.cfi_offset 24, -32
	move	$fp, $a0
	ld.d	$a0, $a0, 0
	ld.d	$a2, $a0, 88
	move	$s0, $a1
	move	$a0, $fp
	jirl	$ra, $a2, 0
	bnez	$a0, .LBB44_4
# %bb.1:                                # %if.else
	ld.d	$a0, $fp, 8
	ld.d	$a1, $a0, 0
	ld.d	$a2, $a1, 24
	move	$a1, $s0
	jirl	$ra, $a2, 0
	ld.d	$a1, $fp, 16
	ld.d	$a2, $a1, 0
	ld.d	$a2, $a2, 24
	move	$s1, $a0
	move	$a0, $a1
	move	$a1, $s0
	jirl	$ra, $a2, 0
	ld.d	$a2, $fp, 8
	move	$a1, $a0
	bne	$s1, $a2, .LBB44_3
# %bb.2:                                # %if.else
	ld.d	$a2, $fp, 16
	beq	$a1, $a2, .LBB44_4
.LBB44_3:                               # %if.else12
	move	$a0, $s1
	pcaddu18i	$ra, %call36(_ZN2kc23ConsincludedeclarationsEPNS_23impl_includedeclarationEPNS_24impl_includedeclarationsE)
	jirl	$ra, $ra, 0
	move	$s0, $a0
	ld.d	$a0, $a0, 0
	ld.d	$a2, $a0, 40
	move	$a0, $s0
	move	$a1, $fp
	jirl	$ra, $a2, 0
	move	$fp, $s0
.LBB44_4:                               # %return
	move	$a0, $fp
	ld.d	$s1, $sp, 0                     # 8-byte Folded Reload
	ld.d	$s0, $sp, 8                     # 8-byte Folded Reload
	ld.d	$fp, $sp, 16                    # 8-byte Folded Reload
	ld.d	$ra, $sp, 24                    # 8-byte Folded Reload
	addi.d	$sp, $sp, 32
	ret
.Lfunc_end44:
	.size	_ZN2kc24impl_includedeclarations7rewriteERNS_11rview_classE, .Lfunc_end44-_ZN2kc24impl_includedeclarations7rewriteERNS_11rview_classE
	.cfi_endproc
                                        # -- End function
	.globl	_ZN2kc42impl_includedeclaration_IncludeDeclaration7rewriteERNS_11rview_classE # -- Begin function _ZN2kc42impl_includedeclaration_IncludeDeclaration7rewriteERNS_11rview_classE
	.p2align	2
	.type	_ZN2kc42impl_includedeclaration_IncludeDeclaration7rewriteERNS_11rview_classE,@function
_ZN2kc42impl_includedeclaration_IncludeDeclaration7rewriteERNS_11rview_classE: # @_ZN2kc42impl_includedeclaration_IncludeDeclaration7rewriteERNS_11rview_classE
	.cfi_startproc
# %bb.0:                                # %entry
	addi.d	$sp, $sp, -32
	.cfi_def_cfa_offset 32
	st.d	$ra, $sp, 24                    # 8-byte Folded Spill
	st.d	$fp, $sp, 16                    # 8-byte Folded Spill
	st.d	$s0, $sp, 8                     # 8-byte Folded Spill
	.cfi_offset 1, -8
	.cfi_offset 22, -16
	.cfi_offset 23, -24
	move	$fp, $a0
	ld.d	$a0, $a0, 24
	ld.d	$a2, $a0, 0
	ld.d	$a2, $a2, 24
	jirl	$ra, $a2, 0
	ld.d	$a1, $fp, 24
	beq	$a0, $a1, .LBB45_2
# %bb.1:                                # %if.else
	pcaddu18i	$ra, %call36(_ZN2kc18IncludeDeclarationEPNS_20impl_casestring__StrE)
	jirl	$ra, $ra, 0
	move	$s0, $a0
	ld.d	$a0, $a0, 0
	ld.d	$a2, $a0, 40
	move	$a0, $s0
	move	$a1, $fp
	jirl	$ra, $a2, 0
	move	$fp, $s0
.LBB45_2:                               # %cleanup
	move	$a0, $fp
	ld.d	$s0, $sp, 8                     # 8-byte Folded Reload
	ld.d	$fp, $sp, 16                    # 8-byte Folded Reload
	ld.d	$ra, $sp, 24                    # 8-byte Folded Reload
	addi.d	$sp, $sp, 32
	ret
.Lfunc_end45:
	.size	_ZN2kc42impl_includedeclaration_IncludeDeclaration7rewriteERNS_11rview_classE, .Lfunc_end45-_ZN2kc42impl_includedeclaration_IncludeDeclaration7rewriteERNS_11rview_classE
	.cfi_endproc
                                        # -- End function
	.globl	_ZN2kc19impl_rwdeclarations7rewriteERNS_11rview_classE # -- Begin function _ZN2kc19impl_rwdeclarations7rewriteERNS_11rview_classE
	.p2align	2
	.type	_ZN2kc19impl_rwdeclarations7rewriteERNS_11rview_classE,@function
_ZN2kc19impl_rwdeclarations7rewriteERNS_11rview_classE: # @_ZN2kc19impl_rwdeclarations7rewriteERNS_11rview_classE
	.cfi_startproc
# %bb.0:                                # %entry
	addi.d	$sp, $sp, -32
	.cfi_def_cfa_offset 32
	st.d	$ra, $sp, 24                    # 8-byte Folded Spill
	st.d	$fp, $sp, 16                    # 8-byte Folded Spill
	st.d	$s0, $sp, 8                     # 8-byte Folded Spill
	st.d	$s1, $sp, 0                     # 8-byte Folded Spill
	.cfi_offset 1, -8
	.cfi_offset 22, -16
	.cfi_offset 23, -24
	.cfi_offset 24, -32
	move	$fp, $a0
	ld.d	$a0, $a0, 0
	ld.d	$a2, $a0, 88
	move	$s0, $a1
	move	$a0, $fp
	jirl	$ra, $a2, 0
	bnez	$a0, .LBB46_4
# %bb.1:                                # %if.else
	ld.d	$a0, $fp, 8
	ld.d	$a1, $a0, 0
	ld.d	$a2, $a1, 24
	move	$a1, $s0
	jirl	$ra, $a2, 0
	ld.d	$a1, $fp, 16
	ld.d	$a2, $a1, 0
	ld.d	$a2, $a2, 24
	move	$s1, $a0
	move	$a0, $a1
	move	$a1, $s0
	jirl	$ra, $a2, 0
	ld.d	$a2, $fp, 8
	move	$a1, $a0
	bne	$s1, $a2, .LBB46_3
# %bb.2:                                # %if.else
	ld.d	$a2, $fp, 16
	beq	$a1, $a2, .LBB46_4
.LBB46_3:                               # %if.else12
	move	$a0, $s1
	pcaddu18i	$ra, %call36(_ZN2kc18ConsrwdeclarationsEPNS_18impl_rwdeclarationEPNS_19impl_rwdeclarationsE)
	jirl	$ra, $ra, 0
	move	$s0, $a0
	ld.d	$a0, $a0, 0
	ld.d	$a2, $a0, 40
	move	$a0, $s0
	move	$a1, $fp
	jirl	$ra, $a2, 0
	move	$fp, $s0
.LBB46_4:                               # %return
	move	$a0, $fp
	ld.d	$s1, $sp, 0                     # 8-byte Folded Reload
	ld.d	$s0, $sp, 8                     # 8-byte Folded Reload
	ld.d	$fp, $sp, 16                    # 8-byte Folded Reload
	ld.d	$ra, $sp, 24                    # 8-byte Folded Reload
	addi.d	$sp, $sp, 32
	ret
.Lfunc_end46:
	.size	_ZN2kc19impl_rwdeclarations7rewriteERNS_11rview_classE, .Lfunc_end46-_ZN2kc19impl_rwdeclarations7rewriteERNS_11rview_classE
	.cfi_endproc
                                        # -- End function
	.globl	_ZN2kc32impl_rwdeclaration_RwDeclaration7rewriteERNS_11rview_classE # -- Begin function _ZN2kc32impl_rwdeclaration_RwDeclaration7rewriteERNS_11rview_classE
	.p2align	2
	.type	_ZN2kc32impl_rwdeclaration_RwDeclaration7rewriteERNS_11rview_classE,@function
_ZN2kc32impl_rwdeclaration_RwDeclaration7rewriteERNS_11rview_classE: # @_ZN2kc32impl_rwdeclaration_RwDeclaration7rewriteERNS_11rview_classE
	.cfi_startproc
# %bb.0:                                # %entry
	addi.d	$sp, $sp, -32
	.cfi_def_cfa_offset 32
	st.d	$ra, $sp, 24                    # 8-byte Folded Spill
	st.d	$fp, $sp, 16                    # 8-byte Folded Spill
	st.d	$s0, $sp, 8                     # 8-byte Folded Spill
	st.d	$s1, $sp, 0                     # 8-byte Folded Spill
	.cfi_offset 1, -8
	.cfi_offset 22, -16
	.cfi_offset 23, -24
	.cfi_offset 24, -32
	move	$fp, $a0
	ld.d	$a0, $a0, 8
	ld.d	$a2, $a0, 0
	ld.d	$a2, $a2, 24
	move	$s0, $a1
	jirl	$ra, $a2, 0
	ld.d	$a1, $fp, 16
	ld.d	$a2, $a1, 0
	ld.d	$a2, $a2, 24
	move	$s1, $a0
	move	$a0, $a1
	move	$a1, $s0
	jirl	$ra, $a2, 0
	ld.d	$a2, $fp, 8
	move	$a1, $a0
	bne	$s1, $a2, .LBB47_2
# %bb.1:                                # %entry
	ld.d	$a2, $fp, 16
	beq	$a1, $a2, .LBB47_3
.LBB47_2:                               # %if.else
	move	$a0, $s1
	pcaddu18i	$ra, %call36(_ZN2kc13RwDeclarationEPNS_20impl_outmostpatternsEPNS_19impl_rewriteclausesE)
	jirl	$ra, $ra, 0
	move	$s0, $a0
	ld.d	$a0, $a0, 0
	ld.d	$a2, $a0, 40
	move	$a0, $s0
	move	$a1, $fp
	jirl	$ra, $a2, 0
	move	$fp, $s0
.LBB47_3:                               # %cleanup
	move	$a0, $fp
	ld.d	$s1, $sp, 0                     # 8-byte Folded Reload
	ld.d	$s0, $sp, 8                     # 8-byte Folded Reload
	ld.d	$fp, $sp, 16                    # 8-byte Folded Reload
	ld.d	$ra, $sp, 24                    # 8-byte Folded Reload
	addi.d	$sp, $sp, 32
	ret
.Lfunc_end47:
	.size	_ZN2kc32impl_rwdeclaration_RwDeclaration7rewriteERNS_11rview_classE, .Lfunc_end47-_ZN2kc32impl_rwdeclaration_RwDeclaration7rewriteERNS_11rview_classE
	.cfi_endproc
                                        # -- End function
	.globl	_ZN2kc19impl_rewriteclauses7rewriteERNS_11rview_classE # -- Begin function _ZN2kc19impl_rewriteclauses7rewriteERNS_11rview_classE
	.p2align	2
	.type	_ZN2kc19impl_rewriteclauses7rewriteERNS_11rview_classE,@function
_ZN2kc19impl_rewriteclauses7rewriteERNS_11rview_classE: # @_ZN2kc19impl_rewriteclauses7rewriteERNS_11rview_classE
	.cfi_startproc
# %bb.0:                                # %entry
	addi.d	$sp, $sp, -32
	.cfi_def_cfa_offset 32
	st.d	$ra, $sp, 24                    # 8-byte Folded Spill
	st.d	$fp, $sp, 16                    # 8-byte Folded Spill
	st.d	$s0, $sp, 8                     # 8-byte Folded Spill
	st.d	$s1, $sp, 0                     # 8-byte Folded Spill
	.cfi_offset 1, -8
	.cfi_offset 22, -16
	.cfi_offset 23, -24
	.cfi_offset 24, -32
	move	$fp, $a0
	ld.d	$a0, $a0, 0
	ld.d	$a2, $a0, 88
	move	$s0, $a1
	move	$a0, $fp
	jirl	$ra, $a2, 0
	bnez	$a0, .LBB48_4
# %bb.1:                                # %if.else
	ld.d	$a0, $fp, 8
	ld.d	$a1, $a0, 0
	ld.d	$a2, $a1, 24
	move	$a1, $s0
	jirl	$ra, $a2, 0
	ld.d	$a1, $fp, 16
	ld.d	$a2, $a1, 0
	ld.d	$a2, $a2, 24
	move	$s1, $a0
	move	$a0, $a1
	move	$a1, $s0
	jirl	$ra, $a2, 0
	ld.d	$a2, $fp, 8
	move	$a1, $a0
	bne	$s1, $a2, .LBB48_3
# %bb.2:                                # %if.else
	ld.d	$a2, $fp, 16
	beq	$a1, $a2, .LBB48_4
.LBB48_3:                               # %if.else12
	move	$a0, $s1
	pcaddu18i	$ra, %call36(_ZN2kc18ConsrewriteclausesEPNS_18impl_rewriteclauseEPNS_19impl_rewriteclausesE)
	jirl	$ra, $ra, 0
	move	$s0, $a0
	ld.d	$a0, $a0, 0
	ld.d	$a2, $a0, 40
	move	$a0, $s0
	move	$a1, $fp
	jirl	$ra, $a2, 0
	move	$fp, $s0
.LBB48_4:                               # %return
	move	$a0, $fp
	ld.d	$s1, $sp, 0                     # 8-byte Folded Reload
	ld.d	$s0, $sp, 8                     # 8-byte Folded Reload
	ld.d	$fp, $sp, 16                    # 8-byte Folded Reload
	ld.d	$ra, $sp, 24                    # 8-byte Folded Reload
	addi.d	$sp, $sp, 32
	ret
.Lfunc_end48:
	.size	_ZN2kc19impl_rewriteclauses7rewriteERNS_11rview_classE, .Lfunc_end48-_ZN2kc19impl_rewriteclauses7rewriteERNS_11rview_classE
	.cfi_endproc
                                        # -- End function
	.globl	_ZN2kc32impl_rewriteclause_RewriteClause7rewriteERNS_11rview_classE # -- Begin function _ZN2kc32impl_rewriteclause_RewriteClause7rewriteERNS_11rview_classE
	.p2align	2
	.type	_ZN2kc32impl_rewriteclause_RewriteClause7rewriteERNS_11rview_classE,@function
_ZN2kc32impl_rewriteclause_RewriteClause7rewriteERNS_11rview_classE: # @_ZN2kc32impl_rewriteclause_RewriteClause7rewriteERNS_11rview_classE
	.cfi_startproc
# %bb.0:                                # %entry
	addi.d	$sp, $sp, -32
	.cfi_def_cfa_offset 32
	st.d	$ra, $sp, 24                    # 8-byte Folded Spill
	st.d	$fp, $sp, 16                    # 8-byte Folded Spill
	st.d	$s0, $sp, 8                     # 8-byte Folded Spill
	st.d	$s1, $sp, 0                     # 8-byte Folded Spill
	.cfi_offset 1, -8
	.cfi_offset 22, -16
	.cfi_offset 23, -24
	.cfi_offset 24, -32
	move	$fp, $a0
	ld.d	$a0, $a0, 8
	ld.d	$a2, $a0, 0
	ld.d	$a2, $a2, 24
	move	$s0, $a1
	jirl	$ra, $a2, 0
	ld.d	$a1, $fp, 16
	ld.d	$a2, $a1, 0
	ld.d	$a2, $a2, 24
	move	$s1, $a0
	move	$a0, $a1
	move	$a1, $s0
	jirl	$ra, $a2, 0
	ld.d	$a2, $fp, 8
	move	$a1, $a0
	bne	$s1, $a2, .LBB49_2
# %bb.1:                                # %entry
	ld.d	$a2, $fp, 16
	beq	$a1, $a2, .LBB49_3
.LBB49_2:                               # %if.else
	move	$a0, $s1
	pcaddu18i	$ra, %call36(_ZN2kc13RewriteClauseEPNS_14impl_viewnamesEPNS_9impl_termE)
	jirl	$ra, $ra, 0
	move	$s0, $a0
	ld.d	$a0, $a0, 0
	ld.d	$a2, $a0, 40
	move	$a0, $s0
	move	$a1, $fp
	jirl	$ra, $a2, 0
	move	$fp, $s0
.LBB49_3:                               # %cleanup
	move	$a0, $fp
	ld.d	$s1, $sp, 0                     # 8-byte Folded Reload
	ld.d	$s0, $sp, 8                     # 8-byte Folded Reload
	ld.d	$fp, $sp, 16                    # 8-byte Folded Reload
	ld.d	$ra, $sp, 24                    # 8-byte Folded Reload
	addi.d	$sp, $sp, 32
	ret
.Lfunc_end49:
	.size	_ZN2kc32impl_rewriteclause_RewriteClause7rewriteERNS_11rview_classE, .Lfunc_end49-_ZN2kc32impl_rewriteclause_RewriteClause7rewriteERNS_11rview_classE
	.cfi_endproc
                                        # -- End function
	.globl	_ZN2kc18impl_patternchains7rewriteERNS_11rview_classE # -- Begin function _ZN2kc18impl_patternchains7rewriteERNS_11rview_classE
	.p2align	2
	.type	_ZN2kc18impl_patternchains7rewriteERNS_11rview_classE,@function
_ZN2kc18impl_patternchains7rewriteERNS_11rview_classE: # @_ZN2kc18impl_patternchains7rewriteERNS_11rview_classE
	.cfi_startproc
# %bb.0:                                # %entry
	addi.d	$sp, $sp, -48
	.cfi_def_cfa_offset 48
	st.d	$ra, $sp, 40                    # 8-byte Folded Spill
	st.d	$fp, $sp, 32                    # 8-byte Folded Spill
	st.d	$s0, $sp, 24                    # 8-byte Folded Spill
	st.d	$s1, $sp, 16                    # 8-byte Folded Spill
	st.d	$s2, $sp, 8                     # 8-byte Folded Spill
	st.d	$s3, $sp, 0                     # 8-byte Folded Spill
	.cfi_offset 1, -8
	.cfi_offset 22, -16
	.cfi_offset 23, -24
	.cfi_offset 24, -32
	.cfi_offset 25, -40
	.cfi_offset 26, -48
	move	$fp, $a0
	ld.d	$a0, $a0, 0
	ld.d	$a2, $a0, 88
	move	$s0, $a1
	move	$a0, $fp
	jirl	$ra, $a2, 0
	bnez	$a0, .LBB50_15
# %bb.1:                                # %if.else
	ld.d	$a0, $fp, 24
	ld.d	$a1, $a0, 0
	ld.d	$a2, $a1, 24
	move	$a1, $s0
	jirl	$ra, $a2, 0
	ld.d	$a1, $fp, 32
	ld.d	$a2, $a1, 0
	ld.d	$a2, $a2, 24
	move	$s1, $a0
	move	$a0, $a1
	move	$a1, $s0
	jirl	$ra, $a2, 0
	ld.d	$a1, $s1, 0
	ld.d	$a1, $a1, 0
	move	$s2, $a0
	move	$a0, $s1
	jirl	$ra, $a1, 0
	ori	$s3, $zero, 74
	bne	$a0, $s3, .LBB50_6
# %bb.2:                                # %land.lhs.true
	ld.d	$a0, $s1, 24
	ld.d	$a1, $a0, 0
	ld.d	$a1, $a1, 0
	jirl	$ra, $a1, 0
	ori	$a1, $zero, 78
	bne	$a0, $a1, .LBB50_6
# %bb.3:                                # %land.lhs.true16
	ld.d	$a0, $s1, 32
	ld.d	$a1, $a0, 0
	ld.d	$a1, $a1, 0
	jirl	$ra, $a1, 0
	ori	$a1, $zero, 73
	bne	$a0, $a1, .LBB50_6
# %bb.4:                                # %land.lhs.true22
	ld.d	$a0, $s2, 0
	ld.d	$a1, $a0, 0
	move	$a0, $s2
	jirl	$ra, $a1, 0
	ori	$a1, $zero, 71
	bne	$a0, $a1, .LBB50_6
# %bb.5:                                # %if.then27
	ld.d	$a0, $s1, 24
	ld.d	$a0, $a0, 32
	bne	$a0, $fp, .LBB50_11
	b	.LBB50_15
.LBB50_6:                               # %if.else35
	ld.d	$a0, $s1, 0
	ld.d	$a1, $a0, 0
	move	$a0, $s1
	jirl	$ra, $a1, 0
	bne	$a0, $s3, .LBB50_12
# %bb.7:                                # %land.lhs.true40
	ld.d	$a0, $s1, 24
	ld.d	$a1, $a0, 0
	ld.d	$a1, $a1, 0
	jirl	$ra, $a1, 0
	ori	$a1, $zero, 78
	bne	$a0, $a1, .LBB50_12
# %bb.8:                                # %land.lhs.true46
	ld.d	$a0, $s1, 32
	ld.d	$a1, $a0, 0
	ld.d	$a1, $a1, 0
	jirl	$ra, $a1, 0
	ori	$a1, $zero, 73
	bne	$a0, $a1, .LBB50_12
# %bb.9:                                # %land.lhs.true52
	ld.d	$a0, $s2, 0
	ld.d	$a1, $a0, 0
	move	$a0, $s2
	jirl	$ra, $a1, 0
	ori	$a1, $zero, 72
	bne	$a0, $a1, .LBB50_12
# %bb.10:                               # %if.then57
	ld.d	$a0, $s1, 24
	ld.d	$a0, $a0, 32
	move	$a1, $s2
	pcaddu18i	$ra, %call36(_ZN2kc6concatEPKNS_18impl_patternchainsES2_)
	jirl	$ra, $ra, 0
	beq	$a0, $fp, .LBB50_15
.LBB50_11:                              # %cond.false
	ld.d	$a1, $a0, 0
	ld.d	$a2, $a1, 24
	move	$a1, $s0
	ld.d	$s3, $sp, 0                     # 8-byte Folded Reload
	ld.d	$s2, $sp, 8                     # 8-byte Folded Reload
	ld.d	$s1, $sp, 16                    # 8-byte Folded Reload
	ld.d	$s0, $sp, 24                    # 8-byte Folded Reload
	ld.d	$fp, $sp, 32                    # 8-byte Folded Reload
	ld.d	$ra, $sp, 40                    # 8-byte Folded Reload
	addi.d	$sp, $sp, 48
	jr	$a2
.LBB50_12:                              # %sw.epilog
	ld.d	$a0, $fp, 24
	bne	$s1, $a0, .LBB50_14
# %bb.13:                               # %sw.epilog
	ld.d	$a0, $fp, 32
	beq	$s2, $a0, .LBB50_15
.LBB50_14:                              # %if.else79
	move	$a0, $s1
	move	$a1, $s2
	pcaddu18i	$ra, %call36(_ZN2kc17ConspatternchainsEPNS_17impl_patternchainEPNS_18impl_patternchainsE)
	jirl	$ra, $ra, 0
	move	$s0, $a0
	ld.d	$a0, $a0, 0
	ld.d	$a2, $a0, 40
	move	$a0, $s0
	move	$a1, $fp
	jirl	$ra, $a2, 0
	move	$fp, $s0
.LBB50_15:                              # %return
	move	$a0, $fp
	ld.d	$s3, $sp, 0                     # 8-byte Folded Reload
	ld.d	$s2, $sp, 8                     # 8-byte Folded Reload
	ld.d	$s1, $sp, 16                    # 8-byte Folded Reload
	ld.d	$s0, $sp, 24                    # 8-byte Folded Reload
	ld.d	$fp, $sp, 32                    # 8-byte Folded Reload
	ld.d	$ra, $sp, 40                    # 8-byte Folded Reload
	addi.d	$sp, $sp, 48
	ret
.Lfunc_end50:
	.size	_ZN2kc18impl_patternchains7rewriteERNS_11rview_classE, .Lfunc_end50-_ZN2kc18impl_patternchains7rewriteERNS_11rview_classE
	.cfi_endproc
                                        # -- End function
	.globl	_ZN2kc17impl_patternchain7rewriteERNS_11rview_classE # -- Begin function _ZN2kc17impl_patternchain7rewriteERNS_11rview_classE
	.p2align	2
	.type	_ZN2kc17impl_patternchain7rewriteERNS_11rview_classE,@function
_ZN2kc17impl_patternchain7rewriteERNS_11rview_classE: # @_ZN2kc17impl_patternchain7rewriteERNS_11rview_classE
	.cfi_startproc
# %bb.0:                                # %entry
	addi.d	$sp, $sp, -64
	.cfi_def_cfa_offset 64
	st.d	$ra, $sp, 56                    # 8-byte Folded Spill
	st.d	$fp, $sp, 48                    # 8-byte Folded Spill
	st.d	$s0, $sp, 40                    # 8-byte Folded Spill
	st.d	$s1, $sp, 32                    # 8-byte Folded Spill
	st.d	$s2, $sp, 24                    # 8-byte Folded Spill
	st.d	$s3, $sp, 16                    # 8-byte Folded Spill
	st.d	$s4, $sp, 8                     # 8-byte Folded Spill
	.cfi_offset 1, -8
	.cfi_offset 22, -16
	.cfi_offset 23, -24
	.cfi_offset 24, -32
	.cfi_offset 25, -40
	.cfi_offset 26, -48
	.cfi_offset 27, -56
	move	$s0, $a0
	ld.d	$a0, $a0, 0
	ld.d	$a2, $a0, 88
	move	$fp, $a1
	move	$a0, $s0
	jirl	$ra, $a2, 0
	bnez	$a0, .LBB51_64
# %bb.1:                                # %if.else
	ld.d	$a0, $s0, 24
	ld.d	$a1, $a0, 0
	ld.d	$a2, $a1, 24
	move	$a1, $fp
	jirl	$ra, $a2, 0
	ld.d	$a1, $s0, 32
	ld.d	$a2, $a1, 0
	ld.d	$a2, $a2, 24
	move	$s1, $a0
	move	$a0, $a1
	move	$a1, $fp
	jirl	$ra, $a2, 0
	ld.d	$a1, $s1, 0
	ld.d	$a1, $a1, 0
	move	$s2, $a0
	move	$a0, $s1
	jirl	$ra, $a1, 0
	ori	$s3, $zero, 78
	bne	$a0, $s3, .LBB51_10
# %bb.2:                                # %land.lhs.true
	ld.d	$a0, $s1, 32
	ld.d	$a1, $a0, 0
	ld.d	$a1, $a1, 0
	jirl	$ra, $a1, 0
	ori	$s4, $zero, 72
	bne	$a0, $s4, .LBB51_10
# %bb.3:                                # %land.lhs.true17
	ld.d	$a0, $s1, 32
	ld.d	$a0, $a0, 32
	ld.d	$a1, $a0, 0
	ld.d	$a1, $a1, 0
	jirl	$ra, $a1, 0
	bne	$a0, $s4, .LBB51_10
# %bb.4:                                # %land.lhs.true25
	ld.d	$a0, $s2, 0
	ld.d	$a1, $a0, 0
	move	$a0, $s2
	jirl	$ra, $a1, 0
	ori	$a1, $zero, 74
	bne	$a0, $a1, .LBB51_10
# %bb.5:                                # %land.lhs.true30
	ld.d	$a0, $s2, 24
	ld.d	$a1, $a0, 0
	ld.d	$a1, $a1, 0
	jirl	$ra, $a1, 0
	ori	$a1, $zero, 78
	bne	$a0, $a1, .LBB51_10
# %bb.6:                                # %land.lhs.true36
	ld.d	$a0, $s2, 24
	ld.d	$a0, $a0, 32
	ld.d	$a1, $a0, 0
	ld.d	$a1, $a1, 0
	jirl	$ra, $a1, 0
	ori	$a1, $zero, 72
	bne	$a0, $a1, .LBB51_10
# %bb.7:                                # %land.lhs.true44
	ld.d	$a0, $s2, 24
	ld.d	$a0, $a0, 32
	ld.d	$a0, $a0, 32
	ld.d	$a1, $a0, 0
	ld.d	$a1, $a1, 0
	jirl	$ra, $a1, 0
	ori	$a1, $zero, 71
	bne	$a0, $a1, .LBB51_10
# %bb.8:                                # %land.lhs.true53
	ld.d	$a0, $s2, 32
	ld.d	$a1, $a0, 0
	ld.d	$a1, $a1, 0
	jirl	$ra, $a1, 0
	ori	$a1, $zero, 73
	bne	$a0, $a1, .LBB51_10
# %bb.9:                                # %if.then59
	ld.d	$a0, $s2, 24
	ld.d	$a1, $s1, 32
	ld.d	$a2, $a0, 32
	ld.d	$a0, $a1, 24
	ld.d	$s1, $a1, 32
	ld.d	$s2, $a2, 24
	b	.LBB51_40
.LBB51_10:                              # %if.else83
	ld.d	$a0, $s1, 0
	ld.d	$a1, $a0, 0
	move	$a0, $s1
	jirl	$ra, $a1, 0
	bne	$a0, $s3, .LBB51_18
# %bb.11:                               # %land.lhs.true88
	ld.d	$a0, $s1, 32
	ld.d	$a1, $a0, 0
	ld.d	$a1, $a1, 0
	jirl	$ra, $a1, 0
	ori	$s3, $zero, 72
	bne	$a0, $s3, .LBB51_18
# %bb.12:                               # %land.lhs.true95
	ld.d	$a0, $s1, 32
	ld.d	$a0, $a0, 32
	ld.d	$a1, $a0, 0
	ld.d	$a1, $a1, 0
	jirl	$ra, $a1, 0
	bne	$a0, $s3, .LBB51_18
# %bb.13:                               # %land.lhs.true103
	ld.d	$a0, $s2, 0
	ld.d	$a1, $a0, 0
	move	$a0, $s2
	jirl	$ra, $a1, 0
	ori	$a1, $zero, 74
	bne	$a0, $a1, .LBB51_18
# %bb.14:                               # %land.lhs.true108
	ld.d	$a0, $s2, 24
	ld.d	$a1, $a0, 0
	ld.d	$a1, $a1, 0
	jirl	$ra, $a1, 0
	ori	$a1, $zero, 78
	bne	$a0, $a1, .LBB51_18
# %bb.15:                               # %land.lhs.true114
	ld.d	$a0, $s2, 24
	ld.d	$a0, $a0, 32
	ld.d	$a1, $a0, 0
	ld.d	$a1, $a1, 0
	jirl	$ra, $a1, 0
	ori	$s3, $zero, 72
	bne	$a0, $s3, .LBB51_18
# %bb.16:                               # %land.lhs.true122
	ld.d	$a0, $s2, 24
	ld.d	$a0, $a0, 32
	ld.d	$a0, $a0, 32
	ld.d	$a1, $a0, 0
	ld.d	$a1, $a1, 0
	jirl	$ra, $a1, 0
	bne	$a0, $s3, .LBB51_18
# %bb.17:                               # %land.lhs.true131
	ld.d	$a0, $s2, 32
	ld.d	$a1, $a0, 0
	ld.d	$a1, $a1, 0
	jirl	$ra, $a1, 0
	ori	$a1, $zero, 73
	beq	$a0, $a1, .LBB51_39
.LBB51_18:                              # %if.else165
	ld.d	$a0, $s1, 0
	ld.d	$a1, $a0, 0
	move	$a0, $s1
	jirl	$ra, $a1, 0
	ori	$s3, $zero, 78
	bne	$a0, $s3, .LBB51_27
# %bb.19:                               # %land.lhs.true170
	ld.d	$a0, $s1, 32
	ld.d	$a1, $a0, 0
	ld.d	$a1, $a1, 0
	jirl	$ra, $a1, 0
	ori	$a1, $zero, 72
	bne	$a0, $a1, .LBB51_27
# %bb.20:                               # %land.lhs.true177
	ld.d	$a0, $s1, 32
	ld.d	$a0, $a0, 32
	ld.d	$a1, $a0, 0
	ld.d	$a1, $a1, 0
	jirl	$ra, $a1, 0
	ori	$a1, $zero, 71
	bne	$a0, $a1, .LBB51_27
# %bb.21:                               # %land.lhs.true185
	ld.d	$a0, $s2, 0
	ld.d	$a1, $a0, 0
	move	$a0, $s2
	jirl	$ra, $a1, 0
	ori	$a1, $zero, 74
	bne	$a0, $a1, .LBB51_27
# %bb.22:                               # %land.lhs.true190
	ld.d	$a0, $s2, 24
	ld.d	$a1, $a0, 0
	ld.d	$a1, $a1, 0
	jirl	$ra, $a1, 0
	ori	$a1, $zero, 78
	bne	$a0, $a1, .LBB51_27
# %bb.23:                               # %land.lhs.true196
	ld.d	$a0, $s2, 24
	ld.d	$a0, $a0, 32
	ld.d	$a1, $a0, 0
	ld.d	$a1, $a1, 0
	jirl	$ra, $a1, 0
	ori	$a1, $zero, 72
	bne	$a0, $a1, .LBB51_27
# %bb.24:                               # %land.lhs.true204
	ld.d	$a0, $s2, 24
	ld.d	$a0, $a0, 32
	ld.d	$a0, $a0, 32
	ld.d	$a1, $a0, 0
	ld.d	$a1, $a1, 0
	jirl	$ra, $a1, 0
	ori	$a1, $zero, 71
	bne	$a0, $a1, .LBB51_27
# %bb.25:                               # %land.lhs.true213
	ld.d	$a0, $s2, 32
	ld.d	$a1, $a0, 0
	ld.d	$a1, $a1, 0
	jirl	$ra, $a1, 0
	ori	$a1, $zero, 73
	bne	$a0, $a1, .LBB51_27
# %bb.26:                               # %if.then219
	ld.d	$a0, $s2, 24
	ld.d	$a1, $s1, 32
	ld.d	$a2, $a0, 32
	ld.d	$a0, $a1, 24
	ld.d	$a1, $a2, 24
	b	.LBB51_46
.LBB51_27:                              # %if.else237
	ld.d	$a0, $s1, 0
	ld.d	$a1, $a0, 0
	move	$a0, $s1
	jirl	$ra, $a1, 0
	bne	$a0, $s3, .LBB51_35
# %bb.28:                               # %land.lhs.true242
	ld.d	$a0, $s1, 32
	ld.d	$a1, $a0, 0
	ld.d	$a1, $a1, 0
	jirl	$ra, $a1, 0
	ori	$a1, $zero, 72
	bne	$a0, $a1, .LBB51_35
# %bb.29:                               # %land.lhs.true249
	ld.d	$a0, $s1, 32
	ld.d	$a0, $a0, 32
	ld.d	$a1, $a0, 0
	ld.d	$a1, $a1, 0
	jirl	$ra, $a1, 0
	ori	$a1, $zero, 71
	bne	$a0, $a1, .LBB51_35
# %bb.30:                               # %land.lhs.true257
	ld.d	$a0, $s2, 0
	ld.d	$a1, $a0, 0
	move	$a0, $s2
	jirl	$ra, $a1, 0
	ori	$a1, $zero, 74
	bne	$a0, $a1, .LBB51_35
# %bb.31:                               # %land.lhs.true262
	ld.d	$a0, $s2, 24
	ld.d	$a1, $a0, 0
	ld.d	$a1, $a1, 0
	jirl	$ra, $a1, 0
	ori	$a1, $zero, 78
	bne	$a0, $a1, .LBB51_35
# %bb.32:                               # %land.lhs.true268
	ld.d	$a0, $s2, 24
	ld.d	$a0, $a0, 32
	ld.d	$a1, $a0, 0
	ld.d	$a1, $a1, 0
	jirl	$ra, $a1, 0
	ori	$s3, $zero, 72
	bne	$a0, $s3, .LBB51_35
# %bb.33:                               # %land.lhs.true276
	ld.d	$a0, $s2, 24
	ld.d	$a0, $a0, 32
	ld.d	$a0, $a0, 32
	ld.d	$a1, $a0, 0
	ld.d	$a1, $a1, 0
	jirl	$ra, $a1, 0
	bne	$a0, $s3, .LBB51_35
# %bb.34:                               # %land.lhs.true285
	ld.d	$a0, $s2, 32
	ld.d	$a1, $a0, 0
	ld.d	$a1, $a1, 0
	jirl	$ra, $a1, 0
	ori	$a1, $zero, 73
	beq	$a0, $a1, .LBB51_45
.LBB51_35:                              # %if.else307
	ld.d	$a0, $s1, 0
	ld.d	$a1, $a0, 0
	move	$a0, $s1
	jirl	$ra, $a1, 0
	ori	$s3, $zero, 78
	bne	$a0, $s3, .LBB51_41
# %bb.36:                               # %land.lhs.true312
	ld.d	$a0, $s1, 32
	ld.d	$a1, $a0, 0
	ld.d	$a1, $a1, 0
	jirl	$ra, $a1, 0
	ori	$s4, $zero, 72
	bne	$a0, $s4, .LBB51_41
# %bb.37:                               # %land.lhs.true319
	ld.d	$a0, $s1, 32
	ld.d	$a0, $a0, 32
	ld.d	$a1, $a0, 0
	ld.d	$a1, $a1, 0
	jirl	$ra, $a1, 0
	bne	$a0, $s4, .LBB51_41
# %bb.38:                               # %land.lhs.true327
	ld.d	$a0, $s2, 0
	ld.d	$a1, $a0, 0
	move	$a0, $s2
	jirl	$ra, $a1, 0
	ori	$a1, $zero, 74
	bne	$a0, $a1, .LBB51_41
.LBB51_39:                              # %if.then137
	ld.d	$a1, $s1, 32
	ld.d	$a0, $a1, 24
	ld.d	$s1, $a1, 32
.LBB51_40:                              # %if.then59
	move	$a1, $s2
	pcaddu18i	$ra, %call36(_ZN2kc6concatEPKNS_17impl_patternchainES2_)
	jirl	$ra, $ra, 0
	move	$s3, $a0
	move	$a0, $s1
	pcaddu18i	$ra, %call36(_ZN2kc21PatternchainitemGroupEPNS_18impl_patternchainsE)
	jirl	$ra, $ra, 0
	move	$a1, $s2
	b	.LBB51_53
.LBB51_41:                              # %if.else360
	ld.d	$a0, $s1, 0
	ld.d	$a1, $a0, 0
	move	$a0, $s1
	jirl	$ra, $a1, 0
	bne	$a0, $s3, .LBB51_47
# %bb.42:                               # %land.lhs.true365
	ld.d	$a0, $s1, 32
	ld.d	$a1, $a0, 0
	ld.d	$a1, $a1, 0
	jirl	$ra, $a1, 0
	ori	$a1, $zero, 72
	bne	$a0, $a1, .LBB51_47
# %bb.43:                               # %land.lhs.true372
	ld.d	$a0, $s1, 32
	ld.d	$a0, $a0, 32
	ld.d	$a1, $a0, 0
	ld.d	$a1, $a1, 0
	jirl	$ra, $a1, 0
	ori	$a1, $zero, 71
	bne	$a0, $a1, .LBB51_47
# %bb.44:                               # %land.lhs.true380
	ld.d	$a0, $s2, 0
	ld.d	$a1, $a0, 0
	move	$a0, $s2
	jirl	$ra, $a1, 0
	ori	$a1, $zero, 74
	bne	$a0, $a1, .LBB51_47
.LBB51_45:                              # %if.then291
	ld.d	$a0, $s1, 32
	ld.d	$a0, $a0, 24
	move	$a1, $s2
.LBB51_46:                              # %if.then291
	pcaddu18i	$ra, %call36(_ZN2kc6concatEPKNS_17impl_patternchainES2_)
	jirl	$ra, $ra, 0
	bne	$a0, $s0, .LBB51_60
	b	.LBB51_64
.LBB51_47:                              # %if.else401
	ld.d	$a0, $s2, 0
	ld.d	$a1, $a0, 0
	move	$a0, $s2
	jirl	$ra, $a1, 0
	ori	$s3, $zero, 74
	bne	$a0, $s3, .LBB51_54
# %bb.48:                               # %land.lhs.true406
	ld.d	$a0, $s2, 24
	ld.d	$a1, $a0, 0
	ld.d	$a1, $a1, 0
	jirl	$ra, $a1, 0
	ori	$a1, $zero, 78
	bne	$a0, $a1, .LBB51_54
# %bb.49:                               # %land.lhs.true412
	ld.d	$a0, $s2, 24
	ld.d	$a0, $a0, 32
	ld.d	$a1, $a0, 0
	ld.d	$a1, $a1, 0
	jirl	$ra, $a1, 0
	ori	$s4, $zero, 72
	bne	$a0, $s4, .LBB51_54
# %bb.50:                               # %land.lhs.true420
	ld.d	$a0, $s2, 24
	ld.d	$a0, $a0, 32
	ld.d	$a0, $a0, 32
	ld.d	$a1, $a0, 0
	ld.d	$a1, $a1, 0
	jirl	$ra, $a1, 0
	bne	$a0, $s4, .LBB51_54
# %bb.51:                               # %land.lhs.true429
	ld.d	$a0, $s2, 32
	ld.d	$a1, $a0, 0
	ld.d	$a1, $a1, 0
	jirl	$ra, $a1, 0
	ori	$a1, $zero, 73
	bne	$a0, $a1, .LBB51_54
# %bb.52:                               # %if.then435
	ld.d	$a0, $s2, 24
	ld.d	$a0, $a0, 32
	ld.d	$a1, $a0, 24
	ld.d	$s2, $a0, 32
	move	$a0, $s1
	pcaddu18i	$ra, %call36(_ZN2kc16ConspatternchainEPNS_21impl_patternchainitemEPNS_17impl_patternchainE)
	jirl	$ra, $ra, 0
	move	$s3, $a0
	move	$a0, $s2
	pcaddu18i	$ra, %call36(_ZN2kc21PatternchainitemGroupEPNS_18impl_patternchainsE)
	jirl	$ra, $ra, 0
	move	$s2, $a0
	pcaddu18i	$ra, %call36(_ZN2kc15NilpatternchainEv)
	jirl	$ra, $ra, 0
	move	$a1, $a0
	move	$a0, $s2
	pcaddu18i	$ra, %call36(_ZN2kc16ConspatternchainEPNS_21impl_patternchainitemEPNS_17impl_patternchainE)
	jirl	$ra, $ra, 0
	move	$a1, $a0
	move	$a0, $s1
.LBB51_53:                              # %if.then59
	pcaddu18i	$ra, %call36(_ZN2kc16ConspatternchainEPNS_21impl_patternchainitemEPNS_17impl_patternchainE)
	jirl	$ra, $ra, 0
	move	$s1, $a0
	pcaddu18i	$ra, %call36(_ZN2kc16NilpatternchainsEv)
	jirl	$ra, $ra, 0
	move	$a1, $a0
	move	$a0, $s1
	pcaddu18i	$ra, %call36(_ZN2kc17ConspatternchainsEPNS_17impl_patternchainEPNS_18impl_patternchainsE)
	jirl	$ra, $ra, 0
	move	$a1, $a0
	move	$a0, $s3
	pcaddu18i	$ra, %call36(_ZN2kc17ConspatternchainsEPNS_17impl_patternchainEPNS_18impl_patternchainsE)
	jirl	$ra, $ra, 0
	pcaddu18i	$ra, %call36(_ZN2kc21PatternchainitemGroupEPNS_18impl_patternchainsE)
	jirl	$ra, $ra, 0
	move	$s1, $a0
	pcaddu18i	$ra, %call36(_ZN2kc15NilpatternchainEv)
	jirl	$ra, $ra, 0
	move	$a1, $a0
	move	$a0, $s1
	pcaddu18i	$ra, %call36(_ZN2kc16ConspatternchainEPNS_21impl_patternchainitemEPNS_17impl_patternchainE)
	jirl	$ra, $ra, 0
	bne	$a0, $s0, .LBB51_60
	b	.LBB51_64
.LBB51_54:                              # %if.else466
	ld.d	$a0, $s2, 0
	ld.d	$a1, $a0, 0
	move	$a0, $s2
	jirl	$ra, $a1, 0
	bne	$a0, $s3, .LBB51_61
# %bb.55:                               # %land.lhs.true471
	ld.d	$a0, $s2, 24
	ld.d	$a1, $a0, 0
	ld.d	$a1, $a1, 0
	jirl	$ra, $a1, 0
	ori	$a1, $zero, 78
	bne	$a0, $a1, .LBB51_61
# %bb.56:                               # %land.lhs.true477
	ld.d	$a0, $s2, 24
	ld.d	$a0, $a0, 32
	ld.d	$a1, $a0, 0
	ld.d	$a1, $a1, 0
	jirl	$ra, $a1, 0
	ori	$a1, $zero, 72
	bne	$a0, $a1, .LBB51_61
# %bb.57:                               # %land.lhs.true485
	ld.d	$a0, $s2, 24
	ld.d	$a0, $a0, 32
	ld.d	$a0, $a0, 32
	ld.d	$a1, $a0, 0
	ld.d	$a1, $a1, 0
	jirl	$ra, $a1, 0
	ori	$a1, $zero, 71
	bne	$a0, $a1, .LBB51_61
# %bb.58:                               # %land.lhs.true494
	ld.d	$a0, $s2, 32
	ld.d	$a1, $a0, 0
	ld.d	$a1, $a1, 0
	jirl	$ra, $a1, 0
	ori	$a1, $zero, 73
	bne	$a0, $a1, .LBB51_61
# %bb.59:                               # %if.then500
	ld.d	$a0, $s2, 24
	ld.d	$a0, $a0, 32
	ld.d	$a1, $a0, 24
	move	$a0, $s1
	pcaddu18i	$ra, %call36(_ZN2kc16ConspatternchainEPNS_21impl_patternchainitemEPNS_17impl_patternchainE)
	jirl	$ra, $ra, 0
	beq	$a0, $s0, .LBB51_64
.LBB51_60:                              # %cond.false
	ld.d	$a1, $a0, 0
	ld.d	$a2, $a1, 24
	move	$a1, $fp
	ld.d	$s4, $sp, 8                     # 8-byte Folded Reload
	ld.d	$s3, $sp, 16                    # 8-byte Folded Reload
	ld.d	$s2, $sp, 24                    # 8-byte Folded Reload
	ld.d	$s1, $sp, 32                    # 8-byte Folded Reload
	ld.d	$s0, $sp, 40                    # 8-byte Folded Reload
	ld.d	$fp, $sp, 48                    # 8-byte Folded Reload
	ld.d	$ra, $sp, 56                    # 8-byte Folded Reload
	addi.d	$sp, $sp, 64
	jr	$a2
.LBB51_61:                              # %sw.epilog
	ld.d	$a0, $s0, 24
	bne	$s1, $a0, .LBB51_63
# %bb.62:                               # %sw.epilog
	ld.d	$a0, $s0, 32
	beq	$s2, $a0, .LBB51_64
.LBB51_63:                              # %if.else524
	move	$a0, $s1
	move	$a1, $s2
	pcaddu18i	$ra, %call36(_ZN2kc16ConspatternchainEPNS_21impl_patternchainitemEPNS_17impl_patternchainE)
	jirl	$ra, $ra, 0
	move	$fp, $a0
	ld.d	$a0, $a0, 0
	ld.d	$a2, $a0, 40
	move	$a0, $fp
	move	$a1, $s0
	jirl	$ra, $a2, 0
	move	$s0, $fp
.LBB51_64:                              # %return
	move	$a0, $s0
	ld.d	$s4, $sp, 8                     # 8-byte Folded Reload
	ld.d	$s3, $sp, 16                    # 8-byte Folded Reload
	ld.d	$s2, $sp, 24                    # 8-byte Folded Reload
	ld.d	$s1, $sp, 32                    # 8-byte Folded Reload
	ld.d	$s0, $sp, 40                    # 8-byte Folded Reload
	ld.d	$fp, $sp, 48                    # 8-byte Folded Reload
	ld.d	$ra, $sp, 56                    # 8-byte Folded Reload
	addi.d	$sp, $sp, 64
	ret
.Lfunc_end51:
	.size	_ZN2kc17impl_patternchain7rewriteERNS_11rview_classE, .Lfunc_end51-_ZN2kc17impl_patternchain7rewriteERNS_11rview_classE
	.cfi_endproc
                                        # -- End function
	.globl	_ZN2kc20impl_outmostpatterns7rewriteERNS_11rview_classE # -- Begin function _ZN2kc20impl_outmostpatterns7rewriteERNS_11rview_classE
	.p2align	2
	.type	_ZN2kc20impl_outmostpatterns7rewriteERNS_11rview_classE,@function
_ZN2kc20impl_outmostpatterns7rewriteERNS_11rview_classE: # @_ZN2kc20impl_outmostpatterns7rewriteERNS_11rview_classE
	.cfi_startproc
# %bb.0:                                # %entry
	addi.d	$sp, $sp, -32
	.cfi_def_cfa_offset 32
	st.d	$ra, $sp, 24                    # 8-byte Folded Spill
	st.d	$fp, $sp, 16                    # 8-byte Folded Spill
	st.d	$s0, $sp, 8                     # 8-byte Folded Spill
	st.d	$s1, $sp, 0                     # 8-byte Folded Spill
	.cfi_offset 1, -8
	.cfi_offset 22, -16
	.cfi_offset 23, -24
	.cfi_offset 24, -32
	move	$fp, $a0
	ld.d	$a0, $a0, 0
	ld.d	$a2, $a0, 88
	move	$s0, $a1
	move	$a0, $fp
	jirl	$ra, $a2, 0
	bnez	$a0, .LBB52_4
# %bb.1:                                # %if.else
	ld.d	$a0, $fp, 8
	ld.d	$a1, $a0, 0
	ld.d	$a2, $a1, 24
	move	$a1, $s0
	jirl	$ra, $a2, 0
	ld.d	$a1, $fp, 16
	ld.d	$a2, $a1, 0
	ld.d	$a2, $a2, 24
	move	$s1, $a0
	move	$a0, $a1
	move	$a1, $s0
	jirl	$ra, $a2, 0
	ld.d	$a2, $fp, 8
	move	$a1, $a0
	bne	$s1, $a2, .LBB52_3
# %bb.2:                                # %if.else
	ld.d	$a2, $fp, 16
	beq	$a1, $a2, .LBB52_4
.LBB52_3:                               # %if.else12
	move	$a0, $s1
	pcaddu18i	$ra, %call36(_ZN2kc19ConsoutmostpatternsEPNS_19impl_outmostpatternEPNS_20impl_outmostpatternsE)
	jirl	$ra, $ra, 0
	move	$s0, $a0
	ld.d	$a0, $a0, 0
	ld.d	$a2, $a0, 40
	move	$a0, $s0
	move	$a1, $fp
	jirl	$ra, $a2, 0
	move	$fp, $s0
.LBB52_4:                               # %return
	move	$a0, $fp
	ld.d	$s1, $sp, 0                     # 8-byte Folded Reload
	ld.d	$s0, $sp, 8                     # 8-byte Folded Reload
	ld.d	$fp, $sp, 16                    # 8-byte Folded Reload
	ld.d	$ra, $sp, 24                    # 8-byte Folded Reload
	addi.d	$sp, $sp, 32
	ret
.Lfunc_end52:
	.size	_ZN2kc20impl_outmostpatterns7rewriteERNS_11rview_classE, .Lfunc_end52-_ZN2kc20impl_outmostpatterns7rewriteERNS_11rview_classE
	.cfi_endproc
                                        # -- End function
	.globl	_ZN2kc46impl_patternchainitem_PatternchainitemDollarid7rewriteERNS_11rview_classE # -- Begin function _ZN2kc46impl_patternchainitem_PatternchainitemDollarid7rewriteERNS_11rview_classE
	.p2align	2
	.type	_ZN2kc46impl_patternchainitem_PatternchainitemDollarid7rewriteERNS_11rview_classE,@function
_ZN2kc46impl_patternchainitem_PatternchainitemDollarid7rewriteERNS_11rview_classE: # @_ZN2kc46impl_patternchainitem_PatternchainitemDollarid7rewriteERNS_11rview_classE
	.cfi_startproc
# %bb.0:                                # %entry
	addi.d	$sp, $sp, -32
	.cfi_def_cfa_offset 32
	st.d	$ra, $sp, 24                    # 8-byte Folded Spill
	st.d	$fp, $sp, 16                    # 8-byte Folded Spill
	st.d	$s0, $sp, 8                     # 8-byte Folded Spill
	.cfi_offset 1, -8
	.cfi_offset 22, -16
	.cfi_offset 23, -24
	move	$fp, $a0
	ld.d	$a0, $a0, 32
	ld.d	$a2, $a0, 0
	ld.d	$a2, $a2, 24
	jirl	$ra, $a2, 0
	ld.d	$a1, $fp, 32
	beq	$a0, $a1, .LBB53_2
# %bb.1:                                # %if.else
	pcaddu18i	$ra, %call36(_ZN2kc24PatternchainitemDollaridEPNS_7impl_IDE)
	jirl	$ra, $ra, 0
	move	$s0, $a0
	ld.d	$a0, $a0, 0
	ld.d	$a2, $a0, 40
	move	$a0, $s0
	move	$a1, $fp
	jirl	$ra, $a2, 0
	move	$fp, $s0
.LBB53_2:                               # %cleanup
	move	$a0, $fp
	ld.d	$s0, $sp, 8                     # 8-byte Folded Reload
	ld.d	$fp, $sp, 16                    # 8-byte Folded Reload
	ld.d	$ra, $sp, 24                    # 8-byte Folded Reload
	addi.d	$sp, $sp, 32
	ret
.Lfunc_end53:
	.size	_ZN2kc46impl_patternchainitem_PatternchainitemDollarid7rewriteERNS_11rview_classE, .Lfunc_end53-_ZN2kc46impl_patternchainitem_PatternchainitemDollarid7rewriteERNS_11rview_classE
	.cfi_endproc
                                        # -- End function
	.globl	_ZN2kc43impl_patternchainitem_PatternchainitemGroup7rewriteERNS_11rview_classE # -- Begin function _ZN2kc43impl_patternchainitem_PatternchainitemGroup7rewriteERNS_11rview_classE
	.p2align	2
	.type	_ZN2kc43impl_patternchainitem_PatternchainitemGroup7rewriteERNS_11rview_classE,@function
_ZN2kc43impl_patternchainitem_PatternchainitemGroup7rewriteERNS_11rview_classE: # @_ZN2kc43impl_patternchainitem_PatternchainitemGroup7rewriteERNS_11rview_classE
	.cfi_startproc
# %bb.0:                                # %entry
	addi.d	$sp, $sp, -32
	.cfi_def_cfa_offset 32
	st.d	$ra, $sp, 24                    # 8-byte Folded Spill
	st.d	$fp, $sp, 16                    # 8-byte Folded Spill
	st.d	$s0, $sp, 8                     # 8-byte Folded Spill
	st.d	$s1, $sp, 0                     # 8-byte Folded Spill
	.cfi_offset 1, -8
	.cfi_offset 22, -16
	.cfi_offset 23, -24
	.cfi_offset 24, -32
	move	$fp, $a0
	ld.d	$a0, $a0, 32
	ld.d	$a2, $a0, 0
	ld.d	$a2, $a2, 24
	move	$s0, $a1
	jirl	$ra, $a2, 0
	move	$s1, $a0
	ld.d	$a0, $a0, 0
	ld.d	$a1, $a0, 0
	move	$a0, $s1
	jirl	$ra, $a1, 0
	ori	$a1, $zero, 72
	bne	$a0, $a1, .LBB54_6
# %bb.1:                                # %land.lhs.true
	ld.d	$a0, $s1, 24
	ld.d	$a1, $a0, 0
	ld.d	$a1, $a1, 0
	jirl	$ra, $a1, 0
	ori	$a1, $zero, 74
	bne	$a0, $a1, .LBB54_6
# %bb.2:                                # %land.lhs.true10
	ld.d	$a0, $s1, 24
	ld.d	$a0, $a0, 32
	ld.d	$a1, $a0, 0
	ld.d	$a1, $a1, 0
	jirl	$ra, $a1, 0
	ori	$a1, $zero, 73
	bne	$a0, $a1, .LBB54_6
# %bb.3:                                # %land.lhs.true17
	ld.d	$a0, $s1, 32
	ld.d	$a1, $a0, 0
	ld.d	$a1, $a1, 0
	jirl	$ra, $a1, 0
	ori	$a1, $zero, 71
	bne	$a0, $a1, .LBB54_6
# %bb.4:                                # %if.then
	ld.d	$a0, $s1, 24
	ld.d	$a0, $a0, 24
	beq	$a0, $fp, .LBB54_8
# %bb.5:                                # %cond.false
	ld.d	$a1, $a0, 0
	ld.d	$a2, $a1, 24
	move	$a1, $s0
	ld.d	$s1, $sp, 0                     # 8-byte Folded Reload
	ld.d	$s0, $sp, 8                     # 8-byte Folded Reload
	ld.d	$fp, $sp, 16                    # 8-byte Folded Reload
	ld.d	$ra, $sp, 24                    # 8-byte Folded Reload
	addi.d	$sp, $sp, 32
	jr	$a2
.LBB54_6:                               # %sw.epilog
	ld.d	$a0, $fp, 32
	beq	$s1, $a0, .LBB54_8
# %bb.7:                                # %if.else31
	move	$a0, $s1
	pcaddu18i	$ra, %call36(_ZN2kc21PatternchainitemGroupEPNS_18impl_patternchainsE)
	jirl	$ra, $ra, 0
	move	$s0, $a0
	ld.d	$a0, $a0, 0
	ld.d	$a2, $a0, 40
	move	$a0, $s0
	move	$a1, $fp
	jirl	$ra, $a2, 0
	move	$fp, $s0
.LBB54_8:                               # %cleanup37
	move	$a0, $fp
	ld.d	$s1, $sp, 0                     # 8-byte Folded Reload
	ld.d	$s0, $sp, 8                     # 8-byte Folded Reload
	ld.d	$fp, $sp, 16                    # 8-byte Folded Reload
	ld.d	$ra, $sp, 24                    # 8-byte Folded Reload
	addi.d	$sp, $sp, 32
	ret
.Lfunc_end54:
	.size	_ZN2kc43impl_patternchainitem_PatternchainitemGroup7rewriteERNS_11rview_classE, .Lfunc_end54-_ZN2kc43impl_patternchainitem_PatternchainitemGroup7rewriteERNS_11rview_classE
	.cfi_endproc
                                        # -- End function
	.globl	_ZN2kc45impl_patternchainitem_PatternchainitemOutmost7rewriteERNS_11rview_classE # -- Begin function _ZN2kc45impl_patternchainitem_PatternchainitemOutmost7rewriteERNS_11rview_classE
	.p2align	2
	.type	_ZN2kc45impl_patternchainitem_PatternchainitemOutmost7rewriteERNS_11rview_classE,@function
_ZN2kc45impl_patternchainitem_PatternchainitemOutmost7rewriteERNS_11rview_classE: # @_ZN2kc45impl_patternchainitem_PatternchainitemOutmost7rewriteERNS_11rview_classE
	.cfi_startproc
# %bb.0:                                # %entry
	addi.d	$sp, $sp, -32
	.cfi_def_cfa_offset 32
	st.d	$ra, $sp, 24                    # 8-byte Folded Spill
	st.d	$fp, $sp, 16                    # 8-byte Folded Spill
	st.d	$s0, $sp, 8                     # 8-byte Folded Spill
	.cfi_offset 1, -8
	.cfi_offset 22, -16
	.cfi_offset 23, -24
	move	$fp, $a0
	ld.d	$a0, $a0, 32
	ld.d	$a2, $a0, 0
	ld.d	$a2, $a2, 24
	jirl	$ra, $a2, 0
	ld.d	$a1, $fp, 32
	beq	$a0, $a1, .LBB55_2
# %bb.1:                                # %if.else
	pcaddu18i	$ra, %call36(_ZN2kc23PatternchainitemOutmostEPNS_19impl_outmostpatternE)
	jirl	$ra, $ra, 0
	move	$s0, $a0
	ld.d	$a0, $a0, 0
	ld.d	$a2, $a0, 40
	move	$a0, $s0
	move	$a1, $fp
	jirl	$ra, $a2, 0
	move	$fp, $s0
.LBB55_2:                               # %cleanup
	move	$a0, $fp
	ld.d	$s0, $sp, 8                     # 8-byte Folded Reload
	ld.d	$fp, $sp, 16                    # 8-byte Folded Reload
	ld.d	$ra, $sp, 24                    # 8-byte Folded Reload
	addi.d	$sp, $sp, 32
	ret
.Lfunc_end55:
	.size	_ZN2kc45impl_patternchainitem_PatternchainitemOutmost7rewriteERNS_11rview_classE, .Lfunc_end55-_ZN2kc45impl_patternchainitem_PatternchainitemOutmost7rewriteERNS_11rview_classE
	.cfi_endproc
                                        # -- End function
	.globl	_ZN2kc29impl_outmostpattern_OPDefault7rewriteERNS_11rview_classE # -- Begin function _ZN2kc29impl_outmostpattern_OPDefault7rewriteERNS_11rview_classE
	.p2align	2
	.type	_ZN2kc29impl_outmostpattern_OPDefault7rewriteERNS_11rview_classE,@function
_ZN2kc29impl_outmostpattern_OPDefault7rewriteERNS_11rview_classE: # @_ZN2kc29impl_outmostpattern_OPDefault7rewriteERNS_11rview_classE
	.cfi_startproc
# %bb.0:                                # %entry
	addi.d	$sp, $sp, -32
	.cfi_def_cfa_offset 32
	st.d	$ra, $sp, 24                    # 8-byte Folded Spill
	st.d	$fp, $sp, 16                    # 8-byte Folded Spill
	st.d	$s0, $sp, 8                     # 8-byte Folded Spill
	.cfi_offset 1, -8
	.cfi_offset 22, -16
	.cfi_offset 23, -24
	move	$fp, $a0
	ld.d	$a0, $a0, 32
	ld.d	$a2, $a0, 0
	ld.d	$a2, $a2, 24
	jirl	$ra, $a2, 0
	ld.d	$a1, $fp, 32
	beq	$a0, $a1, .LBB56_2
# %bb.1:                                # %if.else
	pcaddu18i	$ra, %call36(_ZN2kc9OPDefaultEPNS_16impl_CexpressionE)
	jirl	$ra, $ra, 0
	move	$s0, $a0
	ld.d	$a0, $a0, 0
	ld.d	$a2, $a0, 40
	move	$a0, $s0
	move	$a1, $fp
	jirl	$ra, $a2, 0
	move	$fp, $s0
.LBB56_2:                               # %cleanup
	move	$a0, $fp
	ld.d	$s0, $sp, 8                     # 8-byte Folded Reload
	ld.d	$fp, $sp, 16                    # 8-byte Folded Reload
	ld.d	$ra, $sp, 24                    # 8-byte Folded Reload
	addi.d	$sp, $sp, 32
	ret
.Lfunc_end56:
	.size	_ZN2kc29impl_outmostpattern_OPDefault7rewriteERNS_11rview_classE, .Lfunc_end56-_ZN2kc29impl_outmostpattern_OPDefault7rewriteERNS_11rview_classE
	.cfi_endproc
                                        # -- End function
	.globl	_ZN2kc30impl_outmostpattern_OPWildcard7rewriteERNS_11rview_classE # -- Begin function _ZN2kc30impl_outmostpattern_OPWildcard7rewriteERNS_11rview_classE
	.p2align	2
	.type	_ZN2kc30impl_outmostpattern_OPWildcard7rewriteERNS_11rview_classE,@function
_ZN2kc30impl_outmostpattern_OPWildcard7rewriteERNS_11rview_classE: # @_ZN2kc30impl_outmostpattern_OPWildcard7rewriteERNS_11rview_classE
	.cfi_startproc
# %bb.0:                                # %entry
	addi.d	$sp, $sp, -32
	.cfi_def_cfa_offset 32
	st.d	$ra, $sp, 24                    # 8-byte Folded Spill
	st.d	$fp, $sp, 16                    # 8-byte Folded Spill
	st.d	$s0, $sp, 8                     # 8-byte Folded Spill
	.cfi_offset 1, -8
	.cfi_offset 22, -16
	.cfi_offset 23, -24
	move	$fp, $a0
	ld.d	$a0, $a0, 32
	ld.d	$a2, $a0, 0
	ld.d	$a2, $a2, 24
	jirl	$ra, $a2, 0
	ld.d	$a1, $fp, 32
	beq	$a0, $a1, .LBB57_2
# %bb.1:                                # %if.else
	pcaddu18i	$ra, %call36(_ZN2kc10OPWildcardEPNS_16impl_CexpressionE)
	jirl	$ra, $ra, 0
	move	$s0, $a0
	ld.d	$a0, $a0, 0
	ld.d	$a2, $a0, 40
	move	$a0, $s0
	move	$a1, $fp
	jirl	$ra, $a2, 0
	move	$fp, $s0
.LBB57_2:                               # %cleanup
	move	$a0, $fp
	ld.d	$s0, $sp, 8                     # 8-byte Folded Reload
	ld.d	$fp, $sp, 16                    # 8-byte Folded Reload
	ld.d	$ra, $sp, 24                    # 8-byte Folded Reload
	addi.d	$sp, $sp, 32
	ret
.Lfunc_end57:
	.size	_ZN2kc30impl_outmostpattern_OPWildcard7rewriteERNS_11rview_classE, .Lfunc_end57-_ZN2kc30impl_outmostpattern_OPWildcard7rewriteERNS_11rview_classE
	.cfi_endproc
                                        # -- End function
	.globl	_ZN2kc37impl_outmostpattern_OPNonLeafVariable7rewriteERNS_11rview_classE # -- Begin function _ZN2kc37impl_outmostpattern_OPNonLeafVariable7rewriteERNS_11rview_classE
	.p2align	2
	.type	_ZN2kc37impl_outmostpattern_OPNonLeafVariable7rewriteERNS_11rview_classE,@function
_ZN2kc37impl_outmostpattern_OPNonLeafVariable7rewriteERNS_11rview_classE: # @_ZN2kc37impl_outmostpattern_OPNonLeafVariable7rewriteERNS_11rview_classE
	.cfi_startproc
# %bb.0:                                # %entry
	addi.d	$sp, $sp, -32
	.cfi_def_cfa_offset 32
	st.d	$ra, $sp, 24                    # 8-byte Folded Spill
	st.d	$fp, $sp, 16                    # 8-byte Folded Spill
	st.d	$s0, $sp, 8                     # 8-byte Folded Spill
	st.d	$s1, $sp, 0                     # 8-byte Folded Spill
	.cfi_offset 1, -8
	.cfi_offset 22, -16
	.cfi_offset 23, -24
	.cfi_offset 24, -32
	move	$fp, $a0
	ld.d	$a0, $a0, 32
	ld.d	$a2, $a0, 0
	ld.d	$a2, $a2, 24
	move	$s0, $a1
	jirl	$ra, $a2, 0
	ld.d	$a1, $fp, 40
	ld.d	$a2, $a1, 0
	ld.d	$a2, $a2, 24
	move	$s1, $a0
	move	$a0, $a1
	move	$a1, $s0
	jirl	$ra, $a2, 0
	ld.d	$a2, $fp, 32
	move	$a1, $a0
	bne	$s1, $a2, .LBB58_2
# %bb.1:                                # %entry
	ld.d	$a2, $fp, 40
	beq	$a1, $a2, .LBB58_3
.LBB58_2:                               # %if.else
	move	$a0, $s1
	pcaddu18i	$ra, %call36(_ZN2kc17OPNonLeafVariableEPNS_7impl_IDEPNS_19impl_outmostpatternE)
	jirl	$ra, $ra, 0
	move	$s0, $a0
	ld.d	$a0, $a0, 0
	ld.d	$a2, $a0, 40
	move	$a0, $s0
	move	$a1, $fp
	jirl	$ra, $a2, 0
	move	$fp, $s0
.LBB58_3:                               # %cleanup
	move	$a0, $fp
	ld.d	$s1, $sp, 0                     # 8-byte Folded Reload
	ld.d	$s0, $sp, 8                     # 8-byte Folded Reload
	ld.d	$fp, $sp, 16                    # 8-byte Folded Reload
	ld.d	$ra, $sp, 24                    # 8-byte Folded Reload
	addi.d	$sp, $sp, 32
	ret
.Lfunc_end58:
	.size	_ZN2kc37impl_outmostpattern_OPNonLeafVariable7rewriteERNS_11rview_classE, .Lfunc_end58-_ZN2kc37impl_outmostpattern_OPNonLeafVariable7rewriteERNS_11rview_classE
	.cfi_endproc
                                        # -- End function
	.globl	_ZN2kc30impl_outmostpattern_OPOperator7rewriteERNS_11rview_classE # -- Begin function _ZN2kc30impl_outmostpattern_OPOperator7rewriteERNS_11rview_classE
	.p2align	2
	.type	_ZN2kc30impl_outmostpattern_OPOperator7rewriteERNS_11rview_classE,@function
_ZN2kc30impl_outmostpattern_OPOperator7rewriteERNS_11rview_classE: # @_ZN2kc30impl_outmostpattern_OPOperator7rewriteERNS_11rview_classE
	.cfi_startproc
# %bb.0:                                # %entry
	addi.d	$sp, $sp, -48
	.cfi_def_cfa_offset 48
	st.d	$ra, $sp, 40                    # 8-byte Folded Spill
	st.d	$fp, $sp, 32                    # 8-byte Folded Spill
	st.d	$s0, $sp, 24                    # 8-byte Folded Spill
	st.d	$s1, $sp, 16                    # 8-byte Folded Spill
	st.d	$s2, $sp, 8                     # 8-byte Folded Spill
	.cfi_offset 1, -8
	.cfi_offset 22, -16
	.cfi_offset 23, -24
	.cfi_offset 24, -32
	.cfi_offset 25, -40
	move	$fp, $a0
	ld.d	$a0, $a0, 32
	ld.d	$a2, $a0, 0
	ld.d	$a2, $a2, 24
	move	$s1, $a1
	jirl	$ra, $a2, 0
	ld.d	$a1, $fp, 40
	ld.d	$a2, $a1, 0
	ld.d	$a2, $a2, 24
	move	$s2, $a0
	move	$a0, $a1
	move	$a1, $s1
	jirl	$ra, $a2, 0
	ld.d	$a1, $fp, 48
	ld.d	$a2, $a1, 0
	ld.d	$a2, $a2, 24
	move	$s0, $a0
	move	$a0, $a1
	move	$a1, $s1
	jirl	$ra, $a2, 0
	ld.d	$a1, $fp, 32
	move	$a2, $a0
	bne	$s2, $a1, .LBB59_3
# %bb.1:                                # %entry
	ld.d	$a1, $fp, 40
	bne	$s0, $a1, .LBB59_3
# %bb.2:                                # %entry
	ld.d	$a1, $fp, 48
	beq	$a2, $a1, .LBB59_4
.LBB59_3:                               # %if.else
	move	$a0, $s2
	move	$a1, $s0
	pcaddu18i	$ra, %call36(_ZN2kc10OPOperatorEPNS_7impl_IDEPNS_13impl_patternsEPNS_16impl_CexpressionE)
	jirl	$ra, $ra, 0
	move	$s0, $a0
	ld.d	$a0, $a0, 0
	ld.d	$a2, $a0, 40
	move	$a0, $s0
	move	$a1, $fp
	jirl	$ra, $a2, 0
	move	$fp, $s0
.LBB59_4:                               # %cleanup
	move	$a0, $fp
	ld.d	$s2, $sp, 8                     # 8-byte Folded Reload
	ld.d	$s1, $sp, 16                    # 8-byte Folded Reload
	ld.d	$s0, $sp, 24                    # 8-byte Folded Reload
	ld.d	$fp, $sp, 32                    # 8-byte Folded Reload
	ld.d	$ra, $sp, 40                    # 8-byte Folded Reload
	addi.d	$sp, $sp, 48
	ret
.Lfunc_end59:
	.size	_ZN2kc30impl_outmostpattern_OPOperator7rewriteERNS_11rview_classE, .Lfunc_end59-_ZN2kc30impl_outmostpattern_OPOperator7rewriteERNS_11rview_classE
	.cfi_endproc
                                        # -- End function
	.globl	_ZN2kc38impl_outmostpattern_OPOperatorWildcard7rewriteERNS_11rview_classE # -- Begin function _ZN2kc38impl_outmostpattern_OPOperatorWildcard7rewriteERNS_11rview_classE
	.p2align	2
	.type	_ZN2kc38impl_outmostpattern_OPOperatorWildcard7rewriteERNS_11rview_classE,@function
_ZN2kc38impl_outmostpattern_OPOperatorWildcard7rewriteERNS_11rview_classE: # @_ZN2kc38impl_outmostpattern_OPOperatorWildcard7rewriteERNS_11rview_classE
	.cfi_startproc
# %bb.0:                                # %entry
	addi.d	$sp, $sp, -32
	.cfi_def_cfa_offset 32
	st.d	$ra, $sp, 24                    # 8-byte Folded Spill
	st.d	$fp, $sp, 16                    # 8-byte Folded Spill
	st.d	$s0, $sp, 8                     # 8-byte Folded Spill
	st.d	$s1, $sp, 0                     # 8-byte Folded Spill
	.cfi_offset 1, -8
	.cfi_offset 22, -16
	.cfi_offset 23, -24
	.cfi_offset 24, -32
	move	$fp, $a0
	ld.d	$a0, $a0, 32
	ld.d	$a2, $a0, 0
	ld.d	$a2, $a2, 24
	move	$s0, $a1
	jirl	$ra, $a2, 0
	ld.d	$a1, $fp, 40
	ld.d	$a2, $a1, 0
	ld.d	$a2, $a2, 24
	move	$s1, $a0
	move	$a0, $a1
	move	$a1, $s0
	jirl	$ra, $a2, 0
	ld.d	$a2, $fp, 32
	move	$a1, $a0
	bne	$s1, $a2, .LBB60_2
# %bb.1:                                # %entry
	ld.d	$a2, $fp, 40
	beq	$a1, $a2, .LBB60_3
.LBB60_2:                               # %if.else
	move	$a0, $s1
	pcaddu18i	$ra, %call36(_ZN2kc18OPOperatorWildcardEPNS_7impl_IDEPNS_16impl_CexpressionE)
	jirl	$ra, $ra, 0
	move	$s0, $a0
	ld.d	$a0, $a0, 0
	ld.d	$a2, $a0, 40
	move	$a0, $s0
	move	$a1, $fp
	jirl	$ra, $a2, 0
	move	$fp, $s0
.LBB60_3:                               # %cleanup
	move	$a0, $fp
	ld.d	$s1, $sp, 0                     # 8-byte Folded Reload
	ld.d	$s0, $sp, 8                     # 8-byte Folded Reload
	ld.d	$fp, $sp, 16                    # 8-byte Folded Reload
	ld.d	$ra, $sp, 24                    # 8-byte Folded Reload
	addi.d	$sp, $sp, 32
	ret
.Lfunc_end60:
	.size	_ZN2kc38impl_outmostpattern_OPOperatorWildcard7rewriteERNS_11rview_classE, .Lfunc_end60-_ZN2kc38impl_outmostpattern_OPOperatorWildcard7rewriteERNS_11rview_classE
	.cfi_endproc
                                        # -- End function
	.globl	_ZN2kc24impl_pattern_PIntLiteral7rewriteERNS_11rview_classE # -- Begin function _ZN2kc24impl_pattern_PIntLiteral7rewriteERNS_11rview_classE
	.p2align	2
	.type	_ZN2kc24impl_pattern_PIntLiteral7rewriteERNS_11rview_classE,@function
_ZN2kc24impl_pattern_PIntLiteral7rewriteERNS_11rview_classE: # @_ZN2kc24impl_pattern_PIntLiteral7rewriteERNS_11rview_classE
	.cfi_startproc
# %bb.0:                                # %entry
	addi.d	$sp, $sp, -32
	.cfi_def_cfa_offset 32
	st.d	$ra, $sp, 24                    # 8-byte Folded Spill
	st.d	$fp, $sp, 16                    # 8-byte Folded Spill
	st.d	$s0, $sp, 8                     # 8-byte Folded Spill
	.cfi_offset 1, -8
	.cfi_offset 22, -16
	.cfi_offset 23, -24
	move	$fp, $a0
	ld.d	$a0, $a0, 8
	ld.d	$a2, $a0, 0
	ld.d	$a2, $a2, 24
	jirl	$ra, $a2, 0
	ld.d	$a1, $fp, 8
	beq	$a0, $a1, .LBB61_2
# %bb.1:                                # %if.else
	pcaddu18i	$ra, %call36(_ZN2kc11PIntLiteralEPNS_8impl_INTE)
	jirl	$ra, $ra, 0
	move	$s0, $a0
	ld.d	$a0, $a0, 0
	ld.d	$a2, $a0, 40
	move	$a0, $s0
	move	$a1, $fp
	jirl	$ra, $a2, 0
	move	$fp, $s0
.LBB61_2:                               # %cleanup
	move	$a0, $fp
	ld.d	$s0, $sp, 8                     # 8-byte Folded Reload
	ld.d	$fp, $sp, 16                    # 8-byte Folded Reload
	ld.d	$ra, $sp, 24                    # 8-byte Folded Reload
	addi.d	$sp, $sp, 32
	ret
.Lfunc_end61:
	.size	_ZN2kc24impl_pattern_PIntLiteral7rewriteERNS_11rview_classE, .Lfunc_end61-_ZN2kc24impl_pattern_PIntLiteral7rewriteERNS_11rview_classE
	.cfi_endproc
                                        # -- End function
	.globl	_ZN2kc27impl_pattern_PStringLiteral7rewriteERNS_11rview_classE # -- Begin function _ZN2kc27impl_pattern_PStringLiteral7rewriteERNS_11rview_classE
	.p2align	2
	.type	_ZN2kc27impl_pattern_PStringLiteral7rewriteERNS_11rview_classE,@function
_ZN2kc27impl_pattern_PStringLiteral7rewriteERNS_11rview_classE: # @_ZN2kc27impl_pattern_PStringLiteral7rewriteERNS_11rview_classE
	.cfi_startproc
# %bb.0:                                # %entry
	addi.d	$sp, $sp, -32
	.cfi_def_cfa_offset 32
	st.d	$ra, $sp, 24                    # 8-byte Folded Spill
	st.d	$fp, $sp, 16                    # 8-byte Folded Spill
	st.d	$s0, $sp, 8                     # 8-byte Folded Spill
	.cfi_offset 1, -8
	.cfi_offset 22, -16
	.cfi_offset 23, -24
	move	$fp, $a0
	ld.d	$a0, $a0, 8
	ld.d	$a2, $a0, 0
	ld.d	$a2, $a2, 24
	jirl	$ra, $a2, 0
	ld.d	$a1, $fp, 8
	beq	$a0, $a1, .LBB62_2
# %bb.1:                                # %if.else
	pcaddu18i	$ra, %call36(_ZN2kc14PStringLiteralEPNS_18impl_CexpressionDQE)
	jirl	$ra, $ra, 0
	move	$s0, $a0
	ld.d	$a0, $a0, 0
	ld.d	$a2, $a0, 40
	move	$a0, $s0
	move	$a1, $fp
	jirl	$ra, $a2, 0
	move	$fp, $s0
.LBB62_2:                               # %cleanup
	move	$a0, $fp
	ld.d	$s0, $sp, 8                     # 8-byte Folded Reload
	ld.d	$fp, $sp, 16                    # 8-byte Folded Reload
	ld.d	$ra, $sp, 24                    # 8-byte Folded Reload
	addi.d	$sp, $sp, 32
	ret
.Lfunc_end62:
	.size	_ZN2kc27impl_pattern_PStringLiteral7rewriteERNS_11rview_classE, .Lfunc_end62-_ZN2kc27impl_pattern_PStringLiteral7rewriteERNS_11rview_classE
	.cfi_endproc
                                        # -- End function
	.globl	_ZN2kc22impl_pattern_PWildcard7rewriteERNS_11rview_classE # -- Begin function _ZN2kc22impl_pattern_PWildcard7rewriteERNS_11rview_classE
	.p2align	2
	.type	_ZN2kc22impl_pattern_PWildcard7rewriteERNS_11rview_classE,@function
_ZN2kc22impl_pattern_PWildcard7rewriteERNS_11rview_classE: # @_ZN2kc22impl_pattern_PWildcard7rewriteERNS_11rview_classE
# %bb.0:                                # %entry
	ret
.Lfunc_end63:
	.size	_ZN2kc22impl_pattern_PWildcard7rewriteERNS_11rview_classE, .Lfunc_end63-_ZN2kc22impl_pattern_PWildcard7rewriteERNS_11rview_classE
                                        # -- End function
	.globl	_ZN2kc29impl_pattern_PNonLeafVariable7rewriteERNS_11rview_classE # -- Begin function _ZN2kc29impl_pattern_PNonLeafVariable7rewriteERNS_11rview_classE
	.p2align	2
	.type	_ZN2kc29impl_pattern_PNonLeafVariable7rewriteERNS_11rview_classE,@function
_ZN2kc29impl_pattern_PNonLeafVariable7rewriteERNS_11rview_classE: # @_ZN2kc29impl_pattern_PNonLeafVariable7rewriteERNS_11rview_classE
	.cfi_startproc
# %bb.0:                                # %entry
	addi.d	$sp, $sp, -32
	.cfi_def_cfa_offset 32
	st.d	$ra, $sp, 24                    # 8-byte Folded Spill
	st.d	$fp, $sp, 16                    # 8-byte Folded Spill
	st.d	$s0, $sp, 8                     # 8-byte Folded Spill
	st.d	$s1, $sp, 0                     # 8-byte Folded Spill
	.cfi_offset 1, -8
	.cfi_offset 22, -16
	.cfi_offset 23, -24
	.cfi_offset 24, -32
	move	$fp, $a0
	ld.d	$a0, $a0, 8
	ld.d	$a2, $a0, 0
	ld.d	$a2, $a2, 24
	move	$s0, $a1
	jirl	$ra, $a2, 0
	ld.d	$a1, $fp, 16
	ld.d	$a2, $a1, 0
	ld.d	$a2, $a2, 24
	move	$s1, $a0
	move	$a0, $a1
	move	$a1, $s0
	jirl	$ra, $a2, 0
	ld.d	$a2, $fp, 8
	move	$a1, $a0
	bne	$s1, $a2, .LBB64_2
# %bb.1:                                # %entry
	ld.d	$a2, $fp, 16
	beq	$a1, $a2, .LBB64_3
.LBB64_2:                               # %if.else
	move	$a0, $s1
	pcaddu18i	$ra, %call36(_ZN2kc16PNonLeafVariableEPNS_7impl_IDEPNS_12impl_patternE)
	jirl	$ra, $ra, 0
	move	$s0, $a0
	ld.d	$a0, $a0, 0
	ld.d	$a2, $a0, 40
	move	$a0, $s0
	move	$a1, $fp
	jirl	$ra, $a2, 0
	move	$fp, $s0
.LBB64_3:                               # %cleanup
	move	$a0, $fp
	ld.d	$s1, $sp, 0                     # 8-byte Folded Reload
	ld.d	$s0, $sp, 8                     # 8-byte Folded Reload
	ld.d	$fp, $sp, 16                    # 8-byte Folded Reload
	ld.d	$ra, $sp, 24                    # 8-byte Folded Reload
	addi.d	$sp, $sp, 32
	ret
.Lfunc_end64:
	.size	_ZN2kc29impl_pattern_PNonLeafVariable7rewriteERNS_11rview_classE, .Lfunc_end64-_ZN2kc29impl_pattern_PNonLeafVariable7rewriteERNS_11rview_classE
	.cfi_endproc
                                        # -- End function
	.globl	_ZN2kc22impl_pattern_POperator7rewriteERNS_11rview_classE # -- Begin function _ZN2kc22impl_pattern_POperator7rewriteERNS_11rview_classE
	.p2align	2
	.type	_ZN2kc22impl_pattern_POperator7rewriteERNS_11rview_classE,@function
_ZN2kc22impl_pattern_POperator7rewriteERNS_11rview_classE: # @_ZN2kc22impl_pattern_POperator7rewriteERNS_11rview_classE
	.cfi_startproc
# %bb.0:                                # %entry
	addi.d	$sp, $sp, -32
	.cfi_def_cfa_offset 32
	st.d	$ra, $sp, 24                    # 8-byte Folded Spill
	st.d	$fp, $sp, 16                    # 8-byte Folded Spill
	st.d	$s0, $sp, 8                     # 8-byte Folded Spill
	st.d	$s1, $sp, 0                     # 8-byte Folded Spill
	.cfi_offset 1, -8
	.cfi_offset 22, -16
	.cfi_offset 23, -24
	.cfi_offset 24, -32
	move	$fp, $a0
	ld.d	$a0, $a0, 8
	ld.d	$a2, $a0, 0
	ld.d	$a2, $a2, 24
	move	$s0, $a1
	jirl	$ra, $a2, 0
	ld.d	$a1, $fp, 16
	ld.d	$a2, $a1, 0
	ld.d	$a2, $a2, 24
	move	$s1, $a0
	move	$a0, $a1
	move	$a1, $s0
	jirl	$ra, $a2, 0
	ld.d	$a2, $fp, 8
	move	$a1, $a0
	bne	$s1, $a2, .LBB65_2
# %bb.1:                                # %entry
	ld.d	$a2, $fp, 16
	beq	$a1, $a2, .LBB65_3
.LBB65_2:                               # %if.else
	move	$a0, $s1
	pcaddu18i	$ra, %call36(_ZN2kc9POperatorEPNS_7impl_IDEPNS_13impl_patternsE)
	jirl	$ra, $ra, 0
	move	$s0, $a0
	ld.d	$a0, $a0, 0
	ld.d	$a2, $a0, 40
	move	$a0, $s0
	move	$a1, $fp
	jirl	$ra, $a2, 0
	move	$fp, $s0
.LBB65_3:                               # %cleanup
	move	$a0, $fp
	ld.d	$s1, $sp, 0                     # 8-byte Folded Reload
	ld.d	$s0, $sp, 8                     # 8-byte Folded Reload
	ld.d	$fp, $sp, 16                    # 8-byte Folded Reload
	ld.d	$ra, $sp, 24                    # 8-byte Folded Reload
	addi.d	$sp, $sp, 32
	ret
.Lfunc_end65:
	.size	_ZN2kc22impl_pattern_POperator7rewriteERNS_11rview_classE, .Lfunc_end65-_ZN2kc22impl_pattern_POperator7rewriteERNS_11rview_classE
	.cfi_endproc
                                        # -- End function
	.globl	_ZN2kc22impl_pattern_PVariable7rewriteERNS_11rview_classE # -- Begin function _ZN2kc22impl_pattern_PVariable7rewriteERNS_11rview_classE
	.p2align	2
	.type	_ZN2kc22impl_pattern_PVariable7rewriteERNS_11rview_classE,@function
_ZN2kc22impl_pattern_PVariable7rewriteERNS_11rview_classE: # @_ZN2kc22impl_pattern_PVariable7rewriteERNS_11rview_classE
	.cfi_startproc
# %bb.0:                                # %entry
	addi.d	$sp, $sp, -32
	.cfi_def_cfa_offset 32
	st.d	$ra, $sp, 24                    # 8-byte Folded Spill
	st.d	$fp, $sp, 16                    # 8-byte Folded Spill
	st.d	$s0, $sp, 8                     # 8-byte Folded Spill
	.cfi_offset 1, -8
	.cfi_offset 22, -16
	.cfi_offset 23, -24
	move	$fp, $a0
	ld.d	$a0, $a0, 8
	ld.d	$a2, $a0, 0
	ld.d	$a2, $a2, 24
	jirl	$ra, $a2, 0
	ld.d	$a1, $fp, 8
	beq	$a0, $a1, .LBB66_2
# %bb.1:                                # %if.else
	pcaddu18i	$ra, %call36(_ZN2kc9PVariableEPNS_7impl_IDE)
	jirl	$ra, $ra, 0
	move	$s0, $a0
	ld.d	$a0, $a0, 0
	ld.d	$a2, $a0, 40
	move	$a0, $s0
	move	$a1, $fp
	jirl	$ra, $a2, 0
	move	$fp, $s0
.LBB66_2:                               # %cleanup
	move	$a0, $fp
	ld.d	$s0, $sp, 8                     # 8-byte Folded Reload
	ld.d	$fp, $sp, 16                    # 8-byte Folded Reload
	ld.d	$ra, $sp, 24                    # 8-byte Folded Reload
	addi.d	$sp, $sp, 32
	ret
.Lfunc_end66:
	.size	_ZN2kc22impl_pattern_PVariable7rewriteERNS_11rview_classE, .Lfunc_end66-_ZN2kc22impl_pattern_PVariable7rewriteERNS_11rview_classE
	.cfi_endproc
                                        # -- End function
	.globl	_ZN2kc13impl_patterns7rewriteERNS_11rview_classE # -- Begin function _ZN2kc13impl_patterns7rewriteERNS_11rview_classE
	.p2align	2
	.type	_ZN2kc13impl_patterns7rewriteERNS_11rview_classE,@function
_ZN2kc13impl_patterns7rewriteERNS_11rview_classE: # @_ZN2kc13impl_patterns7rewriteERNS_11rview_classE
	.cfi_startproc
# %bb.0:                                # %entry
	addi.d	$sp, $sp, -32
	.cfi_def_cfa_offset 32
	st.d	$ra, $sp, 24                    # 8-byte Folded Spill
	st.d	$fp, $sp, 16                    # 8-byte Folded Spill
	st.d	$s0, $sp, 8                     # 8-byte Folded Spill
	st.d	$s1, $sp, 0                     # 8-byte Folded Spill
	.cfi_offset 1, -8
	.cfi_offset 22, -16
	.cfi_offset 23, -24
	.cfi_offset 24, -32
	move	$fp, $a0
	ld.d	$a0, $a0, 0
	ld.d	$a2, $a0, 88
	move	$s0, $a1
	move	$a0, $fp
	jirl	$ra, $a2, 0
	bnez	$a0, .LBB67_4
# %bb.1:                                # %if.else
	ld.d	$a0, $fp, 8
	ld.d	$a1, $a0, 0
	ld.d	$a2, $a1, 24
	move	$a1, $s0
	jirl	$ra, $a2, 0
	ld.d	$a1, $fp, 16
	ld.d	$a2, $a1, 0
	ld.d	$a2, $a2, 24
	move	$s1, $a0
	move	$a0, $a1
	move	$a1, $s0
	jirl	$ra, $a2, 0
	ld.d	$a2, $fp, 8
	move	$a1, $a0
	bne	$s1, $a2, .LBB67_3
# %bb.2:                                # %if.else
	ld.d	$a2, $fp, 16
	beq	$a1, $a2, .LBB67_4
.LBB67_3:                               # %if.else12
	move	$a0, $s1
	pcaddu18i	$ra, %call36(_ZN2kc12ConspatternsEPNS_12impl_patternEPNS_13impl_patternsE)
	jirl	$ra, $ra, 0
	move	$s0, $a0
	ld.d	$a0, $a0, 0
	ld.d	$a2, $a0, 40
	move	$a0, $s0
	move	$a1, $fp
	jirl	$ra, $a2, 0
	move	$fp, $s0
.LBB67_4:                               # %return
	move	$a0, $fp
	ld.d	$s1, $sp, 0                     # 8-byte Folded Reload
	ld.d	$s0, $sp, 8                     # 8-byte Folded Reload
	ld.d	$fp, $sp, 16                    # 8-byte Folded Reload
	ld.d	$ra, $sp, 24                    # 8-byte Folded Reload
	addi.d	$sp, $sp, 32
	ret
.Lfunc_end67:
	.size	_ZN2kc13impl_patterns7rewriteERNS_11rview_classE, .Lfunc_end67-_ZN2kc13impl_patterns7rewriteERNS_11rview_classE
	.cfi_endproc
                                        # -- End function
	.globl	_ZN2kc21impl_term_TIntLiteral7rewriteERNS_11rview_classE # -- Begin function _ZN2kc21impl_term_TIntLiteral7rewriteERNS_11rview_classE
	.p2align	2
	.type	_ZN2kc21impl_term_TIntLiteral7rewriteERNS_11rview_classE,@function
_ZN2kc21impl_term_TIntLiteral7rewriteERNS_11rview_classE: # @_ZN2kc21impl_term_TIntLiteral7rewriteERNS_11rview_classE
	.cfi_startproc
# %bb.0:                                # %entry
	addi.d	$sp, $sp, -32
	.cfi_def_cfa_offset 32
	st.d	$ra, $sp, 24                    # 8-byte Folded Spill
	st.d	$fp, $sp, 16                    # 8-byte Folded Spill
	st.d	$s0, $sp, 8                     # 8-byte Folded Spill
	.cfi_offset 1, -8
	.cfi_offset 22, -16
	.cfi_offset 23, -24
	move	$fp, $a0
	ld.d	$a0, $a0, 24
	ld.d	$a2, $a0, 0
	ld.d	$a2, $a2, 24
	jirl	$ra, $a2, 0
	ld.d	$a1, $fp, 24
	beq	$a0, $a1, .LBB68_2
# %bb.1:                                # %if.else
	pcaddu18i	$ra, %call36(_ZN2kc11TIntLiteralEPNS_8impl_INTE)
	jirl	$ra, $ra, 0
	move	$s0, $a0
	ld.d	$a0, $a0, 0
	ld.d	$a2, $a0, 40
	move	$a0, $s0
	move	$a1, $fp
	jirl	$ra, $a2, 0
	move	$fp, $s0
.LBB68_2:                               # %cleanup
	move	$a0, $fp
	ld.d	$s0, $sp, 8                     # 8-byte Folded Reload
	ld.d	$fp, $sp, 16                    # 8-byte Folded Reload
	ld.d	$ra, $sp, 24                    # 8-byte Folded Reload
	addi.d	$sp, $sp, 32
	ret
.Lfunc_end68:
	.size	_ZN2kc21impl_term_TIntLiteral7rewriteERNS_11rview_classE, .Lfunc_end68-_ZN2kc21impl_term_TIntLiteral7rewriteERNS_11rview_classE
	.cfi_endproc
                                        # -- End function
	.globl	_ZN2kc24impl_term_TStringLiteral7rewriteERNS_11rview_classE # -- Begin function _ZN2kc24impl_term_TStringLiteral7rewriteERNS_11rview_classE
	.p2align	2
	.type	_ZN2kc24impl_term_TStringLiteral7rewriteERNS_11rview_classE,@function
_ZN2kc24impl_term_TStringLiteral7rewriteERNS_11rview_classE: # @_ZN2kc24impl_term_TStringLiteral7rewriteERNS_11rview_classE
	.cfi_startproc
# %bb.0:                                # %entry
	addi.d	$sp, $sp, -32
	.cfi_def_cfa_offset 32
	st.d	$ra, $sp, 24                    # 8-byte Folded Spill
	st.d	$fp, $sp, 16                    # 8-byte Folded Spill
	st.d	$s0, $sp, 8                     # 8-byte Folded Spill
	.cfi_offset 1, -8
	.cfi_offset 22, -16
	.cfi_offset 23, -24
	move	$fp, $a0
	ld.d	$a0, $a0, 24
	ld.d	$a2, $a0, 0
	ld.d	$a2, $a2, 24
	jirl	$ra, $a2, 0
	ld.d	$a1, $fp, 24
	beq	$a0, $a1, .LBB69_2
# %bb.1:                                # %if.else
	pcaddu18i	$ra, %call36(_ZN2kc14TStringLiteralEPNS_18impl_CexpressionDQE)
	jirl	$ra, $ra, 0
	move	$s0, $a0
	ld.d	$a0, $a0, 0
	ld.d	$a2, $a0, 40
	move	$a0, $s0
	move	$a1, $fp
	jirl	$ra, $a2, 0
	move	$fp, $s0
.LBB69_2:                               # %cleanup
	move	$a0, $fp
	ld.d	$s0, $sp, 8                     # 8-byte Folded Reload
	ld.d	$fp, $sp, 16                    # 8-byte Folded Reload
	ld.d	$ra, $sp, 24                    # 8-byte Folded Reload
	addi.d	$sp, $sp, 32
	ret
.Lfunc_end69:
	.size	_ZN2kc24impl_term_TStringLiteral7rewriteERNS_11rview_classE, .Lfunc_end69-_ZN2kc24impl_term_TStringLiteral7rewriteERNS_11rview_classE
	.cfi_endproc
                                        # -- End function
	.globl	_ZN2kc16impl_term_TCTerm7rewriteERNS_11rview_classE # -- Begin function _ZN2kc16impl_term_TCTerm7rewriteERNS_11rview_classE
	.p2align	2
	.type	_ZN2kc16impl_term_TCTerm7rewriteERNS_11rview_classE,@function
_ZN2kc16impl_term_TCTerm7rewriteERNS_11rview_classE: # @_ZN2kc16impl_term_TCTerm7rewriteERNS_11rview_classE
	.cfi_startproc
# %bb.0:                                # %entry
	addi.d	$sp, $sp, -32
	.cfi_def_cfa_offset 32
	st.d	$ra, $sp, 24                    # 8-byte Folded Spill
	st.d	$fp, $sp, 16                    # 8-byte Folded Spill
	st.d	$s0, $sp, 8                     # 8-byte Folded Spill
	.cfi_offset 1, -8
	.cfi_offset 22, -16
	.cfi_offset 23, -24
	move	$fp, $a0
	ld.d	$a0, $a0, 24
	ld.d	$a2, $a0, 0
	ld.d	$a2, $a2, 24
	jirl	$ra, $a2, 0
	ld.d	$a1, $fp, 24
	beq	$a0, $a1, .LBB70_2
# %bb.1:                                # %if.else
	pcaddu18i	$ra, %call36(_ZN2kc6TCTermEPNS_18impl_CexpressionSQE)
	jirl	$ra, $ra, 0
	move	$s0, $a0
	ld.d	$a0, $a0, 0
	ld.d	$a2, $a0, 40
	move	$a0, $s0
	move	$a1, $fp
	jirl	$ra, $a2, 0
	move	$fp, $s0
.LBB70_2:                               # %cleanup
	move	$a0, $fp
	ld.d	$s0, $sp, 8                     # 8-byte Folded Reload
	ld.d	$fp, $sp, 16                    # 8-byte Folded Reload
	ld.d	$ra, $sp, 24                    # 8-byte Folded Reload
	addi.d	$sp, $sp, 32
	ret
.Lfunc_end70:
	.size	_ZN2kc16impl_term_TCTerm7rewriteERNS_11rview_classE, .Lfunc_end70-_ZN2kc16impl_term_TCTerm7rewriteERNS_11rview_classE
	.cfi_endproc
                                        # -- End function
	.globl	_ZN2kc23impl_term_TMemberVarDot7rewriteERNS_11rview_classE # -- Begin function _ZN2kc23impl_term_TMemberVarDot7rewriteERNS_11rview_classE
	.p2align	2
	.type	_ZN2kc23impl_term_TMemberVarDot7rewriteERNS_11rview_classE,@function
_ZN2kc23impl_term_TMemberVarDot7rewriteERNS_11rview_classE: # @_ZN2kc23impl_term_TMemberVarDot7rewriteERNS_11rview_classE
	.cfi_startproc
# %bb.0:                                # %entry
	addi.d	$sp, $sp, -32
	.cfi_def_cfa_offset 32
	st.d	$ra, $sp, 24                    # 8-byte Folded Spill
	st.d	$fp, $sp, 16                    # 8-byte Folded Spill
	st.d	$s0, $sp, 8                     # 8-byte Folded Spill
	st.d	$s1, $sp, 0                     # 8-byte Folded Spill
	.cfi_offset 1, -8
	.cfi_offset 22, -16
	.cfi_offset 23, -24
	.cfi_offset 24, -32
	move	$fp, $a0
	ld.d	$a0, $a0, 24
	ld.d	$a2, $a0, 0
	ld.d	$a2, $a2, 24
	move	$s0, $a1
	jirl	$ra, $a2, 0
	ld.d	$a1, $fp, 32
	ld.d	$a2, $a1, 0
	ld.d	$a2, $a2, 24
	move	$s1, $a0
	move	$a0, $a1
	move	$a1, $s0
	jirl	$ra, $a2, 0
	ld.d	$a2, $fp, 24
	move	$a1, $a0
	bne	$s1, $a2, .LBB71_2
# %bb.1:                                # %entry
	ld.d	$a2, $fp, 32
	beq	$a1, $a2, .LBB71_3
.LBB71_2:                               # %if.else
	move	$a0, $s1
	pcaddu18i	$ra, %call36(_ZN2kc13TMemberVarDotEPNS_9impl_termEPNS_7impl_IDE)
	jirl	$ra, $ra, 0
	move	$s0, $a0
	ld.d	$a0, $a0, 0
	ld.d	$a2, $a0, 40
	move	$a0, $s0
	move	$a1, $fp
	jirl	$ra, $a2, 0
	move	$fp, $s0
.LBB71_3:                               # %cleanup
	move	$a0, $fp
	ld.d	$s1, $sp, 0                     # 8-byte Folded Reload
	ld.d	$s0, $sp, 8                     # 8-byte Folded Reload
	ld.d	$fp, $sp, 16                    # 8-byte Folded Reload
	ld.d	$ra, $sp, 24                    # 8-byte Folded Reload
	addi.d	$sp, $sp, 32
	ret
.Lfunc_end71:
	.size	_ZN2kc23impl_term_TMemberVarDot7rewriteERNS_11rview_classE, .Lfunc_end71-_ZN2kc23impl_term_TMemberVarDot7rewriteERNS_11rview_classE
	.cfi_endproc
                                        # -- End function
	.globl	_ZN2kc20impl_term_TMemberVar7rewriteERNS_11rview_classE # -- Begin function _ZN2kc20impl_term_TMemberVar7rewriteERNS_11rview_classE
	.p2align	2
	.type	_ZN2kc20impl_term_TMemberVar7rewriteERNS_11rview_classE,@function
_ZN2kc20impl_term_TMemberVar7rewriteERNS_11rview_classE: # @_ZN2kc20impl_term_TMemberVar7rewriteERNS_11rview_classE
	.cfi_startproc
# %bb.0:                                # %entry
	addi.d	$sp, $sp, -32
	.cfi_def_cfa_offset 32
	st.d	$ra, $sp, 24                    # 8-byte Folded Spill
	st.d	$fp, $sp, 16                    # 8-byte Folded Spill
	st.d	$s0, $sp, 8                     # 8-byte Folded Spill
	st.d	$s1, $sp, 0                     # 8-byte Folded Spill
	.cfi_offset 1, -8
	.cfi_offset 22, -16
	.cfi_offset 23, -24
	.cfi_offset 24, -32
	move	$fp, $a0
	ld.d	$a0, $a0, 24
	ld.d	$a2, $a0, 0
	ld.d	$a2, $a2, 24
	move	$s0, $a1
	jirl	$ra, $a2, 0
	ld.d	$a1, $fp, 32
	ld.d	$a2, $a1, 0
	ld.d	$a2, $a2, 24
	move	$s1, $a0
	move	$a0, $a1
	move	$a1, $s0
	jirl	$ra, $a2, 0
	ld.d	$a2, $fp, 24
	move	$a1, $a0
	bne	$s1, $a2, .LBB72_2
# %bb.1:                                # %entry
	ld.d	$a2, $fp, 32
	beq	$a1, $a2, .LBB72_3
.LBB72_2:                               # %if.else
	move	$a0, $s1
	pcaddu18i	$ra, %call36(_ZN2kc10TMemberVarEPNS_9impl_termEPNS_7impl_IDE)
	jirl	$ra, $ra, 0
	move	$s0, $a0
	ld.d	$a0, $a0, 0
	ld.d	$a2, $a0, 40
	move	$a0, $s0
	move	$a1, $fp
	jirl	$ra, $a2, 0
	move	$fp, $s0
.LBB72_3:                               # %cleanup
	move	$a0, $fp
	ld.d	$s1, $sp, 0                     # 8-byte Folded Reload
	ld.d	$s0, $sp, 8                     # 8-byte Folded Reload
	ld.d	$fp, $sp, 16                    # 8-byte Folded Reload
	ld.d	$ra, $sp, 24                    # 8-byte Folded Reload
	addi.d	$sp, $sp, 32
	ret
.Lfunc_end72:
	.size	_ZN2kc20impl_term_TMemberVar7rewriteERNS_11rview_classE, .Lfunc_end72-_ZN2kc20impl_term_TMemberVar7rewriteERNS_11rview_classE
	.cfi_endproc
                                        # -- End function
	.globl	_ZN2kc20impl_term_TMethodDot7rewriteERNS_11rview_classE # -- Begin function _ZN2kc20impl_term_TMethodDot7rewriteERNS_11rview_classE
	.p2align	2
	.type	_ZN2kc20impl_term_TMethodDot7rewriteERNS_11rview_classE,@function
_ZN2kc20impl_term_TMethodDot7rewriteERNS_11rview_classE: # @_ZN2kc20impl_term_TMethodDot7rewriteERNS_11rview_classE
	.cfi_startproc
# %bb.0:                                # %entry
	addi.d	$sp, $sp, -48
	.cfi_def_cfa_offset 48
	st.d	$ra, $sp, 40                    # 8-byte Folded Spill
	st.d	$fp, $sp, 32                    # 8-byte Folded Spill
	st.d	$s0, $sp, 24                    # 8-byte Folded Spill
	st.d	$s1, $sp, 16                    # 8-byte Folded Spill
	st.d	$s2, $sp, 8                     # 8-byte Folded Spill
	.cfi_offset 1, -8
	.cfi_offset 22, -16
	.cfi_offset 23, -24
	.cfi_offset 24, -32
	.cfi_offset 25, -40
	move	$fp, $a0
	ld.d	$a0, $a0, 24
	ld.d	$a2, $a0, 0
	ld.d	$a2, $a2, 24
	move	$s1, $a1
	jirl	$ra, $a2, 0
	ld.d	$a1, $fp, 32
	ld.d	$a2, $a1, 0
	ld.d	$a2, $a2, 24
	move	$s2, $a0
	move	$a0, $a1
	move	$a1, $s1
	jirl	$ra, $a2, 0
	ld.d	$a1, $fp, 40
	ld.d	$a2, $a1, 0
	ld.d	$a2, $a2, 24
	move	$s0, $a0
	move	$a0, $a1
	move	$a1, $s1
	jirl	$ra, $a2, 0
	ld.d	$a1, $fp, 24
	move	$a2, $a0
	bne	$s2, $a1, .LBB73_3
# %bb.1:                                # %entry
	ld.d	$a1, $fp, 32
	bne	$s0, $a1, .LBB73_3
# %bb.2:                                # %entry
	ld.d	$a1, $fp, 40
	beq	$a2, $a1, .LBB73_4
.LBB73_3:                               # %if.else
	move	$a0, $s2
	move	$a1, $s0
	pcaddu18i	$ra, %call36(_ZN2kc10TMethodDotEPNS_9impl_termEPNS_7impl_IDEPNS_10impl_termsE)
	jirl	$ra, $ra, 0
	move	$s0, $a0
	ld.d	$a0, $a0, 0
	ld.d	$a2, $a0, 40
	move	$a0, $s0
	move	$a1, $fp
	jirl	$ra, $a2, 0
	move	$fp, $s0
.LBB73_4:                               # %cleanup
	move	$a0, $fp
	ld.d	$s2, $sp, 8                     # 8-byte Folded Reload
	ld.d	$s1, $sp, 16                    # 8-byte Folded Reload
	ld.d	$s0, $sp, 24                    # 8-byte Folded Reload
	ld.d	$fp, $sp, 32                    # 8-byte Folded Reload
	ld.d	$ra, $sp, 40                    # 8-byte Folded Reload
	addi.d	$sp, $sp, 48
	ret
.Lfunc_end73:
	.size	_ZN2kc20impl_term_TMethodDot7rewriteERNS_11rview_classE, .Lfunc_end73-_ZN2kc20impl_term_TMethodDot7rewriteERNS_11rview_classE
	.cfi_endproc
                                        # -- End function
	.globl	_ZN2kc17impl_term_TMethod7rewriteERNS_11rview_classE # -- Begin function _ZN2kc17impl_term_TMethod7rewriteERNS_11rview_classE
	.p2align	2
	.type	_ZN2kc17impl_term_TMethod7rewriteERNS_11rview_classE,@function
_ZN2kc17impl_term_TMethod7rewriteERNS_11rview_classE: # @_ZN2kc17impl_term_TMethod7rewriteERNS_11rview_classE
	.cfi_startproc
# %bb.0:                                # %entry
	addi.d	$sp, $sp, -48
	.cfi_def_cfa_offset 48
	st.d	$ra, $sp, 40                    # 8-byte Folded Spill
	st.d	$fp, $sp, 32                    # 8-byte Folded Spill
	st.d	$s0, $sp, 24                    # 8-byte Folded Spill
	st.d	$s1, $sp, 16                    # 8-byte Folded Spill
	st.d	$s2, $sp, 8                     # 8-byte Folded Spill
	.cfi_offset 1, -8
	.cfi_offset 22, -16
	.cfi_offset 23, -24
	.cfi_offset 24, -32
	.cfi_offset 25, -40
	move	$fp, $a0
	ld.d	$a0, $a0, 24
	ld.d	$a2, $a0, 0
	ld.d	$a2, $a2, 24
	move	$s1, $a1
	jirl	$ra, $a2, 0
	ld.d	$a1, $fp, 32
	ld.d	$a2, $a1, 0
	ld.d	$a2, $a2, 24
	move	$s2, $a0
	move	$a0, $a1
	move	$a1, $s1
	jirl	$ra, $a2, 0
	ld.d	$a1, $fp, 40
	ld.d	$a2, $a1, 0
	ld.d	$a2, $a2, 24
	move	$s0, $a0
	move	$a0, $a1
	move	$a1, $s1
	jirl	$ra, $a2, 0
	ld.d	$a1, $fp, 24
	move	$a2, $a0
	bne	$s2, $a1, .LBB74_3
# %bb.1:                                # %entry
	ld.d	$a1, $fp, 32
	bne	$s0, $a1, .LBB74_3
# %bb.2:                                # %entry
	ld.d	$a1, $fp, 40
	beq	$a2, $a1, .LBB74_4
.LBB74_3:                               # %if.else
	move	$a0, $s2
	move	$a1, $s0
	pcaddu18i	$ra, %call36(_ZN2kc7TMethodEPNS_9impl_termEPNS_7impl_IDEPNS_10impl_termsE)
	jirl	$ra, $ra, 0
	move	$s0, $a0
	ld.d	$a0, $a0, 0
	ld.d	$a2, $a0, 40
	move	$a0, $s0
	move	$a1, $fp
	jirl	$ra, $a2, 0
	move	$fp, $s0
.LBB74_4:                               # %cleanup
	move	$a0, $fp
	ld.d	$s2, $sp, 8                     # 8-byte Folded Reload
	ld.d	$s1, $sp, 16                    # 8-byte Folded Reload
	ld.d	$s0, $sp, 24                    # 8-byte Folded Reload
	ld.d	$fp, $sp, 32                    # 8-byte Folded Reload
	ld.d	$ra, $sp, 40                    # 8-byte Folded Reload
	addi.d	$sp, $sp, 48
	ret
.Lfunc_end74:
	.size	_ZN2kc17impl_term_TMethod7rewriteERNS_11rview_classE, .Lfunc_end74-_ZN2kc17impl_term_TMethod7rewriteERNS_11rview_classE
	.cfi_endproc
                                        # -- End function
	.globl	_ZN2kc19impl_term_TOperator7rewriteERNS_11rview_classE # -- Begin function _ZN2kc19impl_term_TOperator7rewriteERNS_11rview_classE
	.p2align	2
	.type	_ZN2kc19impl_term_TOperator7rewriteERNS_11rview_classE,@function
_ZN2kc19impl_term_TOperator7rewriteERNS_11rview_classE: # @_ZN2kc19impl_term_TOperator7rewriteERNS_11rview_classE
	.cfi_startproc
# %bb.0:                                # %entry
	addi.d	$sp, $sp, -32
	.cfi_def_cfa_offset 32
	st.d	$ra, $sp, 24                    # 8-byte Folded Spill
	st.d	$fp, $sp, 16                    # 8-byte Folded Spill
	st.d	$s0, $sp, 8                     # 8-byte Folded Spill
	st.d	$s1, $sp, 0                     # 8-byte Folded Spill
	.cfi_offset 1, -8
	.cfi_offset 22, -16
	.cfi_offset 23, -24
	.cfi_offset 24, -32
	move	$fp, $a0
	ld.d	$a0, $a0, 24
	ld.d	$a2, $a0, 0
	ld.d	$a2, $a2, 24
	move	$s0, $a1
	jirl	$ra, $a2, 0
	ld.d	$a1, $fp, 32
	ld.d	$a2, $a1, 0
	ld.d	$a2, $a2, 24
	move	$s1, $a0
	move	$a0, $a1
	move	$a1, $s0
	jirl	$ra, $a2, 0
	ld.d	$a2, $fp, 24
	move	$a1, $a0
	bne	$s1, $a2, .LBB75_2
# %bb.1:                                # %entry
	ld.d	$a2, $fp, 32
	beq	$a1, $a2, .LBB75_3
.LBB75_2:                               # %if.else
	move	$a0, $s1
	pcaddu18i	$ra, %call36(_ZN2kc9TOperatorEPNS_7impl_IDEPNS_10impl_termsE)
	jirl	$ra, $ra, 0
	move	$s0, $a0
	ld.d	$a0, $a0, 0
	ld.d	$a2, $a0, 40
	move	$a0, $s0
	move	$a1, $fp
	jirl	$ra, $a2, 0
	move	$fp, $s0
.LBB75_3:                               # %cleanup
	move	$a0, $fp
	ld.d	$s1, $sp, 0                     # 8-byte Folded Reload
	ld.d	$s0, $sp, 8                     # 8-byte Folded Reload
	ld.d	$fp, $sp, 16                    # 8-byte Folded Reload
	ld.d	$ra, $sp, 24                    # 8-byte Folded Reload
	addi.d	$sp, $sp, 32
	ret
.Lfunc_end75:
	.size	_ZN2kc19impl_term_TOperator7rewriteERNS_11rview_classE, .Lfunc_end75-_ZN2kc19impl_term_TOperator7rewriteERNS_11rview_classE
	.cfi_endproc
                                        # -- End function
	.globl	_ZN2kc19impl_term_TVariable7rewriteERNS_11rview_classE # -- Begin function _ZN2kc19impl_term_TVariable7rewriteERNS_11rview_classE
	.p2align	2
	.type	_ZN2kc19impl_term_TVariable7rewriteERNS_11rview_classE,@function
_ZN2kc19impl_term_TVariable7rewriteERNS_11rview_classE: # @_ZN2kc19impl_term_TVariable7rewriteERNS_11rview_classE
	.cfi_startproc
# %bb.0:                                # %entry
	addi.d	$sp, $sp, -32
	.cfi_def_cfa_offset 32
	st.d	$ra, $sp, 24                    # 8-byte Folded Spill
	st.d	$fp, $sp, 16                    # 8-byte Folded Spill
	st.d	$s0, $sp, 8                     # 8-byte Folded Spill
	.cfi_offset 1, -8
	.cfi_offset 22, -16
	.cfi_offset 23, -24
	move	$fp, $a0
	ld.d	$a0, $a0, 24
	ld.d	$a2, $a0, 0
	ld.d	$a2, $a2, 24
	jirl	$ra, $a2, 0
	ld.d	$a1, $fp, 24
	beq	$a0, $a1, .LBB76_2
# %bb.1:                                # %if.else
	pcaddu18i	$ra, %call36(_ZN2kc9TVariableEPNS_7impl_IDE)
	jirl	$ra, $ra, 0
	move	$s0, $a0
	ld.d	$a0, $a0, 0
	ld.d	$a2, $a0, 40
	move	$a0, $s0
	move	$a1, $fp
	jirl	$ra, $a2, 0
	move	$fp, $s0
.LBB76_2:                               # %cleanup
	move	$a0, $fp
	ld.d	$s0, $sp, 8                     # 8-byte Folded Reload
	ld.d	$fp, $sp, 16                    # 8-byte Folded Reload
	ld.d	$ra, $sp, 24                    # 8-byte Folded Reload
	addi.d	$sp, $sp, 32
	ret
.Lfunc_end76:
	.size	_ZN2kc19impl_term_TVariable7rewriteERNS_11rview_classE, .Lfunc_end76-_ZN2kc19impl_term_TVariable7rewriteERNS_11rview_classE
	.cfi_endproc
                                        # -- End function
	.globl	_ZN2kc10impl_terms7rewriteERNS_11rview_classE # -- Begin function _ZN2kc10impl_terms7rewriteERNS_11rview_classE
	.p2align	2
	.type	_ZN2kc10impl_terms7rewriteERNS_11rview_classE,@function
_ZN2kc10impl_terms7rewriteERNS_11rview_classE: # @_ZN2kc10impl_terms7rewriteERNS_11rview_classE
	.cfi_startproc
# %bb.0:                                # %entry
	addi.d	$sp, $sp, -32
	.cfi_def_cfa_offset 32
	st.d	$ra, $sp, 24                    # 8-byte Folded Spill
	st.d	$fp, $sp, 16                    # 8-byte Folded Spill
	st.d	$s0, $sp, 8                     # 8-byte Folded Spill
	st.d	$s1, $sp, 0                     # 8-byte Folded Spill
	.cfi_offset 1, -8
	.cfi_offset 22, -16
	.cfi_offset 23, -24
	.cfi_offset 24, -32
	move	$fp, $a0
	ld.d	$a0, $a0, 0
	ld.d	$a2, $a0, 88
	move	$s0, $a1
	move	$a0, $fp
	jirl	$ra, $a2, 0
	bnez	$a0, .LBB77_4
# %bb.1:                                # %if.else
	ld.d	$a0, $fp, 8
	ld.d	$a1, $a0, 0
	ld.d	$a2, $a1, 24
	move	$a1, $s0
	jirl	$ra, $a2, 0
	ld.d	$a1, $fp, 16
	ld.d	$a2, $a1, 0
	ld.d	$a2, $a2, 24
	move	$s1, $a0
	move	$a0, $a1
	move	$a1, $s0
	jirl	$ra, $a2, 0
	ld.d	$a2, $fp, 8
	move	$a1, $a0
	bne	$s1, $a2, .LBB77_3
# %bb.2:                                # %if.else
	ld.d	$a2, $fp, 16
	beq	$a1, $a2, .LBB77_4
.LBB77_3:                               # %if.else12
	move	$a0, $s1
	pcaddu18i	$ra, %call36(_ZN2kc9ConstermsEPNS_9impl_termEPNS_10impl_termsE)
	jirl	$ra, $ra, 0
	move	$s0, $a0
	ld.d	$a0, $a0, 0
	ld.d	$a2, $a0, 40
	move	$a0, $s0
	move	$a1, $fp
	jirl	$ra, $a2, 0
	move	$fp, $s0
.LBB77_4:                               # %return
	move	$a0, $fp
	ld.d	$s1, $sp, 0                     # 8-byte Folded Reload
	ld.d	$s0, $sp, 8                     # 8-byte Folded Reload
	ld.d	$fp, $sp, 16                    # 8-byte Folded Reload
	ld.d	$ra, $sp, 24                    # 8-byte Folded Reload
	addi.d	$sp, $sp, 32
	ret
.Lfunc_end77:
	.size	_ZN2kc10impl_terms7rewriteERNS_11rview_classE, .Lfunc_end77-_ZN2kc10impl_terms7rewriteERNS_11rview_classE
	.cfi_endproc
                                        # -- End function
	.globl	_ZN2kc12impl_fnfiles7rewriteERNS_11rview_classE # -- Begin function _ZN2kc12impl_fnfiles7rewriteERNS_11rview_classE
	.p2align	2
	.type	_ZN2kc12impl_fnfiles7rewriteERNS_11rview_classE,@function
_ZN2kc12impl_fnfiles7rewriteERNS_11rview_classE: # @_ZN2kc12impl_fnfiles7rewriteERNS_11rview_classE
	.cfi_startproc
# %bb.0:                                # %entry
	addi.d	$sp, $sp, -32
	.cfi_def_cfa_offset 32
	st.d	$ra, $sp, 24                    # 8-byte Folded Spill
	st.d	$fp, $sp, 16                    # 8-byte Folded Spill
	st.d	$s0, $sp, 8                     # 8-byte Folded Spill
	st.d	$s1, $sp, 0                     # 8-byte Folded Spill
	.cfi_offset 1, -8
	.cfi_offset 22, -16
	.cfi_offset 23, -24
	.cfi_offset 24, -32
	move	$fp, $a0
	ld.d	$a0, $a0, 0
	ld.d	$a2, $a0, 88
	move	$s0, $a1
	move	$a0, $fp
	jirl	$ra, $a2, 0
	bnez	$a0, .LBB78_4
# %bb.1:                                # %if.else
	ld.d	$a0, $fp, 8
	ld.d	$a1, $a0, 0
	ld.d	$a2, $a1, 24
	move	$a1, $s0
	jirl	$ra, $a2, 0
	ld.d	$a1, $fp, 16
	ld.d	$a2, $a1, 0
	ld.d	$a2, $a2, 24
	move	$s1, $a0
	move	$a0, $a1
	move	$a1, $s0
	jirl	$ra, $a2, 0
	ld.d	$a2, $fp, 8
	move	$a1, $a0
	bne	$s1, $a2, .LBB78_3
# %bb.2:                                # %if.else
	ld.d	$a2, $fp, 16
	beq	$a1, $a2, .LBB78_4
.LBB78_3:                               # %if.else12
	move	$a0, $s1
	pcaddu18i	$ra, %call36(_ZN2kc11ConsfnfilesEPNS_11impl_fnfileEPNS_12impl_fnfilesE)
	jirl	$ra, $ra, 0
	move	$s0, $a0
	ld.d	$a0, $a0, 0
	ld.d	$a2, $a0, 40
	move	$a0, $s0
	move	$a1, $fp
	jirl	$ra, $a2, 0
	move	$fp, $s0
.LBB78_4:                               # %return
	move	$a0, $fp
	ld.d	$s1, $sp, 0                     # 8-byte Folded Reload
	ld.d	$s0, $sp, 8                     # 8-byte Folded Reload
	ld.d	$fp, $sp, 16                    # 8-byte Folded Reload
	ld.d	$ra, $sp, 24                    # 8-byte Folded Reload
	addi.d	$sp, $sp, 32
	ret
.Lfunc_end78:
	.size	_ZN2kc12impl_fnfiles7rewriteERNS_11rview_classE, .Lfunc_end78-_ZN2kc12impl_fnfiles7rewriteERNS_11rview_classE
	.cfi_endproc
                                        # -- End function
	.globl	_ZN2kc18impl_fnfile_FnFile7rewriteERNS_11rview_classE # -- Begin function _ZN2kc18impl_fnfile_FnFile7rewriteERNS_11rview_classE
	.p2align	2
	.type	_ZN2kc18impl_fnfile_FnFile7rewriteERNS_11rview_classE,@function
_ZN2kc18impl_fnfile_FnFile7rewriteERNS_11rview_classE: # @_ZN2kc18impl_fnfile_FnFile7rewriteERNS_11rview_classE
	.cfi_startproc
# %bb.0:                                # %entry
	addi.d	$sp, $sp, -32
	.cfi_def_cfa_offset 32
	st.d	$ra, $sp, 24                    # 8-byte Folded Spill
	st.d	$fp, $sp, 16                    # 8-byte Folded Spill
	st.d	$s0, $sp, 8                     # 8-byte Folded Spill
	.cfi_offset 1, -8
	.cfi_offset 22, -16
	.cfi_offset 23, -24
	move	$fp, $a0
	ld.d	$a0, $a0, 16
	ld.d	$a2, $a0, 0
	ld.d	$a2, $a2, 24
	jirl	$ra, $a2, 0
	ld.d	$a1, $fp, 16
	beq	$a0, $a1, .LBB79_2
# %bb.1:                                # %if.else
	pcaddu18i	$ra, %call36(_ZN2kc6FnFileEPNS_20impl_casestring__StrE)
	jirl	$ra, $ra, 0
	move	$s0, $a0
	ld.d	$a0, $a0, 0
	ld.d	$a2, $a0, 40
	move	$a0, $s0
	move	$a1, $fp
	jirl	$ra, $a2, 0
	move	$fp, $s0
.LBB79_2:                               # %cleanup
	move	$a0, $fp
	ld.d	$s0, $sp, 8                     # 8-byte Folded Reload
	ld.d	$fp, $sp, 16                    # 8-byte Folded Reload
	ld.d	$ra, $sp, 24                    # 8-byte Folded Reload
	addi.d	$sp, $sp, 32
	ret
.Lfunc_end79:
	.size	_ZN2kc18impl_fnfile_FnFile7rewriteERNS_11rview_classE, .Lfunc_end79-_ZN2kc18impl_fnfile_FnFile7rewriteERNS_11rview_classE
	.cfi_endproc
                                        # -- End function
	.globl	_ZN2kc19impl_fndeclarations7rewriteERNS_11rview_classE # -- Begin function _ZN2kc19impl_fndeclarations7rewriteERNS_11rview_classE
	.p2align	2
	.type	_ZN2kc19impl_fndeclarations7rewriteERNS_11rview_classE,@function
_ZN2kc19impl_fndeclarations7rewriteERNS_11rview_classE: # @_ZN2kc19impl_fndeclarations7rewriteERNS_11rview_classE
	.cfi_startproc
# %bb.0:                                # %entry
	addi.d	$sp, $sp, -32
	.cfi_def_cfa_offset 32
	st.d	$ra, $sp, 24                    # 8-byte Folded Spill
	st.d	$fp, $sp, 16                    # 8-byte Folded Spill
	st.d	$s0, $sp, 8                     # 8-byte Folded Spill
	st.d	$s1, $sp, 0                     # 8-byte Folded Spill
	.cfi_offset 1, -8
	.cfi_offset 22, -16
	.cfi_offset 23, -24
	.cfi_offset 24, -32
	move	$fp, $a0
	ld.d	$a0, $a0, 0
	ld.d	$a2, $a0, 88
	move	$s0, $a1
	move	$a0, $fp
	jirl	$ra, $a2, 0
	bnez	$a0, .LBB80_4
# %bb.1:                                # %if.else
	ld.d	$a0, $fp, 8
	ld.d	$a1, $a0, 0
	ld.d	$a2, $a1, 24
	move	$a1, $s0
	jirl	$ra, $a2, 0
	ld.d	$a1, $fp, 16
	ld.d	$a2, $a1, 0
	ld.d	$a2, $a2, 24
	move	$s1, $a0
	move	$a0, $a1
	move	$a1, $s0
	jirl	$ra, $a2, 0
	ld.d	$a2, $fp, 8
	move	$a1, $a0
	bne	$s1, $a2, .LBB80_3
# %bb.2:                                # %if.else
	ld.d	$a2, $fp, 16
	beq	$a1, $a2, .LBB80_4
.LBB80_3:                               # %if.else12
	move	$a0, $s1
	pcaddu18i	$ra, %call36(_ZN2kc18ConsfndeclarationsEPNS_18impl_fndeclarationEPNS_19impl_fndeclarationsE)
	jirl	$ra, $ra, 0
	move	$s0, $a0
	ld.d	$a0, $a0, 0
	ld.d	$a2, $a0, 40
	move	$a0, $s0
	move	$a1, $fp
	jirl	$ra, $a2, 0
	move	$fp, $s0
.LBB80_4:                               # %return
	move	$a0, $fp
	ld.d	$s1, $sp, 0                     # 8-byte Folded Reload
	ld.d	$s0, $sp, 8                     # 8-byte Folded Reload
	ld.d	$fp, $sp, 16                    # 8-byte Folded Reload
	ld.d	$ra, $sp, 24                    # 8-byte Folded Reload
	addi.d	$sp, $sp, 32
	ret
.Lfunc_end80:
	.size	_ZN2kc19impl_fndeclarations7rewriteERNS_11rview_classE, .Lfunc_end80-_ZN2kc19impl_fndeclarations7rewriteERNS_11rview_classE
	.cfi_endproc
                                        # -- End function
	.globl	_ZN2kc38impl_fndeclaration_AcMemberDeclaration7rewriteERNS_11rview_classE # -- Begin function _ZN2kc38impl_fndeclaration_AcMemberDeclaration7rewriteERNS_11rview_classE
	.p2align	2
	.type	_ZN2kc38impl_fndeclaration_AcMemberDeclaration7rewriteERNS_11rview_classE,@function
_ZN2kc38impl_fndeclaration_AcMemberDeclaration7rewriteERNS_11rview_classE: # @_ZN2kc38impl_fndeclaration_AcMemberDeclaration7rewriteERNS_11rview_classE
	.cfi_startproc
# %bb.0:                                # %entry
	addi.d	$sp, $sp, -48
	.cfi_def_cfa_offset 48
	st.d	$ra, $sp, 40                    # 8-byte Folded Spill
	st.d	$fp, $sp, 32                    # 8-byte Folded Spill
	st.d	$s0, $sp, 24                    # 8-byte Folded Spill
	st.d	$s1, $sp, 16                    # 8-byte Folded Spill
	st.d	$s2, $sp, 8                     # 8-byte Folded Spill
	st.d	$s3, $sp, 0                     # 8-byte Folded Spill
	.cfi_offset 1, -8
	.cfi_offset 22, -16
	.cfi_offset 23, -24
	.cfi_offset 24, -32
	.cfi_offset 25, -40
	.cfi_offset 26, -48
	move	$fp, $a0
	ld.d	$a0, $a0, 40
	ld.d	$a2, $a0, 0
	ld.d	$a2, $a2, 24
	move	$s2, $a1
	jirl	$ra, $a2, 0
	ld.d	$a1, $fp, 48
	ld.d	$a2, $a1, 0
	ld.d	$a2, $a2, 24
	move	$s3, $a0
	move	$a0, $a1
	move	$a1, $s2
	jirl	$ra, $a2, 0
	ld.d	$a1, $fp, 56
	ld.d	$a2, $a1, 0
	ld.d	$a2, $a2, 24
	move	$s0, $a0
	move	$a0, $a1
	move	$a1, $s2
	jirl	$ra, $a2, 0
	ld.d	$a1, $fp, 64
	ld.d	$a2, $a1, 0
	ld.d	$a2, $a2, 24
	move	$s1, $a0
	move	$a0, $a1
	move	$a1, $s2
	jirl	$ra, $a2, 0
	xvld	$xr0, $fp, 40
	xvinsgr2vr.d	$xr1, $s3, 0
	xvinsgr2vr.d	$xr1, $s0, 1
	xvinsgr2vr.d	$xr1, $s1, 2
	xvinsgr2vr.d	$xr1, $a0, 3
	xvseq.d	$xr0, $xr1, $xr0
	xvmskltz.d	$xr0, $xr0
	xvpickve2gr.wu	$a1, $xr0, 0
	xvpickve2gr.wu	$a2, $xr0, 4
	bstrins.d	$a1, $a2, 3, 2
	ori	$a2, $zero, 15
	beq	$a1, $a2, .LBB81_2
# %bb.1:                                # %if.else
	move	$a3, $a0
	move	$a0, $s3
	move	$a1, $s0
	move	$a2, $s1
	pcaddu18i	$ra, %call36(_ZN2kc19AcMemberDeclarationEPNS_30impl_ac_declaration_specifiersEPNS_18impl_ac_declaratorEPNS_34impl_ac_constant_expression_optionEPNS_12impl_fnclassE)
	jirl	$ra, $ra, 0
	move	$s0, $a0
	ld.d	$a0, $a0, 0
	ld.d	$a2, $a0, 40
	move	$a0, $s0
	move	$a1, $fp
	jirl	$ra, $a2, 0
	move	$fp, $s0
.LBB81_2:                               # %cleanup
	move	$a0, $fp
	ld.d	$s3, $sp, 0                     # 8-byte Folded Reload
	ld.d	$s2, $sp, 8                     # 8-byte Folded Reload
	ld.d	$s1, $sp, 16                    # 8-byte Folded Reload
	ld.d	$s0, $sp, 24                    # 8-byte Folded Reload
	ld.d	$fp, $sp, 32                    # 8-byte Folded Reload
	ld.d	$ra, $sp, 40                    # 8-byte Folded Reload
	addi.d	$sp, $sp, 48
	ret
.Lfunc_end81:
	.size	_ZN2kc38impl_fndeclaration_AcMemberDeclaration7rewriteERNS_11rview_classE, .Lfunc_end81-_ZN2kc38impl_fndeclaration_AcMemberDeclaration7rewriteERNS_11rview_classE
	.cfi_endproc
                                        # -- End function
	.globl	_ZN2kc34impl_fndeclaration_FnAcDeclaration7rewriteERNS_11rview_classE # -- Begin function _ZN2kc34impl_fndeclaration_FnAcDeclaration7rewriteERNS_11rview_classE
	.p2align	2
	.type	_ZN2kc34impl_fndeclaration_FnAcDeclaration7rewriteERNS_11rview_classE,@function
_ZN2kc34impl_fndeclaration_FnAcDeclaration7rewriteERNS_11rview_classE: # @_ZN2kc34impl_fndeclaration_FnAcDeclaration7rewriteERNS_11rview_classE
	.cfi_startproc
# %bb.0:                                # %entry
	addi.d	$sp, $sp, -80
	.cfi_def_cfa_offset 80
	st.d	$ra, $sp, 72                    # 8-byte Folded Spill
	st.d	$fp, $sp, 64                    # 8-byte Folded Spill
	st.d	$s0, $sp, 56                    # 8-byte Folded Spill
	st.d	$s1, $sp, 48                    # 8-byte Folded Spill
	st.d	$s2, $sp, 40                    # 8-byte Folded Spill
	st.d	$s3, $sp, 32                    # 8-byte Folded Spill
	st.d	$s4, $sp, 24                    # 8-byte Folded Spill
	st.d	$s5, $sp, 16                    # 8-byte Folded Spill
	st.d	$s6, $sp, 8                     # 8-byte Folded Spill
	.cfi_offset 1, -8
	.cfi_offset 22, -16
	.cfi_offset 23, -24
	.cfi_offset 24, -32
	.cfi_offset 25, -40
	.cfi_offset 26, -48
	.cfi_offset 27, -56
	.cfi_offset 28, -64
	.cfi_offset 29, -72
	move	$fp, $a0
	ld.d	$a0, $a0, 40
	ld.d	$a2, $a0, 0
	ld.d	$a2, $a2, 24
	move	$s4, $a1
	jirl	$ra, $a2, 0
	ld.d	$a1, $fp, 48
	ld.d	$a2, $a1, 0
	ld.d	$a2, $a2, 24
	move	$s0, $a0
	move	$a0, $a1
	move	$a1, $s4
	jirl	$ra, $a2, 0
	ld.d	$a1, $fp, 56
	ld.d	$a2, $a1, 0
	ld.d	$a2, $a2, 24
	move	$s1, $a0
	move	$a0, $a1
	move	$a1, $s4
	jirl	$ra, $a2, 0
	ld.d	$a1, $fp, 64
	ld.d	$a2, $a1, 0
	ld.d	$a2, $a2, 24
	move	$s2, $a0
	move	$a0, $a1
	move	$a1, $s4
	jirl	$ra, $a2, 0
	ld.d	$a1, $fp, 72
	ld.d	$a2, $a1, 0
	ld.d	$a2, $a2, 24
	move	$s3, $a0
	move	$a0, $a1
	move	$a1, $s4
	jirl	$ra, $a2, 0
	ld.d	$a1, $fp, 80
	ld.d	$a2, $a1, 0
	ld.d	$a2, $a2, 24
	move	$s5, $a0
	move	$a0, $a1
	move	$a1, $s4
	jirl	$ra, $a2, 0
	ld.d	$a1, $fp, 88
	ld.d	$a2, $a1, 0
	ld.d	$a2, $a2, 24
	move	$s6, $a0
	move	$a0, $a1
	move	$a1, $s4
	jirl	$ra, $a2, 0
	xvld	$xr0, $fp, 40
	xvinsgr2vr.d	$xr1, $s0, 0
	xvinsgr2vr.d	$xr1, $s1, 1
	xvinsgr2vr.d	$xr1, $s2, 2
	xvinsgr2vr.d	$xr1, $s3, 3
	xvseq.d	$xr0, $xr1, $xr0
	xvmskltz.d	$xr0, $xr0
	xvpickve2gr.wu	$a1, $xr0, 0
	xvpickve2gr.wu	$a2, $xr0, 4
	bstrins.d	$a1, $a2, 3, 2
	ori	$a2, $zero, 15
	move	$a6, $a0
	bne	$a1, $a2, .LBB82_4
# %bb.1:                                # %entry
	ld.d	$a0, $fp, 72
	bne	$s5, $a0, .LBB82_4
# %bb.2:                                # %entry
	ld.d	$a0, $fp, 80
	bne	$s6, $a0, .LBB82_4
# %bb.3:                                # %entry
	ld.d	$a0, $fp, 88
	beq	$a6, $a0, .LBB82_5
.LBB82_4:                               # %if.else
	move	$a0, $s0
	move	$a1, $s1
	move	$a2, $s2
	move	$a3, $s3
	move	$a4, $s5
	move	$a5, $s6
	pcaddu18i	$ra, %call36(_ZN2kc15FnAcDeclarationEPNS_30impl_ac_declaration_specifiersEPNS_18impl_ac_declaratorEPNS_24impl_ac_declaration_listEPNS_26impl_ac_opt_base_init_listEPNS_10impl_CtextEPNS_7impl_IDEPNS_12impl_fnclassE)
	jirl	$ra, $ra, 0
	move	$s0, $a0
	ld.d	$a0, $a0, 0
	ld.d	$a2, $a0, 40
	move	$a0, $s0
	move	$a1, $fp
	jirl	$ra, $a2, 0
	move	$fp, $s0
.LBB82_5:                               # %cleanup
	move	$a0, $fp
	ld.d	$s6, $sp, 8                     # 8-byte Folded Reload
	ld.d	$s5, $sp, 16                    # 8-byte Folded Reload
	ld.d	$s4, $sp, 24                    # 8-byte Folded Reload
	ld.d	$s3, $sp, 32                    # 8-byte Folded Reload
	ld.d	$s2, $sp, 40                    # 8-byte Folded Reload
	ld.d	$s1, $sp, 48                    # 8-byte Folded Reload
	ld.d	$s0, $sp, 56                    # 8-byte Folded Reload
	ld.d	$fp, $sp, 64                    # 8-byte Folded Reload
	ld.d	$ra, $sp, 72                    # 8-byte Folded Reload
	addi.d	$sp, $sp, 80
	ret
.Lfunc_end82:
	.size	_ZN2kc34impl_fndeclaration_FnAcDeclaration7rewriteERNS_11rview_classE, .Lfunc_end82-_ZN2kc34impl_fndeclaration_FnAcDeclaration7rewriteERNS_11rview_classE
	.cfi_endproc
                                        # -- End function
	.globl	_ZN2kc27impl_fnclass_ConvOperatorFn7rewriteERNS_11rview_classE # -- Begin function _ZN2kc27impl_fnclass_ConvOperatorFn7rewriteERNS_11rview_classE
	.p2align	2
	.type	_ZN2kc27impl_fnclass_ConvOperatorFn7rewriteERNS_11rview_classE,@function
_ZN2kc27impl_fnclass_ConvOperatorFn7rewriteERNS_11rview_classE: # @_ZN2kc27impl_fnclass_ConvOperatorFn7rewriteERNS_11rview_classE
# %bb.0:                                # %entry
	ret
.Lfunc_end83:
	.size	_ZN2kc27impl_fnclass_ConvOperatorFn7rewriteERNS_11rview_classE, .Lfunc_end83-_ZN2kc27impl_fnclass_ConvOperatorFn7rewriteERNS_11rview_classE
                                        # -- End function
	.globl	_ZN2kc25impl_fnclass_DestructorFn7rewriteERNS_11rview_classE # -- Begin function _ZN2kc25impl_fnclass_DestructorFn7rewriteERNS_11rview_classE
	.p2align	2
	.type	_ZN2kc25impl_fnclass_DestructorFn7rewriteERNS_11rview_classE,@function
_ZN2kc25impl_fnclass_DestructorFn7rewriteERNS_11rview_classE: # @_ZN2kc25impl_fnclass_DestructorFn7rewriteERNS_11rview_classE
# %bb.0:                                # %entry
	ret
.Lfunc_end84:
	.size	_ZN2kc25impl_fnclass_DestructorFn7rewriteERNS_11rview_classE, .Lfunc_end84-_ZN2kc25impl_fnclass_DestructorFn7rewriteERNS_11rview_classE
                                        # -- End function
	.globl	_ZN2kc26impl_fnclass_ConstructorFn7rewriteERNS_11rview_classE # -- Begin function _ZN2kc26impl_fnclass_ConstructorFn7rewriteERNS_11rview_classE
	.p2align	2
	.type	_ZN2kc26impl_fnclass_ConstructorFn7rewriteERNS_11rview_classE,@function
_ZN2kc26impl_fnclass_ConstructorFn7rewriteERNS_11rview_classE: # @_ZN2kc26impl_fnclass_ConstructorFn7rewriteERNS_11rview_classE
# %bb.0:                                # %entry
	ret
.Lfunc_end85:
	.size	_ZN2kc26impl_fnclass_ConstructorFn7rewriteERNS_11rview_classE, .Lfunc_end85-_ZN2kc26impl_fnclass_ConstructorFn7rewriteERNS_11rview_classE
                                        # -- End function
	.globl	_ZN2kc21impl_fnclass_MemberFn7rewriteERNS_11rview_classE # -- Begin function _ZN2kc21impl_fnclass_MemberFn7rewriteERNS_11rview_classE
	.p2align	2
	.type	_ZN2kc21impl_fnclass_MemberFn7rewriteERNS_11rview_classE,@function
_ZN2kc21impl_fnclass_MemberFn7rewriteERNS_11rview_classE: # @_ZN2kc21impl_fnclass_MemberFn7rewriteERNS_11rview_classE
# %bb.0:                                # %entry
	ret
.Lfunc_end86:
	.size	_ZN2kc21impl_fnclass_MemberFn7rewriteERNS_11rview_classE, .Lfunc_end86-_ZN2kc21impl_fnclass_MemberFn7rewriteERNS_11rview_classE
                                        # -- End function
	.globl	_ZN2kc21impl_fnclass_StaticFn7rewriteERNS_11rview_classE # -- Begin function _ZN2kc21impl_fnclass_StaticFn7rewriteERNS_11rview_classE
	.p2align	2
	.type	_ZN2kc21impl_fnclass_StaticFn7rewriteERNS_11rview_classE,@function
_ZN2kc21impl_fnclass_StaticFn7rewriteERNS_11rview_classE: # @_ZN2kc21impl_fnclass_StaticFn7rewriteERNS_11rview_classE
	.cfi_startproc
# %bb.0:                                # %entry
	addi.d	$sp, $sp, -32
	.cfi_def_cfa_offset 32
	st.d	$ra, $sp, 24                    # 8-byte Folded Spill
	st.d	$fp, $sp, 16                    # 8-byte Folded Spill
	st.d	$s0, $sp, 8                     # 8-byte Folded Spill
	.cfi_offset 1, -8
	.cfi_offset 22, -16
	.cfi_offset 23, -24
	move	$fp, $a0
	ld.d	$a0, $a0, 8
	ld.d	$a2, $a0, 0
	ld.d	$a2, $a2, 24
	jirl	$ra, $a2, 0
	ld.d	$a1, $fp, 8
	beq	$a0, $a1, .LBB87_2
# %bb.1:                                # %if.else
	pcaddu18i	$ra, %call36(_ZN2kc8StaticFnEPNS_20impl_casestring__StrE)
	jirl	$ra, $ra, 0
	move	$s0, $a0
	ld.d	$a0, $a0, 0
	ld.d	$a2, $a0, 40
	move	$a0, $s0
	move	$a1, $fp
	jirl	$ra, $a2, 0
	move	$fp, $s0
.LBB87_2:                               # %cleanup
	move	$a0, $fp
	ld.d	$s0, $sp, 8                     # 8-byte Folded Reload
	ld.d	$fp, $sp, 16                    # 8-byte Folded Reload
	ld.d	$ra, $sp, 24                    # 8-byte Folded Reload
	addi.d	$sp, $sp, 32
	ret
.Lfunc_end87:
	.size	_ZN2kc21impl_fnclass_StaticFn7rewriteERNS_11rview_classE, .Lfunc_end87-_ZN2kc21impl_fnclass_StaticFn7rewriteERNS_11rview_classE
	.cfi_endproc
                                        # -- End function
	.globl	_ZN2kc21impl_fnclass_GlobalFn7rewriteERNS_11rview_classE # -- Begin function _ZN2kc21impl_fnclass_GlobalFn7rewriteERNS_11rview_classE
	.p2align	2
	.type	_ZN2kc21impl_fnclass_GlobalFn7rewriteERNS_11rview_classE,@function
_ZN2kc21impl_fnclass_GlobalFn7rewriteERNS_11rview_classE: # @_ZN2kc21impl_fnclass_GlobalFn7rewriteERNS_11rview_classE
# %bb.0:                                # %entry
	ret
.Lfunc_end88:
	.size	_ZN2kc21impl_fnclass_GlobalFn7rewriteERNS_11rview_classE, .Lfunc_end88-_ZN2kc21impl_fnclass_GlobalFn7rewriteERNS_11rview_classE
                                        # -- End function
	.globl	_ZN2kc10impl_Ctext7rewriteERNS_11rview_classE # -- Begin function _ZN2kc10impl_Ctext7rewriteERNS_11rview_classE
	.p2align	2
	.type	_ZN2kc10impl_Ctext7rewriteERNS_11rview_classE,@function
_ZN2kc10impl_Ctext7rewriteERNS_11rview_classE: # @_ZN2kc10impl_Ctext7rewriteERNS_11rview_classE
	.cfi_startproc
# %bb.0:                                # %entry
	addi.d	$sp, $sp, -32
	.cfi_def_cfa_offset 32
	st.d	$ra, $sp, 24                    # 8-byte Folded Spill
	st.d	$fp, $sp, 16                    # 8-byte Folded Spill
	st.d	$s0, $sp, 8                     # 8-byte Folded Spill
	st.d	$s1, $sp, 0                     # 8-byte Folded Spill
	.cfi_offset 1, -8
	.cfi_offset 22, -16
	.cfi_offset 23, -24
	.cfi_offset 24, -32
	move	$fp, $a0
	ld.d	$a0, $a0, 0
	ld.d	$a2, $a0, 88
	move	$s0, $a1
	move	$a0, $fp
	jirl	$ra, $a2, 0
	bnez	$a0, .LBB89_4
# %bb.1:                                # %if.else
	ld.d	$a0, $fp, 24
	ld.d	$a1, $a0, 0
	ld.d	$a2, $a1, 24
	move	$a1, $s0
	jirl	$ra, $a2, 0
	ld.d	$a1, $fp, 32
	ld.d	$a2, $a1, 0
	ld.d	$a2, $a2, 24
	move	$s1, $a0
	move	$a0, $a1
	move	$a1, $s0
	jirl	$ra, $a2, 0
	ld.d	$a2, $fp, 24
	move	$a1, $a0
	bne	$s1, $a2, .LBB89_3
# %bb.2:                                # %if.else
	ld.d	$a2, $fp, 32
	beq	$a1, $a2, .LBB89_4
.LBB89_3:                               # %if.else12
	move	$a0, $s1
	pcaddu18i	$ra, %call36(_ZN2kc9ConsCtextEPNS_15impl_Ctext_elemEPNS_10impl_CtextE)
	jirl	$ra, $ra, 0
	move	$s0, $a0
	ld.d	$a0, $a0, 0
	ld.d	$a2, $a0, 40
	move	$a0, $s0
	move	$a1, $fp
	jirl	$ra, $a2, 0
	move	$fp, $s0
.LBB89_4:                               # %return
	move	$a0, $fp
	ld.d	$s1, $sp, 0                     # 8-byte Folded Reload
	ld.d	$s0, $sp, 8                     # 8-byte Folded Reload
	ld.d	$fp, $sp, 16                    # 8-byte Folded Reload
	ld.d	$ra, $sp, 24                    # 8-byte Folded Reload
	addi.d	$sp, $sp, 32
	ret
.Lfunc_end89:
	.size	_ZN2kc10impl_Ctext7rewriteERNS_11rview_classE, .Lfunc_end89-_ZN2kc10impl_Ctext7rewriteERNS_11rview_classE
	.cfi_endproc
                                        # -- End function
	.globl	_ZN2kc35impl_Ctext_elem_CTextWithexpression7rewriteERNS_11rview_classE # -- Begin function _ZN2kc35impl_Ctext_elem_CTextWithexpression7rewriteERNS_11rview_classE
	.p2align	2
	.type	_ZN2kc35impl_Ctext_elem_CTextWithexpression7rewriteERNS_11rview_classE,@function
_ZN2kc35impl_Ctext_elem_CTextWithexpression7rewriteERNS_11rview_classE: # @_ZN2kc35impl_Ctext_elem_CTextWithexpression7rewriteERNS_11rview_classE
	.cfi_startproc
# %bb.0:                                # %entry
	addi.d	$sp, $sp, -48
	.cfi_def_cfa_offset 48
	st.d	$ra, $sp, 40                    # 8-byte Folded Spill
	st.d	$fp, $sp, 32                    # 8-byte Folded Spill
	st.d	$s0, $sp, 24                    # 8-byte Folded Spill
	st.d	$s1, $sp, 16                    # 8-byte Folded Spill
	st.d	$s2, $sp, 8                     # 8-byte Folded Spill
	.cfi_offset 1, -8
	.cfi_offset 22, -16
	.cfi_offset 23, -24
	.cfi_offset 24, -32
	.cfi_offset 25, -40
	move	$fp, $a0
	ld.d	$a0, $a0, 24
	ld.d	$a2, $a0, 0
	ld.d	$a2, $a2, 24
	move	$s1, $a1
	jirl	$ra, $a2, 0
	ld.d	$a1, $fp, 32
	ld.d	$a2, $a1, 0
	ld.d	$a2, $a2, 24
	move	$s2, $a0
	move	$a0, $a1
	move	$a1, $s1
	jirl	$ra, $a2, 0
	ld.d	$a1, $fp, 40
	ld.d	$a2, $a1, 0
	ld.d	$a2, $a2, 24
	move	$s0, $a0
	move	$a0, $a1
	move	$a1, $s1
	jirl	$ra, $a2, 0
	ld.d	$a1, $fp, 24
	move	$a2, $a0
	bne	$s2, $a1, .LBB90_3
# %bb.1:                                # %entry
	ld.d	$a1, $fp, 32
	bne	$s0, $a1, .LBB90_3
# %bb.2:                                # %entry
	ld.d	$a1, $fp, 40
	beq	$a2, $a1, .LBB90_4
.LBB90_3:                               # %if.else
	move	$a0, $s2
	move	$a1, $s0
	pcaddu18i	$ra, %call36(_ZN2kc19CTextWithexpressionEPNS_20impl_withexpressionsEPNS_14impl_withcasesEPNS_16impl_contextinfoE)
	jirl	$ra, $ra, 0
	move	$s0, $a0
	ld.d	$a0, $a0, 0
	ld.d	$a2, $a0, 40
	move	$a0, $s0
	move	$a1, $fp
	jirl	$ra, $a2, 0
	move	$fp, $s0
.LBB90_4:                               # %cleanup
	move	$a0, $fp
	ld.d	$s2, $sp, 8                     # 8-byte Folded Reload
	ld.d	$s1, $sp, 16                    # 8-byte Folded Reload
	ld.d	$s0, $sp, 24                    # 8-byte Folded Reload
	ld.d	$fp, $sp, 32                    # 8-byte Folded Reload
	ld.d	$ra, $sp, 40                    # 8-byte Folded Reload
	addi.d	$sp, $sp, 48
	ret
.Lfunc_end90:
	.size	_ZN2kc35impl_Ctext_elem_CTextWithexpression7rewriteERNS_11rview_classE, .Lfunc_end90-_ZN2kc35impl_Ctext_elem_CTextWithexpression7rewriteERNS_11rview_classE
	.cfi_endproc
                                        # -- End function
	.globl	_ZN2kc38impl_Ctext_elem_CTextForeachexpression7rewriteERNS_11rview_classE # -- Begin function _ZN2kc38impl_Ctext_elem_CTextForeachexpression7rewriteERNS_11rview_classE
	.p2align	2
	.type	_ZN2kc38impl_Ctext_elem_CTextForeachexpression7rewriteERNS_11rview_classE,@function
_ZN2kc38impl_Ctext_elem_CTextForeachexpression7rewriteERNS_11rview_classE: # @_ZN2kc38impl_Ctext_elem_CTextForeachexpression7rewriteERNS_11rview_classE
	.cfi_startproc
# %bb.0:                                # %entry
	addi.d	$sp, $sp, -64
	.cfi_def_cfa_offset 64
	st.d	$ra, $sp, 56                    # 8-byte Folded Spill
	st.d	$fp, $sp, 48                    # 8-byte Folded Spill
	st.d	$s0, $sp, 40                    # 8-byte Folded Spill
	st.d	$s1, $sp, 32                    # 8-byte Folded Spill
	st.d	$s2, $sp, 24                    # 8-byte Folded Spill
	st.d	$s3, $sp, 16                    # 8-byte Folded Spill
	st.d	$s4, $sp, 8                     # 8-byte Folded Spill
	.cfi_offset 1, -8
	.cfi_offset 22, -16
	.cfi_offset 23, -24
	.cfi_offset 24, -32
	.cfi_offset 25, -40
	.cfi_offset 26, -48
	.cfi_offset 27, -56
	move	$fp, $a0
	ld.d	$a0, $a0, 24
	ld.d	$a2, $a0, 0
	ld.d	$a2, $a2, 24
	move	$s4, $a1
	jirl	$ra, $a2, 0
	ld.d	$a1, $fp, 32
	ld.d	$a2, $a1, 0
	ld.d	$a2, $a2, 24
	move	$s0, $a0
	move	$a0, $a1
	move	$a1, $s4
	jirl	$ra, $a2, 0
	ld.d	$a1, $fp, 40
	ld.d	$a2, $a1, 0
	ld.d	$a2, $a2, 24
	move	$s1, $a0
	move	$a0, $a1
	move	$a1, $s4
	jirl	$ra, $a2, 0
	ld.d	$a1, $fp, 48
	ld.d	$a2, $a1, 0
	ld.d	$a2, $a2, 24
	move	$s2, $a0
	move	$a0, $a1
	move	$a1, $s4
	jirl	$ra, $a2, 0
	ld.d	$a1, $fp, 56
	ld.d	$a2, $a1, 0
	ld.d	$a2, $a2, 24
	move	$s3, $a0
	move	$a0, $a1
	move	$a1, $s4
	jirl	$ra, $a2, 0
	xvld	$xr0, $fp, 24
	xvinsgr2vr.d	$xr1, $s0, 0
	xvinsgr2vr.d	$xr1, $s1, 1
	xvinsgr2vr.d	$xr1, $s2, 2
	xvinsgr2vr.d	$xr1, $s3, 3
	xvseq.d	$xr0, $xr1, $xr0
	xvmskltz.d	$xr0, $xr0
	xvpickve2gr.wu	$a1, $xr0, 0
	xvpickve2gr.wu	$a2, $xr0, 4
	bstrins.d	$a1, $a2, 3, 2
	ori	$a2, $zero, 15
	move	$a4, $a0
	bne	$a1, $a2, .LBB91_2
# %bb.1:                                # %entry
	ld.d	$a0, $fp, 56
	beq	$a4, $a0, .LBB91_3
.LBB91_2:                               # %if.else
	move	$a0, $s0
	move	$a1, $s1
	move	$a2, $s2
	move	$a3, $s3
	pcaddu18i	$ra, %call36(_ZN2kc22CTextForeachexpressionEPNS_17impl_patternchainEPNS_19impl_idCexpressionsEPNS_20impl_withexpressionsEPNS_10impl_CtextEPNS_18impl_foreach_afterE)
	jirl	$ra, $ra, 0
	move	$s0, $a0
	ld.d	$a0, $a0, 0
	ld.d	$a2, $a0, 40
	move	$a0, $s0
	move	$a1, $fp
	jirl	$ra, $a2, 0
	move	$fp, $s0
.LBB91_3:                               # %cleanup
	move	$a0, $fp
	ld.d	$s4, $sp, 8                     # 8-byte Folded Reload
	ld.d	$s3, $sp, 16                    # 8-byte Folded Reload
	ld.d	$s2, $sp, 24                    # 8-byte Folded Reload
	ld.d	$s1, $sp, 32                    # 8-byte Folded Reload
	ld.d	$s0, $sp, 40                    # 8-byte Folded Reload
	ld.d	$fp, $sp, 48                    # 8-byte Folded Reload
	ld.d	$ra, $sp, 56                    # 8-byte Folded Reload
	addi.d	$sp, $sp, 64
	ret
.Lfunc_end91:
	.size	_ZN2kc38impl_Ctext_elem_CTextForeachexpression7rewriteERNS_11rview_classE, .Lfunc_end91-_ZN2kc38impl_Ctext_elem_CTextForeachexpression7rewriteERNS_11rview_classE
	.cfi_endproc
                                        # -- End function
	.globl	_ZN2kc26impl_Ctext_elem_CTextCbody7rewriteERNS_11rview_classE # -- Begin function _ZN2kc26impl_Ctext_elem_CTextCbody7rewriteERNS_11rview_classE
	.p2align	2
	.type	_ZN2kc26impl_Ctext_elem_CTextCbody7rewriteERNS_11rview_classE,@function
_ZN2kc26impl_Ctext_elem_CTextCbody7rewriteERNS_11rview_classE: # @_ZN2kc26impl_Ctext_elem_CTextCbody7rewriteERNS_11rview_classE
	.cfi_startproc
# %bb.0:                                # %entry
	addi.d	$sp, $sp, -32
	.cfi_def_cfa_offset 32
	st.d	$ra, $sp, 24                    # 8-byte Folded Spill
	st.d	$fp, $sp, 16                    # 8-byte Folded Spill
	st.d	$s0, $sp, 8                     # 8-byte Folded Spill
	.cfi_offset 1, -8
	.cfi_offset 22, -16
	.cfi_offset 23, -24
	move	$fp, $a0
	ld.d	$a0, $a0, 24
	ld.d	$a2, $a0, 0
	ld.d	$a2, $a2, 24
	jirl	$ra, $a2, 0
	ld.d	$a1, $fp, 24
	beq	$a0, $a1, .LBB92_2
# %bb.1:                                # %if.else
	pcaddu18i	$ra, %call36(_ZN2kc10CTextCbodyEPNS_10impl_CtextE)
	jirl	$ra, $ra, 0
	move	$s0, $a0
	ld.d	$a0, $a0, 0
	ld.d	$a2, $a0, 40
	move	$a0, $s0
	move	$a1, $fp
	jirl	$ra, $a2, 0
	move	$fp, $s0
.LBB92_2:                               # %cleanup
	move	$a0, $fp
	ld.d	$s0, $sp, 8                     # 8-byte Folded Reload
	ld.d	$fp, $sp, 16                    # 8-byte Folded Reload
	ld.d	$ra, $sp, 24                    # 8-byte Folded Reload
	addi.d	$sp, $sp, 32
	ret
.Lfunc_end92:
	.size	_ZN2kc26impl_Ctext_elem_CTextCbody7rewriteERNS_11rview_classE, .Lfunc_end92-_ZN2kc26impl_Ctext_elem_CTextCbody7rewriteERNS_11rview_classE
	.cfi_endproc
                                        # -- End function
	.globl	_ZN2kc34impl_Ctext_elem_CTextCexpressionSQ7rewriteERNS_11rview_classE # -- Begin function _ZN2kc34impl_Ctext_elem_CTextCexpressionSQ7rewriteERNS_11rview_classE
	.p2align	2
	.type	_ZN2kc34impl_Ctext_elem_CTextCexpressionSQ7rewriteERNS_11rview_classE,@function
_ZN2kc34impl_Ctext_elem_CTextCexpressionSQ7rewriteERNS_11rview_classE: # @_ZN2kc34impl_Ctext_elem_CTextCexpressionSQ7rewriteERNS_11rview_classE
	.cfi_startproc
# %bb.0:                                # %entry
	addi.d	$sp, $sp, -32
	.cfi_def_cfa_offset 32
	st.d	$ra, $sp, 24                    # 8-byte Folded Spill
	st.d	$fp, $sp, 16                    # 8-byte Folded Spill
	st.d	$s0, $sp, 8                     # 8-byte Folded Spill
	.cfi_offset 1, -8
	.cfi_offset 22, -16
	.cfi_offset 23, -24
	move	$fp, $a0
	ld.d	$a0, $a0, 24
	ld.d	$a2, $a0, 0
	ld.d	$a2, $a2, 24
	jirl	$ra, $a2, 0
	ld.d	$a1, $fp, 24
	beq	$a0, $a1, .LBB93_2
# %bb.1:                                # %if.else
	pcaddu18i	$ra, %call36(_ZN2kc18CTextCexpressionSQEPNS_18impl_CexpressionSQE)
	jirl	$ra, $ra, 0
	move	$s0, $a0
	ld.d	$a0, $a0, 0
	ld.d	$a2, $a0, 40
	move	$a0, $s0
	move	$a1, $fp
	jirl	$ra, $a2, 0
	move	$fp, $s0
.LBB93_2:                               # %cleanup
	move	$a0, $fp
	ld.d	$s0, $sp, 8                     # 8-byte Folded Reload
	ld.d	$fp, $sp, 16                    # 8-byte Folded Reload
	ld.d	$ra, $sp, 24                    # 8-byte Folded Reload
	addi.d	$sp, $sp, 32
	ret
.Lfunc_end93:
	.size	_ZN2kc34impl_Ctext_elem_CTextCexpressionSQ7rewriteERNS_11rview_classE, .Lfunc_end93-_ZN2kc34impl_Ctext_elem_CTextCexpressionSQ7rewriteERNS_11rview_classE
	.cfi_endproc
                                        # -- End function
	.globl	_ZN2kc34impl_Ctext_elem_CTextCexpressionDQ7rewriteERNS_11rview_classE # -- Begin function _ZN2kc34impl_Ctext_elem_CTextCexpressionDQ7rewriteERNS_11rview_classE
	.p2align	2
	.type	_ZN2kc34impl_Ctext_elem_CTextCexpressionDQ7rewriteERNS_11rview_classE,@function
_ZN2kc34impl_Ctext_elem_CTextCexpressionDQ7rewriteERNS_11rview_classE: # @_ZN2kc34impl_Ctext_elem_CTextCexpressionDQ7rewriteERNS_11rview_classE
	.cfi_startproc
# %bb.0:                                # %entry
	addi.d	$sp, $sp, -32
	.cfi_def_cfa_offset 32
	st.d	$ra, $sp, 24                    # 8-byte Folded Spill
	st.d	$fp, $sp, 16                    # 8-byte Folded Spill
	st.d	$s0, $sp, 8                     # 8-byte Folded Spill
	.cfi_offset 1, -8
	.cfi_offset 22, -16
	.cfi_offset 23, -24
	move	$fp, $a0
	ld.d	$a0, $a0, 24
	ld.d	$a2, $a0, 0
	ld.d	$a2, $a2, 24
	jirl	$ra, $a2, 0
	ld.d	$a1, $fp, 24
	beq	$a0, $a1, .LBB94_2
# %bb.1:                                # %if.else
	pcaddu18i	$ra, %call36(_ZN2kc18CTextCexpressionDQEPNS_18impl_CexpressionDQE)
	jirl	$ra, $ra, 0
	move	$s0, $a0
	ld.d	$a0, $a0, 0
	ld.d	$a2, $a0, 40
	move	$a0, $s0
	move	$a1, $fp
	jirl	$ra, $a2, 0
	move	$fp, $s0
.LBB94_2:                               # %cleanup
	move	$a0, $fp
	ld.d	$s0, $sp, 8                     # 8-byte Folded Reload
	ld.d	$fp, $sp, 16                    # 8-byte Folded Reload
	ld.d	$ra, $sp, 24                    # 8-byte Folded Reload
	addi.d	$sp, $sp, 32
	ret
.Lfunc_end94:
	.size	_ZN2kc34impl_Ctext_elem_CTextCexpressionDQ7rewriteERNS_11rview_classE, .Lfunc_end94-_ZN2kc34impl_Ctext_elem_CTextCexpressionDQ7rewriteERNS_11rview_classE
	.cfi_endproc
                                        # -- End function
	.globl	_ZN2kc23impl_Ctext_elem_CTextNl7rewriteERNS_11rview_classE # -- Begin function _ZN2kc23impl_Ctext_elem_CTextNl7rewriteERNS_11rview_classE
	.p2align	2
	.type	_ZN2kc23impl_Ctext_elem_CTextNl7rewriteERNS_11rview_classE,@function
_ZN2kc23impl_Ctext_elem_CTextNl7rewriteERNS_11rview_classE: # @_ZN2kc23impl_Ctext_elem_CTextNl7rewriteERNS_11rview_classE
	.cfi_startproc
# %bb.0:                                # %entry
	addi.d	$sp, $sp, -32
	.cfi_def_cfa_offset 32
	st.d	$ra, $sp, 24                    # 8-byte Folded Spill
	st.d	$fp, $sp, 16                    # 8-byte Folded Spill
	st.d	$s0, $sp, 8                     # 8-byte Folded Spill
	.cfi_offset 1, -8
	.cfi_offset 22, -16
	.cfi_offset 23, -24
	move	$fp, $a0
	ld.d	$a0, $a0, 24
	ld.d	$a2, $a0, 0
	ld.d	$a2, $a2, 24
	jirl	$ra, $a2, 0
	ld.d	$a1, $fp, 24
	beq	$a0, $a1, .LBB95_2
# %bb.1:                                # %if.else
	pcaddu18i	$ra, %call36(_ZN2kc7CTextNlEPNS_17impl_integer__IntE)
	jirl	$ra, $ra, 0
	move	$s0, $a0
	ld.d	$a0, $a0, 0
	ld.d	$a2, $a0, 40
	move	$a0, $s0
	move	$a1, $fp
	jirl	$ra, $a2, 0
	move	$fp, $s0
.LBB95_2:                               # %cleanup
	move	$a0, $fp
	ld.d	$s0, $sp, 8                     # 8-byte Folded Reload
	ld.d	$fp, $sp, 16                    # 8-byte Folded Reload
	ld.d	$ra, $sp, 24                    # 8-byte Folded Reload
	addi.d	$sp, $sp, 32
	ret
.Lfunc_end95:
	.size	_ZN2kc23impl_Ctext_elem_CTextNl7rewriteERNS_11rview_classE, .Lfunc_end95-_ZN2kc23impl_Ctext_elem_CTextNl7rewriteERNS_11rview_classE
	.cfi_endproc
                                        # -- End function
	.globl	_ZN2kc30impl_Ctext_elem_CTextDollarVar7rewriteERNS_11rview_classE # -- Begin function _ZN2kc30impl_Ctext_elem_CTextDollarVar7rewriteERNS_11rview_classE
	.p2align	2
	.type	_ZN2kc30impl_Ctext_elem_CTextDollarVar7rewriteERNS_11rview_classE,@function
_ZN2kc30impl_Ctext_elem_CTextDollarVar7rewriteERNS_11rview_classE: # @_ZN2kc30impl_Ctext_elem_CTextDollarVar7rewriteERNS_11rview_classE
	.cfi_startproc
# %bb.0:                                # %entry
	addi.d	$sp, $sp, -32
	.cfi_def_cfa_offset 32
	st.d	$ra, $sp, 24                    # 8-byte Folded Spill
	st.d	$fp, $sp, 16                    # 8-byte Folded Spill
	st.d	$s0, $sp, 8                     # 8-byte Folded Spill
	.cfi_offset 1, -8
	.cfi_offset 22, -16
	.cfi_offset 23, -24
	move	$fp, $a0
	ld.d	$a0, $a0, 24
	ld.d	$a2, $a0, 0
	ld.d	$a2, $a2, 24
	jirl	$ra, $a2, 0
	ld.d	$a1, $fp, 24
	beq	$a0, $a1, .LBB96_2
# %bb.1:                                # %if.else
	pcaddu18i	$ra, %call36(_ZN2kc14CTextDollarVarEPNS_8impl_INTE)
	jirl	$ra, $ra, 0
	move	$s0, $a0
	ld.d	$a0, $a0, 0
	ld.d	$a2, $a0, 40
	move	$a0, $s0
	move	$a1, $fp
	jirl	$ra, $a2, 0
	move	$fp, $s0
.LBB96_2:                               # %cleanup
	move	$a0, $fp
	ld.d	$s0, $sp, 8                     # 8-byte Folded Reload
	ld.d	$fp, $sp, 16                    # 8-byte Folded Reload
	ld.d	$ra, $sp, 24                    # 8-byte Folded Reload
	addi.d	$sp, $sp, 32
	ret
.Lfunc_end96:
	.size	_ZN2kc30impl_Ctext_elem_CTextDollarVar7rewriteERNS_11rview_classE, .Lfunc_end96-_ZN2kc30impl_Ctext_elem_CTextDollarVar7rewriteERNS_11rview_classE
	.cfi_endproc
                                        # -- End function
	.globl	_ZN2kc25impl_Ctext_elem_CTextLine7rewriteERNS_11rview_classE # -- Begin function _ZN2kc25impl_Ctext_elem_CTextLine7rewriteERNS_11rview_classE
	.p2align	2
	.type	_ZN2kc25impl_Ctext_elem_CTextLine7rewriteERNS_11rview_classE,@function
_ZN2kc25impl_Ctext_elem_CTextLine7rewriteERNS_11rview_classE: # @_ZN2kc25impl_Ctext_elem_CTextLine7rewriteERNS_11rview_classE
	.cfi_startproc
# %bb.0:                                # %entry
	addi.d	$sp, $sp, -32
	.cfi_def_cfa_offset 32
	st.d	$ra, $sp, 24                    # 8-byte Folded Spill
	st.d	$fp, $sp, 16                    # 8-byte Folded Spill
	st.d	$s0, $sp, 8                     # 8-byte Folded Spill
	.cfi_offset 1, -8
	.cfi_offset 22, -16
	.cfi_offset 23, -24
	move	$fp, $a0
	ld.d	$a0, $a0, 24
	ld.d	$a2, $a0, 0
	ld.d	$a2, $a2, 24
	jirl	$ra, $a2, 0
	ld.d	$a1, $fp, 24
	beq	$a0, $a1, .LBB97_2
# %bb.1:                                # %if.else
	pcaddu18i	$ra, %call36(_ZN2kc9CTextLineEPNS_20impl_casestring__StrE)
	jirl	$ra, $ra, 0
	move	$s0, $a0
	ld.d	$a0, $a0, 0
	ld.d	$a2, $a0, 40
	move	$a0, $s0
	move	$a1, $fp
	jirl	$ra, $a2, 0
	move	$fp, $s0
.LBB97_2:                               # %cleanup
	move	$a0, $fp
	ld.d	$s0, $sp, 8                     # 8-byte Folded Reload
	ld.d	$fp, $sp, 16                    # 8-byte Folded Reload
	ld.d	$ra, $sp, 24                    # 8-byte Folded Reload
	addi.d	$sp, $sp, 32
	ret
.Lfunc_end97:
	.size	_ZN2kc25impl_Ctext_elem_CTextLine7rewriteERNS_11rview_classE, .Lfunc_end97-_ZN2kc25impl_Ctext_elem_CTextLine7rewriteERNS_11rview_classE
	.cfi_endproc
                                        # -- End function
	.globl	_ZN2kc31impl_foreach_after_ForeachAfter7rewriteERNS_11rview_classE # -- Begin function _ZN2kc31impl_foreach_after_ForeachAfter7rewriteERNS_11rview_classE
	.p2align	2
	.type	_ZN2kc31impl_foreach_after_ForeachAfter7rewriteERNS_11rview_classE,@function
_ZN2kc31impl_foreach_after_ForeachAfter7rewriteERNS_11rview_classE: # @_ZN2kc31impl_foreach_after_ForeachAfter7rewriteERNS_11rview_classE
	.cfi_startproc
# %bb.0:                                # %entry
	addi.d	$sp, $sp, -48
	.cfi_def_cfa_offset 48
	st.d	$ra, $sp, 40                    # 8-byte Folded Spill
	st.d	$fp, $sp, 32                    # 8-byte Folded Spill
	st.d	$s0, $sp, 24                    # 8-byte Folded Spill
	st.d	$s1, $sp, 16                    # 8-byte Folded Spill
	st.d	$s2, $sp, 8                     # 8-byte Folded Spill
	st.d	$s3, $sp, 0                     # 8-byte Folded Spill
	.cfi_offset 1, -8
	.cfi_offset 22, -16
	.cfi_offset 23, -24
	.cfi_offset 24, -32
	.cfi_offset 25, -40
	.cfi_offset 26, -48
	move	$fp, $a0
	ld.d	$a0, $a0, 24
	ld.d	$a2, $a0, 0
	ld.d	$a2, $a2, 24
	move	$s2, $a1
	jirl	$ra, $a2, 0
	ld.d	$a1, $fp, 32
	ld.d	$a2, $a1, 0
	ld.d	$a2, $a2, 24
	move	$s3, $a0
	move	$a0, $a1
	move	$a1, $s2
	jirl	$ra, $a2, 0
	ld.d	$a1, $fp, 40
	ld.d	$a2, $a1, 0
	ld.d	$a2, $a2, 24
	move	$s0, $a0
	move	$a0, $a1
	move	$a1, $s2
	jirl	$ra, $a2, 0
	ld.d	$a1, $fp, 48
	ld.d	$a2, $a1, 0
	ld.d	$a2, $a2, 24
	move	$s1, $a0
	move	$a0, $a1
	move	$a1, $s2
	jirl	$ra, $a2, 0
	xvld	$xr0, $fp, 24
	xvinsgr2vr.d	$xr1, $s3, 0
	xvinsgr2vr.d	$xr1, $s0, 1
	xvinsgr2vr.d	$xr1, $s1, 2
	xvinsgr2vr.d	$xr1, $a0, 3
	xvseq.d	$xr0, $xr1, $xr0
	xvmskltz.d	$xr0, $xr0
	xvpickve2gr.wu	$a1, $xr0, 0
	xvpickve2gr.wu	$a2, $xr0, 4
	bstrins.d	$a1, $a2, 3, 2
	ori	$a2, $zero, 15
	beq	$a1, $a2, .LBB98_2
# %bb.1:                                # %if.else
	move	$a3, $a0
	move	$a0, $s3
	move	$a1, $s0
	move	$a2, $s1
	pcaddu18i	$ra, %call36(_ZN2kc12ForeachAfterEPNS_17impl_patternchainEPNS_19impl_idCexpressionsEPNS_20impl_withexpressionsEPNS_10impl_CtextE)
	jirl	$ra, $ra, 0
	move	$s0, $a0
	ld.d	$a0, $a0, 0
	ld.d	$a2, $a0, 40
	move	$a0, $s0
	move	$a1, $fp
	jirl	$ra, $a2, 0
	move	$fp, $s0
.LBB98_2:                               # %cleanup
	move	$a0, $fp
	ld.d	$s3, $sp, 0                     # 8-byte Folded Reload
	ld.d	$s2, $sp, 8                     # 8-byte Folded Reload
	ld.d	$s1, $sp, 16                    # 8-byte Folded Reload
	ld.d	$s0, $sp, 24                    # 8-byte Folded Reload
	ld.d	$fp, $sp, 32                    # 8-byte Folded Reload
	ld.d	$ra, $sp, 40                    # 8-byte Folded Reload
	addi.d	$sp, $sp, 48
	ret
.Lfunc_end98:
	.size	_ZN2kc31impl_foreach_after_ForeachAfter7rewriteERNS_11rview_classE, .Lfunc_end98-_ZN2kc31impl_foreach_after_ForeachAfter7rewriteERNS_11rview_classE
	.cfi_endproc
                                        # -- End function
	.globl	_ZN2kc33impl_foreach_after_NoForeachAfter7rewriteERNS_11rview_classE # -- Begin function _ZN2kc33impl_foreach_after_NoForeachAfter7rewriteERNS_11rview_classE
	.p2align	2
	.type	_ZN2kc33impl_foreach_after_NoForeachAfter7rewriteERNS_11rview_classE,@function
_ZN2kc33impl_foreach_after_NoForeachAfter7rewriteERNS_11rview_classE: # @_ZN2kc33impl_foreach_after_NoForeachAfter7rewriteERNS_11rview_classE
# %bb.0:                                # %entry
	ret
.Lfunc_end99:
	.size	_ZN2kc33impl_foreach_after_NoForeachAfter7rewriteERNS_11rview_classE, .Lfunc_end99-_ZN2kc33impl_foreach_after_NoForeachAfter7rewriteERNS_11rview_classE
                                        # -- End function
	.globl	_ZN2kc36impl_contextinfo_NotInForeachContext7rewriteERNS_11rview_classE # -- Begin function _ZN2kc36impl_contextinfo_NotInForeachContext7rewriteERNS_11rview_classE
	.p2align	2
	.type	_ZN2kc36impl_contextinfo_NotInForeachContext7rewriteERNS_11rview_classE,@function
_ZN2kc36impl_contextinfo_NotInForeachContext7rewriteERNS_11rview_classE: # @_ZN2kc36impl_contextinfo_NotInForeachContext7rewriteERNS_11rview_classE
# %bb.0:                                # %entry
	ret
.Lfunc_end100:
	.size	_ZN2kc36impl_contextinfo_NotInForeachContext7rewriteERNS_11rview_classE, .Lfunc_end100-_ZN2kc36impl_contextinfo_NotInForeachContext7rewriteERNS_11rview_classE
                                        # -- End function
	.globl	_ZN2kc33impl_contextinfo_InForeachContext7rewriteERNS_11rview_classE # -- Begin function _ZN2kc33impl_contextinfo_InForeachContext7rewriteERNS_11rview_classE
	.p2align	2
	.type	_ZN2kc33impl_contextinfo_InForeachContext7rewriteERNS_11rview_classE,@function
_ZN2kc33impl_contextinfo_InForeachContext7rewriteERNS_11rview_classE: # @_ZN2kc33impl_contextinfo_InForeachContext7rewriteERNS_11rview_classE
	.cfi_startproc
# %bb.0:                                # %entry
	addi.d	$sp, $sp, -32
	.cfi_def_cfa_offset 32
	st.d	$ra, $sp, 24                    # 8-byte Folded Spill
	st.d	$fp, $sp, 16                    # 8-byte Folded Spill
	st.d	$s0, $sp, 8                     # 8-byte Folded Spill
	.cfi_offset 1, -8
	.cfi_offset 22, -16
	.cfi_offset 23, -24
	move	$fp, $a0
	ld.d	$a0, $a0, 8
	ld.d	$a2, $a0, 0
	ld.d	$a2, $a2, 24
	jirl	$ra, $a2, 0
	ld.d	$a1, $fp, 8
	beq	$a0, $a1, .LBB101_2
# %bb.1:                                # %if.else
	pcaddu18i	$ra, %call36(_ZN2kc16InForeachContextEPNS_17impl_patternchainE)
	jirl	$ra, $ra, 0
	move	$s0, $a0
	ld.d	$a0, $a0, 0
	ld.d	$a2, $a0, 40
	move	$a0, $s0
	move	$a1, $fp
	jirl	$ra, $a2, 0
	move	$fp, $s0
.LBB101_2:                              # %cleanup
	move	$a0, $fp
	ld.d	$s0, $sp, 8                     # 8-byte Folded Reload
	ld.d	$fp, $sp, 16                    # 8-byte Folded Reload
	ld.d	$ra, $sp, 24                    # 8-byte Folded Reload
	addi.d	$sp, $sp, 32
	ret
.Lfunc_end101:
	.size	_ZN2kc33impl_contextinfo_InForeachContext7rewriteERNS_11rview_classE, .Lfunc_end101-_ZN2kc33impl_contextinfo_InForeachContext7rewriteERNS_11rview_classE
	.cfi_endproc
                                        # -- End function
	.globl	_ZN2kc20impl_withexpressions7rewriteERNS_11rview_classE # -- Begin function _ZN2kc20impl_withexpressions7rewriteERNS_11rview_classE
	.p2align	2
	.type	_ZN2kc20impl_withexpressions7rewriteERNS_11rview_classE,@function
_ZN2kc20impl_withexpressions7rewriteERNS_11rview_classE: # @_ZN2kc20impl_withexpressions7rewriteERNS_11rview_classE
	.cfi_startproc
# %bb.0:                                # %entry
	addi.d	$sp, $sp, -32
	.cfi_def_cfa_offset 32
	st.d	$ra, $sp, 24                    # 8-byte Folded Spill
	st.d	$fp, $sp, 16                    # 8-byte Folded Spill
	st.d	$s0, $sp, 8                     # 8-byte Folded Spill
	st.d	$s1, $sp, 0                     # 8-byte Folded Spill
	.cfi_offset 1, -8
	.cfi_offset 22, -16
	.cfi_offset 23, -24
	.cfi_offset 24, -32
	move	$fp, $a0
	ld.d	$a0, $a0, 0
	ld.d	$a2, $a0, 88
	move	$s0, $a1
	move	$a0, $fp
	jirl	$ra, $a2, 0
	bnez	$a0, .LBB102_4
# %bb.1:                                # %if.else
	ld.d	$a0, $fp, 32
	ld.d	$a1, $a0, 0
	ld.d	$a2, $a1, 24
	move	$a1, $s0
	jirl	$ra, $a2, 0
	ld.d	$a1, $fp, 40
	ld.d	$a2, $a1, 0
	ld.d	$a2, $a2, 24
	move	$s1, $a0
	move	$a0, $a1
	move	$a1, $s0
	jirl	$ra, $a2, 0
	ld.d	$a2, $fp, 32
	move	$a1, $a0
	bne	$s1, $a2, .LBB102_3
# %bb.2:                                # %if.else
	ld.d	$a2, $fp, 40
	beq	$a1, $a2, .LBB102_4
.LBB102_3:                              # %if.else12
	move	$a0, $s1
	pcaddu18i	$ra, %call36(_ZN2kc19ConswithexpressionsEPNS_19impl_withexpressionEPNS_20impl_withexpressionsE)
	jirl	$ra, $ra, 0
	move	$s0, $a0
	ld.d	$a0, $a0, 0
	ld.d	$a2, $a0, 40
	move	$a0, $s0
	move	$a1, $fp
	jirl	$ra, $a2, 0
	move	$fp, $s0
.LBB102_4:                              # %return
	move	$a0, $fp
	ld.d	$s1, $sp, 0                     # 8-byte Folded Reload
	ld.d	$s0, $sp, 8                     # 8-byte Folded Reload
	ld.d	$fp, $sp, 16                    # 8-byte Folded Reload
	ld.d	$ra, $sp, 24                    # 8-byte Folded Reload
	addi.d	$sp, $sp, 32
	ret
.Lfunc_end102:
	.size	_ZN2kc20impl_withexpressions7rewriteERNS_11rview_classE, .Lfunc_end102-_ZN2kc20impl_withexpressions7rewriteERNS_11rview_classE
	.cfi_endproc
                                        # -- End function
	.globl	_ZN2kc33impl_withexpression_WECexpression7rewriteERNS_11rview_classE # -- Begin function _ZN2kc33impl_withexpression_WECexpression7rewriteERNS_11rview_classE
	.p2align	2
	.type	_ZN2kc33impl_withexpression_WECexpression7rewriteERNS_11rview_classE,@function
_ZN2kc33impl_withexpression_WECexpression7rewriteERNS_11rview_classE: # @_ZN2kc33impl_withexpression_WECexpression7rewriteERNS_11rview_classE
	.cfi_startproc
# %bb.0:                                # %entry
	addi.d	$sp, $sp, -32
	.cfi_def_cfa_offset 32
	st.d	$ra, $sp, 24                    # 8-byte Folded Spill
	st.d	$fp, $sp, 16                    # 8-byte Folded Spill
	st.d	$s0, $sp, 8                     # 8-byte Folded Spill
	.cfi_offset 1, -8
	.cfi_offset 22, -16
	.cfi_offset 23, -24
	move	$fp, $a0
	ld.d	$a0, $a0, 32
	ld.d	$a2, $a0, 0
	ld.d	$a2, $a2, 24
	jirl	$ra, $a2, 0
	ld.d	$a1, $fp, 32
	beq	$a0, $a1, .LBB103_2
# %bb.1:                                # %if.else
	pcaddu18i	$ra, %call36(_ZN2kc13WECexpressionEPNS_16impl_CexpressionE)
	jirl	$ra, $ra, 0
	move	$s0, $a0
	ld.d	$a0, $a0, 0
	ld.d	$a2, $a0, 40
	move	$a0, $s0
	move	$a1, $fp
	jirl	$ra, $a2, 0
	move	$fp, $s0
.LBB103_2:                              # %cleanup
	move	$a0, $fp
	ld.d	$s0, $sp, 8                     # 8-byte Folded Reload
	ld.d	$fp, $sp, 16                    # 8-byte Folded Reload
	ld.d	$ra, $sp, 24                    # 8-byte Folded Reload
	addi.d	$sp, $sp, 32
	ret
.Lfunc_end103:
	.size	_ZN2kc33impl_withexpression_WECexpression7rewriteERNS_11rview_classE, .Lfunc_end103-_ZN2kc33impl_withexpression_WECexpression7rewriteERNS_11rview_classE
	.cfi_endproc
                                        # -- End function
	.globl	_ZN2kc30impl_withexpression_WEVariable7rewriteERNS_11rview_classE # -- Begin function _ZN2kc30impl_withexpression_WEVariable7rewriteERNS_11rview_classE
	.p2align	2
	.type	_ZN2kc30impl_withexpression_WEVariable7rewriteERNS_11rview_classE,@function
_ZN2kc30impl_withexpression_WEVariable7rewriteERNS_11rview_classE: # @_ZN2kc30impl_withexpression_WEVariable7rewriteERNS_11rview_classE
	.cfi_startproc
# %bb.0:                                # %entry
	addi.d	$sp, $sp, -32
	.cfi_def_cfa_offset 32
	st.d	$ra, $sp, 24                    # 8-byte Folded Spill
	st.d	$fp, $sp, 16                    # 8-byte Folded Spill
	st.d	$s0, $sp, 8                     # 8-byte Folded Spill
	.cfi_offset 1, -8
	.cfi_offset 22, -16
	.cfi_offset 23, -24
	move	$fp, $a0
	ld.d	$a0, $a0, 32
	ld.d	$a2, $a0, 0
	ld.d	$a2, $a2, 24
	jirl	$ra, $a2, 0
	ld.d	$a1, $fp, 32
	beq	$a0, $a1, .LBB104_2
# %bb.1:                                # %if.else
	pcaddu18i	$ra, %call36(_ZN2kc10WEVariableEPNS_7impl_IDE)
	jirl	$ra, $ra, 0
	move	$s0, $a0
	ld.d	$a0, $a0, 0
	ld.d	$a2, $a0, 40
	move	$a0, $s0
	move	$a1, $fp
	jirl	$ra, $a2, 0
	move	$fp, $s0
.LBB104_2:                              # %cleanup
	move	$a0, $fp
	ld.d	$s0, $sp, 8                     # 8-byte Folded Reload
	ld.d	$fp, $sp, 16                    # 8-byte Folded Reload
	ld.d	$ra, $sp, 24                    # 8-byte Folded Reload
	addi.d	$sp, $sp, 32
	ret
.Lfunc_end104:
	.size	_ZN2kc30impl_withexpression_WEVariable7rewriteERNS_11rview_classE, .Lfunc_end104-_ZN2kc30impl_withexpression_WEVariable7rewriteERNS_11rview_classE
	.cfi_endproc
                                        # -- End function
	.globl	_ZN2kc14impl_withcases7rewriteERNS_11rview_classE # -- Begin function _ZN2kc14impl_withcases7rewriteERNS_11rview_classE
	.p2align	2
	.type	_ZN2kc14impl_withcases7rewriteERNS_11rview_classE,@function
_ZN2kc14impl_withcases7rewriteERNS_11rview_classE: # @_ZN2kc14impl_withcases7rewriteERNS_11rview_classE
	.cfi_startproc
# %bb.0:                                # %entry
	addi.d	$sp, $sp, -32
	.cfi_def_cfa_offset 32
	st.d	$ra, $sp, 24                    # 8-byte Folded Spill
	st.d	$fp, $sp, 16                    # 8-byte Folded Spill
	st.d	$s0, $sp, 8                     # 8-byte Folded Spill
	st.d	$s1, $sp, 0                     # 8-byte Folded Spill
	.cfi_offset 1, -8
	.cfi_offset 22, -16
	.cfi_offset 23, -24
	.cfi_offset 24, -32
	move	$fp, $a0
	ld.d	$a0, $a0, 0
	ld.d	$a2, $a0, 88
	move	$s0, $a1
	move	$a0, $fp
	jirl	$ra, $a2, 0
	bnez	$a0, .LBB105_4
# %bb.1:                                # %if.else
	ld.d	$a0, $fp, 16
	ld.d	$a1, $a0, 0
	ld.d	$a2, $a1, 24
	move	$a1, $s0
	jirl	$ra, $a2, 0
	ld.d	$a1, $fp, 24
	ld.d	$a2, $a1, 0
	ld.d	$a2, $a2, 24
	move	$s1, $a0
	move	$a0, $a1
	move	$a1, $s0
	jirl	$ra, $a2, 0
	ld.d	$a2, $fp, 16
	move	$a1, $a0
	bne	$s1, $a2, .LBB105_3
# %bb.2:                                # %if.else
	ld.d	$a2, $fp, 24
	beq	$a1, $a2, .LBB105_4
.LBB105_3:                              # %if.else12
	move	$a0, $s1
	pcaddu18i	$ra, %call36(_ZN2kc13ConswithcasesEPNS_13impl_withcaseEPNS_14impl_withcasesE)
	jirl	$ra, $ra, 0
	move	$s0, $a0
	ld.d	$a0, $a0, 0
	ld.d	$a2, $a0, 40
	move	$a0, $s0
	move	$a1, $fp
	jirl	$ra, $a2, 0
	move	$fp, $s0
.LBB105_4:                              # %return
	move	$a0, $fp
	ld.d	$s1, $sp, 0                     # 8-byte Folded Reload
	ld.d	$s0, $sp, 8                     # 8-byte Folded Reload
	ld.d	$fp, $sp, 16                    # 8-byte Folded Reload
	ld.d	$ra, $sp, 24                    # 8-byte Folded Reload
	addi.d	$sp, $sp, 32
	ret
.Lfunc_end105:
	.size	_ZN2kc14impl_withcases7rewriteERNS_11rview_classE, .Lfunc_end105-_ZN2kc14impl_withcases7rewriteERNS_11rview_classE
	.cfi_endproc
                                        # -- End function
	.globl	_ZN2kc22impl_withcase_Withcase7rewriteERNS_11rview_classE # -- Begin function _ZN2kc22impl_withcase_Withcase7rewriteERNS_11rview_classE
	.p2align	2
	.type	_ZN2kc22impl_withcase_Withcase7rewriteERNS_11rview_classE,@function
_ZN2kc22impl_withcase_Withcase7rewriteERNS_11rview_classE: # @_ZN2kc22impl_withcase_Withcase7rewriteERNS_11rview_classE
	.cfi_startproc
# %bb.0:                                # %entry
	addi.d	$sp, $sp, -32
	.cfi_def_cfa_offset 32
	st.d	$ra, $sp, 24                    # 8-byte Folded Spill
	st.d	$fp, $sp, 16                    # 8-byte Folded Spill
	st.d	$s0, $sp, 8                     # 8-byte Folded Spill
	st.d	$s1, $sp, 0                     # 8-byte Folded Spill
	.cfi_offset 1, -8
	.cfi_offset 22, -16
	.cfi_offset 23, -24
	.cfi_offset 24, -32
	move	$fp, $a0
	ld.d	$a0, $a0, 16
	ld.d	$a2, $a0, 0
	ld.d	$a2, $a2, 24
	move	$s0, $a1
	jirl	$ra, $a2, 0
	ld.d	$a1, $fp, 24
	ld.d	$a2, $a1, 0
	ld.d	$a2, $a2, 24
	move	$s1, $a0
	move	$a0, $a1
	move	$a1, $s0
	jirl	$ra, $a2, 0
	ld.d	$a2, $fp, 16
	move	$a1, $a0
	bne	$s1, $a2, .LBB106_2
# %bb.1:                                # %entry
	ld.d	$a2, $fp, 24
	beq	$a1, $a2, .LBB106_3
.LBB106_2:                              # %if.else
	move	$a0, $s1
	pcaddu18i	$ra, %call36(_ZN2kc8WithcaseEPNS_18impl_patternchainsEPNS_10impl_CtextE)
	jirl	$ra, $ra, 0
	move	$s0, $a0
	ld.d	$a0, $a0, 0
	ld.d	$a2, $a0, 40
	move	$a0, $s0
	move	$a1, $fp
	jirl	$ra, $a2, 0
	move	$fp, $s0
.LBB106_3:                              # %cleanup
	move	$a0, $fp
	ld.d	$s1, $sp, 0                     # 8-byte Folded Reload
	ld.d	$s0, $sp, 8                     # 8-byte Folded Reload
	ld.d	$fp, $sp, 16                    # 8-byte Folded Reload
	ld.d	$ra, $sp, 24                    # 8-byte Folded Reload
	addi.d	$sp, $sp, 32
	ret
.Lfunc_end106:
	.size	_ZN2kc22impl_withcase_Withcase7rewriteERNS_11rview_classE, .Lfunc_end106-_ZN2kc22impl_withcase_Withcase7rewriteERNS_11rview_classE
	.cfi_endproc
                                        # -- End function
	.globl	_ZN2kc24impl_unparsedeclarations7rewriteERNS_11rview_classE # -- Begin function _ZN2kc24impl_unparsedeclarations7rewriteERNS_11rview_classE
	.p2align	2
	.type	_ZN2kc24impl_unparsedeclarations7rewriteERNS_11rview_classE,@function
_ZN2kc24impl_unparsedeclarations7rewriteERNS_11rview_classE: # @_ZN2kc24impl_unparsedeclarations7rewriteERNS_11rview_classE
	.cfi_startproc
# %bb.0:                                # %entry
	addi.d	$sp, $sp, -32
	.cfi_def_cfa_offset 32
	st.d	$ra, $sp, 24                    # 8-byte Folded Spill
	st.d	$fp, $sp, 16                    # 8-byte Folded Spill
	st.d	$s0, $sp, 8                     # 8-byte Folded Spill
	st.d	$s1, $sp, 0                     # 8-byte Folded Spill
	.cfi_offset 1, -8
	.cfi_offset 22, -16
	.cfi_offset 23, -24
	.cfi_offset 24, -32
	move	$fp, $a0
	ld.d	$a0, $a0, 0
	ld.d	$a2, $a0, 88
	move	$s0, $a1
	move	$a0, $fp
	jirl	$ra, $a2, 0
	bnez	$a0, .LBB107_4
# %bb.1:                                # %if.else
	ld.d	$a0, $fp, 8
	ld.d	$a1, $a0, 0
	ld.d	$a2, $a1, 24
	move	$a1, $s0
	jirl	$ra, $a2, 0
	ld.d	$a1, $fp, 16
	ld.d	$a2, $a1, 0
	ld.d	$a2, $a2, 24
	move	$s1, $a0
	move	$a0, $a1
	move	$a1, $s0
	jirl	$ra, $a2, 0
	ld.d	$a2, $fp, 8
	move	$a1, $a0
	bne	$s1, $a2, .LBB107_3
# %bb.2:                                # %if.else
	ld.d	$a2, $fp, 16
	beq	$a1, $a2, .LBB107_4
.LBB107_3:                              # %if.else12
	move	$a0, $s1
	pcaddu18i	$ra, %call36(_ZN2kc23ConsunparsedeclarationsEPNS_23impl_unparsedeclarationEPNS_24impl_unparsedeclarationsE)
	jirl	$ra, $ra, 0
	move	$s0, $a0
	ld.d	$a0, $a0, 0
	ld.d	$a2, $a0, 40
	move	$a0, $s0
	move	$a1, $fp
	jirl	$ra, $a2, 0
	move	$fp, $s0
.LBB107_4:                              # %return
	move	$a0, $fp
	ld.d	$s1, $sp, 0                     # 8-byte Folded Reload
	ld.d	$s0, $sp, 8                     # 8-byte Folded Reload
	ld.d	$fp, $sp, 16                    # 8-byte Folded Reload
	ld.d	$ra, $sp, 24                    # 8-byte Folded Reload
	addi.d	$sp, $sp, 32
	ret
.Lfunc_end107:
	.size	_ZN2kc24impl_unparsedeclarations7rewriteERNS_11rview_classE, .Lfunc_end107-_ZN2kc24impl_unparsedeclarations7rewriteERNS_11rview_classE
	.cfi_endproc
                                        # -- End function
	.globl	_ZN2kc42impl_unparsedeclaration_UnparseDeclaration7rewriteERNS_11rview_classE # -- Begin function _ZN2kc42impl_unparsedeclaration_UnparseDeclaration7rewriteERNS_11rview_classE
	.p2align	2
	.type	_ZN2kc42impl_unparsedeclaration_UnparseDeclaration7rewriteERNS_11rview_classE,@function
_ZN2kc42impl_unparsedeclaration_UnparseDeclaration7rewriteERNS_11rview_classE: # @_ZN2kc42impl_unparsedeclaration_UnparseDeclaration7rewriteERNS_11rview_classE
	.cfi_startproc
# %bb.0:                                # %entry
	addi.d	$sp, $sp, -32
	.cfi_def_cfa_offset 32
	st.d	$ra, $sp, 24                    # 8-byte Folded Spill
	st.d	$fp, $sp, 16                    # 8-byte Folded Spill
	st.d	$s0, $sp, 8                     # 8-byte Folded Spill
	st.d	$s1, $sp, 0                     # 8-byte Folded Spill
	.cfi_offset 1, -8
	.cfi_offset 22, -16
	.cfi_offset 23, -24
	.cfi_offset 24, -32
	move	$fp, $a0
	ld.d	$a0, $a0, 16
	ld.d	$a2, $a0, 0
	ld.d	$a2, $a2, 24
	move	$s0, $a1
	jirl	$ra, $a2, 0
	ld.d	$a1, $fp, 24
	ld.d	$a2, $a1, 0
	ld.d	$a2, $a2, 24
	move	$s1, $a0
	move	$a0, $a1
	move	$a1, $s0
	jirl	$ra, $a2, 0
	ld.d	$a2, $fp, 16
	move	$a1, $a0
	bne	$s1, $a2, .LBB108_2
# %bb.1:                                # %entry
	ld.d	$a2, $fp, 24
	beq	$a1, $a2, .LBB108_3
.LBB108_2:                              # %if.else
	move	$a0, $s1
	pcaddu18i	$ra, %call36(_ZN2kc18UnparseDeclarationEPNS_20impl_outmostpatternsEPNS_19impl_unparseclausesE)
	jirl	$ra, $ra, 0
	move	$s0, $a0
	ld.d	$a0, $a0, 0
	ld.d	$a2, $a0, 40
	move	$a0, $s0
	move	$a1, $fp
	jirl	$ra, $a2, 0
	move	$fp, $s0
.LBB108_3:                              # %cleanup
	move	$a0, $fp
	ld.d	$s1, $sp, 0                     # 8-byte Folded Reload
	ld.d	$s0, $sp, 8                     # 8-byte Folded Reload
	ld.d	$fp, $sp, 16                    # 8-byte Folded Reload
	ld.d	$ra, $sp, 24                    # 8-byte Folded Reload
	addi.d	$sp, $sp, 32
	ret
.Lfunc_end108:
	.size	_ZN2kc42impl_unparsedeclaration_UnparseDeclaration7rewriteERNS_11rview_classE, .Lfunc_end108-_ZN2kc42impl_unparsedeclaration_UnparseDeclaration7rewriteERNS_11rview_classE
	.cfi_endproc
                                        # -- End function
	.globl	_ZN2kc19impl_unparseclauses7rewriteERNS_11rview_classE # -- Begin function _ZN2kc19impl_unparseclauses7rewriteERNS_11rview_classE
	.p2align	2
	.type	_ZN2kc19impl_unparseclauses7rewriteERNS_11rview_classE,@function
_ZN2kc19impl_unparseclauses7rewriteERNS_11rview_classE: # @_ZN2kc19impl_unparseclauses7rewriteERNS_11rview_classE
	.cfi_startproc
# %bb.0:                                # %entry
	addi.d	$sp, $sp, -32
	.cfi_def_cfa_offset 32
	st.d	$ra, $sp, 24                    # 8-byte Folded Spill
	st.d	$fp, $sp, 16                    # 8-byte Folded Spill
	st.d	$s0, $sp, 8                     # 8-byte Folded Spill
	st.d	$s1, $sp, 0                     # 8-byte Folded Spill
	.cfi_offset 1, -8
	.cfi_offset 22, -16
	.cfi_offset 23, -24
	.cfi_offset 24, -32
	move	$fp, $a0
	ld.d	$a0, $a0, 0
	ld.d	$a2, $a0, 88
	move	$s0, $a1
	move	$a0, $fp
	jirl	$ra, $a2, 0
	bnez	$a0, .LBB109_4
# %bb.1:                                # %if.else
	ld.d	$a0, $fp, 8
	ld.d	$a1, $a0, 0
	ld.d	$a2, $a1, 24
	move	$a1, $s0
	jirl	$ra, $a2, 0
	ld.d	$a1, $fp, 16
	ld.d	$a2, $a1, 0
	ld.d	$a2, $a2, 24
	move	$s1, $a0
	move	$a0, $a1
	move	$a1, $s0
	jirl	$ra, $a2, 0
	ld.d	$a2, $fp, 8
	move	$a1, $a0
	bne	$s1, $a2, .LBB109_3
# %bb.2:                                # %if.else
	ld.d	$a2, $fp, 16
	beq	$a1, $a2, .LBB109_4
.LBB109_3:                              # %if.else12
	move	$a0, $s1
	pcaddu18i	$ra, %call36(_ZN2kc18ConsunparseclausesEPNS_18impl_unparseclauseEPNS_19impl_unparseclausesE)
	jirl	$ra, $ra, 0
	move	$s0, $a0
	ld.d	$a0, $a0, 0
	ld.d	$a2, $a0, 40
	move	$a0, $s0
	move	$a1, $fp
	jirl	$ra, $a2, 0
	move	$fp, $s0
.LBB109_4:                              # %return
	move	$a0, $fp
	ld.d	$s1, $sp, 0                     # 8-byte Folded Reload
	ld.d	$s0, $sp, 8                     # 8-byte Folded Reload
	ld.d	$fp, $sp, 16                    # 8-byte Folded Reload
	ld.d	$ra, $sp, 24                    # 8-byte Folded Reload
	addi.d	$sp, $sp, 32
	ret
.Lfunc_end109:
	.size	_ZN2kc19impl_unparseclauses7rewriteERNS_11rview_classE, .Lfunc_end109-_ZN2kc19impl_unparseclauses7rewriteERNS_11rview_classE
	.cfi_endproc
                                        # -- End function
	.globl	_ZN2kc32impl_unparseclause_UnparseClause7rewriteERNS_11rview_classE # -- Begin function _ZN2kc32impl_unparseclause_UnparseClause7rewriteERNS_11rview_classE
	.p2align	2
	.type	_ZN2kc32impl_unparseclause_UnparseClause7rewriteERNS_11rview_classE,@function
_ZN2kc32impl_unparseclause_UnparseClause7rewriteERNS_11rview_classE: # @_ZN2kc32impl_unparseclause_UnparseClause7rewriteERNS_11rview_classE
	.cfi_startproc
# %bb.0:                                # %entry
	addi.d	$sp, $sp, -32
	.cfi_def_cfa_offset 32
	st.d	$ra, $sp, 24                    # 8-byte Folded Spill
	st.d	$fp, $sp, 16                    # 8-byte Folded Spill
	st.d	$s0, $sp, 8                     # 8-byte Folded Spill
	st.d	$s1, $sp, 0                     # 8-byte Folded Spill
	.cfi_offset 1, -8
	.cfi_offset 22, -16
	.cfi_offset 23, -24
	.cfi_offset 24, -32
	move	$fp, $a0
	ld.d	$a0, $a0, 8
	ld.d	$a2, $a0, 0
	ld.d	$a2, $a2, 24
	move	$s0, $a1
	jirl	$ra, $a2, 0
	ld.d	$a1, $fp, 16
	ld.d	$a2, $a1, 0
	ld.d	$a2, $a2, 24
	move	$s1, $a0
	move	$a0, $a1
	move	$a1, $s0
	jirl	$ra, $a2, 0
	ld.d	$a2, $fp, 8
	move	$a1, $a0
	bne	$s1, $a2, .LBB110_2
# %bb.1:                                # %entry
	ld.d	$a2, $fp, 16
	beq	$a1, $a2, .LBB110_3
.LBB110_2:                              # %if.else
	move	$a0, $s1
	pcaddu18i	$ra, %call36(_ZN2kc13UnparseClauseEPNS_14impl_viewnamesEPNS_17impl_unparseitemsE)
	jirl	$ra, $ra, 0
	move	$s0, $a0
	ld.d	$a0, $a0, 0
	ld.d	$a2, $a0, 40
	move	$a0, $s0
	move	$a1, $fp
	jirl	$ra, $a2, 0
	move	$fp, $s0
.LBB110_3:                              # %cleanup
	move	$a0, $fp
	ld.d	$s1, $sp, 0                     # 8-byte Folded Reload
	ld.d	$s0, $sp, 8                     # 8-byte Folded Reload
	ld.d	$fp, $sp, 16                    # 8-byte Folded Reload
	ld.d	$ra, $sp, 24                    # 8-byte Folded Reload
	addi.d	$sp, $sp, 32
	ret
.Lfunc_end110:
	.size	_ZN2kc32impl_unparseclause_UnparseClause7rewriteERNS_11rview_classE, .Lfunc_end110-_ZN2kc32impl_unparseclause_UnparseClause7rewriteERNS_11rview_classE
	.cfi_endproc
                                        # -- End function
	.globl	_ZN2kc14impl_viewnames7rewriteERNS_11rview_classE # -- Begin function _ZN2kc14impl_viewnames7rewriteERNS_11rview_classE
	.p2align	2
	.type	_ZN2kc14impl_viewnames7rewriteERNS_11rview_classE,@function
_ZN2kc14impl_viewnames7rewriteERNS_11rview_classE: # @_ZN2kc14impl_viewnames7rewriteERNS_11rview_classE
	.cfi_startproc
# %bb.0:                                # %entry
	addi.d	$sp, $sp, -32
	.cfi_def_cfa_offset 32
	st.d	$ra, $sp, 24                    # 8-byte Folded Spill
	st.d	$fp, $sp, 16                    # 8-byte Folded Spill
	st.d	$s0, $sp, 8                     # 8-byte Folded Spill
	st.d	$s1, $sp, 0                     # 8-byte Folded Spill
	.cfi_offset 1, -8
	.cfi_offset 22, -16
	.cfi_offset 23, -24
	.cfi_offset 24, -32
	move	$fp, $a0
	ld.d	$a0, $a0, 0
	ld.d	$a2, $a0, 88
	move	$s0, $a1
	move	$a0, $fp
	jirl	$ra, $a2, 0
	bnez	$a0, .LBB111_4
# %bb.1:                                # %if.else
	ld.d	$a0, $fp, 16
	ld.d	$a1, $a0, 0
	ld.d	$a2, $a1, 24
	move	$a1, $s0
	jirl	$ra, $a2, 0
	ld.d	$a1, $fp, 24
	ld.d	$a2, $a1, 0
	ld.d	$a2, $a2, 24
	move	$s1, $a0
	move	$a0, $a1
	move	$a1, $s0
	jirl	$ra, $a2, 0
	ld.d	$a2, $fp, 16
	move	$a1, $a0
	bne	$s1, $a2, .LBB111_3
# %bb.2:                                # %if.else
	ld.d	$a2, $fp, 24
	beq	$a1, $a2, .LBB111_4
.LBB111_3:                              # %if.else12
	move	$a0, $s1
	pcaddu18i	$ra, %call36(_ZN2kc13ConsviewnamesEPNS_7impl_IDEPNS_14impl_viewnamesE)
	jirl	$ra, $ra, 0
	move	$s0, $a0
	ld.d	$a0, $a0, 0
	ld.d	$a2, $a0, 40
	move	$a0, $s0
	move	$a1, $fp
	jirl	$ra, $a2, 0
	move	$fp, $s0
.LBB111_4:                              # %return
	move	$a0, $fp
	ld.d	$s1, $sp, 0                     # 8-byte Folded Reload
	ld.d	$s0, $sp, 8                     # 8-byte Folded Reload
	ld.d	$fp, $sp, 16                    # 8-byte Folded Reload
	ld.d	$ra, $sp, 24                    # 8-byte Folded Reload
	addi.d	$sp, $sp, 32
	ret
.Lfunc_end111:
	.size	_ZN2kc14impl_viewnames7rewriteERNS_11rview_classE, .Lfunc_end111-_ZN2kc14impl_viewnames7rewriteERNS_11rview_classE
	.cfi_endproc
                                        # -- End function
	.globl	_ZN2kc17impl_unparseitems7rewriteERNS_11rview_classE # -- Begin function _ZN2kc17impl_unparseitems7rewriteERNS_11rview_classE
	.p2align	2
	.type	_ZN2kc17impl_unparseitems7rewriteERNS_11rview_classE,@function
_ZN2kc17impl_unparseitems7rewriteERNS_11rview_classE: # @_ZN2kc17impl_unparseitems7rewriteERNS_11rview_classE
	.cfi_startproc
# %bb.0:                                # %entry
	addi.d	$sp, $sp, -32
	.cfi_def_cfa_offset 32
	st.d	$ra, $sp, 24                    # 8-byte Folded Spill
	st.d	$fp, $sp, 16                    # 8-byte Folded Spill
	st.d	$s0, $sp, 8                     # 8-byte Folded Spill
	st.d	$s1, $sp, 0                     # 8-byte Folded Spill
	.cfi_offset 1, -8
	.cfi_offset 22, -16
	.cfi_offset 23, -24
	.cfi_offset 24, -32
	move	$fp, $a0
	ld.d	$a0, $a0, 0
	ld.d	$a2, $a0, 88
	move	$s0, $a1
	move	$a0, $fp
	jirl	$ra, $a2, 0
	bnez	$a0, .LBB112_4
# %bb.1:                                # %if.else
	ld.d	$a0, $fp, 8
	ld.d	$a1, $a0, 0
	ld.d	$a2, $a1, 24
	move	$a1, $s0
	jirl	$ra, $a2, 0
	ld.d	$a1, $fp, 16
	ld.d	$a2, $a1, 0
	ld.d	$a2, $a2, 24
	move	$s1, $a0
	move	$a0, $a1
	move	$a1, $s0
	jirl	$ra, $a2, 0
	ld.d	$a2, $fp, 8
	move	$a1, $a0
	bne	$s1, $a2, .LBB112_3
# %bb.2:                                # %if.else
	ld.d	$a2, $fp, 16
	beq	$a1, $a2, .LBB112_4
.LBB112_3:                              # %if.else12
	move	$a0, $s1
	pcaddu18i	$ra, %call36(_ZN2kc16ConsunparseitemsEPNS_16impl_unparseitemEPNS_17impl_unparseitemsE)
	jirl	$ra, $ra, 0
	move	$s0, $a0
	ld.d	$a0, $a0, 0
	ld.d	$a2, $a0, 40
	move	$a0, $s0
	move	$a1, $fp
	jirl	$ra, $a2, 0
	move	$fp, $s0
.LBB112_4:                              # %return
	move	$a0, $fp
	ld.d	$s1, $sp, 0                     # 8-byte Folded Reload
	ld.d	$s0, $sp, 8                     # 8-byte Folded Reload
	ld.d	$fp, $sp, 16                    # 8-byte Folded Reload
	ld.d	$ra, $sp, 24                    # 8-byte Folded Reload
	addi.d	$sp, $sp, 32
	ret
.Lfunc_end112:
	.size	_ZN2kc17impl_unparseitems7rewriteERNS_11rview_classE, .Lfunc_end112-_ZN2kc17impl_unparseitems7rewriteERNS_11rview_classE
	.cfi_endproc
                                        # -- End function
	.globl	_ZN2kc29impl_unparseitem_UViewVarDecl7rewriteERNS_11rview_classE # -- Begin function _ZN2kc29impl_unparseitem_UViewVarDecl7rewriteERNS_11rview_classE
	.p2align	2
	.type	_ZN2kc29impl_unparseitem_UViewVarDecl7rewriteERNS_11rview_classE,@function
_ZN2kc29impl_unparseitem_UViewVarDecl7rewriteERNS_11rview_classE: # @_ZN2kc29impl_unparseitem_UViewVarDecl7rewriteERNS_11rview_classE
	.cfi_startproc
# %bb.0:                                # %entry
	addi.d	$sp, $sp, -48
	.cfi_def_cfa_offset 48
	st.d	$ra, $sp, 40                    # 8-byte Folded Spill
	st.d	$fp, $sp, 32                    # 8-byte Folded Spill
	st.d	$s0, $sp, 24                    # 8-byte Folded Spill
	st.d	$s1, $sp, 16                    # 8-byte Folded Spill
	st.d	$s2, $sp, 8                     # 8-byte Folded Spill
	.cfi_offset 1, -8
	.cfi_offset 22, -16
	.cfi_offset 23, -24
	.cfi_offset 24, -32
	.cfi_offset 25, -40
	move	$fp, $a0
	ld.d	$a0, $a0, 16
	ld.d	$a2, $a0, 0
	ld.d	$a2, $a2, 24
	move	$s1, $a1
	jirl	$ra, $a2, 0
	ld.d	$a1, $fp, 24
	ld.d	$a2, $a1, 0
	ld.d	$a2, $a2, 24
	move	$s2, $a0
	move	$a0, $a1
	move	$a1, $s1
	jirl	$ra, $a2, 0
	ld.d	$a1, $fp, 32
	ld.d	$a2, $a1, 0
	ld.d	$a2, $a2, 24
	move	$s0, $a0
	move	$a0, $a1
	move	$a1, $s1
	jirl	$ra, $a2, 0
	ld.d	$a1, $fp, 16
	move	$a2, $a0
	bne	$s2, $a1, .LBB113_3
# %bb.1:                                # %entry
	ld.d	$a1, $fp, 24
	bne	$s0, $a1, .LBB113_3
# %bb.2:                                # %entry
	ld.d	$a1, $fp, 32
	beq	$a2, $a1, .LBB113_4
.LBB113_3:                              # %if.else
	move	$a0, $s2
	move	$a1, $s0
	pcaddu18i	$ra, %call36(_ZN2kc12UViewVarDeclEPNS_7impl_IDES1_PNS_16impl_CexpressionE)
	jirl	$ra, $ra, 0
	move	$s0, $a0
	ld.d	$a0, $a0, 0
	ld.d	$a2, $a0, 40
	move	$a0, $s0
	move	$a1, $fp
	jirl	$ra, $a2, 0
	move	$fp, $s0
.LBB113_4:                              # %cleanup
	move	$a0, $fp
	ld.d	$s2, $sp, 8                     # 8-byte Folded Reload
	ld.d	$s1, $sp, 16                    # 8-byte Folded Reload
	ld.d	$s0, $sp, 24                    # 8-byte Folded Reload
	ld.d	$fp, $sp, 32                    # 8-byte Folded Reload
	ld.d	$ra, $sp, 40                    # 8-byte Folded Reload
	addi.d	$sp, $sp, 48
	ret
.Lfunc_end113:
	.size	_ZN2kc29impl_unparseitem_UViewVarDecl7rewriteERNS_11rview_classE, .Lfunc_end113-_ZN2kc29impl_unparseitem_UViewVarDecl7rewriteERNS_11rview_classE
	.cfi_endproc
                                        # -- End function
	.globl	_ZN2kc24impl_unparseitem_UnpBody7rewriteERNS_11rview_classE # -- Begin function _ZN2kc24impl_unparseitem_UnpBody7rewriteERNS_11rview_classE
	.p2align	2
	.type	_ZN2kc24impl_unparseitem_UnpBody7rewriteERNS_11rview_classE,@function
_ZN2kc24impl_unparseitem_UnpBody7rewriteERNS_11rview_classE: # @_ZN2kc24impl_unparseitem_UnpBody7rewriteERNS_11rview_classE
	.cfi_startproc
# %bb.0:                                # %entry
	addi.d	$sp, $sp, -32
	.cfi_def_cfa_offset 32
	st.d	$ra, $sp, 24                    # 8-byte Folded Spill
	st.d	$fp, $sp, 16                    # 8-byte Folded Spill
	st.d	$s0, $sp, 8                     # 8-byte Folded Spill
	st.d	$s1, $sp, 0                     # 8-byte Folded Spill
	.cfi_offset 1, -8
	.cfi_offset 22, -16
	.cfi_offset 23, -24
	.cfi_offset 24, -32
	move	$fp, $a0
	ld.d	$a0, $a0, 16
	ld.d	$a2, $a0, 0
	ld.d	$a2, $a2, 24
	move	$s0, $a1
	jirl	$ra, $a2, 0
	ld.d	$a1, $fp, 24
	ld.d	$a2, $a1, 0
	ld.d	$a2, $a2, 24
	move	$s1, $a0
	move	$a0, $a1
	move	$a1, $s0
	jirl	$ra, $a2, 0
	ld.d	$a2, $fp, 16
	move	$a1, $a0
	bne	$s1, $a2, .LBB114_2
# %bb.1:                                # %entry
	ld.d	$a2, $fp, 24
	beq	$a1, $a2, .LBB114_3
.LBB114_2:                              # %if.else
	move	$a0, $s1
	pcaddu18i	$ra, %call36(_ZN2kc7UnpBodyEPNS_19impl_languageoptionEPNS_17impl_unparseitemsE)
	jirl	$ra, $ra, 0
	move	$s0, $a0
	ld.d	$a0, $a0, 0
	ld.d	$a2, $a0, 40
	move	$a0, $s0
	move	$a1, $fp
	jirl	$ra, $a2, 0
	move	$fp, $s0
.LBB114_3:                              # %cleanup
	move	$a0, $fp
	ld.d	$s1, $sp, 0                     # 8-byte Folded Reload
	ld.d	$s0, $sp, 8                     # 8-byte Folded Reload
	ld.d	$fp, $sp, 16                    # 8-byte Folded Reload
	ld.d	$ra, $sp, 24                    # 8-byte Folded Reload
	addi.d	$sp, $sp, 32
	ret
.Lfunc_end114:
	.size	_ZN2kc24impl_unparseitem_UnpBody7rewriteERNS_11rview_classE, .Lfunc_end114-_ZN2kc24impl_unparseitem_UnpBody7rewriteERNS_11rview_classE
	.cfi_endproc
                                        # -- End function
	.globl	_ZN2kc25impl_unparseitem_UnpCtext7rewriteERNS_11rview_classE # -- Begin function _ZN2kc25impl_unparseitem_UnpCtext7rewriteERNS_11rview_classE
	.p2align	2
	.type	_ZN2kc25impl_unparseitem_UnpCtext7rewriteERNS_11rview_classE,@function
_ZN2kc25impl_unparseitem_UnpCtext7rewriteERNS_11rview_classE: # @_ZN2kc25impl_unparseitem_UnpCtext7rewriteERNS_11rview_classE
	.cfi_startproc
# %bb.0:                                # %entry
	addi.d	$sp, $sp, -32
	.cfi_def_cfa_offset 32
	st.d	$ra, $sp, 24                    # 8-byte Folded Spill
	st.d	$fp, $sp, 16                    # 8-byte Folded Spill
	st.d	$s0, $sp, 8                     # 8-byte Folded Spill
	st.d	$s1, $sp, 0                     # 8-byte Folded Spill
	.cfi_offset 1, -8
	.cfi_offset 22, -16
	.cfi_offset 23, -24
	.cfi_offset 24, -32
	move	$fp, $a0
	ld.d	$a0, $a0, 16
	ld.d	$a2, $a0, 0
	ld.d	$a2, $a2, 24
	move	$s0, $a1
	jirl	$ra, $a2, 0
	ld.d	$a1, $fp, 24
	ld.d	$a2, $a1, 0
	ld.d	$a2, $a2, 24
	move	$s1, $a0
	move	$a0, $a1
	move	$a1, $s0
	jirl	$ra, $a2, 0
	ld.d	$a2, $fp, 16
	move	$a1, $a0
	bne	$s1, $a2, .LBB115_2
# %bb.1:                                # %entry
	ld.d	$a2, $fp, 24
	beq	$a1, $a2, .LBB115_3
.LBB115_2:                              # %if.else
	move	$a0, $s1
	pcaddu18i	$ra, %call36(_ZN2kc8UnpCtextEPNS_19impl_languageoptionEPNS_10impl_CtextE)
	jirl	$ra, $ra, 0
	move	$s0, $a0
	ld.d	$a0, $a0, 0
	ld.d	$a2, $a0, 40
	move	$a0, $s0
	move	$a1, $fp
	jirl	$ra, $a2, 0
	move	$fp, $s0
.LBB115_3:                              # %cleanup
	move	$a0, $fp
	ld.d	$s1, $sp, 0                     # 8-byte Folded Reload
	ld.d	$s0, $sp, 8                     # 8-byte Folded Reload
	ld.d	$fp, $sp, 16                    # 8-byte Folded Reload
	ld.d	$ra, $sp, 24                    # 8-byte Folded Reload
	addi.d	$sp, $sp, 32
	ret
.Lfunc_end115:
	.size	_ZN2kc25impl_unparseitem_UnpCtext7rewriteERNS_11rview_classE, .Lfunc_end115-_ZN2kc25impl_unparseitem_UnpCtext7rewriteERNS_11rview_classE
	.cfi_endproc
                                        # -- End function
	.globl	_ZN2kc27impl_unparseitem_UnpSubexpr7rewriteERNS_11rview_classE # -- Begin function _ZN2kc27impl_unparseitem_UnpSubexpr7rewriteERNS_11rview_classE
	.p2align	2
	.type	_ZN2kc27impl_unparseitem_UnpSubexpr7rewriteERNS_11rview_classE,@function
_ZN2kc27impl_unparseitem_UnpSubexpr7rewriteERNS_11rview_classE: # @_ZN2kc27impl_unparseitem_UnpSubexpr7rewriteERNS_11rview_classE
	.cfi_startproc
# %bb.0:                                # %entry
	addi.d	$sp, $sp, -48
	.cfi_def_cfa_offset 48
	st.d	$ra, $sp, 40                    # 8-byte Folded Spill
	st.d	$fp, $sp, 32                    # 8-byte Folded Spill
	st.d	$s0, $sp, 24                    # 8-byte Folded Spill
	st.d	$s1, $sp, 16                    # 8-byte Folded Spill
	st.d	$s2, $sp, 8                     # 8-byte Folded Spill
	.cfi_offset 1, -8
	.cfi_offset 22, -16
	.cfi_offset 23, -24
	.cfi_offset 24, -32
	.cfi_offset 25, -40
	move	$fp, $a0
	ld.d	$a0, $a0, 16
	ld.d	$a2, $a0, 0
	ld.d	$a2, $a2, 24
	move	$s1, $a1
	jirl	$ra, $a2, 0
	ld.d	$a1, $fp, 24
	ld.d	$a2, $a1, 0
	ld.d	$a2, $a2, 24
	move	$s2, $a0
	move	$a0, $a1
	move	$a1, $s1
	jirl	$ra, $a2, 0
	ld.d	$a1, $fp, 32
	ld.d	$a2, $a1, 0
	ld.d	$a2, $a2, 24
	move	$s0, $a0
	move	$a0, $a1
	move	$a1, $s1
	jirl	$ra, $a2, 0
	ld.d	$a1, $fp, 16
	move	$a2, $a0
	bne	$s2, $a1, .LBB116_3
# %bb.1:                                # %entry
	ld.d	$a1, $fp, 24
	bne	$s0, $a1, .LBB116_3
# %bb.2:                                # %entry
	ld.d	$a1, $fp, 32
	beq	$a2, $a1, .LBB116_4
.LBB116_3:                              # %if.else
	move	$a0, $s2
	move	$a1, $s0
	pcaddu18i	$ra, %call36(_ZN2kc10UnpSubexprEPNS_19impl_languageoptionEPNS_15impl_unpsubtermEPNS_19impl_viewnameoptionE)
	jirl	$ra, $ra, 0
	move	$s0, $a0
	ld.d	$a0, $a0, 0
	ld.d	$a2, $a0, 40
	move	$a0, $s0
	move	$a1, $fp
	jirl	$ra, $a2, 0
	move	$fp, $s0
.LBB116_4:                              # %cleanup
	move	$a0, $fp
	ld.d	$s2, $sp, 8                     # 8-byte Folded Reload
	ld.d	$s1, $sp, 16                    # 8-byte Folded Reload
	ld.d	$s0, $sp, 24                    # 8-byte Folded Reload
	ld.d	$fp, $sp, 32                    # 8-byte Folded Reload
	ld.d	$ra, $sp, 40                    # 8-byte Folded Reload
	addi.d	$sp, $sp, 48
	ret
.Lfunc_end116:
	.size	_ZN2kc27impl_unparseitem_UnpSubexpr7rewriteERNS_11rview_classE, .Lfunc_end116-_ZN2kc27impl_unparseitem_UnpSubexpr7rewriteERNS_11rview_classE
	.cfi_endproc
                                        # -- End function
	.globl	_ZN2kc23impl_unparseitem_UnpStr7rewriteERNS_11rview_classE # -- Begin function _ZN2kc23impl_unparseitem_UnpStr7rewriteERNS_11rview_classE
	.p2align	2
	.type	_ZN2kc23impl_unparseitem_UnpStr7rewriteERNS_11rview_classE,@function
_ZN2kc23impl_unparseitem_UnpStr7rewriteERNS_11rview_classE: # @_ZN2kc23impl_unparseitem_UnpStr7rewriteERNS_11rview_classE
	.cfi_startproc
# %bb.0:                                # %entry
	addi.d	$sp, $sp, -48
	.cfi_def_cfa_offset 48
	st.d	$ra, $sp, 40                    # 8-byte Folded Spill
	st.d	$fp, $sp, 32                    # 8-byte Folded Spill
	st.d	$s0, $sp, 24                    # 8-byte Folded Spill
	st.d	$s1, $sp, 16                    # 8-byte Folded Spill
	st.d	$s2, $sp, 8                     # 8-byte Folded Spill
	.cfi_offset 1, -8
	.cfi_offset 22, -16
	.cfi_offset 23, -24
	.cfi_offset 24, -32
	.cfi_offset 25, -40
	move	$fp, $a0
	ld.d	$a0, $a0, 16
	ld.d	$a2, $a0, 0
	ld.d	$a2, $a2, 24
	move	$s1, $a1
	jirl	$ra, $a2, 0
	ld.d	$a1, $fp, 24
	ld.d	$a2, $a1, 0
	ld.d	$a2, $a2, 24
	move	$s2, $a0
	move	$a0, $a1
	move	$a1, $s1
	jirl	$ra, $a2, 0
	ld.d	$a1, $fp, 32
	ld.d	$a2, $a1, 0
	ld.d	$a2, $a2, 24
	move	$s0, $a0
	move	$a0, $a1
	move	$a1, $s1
	jirl	$ra, $a2, 0
	ld.d	$a1, $fp, 16
	move	$a2, $a0
	bne	$s2, $a1, .LBB117_3
# %bb.1:                                # %entry
	ld.d	$a1, $fp, 24
	bne	$s0, $a1, .LBB117_3
# %bb.2:                                # %entry
	ld.d	$a1, $fp, 32
	beq	$a2, $a1, .LBB117_4
.LBB117_3:                              # %if.else
	move	$a0, $s2
	move	$a1, $s0
	pcaddu18i	$ra, %call36(_ZN2kc6UnpStrEPNS_19impl_languageoptionEPNS_18impl_CexpressionDQEPNS_19impl_viewnameoptionE)
	jirl	$ra, $ra, 0
	move	$s0, $a0
	ld.d	$a0, $a0, 0
	ld.d	$a2, $a0, 40
	move	$a0, $s0
	move	$a1, $fp
	jirl	$ra, $a2, 0
	move	$fp, $s0
.LBB117_4:                              # %cleanup
	move	$a0, $fp
	ld.d	$s2, $sp, 8                     # 8-byte Folded Reload
	ld.d	$s1, $sp, 16                    # 8-byte Folded Reload
	ld.d	$s0, $sp, 24                    # 8-byte Folded Reload
	ld.d	$fp, $sp, 32                    # 8-byte Folded Reload
	ld.d	$ra, $sp, 40                    # 8-byte Folded Reload
	addi.d	$sp, $sp, 48
	ret
.Lfunc_end117:
	.size	_ZN2kc23impl_unparseitem_UnpStr7rewriteERNS_11rview_classE, .Lfunc_end117-_ZN2kc23impl_unparseitem_UnpStr7rewriteERNS_11rview_classE
	.cfi_endproc
                                        # -- End function
	.globl	_ZN2kc33impl_unpsubterm_UnpCastedVariable7rewriteERNS_11rview_classE # -- Begin function _ZN2kc33impl_unpsubterm_UnpCastedVariable7rewriteERNS_11rview_classE
	.p2align	2
	.type	_ZN2kc33impl_unpsubterm_UnpCastedVariable7rewriteERNS_11rview_classE,@function
_ZN2kc33impl_unpsubterm_UnpCastedVariable7rewriteERNS_11rview_classE: # @_ZN2kc33impl_unpsubterm_UnpCastedVariable7rewriteERNS_11rview_classE
	.cfi_startproc
# %bb.0:                                # %entry
	addi.d	$sp, $sp, -32
	.cfi_def_cfa_offset 32
	st.d	$ra, $sp, 24                    # 8-byte Folded Spill
	st.d	$fp, $sp, 16                    # 8-byte Folded Spill
	st.d	$s0, $sp, 8                     # 8-byte Folded Spill
	st.d	$s1, $sp, 0                     # 8-byte Folded Spill
	.cfi_offset 1, -8
	.cfi_offset 22, -16
	.cfi_offset 23, -24
	.cfi_offset 24, -32
	move	$fp, $a0
	ld.d	$a0, $a0, 8
	ld.d	$a2, $a0, 0
	ld.d	$a2, $a2, 24
	move	$s0, $a1
	jirl	$ra, $a2, 0
	ld.d	$a1, $fp, 16
	ld.d	$a2, $a1, 0
	ld.d	$a2, $a2, 24
	move	$s1, $a0
	move	$a0, $a1
	move	$a1, $s0
	jirl	$ra, $a2, 0
	ld.d	$a2, $fp, 8
	move	$a1, $a0
	bne	$s1, $a2, .LBB118_2
# %bb.1:                                # %entry
	ld.d	$a2, $fp, 16
	beq	$a1, $a2, .LBB118_3
.LBB118_2:                              # %if.else
	move	$a0, $s1
	pcaddu18i	$ra, %call36(_ZN2kc17UnpCastedVariableEPNS_7impl_IDES1_)
	jirl	$ra, $ra, 0
	move	$s0, $a0
	ld.d	$a0, $a0, 0
	ld.d	$a2, $a0, 40
	move	$a0, $s0
	move	$a1, $fp
	jirl	$ra, $a2, 0
	move	$fp, $s0
.LBB118_3:                              # %cleanup
	move	$a0, $fp
	ld.d	$s1, $sp, 0                     # 8-byte Folded Reload
	ld.d	$s0, $sp, 8                     # 8-byte Folded Reload
	ld.d	$fp, $sp, 16                    # 8-byte Folded Reload
	ld.d	$ra, $sp, 24                    # 8-byte Folded Reload
	addi.d	$sp, $sp, 32
	ret
.Lfunc_end118:
	.size	_ZN2kc33impl_unpsubterm_UnpCastedVariable7rewriteERNS_11rview_classE, .Lfunc_end118-_ZN2kc33impl_unpsubterm_UnpCastedVariable7rewriteERNS_11rview_classE
	.cfi_endproc
                                        # -- End function
	.globl	_ZN2kc32impl_unpsubterm_UnpDollarvarAttr7rewriteERNS_11rview_classE # -- Begin function _ZN2kc32impl_unpsubterm_UnpDollarvarAttr7rewriteERNS_11rview_classE
	.p2align	2
	.type	_ZN2kc32impl_unpsubterm_UnpDollarvarAttr7rewriteERNS_11rview_classE,@function
_ZN2kc32impl_unpsubterm_UnpDollarvarAttr7rewriteERNS_11rview_classE: # @_ZN2kc32impl_unpsubterm_UnpDollarvarAttr7rewriteERNS_11rview_classE
	.cfi_startproc
# %bb.0:                                # %entry
	addi.d	$sp, $sp, -32
	.cfi_def_cfa_offset 32
	st.d	$ra, $sp, 24                    # 8-byte Folded Spill
	st.d	$fp, $sp, 16                    # 8-byte Folded Spill
	st.d	$s0, $sp, 8                     # 8-byte Folded Spill
	st.d	$s1, $sp, 0                     # 8-byte Folded Spill
	.cfi_offset 1, -8
	.cfi_offset 22, -16
	.cfi_offset 23, -24
	.cfi_offset 24, -32
	move	$fp, $a0
	ld.d	$a0, $a0, 8
	ld.d	$a2, $a0, 0
	ld.d	$a2, $a2, 24
	move	$s0, $a1
	jirl	$ra, $a2, 0
	ld.d	$a1, $fp, 16
	ld.d	$a2, $a1, 0
	ld.d	$a2, $a2, 24
	move	$s1, $a0
	move	$a0, $a1
	move	$a1, $s0
	jirl	$ra, $a2, 0
	ld.d	$a2, $fp, 8
	move	$a1, $a0
	bne	$s1, $a2, .LBB119_2
# %bb.1:                                # %entry
	ld.d	$a2, $fp, 16
	beq	$a1, $a2, .LBB119_3
.LBB119_2:                              # %if.else
	move	$a0, $s1
	pcaddu18i	$ra, %call36(_ZN2kc16UnpDollarvarAttrEPNS_8impl_INTEPNS_18impl_unpattributesE)
	jirl	$ra, $ra, 0
	move	$s0, $a0
	ld.d	$a0, $a0, 0
	ld.d	$a2, $a0, 40
	move	$a0, $s0
	move	$a1, $fp
	jirl	$ra, $a2, 0
	move	$fp, $s0
.LBB119_3:                              # %cleanup
	move	$a0, $fp
	ld.d	$s1, $sp, 0                     # 8-byte Folded Reload
	ld.d	$s0, $sp, 8                     # 8-byte Folded Reload
	ld.d	$fp, $sp, 16                    # 8-byte Folded Reload
	ld.d	$ra, $sp, 24                    # 8-byte Folded Reload
	addi.d	$sp, $sp, 32
	ret
.Lfunc_end119:
	.size	_ZN2kc32impl_unpsubterm_UnpDollarvarAttr7rewriteERNS_11rview_classE, .Lfunc_end119-_ZN2kc32impl_unpsubterm_UnpDollarvarAttr7rewriteERNS_11rview_classE
	.cfi_endproc
                                        # -- End function
	.globl	_ZN2kc26impl_unpsubterm_UnpSubAttr7rewriteERNS_11rview_classE # -- Begin function _ZN2kc26impl_unpsubterm_UnpSubAttr7rewriteERNS_11rview_classE
	.p2align	2
	.type	_ZN2kc26impl_unpsubterm_UnpSubAttr7rewriteERNS_11rview_classE,@function
_ZN2kc26impl_unpsubterm_UnpSubAttr7rewriteERNS_11rview_classE: # @_ZN2kc26impl_unpsubterm_UnpSubAttr7rewriteERNS_11rview_classE
	.cfi_startproc
# %bb.0:                                # %entry
	addi.d	$sp, $sp, -32
	.cfi_def_cfa_offset 32
	st.d	$ra, $sp, 24                    # 8-byte Folded Spill
	st.d	$fp, $sp, 16                    # 8-byte Folded Spill
	st.d	$s0, $sp, 8                     # 8-byte Folded Spill
	st.d	$s1, $sp, 0                     # 8-byte Folded Spill
	.cfi_offset 1, -8
	.cfi_offset 22, -16
	.cfi_offset 23, -24
	.cfi_offset 24, -32
	move	$fp, $a0
	ld.d	$a0, $a0, 8
	ld.d	$a2, $a0, 0
	ld.d	$a2, $a2, 24
	move	$s0, $a1
	jirl	$ra, $a2, 0
	ld.d	$a1, $fp, 16
	ld.d	$a2, $a1, 0
	ld.d	$a2, $a2, 24
	move	$s1, $a0
	move	$a0, $a1
	move	$a1, $s0
	jirl	$ra, $a2, 0
	ld.d	$a2, $fp, 8
	move	$a1, $a0
	bne	$s1, $a2, .LBB120_2
# %bb.1:                                # %entry
	ld.d	$a2, $fp, 16
	beq	$a1, $a2, .LBB120_3
.LBB120_2:                              # %if.else
	move	$a0, $s1
	pcaddu18i	$ra, %call36(_ZN2kc10UnpSubAttrEPNS_7impl_IDEPNS_18impl_unpattributesE)
	jirl	$ra, $ra, 0
	move	$s0, $a0
	ld.d	$a0, $a0, 0
	ld.d	$a2, $a0, 40
	move	$a0, $s0
	move	$a1, $fp
	jirl	$ra, $a2, 0
	move	$fp, $s0
.LBB120_3:                              # %cleanup
	move	$a0, $fp
	ld.d	$s1, $sp, 0                     # 8-byte Folded Reload
	ld.d	$s0, $sp, 8                     # 8-byte Folded Reload
	ld.d	$fp, $sp, 16                    # 8-byte Folded Reload
	ld.d	$ra, $sp, 24                    # 8-byte Folded Reload
	addi.d	$sp, $sp, 32
	ret
.Lfunc_end120:
	.size	_ZN2kc26impl_unpsubterm_UnpSubAttr7rewriteERNS_11rview_classE, .Lfunc_end120-_ZN2kc26impl_unpsubterm_UnpSubAttr7rewriteERNS_11rview_classE
	.cfi_endproc
                                        # -- End function
	.globl	_ZN2kc32impl_unpsubterm_UnpDollarvarTerm7rewriteERNS_11rview_classE # -- Begin function _ZN2kc32impl_unpsubterm_UnpDollarvarTerm7rewriteERNS_11rview_classE
	.p2align	2
	.type	_ZN2kc32impl_unpsubterm_UnpDollarvarTerm7rewriteERNS_11rview_classE,@function
_ZN2kc32impl_unpsubterm_UnpDollarvarTerm7rewriteERNS_11rview_classE: # @_ZN2kc32impl_unpsubterm_UnpDollarvarTerm7rewriteERNS_11rview_classE
	.cfi_startproc
# %bb.0:                                # %entry
	addi.d	$sp, $sp, -32
	.cfi_def_cfa_offset 32
	st.d	$ra, $sp, 24                    # 8-byte Folded Spill
	st.d	$fp, $sp, 16                    # 8-byte Folded Spill
	st.d	$s0, $sp, 8                     # 8-byte Folded Spill
	.cfi_offset 1, -8
	.cfi_offset 22, -16
	.cfi_offset 23, -24
	move	$fp, $a0
	ld.d	$a0, $a0, 8
	ld.d	$a2, $a0, 0
	ld.d	$a2, $a2, 24
	jirl	$ra, $a2, 0
	ld.d	$a1, $fp, 8
	beq	$a0, $a1, .LBB121_2
# %bb.1:                                # %if.else
	pcaddu18i	$ra, %call36(_ZN2kc16UnpDollarvarTermEPNS_8impl_INTE)
	jirl	$ra, $ra, 0
	move	$s0, $a0
	ld.d	$a0, $a0, 0
	ld.d	$a2, $a0, 40
	move	$a0, $s0
	move	$a1, $fp
	jirl	$ra, $a2, 0
	move	$fp, $s0
.LBB121_2:                              # %cleanup
	move	$a0, $fp
	ld.d	$s0, $sp, 8                     # 8-byte Folded Reload
	ld.d	$fp, $sp, 16                    # 8-byte Folded Reload
	ld.d	$ra, $sp, 24                    # 8-byte Folded Reload
	addi.d	$sp, $sp, 32
	ret
.Lfunc_end121:
	.size	_ZN2kc32impl_unpsubterm_UnpDollarvarTerm7rewriteERNS_11rview_classE, .Lfunc_end121-_ZN2kc32impl_unpsubterm_UnpDollarvarTerm7rewriteERNS_11rview_classE
	.cfi_endproc
                                        # -- End function
	.globl	_ZN2kc26impl_unpsubterm_UnpSubTerm7rewriteERNS_11rview_classE # -- Begin function _ZN2kc26impl_unpsubterm_UnpSubTerm7rewriteERNS_11rview_classE
	.p2align	2
	.type	_ZN2kc26impl_unpsubterm_UnpSubTerm7rewriteERNS_11rview_classE,@function
_ZN2kc26impl_unpsubterm_UnpSubTerm7rewriteERNS_11rview_classE: # @_ZN2kc26impl_unpsubterm_UnpSubTerm7rewriteERNS_11rview_classE
	.cfi_startproc
# %bb.0:                                # %entry
	addi.d	$sp, $sp, -32
	.cfi_def_cfa_offset 32
	st.d	$ra, $sp, 24                    # 8-byte Folded Spill
	st.d	$fp, $sp, 16                    # 8-byte Folded Spill
	st.d	$s0, $sp, 8                     # 8-byte Folded Spill
	.cfi_offset 1, -8
	.cfi_offset 22, -16
	.cfi_offset 23, -24
	move	$fp, $a0
	ld.d	$a0, $a0, 8
	ld.d	$a2, $a0, 0
	ld.d	$a2, $a2, 24
	jirl	$ra, $a2, 0
	ld.d	$a1, $fp, 8
	beq	$a0, $a1, .LBB122_2
# %bb.1:                                # %if.else
	pcaddu18i	$ra, %call36(_ZN2kc10UnpSubTermEPNS_7impl_IDE)
	jirl	$ra, $ra, 0
	move	$s0, $a0
	ld.d	$a0, $a0, 0
	ld.d	$a2, $a0, 40
	move	$a0, $s0
	move	$a1, $fp
	jirl	$ra, $a2, 0
	move	$fp, $s0
.LBB122_2:                              # %cleanup
	move	$a0, $fp
	ld.d	$s0, $sp, 8                     # 8-byte Folded Reload
	ld.d	$fp, $sp, 16                    # 8-byte Folded Reload
	ld.d	$ra, $sp, 24                    # 8-byte Folded Reload
	addi.d	$sp, $sp, 32
	ret
.Lfunc_end122:
	.size	_ZN2kc26impl_unpsubterm_UnpSubTerm7rewriteERNS_11rview_classE, .Lfunc_end122-_ZN2kc26impl_unpsubterm_UnpSubTerm7rewriteERNS_11rview_classE
	.cfi_endproc
                                        # -- End function
	.globl	_ZN2kc18impl_unpattributes7rewriteERNS_11rview_classE # -- Begin function _ZN2kc18impl_unpattributes7rewriteERNS_11rview_classE
	.p2align	2
	.type	_ZN2kc18impl_unpattributes7rewriteERNS_11rview_classE,@function
_ZN2kc18impl_unpattributes7rewriteERNS_11rview_classE: # @_ZN2kc18impl_unpattributes7rewriteERNS_11rview_classE
	.cfi_startproc
# %bb.0:                                # %entry
	addi.d	$sp, $sp, -32
	.cfi_def_cfa_offset 32
	st.d	$ra, $sp, 24                    # 8-byte Folded Spill
	st.d	$fp, $sp, 16                    # 8-byte Folded Spill
	st.d	$s0, $sp, 8                     # 8-byte Folded Spill
	st.d	$s1, $sp, 0                     # 8-byte Folded Spill
	.cfi_offset 1, -8
	.cfi_offset 22, -16
	.cfi_offset 23, -24
	.cfi_offset 24, -32
	move	$fp, $a0
	ld.d	$a0, $a0, 0
	ld.d	$a2, $a0, 88
	move	$s0, $a1
	move	$a0, $fp
	jirl	$ra, $a2, 0
	bnez	$a0, .LBB123_4
# %bb.1:                                # %if.else
	ld.d	$a0, $fp, 8
	ld.d	$a1, $a0, 0
	ld.d	$a2, $a1, 24
	move	$a1, $s0
	jirl	$ra, $a2, 0
	ld.d	$a1, $fp, 16
	ld.d	$a2, $a1, 0
	ld.d	$a2, $a2, 24
	move	$s1, $a0
	move	$a0, $a1
	move	$a1, $s0
	jirl	$ra, $a2, 0
	ld.d	$a2, $fp, 8
	move	$a1, $a0
	bne	$s1, $a2, .LBB123_3
# %bb.2:                                # %if.else
	ld.d	$a2, $fp, 16
	beq	$a1, $a2, .LBB123_4
.LBB123_3:                              # %if.else12
	move	$a0, $s1
	pcaddu18i	$ra, %call36(_ZN2kc17ConsunpattributesEPNS_7impl_IDEPNS_18impl_unpattributesE)
	jirl	$ra, $ra, 0
	move	$s0, $a0
	ld.d	$a0, $a0, 0
	ld.d	$a2, $a0, 40
	move	$a0, $s0
	move	$a1, $fp
	jirl	$ra, $a2, 0
	move	$fp, $s0
.LBB123_4:                              # %return
	move	$a0, $fp
	ld.d	$s1, $sp, 0                     # 8-byte Folded Reload
	ld.d	$s0, $sp, 8                     # 8-byte Folded Reload
	ld.d	$fp, $sp, 16                    # 8-byte Folded Reload
	ld.d	$ra, $sp, 24                    # 8-byte Folded Reload
	addi.d	$sp, $sp, 32
	ret
.Lfunc_end123:
	.size	_ZN2kc18impl_unpattributes7rewriteERNS_11rview_classE, .Lfunc_end123-_ZN2kc18impl_unpattributes7rewriteERNS_11rview_classE
	.cfi_endproc
                                        # -- End function
	.globl	_ZN2kc31impl_viewnameoption_YesViewname7rewriteERNS_11rview_classE # -- Begin function _ZN2kc31impl_viewnameoption_YesViewname7rewriteERNS_11rview_classE
	.p2align	2
	.type	_ZN2kc31impl_viewnameoption_YesViewname7rewriteERNS_11rview_classE,@function
_ZN2kc31impl_viewnameoption_YesViewname7rewriteERNS_11rview_classE: # @_ZN2kc31impl_viewnameoption_YesViewname7rewriteERNS_11rview_classE
	.cfi_startproc
# %bb.0:                                # %entry
	addi.d	$sp, $sp, -32
	.cfi_def_cfa_offset 32
	st.d	$ra, $sp, 24                    # 8-byte Folded Spill
	st.d	$fp, $sp, 16                    # 8-byte Folded Spill
	st.d	$s0, $sp, 8                     # 8-byte Folded Spill
	.cfi_offset 1, -8
	.cfi_offset 22, -16
	.cfi_offset 23, -24
	move	$fp, $a0
	ld.d	$a0, $a0, 8
	ld.d	$a2, $a0, 0
	ld.d	$a2, $a2, 24
	jirl	$ra, $a2, 0
	ld.d	$a1, $fp, 8
	beq	$a0, $a1, .LBB124_2
# %bb.1:                                # %if.else
	pcaddu18i	$ra, %call36(_ZN2kc11YesViewnameEPNS_7impl_IDE)
	jirl	$ra, $ra, 0
	move	$s0, $a0
	ld.d	$a0, $a0, 0
	ld.d	$a2, $a0, 40
	move	$a0, $s0
	move	$a1, $fp
	jirl	$ra, $a2, 0
	move	$fp, $s0
.LBB124_2:                              # %cleanup
	move	$a0, $fp
	ld.d	$s0, $sp, 8                     # 8-byte Folded Reload
	ld.d	$fp, $sp, 16                    # 8-byte Folded Reload
	ld.d	$ra, $sp, 24                    # 8-byte Folded Reload
	addi.d	$sp, $sp, 32
	ret
.Lfunc_end124:
	.size	_ZN2kc31impl_viewnameoption_YesViewname7rewriteERNS_11rview_classE, .Lfunc_end124-_ZN2kc31impl_viewnameoption_YesViewname7rewriteERNS_11rview_classE
	.cfi_endproc
                                        # -- End function
	.globl	_ZN2kc30impl_viewnameoption_NoViewname7rewriteERNS_11rview_classE # -- Begin function _ZN2kc30impl_viewnameoption_NoViewname7rewriteERNS_11rview_classE
	.p2align	2
	.type	_ZN2kc30impl_viewnameoption_NoViewname7rewriteERNS_11rview_classE,@function
_ZN2kc30impl_viewnameoption_NoViewname7rewriteERNS_11rview_classE: # @_ZN2kc30impl_viewnameoption_NoViewname7rewriteERNS_11rview_classE
# %bb.0:                                # %entry
	ret
.Lfunc_end125:
	.size	_ZN2kc30impl_viewnameoption_NoViewname7rewriteERNS_11rview_classE, .Lfunc_end125-_ZN2kc30impl_viewnameoption_NoViewname7rewriteERNS_11rview_classE
                                        # -- End function
	.globl	_ZN2kc32impl_languageoption_LanguageList7rewriteERNS_11rview_classE # -- Begin function _ZN2kc32impl_languageoption_LanguageList7rewriteERNS_11rview_classE
	.p2align	2
	.type	_ZN2kc32impl_languageoption_LanguageList7rewriteERNS_11rview_classE,@function
_ZN2kc32impl_languageoption_LanguageList7rewriteERNS_11rview_classE: # @_ZN2kc32impl_languageoption_LanguageList7rewriteERNS_11rview_classE
	.cfi_startproc
# %bb.0:                                # %entry
	addi.d	$sp, $sp, -32
	.cfi_def_cfa_offset 32
	st.d	$ra, $sp, 24                    # 8-byte Folded Spill
	st.d	$fp, $sp, 16                    # 8-byte Folded Spill
	st.d	$s0, $sp, 8                     # 8-byte Folded Spill
	.cfi_offset 1, -8
	.cfi_offset 22, -16
	.cfi_offset 23, -24
	move	$fp, $a0
	ld.d	$a0, $a0, 8
	ld.d	$a2, $a0, 0
	ld.d	$a2, $a2, 24
	jirl	$ra, $a2, 0
	ld.d	$a1, $fp, 8
	beq	$a0, $a1, .LBB126_2
# %bb.1:                                # %if.else
	pcaddu18i	$ra, %call36(_ZN2kc12LanguageListEPNS_18impl_languagenamesE)
	jirl	$ra, $ra, 0
	move	$s0, $a0
	ld.d	$a0, $a0, 0
	ld.d	$a2, $a0, 40
	move	$a0, $s0
	move	$a1, $fp
	jirl	$ra, $a2, 0
	move	$fp, $s0
.LBB126_2:                              # %cleanup
	move	$a0, $fp
	ld.d	$s0, $sp, 8                     # 8-byte Folded Reload
	ld.d	$fp, $sp, 16                    # 8-byte Folded Reload
	ld.d	$ra, $sp, 24                    # 8-byte Folded Reload
	addi.d	$sp, $sp, 32
	ret
.Lfunc_end126:
	.size	_ZN2kc32impl_languageoption_LanguageList7rewriteERNS_11rview_classE, .Lfunc_end126-_ZN2kc32impl_languageoption_LanguageList7rewriteERNS_11rview_classE
	.cfi_endproc
                                        # -- End function
	.globl	_ZN2kc34impl_languageoption_NoLanguagename7rewriteERNS_11rview_classE # -- Begin function _ZN2kc34impl_languageoption_NoLanguagename7rewriteERNS_11rview_classE
	.p2align	2
	.type	_ZN2kc34impl_languageoption_NoLanguagename7rewriteERNS_11rview_classE,@function
_ZN2kc34impl_languageoption_NoLanguagename7rewriteERNS_11rview_classE: # @_ZN2kc34impl_languageoption_NoLanguagename7rewriteERNS_11rview_classE
# %bb.0:                                # %entry
	ret
.Lfunc_end127:
	.size	_ZN2kc34impl_languageoption_NoLanguagename7rewriteERNS_11rview_classE, .Lfunc_end127-_ZN2kc34impl_languageoption_NoLanguagename7rewriteERNS_11rview_classE
