	.file	"unpk.cc"
	.section	.text._ZNSt5stackIPN2kc14impl_operatorsESt5dequeIS2_SaIS2_EEED2Ev,"axG",@progbits,_ZNSt5stackIPN2kc14impl_operatorsESt5dequeIS2_SaIS2_EEED2Ev,comdat
	.weak	_ZNSt5stackIPN2kc14impl_operatorsESt5dequeIS2_SaIS2_EEED2Ev # -- Begin function _ZNSt5stackIPN2kc14impl_operatorsESt5dequeIS2_SaIS2_EEED2Ev
	.p2align	5
	.type	_ZNSt5stackIPN2kc14impl_operatorsESt5dequeIS2_SaIS2_EEED2Ev,@function
_ZNSt5stackIPN2kc14impl_operatorsESt5dequeIS2_SaIS2_EEED2Ev: # @_ZNSt5stackIPN2kc14impl_operatorsESt5dequeIS2_SaIS2_EEED2Ev
	.cfi_startproc
# %bb.0:                                # %entry
	ld.d	$a2, $a0, 0
	beqz	$a2, .LBB0_6
# %bb.1:                                # %if.then.i.i
	addi.d	$sp, $sp, -32
	.cfi_def_cfa_offset 32
	st.d	$ra, $sp, 24                    # 8-byte Folded Spill
	st.d	$fp, $sp, 16                    # 8-byte Folded Spill
	st.d	$s0, $sp, 8                     # 8-byte Folded Spill
	st.d	$s1, $sp, 0                     # 8-byte Folded Spill
	.cfi_offset 1, -8
	.cfi_offset 22, -16
	.cfi_offset 23, -24
	.cfi_offset 24, -32
	ld.d	$fp, $a0, 72
	ld.d	$a1, $a0, 40
	addi.d	$a3, $fp, 8
	bgeu	$a1, $a3, .LBB0_5
# %bb.2:                                # %for.body.i.i.i.preheader
	move	$s0, $a0
	addi.d	$a1, $a1, -8
	.p2align	4, , 16
.LBB0_3:                                # %for.body.i.i.i
                                        # =>This Inner Loop Header: Depth=1
	ld.d	$a0, $a1, 8
	addi.d	$s1, $a1, 8
	ori	$a1, $zero, 512
	pcaddu18i	$ra, %call36(_ZdlPvm)
	jirl	$ra, $ra, 0
	move	$a1, $s1
	bltu	$s1, $fp, .LBB0_3
# %bb.4:                                # %_ZNSt11_Deque_baseIPN2kc14impl_operatorsESaIS2_EE16_M_destroy_nodesEPPS2_S6_.exit.loopexit.i.i
	move	$a0, $s0
	ld.d	$a2, $s0, 0
.LBB0_5:                                # %_ZNSt11_Deque_baseIPN2kc14impl_operatorsESaIS2_EE16_M_destroy_nodesEPPS2_S6_.exit.i.i
	ld.d	$a0, $a0, 8
	slli.d	$a1, $a0, 3
	move	$a0, $a2
	ld.d	$s1, $sp, 0                     # 8-byte Folded Reload
	ld.d	$s0, $sp, 8                     # 8-byte Folded Reload
	ld.d	$fp, $sp, 16                    # 8-byte Folded Reload
	ld.d	$ra, $sp, 24                    # 8-byte Folded Reload
	addi.d	$sp, $sp, 32
	pcaddu18i	$t8, %call36(_ZdlPvm)
	jr	$t8
.LBB0_6:                                # %_ZNSt5dequeIPN2kc14impl_operatorsESaIS2_EED2Ev.exit
	ret
.Lfunc_end0:
	.size	_ZNSt5stackIPN2kc14impl_operatorsESt5dequeIS2_SaIS2_EEED2Ev, .Lfunc_end0-_ZNSt5stackIPN2kc14impl_operatorsESt5dequeIS2_SaIS2_EEED2Ev
	.cfi_endproc
                                        # -- End function
	.section	.text._ZNSt5stackIPN2kc20impl_dollarvarstatusESt5dequeIS2_SaIS2_EEED2Ev,"axG",@progbits,_ZNSt5stackIPN2kc20impl_dollarvarstatusESt5dequeIS2_SaIS2_EEED2Ev,comdat
	.weak	_ZNSt5stackIPN2kc20impl_dollarvarstatusESt5dequeIS2_SaIS2_EEED2Ev # -- Begin function _ZNSt5stackIPN2kc20impl_dollarvarstatusESt5dequeIS2_SaIS2_EEED2Ev
	.p2align	5
	.type	_ZNSt5stackIPN2kc20impl_dollarvarstatusESt5dequeIS2_SaIS2_EEED2Ev,@function
_ZNSt5stackIPN2kc20impl_dollarvarstatusESt5dequeIS2_SaIS2_EEED2Ev: # @_ZNSt5stackIPN2kc20impl_dollarvarstatusESt5dequeIS2_SaIS2_EEED2Ev
	.cfi_startproc
# %bb.0:                                # %entry
	ld.d	$a2, $a0, 0
	beqz	$a2, .LBB1_6
# %bb.1:                                # %if.then.i.i
	addi.d	$sp, $sp, -32
	.cfi_def_cfa_offset 32
	st.d	$ra, $sp, 24                    # 8-byte Folded Spill
	st.d	$fp, $sp, 16                    # 8-byte Folded Spill
	st.d	$s0, $sp, 8                     # 8-byte Folded Spill
	st.d	$s1, $sp, 0                     # 8-byte Folded Spill
	.cfi_offset 1, -8
	.cfi_offset 22, -16
	.cfi_offset 23, -24
	.cfi_offset 24, -32
	ld.d	$fp, $a0, 72
	ld.d	$a1, $a0, 40
	addi.d	$a3, $fp, 8
	bgeu	$a1, $a3, .LBB1_5
# %bb.2:                                # %for.body.i.i.i.preheader
	move	$s0, $a0
	addi.d	$a1, $a1, -8
	.p2align	4, , 16
.LBB1_3:                                # %for.body.i.i.i
                                        # =>This Inner Loop Header: Depth=1
	ld.d	$a0, $a1, 8
	addi.d	$s1, $a1, 8
	ori	$a1, $zero, 512
	pcaddu18i	$ra, %call36(_ZdlPvm)
	jirl	$ra, $ra, 0
	move	$a1, $s1
	bltu	$s1, $fp, .LBB1_3
# %bb.4:                                # %_ZNSt11_Deque_baseIPN2kc20impl_dollarvarstatusESaIS2_EE16_M_destroy_nodesEPPS2_S6_.exit.loopexit.i.i
	move	$a0, $s0
	ld.d	$a2, $s0, 0
.LBB1_5:                                # %_ZNSt11_Deque_baseIPN2kc20impl_dollarvarstatusESaIS2_EE16_M_destroy_nodesEPPS2_S6_.exit.i.i
	ld.d	$a0, $a0, 8
	slli.d	$a1, $a0, 3
	move	$a0, $a2
	ld.d	$s1, $sp, 0                     # 8-byte Folded Reload
	ld.d	$s0, $sp, 8                     # 8-byte Folded Reload
	ld.d	$fp, $sp, 16                    # 8-byte Folded Reload
	ld.d	$ra, $sp, 24                    # 8-byte Folded Reload
	addi.d	$sp, $sp, 32
	pcaddu18i	$t8, %call36(_ZdlPvm)
	jr	$t8
.LBB1_6:                                # %_ZNSt5dequeIPN2kc20impl_dollarvarstatusESaIS2_EED2Ev.exit
	ret
.Lfunc_end1:
	.size	_ZNSt5stackIPN2kc20impl_dollarvarstatusESt5dequeIS2_SaIS2_EEED2Ev, .Lfunc_end1-_ZNSt5stackIPN2kc20impl_dollarvarstatusESt5dequeIS2_SaIS2_EEED2Ev
	.cfi_endproc
                                        # -- End function
	.section	.text._ZNSt5stackIiSt5dequeIiSaIiEEED2Ev,"axG",@progbits,_ZNSt5stackIiSt5dequeIiSaIiEEED2Ev,comdat
	.weak	_ZNSt5stackIiSt5dequeIiSaIiEEED2Ev # -- Begin function _ZNSt5stackIiSt5dequeIiSaIiEEED2Ev
	.p2align	5
	.type	_ZNSt5stackIiSt5dequeIiSaIiEEED2Ev,@function
_ZNSt5stackIiSt5dequeIiSaIiEEED2Ev:     # @_ZNSt5stackIiSt5dequeIiSaIiEEED2Ev
	.cfi_startproc
# %bb.0:                                # %entry
	ld.d	$a2, $a0, 0
	beqz	$a2, .LBB2_6
# %bb.1:                                # %if.then.i.i
	addi.d	$sp, $sp, -32
	.cfi_def_cfa_offset 32
	st.d	$ra, $sp, 24                    # 8-byte Folded Spill
	st.d	$fp, $sp, 16                    # 8-byte Folded Spill
	st.d	$s0, $sp, 8                     # 8-byte Folded Spill
	st.d	$s1, $sp, 0                     # 8-byte Folded Spill
	.cfi_offset 1, -8
	.cfi_offset 22, -16
	.cfi_offset 23, -24
	.cfi_offset 24, -32
	ld.d	$fp, $a0, 72
	ld.d	$a1, $a0, 40
	addi.d	$a3, $fp, 8
	bgeu	$a1, $a3, .LBB2_5
# %bb.2:                                # %for.body.i.i.i.preheader
	move	$s0, $a0
	addi.d	$a1, $a1, -8
	.p2align	4, , 16
.LBB2_3:                                # %for.body.i.i.i
                                        # =>This Inner Loop Header: Depth=1
	ld.d	$a0, $a1, 8
	addi.d	$s1, $a1, 8
	ori	$a1, $zero, 512
	pcaddu18i	$ra, %call36(_ZdlPvm)
	jirl	$ra, $ra, 0
	move	$a1, $s1
	bltu	$s1, $fp, .LBB2_3
# %bb.4:                                # %_ZNSt11_Deque_baseIiSaIiEE16_M_destroy_nodesEPPiS3_.exit.loopexit.i.i
	move	$a0, $s0
	ld.d	$a2, $s0, 0
.LBB2_5:                                # %_ZNSt11_Deque_baseIiSaIiEE16_M_destroy_nodesEPPiS3_.exit.i.i
	ld.d	$a0, $a0, 8
	slli.d	$a1, $a0, 3
	move	$a0, $a2
	ld.d	$s1, $sp, 0                     # 8-byte Folded Reload
	ld.d	$s0, $sp, 8                     # 8-byte Folded Reload
	ld.d	$fp, $sp, 16                    # 8-byte Folded Reload
	ld.d	$ra, $sp, 24                    # 8-byte Folded Reload
	addi.d	$sp, $sp, 32
	pcaddu18i	$t8, %call36(_ZdlPvm)
	jr	$t8
.LBB2_6:                                # %_ZNSt5dequeIiSaIiEED2Ev.exit
	ret
.Lfunc_end2:
	.size	_ZNSt5stackIiSt5dequeIiSaIiEEED2Ev, .Lfunc_end2-_ZNSt5stackIiSt5dequeIiSaIiEEED2Ev
	.cfi_endproc
                                        # -- End function
	.section	.text._ZNSt5stackIPN2kc14impl_argumentsESt5dequeIS2_SaIS2_EEED2Ev,"axG",@progbits,_ZNSt5stackIPN2kc14impl_argumentsESt5dequeIS2_SaIS2_EEED2Ev,comdat
	.weak	_ZNSt5stackIPN2kc14impl_argumentsESt5dequeIS2_SaIS2_EEED2Ev # -- Begin function _ZNSt5stackIPN2kc14impl_argumentsESt5dequeIS2_SaIS2_EEED2Ev
	.p2align	5
	.type	_ZNSt5stackIPN2kc14impl_argumentsESt5dequeIS2_SaIS2_EEED2Ev,@function
_ZNSt5stackIPN2kc14impl_argumentsESt5dequeIS2_SaIS2_EEED2Ev: # @_ZNSt5stackIPN2kc14impl_argumentsESt5dequeIS2_SaIS2_EEED2Ev
	.cfi_startproc
# %bb.0:                                # %entry
	ld.d	$a2, $a0, 0
	beqz	$a2, .LBB3_6
# %bb.1:                                # %if.then.i.i
	addi.d	$sp, $sp, -32
	.cfi_def_cfa_offset 32
	st.d	$ra, $sp, 24                    # 8-byte Folded Spill
	st.d	$fp, $sp, 16                    # 8-byte Folded Spill
	st.d	$s0, $sp, 8                     # 8-byte Folded Spill
	st.d	$s1, $sp, 0                     # 8-byte Folded Spill
	.cfi_offset 1, -8
	.cfi_offset 22, -16
	.cfi_offset 23, -24
	.cfi_offset 24, -32
	ld.d	$fp, $a0, 72
	ld.d	$a1, $a0, 40
	addi.d	$a3, $fp, 8
	bgeu	$a1, $a3, .LBB3_5
# %bb.2:                                # %for.body.i.i.i.preheader
	move	$s0, $a0
	addi.d	$a1, $a1, -8
	.p2align	4, , 16
.LBB3_3:                                # %for.body.i.i.i
                                        # =>This Inner Loop Header: Depth=1
	ld.d	$a0, $a1, 8
	addi.d	$s1, $a1, 8
	ori	$a1, $zero, 512
	pcaddu18i	$ra, %call36(_ZdlPvm)
	jirl	$ra, $ra, 0
	move	$a1, $s1
	bltu	$s1, $fp, .LBB3_3
# %bb.4:                                # %_ZNSt11_Deque_baseIPN2kc14impl_argumentsESaIS2_EE16_M_destroy_nodesEPPS2_S6_.exit.loopexit.i.i
	move	$a0, $s0
	ld.d	$a2, $s0, 0
.LBB3_5:                                # %_ZNSt11_Deque_baseIPN2kc14impl_argumentsESaIS2_EE16_M_destroy_nodesEPPS2_S6_.exit.i.i
	ld.d	$a0, $a0, 8
	slli.d	$a1, $a0, 3
	move	$a0, $a2
	ld.d	$s1, $sp, 0                     # 8-byte Folded Reload
	ld.d	$s0, $sp, 8                     # 8-byte Folded Reload
	ld.d	$fp, $sp, 16                    # 8-byte Folded Reload
	ld.d	$ra, $sp, 24                    # 8-byte Folded Reload
	addi.d	$sp, $sp, 32
	pcaddu18i	$t8, %call36(_ZdlPvm)
	jr	$t8
.LBB3_6:                                # %_ZNSt5dequeIPN2kc14impl_argumentsESaIS2_EED2Ev.exit
	ret
.Lfunc_end3:
	.size	_ZNSt5stackIPN2kc14impl_argumentsESt5dequeIS2_SaIS2_EEED2Ev, .Lfunc_end3-_ZNSt5stackIPN2kc14impl_argumentsESt5dequeIS2_SaIS2_EEED2Ev
	.cfi_endproc
                                        # -- End function
	.section	.text._ZNSt5stackIPN2kc7impl_IDESt5dequeIS2_SaIS2_EEED2Ev,"axG",@progbits,_ZNSt5stackIPN2kc7impl_IDESt5dequeIS2_SaIS2_EEED2Ev,comdat
	.weak	_ZNSt5stackIPN2kc7impl_IDESt5dequeIS2_SaIS2_EEED2Ev # -- Begin function _ZNSt5stackIPN2kc7impl_IDESt5dequeIS2_SaIS2_EEED2Ev
	.p2align	5
	.type	_ZNSt5stackIPN2kc7impl_IDESt5dequeIS2_SaIS2_EEED2Ev,@function
_ZNSt5stackIPN2kc7impl_IDESt5dequeIS2_SaIS2_EEED2Ev: # @_ZNSt5stackIPN2kc7impl_IDESt5dequeIS2_SaIS2_EEED2Ev
	.cfi_startproc
# %bb.0:                                # %entry
	ld.d	$a2, $a0, 0
	beqz	$a2, .LBB4_6
# %bb.1:                                # %if.then.i.i
	addi.d	$sp, $sp, -32
	.cfi_def_cfa_offset 32
	st.d	$ra, $sp, 24                    # 8-byte Folded Spill
	st.d	$fp, $sp, 16                    # 8-byte Folded Spill
	st.d	$s0, $sp, 8                     # 8-byte Folded Spill
	st.d	$s1, $sp, 0                     # 8-byte Folded Spill
	.cfi_offset 1, -8
	.cfi_offset 22, -16
	.cfi_offset 23, -24
	.cfi_offset 24, -32
	ld.d	$fp, $a0, 72
	ld.d	$a1, $a0, 40
	addi.d	$a3, $fp, 8
	bgeu	$a1, $a3, .LBB4_5
# %bb.2:                                # %for.body.i.i.i.preheader
	move	$s0, $a0
	addi.d	$a1, $a1, -8
	.p2align	4, , 16
.LBB4_3:                                # %for.body.i.i.i
                                        # =>This Inner Loop Header: Depth=1
	ld.d	$a0, $a1, 8
	addi.d	$s1, $a1, 8
	ori	$a1, $zero, 512
	pcaddu18i	$ra, %call36(_ZdlPvm)
	jirl	$ra, $ra, 0
	move	$a1, $s1
	bltu	$s1, $fp, .LBB4_3
# %bb.4:                                # %_ZNSt11_Deque_baseIPN2kc7impl_IDESaIS2_EE16_M_destroy_nodesEPPS2_S6_.exit.loopexit.i.i
	move	$a0, $s0
	ld.d	$a2, $s0, 0
.LBB4_5:                                # %_ZNSt11_Deque_baseIPN2kc7impl_IDESaIS2_EE16_M_destroy_nodesEPPS2_S6_.exit.i.i
	ld.d	$a0, $a0, 8
	slli.d	$a1, $a0, 3
	move	$a0, $a2
	ld.d	$s1, $sp, 0                     # 8-byte Folded Reload
	ld.d	$s0, $sp, 8                     # 8-byte Folded Reload
	ld.d	$fp, $sp, 16                    # 8-byte Folded Reload
	ld.d	$ra, $sp, 24                    # 8-byte Folded Reload
	addi.d	$sp, $sp, 32
	pcaddu18i	$t8, %call36(_ZdlPvm)
	jr	$t8
.LBB4_6:                                # %_ZNSt5dequeIPN2kc7impl_IDESaIS2_EED2Ev.exit
	ret
.Lfunc_end4:
	.size	_ZNSt5stackIPN2kc7impl_IDESt5dequeIS2_SaIS2_EEED2Ev, .Lfunc_end4-_ZNSt5stackIPN2kc7impl_IDESt5dequeIS2_SaIS2_EEED2Ev
	.cfi_endproc
                                        # -- End function
	.section	.text._ZNSt5stackIPN2kc16impl_phylumnamesESt5dequeIS2_SaIS2_EEED2Ev,"axG",@progbits,_ZNSt5stackIPN2kc16impl_phylumnamesESt5dequeIS2_SaIS2_EEED2Ev,comdat
	.weak	_ZNSt5stackIPN2kc16impl_phylumnamesESt5dequeIS2_SaIS2_EEED2Ev # -- Begin function _ZNSt5stackIPN2kc16impl_phylumnamesESt5dequeIS2_SaIS2_EEED2Ev
	.p2align	5
	.type	_ZNSt5stackIPN2kc16impl_phylumnamesESt5dequeIS2_SaIS2_EEED2Ev,@function
_ZNSt5stackIPN2kc16impl_phylumnamesESt5dequeIS2_SaIS2_EEED2Ev: # @_ZNSt5stackIPN2kc16impl_phylumnamesESt5dequeIS2_SaIS2_EEED2Ev
	.cfi_startproc
# %bb.0:                                # %entry
	ld.d	$a2, $a0, 0
	beqz	$a2, .LBB5_6
# %bb.1:                                # %if.then.i.i
	addi.d	$sp, $sp, -32
	.cfi_def_cfa_offset 32
	st.d	$ra, $sp, 24                    # 8-byte Folded Spill
	st.d	$fp, $sp, 16                    # 8-byte Folded Spill
	st.d	$s0, $sp, 8                     # 8-byte Folded Spill
	st.d	$s1, $sp, 0                     # 8-byte Folded Spill
	.cfi_offset 1, -8
	.cfi_offset 22, -16
	.cfi_offset 23, -24
	.cfi_offset 24, -32
	ld.d	$fp, $a0, 72
	ld.d	$a1, $a0, 40
	addi.d	$a3, $fp, 8
	bgeu	$a1, $a3, .LBB5_5
# %bb.2:                                # %for.body.i.i.i.preheader
	move	$s0, $a0
	addi.d	$a1, $a1, -8
	.p2align	4, , 16
.LBB5_3:                                # %for.body.i.i.i
                                        # =>This Inner Loop Header: Depth=1
	ld.d	$a0, $a1, 8
	addi.d	$s1, $a1, 8
	ori	$a1, $zero, 512
	pcaddu18i	$ra, %call36(_ZdlPvm)
	jirl	$ra, $ra, 0
	move	$a1, $s1
	bltu	$s1, $fp, .LBB5_3
# %bb.4:                                # %_ZNSt11_Deque_baseIPN2kc16impl_phylumnamesESaIS2_EE16_M_destroy_nodesEPPS2_S6_.exit.loopexit.i.i
	move	$a0, $s0
	ld.d	$a2, $s0, 0
.LBB5_5:                                # %_ZNSt11_Deque_baseIPN2kc16impl_phylumnamesESaIS2_EE16_M_destroy_nodesEPPS2_S6_.exit.i.i
	ld.d	$a0, $a0, 8
	slli.d	$a1, $a0, 3
	move	$a0, $a2
	ld.d	$s1, $sp, 0                     # 8-byte Folded Reload
	ld.d	$s0, $sp, 8                     # 8-byte Folded Reload
	ld.d	$fp, $sp, 16                    # 8-byte Folded Reload
	ld.d	$ra, $sp, 24                    # 8-byte Folded Reload
	addi.d	$sp, $sp, 32
	pcaddu18i	$t8, %call36(_ZdlPvm)
	jr	$t8
.LBB5_6:                                # %_ZNSt5dequeIPN2kc16impl_phylumnamesESaIS2_EED2Ev.exit
	ret
.Lfunc_end5:
	.size	_ZNSt5stackIPN2kc16impl_phylumnamesESt5dequeIS2_SaIS2_EEED2Ev, .Lfunc_end5-_ZNSt5stackIPN2kc16impl_phylumnamesESt5dequeIS2_SaIS2_EEED2Ev
	.cfi_endproc
                                        # -- End function
	.section	.text._ZNSt5stackIPN2kc20impl_withexpressionsESt5dequeIS2_SaIS2_EEED2Ev,"axG",@progbits,_ZNSt5stackIPN2kc20impl_withexpressionsESt5dequeIS2_SaIS2_EEED2Ev,comdat
	.weak	_ZNSt5stackIPN2kc20impl_withexpressionsESt5dequeIS2_SaIS2_EEED2Ev # -- Begin function _ZNSt5stackIPN2kc20impl_withexpressionsESt5dequeIS2_SaIS2_EEED2Ev
	.p2align	5
	.type	_ZNSt5stackIPN2kc20impl_withexpressionsESt5dequeIS2_SaIS2_EEED2Ev,@function
_ZNSt5stackIPN2kc20impl_withexpressionsESt5dequeIS2_SaIS2_EEED2Ev: # @_ZNSt5stackIPN2kc20impl_withexpressionsESt5dequeIS2_SaIS2_EEED2Ev
	.cfi_startproc
# %bb.0:                                # %entry
	ld.d	$a2, $a0, 0
	beqz	$a2, .LBB6_6
# %bb.1:                                # %if.then.i.i
	addi.d	$sp, $sp, -32
	.cfi_def_cfa_offset 32
	st.d	$ra, $sp, 24                    # 8-byte Folded Spill
	st.d	$fp, $sp, 16                    # 8-byte Folded Spill
	st.d	$s0, $sp, 8                     # 8-byte Folded Spill
	st.d	$s1, $sp, 0                     # 8-byte Folded Spill
	.cfi_offset 1, -8
	.cfi_offset 22, -16
	.cfi_offset 23, -24
	.cfi_offset 24, -32
	ld.d	$fp, $a0, 72
	ld.d	$a1, $a0, 40
	addi.d	$a3, $fp, 8
	bgeu	$a1, $a3, .LBB6_5
# %bb.2:                                # %for.body.i.i.i.preheader
	move	$s0, $a0
	addi.d	$a1, $a1, -8
	.p2align	4, , 16
.LBB6_3:                                # %for.body.i.i.i
                                        # =>This Inner Loop Header: Depth=1
	ld.d	$a0, $a1, 8
	addi.d	$s1, $a1, 8
	ori	$a1, $zero, 512
	pcaddu18i	$ra, %call36(_ZdlPvm)
	jirl	$ra, $ra, 0
	move	$a1, $s1
	bltu	$s1, $fp, .LBB6_3
# %bb.4:                                # %_ZNSt11_Deque_baseIPN2kc20impl_withexpressionsESaIS2_EE16_M_destroy_nodesEPPS2_S6_.exit.loopexit.i.i
	move	$a0, $s0
	ld.d	$a2, $s0, 0
.LBB6_5:                                # %_ZNSt11_Deque_baseIPN2kc20impl_withexpressionsESaIS2_EE16_M_destroy_nodesEPPS2_S6_.exit.i.i
	ld.d	$a0, $a0, 8
	slli.d	$a1, $a0, 3
	move	$a0, $a2
	ld.d	$s1, $sp, 0                     # 8-byte Folded Reload
	ld.d	$s0, $sp, 8                     # 8-byte Folded Reload
	ld.d	$fp, $sp, 16                    # 8-byte Folded Reload
	ld.d	$ra, $sp, 24                    # 8-byte Folded Reload
	addi.d	$sp, $sp, 32
	pcaddu18i	$t8, %call36(_ZdlPvm)
	jr	$t8
.LBB6_6:                                # %_ZNSt5dequeIPN2kc20impl_withexpressionsESaIS2_EED2Ev.exit
	ret
.Lfunc_end6:
	.size	_ZNSt5stackIPN2kc20impl_withexpressionsESt5dequeIS2_SaIS2_EEED2Ev, .Lfunc_end6-_ZNSt5stackIPN2kc20impl_withexpressionsESt5dequeIS2_SaIS2_EEED2Ev
	.cfi_endproc
                                        # -- End function
	.section	.text._ZNSt5stackIPN2kc14impl_variablesESt5dequeIS2_SaIS2_EEED2Ev,"axG",@progbits,_ZNSt5stackIPN2kc14impl_variablesESt5dequeIS2_SaIS2_EEED2Ev,comdat
	.weak	_ZNSt5stackIPN2kc14impl_variablesESt5dequeIS2_SaIS2_EEED2Ev # -- Begin function _ZNSt5stackIPN2kc14impl_variablesESt5dequeIS2_SaIS2_EEED2Ev
	.p2align	5
	.type	_ZNSt5stackIPN2kc14impl_variablesESt5dequeIS2_SaIS2_EEED2Ev,@function
_ZNSt5stackIPN2kc14impl_variablesESt5dequeIS2_SaIS2_EEED2Ev: # @_ZNSt5stackIPN2kc14impl_variablesESt5dequeIS2_SaIS2_EEED2Ev
	.cfi_startproc
# %bb.0:                                # %entry
	ld.d	$a2, $a0, 0
	beqz	$a2, .LBB7_6
# %bb.1:                                # %if.then.i.i
	addi.d	$sp, $sp, -32
	.cfi_def_cfa_offset 32
	st.d	$ra, $sp, 24                    # 8-byte Folded Spill
	st.d	$fp, $sp, 16                    # 8-byte Folded Spill
	st.d	$s0, $sp, 8                     # 8-byte Folded Spill
	st.d	$s1, $sp, 0                     # 8-byte Folded Spill
	.cfi_offset 1, -8
	.cfi_offset 22, -16
	.cfi_offset 23, -24
	.cfi_offset 24, -32
	ld.d	$fp, $a0, 72
	ld.d	$a1, $a0, 40
	addi.d	$a3, $fp, 8
	bgeu	$a1, $a3, .LBB7_5
# %bb.2:                                # %for.body.i.i.i.preheader
	move	$s0, $a0
	addi.d	$a1, $a1, -8
	.p2align	4, , 16
.LBB7_3:                                # %for.body.i.i.i
                                        # =>This Inner Loop Header: Depth=1
	ld.d	$a0, $a1, 8
	addi.d	$s1, $a1, 8
	ori	$a1, $zero, 512
	pcaddu18i	$ra, %call36(_ZdlPvm)
	jirl	$ra, $ra, 0
	move	$a1, $s1
	bltu	$s1, $fp, .LBB7_3
# %bb.4:                                # %_ZNSt11_Deque_baseIPN2kc14impl_variablesESaIS2_EE16_M_destroy_nodesEPPS2_S6_.exit.loopexit.i.i
	move	$a0, $s0
	ld.d	$a2, $s0, 0
.LBB7_5:                                # %_ZNSt11_Deque_baseIPN2kc14impl_variablesESaIS2_EE16_M_destroy_nodesEPPS2_S6_.exit.i.i
	ld.d	$a0, $a0, 8
	slli.d	$a1, $a0, 3
	move	$a0, $a2
	ld.d	$s1, $sp, 0                     # 8-byte Folded Reload
	ld.d	$s0, $sp, 8                     # 8-byte Folded Reload
	ld.d	$fp, $sp, 16                    # 8-byte Folded Reload
	ld.d	$ra, $sp, 24                    # 8-byte Folded Reload
	addi.d	$sp, $sp, 32
	pcaddu18i	$t8, %call36(_ZdlPvm)
	jr	$t8
.LBB7_6:                                # %_ZNSt5dequeIPN2kc14impl_variablesESaIS2_EED2Ev.exit
	ret
.Lfunc_end7:
	.size	_ZNSt5stackIPN2kc14impl_variablesESt5dequeIS2_SaIS2_EEED2Ev, .Lfunc_end7-_ZNSt5stackIPN2kc14impl_variablesESt5dequeIS2_SaIS2_EEED2Ev
	.cfi_endproc
                                        # -- End function
	.text
	.globl	_Z16covariant_choicePN2kc7impl_IDEPKcS3_S3_S3_RNS_21printer_functor_classERNS_11uview_classE # -- Begin function _Z16covariant_choicePN2kc7impl_IDEPKcS3_S3_S3_RNS_21printer_functor_classERNS_11uview_classE
	.p2align	5
	.type	_Z16covariant_choicePN2kc7impl_IDEPKcS3_S3_S3_RNS_21printer_functor_classERNS_11uview_classE,@function
_Z16covariant_choicePN2kc7impl_IDEPKcS3_S3_S3_RNS_21printer_functor_classERNS_11uview_classE: # @_Z16covariant_choicePN2kc7impl_IDEPKcS3_S3_S3_RNS_21printer_functor_classERNS_11uview_classE
	.cfi_startproc
# %bb.0:                                # %entry
	addi.d	$sp, $sp, -80
	.cfi_def_cfa_offset 80
	st.d	$ra, $sp, 72                    # 8-byte Folded Spill
	st.d	$fp, $sp, 64                    # 8-byte Folded Spill
	st.d	$s0, $sp, 56                    # 8-byte Folded Spill
	st.d	$s1, $sp, 48                    # 8-byte Folded Spill
	st.d	$s2, $sp, 40                    # 8-byte Folded Spill
	st.d	$s3, $sp, 32                    # 8-byte Folded Spill
	st.d	$s4, $sp, 24                    # 8-byte Folded Spill
	st.d	$s5, $sp, 16                    # 8-byte Folded Spill
	st.d	$s6, $sp, 8                     # 8-byte Folded Spill
	.cfi_offset 1, -8
	.cfi_offset 22, -16
	.cfi_offset 23, -24
	.cfi_offset 24, -32
	.cfi_offset 25, -40
	.cfi_offset 26, -48
	.cfi_offset 27, -56
	.cfi_offset 28, -64
	.cfi_offset 29, -72
	move	$fp, $a5
	ld.d	$a5, $a5, 0
	ld.d	$a5, $a5, 0
	move	$s0, $a6
	move	$s1, $a4
	move	$s3, $a3
	move	$s4, $a2
	move	$s5, $a1
	move	$s2, $a0
	pcalau12i	$a0, %pc_hi20(.L.str.321)
	addi.d	$a1, $a0, %pc_lo12(.L.str.321)
	move	$a0, $fp
	move	$a2, $a6
	jirl	$ra, $a5, 0
	pcalau12i	$a0, %got_pc_hi20(g_options)
	ld.d	$s6, $a0, %got_pc_lo12(g_options)
	ld.bu	$a0, $s6, 74
	ori	$a1, $zero, 112
	bne	$a0, $a1, .LBB8_2
# %bb.1:                                # %if.then
	ld.d	$a0, $fp, 0
	ld.d	$a3, $a0, 0
	pcalau12i	$a0, %pc_hi20(.L.str.322)
	addi.d	$a1, $a0, %pc_lo12(.L.str.322)
	move	$a0, $fp
	move	$a2, $s0
	jirl	$ra, $a3, 0
	ld.bu	$a0, $s6, 74
.LBB8_2:                                # %if.end
	ori	$a1, $zero, 110
	beq	$a0, $a1, .LBB8_5
# %bb.3:                                # %if.then5
	ld.d	$a0, $s2, 0
	ld.d	$a3, $a0, 72
	move	$a0, $s2
	move	$a1, $fp
	move	$a2, $s0
	jirl	$ra, $a3, 0
	ld.d	$a0, $fp, 0
	ld.d	$a3, $a0, 0
	move	$a0, $fp
	move	$a1, $s5
	move	$a2, $s0
	jirl	$ra, $a3, 0
	beqz	$s4, .LBB8_5
# %bb.4:                                # %if.then9
	ld.d	$a0, $s2, 0
	ld.d	$a3, $a0, 72
	move	$a0, $s2
	move	$a1, $fp
	move	$a2, $s0
	jirl	$ra, $a3, 0
	ld.d	$a0, $fp, 0
	ld.d	$a3, $a0, 0
	move	$a0, $fp
	move	$a1, $s4
	move	$a2, $s0
	jirl	$ra, $a3, 0
.LBB8_5:                                # %if.end13
	ld.bu	$a0, $s6, 74
	ori	$a1, $zero, 112
	bne	$a0, $a1, .LBB8_7
# %bb.6:                                # %if.then16
	ld.d	$a0, $fp, 0
	ld.d	$a3, $a0, 0
	pcalau12i	$a0, %pc_hi20(.L.str.323)
	addi.d	$a1, $a0, %pc_lo12(.L.str.323)
	move	$a0, $fp
	move	$a2, $s0
	jirl	$ra, $a3, 0
	ld.bu	$a0, $s6, 74
.LBB8_7:                                # %if.end19
	ori	$a1, $zero, 121
	beq	$a0, $a1, .LBB8_10
# %bb.8:                                # %if.then22
	ld.d	$a0, $fp, 0
	ld.d	$a3, $a0, 0
	move	$a0, $fp
	move	$a1, $s3
	move	$a2, $s0
	jirl	$ra, $a3, 0
	beqz	$s1, .LBB8_10
# %bb.9:                                # %if.then26
	ld.d	$a0, $s2, 0
	ld.d	$a3, $a0, 72
	move	$a0, $s2
	move	$a1, $fp
	move	$a2, $s0
	jirl	$ra, $a3, 0
	ld.d	$a0, $fp, 0
	ld.d	$a3, $a0, 0
	move	$a0, $fp
	move	$a1, $s1
	move	$a2, $s0
	jirl	$ra, $a3, 0
.LBB8_10:                               # %if.end30
	ld.bu	$a0, $s6, 74
	ori	$a1, $zero, 112
	bne	$a0, $a1, .LBB8_12
# %bb.11:                               # %if.then33
	ld.d	$a0, $fp, 0
	ld.d	$a3, $a0, 0
	pcalau12i	$a0, %pc_hi20(.L.str.324)
	addi.d	$a1, $a0, %pc_lo12(.L.str.324)
	move	$a0, $fp
	move	$a2, $s0
	ld.d	$s6, $sp, 8                     # 8-byte Folded Reload
	ld.d	$s5, $sp, 16                    # 8-byte Folded Reload
	ld.d	$s4, $sp, 24                    # 8-byte Folded Reload
	ld.d	$s3, $sp, 32                    # 8-byte Folded Reload
	ld.d	$s2, $sp, 40                    # 8-byte Folded Reload
	ld.d	$s1, $sp, 48                    # 8-byte Folded Reload
	ld.d	$s0, $sp, 56                    # 8-byte Folded Reload
	ld.d	$fp, $sp, 64                    # 8-byte Folded Reload
	ld.d	$ra, $sp, 72                    # 8-byte Folded Reload
	addi.d	$sp, $sp, 80
	jr	$a3
.LBB8_12:                               # %if.end36
	ld.d	$s6, $sp, 8                     # 8-byte Folded Reload
	ld.d	$s5, $sp, 16                    # 8-byte Folded Reload
	ld.d	$s4, $sp, 24                    # 8-byte Folded Reload
	ld.d	$s3, $sp, 32                    # 8-byte Folded Reload
	ld.d	$s2, $sp, 40                    # 8-byte Folded Reload
	ld.d	$s1, $sp, 48                    # 8-byte Folded Reload
	ld.d	$s0, $sp, 56                    # 8-byte Folded Reload
	ld.d	$fp, $sp, 64                    # 8-byte Folded Reload
	ld.d	$ra, $sp, 72                    # 8-byte Folded Reload
	addi.d	$sp, $sp, 80
	ret
.Lfunc_end8:
	.size	_Z16covariant_choicePN2kc7impl_IDEPKcS3_S3_S3_RNS_21printer_functor_classERNS_11uview_classE, .Lfunc_end8-_Z16covariant_choicePN2kc7impl_IDEPKcS3_S3_S3_RNS_21printer_functor_classERNS_11uview_classE
	.cfi_endproc
                                        # -- End function
	.section	.text._ZNSt3mapINSt7__cxx1112basic_stringIcSt11char_traitsIcESaIcEEEPN2kc9impl_pathESt4lessIS5_ESaISt4pairIKS5_S8_EEED2Ev,"axG",@progbits,_ZNSt3mapINSt7__cxx1112basic_stringIcSt11char_traitsIcESaIcEEEPN2kc9impl_pathESt4lessIS5_ESaISt4pairIKS5_S8_EEED2Ev,comdat
	.weak	_ZNSt3mapINSt7__cxx1112basic_stringIcSt11char_traitsIcESaIcEEEPN2kc9impl_pathESt4lessIS5_ESaISt4pairIKS5_S8_EEED2Ev # -- Begin function _ZNSt3mapINSt7__cxx1112basic_stringIcSt11char_traitsIcESaIcEEEPN2kc9impl_pathESt4lessIS5_ESaISt4pairIKS5_S8_EEED2Ev
	.p2align	5
	.type	_ZNSt3mapINSt7__cxx1112basic_stringIcSt11char_traitsIcESaIcEEEPN2kc9impl_pathESt4lessIS5_ESaISt4pairIKS5_S8_EEED2Ev,@function
_ZNSt3mapINSt7__cxx1112basic_stringIcSt11char_traitsIcESaIcEEEPN2kc9impl_pathESt4lessIS5_ESaISt4pairIKS5_S8_EEED2Ev: # @_ZNSt3mapINSt7__cxx1112basic_stringIcSt11char_traitsIcESaIcEEEPN2kc9impl_pathESt4lessIS5_ESaISt4pairIKS5_S8_EEED2Ev
.Lfunc_begin0:
	.cfi_startproc
	.cfi_personality 155, DW.ref.__gxx_personality_v0
	.cfi_lsda 27, .Lexception0
# %bb.0:                                # %entry
	addi.d	$sp, $sp, -16
	.cfi_def_cfa_offset 16
	st.d	$ra, $sp, 8                     # 8-byte Folded Spill
	.cfi_offset 1, -8
	ld.d	$a1, $a0, 16
.Ltmp0:                                 # EH_LABEL
	pcaddu18i	$ra, %call36(_ZNSt8_Rb_treeINSt7__cxx1112basic_stringIcSt11char_traitsIcESaIcEEESt4pairIKS5_PN2kc9impl_pathEESt10_Select1stISB_ESt4lessIS5_ESaISB_EE8_M_eraseEPSt13_Rb_tree_nodeISB_E)
	jirl	$ra, $ra, 0
.Ltmp1:                                 # EH_LABEL
# %bb.1:                                # %_ZNSt8_Rb_treeINSt7__cxx1112basic_stringIcSt11char_traitsIcESaIcEEESt4pairIKS5_PN2kc9impl_pathEESt10_Select1stISB_ESt4lessIS5_ESaISB_EED2Ev.exit
	ld.d	$ra, $sp, 8                     # 8-byte Folded Reload
	addi.d	$sp, $sp, 16
	ret
.LBB9_2:                                # %terminate.lpad.i
.Ltmp2:                                 # EH_LABEL
	pcaddu18i	$ra, %call36(__clang_call_terminate)
	jirl	$ra, $ra, 0
.Lfunc_end9:
	.size	_ZNSt3mapINSt7__cxx1112basic_stringIcSt11char_traitsIcESaIcEEEPN2kc9impl_pathESt4lessIS5_ESaISt4pairIKS5_S8_EEED2Ev, .Lfunc_end9-_ZNSt3mapINSt7__cxx1112basic_stringIcSt11char_traitsIcESaIcEEEPN2kc9impl_pathESt4lessIS5_ESaISt4pairIKS5_S8_EEED2Ev
	.cfi_endproc
	.section	.gcc_except_table._ZNSt3mapINSt7__cxx1112basic_stringIcSt11char_traitsIcESaIcEEEPN2kc9impl_pathESt4lessIS5_ESaISt4pairIKS5_S8_EEED2Ev,"aG",@progbits,_ZNSt3mapINSt7__cxx1112basic_stringIcSt11char_traitsIcESaIcEEEPN2kc9impl_pathESt4lessIS5_ESaISt4pairIKS5_S8_EEED2Ev,comdat
	.p2align	2, 0x0
GCC_except_table9:
.Lexception0:
	.byte	255                             # @LPStart Encoding = omit
	.byte	155                             # @TType Encoding = indirect pcrel sdata4
	.uleb128 .Lttbase0-.Lttbaseref0
.Lttbaseref0:
	.byte	1                               # Call site Encoding = uleb128
	.uleb128 .Lcst_end0-.Lcst_begin0
.Lcst_begin0:
	.uleb128 .Ltmp0-.Lfunc_begin0           # >> Call Site 1 <<
	.uleb128 .Ltmp1-.Ltmp0                  #   Call between .Ltmp0 and .Ltmp1
	.uleb128 .Ltmp2-.Lfunc_begin0           #     jumps to .Ltmp2
	.byte	1                               #   On action: 1
	.uleb128 .Ltmp1-.Lfunc_begin0           # >> Call Site 2 <<
	.uleb128 .Lfunc_end9-.Ltmp1             #   Call between .Ltmp1 and .Lfunc_end9
	.byte	0                               #     has no landing pad
	.byte	0                               #   On action: cleanup
.Lcst_end0:
	.byte	1                               # >> Action Record 1 <<
                                        #   Catch TypeInfo 1
	.byte	0                               #   No further actions
	.p2align	2, 0x0
                                        # >> Catch TypeInfos <<
	.word	0                               # TypeInfo 1
.Lttbase0:
	.p2align	2, 0x0
                                        # -- End function
	.text
	.globl	_ZN2kc20impl_abstract_phylum7unparseEPFvPKcRNS_11uview_classEES4_ # -- Begin function _ZN2kc20impl_abstract_phylum7unparseEPFvPKcRNS_11uview_classEES4_
	.p2align	5
	.type	_ZN2kc20impl_abstract_phylum7unparseEPFvPKcRNS_11uview_classEES4_,@function
_ZN2kc20impl_abstract_phylum7unparseEPFvPKcRNS_11uview_classEES4_: # @_ZN2kc20impl_abstract_phylum7unparseEPFvPKcRNS_11uview_classEES4_
	.cfi_startproc
# %bb.0:                                # %entry
	addi.d	$sp, $sp, -32
	.cfi_def_cfa_offset 32
	st.d	$ra, $sp, 24                    # 8-byte Folded Spill
	.cfi_offset 1, -8
	pcalau12i	$a3, %pc_hi20(_ZTVN2kc32printer_functor_function_wrapperE+16)
	addi.d	$a3, $a3, %pc_lo12(_ZTVN2kc32printer_functor_function_wrapperE+16)
	ld.d	$a4, $a0, 0
	ld.d	$a4, $a4, 72
	st.d	$a3, $sp, 8
	st.d	$a1, $sp, 16
	addi.d	$a1, $sp, 8
	jirl	$ra, $a4, 0
	ld.d	$ra, $sp, 24                    # 8-byte Folded Reload
	addi.d	$sp, $sp, 32
	ret
.Lfunc_end10:
	.size	_ZN2kc20impl_abstract_phylum7unparseEPFvPKcRNS_11uview_classEES4_, .Lfunc_end10-_ZN2kc20impl_abstract_phylum7unparseEPFvPKcRNS_11uview_classEES4_
	.cfi_endproc
                                        # -- End function
	.globl	_ZN2kc7unparseEPNS_20impl_abstract_phylumERNS_21printer_functor_classERNS_11uview_classE # -- Begin function _ZN2kc7unparseEPNS_20impl_abstract_phylumERNS_21printer_functor_classERNS_11uview_classE
	.p2align	5
	.type	_ZN2kc7unparseEPNS_20impl_abstract_phylumERNS_21printer_functor_classERNS_11uview_classE,@function
_ZN2kc7unparseEPNS_20impl_abstract_phylumERNS_21printer_functor_classERNS_11uview_classE: # @_ZN2kc7unparseEPNS_20impl_abstract_phylumERNS_21printer_functor_classERNS_11uview_classE
	.cfi_startproc
# %bb.0:                                # %entry
	ld.d	$a3, $a0, 0
	ld.d	$a3, $a3, 72
	jr	$a3
.Lfunc_end11:
	.size	_ZN2kc7unparseEPNS_20impl_abstract_phylumERNS_21printer_functor_classERNS_11uview_classE, .Lfunc_end11-_ZN2kc7unparseEPNS_20impl_abstract_phylumERNS_21printer_functor_classERNS_11uview_classE
	.cfi_endproc
                                        # -- End function
	.globl	_ZN2kc7unparseEPvRNS_21printer_functor_classERNS_11uview_classE # -- Begin function _ZN2kc7unparseEPvRNS_21printer_functor_classERNS_11uview_classE
	.p2align	5
	.type	_ZN2kc7unparseEPvRNS_21printer_functor_classERNS_11uview_classE,@function
_ZN2kc7unparseEPvRNS_21printer_functor_classERNS_11uview_classE: # @_ZN2kc7unparseEPvRNS_21printer_functor_classERNS_11uview_classE
	.cfi_startproc
# %bb.0:                                # %entry
	addi.d	$sp, $sp, -16
	.cfi_def_cfa_offset 16
	st.d	$ra, $sp, 8                     # 8-byte Folded Spill
	.cfi_offset 1, -8
	pcalau12i	$a0, %pc_hi20(.L.str.329)
	addi.d	$a0, $a0, %pc_lo12(.L.str.329)
	pcalau12i	$a1, %pc_hi20(.L.str.330)
	addi.d	$a2, $a1, %pc_lo12(.L.str.330)
	ori	$a1, $zero, 556
	pcaddu18i	$ra, %call36(_ZN2kc24kc_assertionReasonFailedEPKciS1_)
	jirl	$ra, $ra, 0
.Lfunc_end12:
	.size	_ZN2kc7unparseEPvRNS_21printer_functor_classERNS_11uview_classE, .Lfunc_end12-_ZN2kc7unparseEPvRNS_21printer_functor_classERNS_11uview_classE
	.cfi_endproc
                                        # -- End function
	.globl	_ZN2kc7unparseEiRNS_21printer_functor_classERNS_11uview_classE # -- Begin function _ZN2kc7unparseEiRNS_21printer_functor_classERNS_11uview_classE
	.p2align	5
	.type	_ZN2kc7unparseEiRNS_21printer_functor_classERNS_11uview_classE,@function
_ZN2kc7unparseEiRNS_21printer_functor_classERNS_11uview_classE: # @_ZN2kc7unparseEiRNS_21printer_functor_classERNS_11uview_classE
	.cfi_startproc
# %bb.0:                                # %entry
	addi.d	$sp, $sp, -240
	.cfi_def_cfa_offset 240
	st.d	$ra, $sp, 232                   # 8-byte Folded Spill
	st.d	$fp, $sp, 224                   # 8-byte Folded Spill
	st.d	$s0, $sp, 216                   # 8-byte Folded Spill
	.cfi_offset 1, -8
	.cfi_offset 22, -16
	.cfi_offset 23, -24
	move	$fp, $a2
	move	$s0, $a1
	move	$a2, $a0
	pcalau12i	$a0, %pc_hi20(.L.str.331)
	addi.d	$a1, $a0, %pc_lo12(.L.str.331)
	addi.d	$a0, $sp, 16
	pcaddu18i	$ra, %call36(sprintf)
	jirl	$ra, $ra, 0
	ld.d	$a0, $s0, 0
	ld.d	$a3, $a0, 0
	addi.d	$a1, $sp, 16
	move	$a0, $s0
	move	$a2, $fp
	jirl	$ra, $a3, 0
	ld.d	$s0, $sp, 216                   # 8-byte Folded Reload
	ld.d	$fp, $sp, 224                   # 8-byte Folded Reload
	ld.d	$ra, $sp, 232                   # 8-byte Folded Reload
	addi.d	$sp, $sp, 240
	ret
.Lfunc_end13:
	.size	_ZN2kc7unparseEiRNS_21printer_functor_classERNS_11uview_classE, .Lfunc_end13-_ZN2kc7unparseEiRNS_21printer_functor_classERNS_11uview_classE
	.cfi_endproc
                                        # -- End function
	.globl	_ZN2kc7unparseEdRNS_21printer_functor_classERNS_11uview_classE # -- Begin function _ZN2kc7unparseEdRNS_21printer_functor_classERNS_11uview_classE
	.p2align	5
	.type	_ZN2kc7unparseEdRNS_21printer_functor_classERNS_11uview_classE,@function
_ZN2kc7unparseEdRNS_21printer_functor_classERNS_11uview_classE: # @_ZN2kc7unparseEdRNS_21printer_functor_classERNS_11uview_classE
	.cfi_startproc
# %bb.0:                                # %entry
	addi.d	$sp, $sp, -240
	.cfi_def_cfa_offset 240
	st.d	$ra, $sp, 232                   # 8-byte Folded Spill
	st.d	$fp, $sp, 224                   # 8-byte Folded Spill
	st.d	$s0, $sp, 216                   # 8-byte Folded Spill
	.cfi_offset 1, -8
	.cfi_offset 22, -16
	.cfi_offset 23, -24
	move	$fp, $a1
	move	$s0, $a0
	movfr2gr.d	$a2, $fa0
	pcalau12i	$a0, %pc_hi20(.L.str.332)
	addi.d	$a1, $a0, %pc_lo12(.L.str.332)
	addi.d	$a0, $sp, 16
	pcaddu18i	$ra, %call36(sprintf)
	jirl	$ra, $ra, 0
	ld.d	$a0, $s0, 0
	ld.d	$a3, $a0, 0
	addi.d	$a1, $sp, 16
	move	$a0, $s0
	move	$a2, $fp
	jirl	$ra, $a3, 0
	ld.d	$s0, $sp, 216                   # 8-byte Folded Reload
	ld.d	$fp, $sp, 224                   # 8-byte Folded Reload
	ld.d	$ra, $sp, 232                   # 8-byte Folded Reload
	addi.d	$sp, $sp, 240
	ret
.Lfunc_end14:
	.size	_ZN2kc7unparseEdRNS_21printer_functor_classERNS_11uview_classE, .Lfunc_end14-_ZN2kc7unparseEdRNS_21printer_functor_classERNS_11uview_classE
	.cfi_endproc
                                        # -- End function
	.globl	_ZN2kc7unparseEPcRNS_21printer_functor_classERNS_11uview_classE # -- Begin function _ZN2kc7unparseEPcRNS_21printer_functor_classERNS_11uview_classE
	.p2align	5
	.type	_ZN2kc7unparseEPcRNS_21printer_functor_classERNS_11uview_classE,@function
_ZN2kc7unparseEPcRNS_21printer_functor_classERNS_11uview_classE: # @_ZN2kc7unparseEPcRNS_21printer_functor_classERNS_11uview_classE
	.cfi_startproc
# %bb.0:                                # %entry
	ld.d	$a3, $a1, 0
	ld.d	$a4, $a3, 0
	move	$a3, $a0
	move	$a0, $a1
	move	$a1, $a3
	jr	$a4
.Lfunc_end15:
	.size	_ZN2kc7unparseEPcRNS_21printer_functor_classERNS_11uview_classE, .Lfunc_end15-_ZN2kc7unparseEPcRNS_21printer_functor_classERNS_11uview_classE
	.cfi_endproc
                                        # -- End function
	.globl	_ZN2kc7unparseENSt7__cxx1112basic_stringIcSt11char_traitsIcESaIcEEERNS_21printer_functor_classERNS_11uview_classE # -- Begin function _ZN2kc7unparseENSt7__cxx1112basic_stringIcSt11char_traitsIcESaIcEEERNS_21printer_functor_classERNS_11uview_classE
	.p2align	5
	.type	_ZN2kc7unparseENSt7__cxx1112basic_stringIcSt11char_traitsIcESaIcEEERNS_21printer_functor_classERNS_11uview_classE,@function
_ZN2kc7unparseENSt7__cxx1112basic_stringIcSt11char_traitsIcESaIcEEERNS_21printer_functor_classERNS_11uview_classE: # @_ZN2kc7unparseENSt7__cxx1112basic_stringIcSt11char_traitsIcESaIcEEERNS_21printer_functor_classERNS_11uview_classE
	.cfi_startproc
# %bb.0:                                # %entry
	move	$a3, $a1
	ld.d	$a4, $a1, 0
	ld.d	$a1, $a0, 0
	ld.d	$a4, $a4, 0
	move	$a0, $a3
	jr	$a4
.Lfunc_end16:
	.size	_ZN2kc7unparseENSt7__cxx1112basic_stringIcSt11char_traitsIcESaIcEEERNS_21printer_functor_classERNS_11uview_classE, .Lfunc_end16-_ZN2kc7unparseENSt7__cxx1112basic_stringIcSt11char_traitsIcESaIcEEERNS_21printer_functor_classERNS_11uview_classE
	.cfi_endproc
                                        # -- End function
	.globl	_ZN2kc20impl_abstract_phylum15default_unparseERNS_21printer_functor_classERNS_11uview_classE # -- Begin function _ZN2kc20impl_abstract_phylum15default_unparseERNS_21printer_functor_classERNS_11uview_classE
	.p2align	5
	.type	_ZN2kc20impl_abstract_phylum15default_unparseERNS_21printer_functor_classERNS_11uview_classE,@function
_ZN2kc20impl_abstract_phylum15default_unparseERNS_21printer_functor_classERNS_11uview_classE: # @_ZN2kc20impl_abstract_phylum15default_unparseERNS_21printer_functor_classERNS_11uview_classE
	.cfi_startproc
# %bb.0:                                # %entry
	addi.d	$sp, $sp, -48
	.cfi_def_cfa_offset 48
	st.d	$ra, $sp, 40                    # 8-byte Folded Spill
	st.d	$fp, $sp, 32                    # 8-byte Folded Spill
	st.d	$s0, $sp, 24                    # 8-byte Folded Spill
	st.d	$s1, $sp, 16                    # 8-byte Folded Spill
	st.d	$s2, $sp, 8                     # 8-byte Folded Spill
	st.d	$s3, $sp, 0                     # 8-byte Folded Spill
	.cfi_offset 1, -8
	.cfi_offset 22, -16
	.cfi_offset 23, -24
	.cfi_offset 24, -32
	.cfi_offset 25, -40
	.cfi_offset 26, -48
	move	$fp, $a0
	ld.d	$a0, $a0, 0
	ld.d	$a3, $a0, 0
	move	$s0, $a2
	move	$s1, $a1
	move	$a0, $fp
	jirl	$ra, $a3, 0
	bstrpick.d	$a0, $a0, 31, 0
	ori	$a1, $zero, 56
	mul.d	$a0, $a0, $a1
	pcalau12i	$a1, %got_pc_hi20(_ZN2kc13operator_infoE)
	ld.d	$a1, $a1, %got_pc_lo12(_ZN2kc13operator_infoE)
	add.d	$a0, $a1, $a0
	ld.w	$s3, $a0, 8
	blez	$s3, .LBB17_3
# %bb.1:                                # %for.body.preheader
	move	$s2, $zero
	.p2align	4, , 16
.LBB17_2:                               # %for.body
                                        # =>This Inner Loop Header: Depth=1
	ld.d	$a0, $fp, 0
	ld.d	$a2, $a0, 8
	move	$a0, $fp
	move	$a1, $s2
	jirl	$ra, $a2, 0
	ld.d	$a1, $a0, 0
	ld.d	$a3, $a1, 72
	move	$a1, $s1
	move	$a2, $s0
	jirl	$ra, $a3, 0
	addi.w	$s2, $s2, 1
	bne	$s3, $s2, .LBB17_2
.LBB17_3:                               # %for.cond.cleanup
	ld.d	$s3, $sp, 0                     # 8-byte Folded Reload
	ld.d	$s2, $sp, 8                     # 8-byte Folded Reload
	ld.d	$s1, $sp, 16                    # 8-byte Folded Reload
	ld.d	$s0, $sp, 24                    # 8-byte Folded Reload
	ld.d	$fp, $sp, 32                    # 8-byte Folded Reload
	ld.d	$ra, $sp, 40                    # 8-byte Folded Reload
	addi.d	$sp, $sp, 48
	ret
.Lfunc_end17:
	.size	_ZN2kc20impl_abstract_phylum15default_unparseERNS_21printer_functor_classERNS_11uview_classE, .Lfunc_end17-_ZN2kc20impl_abstract_phylum15default_unparseERNS_21printer_functor_classERNS_11uview_classE
	.cfi_endproc
                                        # -- End function
	.globl	_ZN2kc20impl_casestring__Str10do_unparseERNS_21printer_functor_classERNS_11uview_classE # -- Begin function _ZN2kc20impl_casestring__Str10do_unparseERNS_21printer_functor_classERNS_11uview_classE
	.p2align	5
	.type	_ZN2kc20impl_casestring__Str10do_unparseERNS_21printer_functor_classERNS_11uview_classE,@function
_ZN2kc20impl_casestring__Str10do_unparseERNS_21printer_functor_classERNS_11uview_classE: # @_ZN2kc20impl_casestring__Str10do_unparseERNS_21printer_functor_classERNS_11uview_classE
	.cfi_startproc
# %bb.0:                                # %entry
	ld.d	$a0, $a0, 8
	pcaddu18i	$t8, %call36(_ZN2kc7unparseEPKcRNS_21printer_functor_classERNS_11uview_classE)
	jr	$t8
.Lfunc_end18:
	.size	_ZN2kc20impl_casestring__Str10do_unparseERNS_21printer_functor_classERNS_11uview_classE, .Lfunc_end18-_ZN2kc20impl_casestring__Str10do_unparseERNS_21printer_functor_classERNS_11uview_classE
	.cfi_endproc
                                        # -- End function
	.globl	_ZN2kc27impl_nocasestring_NoCaseStr10do_unparseERNS_21printer_functor_classERNS_11uview_classE # -- Begin function _ZN2kc27impl_nocasestring_NoCaseStr10do_unparseERNS_21printer_functor_classERNS_11uview_classE
	.p2align	5
	.type	_ZN2kc27impl_nocasestring_NoCaseStr10do_unparseERNS_21printer_functor_classERNS_11uview_classE,@function
_ZN2kc27impl_nocasestring_NoCaseStr10do_unparseERNS_21printer_functor_classERNS_11uview_classE: # @_ZN2kc27impl_nocasestring_NoCaseStr10do_unparseERNS_21printer_functor_classERNS_11uview_classE
	.cfi_startproc
# %bb.0:                                # %entry
	ld.d	$a0, $a0, 8
	pcaddu18i	$t8, %call36(_ZN2kc7unparseEPKcRNS_21printer_functor_classERNS_11uview_classE)
	jr	$t8
.Lfunc_end19:
	.size	_ZN2kc27impl_nocasestring_NoCaseStr10do_unparseERNS_21printer_functor_classERNS_11uview_classE, .Lfunc_end19-_ZN2kc27impl_nocasestring_NoCaseStr10do_unparseERNS_21printer_functor_classERNS_11uview_classE
	.cfi_endproc
                                        # -- End function
	.globl	_ZN2kc17impl_integer__Int10do_unparseERNS_21printer_functor_classERNS_11uview_classE # -- Begin function _ZN2kc17impl_integer__Int10do_unparseERNS_21printer_functor_classERNS_11uview_classE
	.p2align	5
	.type	_ZN2kc17impl_integer__Int10do_unparseERNS_21printer_functor_classERNS_11uview_classE,@function
_ZN2kc17impl_integer__Int10do_unparseERNS_21printer_functor_classERNS_11uview_classE: # @_ZN2kc17impl_integer__Int10do_unparseERNS_21printer_functor_classERNS_11uview_classE
	.cfi_startproc
# %bb.0:                                # %entry
	addi.d	$sp, $sp, -240
	.cfi_def_cfa_offset 240
	st.d	$ra, $sp, 232                   # 8-byte Folded Spill
	st.d	$fp, $sp, 224                   # 8-byte Folded Spill
	st.d	$s0, $sp, 216                   # 8-byte Folded Spill
	.cfi_offset 1, -8
	.cfi_offset 22, -16
	.cfi_offset 23, -24
	ld.w	$a3, $a0, 8
	move	$fp, $a2
	move	$s0, $a1
	pcalau12i	$a0, %pc_hi20(.L.str.331)
	addi.d	$a1, $a0, %pc_lo12(.L.str.331)
	addi.d	$a0, $sp, 16
	move	$a2, $a3
	pcaddu18i	$ra, %call36(sprintf)
	jirl	$ra, $ra, 0
	ld.d	$a0, $s0, 0
	ld.d	$a3, $a0, 0
	addi.d	$a1, $sp, 16
	move	$a0, $s0
	move	$a2, $fp
	jirl	$ra, $a3, 0
	ld.d	$s0, $sp, 216                   # 8-byte Folded Reload
	ld.d	$fp, $sp, 224                   # 8-byte Folded Reload
	ld.d	$ra, $sp, 232                   # 8-byte Folded Reload
	addi.d	$sp, $sp, 240
	ret
.Lfunc_end20:
	.size	_ZN2kc17impl_integer__Int10do_unparseERNS_21printer_functor_classERNS_11uview_classE, .Lfunc_end20-_ZN2kc17impl_integer__Int10do_unparseERNS_21printer_functor_classERNS_11uview_classE
	.cfi_endproc
                                        # -- End function
	.globl	_ZN2kc15impl_real__Real10do_unparseERNS_21printer_functor_classERNS_11uview_classE # -- Begin function _ZN2kc15impl_real__Real10do_unparseERNS_21printer_functor_classERNS_11uview_classE
	.p2align	5
	.type	_ZN2kc15impl_real__Real10do_unparseERNS_21printer_functor_classERNS_11uview_classE,@function
_ZN2kc15impl_real__Real10do_unparseERNS_21printer_functor_classERNS_11uview_classE: # @_ZN2kc15impl_real__Real10do_unparseERNS_21printer_functor_classERNS_11uview_classE
	.cfi_startproc
# %bb.0:                                # %entry
	addi.d	$sp, $sp, -240
	.cfi_def_cfa_offset 240
	st.d	$ra, $sp, 232                   # 8-byte Folded Spill
	st.d	$fp, $sp, 224                   # 8-byte Folded Spill
	st.d	$s0, $sp, 216                   # 8-byte Folded Spill
	.cfi_offset 1, -8
	.cfi_offset 22, -16
	.cfi_offset 23, -24
	ld.d	$a3, $a0, 8
	move	$fp, $a2
	move	$s0, $a1
	pcalau12i	$a0, %pc_hi20(.L.str.332)
	addi.d	$a1, $a0, %pc_lo12(.L.str.332)
	addi.d	$a0, $sp, 16
	move	$a2, $a3
	pcaddu18i	$ra, %call36(sprintf)
	jirl	$ra, $ra, 0
	ld.d	$a0, $s0, 0
	ld.d	$a3, $a0, 0
	addi.d	$a1, $sp, 16
	move	$a0, $s0
	move	$a2, $fp
	jirl	$ra, $a3, 0
	ld.d	$s0, $sp, 216                   # 8-byte Folded Reload
	ld.d	$fp, $sp, 224                   # 8-byte Folded Reload
	ld.d	$ra, $sp, 232                   # 8-byte Folded Reload
	addi.d	$sp, $sp, 240
	ret
.Lfunc_end21:
	.size	_ZN2kc15impl_real__Real10do_unparseERNS_21printer_functor_classERNS_11uview_classE, .Lfunc_end21-_ZN2kc15impl_real__Real10do_unparseERNS_21printer_functor_classERNS_11uview_classE
	.cfi_endproc
                                        # -- End function
	.globl	_ZN2kc21impl_voidptr__VoidPtr10do_unparseERNS_21printer_functor_classERNS_11uview_classE # -- Begin function _ZN2kc21impl_voidptr__VoidPtr10do_unparseERNS_21printer_functor_classERNS_11uview_classE
	.p2align	5
	.type	_ZN2kc21impl_voidptr__VoidPtr10do_unparseERNS_21printer_functor_classERNS_11uview_classE,@function
_ZN2kc21impl_voidptr__VoidPtr10do_unparseERNS_21printer_functor_classERNS_11uview_classE: # @_ZN2kc21impl_voidptr__VoidPtr10do_unparseERNS_21printer_functor_classERNS_11uview_classE
	.cfi_startproc
# %bb.0:                                # %entry
	addi.d	$sp, $sp, -16
	.cfi_def_cfa_offset 16
	st.d	$ra, $sp, 8                     # 8-byte Folded Spill
	.cfi_offset 1, -8
	pcalau12i	$a0, %pc_hi20(.L.str.329)
	addi.d	$a0, $a0, %pc_lo12(.L.str.329)
	pcalau12i	$a1, %pc_hi20(.L.str.330)
	addi.d	$a2, $a1, %pc_lo12(.L.str.330)
	ori	$a1, $zero, 556
	pcaddu18i	$ra, %call36(_ZN2kc24kc_assertionReasonFailedEPKciS1_)
	jirl	$ra, $ra, 0
.Lfunc_end22:
	.size	_ZN2kc21impl_voidptr__VoidPtr10do_unparseERNS_21printer_functor_classERNS_11uview_classE, .Lfunc_end22-_ZN2kc21impl_voidptr__VoidPtr10do_unparseERNS_21printer_functor_classERNS_11uview_classE
	.cfi_endproc
                                        # -- End function
	.globl	_ZN2kc15impl_uniqID_Str10do_unparseERNS_21printer_functor_classERNS_11uview_classE # -- Begin function _ZN2kc15impl_uniqID_Str10do_unparseERNS_21printer_functor_classERNS_11uview_classE
	.p2align	5
	.type	_ZN2kc15impl_uniqID_Str10do_unparseERNS_21printer_functor_classERNS_11uview_classE,@function
_ZN2kc15impl_uniqID_Str10do_unparseERNS_21printer_functor_classERNS_11uview_classE: # @_ZN2kc15impl_uniqID_Str10do_unparseERNS_21printer_functor_classERNS_11uview_classE
	.cfi_startproc
# %bb.0:                                # %entry
	ld.w	$a3, $a2, 0
	ld.d	$a4, $a0, 40
	addi.d	$a3, $a3, -3
	sltui	$a3, $a3, 1
	masknez	$a0, $a0, $a3
	maskeqz	$a4, $a4, $a3
	or	$a0, $a4, $a0
	ori	$a4, $zero, 80
	masknez	$a4, $a4, $a3
	ld.d	$a5, $a0, 0
	ori	$a6, $zero, 72
	maskeqz	$a3, $a6, $a3
	or	$a3, $a3, $a4
	ldx.d	$a3, $a5, $a3
	jr	$a3
.Lfunc_end23:
	.size	_ZN2kc15impl_uniqID_Str10do_unparseERNS_21printer_functor_classERNS_11uview_classE, .Lfunc_end23-_ZN2kc15impl_uniqID_Str10do_unparseERNS_21printer_functor_classERNS_11uview_classE
	.cfi_endproc
                                        # -- End function
	.globl	_ZN2kc10impl_ID_Id10do_unparseERNS_21printer_functor_classERNS_11uview_classE # -- Begin function _ZN2kc10impl_ID_Id10do_unparseERNS_21printer_functor_classERNS_11uview_classE
	.p2align	5
	.type	_ZN2kc10impl_ID_Id10do_unparseERNS_21printer_functor_classERNS_11uview_classE,@function
_ZN2kc10impl_ID_Id10do_unparseERNS_21printer_functor_classERNS_11uview_classE: # @_ZN2kc10impl_ID_Id10do_unparseERNS_21printer_functor_classERNS_11uview_classE
	.cfi_startproc
# %bb.0:                                # %entry
	addi.d	$sp, $sp, -256
	.cfi_def_cfa_offset 256
	st.d	$ra, $sp, 248                   # 8-byte Folded Spill
	st.d	$fp, $sp, 240                   # 8-byte Folded Spill
	st.d	$s0, $sp, 232                   # 8-byte Folded Spill
	st.d	$s1, $sp, 224                   # 8-byte Folded Spill
	st.d	$s2, $sp, 216                   # 8-byte Folded Spill
	st.d	$s3, $sp, 208                   # 8-byte Folded Spill
	.cfi_offset 1, -8
	.cfi_offset 22, -16
	.cfi_offset 23, -24
	.cfi_offset 24, -32
	.cfi_offset 25, -40
	.cfi_offset 26, -48
	move	$fp, $a2
	ld.w	$a2, $a2, 0
	ori	$a3, $zero, 131
	move	$s0, $a1
	blt	$a3, $a2, .LBB24_8
# %bb.1:                                # %entry
	ori	$a1, $zero, 3
	beq	$a2, $a1, .LBB24_14
# %bb.2:                                # %entry
	ori	$a1, $zero, 4
	beq	$a2, $a1, .LBB24_16
# %bb.3:                                # %entry
	ori	$a1, $zero, 111
	bne	$a2, $a1, .LBB24_13
# %bb.4:                                # %sw.bb18
	ld.d	$a1, $a0, 40
	ld.d	$a2, $a1, 0
	ld.d	$a2, $a2, 0
	move	$s2, $a0
	move	$a0, $a1
	jirl	$ra, $a2, 0
	ori	$a2, $zero, 6
	move	$a1, $a0
	move	$a0, $s2
	bne	$a1, $a2, .LBB24_13
# %bb.5:                                # %if.then24
	ld.d	$s1, $a0, 40
	ld.d	$s3, $s1, 40
	pcaddu18i	$ra, %call36(_ZN2kc20f_ispredefinedphylumEPNS_7impl_IDE)
	jirl	$ra, $ra, 0
	beqz	$a0, .LBB24_26
# %bb.6:                                # %land.lhs.true
	ld.d	$a0, $s3, 8
	pcalau12i	$a1, %pc_hi20(.L.str.337)
	addi.d	$a1, $a1, %pc_lo12(.L.str.337)
	ori	$a2, $zero, 9
	pcaddu18i	$ra, %call36(strncmp)
	jirl	$ra, $ra, 0
	beqz	$a0, .LBB24_26
# %bb.7:                                # %if.then32
	ld.d	$a0, $s0, 0
	ld.d	$a3, $a0, 0
	pcalau12i	$a0, %pc_hi20(.L.str.333)
	addi.d	$a1, $a0, %pc_lo12(.L.str.333)
	move	$a0, $s0
	move	$a2, $fp
	jirl	$ra, $a3, 0
	ld.d	$a0, $s1, 0
	ld.d	$a3, $a0, 72
	move	$a0, $s1
	move	$a1, $s0
	move	$a2, $fp
	jirl	$ra, $a3, 0
	ld.d	$a0, $s0, 0
	ld.d	$a3, $a0, 0
	pcalau12i	$a0, %pc_hi20(.L.str.334)
	addi.d	$a1, $a0, %pc_lo12(.L.str.334)
	move	$a0, $s0
	move	$a2, $fp
	jirl	$ra, $a3, 0
	ori	$a1, $zero, 1
	move	$a0, $s2
	pcaddu18i	$ra, %call36(_ZN2kc18f_operatorofphylumEPNS_7impl_IDEi)
	jirl	$ra, $ra, 0
	ld.d	$a1, $a0, 0
	ld.d	$a3, $a1, 72
	b	.LBB24_23
.LBB24_8:                               # %entry
	ori	$a1, $zero, 132
	beq	$a2, $a1, .LBB24_15
# %bb.9:                                # %entry
	ori	$a1, $zero, 151
	beq	$a2, $a1, .LBB24_19
# %bb.10:                               # %entry
	ori	$a1, $zero, 152
	bne	$a2, $a1, .LBB24_13
# %bb.11:                               # %sw.bb
	ld.d	$a1, $s0, 0
	ld.d	$s1, $a0, 40
	ld.d	$a3, $a1, 0
.LBB24_12:                              # %if.then40
	pcalau12i	$a0, %pc_hi20(.L.str.333)
	addi.d	$a1, $a0, %pc_lo12(.L.str.333)
	b	.LBB24_21
.LBB24_13:                              # %sw.bb88
	ld.d	$a1, $a0, 0
	ld.d	$a3, $a1, 80
	b	.LBB24_23
.LBB24_14:                              # %sw.bb71
	ld.d	$s1, $a0, 40
	b	.LBB24_17
.LBB24_15:                              # %sw.bb12
	ld.d	$a1, $s0, 0
	ld.d	$a3, $a1, 0
	pcalau12i	$a1, %pc_hi20(.L.str.335)
	addi.d	$a1, $a1, %pc_lo12(.L.str.335)
	move	$s1, $a0
	move	$a0, $s0
	move	$a2, $fp
	jirl	$ra, $a3, 0
	ld.d	$a0, $s1, 0
	ld.d	$a3, $a0, 72
	pcalau12i	$a0, %pc_hi20(_ZN2kc10base_uviewE)
	addi.d	$a2, $a0, %pc_lo12(_ZN2kc10base_uviewE)
	move	$a0, $s1
	move	$a1, $s0
	jirl	$ra, $a3, 0
	ld.d	$a0, $s0, 0
	ld.d	$a3, $a0, 0
	pcalau12i	$a0, %pc_hi20(.L.str.336)
	addi.d	$a1, $a0, %pc_lo12(.L.str.336)
	move	$a0, $s0
	b	.LBB24_24
.LBB24_16:                              # %sw.bb55
	ld.d	$s1, $a0, 40
	ld.d	$a0, $s1, 8
	ld.d	$a1, $a0, 0
	ld.d	$a3, $a1, 72
	move	$a1, $s0
	move	$a2, $fp
	jirl	$ra, $a3, 0
	ld.d	$a0, $s0, 0
	ld.d	$a3, $a0, 0
	pcalau12i	$a0, %pc_hi20(.L.str.338)
	addi.d	$a1, $a0, %pc_lo12(.L.str.338)
	move	$a0, $s0
	move	$a2, $fp
	jirl	$ra, $a3, 0
.LBB24_17:                              # %sw.bb55
	ld.d	$a0, $s1, 0
	ld.d	$a3, $a0, 72
	move	$a0, $s1
	move	$a1, $s0
	move	$a2, $fp
	jirl	$ra, $a3, 0
	ld.w	$a0, $s1, 16
	beqz	$a0, .LBB24_25
# %bb.18:                               # %if.then61
	ld.d	$a0, $s0, 0
	ld.d	$a3, $a0, 0
	pcalau12i	$a0, %pc_hi20(.L.str.339)
	addi.d	$a1, $a0, %pc_lo12(.L.str.339)
	move	$a0, $s0
	move	$a2, $fp
	jirl	$ra, $a3, 0
	ld.d	$a0, $s1, 24
	ld.d	$a1, $a0, 0
	ld.d	$a3, $a1, 72
	move	$a1, $s0
	move	$a2, $fp
	jirl	$ra, $a3, 0
	ld.d	$a0, $s0, 0
	ld.d	$a3, $a0, 0
	pcalau12i	$a0, %pc_hi20(.L.str.340)
	addi.d	$a1, $a0, %pc_lo12(.L.str.340)
	move	$a0, $s0
	move	$a2, $fp
	jirl	$ra, $a3, 0
	ld.w	$a2, $s1, 16
	pcalau12i	$a0, %pc_hi20(.L.str.331)
	addi.d	$a1, $a0, %pc_lo12(.L.str.331)
	addi.d	$a0, $sp, 8
	pcaddu18i	$ra, %call36(sprintf)
	jirl	$ra, $ra, 0
	ld.d	$a0, $s0, 0
	ld.d	$a3, $a0, 0
	addi.d	$a1, $sp, 8
	move	$a0, $s0
	move	$a2, $fp
	jirl	$ra, $a3, 0
	ld.d	$a0, $s0, 0
	ld.d	$a3, $a0, 0
	pcalau12i	$a0, %pc_hi20(.L.str.341)
	addi.d	$a1, $a0, %pc_lo12(.L.str.341)
	move	$a0, $s0
	move	$a2, $fp
	jirl	$ra, $a3, 0
	b	.LBB24_25
.LBB24_19:                              # %sw.bb2
	ld.d	$s1, $a0, 40
	pcaddu18i	$ra, %call36(_ZN2kc18f_phylumofoperatorEPNS_7impl_IDE)
	jirl	$ra, $ra, 0
	move	$s2, $a0
	pcaddu18i	$ra, %call36(_ZN2kc19f_listelementphylumEPNS_7impl_IDE)
	jirl	$ra, $ra, 0
	move	$s3, $a0
	pcaddu18i	$ra, %call36(_ZN2kc9f_emptyIdEv)
	jirl	$ra, $ra, 0
	move	$a1, $a0
	move	$a0, $s3
	pcaddu18i	$ra, %call36(_ZNK2kc20impl_abstract_phylum2eqEPKS0_)
	jirl	$ra, $ra, 0
	ld.d	$a1, $s2, 0
	ld.d	$a3, $a1, 72
	move	$s3, $a0
	pcalau12i	$a0, %pc_hi20(_ZN2kc17view_class_of_phyE)
	addi.d	$a2, $a0, %pc_lo12(_ZN2kc17view_class_of_phyE)
	move	$a0, $s2
	move	$a1, $s0
	jirl	$ra, $a3, 0
	beqz	$s3, .LBB24_25
.LBB24_20:                              # %if.then
	ld.d	$a0, $s0, 0
	ld.d	$a3, $a0, 0
	pcalau12i	$a0, %pc_hi20(.L.str.334)
	addi.d	$a1, $a0, %pc_lo12(.L.str.334)
.LBB24_21:                              # %if.then40
	move	$a0, $s0
	move	$a2, $fp
	jirl	$ra, $a3, 0
.LBB24_22:                              # %if.else49
	ld.d	$a0, $s1, 0
	ld.d	$a3, $a0, 72
	move	$a0, $s1
.LBB24_23:                              # %sw.bb88
	move	$a1, $s0
.LBB24_24:                              # %sw.bb88
	move	$a2, $fp
	ld.d	$s3, $sp, 208                   # 8-byte Folded Reload
	ld.d	$s2, $sp, 216                   # 8-byte Folded Reload
	ld.d	$s1, $sp, 224                   # 8-byte Folded Reload
	ld.d	$s0, $sp, 232                   # 8-byte Folded Reload
	ld.d	$fp, $sp, 240                   # 8-byte Folded Reload
	ld.d	$ra, $sp, 248                   # 8-byte Folded Reload
	addi.d	$sp, $sp, 256
	jr	$a3
.LBB24_25:                              # %sw.epilog
	ld.d	$s3, $sp, 208                   # 8-byte Folded Reload
	ld.d	$s2, $sp, 216                   # 8-byte Folded Reload
	ld.d	$s1, $sp, 224                   # 8-byte Folded Reload
	ld.d	$s0, $sp, 232                   # 8-byte Folded Reload
	ld.d	$fp, $sp, 240                   # 8-byte Folded Reload
	ld.d	$ra, $sp, 248                   # 8-byte Folded Reload
	addi.d	$sp, $sp, 256
	ret
.LBB24_26:                              # %if.else38
	move	$a0, $s2
	pcaddu18i	$ra, %call36(_ZN2kc10f_isphylumEPNS_7impl_IDE)
	jirl	$ra, $ra, 0
	beqz	$a0, .LBB24_28
# %bb.27:                               # %if.then40
	ld.d	$a0, $s0, 0
	ld.d	$a3, $a0, 0
	b	.LBB24_12
.LBB24_28:                              # %if.else43
	move	$a0, $s2
	pcaddu18i	$ra, %call36(_ZN2kc23f_alternativeofoperatorEPNS_7impl_IDE)
	jirl	$ra, $ra, 0
	beqz	$a0, .LBB24_22
# %bb.29:                               # %if.then45
	move	$a0, $s2
	pcaddu18i	$ra, %call36(_ZN2kc18f_phylumofoperatorEPNS_7impl_IDE)
	jirl	$ra, $ra, 0
	ld.d	$a1, $a0, 0
	ld.d	$a3, $a1, 72
	move	$a1, $s0
	move	$a2, $fp
	jirl	$ra, $a3, 0
	b	.LBB24_20
.Lfunc_end24:
	.size	_ZN2kc10impl_ID_Id10do_unparseERNS_21printer_functor_classERNS_11uview_classE, .Lfunc_end24-_ZN2kc10impl_ID_Id10do_unparseERNS_21printer_functor_classERNS_11uview_classE
	.cfi_endproc
                                        # -- End function
	.globl	_ZN2kc12impl_INT_Int10do_unparseERNS_21printer_functor_classERNS_11uview_classE # -- Begin function _ZN2kc12impl_INT_Int10do_unparseERNS_21printer_functor_classERNS_11uview_classE
	.p2align	5
	.type	_ZN2kc12impl_INT_Int10do_unparseERNS_21printer_functor_classERNS_11uview_classE,@function
_ZN2kc12impl_INT_Int10do_unparseERNS_21printer_functor_classERNS_11uview_classE: # @_ZN2kc12impl_INT_Int10do_unparseERNS_21printer_functor_classERNS_11uview_classE
	.cfi_startproc
# %bb.0:                                # %entry
	ld.w	$a3, $a2, 0
	ld.d	$a4, $a0, 24
	addi.d	$a3, $a3, -3
	sltui	$a3, $a3, 1
	masknez	$a0, $a0, $a3
	maskeqz	$a4, $a4, $a3
	or	$a0, $a4, $a0
	ori	$a4, $zero, 80
	masknez	$a4, $a4, $a3
	ld.d	$a5, $a0, 0
	ori	$a6, $zero, 72
	maskeqz	$a3, $a6, $a3
	or	$a3, $a3, $a4
	ldx.d	$a3, $a5, $a3
	jr	$a3
.Lfunc_end25:
	.size	_ZN2kc12impl_INT_Int10do_unparseERNS_21printer_functor_classERNS_11uview_classE, .Lfunc_end25-_ZN2kc12impl_INT_Int10do_unparseERNS_21printer_functor_classERNS_11uview_classE
	.cfi_endproc
                                        # -- End function
	.globl	_ZN2kc18impl_STRING_String10do_unparseERNS_21printer_functor_classERNS_11uview_classE # -- Begin function _ZN2kc18impl_STRING_String10do_unparseERNS_21printer_functor_classERNS_11uview_classE
	.p2align	5
	.type	_ZN2kc18impl_STRING_String10do_unparseERNS_21printer_functor_classERNS_11uview_classE,@function
_ZN2kc18impl_STRING_String10do_unparseERNS_21printer_functor_classERNS_11uview_classE: # @_ZN2kc18impl_STRING_String10do_unparseERNS_21printer_functor_classERNS_11uview_classE
	.cfi_startproc
# %bb.0:                                # %entry
	ld.d	$a3, $a0, 0
	ld.d	$a3, $a3, 80
	jr	$a3
.Lfunc_end26:
	.size	_ZN2kc18impl_STRING_String10do_unparseERNS_21printer_functor_classERNS_11uview_classE, .Lfunc_end26-_ZN2kc18impl_STRING_String10do_unparseERNS_21printer_functor_classERNS_11uview_classE
	.cfi_endproc
                                        # -- End function
	.globl	_ZN2kc46impl_phylumdeclarationsroot_PhylumDeclarations10do_unparseERNS_21printer_functor_classERNS_11uview_classE # -- Begin function _ZN2kc46impl_phylumdeclarationsroot_PhylumDeclarations10do_unparseERNS_21printer_functor_classERNS_11uview_classE
	.p2align	5
	.type	_ZN2kc46impl_phylumdeclarationsroot_PhylumDeclarations10do_unparseERNS_21printer_functor_classERNS_11uview_classE,@function
_ZN2kc46impl_phylumdeclarationsroot_PhylumDeclarations10do_unparseERNS_21printer_functor_classERNS_11uview_classE: # @_ZN2kc46impl_phylumdeclarationsroot_PhylumDeclarations10do_unparseERNS_21printer_functor_classERNS_11uview_classE
.Lfunc_begin1:
	.cfi_startproc
	.cfi_personality 155, DW.ref.__gxx_personality_v0
	.cfi_lsda 27, .Lexception1
# %bb.0:                                # %entry
	addi.d	$sp, $sp, -1056
	.cfi_def_cfa_offset 1056
	st.d	$ra, $sp, 1048                  # 8-byte Folded Spill
	st.d	$fp, $sp, 1040                  # 8-byte Folded Spill
	st.d	$s0, $sp, 1032                  # 8-byte Folded Spill
	st.d	$s1, $sp, 1024                  # 8-byte Folded Spill
	st.d	$s2, $sp, 1016                  # 8-byte Folded Spill
	st.d	$s3, $sp, 1008                  # 8-byte Folded Spill
	st.d	$s4, $sp, 1000                  # 8-byte Folded Spill
	st.d	$s5, $sp, 992                   # 8-byte Folded Spill
	st.d	$s6, $sp, 984                   # 8-byte Folded Spill
	.cfi_offset 1, -8
	.cfi_offset 22, -16
	.cfi_offset 23, -24
	.cfi_offset 24, -32
	.cfi_offset 25, -40
	.cfi_offset 26, -48
	.cfi_offset 27, -56
	.cfi_offset 28, -64
	.cfi_offset 29, -72
	move	$fp, $a2
	ld.w	$a2, $a2, 0
	addi.d	$a2, $a2, -19
	ori	$a3, $zero, 129
	move	$s0, $a1
	bltu	$a3, $a2, .LBB27_199
# %bb.1:                                # %entry
	slli.d	$a1, $a2, 2
	pcalau12i	$a2, %pc_hi20(.LJTI27_0)
	addi.d	$a2, $a2, %pc_lo12(.LJTI27_0)
	ldx.w	$a1, $a2, $a1
	add.d	$a1, $a2, $a1
	jr	$a1
.LBB27_2:                               # %sw.bb524
	ld.d	$a0, $a0, 8
	ld.d	$a1, $a0, 0
	ld.d	$a3, $a1, 72
	move	$a1, $s0
	b	.LBB27_371
.LBB27_3:                               # %sw.bb74
	ld.d	$a1, $s0, 0
	ld.d	$s1, $a0, 8
	ld.d	$a3, $a1, 0
	pcalau12i	$a0, %pc_hi20(.L.str.360)
	addi.d	$a1, $a0, %pc_lo12(.L.str.360)
	move	$a0, $s0
	move	$a2, $fp
	jirl	$ra, $a3, 0
	ld.d	$a0, $s1, 0
	ld.d	$a3, $a0, 72
	move	$a0, $s1
	move	$a1, $s0
	move	$a2, $fp
	jirl	$ra, $a3, 0
	ld.d	$a0, $s0, 0
	ld.d	$a3, $a0, 0
	pcalau12i	$a0, %pc_hi20(.L.str.361)
	addi.d	$a1, $a0, %pc_lo12(.L.str.361)
	b	.LBB27_370
.LBB27_4:                               # %sw.bb140
	ld.d	$a1, $s0, 0
	ld.d	$s1, $a0, 8
	ld.d	$a3, $a1, 0
	pcalau12i	$a0, %pc_hi20(.L.str.387)
	addi.d	$a1, $a0, %pc_lo12(.L.str.387)
	move	$a0, $s0
	move	$a2, $fp
	jirl	$ra, $a3, 0
	ld.d	$a0, $s0, 0
	ld.d	$a3, $a0, 0
	pcalau12i	$a0, %pc_hi20(.L.str.388)
	addi.d	$a1, $a0, %pc_lo12(.L.str.388)
	move	$a0, $s0
	move	$a2, $fp
	jirl	$ra, $a3, 0
	pcalau12i	$a0, %got_pc_hi20(g_options)
	ld.d	$s4, $a0, %got_pc_lo12(g_options)
	addi.d	$s2, $s4, 152
	pcalau12i	$a0, %pc_hi20(.L.str.312)
	addi.d	$a1, $a0, %pc_lo12(.L.str.312)
	move	$a0, $s2
	pcaddu18i	$ra, %call36(_ZStneIcSt11char_traitsIcESaIcEEbRKNSt7__cxx1112basic_stringIT_T0_T1_EEPKS5_)
	jirl	$ra, $ra, 0
	beqz	$a0, .LBB27_6
# %bb.5:                                # %if.then148
	ld.d	$a0, $s0, 0
	ld.d	$a1, $s4, 152
	ld.d	$a3, $a0, 0
	move	$a0, $s0
	move	$a2, $fp
	jirl	$ra, $a3, 0
	ld.d	$a0, $s0, 0
	ld.d	$a3, $a0, 0
	pcalau12i	$a0, %pc_hi20(.L.str.338)
	addi.d	$a1, $a0, %pc_lo12(.L.str.338)
	move	$a0, $s0
	move	$a2, $fp
	jirl	$ra, $a3, 0
.LBB27_6:                               # %if.end154
	ld.d	$a0, $s0, 0
	ld.d	$a3, $a0, 0
	pcalau12i	$a0, %pc_hi20(.L.str.389)
	addi.d	$a1, $a0, %pc_lo12(.L.str.389)
	move	$a0, $s0
	move	$a2, $fp
	jirl	$ra, $a3, 0
	pcalau12i	$a0, %got_pc_hi20(The_abstract_phylum_decl)
	ld.d	$s6, $a0, %got_pc_lo12(The_abstract_phylum_decl)
	ld.d	$a0, $s6, 0
	ld.d	$a0, $a0, 24
	ld.d	$a1, $a0, 0
	ld.d	$a1, $a1, 0
	jirl	$ra, $a1, 0
	ori	$a1, $zero, 305
	bne	$a0, $a1, .LBB27_8
# %bb.7:                                # %if.then161
	ld.d	$a0, $s0, 0
	ld.d	$a3, $a0, 0
	pcalau12i	$a0, %pc_hi20(.L.str.390)
	addi.d	$a1, $a0, %pc_lo12(.L.str.390)
	move	$a0, $s0
	move	$a2, $fp
	jirl	$ra, $a3, 0
	ld.d	$a0, $s6, 0
	ld.d	$a0, $a0, 24
	ld.d	$a1, $a0, 0
	ld.d	$a3, $a1, 72
	move	$a1, $s0
	move	$a2, $fp
	jirl	$ra, $a3, 0
.LBB27_8:                               # %if.end165
	ld.d	$a0, $s0, 0
	ld.d	$a3, $a0, 0
	pcalau12i	$a0, %pc_hi20(.L.str.391)
	addi.d	$a1, $a0, %pc_lo12(.L.str.391)
	move	$a0, $s0
	move	$a2, $fp
	jirl	$ra, $a3, 0
	ld.d	$a0, $s0, 0
	ld.d	$a3, $a0, 0
	pcalau12i	$a0, %pc_hi20(.L.str.392)
	addi.d	$a1, $a0, %pc_lo12(.L.str.392)
	move	$a0, $s0
	move	$a2, $fp
	jirl	$ra, $a3, 0
	ld.d	$a0, $s0, 0
	ld.d	$a3, $a0, 0
	pcalau12i	$a0, %pc_hi20(.L.str.393)
	addi.d	$a1, $a0, %pc_lo12(.L.str.393)
	move	$a0, $s0
	move	$a2, $fp
	jirl	$ra, $a3, 0
	ld.bu	$a0, $s4, 67
	beqz	$a0, .LBB27_244
# %bb.9:                                # %if.end176
	ld.bu	$a0, $s4, 69
	beqz	$a0, .LBB27_245
.LBB27_10:                              # %if.end185
	ld.bu	$a0, $s4, 66
	beqz	$a0, .LBB27_246
.LBB27_11:                              # %if.end190
	ld.bu	$a0, $s4, 68
	beqz	$a0, .LBB27_247
.LBB27_12:                              # %if.end205
	ld.d	$a0, $s6, 0
	pcaddu18i	$ra, %call36(_ZN2kc27f_post_create_in_phylumdeclEPNS_22impl_phylumdeclarationE)
	jirl	$ra, $ra, 0
	bnez	$a0, .LBB27_14
.LBB27_13:                              # %if.then207
	ld.d	$a0, $s0, 0
	ld.d	$a3, $a0, 0
	pcalau12i	$a0, %pc_hi20(.L.str.403)
	addi.d	$a1, $a0, %pc_lo12(.L.str.403)
	move	$a0, $s0
	move	$a2, $fp
	jirl	$ra, $a3, 0
.LBB27_14:                              # %if.end210
	ld.d	$a0, $s6, 0
	ld.d	$s3, $a0, 16
	ld.d	$a0, $s3, 0
	ld.d	$a3, $a0, 72
	pcalau12i	$a0, %pc_hi20(_ZN2kc21view_gen_member_dcl_hE)
	addi.d	$a2, $a0, %pc_lo12(_ZN2kc21view_gen_member_dcl_hE)
	move	$a0, $s3
	move	$a1, $s0
	jirl	$ra, $a3, 0
	ld.d	$a0, $s3, 0
	ld.d	$a3, $a0, 72
	pcalau12i	$a0, %pc_hi20(_ZN2kc27view_count_nonstaticmembersE)
	addi.d	$a2, $a0, %pc_lo12(_ZN2kc27view_count_nonstaticmembersE)
	move	$a0, $s3
	move	$a1, $s0
	jirl	$ra, $a3, 0
	ld.bu	$s3, $s4, 72
	ld.d	$a0, $s6, 0
	pcaddu18i	$ra, %call36(_ZN2kc28f_constructors_in_phylumdeclEPNS_22impl_phylumdeclarationE)
	jirl	$ra, $ra, 0
	pcalau12i	$s5, %pc_hi20(_ZN12_GLOBAL__N_113gl_no_of_argsE)
	beqz	$s3, .LBB27_248
# %bb.15:                               # %if.then212
	bnez	$a0, .LBB27_19
# %bb.16:                               # %if.then214
	ld.d	$a0, $s0, 0
	ld.d	$a3, $a0, 0
	pcalau12i	$a0, %pc_hi20(.L.str.404)
	addi.d	$a1, $a0, %pc_lo12(.L.str.404)
	move	$a0, $s0
	move	$a2, $fp
	jirl	$ra, $a3, 0
	ld.w	$a0, $s5, %pc_lo12(_ZN12_GLOBAL__N_113gl_no_of_argsE)
	beqz	$a0, .LBB27_18
# %bb.17:                               # %if.then218
	ld.d	$a0, $s0, 0
	ld.d	$a3, $a0, 0
	pcalau12i	$a0, %pc_hi20(.L.str.405)
	addi.d	$a1, $a0, %pc_lo12(.L.str.405)
	move	$a0, $s0
	move	$a2, $fp
	jirl	$ra, $a3, 0
	pcalau12i	$a0, %pc_hi20(_ZN12_GLOBAL__N_110gl_membersE)
	ld.d	$a0, $a0, %pc_lo12(_ZN12_GLOBAL__N_110gl_membersE)
	ld.d	$a1, $a0, 0
	ld.d	$a3, $a1, 72
	pcalau12i	$a1, %pc_hi20(_ZN2kc29view_gen_user_assignment_inisE)
	addi.d	$a2, $a1, %pc_lo12(_ZN2kc29view_gen_user_assignment_inisE)
	move	$a1, $s0
	jirl	$ra, $a3, 0
.LBB27_18:                              # %if.end221
	ld.d	$a0, $s0, 0
	ld.d	$a3, $a0, 0
	pcalau12i	$a0, %pc_hi20(.L.str.406)
	addi.d	$a1, $a0, %pc_lo12(.L.str.406)
	move	$a0, $s0
	move	$a2, $fp
	jirl	$ra, $a3, 0
.LBB27_19:                              # %if.end224
	ld.d	$a0, $s6, 0
	pcaddu18i	$ra, %call36(_ZN2kc27f_destructors_in_phylumdeclEPNS_22impl_phylumdeclarationE)
	jirl	$ra, $ra, 0
	bnez	$a0, .LBB27_21
# %bb.20:                               # %if.then226
	ld.d	$a0, $s0, 0
	ld.d	$a3, $a0, 0
	pcalau12i	$a0, %pc_hi20(.L.str.407)
	addi.d	$a1, $a0, %pc_lo12(.L.str.407)
	move	$a0, $s0
	move	$a2, $fp
	jirl	$ra, $a3, 0
.LBB27_21:                              # %if.end229
	ld.d	$a0, $s0, 0
	ld.d	$a3, $a0, 0
	pcalau12i	$a0, %pc_hi20(.L.str.408)
	addi.d	$a1, $a0, %pc_lo12(.L.str.408)
	move	$a0, $s0
	move	$a2, $fp
	jirl	$ra, $a3, 0
	ld.d	$a0, $s0, 0
	ld.d	$a3, $a0, 0
	pcalau12i	$a0, %pc_hi20(.L.str.409)
	addi.d	$a1, $a0, %pc_lo12(.L.str.409)
	move	$a0, $s0
	move	$a2, $fp
	jirl	$ra, $a3, 0
	pcalau12i	$a0, %pc_hi20(.L.str.410)
	addi.d	$a1, $a0, %pc_lo12(.L.str.410)
	b	.LBB27_347
.LBB27_22:                              # %sw.bb732
	ld.d	$a1, $s0, 0
	ld.d	$s1, $a0, 8
	ld.d	$a3, $a1, 0
	pcalau12i	$a0, %pc_hi20(.L.str.556)
	addi.d	$a1, $a0, %pc_lo12(.L.str.556)
	move	$a0, $s0
	move	$a2, $fp
	jirl	$ra, $a3, 0
	ld.d	$a0, $s0, 0
	ld.d	$a3, $a0, 0
	pcalau12i	$a0, %pc_hi20(.L.str.557)
	addi.d	$a1, $a0, %pc_lo12(.L.str.557)
	b	.LBB27_237
.LBB27_23:                              # %sw.bb528
	ld.d	$a0, $s0, 0
	ld.d	$a3, $a0, 0
	pcalau12i	$a0, %pc_hi20(.L.str.504)
	addi.d	$a1, $a0, %pc_lo12(.L.str.504)
	move	$a0, $s0
	move	$a2, $fp
	jirl	$ra, $a3, 0
	ld.d	$a0, $s0, 0
	ld.d	$a3, $a0, 0
	pcalau12i	$a0, %pc_hi20(.L.str.505)
	addi.d	$a1, $a0, %pc_lo12(.L.str.505)
	move	$a0, $s0
	move	$a2, $fp
	jirl	$ra, $a3, 0
	ld.d	$a0, $s0, 0
	ld.d	$a3, $a0, 0
	pcalau12i	$a0, %pc_hi20(.L.str.506)
	addi.d	$a1, $a0, %pc_lo12(.L.str.506)
	move	$a0, $s0
	move	$a2, $fp
	jirl	$ra, $a3, 0
	ld.d	$a0, $s0, 0
	ld.d	$a3, $a0, 0
	pcalau12i	$a0, %pc_hi20(.L.str.507)
	addi.d	$a1, $a0, %pc_lo12(.L.str.507)
	move	$a0, $s0
	move	$a2, $fp
	jirl	$ra, $a3, 0
	ld.d	$a0, $s0, 0
	ld.d	$a3, $a0, 0
	pcalau12i	$a0, %pc_hi20(.L.str.508)
	addi.d	$a1, $a0, %pc_lo12(.L.str.508)
	move	$a0, $s0
	move	$a2, $fp
	jirl	$ra, $a3, 0
	ld.d	$a0, $s0, 0
	ld.d	$a3, $a0, 0
	pcalau12i	$a0, %pc_hi20(.L.str.509)
	addi.d	$a1, $a0, %pc_lo12(.L.str.509)
	move	$a0, $s0
	move	$a2, $fp
	jirl	$ra, $a3, 0
	ld.d	$a0, $s0, 0
	ld.d	$a3, $a0, 0
	pcalau12i	$a0, %pc_hi20(.L.str.510)
	addi.d	$a1, $a0, %pc_lo12(.L.str.510)
	move	$a0, $s0
	move	$a2, $fp
	jirl	$ra, $a3, 0
	ld.d	$a0, $s0, 0
	ld.d	$a3, $a0, 0
	pcalau12i	$a0, %pc_hi20(.L.str.511)
	addi.d	$a1, $a0, %pc_lo12(.L.str.511)
	move	$a0, $s0
	move	$a2, $fp
	jirl	$ra, $a3, 0
	ld.d	$a0, $s0, 0
	ld.d	$a3, $a0, 0
	pcalau12i	$a0, %pc_hi20(.L.str.512)
	addi.d	$a1, $a0, %pc_lo12(.L.str.512)
	move	$a0, $s0
	move	$a2, $fp
	jirl	$ra, $a3, 0
	pcalau12i	$a0, %pc_hi20(.L.str.312)
	addi.d	$a0, $a0, %pc_lo12(.L.str.312)
	pcalau12i	$a1, %pc_hi20(_ZN2kc27view_printer_outputfilelineE)
	addi.d	$a2, $a1, %pc_lo12(_ZN2kc27view_printer_outputfilelineE)
	move	$a1, $s0
	pcaddu18i	$ra, %call36(_ZN2kc7unparseEPKcRNS_21printer_functor_classERNS_11uview_classE)
	jirl	$ra, $ra, 0
	pcalau12i	$a0, %got_pc_hi20(g_options)
	ld.d	$a0, $a0, %got_pc_lo12(g_options)
	ld.bu	$a0, $a0, 67
	bnez	$a0, .LBB27_344
# %bb.24:                               # %if.then549
	ld.d	$a0, $s0, 0
	ld.d	$a3, $a0, 0
	pcalau12i	$a0, %pc_hi20(.L.str.513)
	addi.d	$a1, $a0, %pc_lo12(.L.str.513)
	move	$a0, $s0
	move	$a2, $fp
	jirl	$ra, $a3, 0
	ld.d	$a0, $s0, 0
	ld.d	$a3, $a0, 0
	pcalau12i	$a0, %pc_hi20(.L.str.514)
	addi.d	$a1, $a0, %pc_lo12(.L.str.514)
	move	$a0, $s0
	move	$a2, $fp
	jirl	$ra, $a3, 0
	ld.d	$a0, $s0, 0
	ld.d	$a3, $a0, 0
	pcalau12i	$a0, %pc_hi20(.L.str.515)
	addi.d	$a1, $a0, %pc_lo12(.L.str.515)
	move	$a0, $s0
	move	$a2, $fp
	jirl	$ra, $a3, 0
	ld.d	$a0, $s0, 0
	ld.d	$a3, $a0, 0
	pcalau12i	$a0, %pc_hi20(.L.str.516)
	addi.d	$a1, $a0, %pc_lo12(.L.str.516)
	move	$a0, $s0
	move	$a2, $fp
	jirl	$ra, $a3, 0
	ld.d	$a0, $s0, 0
	ld.d	$a3, $a0, 0
	pcalau12i	$a0, %pc_hi20(.L.str.517)
	addi.d	$a1, $a0, %pc_lo12(.L.str.517)
	move	$a0, $s0
	move	$a2, $fp
	jirl	$ra, $a3, 0
	ld.d	$a0, $s0, 0
	ld.d	$a3, $a0, 0
	pcalau12i	$a0, %pc_hi20(.L.str.518)
	addi.d	$a1, $a0, %pc_lo12(.L.str.518)
	b	.LBB27_370
.LBB27_25:                              # %sw.bb740
	move	$s2, $a0
	ld.d	$a0, $s0, 0
	ld.d	$a3, $a0, 0
	pcalau12i	$a0, %pc_hi20(.L.str.519)
	addi.d	$a1, $a0, %pc_lo12(.L.str.519)
	move	$a0, $s0
	move	$a2, $fp
	jirl	$ra, $a3, 0
	pcalau12i	$a0, %got_pc_hi20(Thefnfiles)
	ld.d	$a0, $a0, %got_pc_lo12(Thefnfiles)
	ld.d	$a0, $a0, 0
	ld.d	$a1, $a0, 0
	ld.d	$a3, $a1, 72
	move	$a1, $s0
	move	$a2, $fp
	jirl	$ra, $a3, 0
	ld.d	$a0, $s0, 0
	ld.d	$a3, $a0, 0
	pcalau12i	$a0, %pc_hi20(.L.str.520)
	addi.d	$a1, $a0, %pc_lo12(.L.str.520)
	move	$a0, $s0
	move	$a2, $fp
	jirl	$ra, $a3, 0
	ld.d	$a0, $s0, 0
	ld.d	$a3, $a0, 0
	pcalau12i	$a0, %got_pc_hi20(kimwitu_copyright)
	ld.d	$a1, $a0, %got_pc_lo12(kimwitu_copyright)
	move	$a0, $s0
	move	$a2, $fp
	jirl	$ra, $a3, 0
	ld.d	$a0, $s0, 0
	ld.d	$a3, $a0, 0
	pcalau12i	$a0, %pc_hi20(.L.str.558)
	addi.d	$a1, $a0, %pc_lo12(.L.str.558)
	move	$a0, $s0
	move	$a2, $fp
	jirl	$ra, $a3, 0
	pcalau12i	$a0, %got_pc_hi20(g_options)
	ld.d	$s1, $a0, %got_pc_lo12(g_options)
	addi.d	$a0, $s1, 120
	pcalau12i	$a1, %pc_hi20(.L.str.312)
	addi.d	$a1, $a1, %pc_lo12(.L.str.312)
	pcaddu18i	$ra, %call36(_ZStneIcSt11char_traitsIcESaIcEEbRKNSt7__cxx1112basic_stringIT_T0_T1_EEPKS5_)
	jirl	$ra, $ra, 0
	beqz	$a0, .LBB27_27
# %bb.26:                               # %if.then749
	ld.d	$a0, $s0, 0
	ld.d	$a3, $a0, 0
	pcalau12i	$a0, %pc_hi20(.L.str.522)
	addi.d	$a1, $a0, %pc_lo12(.L.str.522)
	move	$a0, $s0
	move	$a2, $fp
	jirl	$ra, $a3, 0
	ld.d	$a0, $s0, 0
	ld.d	$a1, $s1, 120
	ld.d	$a3, $a0, 0
	move	$a0, $s0
	move	$a2, $fp
	jirl	$ra, $a3, 0
	ld.d	$a0, $s0, 0
	ld.d	$a3, $a0, 0
	pcalau12i	$a0, %pc_hi20(.L.str.523)
	addi.d	$a1, $a0, %pc_lo12(.L.str.523)
	move	$a0, $s0
	move	$a2, $fp
	jirl	$ra, $a3, 0
.LBB27_27:                              # %if.end757
	ld.d	$a0, $s0, 0
	ld.d	$a3, $a0, 0
	pcalau12i	$a0, %pc_hi20(.L.str.559)
	addi.d	$a1, $a0, %pc_lo12(.L.str.559)
	move	$a0, $s0
	move	$a2, $fp
	jirl	$ra, $a3, 0
	ld.d	$a0, $s0, 0
	ld.d	$a1, $s1, 184
	ld.d	$a3, $a0, 0
	move	$a0, $s0
	move	$a2, $fp
	jirl	$ra, $a3, 0
	ld.d	$a0, $s0, 0
	ld.d	$a3, $a0, 0
	pcalau12i	$a0, %pc_hi20(.L.str.525)
	addi.d	$a1, $a0, %pc_lo12(.L.str.525)
	move	$a0, $s0
	move	$a2, $fp
	jirl	$ra, $a3, 0
	ld.d	$a0, $s0, 0
	ld.d	$a1, $s1, 184
	ld.d	$a3, $a0, 0
	move	$a0, $s0
	move	$a2, $fp
	jirl	$ra, $a3, 0
	ld.d	$a0, $s0, 0
	ld.d	$a3, $a0, 0
	pcalau12i	$a0, %pc_hi20(.L.str.560)
	addi.d	$a1, $a0, %pc_lo12(.L.str.560)
	move	$a0, $s0
	move	$a2, $fp
	jirl	$ra, $a3, 0
	ld.bu	$a0, $s1, 115
	beqz	$a0, .LBB27_29
# %bb.28:                               # %if.then771
	ld.d	$a0, $s0, 0
	ld.d	$a3, $a0, 0
	pcalau12i	$a0, %pc_hi20(.L.str.561)
	addi.d	$a1, $a0, %pc_lo12(.L.str.561)
	move	$a0, $s0
	move	$a2, $fp
	jirl	$ra, $a3, 0
.LBB27_29:                              # %if.end774
	move	$a0, $s2
	ld.d	$a1, $s2, 0
	ld.d	$a3, $a1, 72
	pcalau12i	$a1, %pc_hi20(_ZN2kc19view_open_namespaceE)
	addi.d	$a2, $a1, %pc_lo12(_ZN2kc19view_open_namespaceE)
	move	$a1, $s0
	jirl	$ra, $a3, 0
	pcalau12i	$a0, %got_pc_hi20(Therviewnames)
	ld.d	$s2, $a0, %got_pc_lo12(Therviewnames)
	ld.d	$a0, $s2, 0
	ld.d	$a1, $a0, 0
	ld.d	$a3, $a1, 72
	pcalau12i	$a1, %pc_hi20(_ZN2kc19view_gen_viewvars_cE)
	addi.d	$a2, $a1, %pc_lo12(_ZN2kc19view_gen_viewvars_cE)
	move	$a1, $s0
	jirl	$ra, $a3, 0
	ld.d	$a0, $s0, 0
	ld.d	$a3, $a0, 0
	pcalau12i	$a0, %pc_hi20(.L.str.562)
	addi.d	$a1, $a0, %pc_lo12(.L.str.562)
	move	$a0, $s0
	move	$a2, $fp
	jirl	$ra, $a3, 0
	ld.d	$a0, $s2, 0
	ld.d	$a1, $a0, 0
	ld.d	$a3, $a1, 72
	move	$a1, $s0
	move	$a2, $fp
	jirl	$ra, $a3, 0
	ld.d	$a0, $s0, 0
	ld.d	$a3, $a0, 0
	pcalau12i	$a0, %pc_hi20(.L.str.528)
	addi.d	$a1, $a0, %pc_lo12(.L.str.528)
	move	$a0, $s0
	move	$a2, $fp
	jirl	$ra, $a3, 0
	ld.bu	$a0, $s1, 115
	beqz	$a0, .LBB27_344
# %bb.30:                               # %if.then780
.Ltmp173:                               # EH_LABEL
	pcalau12i	$a0, %pc_hi20(.L.str.312)
	addi.d	$a1, $a0, %pc_lo12(.L.str.312)
	addi.d	$a0, $sp, 784
	addi.d	$a2, $sp, 783
	pcaddu18i	$ra, %call36(_ZNSt7__cxx1112basic_stringIcSt11char_traitsIcESaIcEEC2EPKcRKS3_)
	jirl	$ra, $ra, 0
.Ltmp174:                               # EH_LABEL
# %bb.31:                               # %invoke.cont
	ld.bu	$a0, $s1, 72
	beqz	$a0, .LBB27_33
# %bb.32:                               # %if.then782
.Ltmp176:                               # EH_LABEL
	pcalau12i	$a0, %pc_hi20(.L.str.563)
	addi.d	$a1, $a0, %pc_lo12(.L.str.563)
	addi.d	$a0, $sp, 784
	pcaddu18i	$ra, %call36(_ZNSt7__cxx1112basic_stringIcSt11char_traitsIcESaIcEEaSEPKc)
	jirl	$ra, $ra, 0
.Ltmp177:                               # EH_LABEL
.LBB27_33:                              # %if.end786
	ld.d	$a0, $s0, 0
	ld.d	$a3, $a0, 0
.Ltmp178:                               # EH_LABEL
	pcalau12i	$a0, %pc_hi20(.L.str.564)
	addi.d	$a1, $a0, %pc_lo12(.L.str.564)
	move	$a0, $s0
	move	$a2, $fp
	jirl	$ra, $a3, 0
.Ltmp179:                               # EH_LABEL
# %bb.34:                               # %invoke.cont789
.Ltmp180:                               # EH_LABEL
	addi.d	$a0, $sp, 744
	addi.d	$a1, $sp, 784
	pcaddu18i	$ra, %call36(_ZNSt7__cxx1112basic_stringIcSt11char_traitsIcESaIcEEC2ERKS4_)
	jirl	$ra, $ra, 0
.Ltmp181:                               # EH_LABEL
# %bb.35:                               # %invoke.cont790
	ld.d	$a0, $s0, 0
	ld.d	$a1, $sp, 744
	ld.d	$a3, $a0, 0
.Ltmp182:                               # EH_LABEL
	move	$a0, $s0
	move	$a2, $fp
	jirl	$ra, $a3, 0
.Ltmp183:                               # EH_LABEL
# %bb.36:                               # %invoke.cont792
	ld.d	$a0, $sp, 744
	addi.d	$a1, $sp, 760
	beq	$a0, $a1, .LBB27_38
# %bb.37:                               # %if.then.i.i
	ld.d	$a1, $sp, 760
	addi.d	$a1, $a1, 1
	pcaddu18i	$ra, %call36(_ZdlPvm)
	jirl	$ra, $ra, 0
.LBB27_38:                              # %_ZNSt7__cxx1112basic_stringIcSt11char_traitsIcESaIcEED2Ev.exit
	ld.d	$a0, $s0, 0
	ld.d	$a3, $a0, 0
.Ltmp185:                               # EH_LABEL
	pcalau12i	$a0, %pc_hi20(.L.str.565)
	addi.d	$a1, $a0, %pc_lo12(.L.str.565)
	move	$a0, $s0
	move	$a2, $fp
	jirl	$ra, $a3, 0
.Ltmp186:                               # EH_LABEL
# %bb.39:                               # %invoke.cont795
	pcalau12i	$a0, %got_pc_hi20(Theargsnumbers)
	ld.d	$a0, $a0, %got_pc_lo12(Theargsnumbers)
	ld.d	$a0, $a0, 0
	ld.d	$a1, $a0, 0
	ld.d	$a3, $a1, 72
.Ltmp187:                               # EH_LABEL
	move	$a1, $s0
	move	$a2, $fp
	jirl	$ra, $a3, 0
.Ltmp188:                               # EH_LABEL
# %bb.40:                               # %invoke.cont796
	ld.d	$a0, $s0, 0
	ld.d	$a3, $a0, 0
.Ltmp189:                               # EH_LABEL
	pcalau12i	$a0, %pc_hi20(.L.str.566)
	addi.d	$a1, $a0, %pc_lo12(.L.str.566)
	move	$a0, $s0
	move	$a2, $fp
	jirl	$ra, $a3, 0
.Ltmp190:                               # EH_LABEL
# %bb.41:                               # %invoke.cont799
.Ltmp191:                               # EH_LABEL
	addi.d	$a0, $sp, 712
	addi.d	$a1, $sp, 784
	pcaddu18i	$ra, %call36(_ZNSt7__cxx1112basic_stringIcSt11char_traitsIcESaIcEEC2ERKS4_)
	jirl	$ra, $ra, 0
.Ltmp192:                               # EH_LABEL
# %bb.42:                               # %invoke.cont801
	ld.d	$a0, $s0, 0
	ld.d	$a1, $sp, 712
	ld.d	$a3, $a0, 0
.Ltmp193:                               # EH_LABEL
	move	$a0, $s0
	move	$a2, $fp
	jirl	$ra, $a3, 0
.Ltmp194:                               # EH_LABEL
# %bb.43:                               # %invoke.cont803
	ld.d	$a0, $sp, 712
	addi.d	$a1, $sp, 728
	beq	$a0, $a1, .LBB27_45
# %bb.44:                               # %if.then.i.i1900
	ld.d	$a1, $sp, 728
	addi.d	$a1, $a1, 1
	pcaddu18i	$ra, %call36(_ZdlPvm)
	jirl	$ra, $ra, 0
.LBB27_45:                              # %_ZNSt7__cxx1112basic_stringIcSt11char_traitsIcESaIcEED2Ev.exit1905
	ld.d	$a0, $s0, 0
	ld.d	$a3, $a0, 0
.Ltmp196:                               # EH_LABEL
	pcalau12i	$a0, %pc_hi20(.L.str.567)
	addi.d	$a1, $a0, %pc_lo12(.L.str.567)
	move	$a0, $s0
	move	$a2, $fp
	jirl	$ra, $a3, 0
.Ltmp197:                               # EH_LABEL
# %bb.46:                               # %invoke.cont806
.Ltmp198:                               # EH_LABEL
	addi.d	$a0, $sp, 680
	addi.d	$a1, $sp, 784
	pcaddu18i	$ra, %call36(_ZNSt7__cxx1112basic_stringIcSt11char_traitsIcESaIcEEC2ERKS4_)
	jirl	$ra, $ra, 0
.Ltmp199:                               # EH_LABEL
# %bb.47:                               # %invoke.cont808
	ld.d	$a0, $s0, 0
	ld.d	$a1, $sp, 680
	ld.d	$a3, $a0, 0
.Ltmp200:                               # EH_LABEL
	move	$a0, $s0
	move	$a2, $fp
	jirl	$ra, $a3, 0
.Ltmp201:                               # EH_LABEL
# %bb.48:                               # %invoke.cont810
	ld.d	$a0, $sp, 680
	addi.d	$a1, $sp, 696
	beq	$a0, $a1, .LBB27_50
# %bb.49:                               # %if.then.i.i1909
	ld.d	$a1, $sp, 696
	addi.d	$a1, $a1, 1
	pcaddu18i	$ra, %call36(_ZdlPvm)
	jirl	$ra, $ra, 0
.LBB27_50:                              # %_ZNSt7__cxx1112basic_stringIcSt11char_traitsIcESaIcEED2Ev.exit1914
	ld.d	$a0, $s0, 0
	ld.d	$a3, $a0, 0
.Ltmp203:                               # EH_LABEL
	pcalau12i	$a0, %pc_hi20(.L.str.568)
	addi.d	$a1, $a0, %pc_lo12(.L.str.568)
	move	$a0, $s0
	move	$a2, $fp
	jirl	$ra, $a3, 0
.Ltmp204:                               # EH_LABEL
# %bb.51:                               # %invoke.cont813
	ld.d	$a0, $s0, 0
	ld.d	$a3, $a0, 0
.Ltmp205:                               # EH_LABEL
	pcalau12i	$a0, %pc_hi20(.L.str.569)
	addi.d	$a1, $a0, %pc_lo12(.L.str.569)
	move	$a0, $s0
	move	$a2, $fp
	jirl	$ra, $a3, 0
.Ltmp206:                               # EH_LABEL
# %bb.52:                               # %invoke.cont816
	ld.d	$a0, $s0, 0
	ld.d	$a3, $a0, 0
.Ltmp207:                               # EH_LABEL
	pcalau12i	$a0, %pc_hi20(.L.str.570)
	addi.d	$a1, $a0, %pc_lo12(.L.str.570)
	move	$a0, $s0
	move	$a2, $fp
	jirl	$ra, $a3, 0
.Ltmp208:                               # EH_LABEL
# %bb.53:                               # %invoke.cont819
	ld.d	$a0, $s0, 0
	ld.d	$a3, $a0, 0
.Ltmp209:                               # EH_LABEL
	pcalau12i	$a0, %pc_hi20(.L.str.571)
	addi.d	$a1, $a0, %pc_lo12(.L.str.571)
	move	$a0, $s0
	move	$a2, $fp
	jirl	$ra, $a3, 0
.Ltmp210:                               # EH_LABEL
# %bb.54:                               # %invoke.cont822
.Ltmp211:                               # EH_LABEL
	addi.d	$a0, $sp, 648
	addi.d	$a1, $sp, 784
	pcaddu18i	$ra, %call36(_ZNSt7__cxx1112basic_stringIcSt11char_traitsIcESaIcEEC2ERKS4_)
	jirl	$ra, $ra, 0
.Ltmp212:                               # EH_LABEL
# %bb.55:                               # %invoke.cont824
	ld.d	$a0, $s0, 0
	ld.d	$a1, $sp, 648
	ld.d	$a3, $a0, 0
.Ltmp213:                               # EH_LABEL
	move	$a0, $s0
	move	$a2, $fp
	jirl	$ra, $a3, 0
.Ltmp214:                               # EH_LABEL
# %bb.56:                               # %invoke.cont826
	ld.d	$a0, $sp, 648
	addi.d	$a1, $sp, 664
	beq	$a0, $a1, .LBB27_58
# %bb.57:                               # %if.then.i.i1918
	ld.d	$a1, $sp, 664
	addi.d	$a1, $a1, 1
	pcaddu18i	$ra, %call36(_ZdlPvm)
	jirl	$ra, $ra, 0
.LBB27_58:                              # %_ZNSt7__cxx1112basic_stringIcSt11char_traitsIcESaIcEED2Ev.exit1923
	ld.d	$a0, $s0, 0
	ld.d	$a3, $a0, 0
.Ltmp216:                               # EH_LABEL
	pcalau12i	$a0, %pc_hi20(.L.str.572)
	addi.d	$a1, $a0, %pc_lo12(.L.str.572)
	move	$a0, $s0
	move	$a2, $fp
	jirl	$ra, $a3, 0
.Ltmp217:                               # EH_LABEL
# %bb.59:                               # %invoke.cont829
.Ltmp218:                               # EH_LABEL
	addi.d	$a0, $sp, 616
	addi.d	$a1, $sp, 784
	pcaddu18i	$ra, %call36(_ZNSt7__cxx1112basic_stringIcSt11char_traitsIcESaIcEEC2ERKS4_)
	jirl	$ra, $ra, 0
.Ltmp219:                               # EH_LABEL
# %bb.60:                               # %invoke.cont831
	ld.d	$a0, $s0, 0
	ld.d	$a1, $sp, 616
	ld.d	$a3, $a0, 0
.Ltmp220:                               # EH_LABEL
	move	$a0, $s0
	move	$a2, $fp
	jirl	$ra, $a3, 0
.Ltmp221:                               # EH_LABEL
# %bb.61:                               # %invoke.cont833
	ld.d	$a0, $sp, 616
	addi.d	$a1, $sp, 632
	beq	$a0, $a1, .LBB27_63
# %bb.62:                               # %if.then.i.i1927
	ld.d	$a1, $sp, 632
	addi.d	$a1, $a1, 1
	pcaddu18i	$ra, %call36(_ZdlPvm)
	jirl	$ra, $ra, 0
.LBB27_63:                              # %_ZNSt7__cxx1112basic_stringIcSt11char_traitsIcESaIcEED2Ev.exit1932
	ld.d	$a0, $s0, 0
	ld.d	$a3, $a0, 0
.Ltmp223:                               # EH_LABEL
	pcalau12i	$a0, %pc_hi20(.L.str.573)
	addi.d	$a1, $a0, %pc_lo12(.L.str.573)
	move	$a0, $s0
	move	$a2, $fp
	jirl	$ra, $a3, 0
.Ltmp224:                               # EH_LABEL
# %bb.64:                               # %invoke.cont836
	ld.d	$a0, $s0, 0
	ld.d	$a3, $a0, 0
.Ltmp225:                               # EH_LABEL
	pcalau12i	$a0, %pc_hi20(.L.str.574)
	addi.d	$a1, $a0, %pc_lo12(.L.str.574)
	move	$a0, $s0
	move	$a2, $fp
	jirl	$ra, $a3, 0
.Ltmp226:                               # EH_LABEL
# %bb.65:                               # %invoke.cont839
.Ltmp227:                               # EH_LABEL
	addi.d	$a0, $sp, 584
	addi.d	$a1, $sp, 784
	pcaddu18i	$ra, %call36(_ZNSt7__cxx1112basic_stringIcSt11char_traitsIcESaIcEEC2ERKS4_)
	jirl	$ra, $ra, 0
.Ltmp228:                               # EH_LABEL
# %bb.66:                               # %invoke.cont841
	ld.d	$a0, $s0, 0
	ld.d	$a1, $sp, 584
	ld.d	$a3, $a0, 0
.Ltmp229:                               # EH_LABEL
	move	$a0, $s0
	move	$a2, $fp
	jirl	$ra, $a3, 0
.Ltmp230:                               # EH_LABEL
# %bb.67:                               # %invoke.cont843
	ld.d	$a0, $sp, 584
	addi.d	$a1, $sp, 600
	beq	$a0, $a1, .LBB27_69
# %bb.68:                               # %if.then.i.i1936
	ld.d	$a1, $sp, 600
	addi.d	$a1, $a1, 1
	pcaddu18i	$ra, %call36(_ZdlPvm)
	jirl	$ra, $ra, 0
.LBB27_69:                              # %_ZNSt7__cxx1112basic_stringIcSt11char_traitsIcESaIcEED2Ev.exit1941
	ld.d	$a0, $s0, 0
	ld.d	$a3, $a0, 0
.Ltmp232:                               # EH_LABEL
	pcalau12i	$a0, %pc_hi20(.L.str.575)
	addi.d	$a1, $a0, %pc_lo12(.L.str.575)
	move	$a0, $s0
	move	$a2, $fp
	jirl	$ra, $a3, 0
.Ltmp233:                               # EH_LABEL
# %bb.70:                               # %invoke.cont846
.Ltmp234:                               # EH_LABEL
	addi.d	$a0, $sp, 552
	addi.d	$a1, $sp, 784
	pcaddu18i	$ra, %call36(_ZNSt7__cxx1112basic_stringIcSt11char_traitsIcESaIcEEC2ERKS4_)
	jirl	$ra, $ra, 0
.Ltmp235:                               # EH_LABEL
# %bb.71:                               # %invoke.cont848
	ld.d	$a0, $s0, 0
	ld.d	$a1, $sp, 552
	ld.d	$a3, $a0, 0
.Ltmp236:                               # EH_LABEL
	move	$a0, $s0
	move	$a2, $fp
	jirl	$ra, $a3, 0
.Ltmp237:                               # EH_LABEL
# %bb.72:                               # %invoke.cont850
	ld.d	$a0, $sp, 552
	addi.d	$a1, $sp, 568
	beq	$a0, $a1, .LBB27_74
# %bb.73:                               # %if.then.i.i1945
	ld.d	$a1, $sp, 568
	addi.d	$a1, $a1, 1
	pcaddu18i	$ra, %call36(_ZdlPvm)
	jirl	$ra, $ra, 0
.LBB27_74:                              # %_ZNSt7__cxx1112basic_stringIcSt11char_traitsIcESaIcEED2Ev.exit1950
	ld.d	$a0, $s0, 0
	ld.d	$a3, $a0, 0
.Ltmp239:                               # EH_LABEL
	pcalau12i	$a0, %pc_hi20(.L.str.576)
	addi.d	$a1, $a0, %pc_lo12(.L.str.576)
	move	$a0, $s0
	move	$a2, $fp
	jirl	$ra, $a3, 0
.Ltmp240:                               # EH_LABEL
# %bb.75:                               # %invoke.cont853
.Ltmp241:                               # EH_LABEL
	addi.d	$a0, $sp, 520
	addi.d	$a1, $sp, 784
	pcaddu18i	$ra, %call36(_ZNSt7__cxx1112basic_stringIcSt11char_traitsIcESaIcEEC2ERKS4_)
	jirl	$ra, $ra, 0
.Ltmp242:                               # EH_LABEL
# %bb.76:                               # %invoke.cont855
	ld.d	$a0, $s0, 0
	ld.d	$a1, $sp, 520
	ld.d	$a3, $a0, 0
.Ltmp243:                               # EH_LABEL
	move	$a0, $s0
	move	$a2, $fp
	jirl	$ra, $a3, 0
.Ltmp244:                               # EH_LABEL
# %bb.77:                               # %invoke.cont857
	ld.d	$a0, $sp, 520
	addi.d	$a1, $sp, 536
	beq	$a0, $a1, .LBB27_79
# %bb.78:                               # %if.then.i.i1954
	ld.d	$a1, $sp, 536
	addi.d	$a1, $a1, 1
	pcaddu18i	$ra, %call36(_ZdlPvm)
	jirl	$ra, $ra, 0
.LBB27_79:                              # %_ZNSt7__cxx1112basic_stringIcSt11char_traitsIcESaIcEED2Ev.exit1959
	ld.d	$a0, $s0, 0
	ld.d	$a3, $a0, 0
.Ltmp246:                               # EH_LABEL
	pcalau12i	$a0, %pc_hi20(.L.str.577)
	addi.d	$a1, $a0, %pc_lo12(.L.str.577)
	move	$a0, $s0
	move	$a2, $fp
	jirl	$ra, $a3, 0
.Ltmp247:                               # EH_LABEL
# %bb.80:                               # %invoke.cont860
	ld.d	$a0, $s0, 0
	ld.d	$a3, $a0, 0
.Ltmp248:                               # EH_LABEL
	pcalau12i	$a0, %pc_hi20(.L.str.578)
	addi.d	$a1, $a0, %pc_lo12(.L.str.578)
	move	$a0, $s0
	move	$a2, $fp
	jirl	$ra, $a3, 0
.Ltmp249:                               # EH_LABEL
# %bb.81:                               # %invoke.cont863
.Ltmp250:                               # EH_LABEL
	addi.d	$a0, $sp, 488
	addi.d	$a1, $sp, 784
	pcaddu18i	$ra, %call36(_ZNSt7__cxx1112basic_stringIcSt11char_traitsIcESaIcEEC2ERKS4_)
	jirl	$ra, $ra, 0
.Ltmp251:                               # EH_LABEL
# %bb.82:                               # %invoke.cont865
	ld.d	$a0, $s0, 0
	ld.d	$a1, $sp, 488
	ld.d	$a3, $a0, 0
.Ltmp252:                               # EH_LABEL
	move	$a0, $s0
	move	$a2, $fp
	jirl	$ra, $a3, 0
.Ltmp253:                               # EH_LABEL
# %bb.83:                               # %invoke.cont867
	ld.d	$a0, $sp, 488
	addi.d	$a1, $sp, 504
	beq	$a0, $a1, .LBB27_85
# %bb.84:                               # %if.then.i.i1963
	ld.d	$a1, $sp, 504
	addi.d	$a1, $a1, 1
	pcaddu18i	$ra, %call36(_ZdlPvm)
	jirl	$ra, $ra, 0
.LBB27_85:                              # %_ZNSt7__cxx1112basic_stringIcSt11char_traitsIcESaIcEED2Ev.exit1968
	ld.d	$a0, $s0, 0
	ld.d	$a3, $a0, 0
.Ltmp255:                               # EH_LABEL
	pcalau12i	$a0, %pc_hi20(.L.str.579)
	addi.d	$a1, $a0, %pc_lo12(.L.str.579)
	move	$a0, $s0
	move	$a2, $fp
	jirl	$ra, $a3, 0
.Ltmp256:                               # EH_LABEL
# %bb.86:                               # %invoke.cont870
	ld.d	$a0, $s0, 0
	ld.d	$a3, $a0, 0
.Ltmp257:                               # EH_LABEL
	pcalau12i	$a0, %pc_hi20(.L.str.580)
	addi.d	$a1, $a0, %pc_lo12(.L.str.580)
	move	$a0, $s0
	move	$a2, $fp
	jirl	$ra, $a3, 0
.Ltmp258:                               # EH_LABEL
# %bb.87:                               # %invoke.cont873
	ld.d	$a0, $s0, 0
	ld.d	$a3, $a0, 0
.Ltmp259:                               # EH_LABEL
	pcalau12i	$a0, %pc_hi20(.L.str.581)
	addi.d	$a1, $a0, %pc_lo12(.L.str.581)
	move	$a0, $s0
	move	$a2, $fp
	jirl	$ra, $a3, 0
.Ltmp260:                               # EH_LABEL
# %bb.88:                               # %invoke.cont876
	ld.d	$a0, $s0, 0
	ld.d	$a3, $a0, 0
.Ltmp261:                               # EH_LABEL
	pcalau12i	$a0, %pc_hi20(.L.str.582)
	addi.d	$a1, $a0, %pc_lo12(.L.str.582)
	move	$a0, $s0
	move	$a2, $fp
	jirl	$ra, $a3, 0
.Ltmp262:                               # EH_LABEL
# %bb.89:                               # %invoke.cont879
	ld.d	$a0, $s0, 0
	ld.d	$a3, $a0, 0
.Ltmp263:                               # EH_LABEL
	pcalau12i	$a0, %pc_hi20(.L.str.583)
	addi.d	$a1, $a0, %pc_lo12(.L.str.583)
	move	$a0, $s0
	move	$a2, $fp
	jirl	$ra, $a3, 0
.Ltmp264:                               # EH_LABEL
# %bb.90:                               # %invoke.cont882
	ld.d	$a0, $s0, 0
	ld.d	$a3, $a0, 0
.Ltmp265:                               # EH_LABEL
	pcalau12i	$a0, %pc_hi20(.L.str.584)
	addi.d	$a1, $a0, %pc_lo12(.L.str.584)
	move	$a0, $s0
	move	$a2, $fp
	jirl	$ra, $a3, 0
.Ltmp266:                               # EH_LABEL
# %bb.91:                               # %invoke.cont885
	ld.d	$a0, $s0, 0
	ld.d	$a3, $a0, 0
.Ltmp267:                               # EH_LABEL
	pcalau12i	$a0, %pc_hi20(.L.str.585)
	addi.d	$a1, $a0, %pc_lo12(.L.str.585)
	move	$a0, $s0
	move	$a2, $fp
	jirl	$ra, $a3, 0
.Ltmp268:                               # EH_LABEL
# %bb.92:                               # %invoke.cont888
	ld.d	$a0, $s0, 0
	ld.d	$a3, $a0, 0
.Ltmp269:                               # EH_LABEL
	pcalau12i	$a0, %pc_hi20(.L.str.586)
	addi.d	$a1, $a0, %pc_lo12(.L.str.586)
	move	$a0, $s0
	move	$a2, $fp
	jirl	$ra, $a3, 0
.Ltmp270:                               # EH_LABEL
# %bb.93:                               # %invoke.cont891
.Ltmp271:                               # EH_LABEL
	addi.d	$a0, $sp, 456
	addi.d	$a1, $sp, 784
	pcaddu18i	$ra, %call36(_ZNSt7__cxx1112basic_stringIcSt11char_traitsIcESaIcEEC2ERKS4_)
	jirl	$ra, $ra, 0
.Ltmp272:                               # EH_LABEL
# %bb.94:                               # %invoke.cont893
	ld.d	$a0, $s0, 0
	ld.d	$a1, $sp, 456
	ld.d	$a3, $a0, 0
.Ltmp273:                               # EH_LABEL
	move	$a0, $s0
	move	$a2, $fp
	jirl	$ra, $a3, 0
.Ltmp274:                               # EH_LABEL
# %bb.95:                               # %invoke.cont895
	ld.d	$a0, $sp, 456
	addi.d	$a1, $sp, 472
	beq	$a0, $a1, .LBB27_97
# %bb.96:                               # %if.then.i.i1972
	ld.d	$a1, $sp, 472
	addi.d	$a1, $a1, 1
	pcaddu18i	$ra, %call36(_ZdlPvm)
	jirl	$ra, $ra, 0
.LBB27_97:                              # %_ZNSt7__cxx1112basic_stringIcSt11char_traitsIcESaIcEED2Ev.exit1977
	ld.d	$a0, $s0, 0
	ld.d	$a3, $a0, 0
.Ltmp276:                               # EH_LABEL
	pcalau12i	$a0, %pc_hi20(.L.str.587)
	addi.d	$a1, $a0, %pc_lo12(.L.str.587)
	move	$a0, $s0
	move	$a2, $fp
	jirl	$ra, $a3, 0
.Ltmp277:                               # EH_LABEL
# %bb.98:                               # %invoke.cont898
	ld.d	$a0, $s0, 0
	ld.d	$a3, $a0, 0
.Ltmp278:                               # EH_LABEL
	pcalau12i	$a0, %pc_hi20(.L.str.588)
	addi.d	$a1, $a0, %pc_lo12(.L.str.588)
	move	$a0, $s0
	move	$a2, $fp
	jirl	$ra, $a3, 0
.Ltmp279:                               # EH_LABEL
# %bb.99:                               # %invoke.cont901
	ld.d	$a0, $s0, 0
	ld.d	$a3, $a0, 0
.Ltmp280:                               # EH_LABEL
	pcalau12i	$a0, %pc_hi20(.L.str.589)
	addi.d	$a1, $a0, %pc_lo12(.L.str.589)
	move	$a0, $s0
	move	$a2, $fp
	jirl	$ra, $a3, 0
.Ltmp281:                               # EH_LABEL
# %bb.100:                              # %invoke.cont904
	ld.d	$a0, $s0, 0
	ld.d	$a3, $a0, 0
.Ltmp282:                               # EH_LABEL
	pcalau12i	$a0, %pc_hi20(.L.str.590)
	addi.d	$a1, $a0, %pc_lo12(.L.str.590)
	move	$a0, $s0
	move	$a2, $fp
	jirl	$ra, $a3, 0
.Ltmp283:                               # EH_LABEL
# %bb.101:                              # %invoke.cont907
	ld.d	$a0, $s0, 0
	ld.d	$a3, $a0, 0
.Ltmp284:                               # EH_LABEL
	pcalau12i	$a0, %pc_hi20(.L.str.591)
	addi.d	$a1, $a0, %pc_lo12(.L.str.591)
	move	$a0, $s0
	move	$a2, $fp
	jirl	$ra, $a3, 0
.Ltmp285:                               # EH_LABEL
# %bb.102:                              # %invoke.cont910
	ld.d	$a0, $s0, 0
	ld.d	$a3, $a0, 0
.Ltmp286:                               # EH_LABEL
	pcalau12i	$a0, %pc_hi20(.L.str.592)
	addi.d	$a1, $a0, %pc_lo12(.L.str.592)
	move	$a0, $s0
	move	$a2, $fp
	jirl	$ra, $a3, 0
.Ltmp287:                               # EH_LABEL
# %bb.103:                              # %invoke.cont913
	ld.bu	$a0, $s1, 72
	beqz	$a0, .LBB27_105
# %bb.104:                              # %if.then915
	ld.d	$a0, $s0, 0
	ld.d	$a3, $a0, 0
.Ltmp288:                               # EH_LABEL
	pcalau12i	$a0, %pc_hi20(.L.str.593)
	addi.d	$a1, $a0, %pc_lo12(.L.str.593)
	move	$a0, $s0
	move	$a2, $fp
	jirl	$ra, $a3, 0
.Ltmp289:                               # EH_LABEL
.LBB27_105:                             # %if.end919
	ld.d	$a0, $s0, 0
	ld.d	$a3, $a0, 0
.Ltmp290:                               # EH_LABEL
	pcalau12i	$a0, %pc_hi20(.L.str.594)
	addi.d	$a1, $a0, %pc_lo12(.L.str.594)
	move	$a0, $s0
	move	$a2, $fp
	jirl	$ra, $a3, 0
.Ltmp291:                               # EH_LABEL
	b	.LBB27_339
.LBB27_106:                             # %sw.bb930
	ld.d	$a0, $s0, 0
	ld.d	$a3, $a0, 0
	pcalau12i	$a0, %pc_hi20(.L.str.519)
	addi.d	$a1, $a0, %pc_lo12(.L.str.519)
	move	$a0, $s0
	move	$a2, $fp
	jirl	$ra, $a3, 0
	pcalau12i	$a0, %got_pc_hi20(Thefnfiles)
	ld.d	$a0, $a0, %got_pc_lo12(Thefnfiles)
	ld.d	$a0, $a0, 0
	ld.d	$a1, $a0, 0
	ld.d	$a3, $a1, 72
	move	$a1, $s0
	move	$a2, $fp
	jirl	$ra, $a3, 0
	ld.d	$a0, $s0, 0
	ld.d	$a3, $a0, 0
	pcalau12i	$a0, %pc_hi20(.L.str.520)
	addi.d	$a1, $a0, %pc_lo12(.L.str.520)
	move	$a0, $s0
	move	$a2, $fp
	jirl	$ra, $a3, 0
	ld.d	$a0, $s0, 0
	ld.d	$a3, $a0, 0
	pcalau12i	$a0, %got_pc_hi20(kimwitu_copyright)
	ld.d	$a1, $a0, %got_pc_lo12(kimwitu_copyright)
	move	$a0, $s0
	move	$a2, $fp
	jirl	$ra, $a3, 0
	ld.d	$a0, $s0, 0
	ld.d	$a3, $a0, 0
	pcalau12i	$a0, %pc_hi20(.L.str.596)
	addi.d	$a1, $a0, %pc_lo12(.L.str.596)
	b	.LBB27_370
.LBB27_107:                             # %sw.bb651
	ld.d	$a0, $s0, 0
	ld.d	$a3, $a0, 0
	pcalau12i	$a0, %pc_hi20(.L.str.519)
	addi.d	$a1, $a0, %pc_lo12(.L.str.519)
	move	$a0, $s0
	move	$a2, $fp
	jirl	$ra, $a3, 0
	pcalau12i	$a0, %got_pc_hi20(Thefnfiles)
	ld.d	$a0, $a0, %got_pc_lo12(Thefnfiles)
	ld.d	$a0, $a0, 0
	ld.d	$a1, $a0, 0
	ld.d	$a3, $a1, 72
	move	$a1, $s0
	move	$a2, $fp
	jirl	$ra, $a3, 0
	ld.d	$a0, $s0, 0
	ld.d	$a3, $a0, 0
	pcalau12i	$a0, %pc_hi20(.L.str.520)
	addi.d	$a1, $a0, %pc_lo12(.L.str.520)
	move	$a0, $s0
	move	$a2, $fp
	jirl	$ra, $a3, 0
	ld.d	$a0, $s0, 0
	ld.d	$a3, $a0, 0
	pcalau12i	$a0, %got_pc_hi20(kimwitu_copyright)
	ld.d	$a1, $a0, %got_pc_lo12(kimwitu_copyright)
	move	$a0, $s0
	move	$a2, $fp
	jirl	$ra, $a3, 0
	ld.d	$a0, $s0, 0
	ld.d	$a3, $a0, 0
	pcalau12i	$a0, %pc_hi20(.L.str.544)
	addi.d	$a1, $a0, %pc_lo12(.L.str.544)
	b	.LBB27_370
.LBB27_108:                             # %sw.bb1441
	ld.d	$a0, $s0, 0
	ld.d	$a3, $a0, 0
	pcalau12i	$a0, %pc_hi20(.L.str.809)
	addi.d	$a1, $a0, %pc_lo12(.L.str.809)
	b	.LBB27_370
.LBB27_109:                             # %sw.bb1497
	move	$s3, $a0
	ld.d	$s1, $a0, 8
	pcalau12i	$a0, %got_pc_hi20(Thestorageclasses)
	ld.d	$s2, $a0, %got_pc_lo12(Thestorageclasses)
	ld.d	$a0, $s2, 0
	ld.d	$a1, $a0, 0
	ld.d	$a3, $a1, 72
	pcalau12i	$a1, %pc_hi20(_ZN2kc25view_gen_operatordefs_c_0E)
	addi.d	$a2, $a1, %pc_lo12(_ZN2kc25view_gen_operatordefs_c_0E)
	move	$a1, $s0
	jirl	$ra, $a3, 0
	ld.d	$a0, $s0, 0
	ld.d	$a3, $a0, 0
	pcalau12i	$a0, %pc_hi20(.L.str.821)
	addi.d	$a1, $a0, %pc_lo12(.L.str.821)
	move	$a0, $s0
	move	$a2, $fp
	jirl	$ra, $a3, 0
	ld.d	$a0, $s2, 0
	ld.d	$a1, $a0, 0
	ld.d	$a3, $a1, 72
	pcalau12i	$a1, %pc_hi20(_ZN2kc25view_gen_operatordefs_c_1E)
	addi.d	$a2, $a1, %pc_lo12(_ZN2kc25view_gen_operatordefs_c_1E)
	move	$a1, $s0
	jirl	$ra, $a3, 0
	ld.d	$a0, $s0, 0
	ld.d	$a3, $a0, 0
	pcalau12i	$a0, %pc_hi20(.L.str.822)
	addi.d	$a1, $a0, %pc_lo12(.L.str.822)
	move	$a0, $s0
	move	$a2, $fp
	jirl	$ra, $a3, 0
	ld.d	$a0, $s2, 0
	ld.d	$a1, $a0, 0
	ld.d	$a3, $a1, 72
	pcalau12i	$a1, %pc_hi20(_ZN2kc25view_gen_operatordefs_c_2E)
	addi.d	$a2, $a1, %pc_lo12(_ZN2kc25view_gen_operatordefs_c_2E)
	move	$a1, $s0
	jirl	$ra, $a3, 0
	ld.d	$a0, $s0, 0
	ld.d	$a3, $a0, 0
	pcalau12i	$a0, %pc_hi20(.L.str.823)
	addi.d	$a1, $a0, %pc_lo12(.L.str.823)
	move	$a0, $s0
	move	$a2, $fp
	jirl	$ra, $a3, 0
	ld.d	$a0, $s2, 0
	ld.d	$a1, $a0, 0
	ld.d	$a3, $a1, 72
	move	$a1, $s0
	move	$a2, $fp
	jirl	$ra, $a3, 0
	ld.d	$a0, $s0, 0
	ld.d	$a3, $a0, 0
	pcalau12i	$a0, %pc_hi20(.L.str.824)
	addi.d	$a1, $a0, %pc_lo12(.L.str.824)
	move	$a0, $s0
	move	$a2, $fp
	jirl	$ra, $a3, 0
	ld.d	$a0, $s1, 0
	ld.d	$a3, $a0, 72
	pcalau12i	$a0, %pc_hi20(_ZN2kc26view_gen_initializephyla_cE)
	addi.d	$a2, $a0, %pc_lo12(_ZN2kc26view_gen_initializephyla_cE)
	move	$a0, $s1
	move	$a1, $s0
	jirl	$ra, $a3, 0
	ld.d	$a0, $s0, 0
	ld.d	$a3, $a0, 0
	pcalau12i	$a0, %pc_hi20(.L.str.825)
	addi.d	$a1, $a0, %pc_lo12(.L.str.825)
	move	$a0, $s0
	move	$a2, $fp
	jirl	$ra, $a3, 0
	ld.d	$a0, $s0, 0
	ld.d	$a3, $a0, 0
	pcalau12i	$a0, %pc_hi20(.L.str.826)
	addi.d	$a1, $a0, %pc_lo12(.L.str.826)
	move	$a0, $s0
	move	$a2, $fp
	jirl	$ra, $a3, 0
	ld.d	$a0, $s0, 0
	ld.d	$a3, $a0, 0
	pcalau12i	$a0, %pc_hi20(.L.str.827)
	addi.d	$a1, $a0, %pc_lo12(.L.str.827)
	move	$a0, $s0
	move	$a2, $fp
	jirl	$ra, $a3, 0
	pcalau12i	$a0, %got_pc_hi20(g_options)
	ld.d	$s2, $a0, %got_pc_lo12(g_options)
	ld.bu	$a0, $s2, 72
	beqz	$a0, .LBB27_111
# %bb.110:                              # %if.then1516
	ld.d	$a0, $s0, 0
	ld.d	$a3, $a0, 0
	pcalau12i	$a0, %pc_hi20(.L.str.563)
	addi.d	$a1, $a0, %pc_lo12(.L.str.563)
	move	$a0, $s0
	move	$a2, $fp
	jirl	$ra, $a3, 0
.LBB27_111:                             # %if.end1519
	ld.d	$a0, $s0, 0
	ld.d	$a3, $a0, 0
	pcalau12i	$a0, %pc_hi20(.L.str.828)
	addi.d	$a1, $a0, %pc_lo12(.L.str.828)
	move	$a0, $s0
	move	$a2, $fp
	jirl	$ra, $a3, 0
	ld.d	$a0, $s0, 0
	ld.d	$a3, $a0, 0
	pcalau12i	$a0, %pc_hi20(.L.str.829)
	addi.d	$a1, $a0, %pc_lo12(.L.str.829)
	move	$a0, $s0
	move	$a2, $fp
	jirl	$ra, $a3, 0
	ld.bu	$a0, $s2, 72
	bnez	$a0, .LBB27_113
# %bb.112:                              # %if.then1525
	ld.d	$a0, $s0, 0
	ld.d	$a3, $a0, 0
	pcalau12i	$a0, %pc_hi20(.L.str.830)
	addi.d	$a1, $a0, %pc_lo12(.L.str.830)
	move	$a0, $s0
	move	$a2, $fp
	jirl	$ra, $a3, 0
.LBB27_113:                             # %if.end1528
	ld.d	$a0, $s0, 0
	ld.d	$a3, $a0, 0
	pcalau12i	$a0, %pc_hi20(.L.str.831)
	addi.d	$a1, $a0, %pc_lo12(.L.str.831)
	move	$a0, $s0
	move	$a2, $fp
	jirl	$ra, $a3, 0
	ld.d	$a0, $s0, 0
	ld.d	$a3, $a0, 0
	pcalau12i	$a0, %pc_hi20(.L.str.832)
	addi.d	$a1, $a0, %pc_lo12(.L.str.832)
	move	$a0, $s0
	move	$a2, $fp
	jirl	$ra, $a3, 0
	ld.bu	$a0, $s2, 72
	beqz	$a0, .LBB27_115
# %bb.114:                              # %if.then1534
	ld.d	$a0, $s0, 0
	ld.d	$a3, $a0, 0
	pcalau12i	$a0, %pc_hi20(.L.str.563)
	addi.d	$a1, $a0, %pc_lo12(.L.str.563)
	move	$a0, $s0
	move	$a2, $fp
	jirl	$ra, $a3, 0
.LBB27_115:                             # %if.end1537
	ld.d	$a0, $s0, 0
	ld.d	$a3, $a0, 0
	pcalau12i	$a0, %pc_hi20(.L.str.833)
	addi.d	$a1, $a0, %pc_lo12(.L.str.833)
	move	$a0, $s0
	move	$a2, $fp
	jirl	$ra, $a3, 0
	ld.d	$a0, $s0, 0
	ld.d	$a3, $a0, 0
	pcalau12i	$a0, %pc_hi20(.L.str.834)
	addi.d	$a1, $a0, %pc_lo12(.L.str.834)
	move	$a0, $s0
	move	$a2, $fp
	jirl	$ra, $a3, 0
	ld.bu	$a0, $s2, 72
	bnez	$a0, .LBB27_117
# %bb.116:                              # %if.then1543
	ld.d	$a0, $s0, 0
	ld.d	$a3, $a0, 0
	pcalau12i	$a0, %pc_hi20(.L.str.830)
	addi.d	$a1, $a0, %pc_lo12(.L.str.830)
	move	$a0, $s0
	move	$a2, $fp
	jirl	$ra, $a3, 0
.LBB27_117:                             # %if.end1546
	ld.d	$a0, $s0, 0
	ld.d	$a3, $a0, 0
	pcalau12i	$a0, %pc_hi20(.L.str.835)
	addi.d	$a1, $a0, %pc_lo12(.L.str.835)
	move	$a0, $s0
	move	$a2, $fp
	jirl	$ra, $a3, 0
	ld.d	$a0, $s0, 0
	ld.d	$a3, $a0, 0
	pcalau12i	$a0, %pc_hi20(.L.str.836)
	addi.d	$a1, $a0, %pc_lo12(.L.str.836)
	move	$a0, $s0
	move	$a2, $fp
	jirl	$ra, $a3, 0
	ld.d	$a0, $s0, 0
	ld.d	$a3, $a0, 0
	pcalau12i	$a0, %pc_hi20(.L.str.837)
	addi.d	$a1, $a0, %pc_lo12(.L.str.837)
	move	$a0, $s0
	move	$a2, $fp
	jirl	$ra, $a3, 0
	ld.bu	$a0, $s2, 72
	bnez	$a0, .LBB27_119
# %bb.118:                              # %if.then1554
	ld.d	$a0, $s0, 0
	ld.d	$a3, $a0, 0
	pcalau12i	$a0, %pc_hi20(.L.str.830)
	addi.d	$a1, $a0, %pc_lo12(.L.str.830)
	move	$a0, $s0
	move	$a2, $fp
	jirl	$ra, $a3, 0
.LBB27_119:                             # %if.end1557
	ld.d	$a0, $s0, 0
	ld.d	$a3, $a0, 0
	pcalau12i	$a0, %pc_hi20(.L.str.838)
	addi.d	$a1, $a0, %pc_lo12(.L.str.838)
	move	$a0, $s0
	move	$a2, $fp
	jirl	$ra, $a3, 0
	ld.d	$a0, $s0, 0
	ld.d	$a3, $a0, 0
	pcalau12i	$a0, %pc_hi20(.L.str.839)
	addi.d	$a1, $a0, %pc_lo12(.L.str.839)
	move	$a0, $s0
	move	$a2, $fp
	jirl	$ra, $a3, 0
	ld.bu	$a0, $s2, 72
	bnez	$a0, .LBB27_121
# %bb.120:                              # %if.then1563
	ld.d	$a0, $s0, 0
	ld.d	$a3, $a0, 0
	pcalau12i	$a0, %pc_hi20(.L.str.830)
	addi.d	$a1, $a0, %pc_lo12(.L.str.830)
	move	$a0, $s0
	move	$a2, $fp
	jirl	$ra, $a3, 0
.LBB27_121:                             # %if.end1566
	ld.d	$a0, $s0, 0
	ld.d	$a3, $a0, 0
	pcalau12i	$a0, %pc_hi20(.L.str.840)
	addi.d	$a1, $a0, %pc_lo12(.L.str.840)
	move	$a0, $s0
	move	$a2, $fp
	jirl	$ra, $a3, 0
	ld.d	$a0, $s0, 0
	ld.d	$a3, $a0, 0
	pcalau12i	$a0, %pc_hi20(.L.str.841)
	addi.d	$a1, $a0, %pc_lo12(.L.str.841)
	move	$a0, $s0
	move	$a2, $fp
	jirl	$ra, $a3, 0
	ld.d	$a0, $s0, 0
	ld.d	$a3, $a0, 0
	pcalau12i	$a0, %pc_hi20(.L.str.842)
	addi.d	$a1, $a0, %pc_lo12(.L.str.842)
	move	$a0, $s0
	move	$a2, $fp
	jirl	$ra, $a3, 0
	ld.bu	$a0, $s2, 72
	bnez	$a0, .LBB27_123
# %bb.122:                              # %if.then1574
	ld.d	$a0, $s0, 0
	ld.d	$a3, $a0, 0
	pcalau12i	$a0, %pc_hi20(.L.str.830)
	addi.d	$a1, $a0, %pc_lo12(.L.str.830)
	move	$a0, $s0
	move	$a2, $fp
	jirl	$ra, $a3, 0
.LBB27_123:                             # %if.end1577
	ld.d	$a0, $s0, 0
	ld.d	$a3, $a0, 0
	pcalau12i	$a0, %pc_hi20(.L.str.843)
	addi.d	$a1, $a0, %pc_lo12(.L.str.843)
	move	$a0, $s0
	move	$a2, $fp
	jirl	$ra, $a3, 0
	ld.d	$a0, $s1, 0
	ld.d	$a3, $a0, 72
	move	$a0, $s1
	move	$a1, $s0
	move	$a2, $fp
	jirl	$ra, $a3, 0
	move	$a0, $s3
	ld.d	$a1, $s3, 0
	ld.d	$a3, $a1, 72
	pcalau12i	$a1, %pc_hi20(_ZN2kc25view_gen_access_functionsE)
	addi.d	$a2, $a1, %pc_lo12(_ZN2kc25view_gen_access_functionsE)
	move	$a1, $s0
	jirl	$ra, $a3, 0
	ld.d	$a0, $s0, 0
	ld.d	$a3, $a0, 0
	pcalau12i	$a0, %pc_hi20(.L.str.844)
	addi.d	$a1, $a0, %pc_lo12(.L.str.844)
	move	$a0, $s0
	move	$a2, $fp
	jirl	$ra, $a3, 0
	ld.d	$a0, $s0, 0
	ld.d	$a3, $a0, 0
	pcalau12i	$a0, %pc_hi20(.L.str.845)
	addi.d	$a1, $a0, %pc_lo12(.L.str.845)
	move	$a0, $s0
	move	$a2, $fp
	jirl	$ra, $a3, 0
	ld.bu	$a0, $s2, 72
	beqz	$a0, .LBB27_125
# %bb.124:                              # %if.then1585
	ld.d	$a0, $s0, 0
	ld.d	$a3, $a0, 0
	pcalau12i	$a0, %pc_hi20(.L.str.846)
	addi.d	$a1, $a0, %pc_lo12(.L.str.846)
	move	$a0, $s0
	move	$a2, $fp
	jirl	$ra, $a3, 0
.LBB27_125:                             # %if.end1588
	ld.d	$a0, $s0, 0
	ld.d	$a3, $a0, 0
	pcalau12i	$a0, %pc_hi20(.L.str.847)
	addi.d	$a1, $a0, %pc_lo12(.L.str.847)
	move	$a0, $s0
	move	$a2, $fp
	jirl	$ra, $a3, 0
	ld.d	$a0, $s0, 0
	ld.bu	$a1, $s2, 72
	ld.d	$a3, $a0, 0
	pcalau12i	$a0, %pc_hi20(.L.str.849)
	addi.d	$a0, $a0, %pc_lo12(.L.str.849)
	masknez	$a0, $a0, $a1
	pcalau12i	$a2, %pc_hi20(.L.str.848)
	addi.d	$a2, $a2, %pc_lo12(.L.str.848)
	maskeqz	$a1, $a2, $a1
	or	$a1, $a1, $a0
	move	$a0, $s0
	move	$a2, $fp
	jirl	$ra, $a3, 0
	ld.d	$a0, $s0, 0
	ld.d	$a3, $a0, 0
	pcalau12i	$a0, %pc_hi20(.L.str.850)
	addi.d	$a1, $a0, %pc_lo12(.L.str.850)
	move	$a0, $s0
	move	$a2, $fp
	jirl	$ra, $a3, 0
	ld.bu	$a0, $s2, 72
	bnez	$a0, .LBB27_127
# %bb.126:                              # %if.then1602
	ld.d	$a0, $s0, 0
	ld.d	$a3, $a0, 0
	pcalau12i	$a0, %pc_hi20(.L.str.851)
	addi.d	$a1, $a0, %pc_lo12(.L.str.851)
	move	$a0, $s0
	move	$a2, $fp
	jirl	$ra, $a3, 0
.LBB27_127:                             # %if.end1605
	ld.d	$a0, $s0, 0
	ld.d	$a3, $a0, 0
	pcalau12i	$a0, %pc_hi20(.L.str.852)
	addi.d	$a1, $a0, %pc_lo12(.L.str.852)
	move	$a0, $s0
	move	$a2, $fp
	jirl	$ra, $a3, 0
	ld.d	$a0, $s0, 0
	ld.d	$a3, $a0, 0
	pcalau12i	$a0, %pc_hi20(.L.str.853)
	addi.d	$a1, $a0, %pc_lo12(.L.str.853)
	move	$a0, $s0
	move	$a2, $fp
	jirl	$ra, $a3, 0
	ld.d	$a0, $s0, 0
	ld.d	$a3, $a0, 0
	pcalau12i	$a0, %pc_hi20(.L.str.854)
	addi.d	$a1, $a0, %pc_lo12(.L.str.854)
	move	$a0, $s0
	move	$a2, $fp
	jirl	$ra, $a3, 0
	ld.d	$a0, $s0, 0
	ld.d	$a3, $a0, 0
	pcalau12i	$a0, %pc_hi20(.L.str.855)
	addi.d	$a1, $a0, %pc_lo12(.L.str.855)
	move	$a0, $s0
	move	$a2, $fp
	jirl	$ra, $a3, 0
	ld.d	$a0, $s0, 0
	ld.d	$a3, $a0, 0
	pcalau12i	$a0, %pc_hi20(.L.str.856)
	addi.d	$a1, $a0, %pc_lo12(.L.str.856)
	move	$a0, $s0
	move	$a2, $fp
	jirl	$ra, $a3, 0
	ld.d	$a0, $s0, 0
	ld.d	$a3, $a0, 0
	pcalau12i	$a0, %pc_hi20(.L.str.857)
	addi.d	$a1, $a0, %pc_lo12(.L.str.857)
	move	$a0, $s0
	move	$a2, $fp
	jirl	$ra, $a3, 0
	ld.d	$a0, $s0, 0
	ld.d	$a3, $a0, 0
	pcalau12i	$a0, %pc_hi20(.L.str.858)
	addi.d	$a1, $a0, %pc_lo12(.L.str.858)
	move	$a0, $s0
	move	$a2, $fp
	jirl	$ra, $a3, 0
	ld.d	$a0, $s0, 0
	ld.d	$a3, $a0, 0
	pcalau12i	$a0, %pc_hi20(.L.str.859)
	addi.d	$a1, $a0, %pc_lo12(.L.str.859)
	move	$a0, $s0
	move	$a2, $fp
	jirl	$ra, $a3, 0
	ld.d	$a0, $s0, 0
	ld.d	$a3, $a0, 0
	pcalau12i	$a0, %pc_hi20(.L.str.860)
	addi.d	$a1, $a0, %pc_lo12(.L.str.860)
	move	$a0, $s0
	move	$a2, $fp
	jirl	$ra, $a3, 0
	ld.d	$a0, $s0, 0
	ld.d	$a3, $a0, 0
	pcalau12i	$a0, %pc_hi20(.L.str.861)
	addi.d	$a1, $a0, %pc_lo12(.L.str.861)
	move	$a0, $s0
	move	$a2, $fp
	jirl	$ra, $a3, 0
	ld.d	$a0, $s0, 0
	ld.d	$a3, $a0, 0
	pcalau12i	$a0, %pc_hi20(.L.str.862)
	addi.d	$a1, $a0, %pc_lo12(.L.str.862)
	move	$a0, $s0
	move	$a2, $fp
	jirl	$ra, $a3, 0
	ld.d	$a0, $s0, 0
	ld.d	$a3, $a0, 0
	pcalau12i	$a0, %pc_hi20(.L.str.863)
	addi.d	$a1, $a0, %pc_lo12(.L.str.863)
	move	$a0, $s0
	move	$a2, $fp
	jirl	$ra, $a3, 0
	ld.d	$a0, $s0, 0
	ld.d	$a3, $a0, 0
	pcalau12i	$a0, %pc_hi20(.L.str.864)
	addi.d	$a1, $a0, %pc_lo12(.L.str.864)
	move	$a0, $s0
	move	$a2, $fp
	jirl	$ra, $a3, 0
	ld.d	$a0, $s0, 0
	ld.d	$a3, $a0, 0
	pcalau12i	$a0, %pc_hi20(.L.str.865)
	addi.d	$a1, $a0, %pc_lo12(.L.str.865)
	move	$a0, $s0
	move	$a2, $fp
	jirl	$ra, $a3, 0
	ld.d	$a0, $s0, 0
	ld.d	$a3, $a0, 0
	pcalau12i	$a0, %pc_hi20(.L.str.866)
	addi.d	$a1, $a0, %pc_lo12(.L.str.866)
	move	$a0, $s0
	move	$a2, $fp
	jirl	$ra, $a3, 0
	ld.d	$a0, $s0, 0
	ld.d	$a3, $a0, 0
	pcalau12i	$a0, %pc_hi20(.L.str.867)
	addi.d	$a1, $a0, %pc_lo12(.L.str.867)
	move	$a0, $s0
	move	$a2, $fp
	jirl	$ra, $a3, 0
	ld.d	$a0, $s0, 0
	ld.d	$a3, $a0, 0
	pcalau12i	$a0, %pc_hi20(.L.str.868)
	addi.d	$a1, $a0, %pc_lo12(.L.str.868)
	move	$a0, $s0
	move	$a2, $fp
	jirl	$ra, $a3, 0
	ld.d	$a0, $s0, 0
	ld.d	$a3, $a0, 0
	pcalau12i	$a0, %pc_hi20(.L.str.869)
	addi.d	$a1, $a0, %pc_lo12(.L.str.869)
	move	$a0, $s0
	move	$a2, $fp
	jirl	$ra, $a3, 0
	ld.d	$a0, $s0, 0
	ld.bu	$a1, $s2, 72
	ld.d	$a3, $a0, 0
	pcalau12i	$a0, %pc_hi20(.L.str.871)
	addi.d	$a0, $a0, %pc_lo12(.L.str.871)
	masknez	$a0, $a0, $a1
	pcalau12i	$a2, %pc_hi20(.L.str.870)
	addi.d	$a2, $a2, %pc_lo12(.L.str.870)
	maskeqz	$a1, $a2, $a1
	or	$a1, $a1, $a0
	move	$a0, $s0
	move	$a2, $fp
	jirl	$ra, $a3, 0
	ld.d	$a0, $s0, 0
	ld.d	$a3, $a0, 0
	pcalau12i	$a0, %pc_hi20(.L.str.872)
	addi.d	$a1, $a0, %pc_lo12(.L.str.872)
	move	$a0, $s0
	move	$a2, $fp
	jirl	$ra, $a3, 0
	ld.d	$a0, $s0, 0
	ld.d	$a3, $a0, 0
	pcalau12i	$a0, %pc_hi20(.L.str.873)
	addi.d	$a1, $a0, %pc_lo12(.L.str.873)
	move	$a0, $s0
	move	$a2, $fp
	jirl	$ra, $a3, 0
	ld.d	$a0, $s0, 0
	ld.d	$a3, $a0, 0
	pcalau12i	$a0, %pc_hi20(.L.str.874)
	addi.d	$a1, $a0, %pc_lo12(.L.str.874)
	move	$a0, $s0
	move	$a2, $fp
	jirl	$ra, $a3, 0
	ld.d	$a0, $s0, 0
	ld.d	$a3, $a0, 0
	pcalau12i	$a0, %pc_hi20(.L.str.875)
	addi.d	$a1, $a0, %pc_lo12(.L.str.875)
	move	$a0, $s0
	move	$a2, $fp
	jirl	$ra, $a3, 0
	ld.d	$a0, $s0, 0
	ld.d	$a3, $a0, 0
	pcalau12i	$a0, %pc_hi20(.L.str.876)
	addi.d	$a1, $a0, %pc_lo12(.L.str.876)
	move	$a0, $s0
	move	$a2, $fp
	jirl	$ra, $a3, 0
	ld.d	$a0, $s0, 0
	ld.d	$a3, $a0, 0
	pcalau12i	$a0, %pc_hi20(.L.str.877)
	addi.d	$a1, $a0, %pc_lo12(.L.str.877)
	move	$a0, $s0
	move	$a2, $fp
	jirl	$ra, $a3, 0
	ld.d	$a0, $s0, 0
	ld.d	$a3, $a0, 0
	pcalau12i	$a0, %pc_hi20(.L.str.878)
	addi.d	$a1, $a0, %pc_lo12(.L.str.878)
	move	$a0, $s0
	move	$a2, $fp
	jirl	$ra, $a3, 0
	ld.d	$a0, $s0, 0
	ld.d	$a3, $a0, 0
	pcalau12i	$a0, %pc_hi20(.L.str.879)
	addi.d	$a1, $a0, %pc_lo12(.L.str.879)
	move	$a0, $s0
	move	$a2, $fp
	jirl	$ra, $a3, 0
	ld.d	$a0, $s0, 0
	ld.d	$a3, $a0, 0
	pcalau12i	$a0, %pc_hi20(.L.str.880)
	addi.d	$a1, $a0, %pc_lo12(.L.str.880)
	move	$a0, $s0
	move	$a2, $fp
	jirl	$ra, $a3, 0
	ld.d	$a0, $s0, 0
	ld.d	$a3, $a0, 0
	pcalau12i	$a0, %pc_hi20(.L.str.881)
	addi.d	$a1, $a0, %pc_lo12(.L.str.881)
	move	$a0, $s0
	move	$a2, $fp
	jirl	$ra, $a3, 0
	ld.d	$a0, $s0, 0
	ld.d	$a3, $a0, 0
	pcalau12i	$a0, %pc_hi20(.L.str.882)
	addi.d	$a1, $a0, %pc_lo12(.L.str.882)
	move	$a0, $s0
	move	$a2, $fp
	jirl	$ra, $a3, 0
	ld.d	$a0, $s0, 0
	ld.d	$a3, $a0, 0
	pcalau12i	$a0, %pc_hi20(.L.str.883)
	addi.d	$a1, $a0, %pc_lo12(.L.str.883)
	move	$a0, $s0
	move	$a2, $fp
	jirl	$ra, $a3, 0
	ld.d	$a0, $s0, 0
	ld.d	$a3, $a0, 0
	pcalau12i	$a0, %pc_hi20(.L.str.884)
	addi.d	$a1, $a0, %pc_lo12(.L.str.884)
	move	$a0, $s0
	move	$a2, $fp
	jirl	$ra, $a3, 0
	ld.d	$a0, $s0, 0
	ld.d	$a3, $a0, 0
	pcalau12i	$a0, %pc_hi20(.L.str.885)
	addi.d	$a1, $a0, %pc_lo12(.L.str.885)
	move	$a0, $s0
	move	$a2, $fp
	jirl	$ra, $a3, 0
	ld.d	$a0, $s0, 0
	ld.d	$a3, $a0, 0
	pcalau12i	$a0, %pc_hi20(.L.str.886)
	addi.d	$a1, $a0, %pc_lo12(.L.str.886)
	move	$a0, $s0
	move	$a2, $fp
	jirl	$ra, $a3, 0
	ld.d	$a0, $s0, 0
	ld.d	$a3, $a0, 0
	pcalau12i	$a0, %pc_hi20(.L.str.887)
	addi.d	$a1, $a0, %pc_lo12(.L.str.887)
	move	$a0, $s0
	move	$a2, $fp
	jirl	$ra, $a3, 0
	ld.d	$a0, $s0, 0
	ld.d	$a3, $a0, 0
	pcalau12i	$a0, %pc_hi20(.L.str.888)
	addi.d	$a1, $a0, %pc_lo12(.L.str.888)
	b	.LBB27_370
.LBB27_128:                             # %sw.bb972
	ld.d	$a0, $s0, 0
	ld.d	$a3, $a0, 0
	pcalau12i	$a0, %pc_hi20(.L.str.608)
	addi.d	$a1, $a0, %pc_lo12(.L.str.608)
	move	$a0, $s0
	move	$a2, $fp
	jirl	$ra, $a3, 0
	ld.d	$a0, $s0, 0
	ld.d	$a3, $a0, 0
	pcalau12i	$a0, %pc_hi20(.L.str.609)
	addi.d	$a1, $a0, %pc_lo12(.L.str.609)
	move	$a0, $s0
	move	$a2, $fp
	jirl	$ra, $a3, 0
	ld.d	$a0, $s0, 0
	ld.d	$a3, $a0, 0
	pcalau12i	$a0, %pc_hi20(.L.str.610)
	addi.d	$a1, $a0, %pc_lo12(.L.str.610)
	move	$a0, $s0
	move	$a2, $fp
	jirl	$ra, $a3, 0
	ld.d	$a0, $s0, 0
	ld.d	$a3, $a0, 0
	pcalau12i	$a0, %pc_hi20(.L.str.611)
	addi.d	$a1, $a0, %pc_lo12(.L.str.611)
	move	$a0, $s0
	move	$a2, $fp
	jirl	$ra, $a3, 0
	ld.d	$a0, $s0, 0
	ld.d	$a3, $a0, 0
	pcalau12i	$a0, %pc_hi20(.L.str.612)
	addi.d	$a1, $a0, %pc_lo12(.L.str.612)
	move	$a0, $s0
	move	$a2, $fp
	jirl	$ra, $a3, 0
	ld.d	$a0, $s0, 0
	ld.d	$a3, $a0, 0
	pcalau12i	$a0, %pc_hi20(.L.str.613)
	addi.d	$a1, $a0, %pc_lo12(.L.str.613)
	move	$a0, $s0
	move	$a2, $fp
	jirl	$ra, $a3, 0
	ld.d	$a0, $s0, 0
	ld.d	$a3, $a0, 0
	pcalau12i	$a0, %pc_hi20(.L.str.614)
	addi.d	$a1, $a0, %pc_lo12(.L.str.614)
	move	$a0, $s0
	move	$a2, $fp
	jirl	$ra, $a3, 0
	ld.d	$a0, $s0, 0
	ld.d	$a3, $a0, 0
	pcalau12i	$a0, %pc_hi20(.L.str.615)
	addi.d	$a1, $a0, %pc_lo12(.L.str.615)
	move	$a0, $s0
	move	$a2, $fp
	jirl	$ra, $a3, 0
	ld.d	$a0, $s0, 0
	ld.d	$a3, $a0, 0
	pcalau12i	$a0, %pc_hi20(.L.str.616)
	addi.d	$a1, $a0, %pc_lo12(.L.str.616)
	move	$a0, $s0
	move	$a2, $fp
	jirl	$ra, $a3, 0
	ld.d	$a0, $s0, 0
	ld.d	$a3, $a0, 0
	pcalau12i	$a0, %pc_hi20(.L.str.617)
	addi.d	$a1, $a0, %pc_lo12(.L.str.617)
	move	$a0, $s0
	move	$a2, $fp
	jirl	$ra, $a3, 0
	ld.d	$a0, $s0, 0
	ld.d	$a3, $a0, 0
	pcalau12i	$a0, %pc_hi20(.L.str.618)
	addi.d	$a1, $a0, %pc_lo12(.L.str.618)
	move	$a0, $s0
	move	$a2, $fp
	jirl	$ra, $a3, 0
	ld.d	$a0, $s0, 0
	ld.d	$a3, $a0, 0
	pcalau12i	$a0, %pc_hi20(.L.str.619)
	addi.d	$a1, $a0, %pc_lo12(.L.str.619)
	move	$a0, $s0
	move	$a2, $fp
	jirl	$ra, $a3, 0
	ld.d	$a0, $s0, 0
	ld.d	$a3, $a0, 0
	pcalau12i	$a0, %pc_hi20(.L.str.620)
	addi.d	$a1, $a0, %pc_lo12(.L.str.620)
	move	$a0, $s0
	move	$a2, $fp
	jirl	$ra, $a3, 0
	ld.d	$a0, $s0, 0
	ld.d	$a3, $a0, 0
	pcalau12i	$a0, %pc_hi20(.L.str.621)
	addi.d	$a1, $a0, %pc_lo12(.L.str.621)
	move	$a0, $s0
	move	$a2, $fp
	jirl	$ra, $a3, 0
	ld.d	$a0, $s0, 0
	ld.d	$a3, $a0, 0
	pcalau12i	$a0, %pc_hi20(.L.str.622)
	addi.d	$a1, $a0, %pc_lo12(.L.str.622)
	move	$a0, $s0
	move	$a2, $fp
	jirl	$ra, $a3, 0
	ld.d	$a0, $s0, 0
	ld.d	$a3, $a0, 0
	pcalau12i	$a0, %pc_hi20(.L.str.623)
	addi.d	$a1, $a0, %pc_lo12(.L.str.623)
	move	$a0, $s0
	move	$a2, $fp
	jirl	$ra, $a3, 0
	ld.d	$a0, $s0, 0
	ld.d	$a3, $a0, 0
	pcalau12i	$a0, %pc_hi20(.L.str.624)
	addi.d	$a1, $a0, %pc_lo12(.L.str.624)
	move	$a0, $s0
	move	$a2, $fp
	jirl	$ra, $a3, 0
	ld.d	$a0, $s0, 0
	ld.d	$a3, $a0, 0
	pcalau12i	$a0, %pc_hi20(.L.str.625)
	addi.d	$a1, $a0, %pc_lo12(.L.str.625)
	move	$a0, $s0
	move	$a2, $fp
	jirl	$ra, $a3, 0
	ld.d	$a0, $s0, 0
	ld.d	$a3, $a0, 0
	pcalau12i	$a0, %pc_hi20(.L.str.626)
	addi.d	$a1, $a0, %pc_lo12(.L.str.626)
	move	$a0, $s0
	move	$a2, $fp
	jirl	$ra, $a3, 0
	ld.d	$a0, $s0, 0
	ld.d	$a3, $a0, 0
	pcalau12i	$a0, %pc_hi20(.L.str.627)
	addi.d	$a1, $a0, %pc_lo12(.L.str.627)
	move	$a0, $s0
	move	$a2, $fp
	jirl	$ra, $a3, 0
	ld.d	$a0, $s0, 0
	ld.d	$a3, $a0, 0
	pcalau12i	$a0, %pc_hi20(.L.str.628)
	addi.d	$a1, $a0, %pc_lo12(.L.str.628)
	move	$a0, $s0
	move	$a2, $fp
	jirl	$ra, $a3, 0
	ld.d	$a0, $s0, 0
	ld.d	$a3, $a0, 0
	pcalau12i	$a0, %pc_hi20(.L.str.629)
	addi.d	$a1, $a0, %pc_lo12(.L.str.629)
	move	$a0, $s0
	move	$a2, $fp
	jirl	$ra, $a3, 0
	ld.d	$a0, $s0, 0
	ld.d	$a3, $a0, 0
	pcalau12i	$a0, %pc_hi20(.L.str.630)
	addi.d	$a1, $a0, %pc_lo12(.L.str.630)
	move	$a0, $s0
	move	$a2, $fp
	jirl	$ra, $a3, 0
	ld.d	$a0, $s0, 0
	ld.d	$a3, $a0, 0
	pcalau12i	$a0, %pc_hi20(.L.str.631)
	addi.d	$a1, $a0, %pc_lo12(.L.str.631)
	move	$a0, $s0
	move	$a2, $fp
	jirl	$ra, $a3, 0
	ld.d	$a0, $s0, 0
	ld.d	$a3, $a0, 0
	pcalau12i	$a0, %pc_hi20(.L.str.632)
	addi.d	$a1, $a0, %pc_lo12(.L.str.632)
	move	$a0, $s0
	move	$a2, $fp
	jirl	$ra, $a3, 0
	ld.d	$a0, $s0, 0
	ld.d	$a3, $a0, 0
	pcalau12i	$a0, %pc_hi20(.L.str.633)
	addi.d	$a1, $a0, %pc_lo12(.L.str.633)
	move	$a0, $s0
	move	$a2, $fp
	jirl	$ra, $a3, 0
	ld.d	$a0, $s0, 0
	ld.d	$a3, $a0, 0
	pcalau12i	$a0, %pc_hi20(.L.str.634)
	addi.d	$a1, $a0, %pc_lo12(.L.str.634)
	move	$a0, $s0
	move	$a2, $fp
	jirl	$ra, $a3, 0
	ld.d	$a0, $s0, 0
	ld.d	$a3, $a0, 0
	pcalau12i	$a0, %pc_hi20(.L.str.635)
	addi.d	$a1, $a0, %pc_lo12(.L.str.635)
	move	$a0, $s0
	move	$a2, $fp
	jirl	$ra, $a3, 0
	ld.d	$a0, $s0, 0
	ld.d	$a3, $a0, 0
	pcalau12i	$a0, %pc_hi20(.L.str.636)
	addi.d	$a1, $a0, %pc_lo12(.L.str.636)
	move	$a0, $s0
	move	$a2, $fp
	jirl	$ra, $a3, 0
	ld.d	$a0, $s0, 0
	ld.d	$a3, $a0, 0
	pcalau12i	$a0, %pc_hi20(.L.str.637)
	addi.d	$a1, $a0, %pc_lo12(.L.str.637)
	move	$a0, $s0
	move	$a2, $fp
	jirl	$ra, $a3, 0
	ld.d	$a0, $s0, 0
	ld.d	$a3, $a0, 0
	pcalau12i	$a0, %pc_hi20(.L.str.638)
	addi.d	$a1, $a0, %pc_lo12(.L.str.638)
	move	$a0, $s0
	move	$a2, $fp
	jirl	$ra, $a3, 0
	ld.d	$a0, $s0, 0
	ld.d	$a3, $a0, 0
	pcalau12i	$a0, %pc_hi20(.L.str.639)
	addi.d	$a1, $a0, %pc_lo12(.L.str.639)
	move	$a0, $s0
	move	$a2, $fp
	jirl	$ra, $a3, 0
	ld.d	$a0, $s0, 0
	ld.d	$a3, $a0, 0
	pcalau12i	$a0, %pc_hi20(.L.str.640)
	addi.d	$a1, $a0, %pc_lo12(.L.str.640)
	move	$a0, $s0
	move	$a2, $fp
	jirl	$ra, $a3, 0
	ld.d	$a0, $s0, 0
	ld.d	$a3, $a0, 0
	pcalau12i	$a0, %pc_hi20(.L.str.641)
	addi.d	$a1, $a0, %pc_lo12(.L.str.641)
	move	$a0, $s0
	move	$a2, $fp
	jirl	$ra, $a3, 0
	ld.d	$a0, $s0, 0
	ld.d	$a3, $a0, 0
	pcalau12i	$a0, %pc_hi20(.L.str.642)
	addi.d	$a1, $a0, %pc_lo12(.L.str.642)
	move	$a0, $s0
	move	$a2, $fp
	jirl	$ra, $a3, 0
	ld.d	$a0, $s0, 0
	ld.d	$a3, $a0, 0
	pcalau12i	$a0, %pc_hi20(.L.str.643)
	addi.d	$a1, $a0, %pc_lo12(.L.str.643)
	move	$a0, $s0
	move	$a2, $fp
	jirl	$ra, $a3, 0
	ld.d	$a0, $s0, 0
	ld.d	$a3, $a0, 0
	pcalau12i	$a0, %pc_hi20(.L.str.644)
	addi.d	$a1, $a0, %pc_lo12(.L.str.644)
	move	$a0, $s0
	move	$a2, $fp
	jirl	$ra, $a3, 0
	ld.d	$a0, $s0, 0
	ld.d	$a3, $a0, 0
	pcalau12i	$a0, %pc_hi20(.L.str.645)
	addi.d	$a1, $a0, %pc_lo12(.L.str.645)
	move	$a0, $s0
	move	$a2, $fp
	jirl	$ra, $a3, 0
	ld.d	$a0, $s0, 0
	ld.d	$a3, $a0, 0
	pcalau12i	$a0, %pc_hi20(.L.str.646)
	addi.d	$a1, $a0, %pc_lo12(.L.str.646)
	move	$a0, $s0
	move	$a2, $fp
	jirl	$ra, $a3, 0
	ld.d	$a0, $s0, 0
	ld.d	$a3, $a0, 0
	pcalau12i	$a0, %pc_hi20(.L.str.647)
	addi.d	$a1, $a0, %pc_lo12(.L.str.647)
	move	$a0, $s0
	move	$a2, $fp
	jirl	$ra, $a3, 0
	ld.d	$a0, $s0, 0
	ld.d	$a3, $a0, 0
	pcalau12i	$a0, %pc_hi20(.L.str.648)
	addi.d	$a1, $a0, %pc_lo12(.L.str.648)
	move	$a0, $s0
	move	$a2, $fp
	jirl	$ra, $a3, 0
	ld.d	$a0, $s0, 0
	ld.d	$a3, $a0, 0
	pcalau12i	$a0, %pc_hi20(.L.str.649)
	addi.d	$a1, $a0, %pc_lo12(.L.str.649)
	move	$a0, $s0
	move	$a2, $fp
	jirl	$ra, $a3, 0
	ld.d	$a0, $s0, 0
	ld.d	$a3, $a0, 0
	pcalau12i	$a0, %pc_hi20(.L.str.650)
	addi.d	$a1, $a0, %pc_lo12(.L.str.650)
	move	$a0, $s0
	move	$a2, $fp
	jirl	$ra, $a3, 0
	ld.d	$a0, $s0, 0
	ld.d	$a3, $a0, 0
	pcalau12i	$a0, %pc_hi20(.L.str.651)
	addi.d	$a1, $a0, %pc_lo12(.L.str.651)
	move	$a0, $s0
	move	$a2, $fp
	jirl	$ra, $a3, 0
	ld.d	$a0, $s0, 0
	ld.d	$a3, $a0, 0
	pcalau12i	$a0, %pc_hi20(.L.str.652)
	addi.d	$a1, $a0, %pc_lo12(.L.str.652)
	move	$a0, $s0
	move	$a2, $fp
	jirl	$ra, $a3, 0
	ld.d	$a0, $s0, 0
	ld.d	$a3, $a0, 0
	pcalau12i	$a0, %pc_hi20(.L.str.653)
	addi.d	$a1, $a0, %pc_lo12(.L.str.653)
	move	$a0, $s0
	move	$a2, $fp
	jirl	$ra, $a3, 0
	ld.d	$a0, $s0, 0
	ld.d	$a3, $a0, 0
	pcalau12i	$a0, %pc_hi20(.L.str.654)
	addi.d	$a1, $a0, %pc_lo12(.L.str.654)
	move	$a0, $s0
	move	$a2, $fp
	jirl	$ra, $a3, 0
	ld.d	$a0, $s0, 0
	ld.d	$a3, $a0, 0
	pcalau12i	$a0, %pc_hi20(.L.str.655)
	addi.d	$a1, $a0, %pc_lo12(.L.str.655)
	move	$a0, $s0
	move	$a2, $fp
	jirl	$ra, $a3, 0
	ld.d	$a0, $s0, 0
	ld.d	$a3, $a0, 0
	pcalau12i	$a0, %pc_hi20(.L.str.656)
	addi.d	$a1, $a0, %pc_lo12(.L.str.656)
	move	$a0, $s0
	move	$a2, $fp
	jirl	$ra, $a3, 0
	ld.d	$a0, $s0, 0
	ld.d	$a3, $a0, 0
	pcalau12i	$a0, %pc_hi20(.L.str.657)
	addi.d	$a1, $a0, %pc_lo12(.L.str.657)
	move	$a0, $s0
	move	$a2, $fp
	jirl	$ra, $a3, 0
	ld.d	$a0, $s0, 0
	ld.d	$a3, $a0, 0
	pcalau12i	$a0, %pc_hi20(.L.str.658)
	addi.d	$a1, $a0, %pc_lo12(.L.str.658)
	move	$a0, $s0
	move	$a2, $fp
	jirl	$ra, $a3, 0
	ld.d	$a0, $s0, 0
	ld.d	$a3, $a0, 0
	pcalau12i	$a0, %pc_hi20(.L.str.659)
	addi.d	$a1, $a0, %pc_lo12(.L.str.659)
	move	$a0, $s0
	move	$a2, $fp
	jirl	$ra, $a3, 0
	ld.d	$a0, $s0, 0
	ld.d	$a3, $a0, 0
	pcalau12i	$a0, %pc_hi20(.L.str.660)
	addi.d	$a1, $a0, %pc_lo12(.L.str.660)
	move	$a0, $s0
	move	$a2, $fp
	jirl	$ra, $a3, 0
	ld.d	$a0, $s0, 0
	ld.d	$a3, $a0, 0
	pcalau12i	$a0, %pc_hi20(.L.str.661)
	addi.d	$a1, $a0, %pc_lo12(.L.str.661)
	move	$a0, $s0
	move	$a2, $fp
	jirl	$ra, $a3, 0
	ld.d	$a0, $s0, 0
	ld.d	$a3, $a0, 0
	pcalau12i	$a0, %pc_hi20(.L.str.662)
	addi.d	$a1, $a0, %pc_lo12(.L.str.662)
	move	$a0, $s0
	move	$a2, $fp
	jirl	$ra, $a3, 0
	ld.d	$a0, $s0, 0
	ld.d	$a3, $a0, 0
	pcalau12i	$a0, %pc_hi20(.L.str.663)
	addi.d	$a1, $a0, %pc_lo12(.L.str.663)
	move	$a0, $s0
	move	$a2, $fp
	jirl	$ra, $a3, 0
	ld.d	$a0, $s0, 0
	ld.d	$a3, $a0, 0
	pcalau12i	$a0, %pc_hi20(.L.str.664)
	addi.d	$a1, $a0, %pc_lo12(.L.str.664)
	move	$a0, $s0
	move	$a2, $fp
	jirl	$ra, $a3, 0
	ld.d	$a0, $s0, 0
	ld.d	$a3, $a0, 0
	pcalau12i	$a0, %pc_hi20(.L.str.665)
	addi.d	$a1, $a0, %pc_lo12(.L.str.665)
	move	$a0, $s0
	move	$a2, $fp
	jirl	$ra, $a3, 0
	ld.d	$a0, $s0, 0
	ld.d	$a3, $a0, 0
	pcalau12i	$a0, %pc_hi20(.L.str.666)
	addi.d	$a1, $a0, %pc_lo12(.L.str.666)
	move	$a0, $s0
	move	$a2, $fp
	jirl	$ra, $a3, 0
	ld.d	$a0, $s0, 0
	ld.d	$a3, $a0, 0
	pcalau12i	$a0, %pc_hi20(.L.str.667)
	addi.d	$a1, $a0, %pc_lo12(.L.str.667)
	move	$a0, $s0
	move	$a2, $fp
	jirl	$ra, $a3, 0
	ld.d	$a0, $s0, 0
	ld.d	$a3, $a0, 0
	pcalau12i	$a0, %pc_hi20(.L.str.668)
	addi.d	$a1, $a0, %pc_lo12(.L.str.668)
	move	$a0, $s0
	move	$a2, $fp
	jirl	$ra, $a3, 0
	ld.d	$a0, $s0, 0
	ld.d	$a3, $a0, 0
	pcalau12i	$a0, %pc_hi20(.L.str.669)
	addi.d	$a1, $a0, %pc_lo12(.L.str.669)
	move	$a0, $s0
	move	$a2, $fp
	jirl	$ra, $a3, 0
	ld.d	$a0, $s0, 0
	ld.d	$a3, $a0, 0
	pcalau12i	$a0, %pc_hi20(.L.str.670)
	addi.d	$a1, $a0, %pc_lo12(.L.str.670)
	move	$a0, $s0
	move	$a2, $fp
	jirl	$ra, $a3, 0
	ld.d	$a0, $s0, 0
	ld.d	$a3, $a0, 0
	pcalau12i	$a0, %pc_hi20(.L.str.671)
	addi.d	$a1, $a0, %pc_lo12(.L.str.671)
	move	$a0, $s0
	move	$a2, $fp
	jirl	$ra, $a3, 0
	ld.d	$a0, $s0, 0
	ld.d	$a3, $a0, 0
	pcalau12i	$a0, %pc_hi20(.L.str.672)
	addi.d	$a1, $a0, %pc_lo12(.L.str.672)
	move	$a0, $s0
	move	$a2, $fp
	jirl	$ra, $a3, 0
	ld.d	$a0, $s0, 0
	ld.d	$a3, $a0, 0
	pcalau12i	$a0, %pc_hi20(.L.str.673)
	addi.d	$a1, $a0, %pc_lo12(.L.str.673)
	move	$a0, $s0
	move	$a2, $fp
	jirl	$ra, $a3, 0
	ld.d	$a0, $s0, 0
	ld.d	$a3, $a0, 0
	pcalau12i	$a0, %pc_hi20(.L.str.674)
	addi.d	$a1, $a0, %pc_lo12(.L.str.674)
	move	$a0, $s0
	move	$a2, $fp
	jirl	$ra, $a3, 0
	ld.d	$a0, $s0, 0
	ld.d	$a3, $a0, 0
	pcalau12i	$a0, %pc_hi20(.L.str.675)
	addi.d	$a1, $a0, %pc_lo12(.L.str.675)
	move	$a0, $s0
	move	$a2, $fp
	jirl	$ra, $a3, 0
	ld.d	$a0, $s0, 0
	ld.d	$a3, $a0, 0
	pcalau12i	$a0, %pc_hi20(.L.str.676)
	addi.d	$a1, $a0, %pc_lo12(.L.str.676)
	move	$a0, $s0
	move	$a2, $fp
	jirl	$ra, $a3, 0
	ld.d	$a0, $s0, 0
	ld.d	$a3, $a0, 0
	pcalau12i	$a0, %pc_hi20(.L.str.677)
	addi.d	$a1, $a0, %pc_lo12(.L.str.677)
	move	$a0, $s0
	move	$a2, $fp
	jirl	$ra, $a3, 0
	ld.d	$a0, $s0, 0
	ld.d	$a3, $a0, 0
	pcalau12i	$a0, %pc_hi20(.L.str.678)
	addi.d	$a1, $a0, %pc_lo12(.L.str.678)
	move	$a0, $s0
	move	$a2, $fp
	jirl	$ra, $a3, 0
	ld.d	$a0, $s0, 0
	ld.d	$a3, $a0, 0
	pcalau12i	$a0, %pc_hi20(.L.str.679)
	addi.d	$a1, $a0, %pc_lo12(.L.str.679)
	move	$a0, $s0
	move	$a2, $fp
	jirl	$ra, $a3, 0
	ld.d	$a0, $s0, 0
	ld.d	$a3, $a0, 0
	pcalau12i	$a0, %pc_hi20(.L.str.680)
	addi.d	$a1, $a0, %pc_lo12(.L.str.680)
	move	$a0, $s0
	move	$a2, $fp
	jirl	$ra, $a3, 0
	ld.d	$a0, $s0, 0
	ld.d	$a3, $a0, 0
	pcalau12i	$a0, %pc_hi20(.L.str.681)
	addi.d	$a1, $a0, %pc_lo12(.L.str.681)
	move	$a0, $s0
	move	$a2, $fp
	jirl	$ra, $a3, 0
	ld.d	$a0, $s0, 0
	ld.d	$a3, $a0, 0
	pcalau12i	$a0, %pc_hi20(.L.str.682)
	addi.d	$a1, $a0, %pc_lo12(.L.str.682)
	move	$a0, $s0
	move	$a2, $fp
	jirl	$ra, $a3, 0
	ld.d	$a0, $s0, 0
	ld.d	$a3, $a0, 0
	pcalau12i	$a0, %pc_hi20(.L.str.683)
	addi.d	$a1, $a0, %pc_lo12(.L.str.683)
	move	$a0, $s0
	move	$a2, $fp
	jirl	$ra, $a3, 0
	ld.d	$a0, $s0, 0
	ld.d	$a3, $a0, 0
	pcalau12i	$a0, %pc_hi20(.L.str.684)
	addi.d	$a1, $a0, %pc_lo12(.L.str.684)
	move	$a0, $s0
	move	$a2, $fp
	jirl	$ra, $a3, 0
	ld.d	$a0, $s0, 0
	ld.d	$a3, $a0, 0
	pcalau12i	$a0, %pc_hi20(.L.str.685)
	addi.d	$a1, $a0, %pc_lo12(.L.str.685)
	move	$a0, $s0
	move	$a2, $fp
	jirl	$ra, $a3, 0
	pcalau12i	$a0, %got_pc_hi20(Theargsnumbers)
	ld.d	$s1, $a0, %got_pc_lo12(Theargsnumbers)
	ld.d	$a0, $s1, 0
	pcaddu18i	$ra, %call36(_ZNK2kc16impl_argsnumbers4lastEv)
	jirl	$ra, $ra, 0
	ld.w	$a0, $a0, 8
	ori	$a1, $zero, 1
	slt	$a2, $a1, $a0
	masknez	$a1, $a1, $a2
	maskeqz	$a0, $a0, $a2
	or	$a2, $a0, $a1
	pcalau12i	$a0, %pc_hi20(.L.str.331)
	addi.d	$a1, $a0, %pc_lo12(.L.str.331)
	addi.d	$a0, $sp, 784
	pcaddu18i	$ra, %call36(sprintf)
	jirl	$ra, $ra, 0
	ld.d	$a0, $s0, 0
	ld.d	$a3, $a0, 0
	addi.d	$a1, $sp, 784
	move	$a0, $s0
	move	$a2, $fp
	jirl	$ra, $a3, 0
	ld.d	$a0, $s0, 0
	ld.d	$a3, $a0, 0
	pcalau12i	$a0, %pc_hi20(.L.str.686)
	addi.d	$a1, $a0, %pc_lo12(.L.str.686)
	move	$a0, $s0
	move	$a2, $fp
	jirl	$ra, $a3, 0
	ld.d	$a0, $s0, 0
	ld.d	$a3, $a0, 0
	pcalau12i	$a0, %pc_hi20(.L.str.687)
	addi.d	$a1, $a0, %pc_lo12(.L.str.687)
	move	$a0, $s0
	move	$a2, $fp
	jirl	$ra, $a3, 0
	ld.d	$a0, $s0, 0
	ld.d	$a3, $a0, 0
	pcalau12i	$a0, %pc_hi20(.L.str.688)
	addi.d	$a1, $a0, %pc_lo12(.L.str.688)
	move	$a0, $s0
	move	$a2, $fp
	jirl	$ra, $a3, 0
	ld.d	$a0, $s1, 0
	ld.d	$a1, $a0, 0
	ld.d	$a3, $a1, 72
	move	$a1, $s0
	move	$a2, $fp
	jirl	$ra, $a3, 0
	ld.d	$a0, $s0, 0
	ld.d	$a3, $a0, 0
	pcalau12i	$a0, %pc_hi20(.L.str.689)
	addi.d	$a1, $a0, %pc_lo12(.L.str.689)
	move	$a0, $s0
	move	$a2, $fp
	jirl	$ra, $a3, 0
	ld.d	$a0, $s0, 0
	ld.d	$a3, $a0, 0
	pcalau12i	$a0, %pc_hi20(.L.str.690)
	addi.d	$a1, $a0, %pc_lo12(.L.str.690)
	move	$a0, $s0
	move	$a2, $fp
	jirl	$ra, $a3, 0
	ld.d	$a0, $s0, 0
	ld.d	$a3, $a0, 0
	pcalau12i	$a0, %pc_hi20(.L.str.691)
	addi.d	$a1, $a0, %pc_lo12(.L.str.691)
	move	$a0, $s0
	move	$a2, $fp
	jirl	$ra, $a3, 0
	ld.d	$a0, $s0, 0
	ld.d	$a3, $a0, 0
	pcalau12i	$a0, %pc_hi20(.L.str.692)
	addi.d	$a1, $a0, %pc_lo12(.L.str.692)
	move	$a0, $s0
	move	$a2, $fp
	jirl	$ra, $a3, 0
	ld.d	$a0, $s0, 0
	ld.d	$a3, $a0, 0
	pcalau12i	$a0, %pc_hi20(.L.str.693)
	addi.d	$a1, $a0, %pc_lo12(.L.str.693)
	move	$a0, $s0
	move	$a2, $fp
	jirl	$ra, $a3, 0
	ld.d	$a0, $s0, 0
	ld.d	$a3, $a0, 0
	pcalau12i	$a0, %pc_hi20(.L.str.694)
	addi.d	$a1, $a0, %pc_lo12(.L.str.694)
	move	$a0, $s0
	move	$a2, $fp
	jirl	$ra, $a3, 0
	ld.d	$a0, $s0, 0
	ld.d	$a3, $a0, 0
	pcalau12i	$a0, %pc_hi20(.L.str.695)
	addi.d	$a1, $a0, %pc_lo12(.L.str.695)
	move	$a0, $s0
	move	$a2, $fp
	jirl	$ra, $a3, 0
	ld.d	$a0, $s0, 0
	ld.d	$a3, $a0, 0
	pcalau12i	$a0, %pc_hi20(.L.str.696)
	addi.d	$a1, $a0, %pc_lo12(.L.str.696)
	move	$a0, $s0
	move	$a2, $fp
	jirl	$ra, $a3, 0
	ld.d	$a0, $s0, 0
	ld.d	$a3, $a0, 0
	pcalau12i	$a0, %pc_hi20(.L.str.697)
	addi.d	$a1, $a0, %pc_lo12(.L.str.697)
	move	$a0, $s0
	move	$a2, $fp
	jirl	$ra, $a3, 0
	ld.d	$a0, $s0, 0
	ld.d	$a3, $a0, 0
	pcalau12i	$a0, %pc_hi20(.L.str.698)
	addi.d	$a1, $a0, %pc_lo12(.L.str.698)
	move	$a0, $s0
	move	$a2, $fp
	jirl	$ra, $a3, 0
	ld.d	$a0, $s0, 0
	ld.d	$a3, $a0, 0
	pcalau12i	$a0, %pc_hi20(.L.str.699)
	addi.d	$a1, $a0, %pc_lo12(.L.str.699)
	move	$a0, $s0
	move	$a2, $fp
	jirl	$ra, $a3, 0
	ld.d	$a0, $s0, 0
	ld.d	$a3, $a0, 0
	pcalau12i	$a0, %pc_hi20(.L.str.700)
	addi.d	$a1, $a0, %pc_lo12(.L.str.700)
	move	$a0, $s0
	move	$a2, $fp
	jirl	$ra, $a3, 0
	ld.d	$a0, $s0, 0
	ld.d	$a3, $a0, 0
	pcalau12i	$a0, %pc_hi20(.L.str.701)
	addi.d	$a1, $a0, %pc_lo12(.L.str.701)
	move	$a0, $s0
	move	$a2, $fp
	jirl	$ra, $a3, 0
	ld.d	$a0, $s0, 0
	ld.d	$a3, $a0, 0
	pcalau12i	$a0, %pc_hi20(.L.str.702)
	addi.d	$a1, $a0, %pc_lo12(.L.str.702)
	move	$a0, $s0
	move	$a2, $fp
	jirl	$ra, $a3, 0
	ld.d	$a0, $s0, 0
	ld.d	$a3, $a0, 0
	pcalau12i	$a0, %pc_hi20(.L.str.703)
	addi.d	$a1, $a0, %pc_lo12(.L.str.703)
	move	$a0, $s0
	move	$a2, $fp
	jirl	$ra, $a3, 0
	ld.d	$a0, $s0, 0
	ld.d	$a3, $a0, 0
	pcalau12i	$a0, %pc_hi20(.L.str.704)
	addi.d	$a1, $a0, %pc_lo12(.L.str.704)
	move	$a0, $s0
	move	$a2, $fp
	jirl	$ra, $a3, 0
	ld.d	$a0, $s0, 0
	ld.d	$a3, $a0, 0
	pcalau12i	$a0, %pc_hi20(.L.str.705)
	addi.d	$a1, $a0, %pc_lo12(.L.str.705)
	move	$a0, $s0
	move	$a2, $fp
	jirl	$ra, $a3, 0
	ld.d	$a0, $s0, 0
	ld.d	$a3, $a0, 0
	pcalau12i	$a0, %pc_hi20(.L.str.706)
	addi.d	$a1, $a0, %pc_lo12(.L.str.706)
	move	$a0, $s0
	move	$a2, $fp
	jirl	$ra, $a3, 0
	ld.d	$a0, $s0, 0
	ld.d	$a3, $a0, 0
	pcalau12i	$a0, %pc_hi20(.L.str.707)
	addi.d	$a1, $a0, %pc_lo12(.L.str.707)
	move	$a0, $s0
	move	$a2, $fp
	jirl	$ra, $a3, 0
	ld.d	$a0, $s0, 0
	ld.d	$a3, $a0, 0
	pcalau12i	$a0, %pc_hi20(.L.str.708)
	addi.d	$a1, $a0, %pc_lo12(.L.str.708)
	move	$a0, $s0
	move	$a2, $fp
	jirl	$ra, $a3, 0
	ld.d	$a0, $s0, 0
	ld.d	$a3, $a0, 0
	pcalau12i	$a0, %pc_hi20(.L.str.709)
	addi.d	$a1, $a0, %pc_lo12(.L.str.709)
	move	$a0, $s0
	move	$a2, $fp
	jirl	$ra, $a3, 0
	ld.d	$a0, $s0, 0
	ld.d	$a3, $a0, 0
	pcalau12i	$a0, %pc_hi20(.L.str.710)
	addi.d	$a1, $a0, %pc_lo12(.L.str.710)
	move	$a0, $s0
	move	$a2, $fp
	jirl	$ra, $a3, 0
	ld.d	$a0, $s0, 0
	ld.d	$a3, $a0, 0
	pcalau12i	$a0, %pc_hi20(.L.str.711)
	addi.d	$a1, $a0, %pc_lo12(.L.str.711)
	move	$a0, $s0
	move	$a2, $fp
	jirl	$ra, $a3, 0
	ld.d	$a0, $s0, 0
	ld.d	$a3, $a0, 0
	pcalau12i	$a0, %pc_hi20(.L.str.712)
	addi.d	$a1, $a0, %pc_lo12(.L.str.712)
	move	$a0, $s0
	move	$a2, $fp
	jirl	$ra, $a3, 0
	ld.d	$a0, $s0, 0
	ld.d	$a3, $a0, 0
	pcalau12i	$a0, %pc_hi20(.L.str.713)
	addi.d	$a1, $a0, %pc_lo12(.L.str.713)
	move	$a0, $s0
	move	$a2, $fp
	jirl	$ra, $a3, 0
	ld.d	$a0, $s0, 0
	ld.d	$a3, $a0, 0
	pcalau12i	$a0, %pc_hi20(.L.str.714)
	addi.d	$a1, $a0, %pc_lo12(.L.str.714)
	move	$a0, $s0
	move	$a2, $fp
	jirl	$ra, $a3, 0
	ld.d	$a0, $s0, 0
	ld.d	$a3, $a0, 0
	pcalau12i	$a0, %pc_hi20(.L.str.715)
	addi.d	$a1, $a0, %pc_lo12(.L.str.715)
	move	$a0, $s0
	move	$a2, $fp
	jirl	$ra, $a3, 0
	ld.d	$a0, $s0, 0
	ld.d	$a3, $a0, 0
	pcalau12i	$a0, %pc_hi20(.L.str.716)
	addi.d	$a1, $a0, %pc_lo12(.L.str.716)
	move	$a0, $s0
	move	$a2, $fp
	jirl	$ra, $a3, 0
	ld.d	$a0, $s0, 0
	ld.d	$a3, $a0, 0
	pcalau12i	$a0, %pc_hi20(.L.str.717)
	addi.d	$a1, $a0, %pc_lo12(.L.str.717)
	move	$a0, $s0
	move	$a2, $fp
	jirl	$ra, $a3, 0
	ld.d	$a0, $s0, 0
	ld.d	$a3, $a0, 0
	pcalau12i	$a0, %pc_hi20(.L.str.718)
	addi.d	$a1, $a0, %pc_lo12(.L.str.718)
	move	$a0, $s0
	move	$a2, $fp
	jirl	$ra, $a3, 0
	ld.d	$a0, $s0, 0
	ld.d	$a3, $a0, 0
	pcalau12i	$a0, %pc_hi20(.L.str.719)
	addi.d	$a1, $a0, %pc_lo12(.L.str.719)
	move	$a0, $s0
	move	$a2, $fp
	jirl	$ra, $a3, 0
	ld.d	$a0, $s0, 0
	ld.d	$a3, $a0, 0
	pcalau12i	$a0, %pc_hi20(.L.str.720)
	addi.d	$a1, $a0, %pc_lo12(.L.str.720)
	move	$a0, $s0
	move	$a2, $fp
	jirl	$ra, $a3, 0
	ld.d	$a0, $s0, 0
	ld.d	$a3, $a0, 0
	pcalau12i	$a0, %pc_hi20(.L.str.721)
	addi.d	$a1, $a0, %pc_lo12(.L.str.721)
	move	$a0, $s0
	move	$a2, $fp
	jirl	$ra, $a3, 0
	ld.d	$a0, $s0, 0
	ld.d	$a3, $a0, 0
	pcalau12i	$a0, %pc_hi20(.L.str.722)
	addi.d	$a1, $a0, %pc_lo12(.L.str.722)
	move	$a0, $s0
	move	$a2, $fp
	jirl	$ra, $a3, 0
	ld.d	$a0, $s0, 0
	ld.d	$a3, $a0, 0
	pcalau12i	$a0, %pc_hi20(.L.str.723)
	addi.d	$a1, $a0, %pc_lo12(.L.str.723)
	move	$a0, $s0
	move	$a2, $fp
	jirl	$ra, $a3, 0
	ld.d	$a0, $s0, 0
	ld.d	$a3, $a0, 0
	pcalau12i	$a0, %pc_hi20(.L.str.724)
	addi.d	$a1, $a0, %pc_lo12(.L.str.724)
	move	$a0, $s0
	move	$a2, $fp
	jirl	$ra, $a3, 0
	ld.d	$a0, $s0, 0
	ld.d	$a3, $a0, 0
	pcalau12i	$a0, %pc_hi20(.L.str.725)
	addi.d	$a1, $a0, %pc_lo12(.L.str.725)
	move	$a0, $s0
	move	$a2, $fp
	jirl	$ra, $a3, 0
	ld.d	$a0, $s0, 0
	ld.d	$a3, $a0, 0
	pcalau12i	$a0, %pc_hi20(.L.str.726)
	addi.d	$a1, $a0, %pc_lo12(.L.str.726)
	move	$a0, $s0
	move	$a2, $fp
	jirl	$ra, $a3, 0
	ld.d	$a0, $s0, 0
	ld.d	$a3, $a0, 0
	pcalau12i	$a0, %pc_hi20(.L.str.727)
	addi.d	$a1, $a0, %pc_lo12(.L.str.727)
	move	$a0, $s0
	move	$a2, $fp
	jirl	$ra, $a3, 0
	ld.d	$a0, $s0, 0
	ld.d	$a3, $a0, 0
	pcalau12i	$a0, %pc_hi20(.L.str.728)
	addi.d	$a1, $a0, %pc_lo12(.L.str.728)
	move	$a0, $s0
	move	$a2, $fp
	jirl	$ra, $a3, 0
	ld.d	$a0, $s0, 0
	ld.d	$a3, $a0, 0
	pcalau12i	$a0, %pc_hi20(.L.str.729)
	addi.d	$a1, $a0, %pc_lo12(.L.str.729)
	move	$a0, $s0
	move	$a2, $fp
	jirl	$ra, $a3, 0
	ld.d	$a0, $s0, 0
	ld.d	$a3, $a0, 0
	pcalau12i	$a0, %pc_hi20(.L.str.730)
	addi.d	$a1, $a0, %pc_lo12(.L.str.730)
	move	$a0, $s0
	move	$a2, $fp
	jirl	$ra, $a3, 0
	ld.d	$a0, $s0, 0
	ld.d	$a3, $a0, 0
	pcalau12i	$a0, %pc_hi20(.L.str.731)
	addi.d	$a1, $a0, %pc_lo12(.L.str.731)
	move	$a0, $s0
	move	$a2, $fp
	jirl	$ra, $a3, 0
	ld.d	$a0, $s0, 0
	ld.d	$a3, $a0, 0
	pcalau12i	$a0, %pc_hi20(.L.str.732)
	addi.d	$a1, $a0, %pc_lo12(.L.str.732)
	move	$a0, $s0
	move	$a2, $fp
	jirl	$ra, $a3, 0
	ld.d	$a0, $s0, 0
	ld.d	$a3, $a0, 0
	pcalau12i	$a0, %pc_hi20(.L.str.733)
	addi.d	$a1, $a0, %pc_lo12(.L.str.733)
	move	$a0, $s0
	move	$a2, $fp
	jirl	$ra, $a3, 0
	ld.d	$a0, $s0, 0
	ld.d	$a3, $a0, 0
	pcalau12i	$a0, %pc_hi20(.L.str.734)
	addi.d	$a1, $a0, %pc_lo12(.L.str.734)
	move	$a0, $s0
	move	$a2, $fp
	jirl	$ra, $a3, 0
	ld.d	$a0, $s0, 0
	ld.d	$a3, $a0, 0
	pcalau12i	$a0, %pc_hi20(.L.str.735)
	addi.d	$a1, $a0, %pc_lo12(.L.str.735)
	b	.LBB27_343
.LBB27_129:                             # %sw.bb1311
	ld.d	$a1, $s0, 0
	ld.d	$s1, $a0, 8
	ld.d	$a3, $a1, 0
	pcalau12i	$a0, %pc_hi20(.L.str.750)
	addi.d	$a1, $a0, %pc_lo12(.L.str.750)
	move	$a0, $s0
	move	$a2, $fp
	jirl	$ra, $a3, 0
	ld.d	$a0, $s0, 0
	ld.d	$a3, $a0, 0
	pcalau12i	$a0, %pc_hi20(.L.str.751)
	addi.d	$a1, $a0, %pc_lo12(.L.str.751)
	move	$a0, $s0
	move	$a2, $fp
	jirl	$ra, $a3, 0
	ld.d	$a0, $s0, 0
	ld.d	$a3, $a0, 0
	pcalau12i	$a0, %pc_hi20(.L.str.752)
	addi.d	$a1, $a0, %pc_lo12(.L.str.752)
	move	$a0, $s0
	move	$a2, $fp
	jirl	$ra, $a3, 0
	ld.d	$a0, $s0, 0
	ld.d	$a3, $a0, 0
	pcalau12i	$a0, %pc_hi20(.L.str.753)
	addi.d	$a1, $a0, %pc_lo12(.L.str.753)
	move	$a0, $s0
	move	$a2, $fp
	jirl	$ra, $a3, 0
	ld.d	$a0, $s0, 0
	ld.d	$a3, $a0, 0
	pcalau12i	$a0, %pc_hi20(.L.str.754)
	addi.d	$a1, $a0, %pc_lo12(.L.str.754)
	move	$a0, $s0
	move	$a2, $fp
	jirl	$ra, $a3, 0
	ld.d	$a0, $s0, 0
	ld.d	$a3, $a0, 0
	pcalau12i	$a0, %pc_hi20(.L.str.755)
	addi.d	$a1, $a0, %pc_lo12(.L.str.755)
	move	$a0, $s0
	move	$a2, $fp
	jirl	$ra, $a3, 0
	ld.d	$a0, $s0, 0
	ld.d	$a3, $a0, 0
	pcalau12i	$a0, %pc_hi20(.L.str.756)
	addi.d	$a1, $a0, %pc_lo12(.L.str.756)
	move	$a0, $s0
	move	$a2, $fp
	jirl	$ra, $a3, 0
	ld.d	$a0, $s0, 0
	ld.d	$a3, $a0, 0
	pcalau12i	$a0, %pc_hi20(.L.str.757)
	addi.d	$a1, $a0, %pc_lo12(.L.str.757)
	move	$a0, $s0
	move	$a2, $fp
	jirl	$ra, $a3, 0
	ld.d	$a0, $s0, 0
	ld.d	$a3, $a0, 0
	pcalau12i	$a0, %pc_hi20(.L.str.758)
	addi.d	$a1, $a0, %pc_lo12(.L.str.758)
	move	$a0, $s0
	move	$a2, $fp
	jirl	$ra, $a3, 0
	ld.d	$a0, $s0, 0
	ld.d	$a3, $a0, 0
	pcalau12i	$a0, %pc_hi20(.L.str.759)
	addi.d	$a1, $a0, %pc_lo12(.L.str.759)
	move	$a0, $s0
	move	$a2, $fp
	jirl	$ra, $a3, 0
	ld.d	$a0, $s0, 0
	ld.d	$a3, $a0, 0
	pcalau12i	$a0, %pc_hi20(.L.str.760)
	addi.d	$a1, $a0, %pc_lo12(.L.str.760)
	move	$a0, $s0
	move	$a2, $fp
	jirl	$ra, $a3, 0
	ld.d	$a0, $s1, 0
	ld.d	$a3, $a0, 72
	move	$a0, $s1
	move	$a1, $s0
	move	$a2, $fp
	jirl	$ra, $a3, 0
	ld.d	$a0, $s0, 0
	ld.d	$a3, $a0, 0
	pcalau12i	$a0, %pc_hi20(.L.str.761)
	addi.d	$a1, $a0, %pc_lo12(.L.str.761)
	move	$a0, $s0
	move	$a2, $fp
	jirl	$ra, $a3, 0
	ld.d	$a0, $s0, 0
	ld.d	$a3, $a0, 0
	pcalau12i	$a0, %pc_hi20(.L.str.762)
	addi.d	$a1, $a0, %pc_lo12(.L.str.762)
	move	$a0, $s0
	move	$a2, $fp
	jirl	$ra, $a3, 0
	ld.d	$a0, $s0, 0
	ld.d	$a3, $a0, 0
	pcalau12i	$a0, %pc_hi20(.L.str.763)
	addi.d	$a1, $a0, %pc_lo12(.L.str.763)
	move	$a0, $s0
	move	$a2, $fp
	jirl	$ra, $a3, 0
	ld.d	$a0, $s0, 0
	ld.d	$a3, $a0, 0
	pcalau12i	$a0, %pc_hi20(.L.str.764)
	addi.d	$a1, $a0, %pc_lo12(.L.str.764)
	move	$a0, $s0
	move	$a2, $fp
	jirl	$ra, $a3, 0
	ld.d	$a0, $s0, 0
	ld.d	$a3, $a0, 0
	pcalau12i	$a0, %pc_hi20(.L.str.765)
	addi.d	$a1, $a0, %pc_lo12(.L.str.765)
	move	$a0, $s0
	move	$a2, $fp
	jirl	$ra, $a3, 0
	ld.d	$a0, $s0, 0
	ld.d	$a3, $a0, 0
	pcalau12i	$a0, %pc_hi20(.L.str.766)
	addi.d	$a1, $a0, %pc_lo12(.L.str.766)
	move	$a0, $s0
	move	$a2, $fp
	jirl	$ra, $a3, 0
	ld.d	$a0, $s0, 0
	ld.d	$a3, $a0, 0
	pcalau12i	$a0, %pc_hi20(.L.str.767)
	addi.d	$a1, $a0, %pc_lo12(.L.str.767)
	move	$a0, $s0
	move	$a2, $fp
	jirl	$ra, $a3, 0
	ld.d	$a0, $s0, 0
	ld.d	$a3, $a0, 0
	pcalau12i	$a0, %pc_hi20(.L.str.768)
	addi.d	$a1, $a0, %pc_lo12(.L.str.768)
	move	$a0, $s0
	move	$a2, $fp
	jirl	$ra, $a3, 0
	ld.d	$a0, $s0, 0
	ld.d	$a3, $a0, 0
	pcalau12i	$a0, %pc_hi20(.L.str.769)
	addi.d	$a1, $a0, %pc_lo12(.L.str.769)
	move	$a0, $s0
	move	$a2, $fp
	jirl	$ra, $a3, 0
	ld.d	$a0, $s0, 0
	ld.d	$a3, $a0, 0
	pcalau12i	$a0, %pc_hi20(.L.str.770)
	addi.d	$a1, $a0, %pc_lo12(.L.str.770)
	move	$a0, $s0
	move	$a2, $fp
	jirl	$ra, $a3, 0
	ld.d	$a0, $s0, 0
	ld.d	$a3, $a0, 0
	pcalau12i	$a0, %pc_hi20(.L.str.771)
	addi.d	$a1, $a0, %pc_lo12(.L.str.771)
	move	$a0, $s0
	move	$a2, $fp
	jirl	$ra, $a3, 0
	ld.d	$a0, $s0, 0
	ld.d	$a3, $a0, 0
	pcalau12i	$a0, %pc_hi20(.L.str.772)
	addi.d	$a1, $a0, %pc_lo12(.L.str.772)
	move	$a0, $s0
	move	$a2, $fp
	jirl	$ra, $a3, 0
	ld.d	$a0, $s0, 0
	ld.d	$a3, $a0, 0
	pcalau12i	$a0, %pc_hi20(.L.str.773)
	addi.d	$a1, $a0, %pc_lo12(.L.str.773)
	move	$a0, $s0
	move	$a2, $fp
	jirl	$ra, $a3, 0
	ld.d	$a0, $s0, 0
	ld.d	$a3, $a0, 0
	pcalau12i	$a0, %pc_hi20(.L.str.774)
	addi.d	$a1, $a0, %pc_lo12(.L.str.774)
	move	$a0, $s0
	move	$a2, $fp
	jirl	$ra, $a3, 0
	ld.d	$a0, $s0, 0
	ld.d	$a3, $a0, 0
	pcalau12i	$a0, %pc_hi20(.L.str.775)
	addi.d	$a1, $a0, %pc_lo12(.L.str.775)
	move	$a0, $s0
	move	$a2, $fp
	jirl	$ra, $a3, 0
	ld.d	$a0, $s0, 0
	ld.d	$a3, $a0, 0
	pcalau12i	$a0, %pc_hi20(.L.str.776)
	addi.d	$a1, $a0, %pc_lo12(.L.str.776)
	move	$a0, $s0
	move	$a2, $fp
	jirl	$ra, $a3, 0
	ld.d	$a0, $s0, 0
	ld.d	$a3, $a0, 0
	pcalau12i	$a0, %pc_hi20(.L.str.777)
	addi.d	$a1, $a0, %pc_lo12(.L.str.777)
	move	$a0, $s0
	move	$a2, $fp
	jirl	$ra, $a3, 0
	ld.d	$a0, $s0, 0
	ld.d	$a3, $a0, 0
	pcalau12i	$a0, %pc_hi20(.L.str.778)
	addi.d	$a1, $a0, %pc_lo12(.L.str.778)
	move	$a0, $s0
	move	$a2, $fp
	jirl	$ra, $a3, 0
	ld.d	$a0, $s0, 0
	ld.d	$a3, $a0, 0
	pcalau12i	$a0, %pc_hi20(.L.str.779)
	addi.d	$a1, $a0, %pc_lo12(.L.str.779)
	move	$a0, $s0
	move	$a2, $fp
	jirl	$ra, $a3, 0
	ld.d	$a0, $s0, 0
	ld.d	$a3, $a0, 0
	pcalau12i	$a0, %pc_hi20(.L.str.780)
	addi.d	$a1, $a0, %pc_lo12(.L.str.780)
	move	$a0, $s0
	move	$a2, $fp
	jirl	$ra, $a3, 0
	ld.d	$a0, $s0, 0
	ld.d	$a3, $a0, 0
	pcalau12i	$a0, %pc_hi20(.L.str.781)
	addi.d	$a1, $a0, %pc_lo12(.L.str.781)
	move	$a0, $s0
	move	$a2, $fp
	jirl	$ra, $a3, 0
	ld.d	$a0, $s0, 0
	ld.d	$a3, $a0, 0
	pcalau12i	$a0, %pc_hi20(.L.str.782)
	addi.d	$a1, $a0, %pc_lo12(.L.str.782)
	move	$a0, $s0
	move	$a2, $fp
	jirl	$ra, $a3, 0
	ld.d	$a0, $s0, 0
	ld.d	$a3, $a0, 0
	pcalau12i	$a0, %pc_hi20(.L.str.783)
	addi.d	$a1, $a0, %pc_lo12(.L.str.783)
	move	$a0, $s0
	move	$a2, $fp
	jirl	$ra, $a3, 0
	ld.d	$a0, $s0, 0
	ld.d	$a3, $a0, 0
	pcalau12i	$a0, %pc_hi20(.L.str.784)
	addi.d	$a1, $a0, %pc_lo12(.L.str.784)
	move	$a0, $s0
	move	$a2, $fp
	jirl	$ra, $a3, 0
	ld.d	$a0, $s0, 0
	ld.d	$a3, $a0, 0
	pcalau12i	$a0, %pc_hi20(.L.str.785)
	addi.d	$a1, $a0, %pc_lo12(.L.str.785)
	move	$a0, $s0
	move	$a2, $fp
	jirl	$ra, $a3, 0
	ld.d	$a0, $s0, 0
	ld.d	$a3, $a0, 0
	pcalau12i	$a0, %pc_hi20(.L.str.786)
	addi.d	$a1, $a0, %pc_lo12(.L.str.786)
	move	$a0, $s0
	move	$a2, $fp
	jirl	$ra, $a3, 0
	ld.d	$a0, $s0, 0
	ld.d	$a3, $a0, 0
	pcalau12i	$a0, %pc_hi20(.L.str.787)
	addi.d	$a1, $a0, %pc_lo12(.L.str.787)
	move	$a0, $s0
	move	$a2, $fp
	jirl	$ra, $a3, 0
	ld.d	$a0, $s0, 0
	ld.d	$a3, $a0, 0
	pcalau12i	$a0, %pc_hi20(.L.str.788)
	addi.d	$a1, $a0, %pc_lo12(.L.str.788)
	move	$a0, $s0
	move	$a2, $fp
	jirl	$ra, $a3, 0
	ld.d	$a0, $s0, 0
	ld.d	$a3, $a0, 0
	pcalau12i	$a0, %pc_hi20(.L.str.789)
	addi.d	$a1, $a0, %pc_lo12(.L.str.789)
	move	$a0, $s0
	move	$a2, $fp
	jirl	$ra, $a3, 0
	ld.d	$a0, $s0, 0
	ld.d	$a3, $a0, 0
	pcalau12i	$a0, %pc_hi20(.L.str.790)
	addi.d	$a1, $a0, %pc_lo12(.L.str.790)
	move	$a0, $s0
	move	$a2, $fp
	jirl	$ra, $a3, 0
	ld.d	$a0, $s0, 0
	ld.d	$a3, $a0, 0
	pcalau12i	$a0, %pc_hi20(.L.str.791)
	addi.d	$a1, $a0, %pc_lo12(.L.str.791)
	move	$a0, $s0
	move	$a2, $fp
	jirl	$ra, $a3, 0
	ld.d	$a0, $s0, 0
	ld.d	$a3, $a0, 0
	pcalau12i	$a0, %pc_hi20(.L.str.792)
	addi.d	$a1, $a0, %pc_lo12(.L.str.792)
	move	$a0, $s0
	move	$a2, $fp
	jirl	$ra, $a3, 0
	ld.d	$a0, $s0, 0
	ld.d	$a3, $a0, 0
	pcalau12i	$a0, %pc_hi20(.L.str.793)
	addi.d	$a1, $a0, %pc_lo12(.L.str.793)
	move	$a0, $s0
	move	$a2, $fp
	jirl	$ra, $a3, 0
	ld.d	$a0, $s0, 0
	ld.d	$a3, $a0, 0
	pcalau12i	$a0, %pc_hi20(.L.str.794)
	addi.d	$a1, $a0, %pc_lo12(.L.str.794)
	move	$a0, $s0
	move	$a2, $fp
	jirl	$ra, $a3, 0
	ld.d	$a0, $s0, 0
	ld.d	$a3, $a0, 0
	pcalau12i	$a0, %pc_hi20(.L.str.795)
	addi.d	$a1, $a0, %pc_lo12(.L.str.795)
	move	$a0, $s0
	move	$a2, $fp
	jirl	$ra, $a3, 0
	ld.d	$a0, $s0, 0
	ld.d	$a3, $a0, 0
	pcalau12i	$a0, %pc_hi20(.L.str.796)
	addi.d	$a1, $a0, %pc_lo12(.L.str.796)
	move	$a0, $s0
	move	$a2, $fp
	jirl	$ra, $a3, 0
	ld.d	$a0, $s0, 0
	ld.d	$a3, $a0, 0
	pcalau12i	$a0, %pc_hi20(.L.str.797)
	addi.d	$a1, $a0, %pc_lo12(.L.str.797)
	move	$a0, $s0
	move	$a2, $fp
	jirl	$ra, $a3, 0
	ld.d	$a0, $s0, 0
	ld.d	$a3, $a0, 0
	pcalau12i	$a0, %pc_hi20(.L.str.798)
	addi.d	$a1, $a0, %pc_lo12(.L.str.798)
	move	$a0, $s0
	move	$a2, $fp
	jirl	$ra, $a3, 0
	ld.d	$a0, $s0, 0
	ld.d	$a3, $a0, 0
	pcalau12i	$a0, %pc_hi20(.L.str.799)
	addi.d	$a1, $a0, %pc_lo12(.L.str.799)
	move	$a0, $s0
	move	$a2, $fp
	jirl	$ra, $a3, 0
	ld.d	$a0, $s0, 0
	ld.d	$a3, $a0, 0
	pcalau12i	$a0, %pc_hi20(.L.str.800)
	addi.d	$a1, $a0, %pc_lo12(.L.str.800)
	b	.LBB27_370
.LBB27_130:                             # %sw.bb1773
	ld.d	$a0, $s0, 0
	ld.d	$a3, $a0, 0
	pcalau12i	$a0, %pc_hi20(.L.str.925)
	addi.d	$a1, $a0, %pc_lo12(.L.str.925)
	move	$a0, $s0
	move	$a2, $fp
	jirl	$ra, $a3, 0
	ld.d	$a0, $s0, 0
	ld.d	$a3, $a0, 0
	pcalau12i	$a0, %pc_hi20(.L.str.926)
	addi.d	$a1, $a0, %pc_lo12(.L.str.926)
	move	$a0, $s0
	move	$a2, $fp
	jirl	$ra, $a3, 0
	ld.d	$a0, $s0, 0
	ld.d	$a3, $a0, 0
	pcalau12i	$a0, %pc_hi20(.L.str.927)
	addi.d	$a1, $a0, %pc_lo12(.L.str.927)
	move	$a0, $s0
	move	$a2, $fp
	jirl	$ra, $a3, 0
	ld.d	$a0, $s0, 0
	ld.d	$a3, $a0, 0
	pcalau12i	$a0, %pc_hi20(.L.str.928)
	addi.d	$a1, $a0, %pc_lo12(.L.str.928)
	move	$a0, $s0
	move	$a2, $fp
	jirl	$ra, $a3, 0
	ld.d	$a0, $s0, 0
	ld.d	$a3, $a0, 0
	pcalau12i	$a0, %pc_hi20(.L.str.929)
	addi.d	$a1, $a0, %pc_lo12(.L.str.929)
	move	$a0, $s0
	move	$a2, $fp
	jirl	$ra, $a3, 0
	ld.d	$a0, $s0, 0
	ld.d	$a3, $a0, 0
	pcalau12i	$a0, %pc_hi20(.L.str.930)
	addi.d	$a1, $a0, %pc_lo12(.L.str.930)
	move	$a0, $s0
	move	$a2, $fp
	jirl	$ra, $a3, 0
	ld.d	$a0, $s0, 0
	ld.d	$a3, $a0, 0
	pcalau12i	$a0, %pc_hi20(.L.str.931)
	addi.d	$a1, $a0, %pc_lo12(.L.str.931)
	move	$a0, $s0
	move	$a2, $fp
	jirl	$ra, $a3, 0
	ld.d	$a0, $s0, 0
	ld.d	$a3, $a0, 0
	pcalau12i	$a0, %pc_hi20(.L.str.932)
	addi.d	$a1, $a0, %pc_lo12(.L.str.932)
	b	.LBB27_370
.LBB27_131:                             # %sw.bb709
	pcalau12i	$a0, %got_pc_hi20(g_options)
	ld.d	$s2, $a0, %got_pc_lo12(g_options)
	ld.d	$a0, $s2, 0
	jirl	$ra, $ra, 0
	ld.d	$a1, $s0, 0
	ld.d	$a3, $a1, 0
	move	$s1, $a0
	pcalau12i	$a0, %pc_hi20(.L.str.545)
	addi.d	$a1, $a0, %pc_lo12(.L.str.545)
	move	$a0, $s0
	move	$a2, $fp
	jirl	$ra, $a3, 0
	pcalau12i	$a0, %got_pc_hi20(pg_filename)
	ld.d	$a0, $a0, %got_pc_lo12(pg_filename)
	ld.d	$a0, $a0, 0
	ld.d	$a1, $a0, 0
	ld.d	$a3, $a1, 72
	move	$a1, $s0
	move	$a2, $fp
	jirl	$ra, $a3, 0
	ld.d	$a0, $s0, 0
	ld.d	$a3, $a0, 0
	pcalau12i	$a0, %pc_hi20(.L.str.546)
	addi.d	$a1, $a0, %pc_lo12(.L.str.546)
	move	$a0, $s0
	move	$a2, $fp
	jirl	$ra, $a3, 0
	ld.d	$a0, $s0, 0
	ld.d	$a3, $a0, 0
	pcalau12i	$a0, %got_pc_hi20(kimwitu_copyright)
	ld.d	$a1, $a0, %got_pc_lo12(kimwitu_copyright)
	move	$a0, $s0
	move	$a2, $fp
	jirl	$ra, $a3, 0
	ld.d	$a0, $s0, 0
	ld.d	$a3, $a0, 0
	pcalau12i	$a0, %pc_hi20(.L.str.552)
	addi.d	$a1, $a0, %pc_lo12(.L.str.552)
	move	$a0, $s0
	move	$a2, $fp
	jirl	$ra, $a3, 0
	ld.d	$a0, $s0, 0
	ld.d	$a3, $a0, 0
	move	$a0, $s0
	move	$a1, $s1
	move	$a2, $fp
	jirl	$ra, $a3, 0
	ld.d	$a0, $s0, 0
	ld.d	$a3, $a0, 0
	pcalau12i	$a0, %pc_hi20(.L.str.553)
	addi.d	$a1, $a0, %pc_lo12(.L.str.553)
	move	$a0, $s0
	move	$a2, $fp
	jirl	$ra, $a3, 0
	ld.d	$a0, $s0, 0
	ld.d	$a3, $a0, 0
	move	$a0, $s0
	move	$a1, $s1
	move	$a2, $fp
	jirl	$ra, $a3, 0
	ld.d	$a0, $s0, 0
	ld.d	$a3, $a0, 0
	pcalau12i	$a0, %pc_hi20(.L.str.554)
	addi.d	$a1, $a0, %pc_lo12(.L.str.554)
	move	$a0, $s0
	move	$a2, $fp
	jirl	$ra, $a3, 0
	ld.d	$a0, $s0, 0
	ld.d	$a1, $s2, 184
	ld.d	$a3, $a0, 0
	move	$a0, $s0
	move	$a2, $fp
	jirl	$ra, $a3, 0
	ld.d	$a0, $s0, 0
	ld.d	$a3, $a0, 0
	pcalau12i	$a0, %pc_hi20(.L.str.555)
	addi.d	$a1, $a0, %pc_lo12(.L.str.555)
	b	.LBB27_197
.LBB27_132:                             # %sw.bb1684
	ld.d	$a1, $s0, 0
	ld.d	$s1, $a0, 8
	ld.d	$a3, $a1, 0
	pcalau12i	$a0, %pc_hi20(.L.str.519)
	addi.d	$a1, $a0, %pc_lo12(.L.str.519)
	move	$a0, $s0
	move	$a2, $fp
	jirl	$ra, $a3, 0
	pcalau12i	$a0, %got_pc_hi20(Thefnfiles)
	ld.d	$a0, $a0, %got_pc_lo12(Thefnfiles)
	ld.d	$a0, $a0, 0
	ld.d	$a1, $a0, 0
	ld.d	$a3, $a1, 72
	move	$a1, $s0
	move	$a2, $fp
	jirl	$ra, $a3, 0
	ld.d	$a0, $s0, 0
	ld.d	$a3, $a0, 0
	pcalau12i	$a0, %pc_hi20(.L.str.520)
	addi.d	$a1, $a0, %pc_lo12(.L.str.520)
	move	$a0, $s0
	move	$a2, $fp
	jirl	$ra, $a3, 0
	ld.d	$a0, $s0, 0
	ld.d	$a3, $a0, 0
	pcalau12i	$a0, %got_pc_hi20(kimwitu_copyright)
	ld.d	$a1, $a0, %got_pc_lo12(kimwitu_copyright)
	move	$a0, $s0
	move	$a2, $fp
	jirl	$ra, $a3, 0
	ld.d	$a0, $s0, 0
	ld.d	$a3, $a0, 0
	pcalau12i	$a0, %pc_hi20(.L.str.889)
	addi.d	$a1, $a0, %pc_lo12(.L.str.889)
	move	$a0, $s0
	move	$a2, $fp
	jirl	$ra, $a3, 0
	pcalau12i	$a0, %got_pc_hi20(g_options)
	ld.d	$a0, $a0, %got_pc_lo12(g_options)
	ld.d	$a2, $s0, 0
	ld.d	$a1, $a0, 184
	ld.d	$a3, $a2, 0
	move	$a0, $s0
	move	$a2, $fp
	jirl	$ra, $a3, 0
	ld.d	$a0, $s0, 0
	ld.d	$a3, $a0, 0
	pcalau12i	$a0, %pc_hi20(.L.str.890)
	addi.d	$a1, $a0, %pc_lo12(.L.str.890)
	move	$a0, $s0
	move	$a2, $fp
	jirl	$ra, $a3, 0
	ld.d	$a0, $s1, 0
	ld.d	$a3, $a0, 72
	move	$a0, $s1
	move	$a1, $s0
	move	$a2, $fp
	jirl	$ra, $a3, 0
	ld.d	$a0, $s0, 0
	ld.d	$a3, $a0, 0
	pcalau12i	$a0, %pc_hi20(.L.str.891)
	addi.d	$a1, $a0, %pc_lo12(.L.str.891)
	b	.LBB27_370
.LBB27_133:                             # %sw.bb1294
	ld.d	$a0, $s0, 0
	ld.d	$a3, $a0, 0
	pcalau12i	$a0, %pc_hi20(.L.str.519)
	addi.d	$a1, $a0, %pc_lo12(.L.str.519)
	move	$a0, $s0
	move	$a2, $fp
	jirl	$ra, $a3, 0
	pcalau12i	$a0, %got_pc_hi20(Thefnfiles)
	ld.d	$a0, $a0, %got_pc_lo12(Thefnfiles)
	ld.d	$a0, $a0, 0
	ld.d	$a1, $a0, 0
	ld.d	$a3, $a1, 72
	move	$a1, $s0
	move	$a2, $fp
	jirl	$ra, $a3, 0
	ld.d	$a0, $s0, 0
	ld.d	$a3, $a0, 0
	pcalau12i	$a0, %pc_hi20(.L.str.520)
	addi.d	$a1, $a0, %pc_lo12(.L.str.520)
	move	$a0, $s0
	move	$a2, $fp
	jirl	$ra, $a3, 0
	ld.d	$a0, $s0, 0
	ld.d	$a3, $a0, 0
	pcalau12i	$a0, %got_pc_hi20(kimwitu_copyright)
	ld.d	$a1, $a0, %got_pc_lo12(kimwitu_copyright)
	move	$a0, $s0
	move	$a2, $fp
	jirl	$ra, $a3, 0
	ld.d	$a0, $s0, 0
	ld.d	$a3, $a0, 0
	pcalau12i	$a0, %pc_hi20(.L.str.749)
	addi.d	$a1, $a0, %pc_lo12(.L.str.749)
	move	$a0, $s0
	move	$a2, $fp
	jirl	$ra, $a3, 0
	pcalau12i	$a0, %got_pc_hi20(g_options)
	ld.d	$a0, $a0, %got_pc_lo12(g_options)
	ld.d	$a2, $s0, 0
	ld.d	$a1, $a0, 184
	ld.d	$a3, $a2, 0
	move	$a0, $s0
	move	$a2, $fp
	jirl	$ra, $a3, 0
	ld.d	$a0, $s0, 0
	ld.d	$a3, $a0, 0
	pcalau12i	$a0, %pc_hi20(.L.str.555)
	addi.d	$a1, $a0, %pc_lo12(.L.str.555)
	b	.LBB27_370
.LBB27_134:                             # %sw.bb1268
	ld.d	$a0, $s0, 0
	ld.d	$a3, $a0, 0
	pcalau12i	$a0, %pc_hi20(.L.str.739)
	addi.d	$a1, $a0, %pc_lo12(.L.str.739)
	move	$a0, $s0
	move	$a2, $fp
	jirl	$ra, $a3, 0
	ld.d	$a0, $s0, 0
	ld.d	$a3, $a0, 0
	pcalau12i	$a0, %pc_hi20(.L.str.740)
	addi.d	$a1, $a0, %pc_lo12(.L.str.740)
	move	$a0, $s0
	move	$a2, $fp
	jirl	$ra, $a3, 0
	ld.d	$a0, $s0, 0
	ld.d	$a3, $a0, 0
	pcalau12i	$a0, %pc_hi20(.L.str.741)
	addi.d	$a1, $a0, %pc_lo12(.L.str.741)
	move	$a0, $s0
	move	$a2, $fp
	jirl	$ra, $a3, 0
	ld.d	$a0, $s0, 0
	ld.d	$a3, $a0, 0
	pcalau12i	$a0, %pc_hi20(.L.str.742)
	addi.d	$a1, $a0, %pc_lo12(.L.str.742)
	move	$a0, $s0
	move	$a2, $fp
	jirl	$ra, $a3, 0
	ld.d	$a0, $s0, 0
	ld.d	$a3, $a0, 0
	pcalau12i	$a0, %pc_hi20(.L.str.743)
	addi.d	$a1, $a0, %pc_lo12(.L.str.743)
	move	$a0, $s0
	move	$a2, $fp
	jirl	$ra, $a3, 0
	ld.d	$a0, $s0, 0
	ld.d	$a3, $a0, 0
	pcalau12i	$a0, %pc_hi20(.L.str.744)
	addi.d	$a1, $a0, %pc_lo12(.L.str.744)
	move	$a0, $s0
	move	$a2, $fp
	jirl	$ra, $a3, 0
	ld.d	$a0, $s0, 0
	ld.d	$a3, $a0, 0
	pcalau12i	$a0, %pc_hi20(.L.str.745)
	addi.d	$a1, $a0, %pc_lo12(.L.str.745)
	move	$a0, $s0
	move	$a2, $fp
	jirl	$ra, $a3, 0
	ld.d	$a0, $s0, 0
	ld.d	$a3, $a0, 0
	pcalau12i	$a0, %pc_hi20(.L.str.746)
	addi.d	$a1, $a0, %pc_lo12(.L.str.746)
	move	$a0, $s0
	move	$a2, $fp
	jirl	$ra, $a3, 0
	ld.d	$a0, $s0, 0
	ld.d	$a3, $a0, 0
	pcalau12i	$a0, %pc_hi20(.L.str.747)
	addi.d	$a1, $a0, %pc_lo12(.L.str.747)
	b	.LBB27_370
.LBB27_135:                             # %sw.bb1836
	ld.d	$a1, $s0, 0
	ld.d	$s1, $a0, 8
	ld.d	$a3, $a1, 0
	pcalau12i	$a0, %pc_hi20(.L.str.941)
	addi.d	$a1, $a0, %pc_lo12(.L.str.941)
	move	$a0, $s0
	move	$a2, $fp
	jirl	$ra, $a3, 0
	ld.d	$a0, $s0, 0
	ld.d	$a3, $a0, 0
	pcalau12i	$a0, %pc_hi20(.L.str.942)
	addi.d	$a1, $a0, %pc_lo12(.L.str.942)
	move	$a0, $s0
	move	$a2, $fp
	jirl	$ra, $a3, 0
	ld.d	$a0, $s1, 0
	ld.d	$a3, $a0, 72
	move	$a0, $s1
	move	$a1, $s0
	move	$a2, $fp
	jirl	$ra, $a3, 0
	ld.d	$a0, $s0, 0
	ld.d	$a3, $a0, 0
	pcalau12i	$a0, %pc_hi20(.L.str.943)
	addi.d	$a1, $a0, %pc_lo12(.L.str.943)
	b	.LBB27_370
.LBB27_136:                             # %sw.bb1824
	ld.d	$s1, $a0, 8
	ld.d	$a0, $s1, 0
	ld.d	$a3, $a0, 72
	pcalau12i	$a0, %pc_hi20(_ZN2kc29view_gen_operatormap_subphylaE)
	addi.d	$a2, $a0, %pc_lo12(_ZN2kc29view_gen_operatormap_subphylaE)
	move	$a0, $s1
	move	$a1, $s0
	jirl	$ra, $a3, 0
	ld.d	$a0, $s1, 0
	ld.d	$a3, $a0, 72
	pcalau12i	$a0, %pc_hi20(_ZN2kc31view_gen_operatormap_attributesE)
	addi.d	$a2, $a0, %pc_lo12(_ZN2kc31view_gen_operatormap_attributesE)
	move	$a0, $s1
	move	$a1, $s0
	jirl	$ra, $a3, 0
	ld.d	$a0, $s0, 0
	ld.d	$a3, $a0, 0
	pcalau12i	$a0, %pc_hi20(.L.str.938)
	addi.d	$a1, $a0, %pc_lo12(.L.str.938)
	move	$a0, $s0
	move	$a2, $fp
	jirl	$ra, $a3, 0
	ld.d	$a0, $s0, 0
	ld.d	$a3, $a0, 0
	pcalau12i	$a0, %pc_hi20(.L.str.939)
	addi.d	$a1, $a0, %pc_lo12(.L.str.939)
	move	$a0, $s0
	move	$a2, $fp
	jirl	$ra, $a3, 0
	ld.d	$a0, $s1, 0
	ld.d	$a3, $a0, 72
	move	$a0, $s1
	move	$a1, $s0
	move	$a2, $fp
	jirl	$ra, $a3, 0
	ld.d	$a0, $s0, 0
	ld.d	$a3, $a0, 0
	pcalau12i	$a0, %pc_hi20(.L.str.940)
	addi.d	$a1, $a0, %pc_lo12(.L.str.940)
	b	.LBB27_370
.LBB27_137:                             # %sw.bb1445
	ld.d	$a1, $s0, 0
	ld.d	$s1, $a0, 8
	ld.d	$a3, $a1, 0
	pcalau12i	$a0, %pc_hi20(.L.str.810)
	addi.d	$a1, $a0, %pc_lo12(.L.str.810)
	move	$a0, $s0
	move	$a2, $fp
	jirl	$ra, $a3, 0
	pcalau12i	$a0, %got_pc_hi20(Theargsnumbers)
	ld.d	$a0, $a0, %got_pc_lo12(Theargsnumbers)
	ld.d	$a0, $a0, 0
	pcaddu18i	$ra, %call36(_ZNK2kc16impl_argsnumbers4lastEv)
	jirl	$ra, $ra, 0
	ld.w	$a0, $a0, 8
	ori	$a1, $zero, 2
	slt	$a2, $a1, $a0
	masknez	$a1, $a1, $a2
	maskeqz	$a0, $a0, $a2
	or	$s6, $a0, $a1
	pcalau12i	$a0, %pc_hi20(.L.str.811)
	addi.d	$s2, $a0, %pc_lo12(.L.str.811)
	pcalau12i	$a0, %pc_hi20(.L.str.812)
	addi.d	$s3, $a0, %pc_lo12(.L.str.812)
	pcalau12i	$a0, %pc_hi20(.L.str.331)
	addi.d	$s4, $a0, %pc_lo12(.L.str.331)
	move	$s5, $zero
	.p2align	4, , 16
.LBB27_138:                             # %for.body
                                        # =>This Inner Loop Header: Depth=1
	ld.d	$a0, $s0, 0
	ld.d	$a3, $a0, 0
	addi.w	$s5, $s5, 1
	move	$a0, $s0
	move	$a1, $s2
	move	$a2, $fp
	jirl	$ra, $a3, 0
	ld.d	$a0, $s0, 0
	ld.d	$a3, $a0, 0
	move	$a0, $s0
	move	$a1, $s3
	move	$a2, $fp
	jirl	$ra, $a3, 0
	addi.d	$a0, $sp, 784
	move	$a1, $s4
	move	$a2, $s5
	pcaddu18i	$ra, %call36(sprintf)
	jirl	$ra, $ra, 0
	ld.d	$a0, $s0, 0
	ld.d	$a3, $a0, 0
	addi.d	$a1, $sp, 784
	move	$a0, $s0
	move	$a2, $fp
	jirl	$ra, $a3, 0
	bne	$s6, $s5, .LBB27_138
# %bb.139:                              # %for.cond.cleanup
	ld.d	$a0, $s0, 0
	ld.d	$a3, $a0, 0
	pcalau12i	$a0, %pc_hi20(.L.str.813)
	addi.d	$a1, $a0, %pc_lo12(.L.str.813)
	move	$a0, $s0
	move	$a2, $fp
	jirl	$ra, $a3, 0
	ld.d	$a0, $s0, 0
	ld.d	$a3, $a0, 0
	pcalau12i	$a0, %pc_hi20(.L.str.814)
	addi.d	$a1, $a0, %pc_lo12(.L.str.814)
	move	$a0, $s0
	move	$a2, $fp
	jirl	$ra, $a3, 0
	ld.d	$a0, $s1, 0
	ld.d	$a3, $a0, 72
	pcalau12i	$a0, %pc_hi20(_ZN2kc24view_gen_create_functionE)
	addi.d	$a2, $a0, %pc_lo12(_ZN2kc24view_gen_create_functionE)
	move	$a0, $s1
	move	$a1, $s0
	jirl	$ra, $a3, 0
	ld.d	$a0, $s0, 0
	ld.d	$a3, $a0, 0
	pcalau12i	$a0, %pc_hi20(.L.str.815)
	addi.d	$a1, $a0, %pc_lo12(.L.str.815)
	move	$a0, $s0
	move	$a2, $fp
	jirl	$ra, $a3, 0
	pcalau12i	$a0, %pc_hi20(_ZTV13count_printer+16)
	addi.d	$a0, $a0, %pc_lo12(_ZTV13count_printer+16)
	st.d	$a0, $sp, 784
	st.w	$zero, $sp, 792
	ld.d	$a0, $s1, 0
	ld.d	$a3, $a0, 72
	pcalau12i	$a0, %pc_hi20(_ZN2kc29view_gen_attributeOf_functionE)
	addi.d	$a2, $a0, %pc_lo12(_ZN2kc29view_gen_attributeOf_functionE)
	addi.d	$a1, $sp, 784
	move	$a0, $s1
	jirl	$ra, $a3, 0
	ld.d	$a0, $s0, 0
	ld.w	$a1, $sp, 792
	ld.d	$a3, $a0, 0
	beqz	$a1, .LBB27_341
# %bb.140:                              # %if.else1477
	pcalau12i	$a0, %pc_hi20(.L.str.817)
	addi.d	$a1, $a0, %pc_lo12(.L.str.817)
	move	$a0, $s0
	move	$a2, $fp
	jirl	$ra, $a3, 0
	ld.d	$a0, $s1, 0
	ld.d	$a3, $a0, 72
	pcalau12i	$a0, %pc_hi20(_ZN2kc29view_gen_attributeOf_functionE)
	addi.d	$a2, $a0, %pc_lo12(_ZN2kc29view_gen_attributeOf_functionE)
	move	$a0, $s1
	move	$a1, $s0
	jirl	$ra, $a3, 0
	ld.d	$a0, $s0, 0
	ld.d	$a3, $a0, 0
	pcalau12i	$a0, %pc_hi20(.L.str.818)
	addi.d	$a1, $a0, %pc_lo12(.L.str.818)
	move	$a0, $s0
	move	$a2, $fp
	jirl	$ra, $a3, 0
	ld.d	$a0, $s0, 0
	ld.d	$a3, $a0, 0
	pcalau12i	$a0, %pc_hi20(.L.str.819)
	addi.d	$a1, $a0, %pc_lo12(.L.str.819)
	b	.LBB27_342
.LBB27_141:                             # %sw.bb697
	pcalau12i	$a0, %got_pc_hi20(g_options)
	ld.d	$a0, $a0, %got_pc_lo12(g_options)
	ld.d	$a0, $a0, 0
	jirl	$ra, $ra, 0
	ld.d	$a1, $s0, 0
	ld.d	$a3, $a1, 0
	move	$s1, $a0
	pcalau12i	$a0, %pc_hi20(.L.str.550)
	addi.d	$a1, $a0, %pc_lo12(.L.str.550)
	move	$a0, $s0
	move	$a2, $fp
	jirl	$ra, $a3, 0
	ld.d	$a0, $s0, 0
	ld.d	$a3, $a0, 0
	move	$a0, $s0
	move	$a1, $s1
	move	$a2, $fp
	jirl	$ra, $a3, 0
	ld.d	$a0, $s0, 0
	ld.d	$a3, $a0, 0
	pcalau12i	$a0, %pc_hi20(.L.str.551)
	addi.d	$a1, $a0, %pc_lo12(.L.str.551)
	b	.LBB27_197
.LBB27_142:                             # %sw.bb1890
	ld.d	$a0, $s0, 0
	ld.d	$a3, $a0, 0
	pcalau12i	$a0, %pc_hi20(.L.str.955)
	addi.d	$a1, $a0, %pc_lo12(.L.str.955)
	b	.LBB27_370
.LBB27_143:                             # %sw.bb1799
	ld.d	$a1, $s0, 0
	ld.d	$s1, $a0, 8
	ld.d	$a3, $a1, 0
	pcalau12i	$a0, %pc_hi20(.L.str.935)
	addi.d	$a1, $a0, %pc_lo12(.L.str.935)
	move	$a0, $s0
	move	$a2, $fp
	jirl	$ra, $a3, 0
	ld.d	$a0, $s1, 0
	ld.d	$a3, $a0, 72
	move	$a0, $s1
	move	$a1, $s0
	move	$a2, $fp
	jirl	$ra, $a3, 0
	ld.d	$a0, $s0, 0
	ld.d	$a3, $a0, 0
	pcalau12i	$a0, %pc_hi20(.L.str.936)
	addi.d	$a1, $a0, %pc_lo12(.L.str.936)
	b	.LBB27_370
.LBB27_144:                             # %sw.bb1290
	ld.d	$a0, $s0, 0
	ld.d	$a3, $a0, 0
	pcalau12i	$a0, %pc_hi20(.L.str.748)
	addi.d	$a1, $a0, %pc_lo12(.L.str.748)
	b	.LBB27_370
.LBB27_145:                             # %sw.bb618
	pcalau12i	$a0, %got_pc_hi20(pg_languageshavebeendefined)
	ld.d	$a0, $a0, %got_pc_lo12(pg_languageshavebeendefined)
	ld.bu	$a0, $a0, 0
	beqz	$a0, .LBB27_147
# %bb.146:                              # %if.then623
	ld.d	$a0, $s0, 0
	ld.d	$a3, $a0, 0
	pcalau12i	$a0, %pc_hi20(.L.str.321)
	addi.d	$a1, $a0, %pc_lo12(.L.str.321)
	move	$a0, $s0
	move	$a2, $fp
	jirl	$ra, $a3, 0
	ld.d	$a0, $s0, 0
	ld.d	$a3, $a0, 0
	pcalau12i	$a0, %pc_hi20(.L.str.534)
	addi.d	$a1, $a0, %pc_lo12(.L.str.534)
	move	$a0, $s0
	move	$a2, $fp
	jirl	$ra, $a3, 0
	ld.d	$a0, $s0, 0
	ld.d	$a3, $a0, 0
	pcalau12i	$a0, %pc_hi20(.L.str.535)
	addi.d	$a1, $a0, %pc_lo12(.L.str.535)
	move	$a0, $s0
	move	$a2, $fp
	jirl	$ra, $a3, 0
	ld.d	$a0, $s0, 0
	ld.d	$a3, $a0, 0
	pcalau12i	$a0, %pc_hi20(.L.str.531)
	addi.d	$s1, $a0, %pc_lo12(.L.str.531)
	move	$a0, $s0
	move	$a1, $s1
	move	$a2, $fp
	jirl	$ra, $a3, 0
	ld.d	$a0, $s0, 0
	ld.d	$a3, $a0, 0
	pcalau12i	$a0, %pc_hi20(.L.str.536)
	addi.d	$a1, $a0, %pc_lo12(.L.str.536)
	move	$a0, $s0
	move	$a2, $fp
	jirl	$ra, $a3, 0
	ld.d	$a0, $s0, 0
	ld.d	$a3, $a0, 0
	pcalau12i	$a0, %pc_hi20(.L.str.537)
	addi.d	$a1, $a0, %pc_lo12(.L.str.537)
	move	$a0, $s0
	move	$a2, $fp
	jirl	$ra, $a3, 0
	ld.d	$a0, $s0, 0
	ld.d	$a3, $a0, 0
	move	$a0, $s0
	move	$a1, $s1
	move	$a2, $fp
	jirl	$ra, $a3, 0
	ld.d	$a0, $s0, 0
	ld.d	$a3, $a0, 0
	pcalau12i	$a0, %pc_hi20(.L.str.538)
	addi.d	$a1, $a0, %pc_lo12(.L.str.538)
	move	$a0, $s0
	move	$a2, $fp
	jirl	$ra, $a3, 0
	pcalau12i	$a0, %got_pc_hi20(Thelanguages)
	ld.d	$a0, $a0, %got_pc_lo12(Thelanguages)
	ld.d	$a0, $a0, 0
	ld.d	$a1, $a0, 0
	ld.d	$a3, $a1, 72
	move	$a1, $s0
	move	$a2, $fp
	jirl	$ra, $a3, 0
.LBB27_147:                             # %if.end640
	ld.d	$a0, $s0, 0
	ld.d	$a3, $a0, 0
	pcalau12i	$a0, %pc_hi20(.L.str.539)
	addi.d	$a1, $a0, %pc_lo12(.L.str.539)
	move	$a0, $s0
	move	$a2, $fp
	jirl	$ra, $a3, 0
	pcalau12i	$a0, %got_pc_hi20(Theuviewnames)
	ld.d	$a0, $a0, %got_pc_lo12(Theuviewnames)
	ld.d	$a0, $a0, 0
	ld.d	$a1, $a0, 0
	ld.d	$a3, $a1, 72
	pcalau12i	$a1, %pc_hi20(_ZN2kc20view_uview_class_defE)
	addi.d	$a2, $a1, %pc_lo12(_ZN2kc20view_uview_class_defE)
	move	$a1, $s0
	jirl	$ra, $a3, 0
	ld.d	$a0, $s0, 0
	ld.d	$a3, $a0, 0
	pcalau12i	$a0, %pc_hi20(.L.str.540)
	addi.d	$a1, $a0, %pc_lo12(.L.str.540)
	move	$a0, $s0
	move	$a2, $fp
	jirl	$ra, $a3, 0
	ld.d	$a0, $s0, 0
	ld.d	$a3, $a0, 0
	pcalau12i	$a0, %pc_hi20(.L.str.541)
	addi.d	$a1, $a0, %pc_lo12(.L.str.541)
	move	$a0, $s0
	move	$a2, $fp
	jirl	$ra, $a3, 0
	ld.d	$a0, $s0, 0
	ld.d	$a3, $a0, 0
	pcalau12i	$a0, %pc_hi20(.L.str.542)
	addi.d	$a1, $a0, %pc_lo12(.L.str.542)
	move	$a0, $s0
	move	$a2, $fp
	jirl	$ra, $a3, 0
	ld.d	$a0, $s0, 0
	ld.d	$a3, $a0, 0
	pcalau12i	$a0, %pc_hi20(.L.str.543)
	addi.d	$a1, $a0, %pc_lo12(.L.str.543)
	b	.LBB27_370
.LBB27_148:                             # %sw.bb926
	ld.d	$a0, $s0, 0
	ld.d	$a3, $a0, 0
	pcalau12i	$a0, %pc_hi20(.L.str.595)
	addi.d	$a1, $a0, %pc_lo12(.L.str.595)
	b	.LBB27_370
.LBB27_149:                             # %sw.bb563
	move	$s1, $a0
	ld.d	$a0, $s0, 0
	ld.d	$a3, $a0, 0
	pcalau12i	$a0, %pc_hi20(.L.str.519)
	addi.d	$a1, $a0, %pc_lo12(.L.str.519)
	move	$a0, $s0
	move	$a2, $fp
	jirl	$ra, $a3, 0
	pcalau12i	$a0, %got_pc_hi20(Thefnfiles)
	ld.d	$a0, $a0, %got_pc_lo12(Thefnfiles)
	ld.d	$a0, $a0, 0
	ld.d	$a1, $a0, 0
	ld.d	$a3, $a1, 72
	move	$a1, $s0
	move	$a2, $fp
	jirl	$ra, $a3, 0
	ld.d	$a0, $s0, 0
	ld.d	$a3, $a0, 0
	pcalau12i	$a0, %pc_hi20(.L.str.520)
	addi.d	$a1, $a0, %pc_lo12(.L.str.520)
	move	$a0, $s0
	move	$a2, $fp
	jirl	$ra, $a3, 0
	ld.d	$a0, $s0, 0
	ld.d	$a3, $a0, 0
	pcalau12i	$a0, %got_pc_hi20(kimwitu_copyright)
	ld.d	$a1, $a0, %got_pc_lo12(kimwitu_copyright)
	move	$a0, $s0
	move	$a2, $fp
	jirl	$ra, $a3, 0
	ld.d	$a0, $s0, 0
	ld.d	$a3, $a0, 0
	pcalau12i	$a0, %pc_hi20(.L.str.521)
	addi.d	$a1, $a0, %pc_lo12(.L.str.521)
	move	$a0, $s0
	move	$a2, $fp
	jirl	$ra, $a3, 0
	pcalau12i	$a0, %got_pc_hi20(g_options)
	ld.d	$s2, $a0, %got_pc_lo12(g_options)
	addi.d	$a0, $s2, 120
	pcalau12i	$a1, %pc_hi20(.L.str.312)
	addi.d	$a1, $a1, %pc_lo12(.L.str.312)
	pcaddu18i	$ra, %call36(_ZStneIcSt11char_traitsIcESaIcEEbRKNSt7__cxx1112basic_stringIT_T0_T1_EEPKS5_)
	jirl	$ra, $ra, 0
	beqz	$a0, .LBB27_151
# %bb.150:                              # %if.then572
	ld.d	$a0, $s0, 0
	ld.d	$a3, $a0, 0
	pcalau12i	$a0, %pc_hi20(.L.str.522)
	addi.d	$a1, $a0, %pc_lo12(.L.str.522)
	move	$a0, $s0
	move	$a2, $fp
	jirl	$ra, $a3, 0
	ld.d	$a0, $s0, 0
	ld.d	$a1, $s2, 120
	ld.d	$a3, $a0, 0
	move	$a0, $s0
	move	$a2, $fp
	jirl	$ra, $a3, 0
	ld.d	$a0, $s0, 0
	ld.d	$a3, $a0, 0
	pcalau12i	$a0, %pc_hi20(.L.str.523)
	addi.d	$a1, $a0, %pc_lo12(.L.str.523)
	move	$a0, $s0
	move	$a2, $fp
	jirl	$ra, $a3, 0
.LBB27_151:                             # %if.end580
	ld.d	$a0, $s0, 0
	ld.d	$a3, $a0, 0
	pcalau12i	$a0, %pc_hi20(.L.str.524)
	addi.d	$a1, $a0, %pc_lo12(.L.str.524)
	move	$a0, $s0
	move	$a2, $fp
	jirl	$ra, $a3, 0
	ld.d	$a0, $s0, 0
	ld.d	$a1, $s2, 184
	ld.d	$a3, $a0, 0
	move	$a0, $s0
	move	$a2, $fp
	jirl	$ra, $a3, 0
	ld.d	$a0, $s0, 0
	ld.d	$a3, $a0, 0
	pcalau12i	$a0, %pc_hi20(.L.str.525)
	addi.d	$a1, $a0, %pc_lo12(.L.str.525)
	move	$a0, $s0
	move	$a2, $fp
	jirl	$ra, $a3, 0
	ld.d	$a0, $s0, 0
	ld.d	$a1, $s2, 184
	ld.d	$a3, $a0, 0
	move	$a0, $s0
	move	$a2, $fp
	jirl	$ra, $a3, 0
	ld.d	$a0, $s0, 0
	ld.d	$a3, $a0, 0
	pcalau12i	$a0, %pc_hi20(.L.str.526)
	addi.d	$a1, $a0, %pc_lo12(.L.str.526)
	move	$a0, $s0
	move	$a2, $fp
	jirl	$ra, $a3, 0
	move	$a0, $s1
	ld.d	$a1, $s1, 0
	ld.d	$a3, $a1, 72
	pcalau12i	$a1, %pc_hi20(_ZN2kc19view_open_namespaceE)
	addi.d	$a2, $a1, %pc_lo12(_ZN2kc19view_open_namespaceE)
	move	$a1, $s0
	jirl	$ra, $a3, 0
	pcalau12i	$a0, %got_pc_hi20(Theuviewnames)
	ld.d	$s1, $a0, %got_pc_lo12(Theuviewnames)
	ld.d	$a0, $s1, 0
	ld.d	$a1, $a0, 0
	ld.d	$a3, $a1, 72
	pcalau12i	$a1, %pc_hi20(_ZN2kc19view_gen_viewvars_cE)
	addi.d	$a2, $a1, %pc_lo12(_ZN2kc19view_gen_viewvars_cE)
	move	$a1, $s0
	jirl	$ra, $a3, 0
	ld.d	$a0, $s0, 0
	ld.d	$a3, $a0, 0
	pcalau12i	$a0, %pc_hi20(.L.str.527)
	addi.d	$a1, $a0, %pc_lo12(.L.str.527)
	move	$a0, $s0
	move	$a2, $fp
	jirl	$ra, $a3, 0
	ld.d	$a0, $s1, 0
	ld.d	$a1, $a0, 0
	ld.d	$a3, $a1, 72
	move	$a1, $s0
	move	$a2, $fp
	jirl	$ra, $a3, 0
	ld.d	$a0, $s0, 0
	ld.d	$a3, $a0, 0
	pcalau12i	$a0, %pc_hi20(.L.str.528)
	addi.d	$a1, $a0, %pc_lo12(.L.str.528)
	move	$a0, $s0
	move	$a2, $fp
	jirl	$ra, $a3, 0
	pcalau12i	$a0, %got_pc_hi20(pg_languageshavebeendefined)
	ld.d	$a0, $a0, %got_pc_lo12(pg_languageshavebeendefined)
	ld.bu	$a0, $a0, 0
	beqz	$a0, .LBB27_344
# %bb.152:                              # %if.then598
	ld.d	$a0, $s0, 0
	ld.d	$a3, $a0, 0
	pcalau12i	$a0, %pc_hi20(.L.str.321)
	addi.d	$a1, $a0, %pc_lo12(.L.str.321)
	move	$a0, $s0
	move	$a2, $fp
	jirl	$ra, $a3, 0
	ld.d	$a0, $s0, 0
	ld.d	$a3, $a0, 0
	pcalau12i	$a0, %pc_hi20(.L.str.529)
	addi.d	$a1, $a0, %pc_lo12(.L.str.529)
	move	$a0, $s0
	move	$a2, $fp
	jirl	$ra, $a3, 0
	ld.d	$a0, $s0, 0
	ld.d	$a3, $a0, 0
	pcalau12i	$a0, %pc_hi20(.L.str.530)
	addi.d	$a1, $a0, %pc_lo12(.L.str.530)
	move	$a0, $s0
	move	$a2, $fp
	jirl	$ra, $a3, 0
	ld.d	$a0, $s0, 0
	ld.d	$a3, $a0, 0
	pcalau12i	$a0, %pc_hi20(.L.str.531)
	addi.d	$a1, $a0, %pc_lo12(.L.str.531)
	b	.LBB27_370
.LBB27_153:                             # %sw.bb612
	ld.d	$a0, $s0, 0
	ld.d	$a3, $a0, 0
	pcalau12i	$a0, %pc_hi20(.L.str.533)
	addi.d	$a1, $a0, %pc_lo12(.L.str.533)
	move	$a0, $s0
	move	$a2, $fp
	jirl	$ra, $a3, 0
	pcalau12i	$a0, %got_pc_hi20(Therviewnames)
	ld.d	$a0, $a0, %got_pc_lo12(Therviewnames)
	ld.d	$a0, $a0, 0
	ld.d	$a1, $a0, 0
	ld.d	$a3, $a1, 72
	pcalau12i	$a1, %pc_hi20(_ZN2kc20view_rview_class_defE)
	addi.d	$a2, $a1, %pc_lo12(_ZN2kc20view_rview_class_defE)
	move	$a1, $s0
	b	.LBB27_372
.LBB27_154:                             # %sw.bb1811
	ld.d	$s1, $a0, 8
	pcalau12i	$a0, %got_pc_hi20(g_options)
	ld.d	$a0, $a0, %got_pc_lo12(g_options)
	ld.bu	$a0, $a0, 69
	bnez	$a0, .LBB27_156
# %bb.155:                              # %if.then1816
	ld.d	$a0, $s0, 0
	ld.d	$a3, $a0, 0
	pcalau12i	$a0, %pc_hi20(.L.str.937)
	addi.d	$a1, $a0, %pc_lo12(.L.str.937)
	move	$a0, $s0
	move	$a2, $fp
	jirl	$ra, $a3, 0
.LBB27_156:                             # %if.end1819
	ld.d	$a0, $s0, 0
	ld.d	$a3, $a0, 0
	pcalau12i	$a0, %pc_hi20(.L.str.321)
	addi.d	$s2, $a0, %pc_lo12(.L.str.321)
	move	$a0, $s0
	move	$a1, $s2
	move	$a2, $fp
	jirl	$ra, $a3, 0
	ld.d	$a0, $s1, 0
	ld.d	$a3, $a0, 72
	move	$a0, $s1
	move	$a1, $s0
	move	$a2, $fp
	jirl	$ra, $a3, 0
	ld.d	$a0, $s0, 0
	ld.d	$a3, $a0, 0
	move	$a0, $s0
	move	$a1, $s2
	b	.LBB27_371
.LBB27_157:                             # %sw.bb123
	ld.d	$a0, $s0, 0
	ld.d	$a3, $a0, 0
	pcalau12i	$a0, %pc_hi20(.L.str.381)
	addi.d	$a1, $a0, %pc_lo12(.L.str.381)
	move	$a0, $s0
	move	$a2, $fp
	jirl	$ra, $a3, 0
	ld.d	$a0, $s0, 0
	ld.d	$a3, $a0, 0
	pcalau12i	$a0, %pc_hi20(.L.str.382)
	addi.d	$a1, $a0, %pc_lo12(.L.str.382)
	move	$a0, $s0
	move	$a2, $fp
	jirl	$ra, $a3, 0
	ld.d	$a0, $s0, 0
	ld.d	$a3, $a0, 0
	pcalau12i	$a0, %pc_hi20(.L.str.383)
	addi.d	$a1, $a0, %pc_lo12(.L.str.383)
	move	$a0, $s0
	move	$a2, $fp
	jirl	$ra, $a3, 0
	pcalau12i	$a0, %got_pc_hi20(g_options)
	ld.d	$a0, $a0, %got_pc_lo12(g_options)
	ld.bu	$a0, $a0, 70
	bnez	$a0, .LBB27_344
# %bb.158:                              # %if.then132
	ld.d	$a0, $s0, 0
	ld.d	$a3, $a0, 0
	pcalau12i	$a0, %pc_hi20(.L.str.384)
	addi.d	$a1, $a0, %pc_lo12(.L.str.384)
	move	$a0, $s0
	move	$a2, $fp
	jirl	$ra, $a3, 0
	ld.d	$a0, $s0, 0
	ld.d	$a3, $a0, 0
	pcalau12i	$a0, %pc_hi20(.L.str.385)
	addi.d	$a1, $a0, %pc_lo12(.L.str.385)
	move	$a0, $s0
	move	$a2, $fp
	jirl	$ra, $a3, 0
	ld.d	$a0, $s0, 0
	ld.d	$a3, $a0, 0
	pcalau12i	$a0, %pc_hi20(.L.str.386)
	addi.d	$a1, $a0, %pc_lo12(.L.str.386)
	b	.LBB27_370
.LBB27_159:                             # %sw.bb2254
	ld.d	$a0, $s0, 0
	ld.d	$a3, $a0, 0
	pcalau12i	$a0, %pc_hi20(.L.str.1048)
	addi.d	$a1, $a0, %pc_lo12(.L.str.1048)
	b	.LBB27_370
.LBB27_160:                             # %sw.bb2250
	ld.d	$a0, $s0, 0
	ld.d	$a3, $a0, 0
	pcalau12i	$a0, %pc_hi20(.L.str.1047)
	addi.d	$a1, $a0, %pc_lo12(.L.str.1047)
	b	.LBB27_370
.LBB27_161:                             # %sw.bb962
	ld.d	$a1, $s0, 0
	ld.d	$s1, $a0, 8
	ld.d	$a3, $a1, 0
	pcalau12i	$a0, %pc_hi20(.L.str.605)
	addi.d	$a1, $a0, %pc_lo12(.L.str.605)
	move	$a0, $s0
	move	$a2, $fp
	jirl	$ra, $a3, 0
	ld.d	$a0, $s1, 0
	ld.d	$a3, $a0, 72
	move	$a0, $s1
	move	$a1, $s0
	move	$a2, $fp
	jirl	$ra, $a3, 0
	ld.d	$a0, $s0, 0
	ld.d	$a3, $a0, 0
	pcalau12i	$a0, %pc_hi20(.L.str.606)
	addi.d	$a1, $a0, %pc_lo12(.L.str.606)
	move	$a0, $s0
	move	$a2, $fp
	jirl	$ra, $a3, 0
	ld.d	$a0, $s0, 0
	ld.d	$a3, $a0, 0
	pcalau12i	$a0, %pc_hi20(.L.str.607)
	addi.d	$a1, $a0, %pc_lo12(.L.str.607)
	b	.LBB27_370
.LBB27_162:                             # %sw.bb1854
	ld.d	$a1, $s0, 0
	ld.d	$s1, $a0, 8
	ld.d	$a3, $a1, 0
	pcalau12i	$s3, %pc_hi20(_ZN12_GLOBAL__N_117g_no_of_operatorsE)
	st.w	$zero, $s3, %pc_lo12(_ZN12_GLOBAL__N_117g_no_of_operatorsE)
	pcalau12i	$a0, %pc_hi20(.L.str.944)
	addi.d	$a1, $a0, %pc_lo12(.L.str.944)
	move	$a0, $s0
	move	$a2, $fp
	jirl	$ra, $a3, 0
	ld.w	$a2, $s3, %pc_lo12(_ZN12_GLOBAL__N_117g_no_of_operatorsE)
	pcalau12i	$a0, %pc_hi20(.L.str.331)
	addi.d	$s2, $a0, %pc_lo12(.L.str.331)
	addi.d	$a0, $sp, 784
	move	$a1, $s2
	pcaddu18i	$ra, %call36(sprintf)
	jirl	$ra, $ra, 0
	ld.d	$a0, $s0, 0
	ld.d	$a3, $a0, 0
	addi.d	$a1, $sp, 784
	move	$a0, $s0
	move	$a2, $fp
	jirl	$ra, $a3, 0
	ld.d	$a0, $s0, 0
	ld.d	$a3, $a0, 0
	pcalau12i	$a0, %pc_hi20(.L.str.945)
	addi.d	$a1, $a0, %pc_lo12(.L.str.945)
	move	$a0, $s0
	move	$a2, $fp
	jirl	$ra, $a3, 0
	ld.d	$a0, $s1, 0
	ld.w	$a1, $s3, %pc_lo12(_ZN12_GLOBAL__N_117g_no_of_operatorsE)
	ld.d	$a3, $a0, 72
	addi.d	$a0, $a1, 1
	st.w	$a0, $s3, %pc_lo12(_ZN12_GLOBAL__N_117g_no_of_operatorsE)
	move	$a0, $s1
	move	$a1, $s0
	move	$a2, $fp
	jirl	$ra, $a3, 0
	ld.d	$a0, $s0, 0
	ld.d	$a3, $a0, 0
	pcalau12i	$a0, %pc_hi20(.L.str.946)
	addi.d	$a1, $a0, %pc_lo12(.L.str.946)
	move	$a0, $s0
	move	$a2, $fp
	jirl	$ra, $a3, 0
	ld.w	$a2, $s3, %pc_lo12(_ZN12_GLOBAL__N_117g_no_of_operatorsE)
	addi.d	$a0, $sp, 784
	move	$a1, $s2
	pcaddu18i	$ra, %call36(sprintf)
	jirl	$ra, $ra, 0
	ld.d	$a0, $s0, 0
	ld.d	$a3, $a0, 0
	addi.d	$a1, $sp, 784
	move	$a0, $s0
	move	$a2, $fp
	jirl	$ra, $a3, 0
	ld.d	$a0, $s0, 0
	ld.d	$a3, $a0, 0
	pcalau12i	$a0, %pc_hi20(.L.str.947)
	addi.d	$a1, $a0, %pc_lo12(.L.str.947)
	b	.LBB27_343
.LBB27_163:                             # %sw.bb2182
	ld.d	$a1, $a0, 0
	ld.d	$a3, $a1, 72
	pcalau12i	$a1, %pc_hi20(_ZN2kc20view_close_namespaceE)
	addi.d	$a2, $a1, %pc_lo12(_ZN2kc20view_close_namespaceE)
	move	$a1, $s0
	jirl	$ra, $a3, 0
	ld.d	$a0, $s0, 0
	ld.d	$a3, $a0, 0
	pcalau12i	$a0, %pc_hi20(.L.str.1021)
	addi.d	$a1, $a0, %pc_lo12(.L.str.1021)
	b	.LBB27_370
.LBB27_164:                             # %sw.bb1880
	ld.d	$a0, $s0, 0
	ld.d	$a3, $a0, 0
	pcalau12i	$a0, %pc_hi20(.L.str.951)
	addi.d	$a1, $a0, %pc_lo12(.L.str.951)
	move	$a0, $s0
	move	$a2, $fp
	jirl	$ra, $a3, 0
	ld.d	$a0, $s0, 0
	ld.d	$a3, $a0, 0
	pcalau12i	$a0, %pc_hi20(.L.str.952)
	addi.d	$a1, $a0, %pc_lo12(.L.str.952)
	move	$a0, $s0
	move	$a2, $fp
	jirl	$ra, $a3, 0
	ld.d	$a0, $s0, 0
	ld.d	$a3, $a0, 0
	pcalau12i	$a0, %pc_hi20(.L.str.953)
	addi.d	$a1, $a0, %pc_lo12(.L.str.953)
	move	$a0, $s0
	move	$a2, $fp
	jirl	$ra, $a3, 0
	ld.d	$a0, $s0, 0
	ld.d	$a3, $a0, 0
	pcalau12i	$a0, %pc_hi20(.L.str.954)
	addi.d	$a1, $a0, %pc_lo12(.L.str.954)
	b	.LBB27_370
.LBB27_165:                             # %sw.bb1896
	move	$s2, $a0
	ld.d	$a0, $s0, 0
	ld.d	$a3, $a0, 0
	pcalau12i	$a0, %pc_hi20(.L.str.519)
	addi.d	$a1, $a0, %pc_lo12(.L.str.519)
	move	$a0, $s0
	move	$a2, $fp
	jirl	$ra, $a3, 0
	pcalau12i	$a0, %got_pc_hi20(Thefnfiles)
	ld.d	$a0, $a0, %got_pc_lo12(Thefnfiles)
	ld.d	$a0, $a0, 0
	ld.d	$a1, $a0, 0
	ld.d	$a3, $a1, 72
	move	$a1, $s0
	move	$a2, $fp
	jirl	$ra, $a3, 0
	ld.d	$a0, $s0, 0
	ld.d	$a3, $a0, 0
	pcalau12i	$a0, %pc_hi20(.L.str.520)
	addi.d	$a1, $a0, %pc_lo12(.L.str.520)
	move	$a0, $s0
	move	$a2, $fp
	jirl	$ra, $a3, 0
	ld.d	$a0, $s0, 0
	ld.d	$a3, $a0, 0
	pcalau12i	$a0, %got_pc_hi20(kimwitu_copyright)
	ld.d	$a1, $a0, %got_pc_lo12(kimwitu_copyright)
	move	$a0, $s0
	move	$a2, $fp
	jirl	$ra, $a3, 0
	ld.d	$a0, $s0, 0
	ld.d	$a3, $a0, 0
	pcalau12i	$a0, %pc_hi20(.L.str.956)
	addi.d	$a1, $a0, %pc_lo12(.L.str.956)
	move	$a0, $s0
	move	$a2, $fp
	jirl	$ra, $a3, 0
	pcalau12i	$a0, %got_pc_hi20(g_options)
	ld.d	$s1, $a0, %got_pc_lo12(g_options)
	addi.d	$a0, $s1, 120
	pcalau12i	$a1, %pc_hi20(.L.str.312)
	addi.d	$a1, $a1, %pc_lo12(.L.str.312)
	pcaddu18i	$ra, %call36(_ZStneIcSt11char_traitsIcESaIcEEbRKNSt7__cxx1112basic_stringIT_T0_T1_EEPKS5_)
	jirl	$ra, $ra, 0
	beqz	$a0, .LBB27_167
# %bb.166:                              # %if.then1905
	ld.d	$a0, $s0, 0
	ld.d	$a3, $a0, 0
	pcalau12i	$a0, %pc_hi20(.L.str.522)
	addi.d	$a1, $a0, %pc_lo12(.L.str.522)
	move	$a0, $s0
	move	$a2, $fp
	jirl	$ra, $a3, 0
	ld.d	$a0, $s0, 0
	ld.d	$a1, $s1, 120
	ld.d	$a3, $a0, 0
	move	$a0, $s0
	move	$a2, $fp
	jirl	$ra, $a3, 0
	ld.d	$a0, $s0, 0
	ld.d	$a3, $a0, 0
	pcalau12i	$a0, %pc_hi20(.L.str.523)
	addi.d	$a1, $a0, %pc_lo12(.L.str.523)
	move	$a0, $s0
	move	$a2, $fp
	jirl	$ra, $a3, 0
.LBB27_167:                             # %if.end1913
	ld.d	$a0, $s0, 0
	ld.d	$a3, $a0, 0
	pcalau12i	$a0, %pc_hi20(.L.str.957)
	addi.d	$a1, $a0, %pc_lo12(.L.str.957)
	move	$a0, $s0
	move	$a2, $fp
	jirl	$ra, $a3, 0
	ld.d	$a0, $s0, 0
	ld.d	$a1, $s1, 184
	ld.d	$a3, $a0, 0
	move	$a0, $s0
	move	$a2, $fp
	jirl	$ra, $a3, 0
	ld.d	$a0, $s0, 0
	ld.d	$a3, $a0, 0
	pcalau12i	$a0, %pc_hi20(.L.str.958)
	addi.d	$a1, $a0, %pc_lo12(.L.str.958)
	move	$a0, $s0
	move	$a2, $fp
	jirl	$ra, $a3, 0
	ld.d	$a0, $s0, 0
	ld.d	$a3, $a0, 0
	pcalau12i	$a0, %pc_hi20(.L.str.959)
	addi.d	$a1, $a0, %pc_lo12(.L.str.959)
	move	$a0, $s0
	move	$a2, $fp
	jirl	$ra, $a3, 0
	ld.d	$a0, $s0, 0
	ld.d	$a3, $a0, 0
	pcalau12i	$a0, %pc_hi20(.L.str.960)
	addi.d	$a1, $a0, %pc_lo12(.L.str.960)
	move	$a0, $s0
	move	$a2, $fp
	jirl	$ra, $a3, 0
	ld.d	$a0, $s0, 0
	ld.d	$a3, $a0, 0
	pcalau12i	$a0, %pc_hi20(.L.str.961)
	addi.d	$a1, $a0, %pc_lo12(.L.str.961)
	move	$a0, $s0
	move	$a2, $fp
	jirl	$ra, $a3, 0
	move	$a0, $s2
	ld.d	$a1, $s2, 0
	ld.d	$a3, $a1, 72
	pcalau12i	$a1, %pc_hi20(_ZN2kc19view_open_namespaceE)
	addi.d	$a2, $a1, %pc_lo12(_ZN2kc19view_open_namespaceE)
	move	$a1, $s0
	jirl	$ra, $a3, 0
	ld.d	$a0, $s0, 0
	ld.d	$a3, $a0, 0
	pcalau12i	$a0, %pc_hi20(.L.str.962)
	addi.d	$a1, $a0, %pc_lo12(.L.str.962)
	move	$a0, $s0
	move	$a2, $fp
	jirl	$ra, $a3, 0
	ld.d	$a0, $s0, 0
	ld.d	$a3, $a0, 0
	pcalau12i	$a0, %pc_hi20(.L.str.963)
	addi.d	$a1, $a0, %pc_lo12(.L.str.963)
	move	$a0, $s0
	move	$a2, $fp
	jirl	$ra, $a3, 0
	ld.d	$a0, $s0, 0
	ld.d	$a3, $a0, 0
	pcalau12i	$a0, %pc_hi20(.L.str.964)
	addi.d	$a1, $a0, %pc_lo12(.L.str.964)
	move	$a0, $s0
	move	$a2, $fp
	jirl	$ra, $a3, 0
	ld.d	$a0, $s0, 0
	ld.d	$a3, $a0, 0
	pcalau12i	$a0, %pc_hi20(.L.str.965)
	addi.d	$a1, $a0, %pc_lo12(.L.str.965)
	move	$a0, $s0
	move	$a2, $fp
	jirl	$ra, $a3, 0
	ld.d	$a0, $s0, 0
	ld.d	$a3, $a0, 0
	pcalau12i	$a0, %pc_hi20(.L.str.966)
	addi.d	$a1, $a0, %pc_lo12(.L.str.966)
	move	$a0, $s0
	move	$a2, $fp
	jirl	$ra, $a3, 0
	ld.d	$a0, $s0, 0
	ld.d	$a3, $a0, 0
	pcalau12i	$a0, %pc_hi20(.L.str.967)
	addi.d	$a1, $a0, %pc_lo12(.L.str.967)
	move	$a0, $s0
	move	$a2, $fp
	jirl	$ra, $a3, 0
	ld.d	$a0, $s0, 0
	ld.d	$a3, $a0, 0
	pcalau12i	$a0, %pc_hi20(.L.str.968)
	addi.d	$a1, $a0, %pc_lo12(.L.str.968)
	move	$a0, $s0
	move	$a2, $fp
	jirl	$ra, $a3, 0
	ld.d	$a0, $s0, 0
	ld.d	$a3, $a0, 0
	pcalau12i	$a0, %pc_hi20(.L.str.969)
	addi.d	$a1, $a0, %pc_lo12(.L.str.969)
	move	$a0, $s0
	move	$a2, $fp
	jirl	$ra, $a3, 0
	ld.d	$a0, $s0, 0
	ld.d	$a3, $a0, 0
	pcalau12i	$a0, %pc_hi20(.L.str.970)
	addi.d	$a1, $a0, %pc_lo12(.L.str.970)
	move	$a0, $s0
	move	$a2, $fp
	jirl	$ra, $a3, 0
	ld.d	$a0, $s0, 0
	ld.d	$a3, $a0, 0
	pcalau12i	$a0, %pc_hi20(.L.str.971)
	addi.d	$a1, $a0, %pc_lo12(.L.str.971)
	move	$a0, $s0
	move	$a2, $fp
	jirl	$ra, $a3, 0
	ld.d	$a0, $s0, 0
	ld.d	$a3, $a0, 0
	pcalau12i	$a0, %pc_hi20(.L.str.972)
	addi.d	$a1, $a0, %pc_lo12(.L.str.972)
	move	$a0, $s0
	move	$a2, $fp
	jirl	$ra, $a3, 0
.Ltmp3:                                 # EH_LABEL
	pcalau12i	$a0, %pc_hi20(.L.str.312)
	addi.d	$a1, $a0, %pc_lo12(.L.str.312)
	addi.d	$a0, $sp, 784
	addi.d	$a2, $sp, 783
	pcaddu18i	$ra, %call36(_ZNSt7__cxx1112basic_stringIcSt11char_traitsIcESaIcEEC2EPKcRKS3_)
	jirl	$ra, $ra, 0
.Ltmp4:                                 # EH_LABEL
# %bb.168:                              # %invoke.cont1952
	ld.bu	$a0, $s1, 72
	beqz	$a0, .LBB27_170
# %bb.169:                              # %if.then1956
.Ltmp6:                                 # EH_LABEL
	pcalau12i	$a0, %pc_hi20(.L.str.563)
	addi.d	$a1, $a0, %pc_lo12(.L.str.563)
	addi.d	$a0, $sp, 784
	pcaddu18i	$ra, %call36(_ZNSt7__cxx1112basic_stringIcSt11char_traitsIcESaIcEEaSEPKc)
	jirl	$ra, $ra, 0
.Ltmp7:                                 # EH_LABEL
.LBB27_170:                             # %if.end1960
	ld.d	$a0, $s0, 0
	ld.d	$a3, $a0, 0
.Ltmp8:                                 # EH_LABEL
	pcalau12i	$a0, %pc_hi20(.L.str.973)
	addi.d	$a1, $a0, %pc_lo12(.L.str.973)
	move	$a0, $s0
	move	$a2, $fp
	jirl	$ra, $a3, 0
.Ltmp9:                                 # EH_LABEL
# %bb.171:                              # %invoke.cont1963
.Ltmp10:                                # EH_LABEL
	addi.d	$a0, $sp, 424
	addi.d	$a1, $sp, 784
	pcaddu18i	$ra, %call36(_ZNSt7__cxx1112basic_stringIcSt11char_traitsIcESaIcEEC2ERKS4_)
	jirl	$ra, $ra, 0
.Ltmp11:                                # EH_LABEL
# %bb.172:                              # %invoke.cont1965
	ld.d	$a0, $s0, 0
	ld.d	$a1, $sp, 424
	ld.d	$a3, $a0, 0
.Ltmp12:                                # EH_LABEL
	move	$a0, $s0
	move	$a2, $fp
	jirl	$ra, $a3, 0
.Ltmp13:                                # EH_LABEL
# %bb.173:                              # %invoke.cont1967
	ld.d	$a0, $sp, 424
	addi.d	$a1, $sp, 440
	beq	$a0, $a1, .LBB27_175
# %bb.174:                              # %if.then.i.i2166
	ld.d	$a1, $sp, 440
	addi.d	$a1, $a1, 1
	pcaddu18i	$ra, %call36(_ZdlPvm)
	jirl	$ra, $ra, 0
.LBB27_175:                             # %_ZNSt7__cxx1112basic_stringIcSt11char_traitsIcESaIcEED2Ev.exit2171
	ld.d	$a0, $s0, 0
	ld.d	$a3, $a0, 0
.Ltmp15:                                # EH_LABEL
	pcalau12i	$a0, %pc_hi20(.L.str.974)
	addi.d	$a1, $a0, %pc_lo12(.L.str.974)
	move	$a0, $s0
	move	$a2, $fp
	jirl	$ra, $a3, 0
.Ltmp16:                                # EH_LABEL
# %bb.176:                              # %invoke.cont1971
.Ltmp17:                                # EH_LABEL
	addi.d	$a0, $sp, 392
	addi.d	$a1, $sp, 784
	pcaddu18i	$ra, %call36(_ZNSt7__cxx1112basic_stringIcSt11char_traitsIcESaIcEEC2ERKS4_)
	jirl	$ra, $ra, 0
.Ltmp18:                                # EH_LABEL
# %bb.177:                              # %invoke.cont1973
	ld.d	$a0, $s0, 0
	ld.d	$a1, $sp, 392
	ld.d	$a3, $a0, 0
.Ltmp19:                                # EH_LABEL
	move	$a0, $s0
	move	$a2, $fp
	jirl	$ra, $a3, 0
.Ltmp20:                                # EH_LABEL
# %bb.178:                              # %invoke.cont1975
	ld.d	$a0, $sp, 392
	addi.d	$a1, $sp, 408
	beq	$a0, $a1, .LBB27_180
# %bb.179:                              # %if.then.i.i2175
	ld.d	$a1, $sp, 408
	addi.d	$a1, $a1, 1
	pcaddu18i	$ra, %call36(_ZdlPvm)
	jirl	$ra, $ra, 0
.LBB27_180:                             # %_ZNSt7__cxx1112basic_stringIcSt11char_traitsIcESaIcEED2Ev.exit2180
	ld.d	$a0, $s0, 0
	ld.d	$a3, $a0, 0
.Ltmp22:                                # EH_LABEL
	pcalau12i	$a0, %pc_hi20(.L.str.975)
	addi.d	$a1, $a0, %pc_lo12(.L.str.975)
	move	$a0, $s0
	move	$a2, $fp
	jirl	$ra, $a3, 0
.Ltmp23:                                # EH_LABEL
# %bb.181:                              # %invoke.cont1979
	ld.d	$a0, $s0, 0
	ld.d	$a3, $a0, 0
.Ltmp24:                                # EH_LABEL
	pcalau12i	$a0, %pc_hi20(.L.str.976)
	addi.d	$a1, $a0, %pc_lo12(.L.str.976)
	move	$a0, $s0
	move	$a2, $fp
	jirl	$ra, $a3, 0
.Ltmp25:                                # EH_LABEL
# %bb.182:                              # %invoke.cont1982
	ld.d	$a0, $s0, 0
	ld.d	$a3, $a0, 0
.Ltmp26:                                # EH_LABEL
	pcalau12i	$a0, %pc_hi20(.L.str.977)
	addi.d	$a1, $a0, %pc_lo12(.L.str.977)
	move	$a0, $s0
	move	$a2, $fp
	jirl	$ra, $a3, 0
.Ltmp27:                                # EH_LABEL
# %bb.183:                              # %invoke.cont1985
	ld.d	$a0, $s0, 0
	ld.d	$a3, $a0, 0
.Ltmp28:                                # EH_LABEL
	pcalau12i	$a0, %pc_hi20(.L.str.978)
	addi.d	$a1, $a0, %pc_lo12(.L.str.978)
	move	$a0, $s0
	move	$a2, $fp
	jirl	$ra, $a3, 0
.Ltmp29:                                # EH_LABEL
# %bb.184:                              # %invoke.cont1988
	ld.d	$a0, $s0, 0
	ld.d	$a3, $a0, 0
.Ltmp30:                                # EH_LABEL
	pcalau12i	$a0, %pc_hi20(.L.str.979)
	addi.d	$a1, $a0, %pc_lo12(.L.str.979)
	move	$a0, $s0
	move	$a2, $fp
	jirl	$ra, $a3, 0
.Ltmp31:                                # EH_LABEL
# %bb.185:                              # %invoke.cont1991
	ld.d	$a0, $s0, 0
	ld.d	$a3, $a0, 0
.Ltmp32:                                # EH_LABEL
	pcalau12i	$a0, %pc_hi20(.L.str.980)
	addi.d	$a1, $a0, %pc_lo12(.L.str.980)
	move	$a0, $s0
	move	$a2, $fp
	jirl	$ra, $a3, 0
.Ltmp33:                                # EH_LABEL
# %bb.186:                              # %invoke.cont1994
	ld.d	$a0, $s0, 0
	ld.bu	$a1, $s1, 72
	ld.d	$a3, $a0, 0
	beqz	$a1, .LBB27_255
# %bb.187:                              # %if.else2021
.Ltmp48:                                # EH_LABEL
	pcalau12i	$a0, %pc_hi20(.L.str.989)
	addi.d	$a1, $a0, %pc_lo12(.L.str.989)
	move	$a0, $s0
	move	$a2, $fp
	jirl	$ra, $a3, 0
.Ltmp49:                                # EH_LABEL
# %bb.188:                              # %invoke.cont2024
	ld.d	$a0, $s0, 0
	ld.d	$a3, $a0, 0
.Ltmp50:                                # EH_LABEL
	pcalau12i	$a0, %pc_hi20(.L.str.990)
	addi.d	$a1, $a0, %pc_lo12(.L.str.990)
	move	$a0, $s0
	move	$a2, $fp
	jirl	$ra, $a3, 0
.Ltmp51:                                # EH_LABEL
# %bb.189:                              # %invoke.cont2027
	ld.d	$a0, $s0, 0
	ld.d	$a3, $a0, 0
.Ltmp52:                                # EH_LABEL
	pcalau12i	$a0, %pc_hi20(.L.str.991)
	addi.d	$a1, $a0, %pc_lo12(.L.str.991)
	move	$a0, $s0
	move	$a2, $fp
	jirl	$ra, $a3, 0
.Ltmp53:                                # EH_LABEL
# %bb.190:                              # %invoke.cont2030
	ld.d	$a0, $s0, 0
	ld.d	$a3, $a0, 0
.Ltmp54:                                # EH_LABEL
	pcalau12i	$a0, %pc_hi20(.L.str.992)
	addi.d	$a1, $a0, %pc_lo12(.L.str.992)
	move	$a0, $s0
	move	$a2, $fp
	jirl	$ra, $a3, 0
.Ltmp55:                                # EH_LABEL
# %bb.191:
	pcalau12i	$a0, %pc_hi20(.L.str.993)
	addi.d	$a1, $a0, %pc_lo12(.L.str.993)
	b	.LBB27_263
.LBB27_192:                             # %sw.bb1711
	ld.d	$a0, $s0, 0
	ld.d	$a3, $a0, 0
	pcalau12i	$a0, %pc_hi20(.L.str.895)
	addi.d	$a1, $a0, %pc_lo12(.L.str.895)
	move	$a0, $s0
	move	$a2, $fp
	jirl	$ra, $a3, 0
	ld.d	$a0, $s0, 0
	ld.d	$a3, $a0, 0
	pcalau12i	$a0, %pc_hi20(.L.str.896)
	addi.d	$a1, $a0, %pc_lo12(.L.str.896)
	move	$a0, $s0
	move	$a2, $fp
	jirl	$ra, $a3, 0
	ld.d	$a0, $s0, 0
	ld.d	$a3, $a0, 0
	pcalau12i	$a0, %pc_hi20(.L.str.897)
	addi.d	$a1, $a0, %pc_lo12(.L.str.897)
	move	$a0, $s0
	move	$a2, $fp
	jirl	$ra, $a3, 0
	ld.d	$a0, $s0, 0
	ld.d	$a3, $a0, 0
	pcalau12i	$a0, %pc_hi20(.L.str.898)
	addi.d	$a1, $a0, %pc_lo12(.L.str.898)
	move	$a0, $s0
	move	$a2, $fp
	jirl	$ra, $a3, 0
	ld.d	$a0, $s0, 0
	ld.d	$a3, $a0, 0
	pcalau12i	$a0, %pc_hi20(.L.str.899)
	addi.d	$a1, $a0, %pc_lo12(.L.str.899)
	move	$a0, $s0
	move	$a2, $fp
	jirl	$ra, $a3, 0
	ld.d	$a0, $s0, 0
	ld.d	$a3, $a0, 0
	pcalau12i	$a0, %pc_hi20(.L.str.900)
	addi.d	$a1, $a0, %pc_lo12(.L.str.900)
	move	$a0, $s0
	move	$a2, $fp
	jirl	$ra, $a3, 0
	ld.d	$a0, $s0, 0
	ld.d	$a3, $a0, 0
	pcalau12i	$a0, %pc_hi20(.L.str.901)
	addi.d	$a1, $a0, %pc_lo12(.L.str.901)
	move	$a0, $s0
	move	$a2, $fp
	jirl	$ra, $a3, 0
	ld.d	$a0, $s0, 0
	ld.d	$a3, $a0, 0
	pcalau12i	$a0, %pc_hi20(.L.str.902)
	addi.d	$a1, $a0, %pc_lo12(.L.str.902)
	move	$a0, $s0
	move	$a2, $fp
	jirl	$ra, $a3, 0
	ld.d	$a0, $s0, 0
	ld.d	$a3, $a0, 0
	pcalau12i	$a0, %pc_hi20(.L.str.903)
	addi.d	$a1, $a0, %pc_lo12(.L.str.903)
	move	$a0, $s0
	move	$a2, $fp
	jirl	$ra, $a3, 0
	ld.d	$a0, $s0, 0
	ld.d	$a3, $a0, 0
	pcalau12i	$a0, %pc_hi20(.L.str.904)
	addi.d	$a1, $a0, %pc_lo12(.L.str.904)
	move	$a0, $s0
	move	$a2, $fp
	jirl	$ra, $a3, 0
	ld.d	$a0, $s0, 0
	ld.d	$a3, $a0, 0
	pcalau12i	$a0, %pc_hi20(.L.str.905)
	addi.d	$a1, $a0, %pc_lo12(.L.str.905)
	move	$a0, $s0
	move	$a2, $fp
	jirl	$ra, $a3, 0
	ld.d	$a0, $s0, 0
	ld.d	$a3, $a0, 0
	pcalau12i	$a0, %pc_hi20(.L.str.906)
	addi.d	$a1, $a0, %pc_lo12(.L.str.906)
	move	$a0, $s0
	move	$a2, $fp
	jirl	$ra, $a3, 0
	ld.d	$a0, $s0, 0
	ld.d	$a3, $a0, 0
	pcalau12i	$a0, %pc_hi20(.L.str.907)
	addi.d	$a1, $a0, %pc_lo12(.L.str.907)
	move	$a0, $s0
	move	$a2, $fp
	jirl	$ra, $a3, 0
	ld.d	$a0, $s0, 0
	ld.d	$a3, $a0, 0
	pcalau12i	$a0, %pc_hi20(.L.str.908)
	addi.d	$a1, $a0, %pc_lo12(.L.str.908)
	move	$a0, $s0
	move	$a2, $fp
	jirl	$ra, $a3, 0
	ld.d	$a0, $s0, 0
	ld.d	$a3, $a0, 0
	pcalau12i	$a0, %pc_hi20(.L.str.909)
	addi.d	$a1, $a0, %pc_lo12(.L.str.909)
	move	$a0, $s0
	move	$a2, $fp
	jirl	$ra, $a3, 0
	ld.d	$a0, $s0, 0
	ld.d	$a3, $a0, 0
	pcalau12i	$a0, %pc_hi20(.L.str.910)
	addi.d	$a1, $a0, %pc_lo12(.L.str.910)
	move	$a0, $s0
	move	$a2, $fp
	jirl	$ra, $a3, 0
	ld.d	$a0, $s0, 0
	ld.d	$a3, $a0, 0
	pcalau12i	$a0, %pc_hi20(.L.str.911)
	addi.d	$a1, $a0, %pc_lo12(.L.str.911)
	move	$a0, $s0
	move	$a2, $fp
	jirl	$ra, $a3, 0
	ld.d	$a0, $s0, 0
	ld.d	$a3, $a0, 0
	pcalau12i	$a0, %pc_hi20(.L.str.912)
	addi.d	$a1, $a0, %pc_lo12(.L.str.912)
	move	$a0, $s0
	move	$a2, $fp
	jirl	$ra, $a3, 0
	ld.d	$a0, $s0, 0
	ld.d	$a3, $a0, 0
	pcalau12i	$a0, %pc_hi20(.L.str.913)
	addi.d	$a1, $a0, %pc_lo12(.L.str.913)
	move	$a0, $s0
	move	$a2, $fp
	jirl	$ra, $a3, 0
	ld.d	$a0, $s0, 0
	ld.d	$a3, $a0, 0
	pcalau12i	$a0, %pc_hi20(.L.str.914)
	addi.d	$a1, $a0, %pc_lo12(.L.str.914)
	move	$a0, $s0
	move	$a2, $fp
	jirl	$ra, $a3, 0
	ld.d	$a0, $s0, 0
	ld.d	$a3, $a0, 0
	pcalau12i	$a0, %pc_hi20(.L.str.915)
	addi.d	$a1, $a0, %pc_lo12(.L.str.915)
	move	$a0, $s0
	move	$a2, $fp
	jirl	$ra, $a3, 0
	ld.d	$a0, $s0, 0
	ld.d	$a3, $a0, 0
	pcalau12i	$a0, %pc_hi20(.L.str.916)
	addi.d	$a1, $a0, %pc_lo12(.L.str.916)
	move	$a0, $s0
	move	$a2, $fp
	jirl	$ra, $a3, 0
	ld.d	$a0, $s0, 0
	ld.d	$a3, $a0, 0
	pcalau12i	$a0, %pc_hi20(.L.str.917)
	addi.d	$a1, $a0, %pc_lo12(.L.str.917)
	move	$a0, $s0
	move	$a2, $fp
	jirl	$ra, $a3, 0
	ld.d	$a0, $s0, 0
	ld.d	$a3, $a0, 0
	pcalau12i	$a0, %pc_hi20(.L.str.918)
	addi.d	$a1, $a0, %pc_lo12(.L.str.918)
	move	$a0, $s0
	move	$a2, $fp
	jirl	$ra, $a3, 0
	ld.d	$a0, $s0, 0
	ld.d	$a3, $a0, 0
	pcalau12i	$a0, %pc_hi20(.L.str.919)
	addi.d	$a1, $a0, %pc_lo12(.L.str.919)
	move	$a0, $s0
	move	$a2, $fp
	jirl	$ra, $a3, 0
	ld.d	$a0, $s0, 0
	ld.d	$a3, $a0, 0
	pcalau12i	$a0, %pc_hi20(.L.str.920)
	addi.d	$a1, $a0, %pc_lo12(.L.str.920)
	move	$a0, $s0
	move	$a2, $fp
	jirl	$ra, $a3, 0
	ld.d	$a0, $s0, 0
	ld.d	$a3, $a0, 0
	pcalau12i	$a0, %pc_hi20(.L.str.921)
	addi.d	$a1, $a0, %pc_lo12(.L.str.921)
	move	$a0, $s0
	move	$a2, $fp
	jirl	$ra, $a3, 0
	ld.d	$a0, $s0, 0
	ld.d	$a3, $a0, 0
	pcalau12i	$a0, %pc_hi20(.L.str.922)
	addi.d	$a1, $a0, %pc_lo12(.L.str.922)
	move	$a0, $s0
	move	$a2, $fp
	jirl	$ra, $a3, 0
	ld.d	$a0, $s0, 0
	ld.d	$a3, $a0, 0
	pcalau12i	$a0, %pc_hi20(.L.str.923)
	addi.d	$a1, $a0, %pc_lo12(.L.str.923)
	move	$a0, $s0
	move	$a2, $fp
	jirl	$ra, $a3, 0
	ld.d	$a0, $s0, 0
	ld.d	$a3, $a0, 0
	pcalau12i	$a0, %pc_hi20(.L.str.924)
	addi.d	$a1, $a0, %pc_lo12(.L.str.924)
	b	.LBB27_370
.LBB27_193:                             # %sw.bb1867
	ld.d	$a1, $s0, 0
	ld.d	$s1, $a0, 8
	ld.d	$a3, $a1, 0
	pcalau12i	$s3, %pc_hi20(_ZN12_GLOBAL__N_113g_no_of_phylaE)
	st.w	$zero, $s3, %pc_lo12(_ZN12_GLOBAL__N_113g_no_of_phylaE)
	pcalau12i	$a0, %pc_hi20(.L.str.948)
	addi.d	$a1, $a0, %pc_lo12(.L.str.948)
	move	$a0, $s0
	move	$a2, $fp
	jirl	$ra, $a3, 0
	ld.w	$a2, $s3, %pc_lo12(_ZN12_GLOBAL__N_113g_no_of_phylaE)
	pcalau12i	$a0, %pc_hi20(.L.str.331)
	addi.d	$s2, $a0, %pc_lo12(.L.str.331)
	addi.d	$a0, $sp, 784
	move	$a1, $s2
	pcaddu18i	$ra, %call36(sprintf)
	jirl	$ra, $ra, 0
	ld.d	$a0, $s0, 0
	ld.d	$a3, $a0, 0
	addi.d	$a1, $sp, 784
	move	$a0, $s0
	move	$a2, $fp
	jirl	$ra, $a3, 0
	ld.d	$a0, $s0, 0
	ld.d	$a3, $a0, 0
	pcalau12i	$a0, %pc_hi20(.L.str.945)
	addi.d	$a1, $a0, %pc_lo12(.L.str.945)
	move	$a0, $s0
	move	$a2, $fp
	jirl	$ra, $a3, 0
	ld.d	$a0, $s1, 0
	ld.w	$a1, $s3, %pc_lo12(_ZN12_GLOBAL__N_113g_no_of_phylaE)
	ld.d	$a3, $a0, 72
	addi.d	$a0, $a1, 1
	st.w	$a0, $s3, %pc_lo12(_ZN12_GLOBAL__N_113g_no_of_phylaE)
	move	$a0, $s1
	move	$a1, $s0
	move	$a2, $fp
	jirl	$ra, $a3, 0
	ld.d	$a0, $s0, 0
	ld.d	$a3, $a0, 0
	pcalau12i	$a0, %pc_hi20(.L.str.949)
	addi.d	$a1, $a0, %pc_lo12(.L.str.949)
	move	$a0, $s0
	move	$a2, $fp
	jirl	$ra, $a3, 0
	ld.w	$a2, $s3, %pc_lo12(_ZN12_GLOBAL__N_113g_no_of_phylaE)
	addi.d	$a0, $sp, 784
	move	$a1, $s2
	pcaddu18i	$ra, %call36(sprintf)
	jirl	$ra, $ra, 0
	ld.d	$a0, $s0, 0
	ld.d	$a3, $a0, 0
	addi.d	$a1, $sp, 784
	move	$a0, $s0
	move	$a2, $fp
	jirl	$ra, $a3, 0
	ld.d	$a0, $s0, 0
	ld.d	$a3, $a0, 0
	pcalau12i	$a0, %pc_hi20(.L.str.950)
	addi.d	$a1, $a0, %pc_lo12(.L.str.950)
	b	.LBB27_343
.LBB27_194:                             # %sw.bb668
	pcalau12i	$a0, %got_pc_hi20(g_options)
	ld.d	$s2, $a0, %got_pc_lo12(g_options)
	ld.d	$a0, $s2, 32
	jirl	$ra, $ra, 0
	ld.d	$a1, $s0, 0
	ld.d	$a3, $a1, 0
	move	$s1, $a0
	pcalau12i	$a0, %pc_hi20(.L.str.545)
	addi.d	$a1, $a0, %pc_lo12(.L.str.545)
	move	$a0, $s0
	move	$a2, $fp
	jirl	$ra, $a3, 0
	pcalau12i	$a0, %got_pc_hi20(pg_filename)
	ld.d	$a0, $a0, %got_pc_lo12(pg_filename)
	ld.d	$a0, $a0, 0
	ld.d	$a1, $a0, 0
	ld.d	$a3, $a1, 72
	move	$a1, $s0
	move	$a2, $fp
	jirl	$ra, $a3, 0
	ld.d	$a0, $s0, 0
	ld.d	$a3, $a0, 0
	pcalau12i	$a0, %pc_hi20(.L.str.546)
	addi.d	$a1, $a0, %pc_lo12(.L.str.546)
	move	$a0, $s0
	move	$a2, $fp
	jirl	$ra, $a3, 0
	ld.d	$a0, $s0, 0
	ld.d	$a3, $a0, 0
	pcalau12i	$a0, %got_pc_hi20(kimwitu_copyright)
	ld.d	$a1, $a0, %got_pc_lo12(kimwitu_copyright)
	move	$a0, $s0
	move	$a2, $fp
	jirl	$ra, $a3, 0
	ld.d	$a0, $s0, 0
	ld.d	$a3, $a0, 0
	pcalau12i	$a0, %pc_hi20(.L.str.547)
	addi.d	$a1, $a0, %pc_lo12(.L.str.547)
	move	$a0, $s0
	move	$a2, $fp
	jirl	$ra, $a3, 0
	ld.d	$a0, $s0, 0
	ld.d	$a3, $a0, 0
	move	$a0, $s0
	move	$a1, $s1
	move	$a2, $fp
	jirl	$ra, $a3, 0
	ld.d	$a0, $s0, 0
	ld.d	$a3, $a0, 0
	pcalau12i	$a0, %pc_hi20(.L.str.321)
	addi.d	$a1, $a0, %pc_lo12(.L.str.321)
	move	$a0, $s0
	move	$a2, $fp
	jirl	$ra, $a3, 0
	addi.d	$a0, $s2, 120
	pcalau12i	$a1, %pc_hi20(.L.str.312)
	addi.d	$a1, $a1, %pc_lo12(.L.str.312)
	pcaddu18i	$ra, %call36(_ZStneIcSt11char_traitsIcESaIcEEbRKNSt7__cxx1112basic_stringIT_T0_T1_EEPKS5_)
	jirl	$ra, $ra, 0
	beqz	$a0, .LBB27_196
# %bb.195:                              # %if.then681
	ld.d	$a0, $s0, 0
	ld.d	$a3, $a0, 0
	pcalau12i	$a0, %pc_hi20(.L.str.522)
	addi.d	$a1, $a0, %pc_lo12(.L.str.522)
	move	$a0, $s0
	move	$a2, $fp
	jirl	$ra, $a3, 0
	ld.d	$a0, $s0, 0
	ld.d	$a1, $s2, 120
	ld.d	$a3, $a0, 0
	move	$a0, $s0
	move	$a2, $fp
	jirl	$ra, $a3, 0
	ld.d	$a0, $s0, 0
	ld.d	$a3, $a0, 0
	pcalau12i	$a0, %pc_hi20(.L.str.523)
	addi.d	$a1, $a0, %pc_lo12(.L.str.523)
	move	$a0, $s0
	move	$a2, $fp
	jirl	$ra, $a3, 0
.LBB27_196:                             # %if.end689
	ld.d	$a0, $s0, 0
	ld.d	$a3, $a0, 0
	pcalau12i	$a0, %pc_hi20(.L.str.548)
	addi.d	$a1, $a0, %pc_lo12(.L.str.548)
	move	$a0, $s0
	move	$a2, $fp
	jirl	$ra, $a3, 0
	ld.d	$a0, $s0, 0
	ld.d	$a1, $s2, 184
	ld.d	$a3, $a0, 0
	move	$a0, $s0
	move	$a2, $fp
	jirl	$ra, $a3, 0
	ld.d	$a0, $s0, 0
	ld.d	$a3, $a0, 0
	pcalau12i	$a0, %pc_hi20(.L.str.549)
	addi.d	$a1, $a0, %pc_lo12(.L.str.549)
.LBB27_197:                             # %if.end689
	move	$a0, $s0
	move	$a2, $fp
	jirl	$ra, $a3, 0
	beqz	$s1, .LBB27_344
# %bb.198:                              # %delete.notnull
	move	$a0, $s1
	ld.d	$s6, $sp, 984                   # 8-byte Folded Reload
	ld.d	$s5, $sp, 992                   # 8-byte Folded Reload
	ld.d	$s4, $sp, 1000                  # 8-byte Folded Reload
	ld.d	$s3, $sp, 1008                  # 8-byte Folded Reload
	ld.d	$s2, $sp, 1016                  # 8-byte Folded Reload
	ld.d	$s1, $sp, 1024                  # 8-byte Folded Reload
	ld.d	$s0, $sp, 1032                  # 8-byte Folded Reload
	ld.d	$fp, $sp, 1040                  # 8-byte Folded Reload
	ld.d	$ra, $sp, 1048                  # 8-byte Folded Reload
	addi.d	$sp, $sp, 1056
	pcaddu18i	$t8, %call36(_ZdaPv)
	jr	$t8
.LBB27_199:                             # %sw.bb2264
	ld.d	$a1, $a0, 0
	ld.d	$a3, $a1, 80
	move	$a1, $s0
	b	.LBB27_371
.LBB27_200:                             # %sw.bb80
	ld.d	$a0, $s0, 0
	ld.d	$a3, $a0, 0
	pcalau12i	$a0, %pc_hi20(.L.str.362)
	addi.d	$a1, $a0, %pc_lo12(.L.str.362)
	move	$a0, $s0
	move	$a2, $fp
	jirl	$ra, $a3, 0
	ld.d	$a0, $s0, 0
	ld.d	$a3, $a0, 0
	pcalau12i	$a0, %pc_hi20(.L.str.363)
	addi.d	$a1, $a0, %pc_lo12(.L.str.363)
	move	$a0, $s0
	move	$a2, $fp
	jirl	$ra, $a3, 0
	ld.d	$a0, $s0, 0
	ld.d	$a3, $a0, 0
	pcalau12i	$a0, %pc_hi20(.L.str.364)
	addi.d	$a1, $a0, %pc_lo12(.L.str.364)
	move	$a0, $s0
	move	$a2, $fp
	jirl	$ra, $a3, 0
	ld.d	$a0, $s0, 0
	ld.d	$a3, $a0, 0
	pcalau12i	$a0, %pc_hi20(.L.str.365)
	addi.d	$a1, $a0, %pc_lo12(.L.str.365)
	move	$a0, $s0
	move	$a2, $fp
	jirl	$ra, $a3, 0
	ld.d	$a0, $s0, 0
	ld.d	$a3, $a0, 0
	pcalau12i	$a0, %pc_hi20(.L.str.366)
	addi.d	$a1, $a0, %pc_lo12(.L.str.366)
	move	$a0, $s0
	move	$a2, $fp
	jirl	$ra, $a3, 0
	ld.d	$a0, $s0, 0
	ld.d	$a3, $a0, 0
	pcalau12i	$a0, %pc_hi20(.L.str.367)
	addi.d	$a1, $a0, %pc_lo12(.L.str.367)
	move	$a0, $s0
	move	$a2, $fp
	jirl	$ra, $a3, 0
	ld.d	$a0, $s0, 0
	ld.d	$a3, $a0, 0
	pcalau12i	$a0, %pc_hi20(.L.str.368)
	addi.d	$a1, $a0, %pc_lo12(.L.str.368)
	move	$a0, $s0
	move	$a2, $fp
	jirl	$ra, $a3, 0
	ld.d	$a0, $s0, 0
	ld.d	$a3, $a0, 0
	pcalau12i	$a0, %pc_hi20(.L.str.369)
	addi.d	$a1, $a0, %pc_lo12(.L.str.369)
	move	$a0, $s0
	move	$a2, $fp
	jirl	$ra, $a3, 0
	ld.d	$a0, $s0, 0
	ld.d	$a3, $a0, 0
	pcalau12i	$a0, %pc_hi20(.L.str.370)
	addi.d	$a1, $a0, %pc_lo12(.L.str.370)
	move	$a0, $s0
	move	$a2, $fp
	jirl	$ra, $a3, 0
	ld.d	$a0, $s0, 0
	ld.d	$a3, $a0, 0
	pcalau12i	$a0, %pc_hi20(.L.str.371)
	addi.d	$a1, $a0, %pc_lo12(.L.str.371)
	move	$a0, $s0
	move	$a2, $fp
	jirl	$ra, $a3, 0
	ld.d	$a0, $s0, 0
	ld.d	$a3, $a0, 0
	pcalau12i	$a0, %pc_hi20(.L.str.372)
	addi.d	$a1, $a0, %pc_lo12(.L.str.372)
	move	$a0, $s0
	move	$a2, $fp
	jirl	$ra, $a3, 0
	pcalau12i	$a0, %got_pc_hi20(g_options)
	ld.d	$a0, $a0, %got_pc_lo12(g_options)
	ld.bu	$a0, $a0, 70
	bnez	$a0, .LBB27_344
# %bb.201:                              # %if.then105
	ld.d	$a0, $s0, 0
	ld.d	$a3, $a0, 0
	pcalau12i	$a0, %pc_hi20(.L.str.373)
	addi.d	$a1, $a0, %pc_lo12(.L.str.373)
	move	$a0, $s0
	move	$a2, $fp
	jirl	$ra, $a3, 0
	ld.d	$a0, $s0, 0
	ld.d	$a3, $a0, 0
	pcalau12i	$a0, %pc_hi20(.L.str.374)
	addi.d	$a1, $a0, %pc_lo12(.L.str.374)
	move	$a0, $s0
	move	$a2, $fp
	jirl	$ra, $a3, 0
	ld.d	$a0, $s0, 0
	ld.d	$a3, $a0, 0
	pcalau12i	$a0, %pc_hi20(.L.str.375)
	addi.d	$a1, $a0, %pc_lo12(.L.str.375)
	move	$a0, $s0
	move	$a2, $fp
	jirl	$ra, $a3, 0
	ld.d	$a0, $s0, 0
	ld.d	$a3, $a0, 0
	pcalau12i	$a0, %pc_hi20(.L.str.376)
	addi.d	$a1, $a0, %pc_lo12(.L.str.376)
	move	$a0, $s0
	move	$a2, $fp
	jirl	$ra, $a3, 0
	ld.d	$a0, $s0, 0
	ld.d	$a3, $a0, 0
	pcalau12i	$a0, %pc_hi20(.L.str.377)
	addi.d	$a1, $a0, %pc_lo12(.L.str.377)
	move	$a0, $s0
	move	$a2, $fp
	jirl	$ra, $a3, 0
	ld.d	$a0, $s0, 0
	ld.d	$a3, $a0, 0
	pcalau12i	$a0, %pc_hi20(.L.str.378)
	addi.d	$a1, $a0, %pc_lo12(.L.str.378)
	move	$a0, $s0
	move	$a2, $fp
	jirl	$ra, $a3, 0
	ld.d	$a0, $s0, 0
	ld.d	$a3, $a0, 0
	pcalau12i	$a0, %pc_hi20(.L.str.379)
	addi.d	$a1, $a0, %pc_lo12(.L.str.379)
	move	$a0, $s0
	move	$a2, $fp
	jirl	$ra, $a3, 0
	ld.d	$a0, $s0, 0
	ld.d	$a3, $a0, 0
	pcalau12i	$a0, %pc_hi20(.L.str.380)
	addi.d	$a1, $a0, %pc_lo12(.L.str.380)
	b	.LBB27_370
.LBB27_202:                             # %sw.bb2186
	move	$s2, $a0
	ld.d	$a0, $s0, 0
	ld.d	$a3, $a0, 0
	pcalau12i	$a0, %pc_hi20(.L.str.519)
	addi.d	$a1, $a0, %pc_lo12(.L.str.519)
	move	$a0, $s0
	move	$a2, $fp
	jirl	$ra, $a3, 0
	pcalau12i	$a0, %got_pc_hi20(Thefnfiles)
	ld.d	$a0, $a0, %got_pc_lo12(Thefnfiles)
	ld.d	$a0, $a0, 0
	ld.d	$a1, $a0, 0
	ld.d	$a3, $a1, 72
	move	$a1, $s0
	move	$a2, $fp
	jirl	$ra, $a3, 0
	ld.d	$a0, $s0, 0
	ld.d	$a3, $a0, 0
	pcalau12i	$a0, %pc_hi20(.L.str.520)
	addi.d	$a1, $a0, %pc_lo12(.L.str.520)
	move	$a0, $s0
	move	$a2, $fp
	jirl	$ra, $a3, 0
	ld.d	$a0, $s0, 0
	ld.d	$a3, $a0, 0
	pcalau12i	$a0, %got_pc_hi20(kimwitu_copyright)
	ld.d	$a1, $a0, %got_pc_lo12(kimwitu_copyright)
	move	$a0, $s0
	move	$a2, $fp
	jirl	$ra, $a3, 0
	ld.d	$a0, $s0, 0
	ld.d	$a3, $a0, 0
	pcalau12i	$a0, %pc_hi20(.L.str.1022)
	addi.d	$a1, $a0, %pc_lo12(.L.str.1022)
	move	$a0, $s0
	move	$a2, $fp
	jirl	$ra, $a3, 0
	pcalau12i	$a0, %pc_hi20(.L.str.331)
	addi.d	$s1, $a0, %pc_lo12(.L.str.331)
	addi.d	$a0, $sp, 784
	ori	$a2, $zero, 2
	move	$a1, $s1
	pcaddu18i	$ra, %call36(sprintf)
	jirl	$ra, $ra, 0
	ld.d	$a0, $s0, 0
	ld.d	$a3, $a0, 0
	addi.d	$a1, $sp, 784
	move	$a0, $s0
	move	$a2, $fp
	jirl	$ra, $a3, 0
	ld.d	$a0, $s0, 0
	ld.d	$a3, $a0, 0
	pcalau12i	$a0, %pc_hi20(.L.str.1023)
	addi.d	$a1, $a0, %pc_lo12(.L.str.1023)
	move	$a0, $s0
	move	$a2, $fp
	jirl	$ra, $a3, 0
	addi.d	$a0, $sp, 784
	ori	$a2, $zero, 3
	move	$a1, $s1
	pcaddu18i	$ra, %call36(sprintf)
	jirl	$ra, $ra, 0
	ld.d	$a0, $s0, 0
	ld.d	$a3, $a0, 0
	addi.d	$a1, $sp, 784
	move	$a0, $s0
	move	$a2, $fp
	jirl	$ra, $a3, 0
	ld.d	$a0, $s0, 0
	ld.d	$a3, $a0, 0
	pcalau12i	$a0, %pc_hi20(.L.str.1024)
	addi.d	$a1, $a0, %pc_lo12(.L.str.1024)
	move	$a0, $s0
	move	$a2, $fp
	jirl	$ra, $a3, 0
	addi.d	$a0, $sp, 784
	ori	$a2, $zero, 8
	move	$a1, $s1
	pcaddu18i	$ra, %call36(sprintf)
	jirl	$ra, $ra, 0
	ld.d	$a0, $s0, 0
	ld.d	$a3, $a0, 0
	addi.d	$a1, $sp, 784
	move	$a0, $s0
	move	$a2, $fp
	jirl	$ra, $a3, 0
	ld.d	$a0, $s0, 0
	ld.d	$a3, $a0, 0
	pcalau12i	$a0, %pc_hi20(.L.str.1025)
	addi.d	$a1, $a0, %pc_lo12(.L.str.1025)
	move	$a0, $s0
	move	$a2, $fp
	jirl	$ra, $a3, 0
	ld.d	$a0, $s0, 0
	ld.d	$a3, $a0, 0
	pcalau12i	$a0, %pc_hi20(.L.str.1026)
	addi.d	$a1, $a0, %pc_lo12(.L.str.1026)
	move	$a0, $s0
	move	$a2, $fp
	jirl	$ra, $a3, 0
	ld.d	$a0, $s0, 0
	ld.d	$a3, $a0, 0
	pcalau12i	$a0, %pc_hi20(.L.str.1027)
	addi.d	$a1, $a0, %pc_lo12(.L.str.1027)
	move	$a0, $s0
	move	$a2, $fp
	jirl	$ra, $a3, 0
	ld.d	$a0, $s0, 0
	ld.d	$a3, $a0, 0
	pcalau12i	$a0, %pc_hi20(.L.str.1028)
	addi.d	$a1, $a0, %pc_lo12(.L.str.1028)
	move	$a0, $s0
	move	$a2, $fp
	jirl	$ra, $a3, 0
	ld.d	$a0, $s0, 0
	ld.d	$a3, $a0, 0
	pcalau12i	$a0, %pc_hi20(.L.str.1029)
	addi.d	$a1, $a0, %pc_lo12(.L.str.1029)
	move	$a0, $s0
	move	$a2, $fp
	jirl	$ra, $a3, 0
	ld.d	$a0, $s0, 0
	ld.d	$a3, $a0, 0
	pcalau12i	$a0, %pc_hi20(.L.str.1030)
	addi.d	$a1, $a0, %pc_lo12(.L.str.1030)
	move	$a0, $s0
	move	$a2, $fp
	jirl	$ra, $a3, 0
	ld.d	$a0, $s0, 0
	ld.d	$a3, $a0, 0
	pcalau12i	$a0, %pc_hi20(.L.str.1031)
	addi.d	$a1, $a0, %pc_lo12(.L.str.1031)
	move	$a0, $s0
	move	$a2, $fp
	jirl	$ra, $a3, 0
	ld.d	$a0, $s0, 0
	ld.d	$a3, $a0, 0
	pcalau12i	$a0, %pc_hi20(.L.str.1032)
	addi.d	$a1, $a0, %pc_lo12(.L.str.1032)
	move	$a0, $s0
	move	$a2, $fp
	jirl	$ra, $a3, 0
	ld.d	$a0, $s0, 0
	ld.d	$a3, $a0, 0
	pcalau12i	$a0, %pc_hi20(.L.str.1033)
	addi.d	$a1, $a0, %pc_lo12(.L.str.1033)
	move	$a0, $s0
	move	$a2, $fp
	jirl	$ra, $a3, 0
	ld.d	$a0, $s0, 0
	ld.d	$a3, $a0, 0
	pcalau12i	$a0, %pc_hi20(.L.str.1034)
	addi.d	$a1, $a0, %pc_lo12(.L.str.1034)
	move	$a0, $s0
	move	$a2, $fp
	jirl	$ra, $a3, 0
	ld.d	$a0, $s0, 0
	ld.d	$a3, $a0, 0
	pcalau12i	$a0, %pc_hi20(.L.str.1035)
	addi.d	$a1, $a0, %pc_lo12(.L.str.1035)
	move	$a0, $s0
	move	$a2, $fp
	jirl	$ra, $a3, 0
	ld.d	$a0, $s0, 0
	ld.d	$a3, $a0, 0
	pcalau12i	$a0, %pc_hi20(.L.str.1036)
	addi.d	$a1, $a0, %pc_lo12(.L.str.1036)
	move	$a0, $s0
	move	$a2, $fp
	jirl	$ra, $a3, 0
	pcalau12i	$a0, %got_pc_hi20(g_options)
	ld.d	$s1, $a0, %got_pc_lo12(g_options)
	ld.bu	$a0, $s1, 67
	bnez	$a0, .LBB27_204
# %bb.203:                              # %if.then2223
	ld.d	$a0, $s0, 0
	ld.d	$a3, $a0, 0
	pcalau12i	$a0, %pc_hi20(.L.str.1037)
	addi.d	$a1, $a0, %pc_lo12(.L.str.1037)
	move	$a0, $s0
	move	$a2, $fp
	jirl	$ra, $a3, 0
	ld.d	$a0, $s0, 0
	ld.d	$a3, $a0, 0
	pcalau12i	$a0, %pc_hi20(.L.str.1038)
	addi.d	$a1, $a0, %pc_lo12(.L.str.1038)
	move	$a0, $s0
	move	$a2, $fp
	jirl	$ra, $a3, 0
.LBB27_204:                             # %if.end2228
	ld.bu	$a0, $s1, 68
	bnez	$a0, .LBB27_206
# %bb.205:                              # %if.then2230
	ld.d	$a0, $s0, 0
	ld.d	$a3, $a0, 0
	pcalau12i	$a0, %pc_hi20(.L.str.1039)
	addi.d	$a1, $a0, %pc_lo12(.L.str.1039)
	move	$a0, $s0
	move	$a2, $fp
	jirl	$ra, $a3, 0
.LBB27_206:                             # %if.end2233
	ld.d	$a0, $s0, 0
	ld.d	$a3, $a0, 0
	pcalau12i	$a0, %pc_hi20(.L.str.1040)
	addi.d	$a1, $a0, %pc_lo12(.L.str.1040)
	move	$a0, $s0
	move	$a2, $fp
	jirl	$ra, $a3, 0
	ld.d	$a0, $s0, 0
	ld.d	$a3, $a0, 0
	pcalau12i	$a0, %pc_hi20(.L.str.1041)
	addi.d	$a1, $a0, %pc_lo12(.L.str.1041)
	move	$a0, $s0
	move	$a2, $fp
	jirl	$ra, $a3, 0
	ld.d	$a0, $s0, 0
	ld.d	$a3, $a0, 0
	pcalau12i	$a0, %pc_hi20(.L.str.1042)
	addi.d	$a1, $a0, %pc_lo12(.L.str.1042)
	move	$a0, $s0
	move	$a2, $fp
	jirl	$ra, $a3, 0
	ld.d	$a0, $s0, 0
	ld.d	$a3, $a0, 0
	pcalau12i	$a0, %pc_hi20(.L.str.1043)
	addi.d	$a1, $a0, %pc_lo12(.L.str.1043)
	move	$a0, $s0
	move	$a2, $fp
	jirl	$ra, $a3, 0
	ld.d	$a0, $s0, 0
	ld.d	$a3, $a0, 0
	pcalau12i	$a0, %pc_hi20(.L.str.1044)
	addi.d	$a1, $a0, %pc_lo12(.L.str.1044)
	move	$a0, $s0
	move	$a2, $fp
	jirl	$ra, $a3, 0
	ld.d	$a0, $s2, 0
	ld.d	$a3, $a0, 72
	pcalau12i	$a0, %pc_hi20(_ZN2kc19view_gen_deprecatedE)
	addi.d	$a2, $a0, %pc_lo12(_ZN2kc19view_gen_deprecatedE)
	move	$a0, $s2
	move	$a1, $s0
	jirl	$ra, $a3, 0
	ld.d	$a0, $s0, 0
	ld.d	$a3, $a0, 0
	pcalau12i	$a0, %pc_hi20(.L.str.1045)
	addi.d	$a1, $a0, %pc_lo12(.L.str.1045)
	move	$a0, $s0
	move	$a2, $fp
	jirl	$ra, $a3, 0
	ld.d	$a0, $s0, 0
	ld.d	$a3, $a0, 0
	pcalau12i	$a0, %pc_hi20(.L.str.1046)
	addi.d	$a1, $a0, %pc_lo12(.L.str.1046)
	move	$a0, $s0
	move	$a2, $fp
	jirl	$ra, $a3, 0
	ld.d	$a0, $s2, 0
	ld.d	$a3, $a0, 72
	pcalau12i	$a0, %pc_hi20(_ZN2kc19view_open_namespaceE)
	addi.d	$a2, $a0, %pc_lo12(_ZN2kc19view_open_namespaceE)
	move	$a0, $s2
	move	$a1, $s0
	b	.LBB27_213
.LBB27_207:                             # %sw.bb
	ld.d	$a0, $s0, 0
	ld.d	$a3, $a0, 0
	pcalau12i	$a0, %pc_hi20(.L.str.342)
	addi.d	$a1, $a0, %pc_lo12(.L.str.342)
	move	$a0, $s0
	move	$a2, $fp
	jirl	$ra, $a3, 0
	pcalau12i	$a0, %got_pc_hi20(Therviewnames)
	ld.d	$a0, $a0, %got_pc_lo12(Therviewnames)
	ld.d	$a0, $a0, 0
	ld.d	$a1, $a0, 0
	ld.d	$a3, $a1, 72
	pcalau12i	$a1, %pc_hi20(_ZN2kc19view_gen_rewritek_hE)
	addi.d	$a2, $a1, %pc_lo12(_ZN2kc19view_gen_rewritek_hE)
	move	$a1, $s0
	jirl	$ra, $a3, 0
	ld.d	$a0, $s0, 0
	ld.d	$a3, $a0, 0
	pcalau12i	$a0, %pc_hi20(.L.str.343)
	addi.d	$a1, $a0, %pc_lo12(.L.str.343)
	move	$a0, $s0
	move	$a2, $fp
	jirl	$ra, $a3, 0
	pcalau12i	$a0, %got_pc_hi20(g_options)
	ld.d	$s1, $a0, %got_pc_lo12(g_options)
	addi.d	$a0, $s1, 152
	pcalau12i	$a1, %pc_hi20(.L.str.312)
	addi.d	$a1, $a1, %pc_lo12(.L.str.312)
	pcaddu18i	$ra, %call36(_ZStneIcSt11char_traitsIcESaIcEEbRKNSt7__cxx1112basic_stringIT_T0_T1_EEPKS5_)
	jirl	$ra, $ra, 0
	beqz	$a0, .LBB27_209
# %bb.208:                              # %if.then
	ld.d	$a0, $s0, 0
	ld.d	$a1, $s1, 152
	ld.d	$a3, $a0, 0
	move	$a0, $s0
	move	$a2, $fp
	jirl	$ra, $a3, 0
	ld.d	$a0, $s0, 0
	ld.d	$a3, $a0, 0
	pcalau12i	$a0, %pc_hi20(.L.str.338)
	addi.d	$a1, $a0, %pc_lo12(.L.str.338)
	move	$a0, $s0
	move	$a2, $fp
	jirl	$ra, $a3, 0
.LBB27_209:                             # %if.end
	ld.d	$a0, $s0, 0
	ld.d	$a3, $a0, 0
	pcalau12i	$a0, %pc_hi20(.L.str.344)
	addi.d	$a1, $a0, %pc_lo12(.L.str.344)
	move	$a0, $s0
	move	$a2, $fp
	jirl	$ra, $a3, 0
	ld.d	$a0, $s0, 0
	ld.d	$a3, $a0, 0
	pcalau12i	$a0, %pc_hi20(.L.str.345)
	addi.d	$a1, $a0, %pc_lo12(.L.str.345)
	move	$a0, $s0
	move	$a2, $fp
	jirl	$ra, $a3, 0
	ld.d	$a0, $s0, 0
	ld.d	$a3, $a0, 0
	pcalau12i	$a0, %pc_hi20(.L.str.346)
	addi.d	$a1, $a0, %pc_lo12(.L.str.346)
	move	$a0, $s0
	move	$a2, $fp
	jirl	$ra, $a3, 0
	ld.bu	$a0, $s1, 115
	beqz	$a0, .LBB27_211
# %bb.210:                              # %if.then16
	ld.d	$a0, $s0, 0
	ld.d	$a3, $a0, 0
	pcalau12i	$a0, %pc_hi20(.L.str.347)
	addi.d	$a1, $a0, %pc_lo12(.L.str.347)
	move	$a0, $s0
	move	$a2, $fp
	jirl	$ra, $a3, 0
	ld.d	$a0, $s0, 0
	ld.d	$a3, $a0, 0
	pcalau12i	$a0, %pc_hi20(.L.str.348)
	addi.d	$a1, $a0, %pc_lo12(.L.str.348)
	move	$a0, $s0
	move	$a2, $fp
	jirl	$ra, $a3, 0
	ld.d	$a0, $s0, 0
	ld.d	$a3, $a0, 0
	pcalau12i	$a0, %pc_hi20(.L.str.349)
	addi.d	$a1, $a0, %pc_lo12(.L.str.349)
	move	$a0, $s0
	move	$a2, $fp
	jirl	$ra, $a3, 0
	ld.d	$a0, $s0, 0
	ld.d	$a3, $a0, 0
	pcalau12i	$a0, %pc_hi20(.L.str.350)
	addi.d	$a1, $a0, %pc_lo12(.L.str.350)
	move	$a0, $s0
	move	$a2, $fp
	jirl	$ra, $a3, 0
	ld.d	$a0, $s0, 0
	ld.d	$a3, $a0, 0
	pcalau12i	$a0, %pc_hi20(.L.str.351)
	addi.d	$a1, $a0, %pc_lo12(.L.str.351)
	move	$a0, $s0
	move	$a2, $fp
	jirl	$ra, $a3, 0
.LBB27_211:                             # %if.end27
	ld.d	$a0, $s0, 0
	ld.d	$a3, $a0, 0
	pcalau12i	$a0, %pc_hi20(.L.str.352)
	addi.d	$a1, $a0, %pc_lo12(.L.str.352)
	b	.LBB27_370
.LBB27_212:                             # %sw.bb1793
	ld.d	$a0, $s0, 0
	ld.d	$a3, $a0, 0
	pcalau12i	$a0, %pc_hi20(.L.str.933)
	addi.d	$a1, $a0, %pc_lo12(.L.str.933)
	move	$a0, $s0
	move	$a2, $fp
	jirl	$ra, $a3, 0
	pcalau12i	$a0, %pc_hi20(_ZN12_GLOBAL__N_117g_no_of_operatorsE)
	ld.w	$a2, $a0, %pc_lo12(_ZN12_GLOBAL__N_117g_no_of_operatorsE)
	pcalau12i	$a0, %pc_hi20(.L.str.331)
	addi.d	$a1, $a0, %pc_lo12(.L.str.331)
	addi.d	$a0, $sp, 784
	pcaddu18i	$ra, %call36(sprintf)
	jirl	$ra, $ra, 0
	ld.d	$a0, $s0, 0
	ld.d	$a3, $a0, 0
	addi.d	$a1, $sp, 784
	move	$a0, $s0
	move	$a2, $fp
.LBB27_213:                             # %sw.epilog
	jirl	$ra, $a3, 0
	ld.d	$a0, $s0, 0
	ld.d	$a3, $a0, 0
	pcalau12i	$a0, %pc_hi20(.L.str.934)
	addi.d	$a1, $a0, %pc_lo12(.L.str.934)
	b	.LBB27_343
.LBB27_214:                             # %sw.bb30
	ld.d	$a0, $s0, 0
	ld.d	$a3, $a0, 0
	pcalau12i	$a0, %pc_hi20(.L.str.342)
	addi.d	$a1, $a0, %pc_lo12(.L.str.342)
	move	$a0, $s0
	move	$a2, $fp
	jirl	$ra, $a3, 0
	pcalau12i	$a0, %got_pc_hi20(Theuviewnames)
	ld.d	$a0, $a0, %got_pc_lo12(Theuviewnames)
	ld.d	$a0, $a0, 0
	ld.d	$a1, $a0, 0
	ld.d	$a3, $a1, 72
	pcalau12i	$a1, %pc_hi20(_ZN2kc14view_uview_defE)
	addi.d	$a2, $a1, %pc_lo12(_ZN2kc14view_uview_defE)
	move	$a1, $s0
	jirl	$ra, $a3, 0
	ld.d	$a0, $s0, 0
	ld.d	$a3, $a0, 0
	pcalau12i	$a0, %pc_hi20(.L.str.353)
	addi.d	$a1, $a0, %pc_lo12(.L.str.353)
	move	$a0, $s0
	move	$a2, $fp
	jirl	$ra, $a3, 0
	pcalau12i	$a0, %got_pc_hi20(g_options)
	ld.d	$s2, $a0, %got_pc_lo12(g_options)
	addi.d	$s1, $s2, 152
	pcalau12i	$a0, %pc_hi20(.L.str.312)
	addi.d	$a1, $a0, %pc_lo12(.L.str.312)
	move	$a0, $s1
	pcaddu18i	$ra, %call36(_ZStneIcSt11char_traitsIcESaIcEEbRKNSt7__cxx1112basic_stringIT_T0_T1_EEPKS5_)
	jirl	$ra, $ra, 0
	beqz	$a0, .LBB27_216
# %bb.215:                              # %if.then37
	ld.d	$a0, $s0, 0
	ld.d	$a1, $s2, 152
	ld.d	$a3, $a0, 0
	move	$a0, $s0
	move	$a2, $fp
	jirl	$ra, $a3, 0
	ld.d	$a0, $s0, 0
	ld.d	$a3, $a0, 0
	pcalau12i	$a0, %pc_hi20(.L.str.338)
	addi.d	$a1, $a0, %pc_lo12(.L.str.338)
	move	$a0, $s0
	move	$a2, $fp
	jirl	$ra, $a3, 0
.LBB27_216:                             # %if.end43
	ld.d	$a0, $s0, 0
	ld.d	$a3, $a0, 0
	pcalau12i	$a0, %pc_hi20(.L.str.354)
	addi.d	$a1, $a0, %pc_lo12(.L.str.354)
	move	$a0, $s0
	move	$a2, $fp
	jirl	$ra, $a3, 0
	ld.d	$a0, $s0, 0
	ld.d	$a3, $a0, 0
	pcalau12i	$a0, %pc_hi20(.L.str.355)
	addi.d	$a1, $a0, %pc_lo12(.L.str.355)
	move	$a0, $s0
	move	$a2, $fp
	jirl	$ra, $a3, 0
	ld.d	$a0, $s0, 0
	ld.d	$a3, $a0, 0
	pcalau12i	$a0, %pc_hi20(.L.str.356)
	addi.d	$a1, $a0, %pc_lo12(.L.str.356)
	move	$a0, $s0
	move	$a2, $fp
	jirl	$ra, $a3, 0
	pcalau12i	$a0, %pc_hi20(.L.str.312)
	addi.d	$a1, $a0, %pc_lo12(.L.str.312)
	move	$a0, $s1
	pcaddu18i	$ra, %call36(_ZStneIcSt11char_traitsIcESaIcEEbRKNSt7__cxx1112basic_stringIT_T0_T1_EEPKS5_)
	jirl	$ra, $ra, 0
	beqz	$a0, .LBB27_218
# %bb.217:                              # %if.then51
	ld.d	$a0, $s0, 0
	ld.d	$a1, $s2, 152
	ld.d	$a3, $a0, 0
	move	$a0, $s0
	move	$a2, $fp
	jirl	$ra, $a3, 0
	ld.d	$a0, $s0, 0
	ld.d	$a3, $a0, 0
	pcalau12i	$a0, %pc_hi20(.L.str.338)
	addi.d	$a1, $a0, %pc_lo12(.L.str.338)
	move	$a0, $s0
	move	$a2, $fp
	jirl	$ra, $a3, 0
.LBB27_218:                             # %if.end57
	ld.d	$a0, $s0, 0
	ld.d	$a3, $a0, 0
	pcalau12i	$a0, %pc_hi20(.L.str.357)
	addi.d	$a1, $a0, %pc_lo12(.L.str.357)
	move	$a0, $s0
	move	$a2, $fp
	jirl	$ra, $a3, 0
	pcalau12i	$a0, %pc_hi20(.L.str.312)
	addi.d	$a1, $a0, %pc_lo12(.L.str.312)
	move	$a0, $s1
	pcaddu18i	$ra, %call36(_ZStneIcSt11char_traitsIcESaIcEEbRKNSt7__cxx1112basic_stringIT_T0_T1_EEPKS5_)
	jirl	$ra, $ra, 0
	beqz	$a0, .LBB27_220
# %bb.219:                              # %if.then61
	ld.d	$a0, $s0, 0
	ld.d	$a1, $s2, 152
	ld.d	$a3, $a0, 0
	move	$a0, $s0
	move	$a2, $fp
	jirl	$ra, $a3, 0
	ld.d	$a0, $s0, 0
	ld.d	$a3, $a0, 0
	pcalau12i	$a0, %pc_hi20(.L.str.338)
	addi.d	$a1, $a0, %pc_lo12(.L.str.338)
	move	$a0, $s0
	move	$a2, $fp
	jirl	$ra, $a3, 0
.LBB27_220:                             # %if.end67
	ld.d	$a0, $s0, 0
	ld.d	$a3, $a0, 0
	pcalau12i	$a0, %pc_hi20(.L.str.358)
	addi.d	$a1, $a0, %pc_lo12(.L.str.358)
	move	$a0, $s0
	move	$a2, $fp
	jirl	$ra, $a3, 0
	ld.d	$a0, $s0, 0
	ld.d	$a3, $a0, 0
	pcalau12i	$a0, %pc_hi20(.L.str.359)
	addi.d	$a1, $a0, %pc_lo12(.L.str.359)
	move	$a0, $s0
	move	$a2, $fp
	jirl	$ra, $a3, 0
	ld.d	$a0, $s0, 0
	ld.d	$a3, $a0, 0
	pcalau12i	$a0, %pc_hi20(.L.str.321)
	addi.d	$a1, $a0, %pc_lo12(.L.str.321)
	b	.LBB27_370
.LBB27_221:                             # %sw.bb1417
	ld.d	$a0, $s0, 0
	ld.d	$a3, $a0, 0
	pcalau12i	$a0, %pc_hi20(.L.str.801)
	addi.d	$a1, $a0, %pc_lo12(.L.str.801)
	b	.LBB27_370
.LBB27_222:                             # %sw.bb1421
	pcalau12i	$a0, %pc_hi20(.L.str.802)
	addi.d	$a0, $a0, %pc_lo12(.L.str.802)
	addi.w	$s1, $zero, -1
	move	$a1, $s1
	pcaddu18i	$ra, %call36(_ZN2kc12mkcasestringEPKci)
	jirl	$ra, $ra, 0
	move	$s3, $a0
	pcalau12i	$a0, %pc_hi20(.L.str.803)
	addi.d	$a0, $a0, %pc_lo12(.L.str.803)
	move	$a1, $s1
	pcaddu18i	$ra, %call36(_ZN2kc12mkcasestringEPKci)
	jirl	$ra, $ra, 0
	ld.d	$a1, $s0, 0
	ld.d	$a3, $a1, 0
	move	$s1, $a0
	pcalau12i	$a0, %pc_hi20(.L.str.804)
	addi.d	$a1, $a0, %pc_lo12(.L.str.804)
	move	$a0, $s0
	move	$a2, $fp
	jirl	$ra, $a3, 0
	pcalau12i	$a0, %pc_hi20(.L.str.331)
	addi.d	$s2, $a0, %pc_lo12(.L.str.331)
	addi.d	$a0, $sp, 784
	ori	$a2, $zero, 69
	move	$a1, $s2
	pcaddu18i	$ra, %call36(sprintf)
	jirl	$ra, $ra, 0
	ld.d	$a0, $s0, 0
	ld.d	$a3, $a0, 0
	addi.d	$a1, $sp, 784
	move	$a0, $s0
	move	$a2, $fp
	jirl	$ra, $a3, 0
	ld.d	$a0, $s0, 0
	ld.d	$a3, $a0, 0
	pcalau12i	$a0, %pc_hi20(.L.str.805)
	addi.d	$s4, $a0, %pc_lo12(.L.str.805)
	move	$a0, $s0
	move	$a1, $s4
	move	$a2, $fp
	jirl	$ra, $a3, 0
	ld.d	$a0, $s3, 0
	ld.d	$a3, $a0, 72
	move	$a0, $s3
	move	$a1, $s0
	move	$a2, $fp
	jirl	$ra, $a3, 0
	ld.d	$a0, $s0, 0
	ld.d	$a3, $a0, 0
	pcalau12i	$a0, %pc_hi20(.L.str.806)
	addi.d	$a1, $a0, %pc_lo12(.L.str.806)
	move	$a0, $s0
	move	$a2, $fp
	jirl	$ra, $a3, 0
	ld.d	$a0, $s0, 0
	ld.d	$a3, $a0, 0
	pcalau12i	$a0, %pc_hi20(.L.str.807)
	addi.d	$a1, $a0, %pc_lo12(.L.str.807)
	move	$a0, $s0
	move	$a2, $fp
	jirl	$ra, $a3, 0
	addi.d	$a0, $sp, 784
	ori	$a2, $zero, 71
	move	$a1, $s2
	pcaddu18i	$ra, %call36(sprintf)
	jirl	$ra, $ra, 0
	ld.d	$a0, $s0, 0
	ld.d	$a3, $a0, 0
	addi.d	$a1, $sp, 784
	move	$a0, $s0
	move	$a2, $fp
	jirl	$ra, $a3, 0
	ld.d	$a0, $s0, 0
	ld.d	$a3, $a0, 0
	move	$a0, $s0
	move	$a1, $s4
	move	$a2, $fp
	jirl	$ra, $a3, 0
	ld.d	$a0, $s1, 0
	ld.d	$a3, $a0, 72
	move	$a0, $s1
	move	$a1, $s0
	move	$a2, $fp
	jirl	$ra, $a3, 0
	ld.d	$a0, $s0, 0
	ld.d	$a3, $a0, 0
	pcalau12i	$a0, %pc_hi20(.L.str.808)
	addi.d	$a1, $a0, %pc_lo12(.L.str.808)
	b	.LBB27_343
.LBB27_223:                             # %sw.bb371
	ld.d	$a1, $s0, 0
	ld.d	$s1, $a0, 8
	ld.d	$a3, $a1, 0
	pcalau12i	$a0, %pc_hi20(.L.str.447)
	addi.d	$a1, $a0, %pc_lo12(.L.str.447)
	move	$a0, $s0
	move	$a2, $fp
	jirl	$ra, $a3, 0
	ld.d	$a0, $s0, 0
	ld.d	$a3, $a0, 0
	pcalau12i	$a0, %pc_hi20(.L.str.448)
	addi.d	$a1, $a0, %pc_lo12(.L.str.448)
	move	$a0, $s0
	move	$a2, $fp
	jirl	$ra, $a3, 0
	pcalau12i	$a0, %got_pc_hi20(g_options)
	ld.d	$s3, $a0, %got_pc_lo12(g_options)
	ld.bu	$a0, $s3, 72
	beqz	$a0, .LBB27_369
# %bb.224:                              # %if.then380
	ld.d	$a0, $s0, 0
	ld.d	$a3, $a0, 0
	pcalau12i	$a0, %pc_hi20(.L.str.449)
	addi.d	$a1, $a0, %pc_lo12(.L.str.449)
	move	$a0, $s0
	move	$a2, $fp
	jirl	$ra, $a3, 0
	ld.bu	$a0, $s3, 73
	beqz	$a0, .LBB27_226
# %bb.225:                              # %if.then384
	ld.d	$a0, $s0, 0
	ld.d	$a3, $a0, 0
	pcalau12i	$a0, %pc_hi20(.L.str.450)
	addi.d	$a1, $a0, %pc_lo12(.L.str.450)
	move	$a0, $s0
	move	$a2, $fp
	jirl	$ra, $a3, 0
.LBB27_226:                             # %if.end387
	ld.d	$a0, $s0, 0
	ld.d	$a3, $a0, 0
	pcalau12i	$a0, %pc_hi20(.L.str.451)
	addi.d	$a1, $a0, %pc_lo12(.L.str.451)
	move	$a0, $s0
	move	$a2, $fp
	jirl	$ra, $a3, 0
	ld.bu	$a0, $s3, 73
	beqz	$a0, .LBB27_228
# %bb.227:                              # %if.then391
	ld.d	$a0, $s0, 0
	ld.d	$a3, $a0, 0
	pcalau12i	$a0, %pc_hi20(.L.str.452)
	addi.d	$a1, $a0, %pc_lo12(.L.str.452)
	move	$a0, $s0
	move	$a2, $fp
	jirl	$ra, $a3, 0
.LBB27_228:                             # %if.end394
	ld.d	$a0, $s0, 0
	ld.d	$a3, $a0, 0
	pcalau12i	$a0, %pc_hi20(.L.str.453)
	addi.d	$a1, $a0, %pc_lo12(.L.str.453)
	move	$a0, $s0
	move	$a2, $fp
	jirl	$ra, $a3, 0
	ld.d	$a0, $s0, 0
	ld.d	$a3, $a0, 0
	pcalau12i	$a0, %pc_hi20(.L.str.454)
	addi.d	$a1, $a0, %pc_lo12(.L.str.454)
	move	$a0, $s0
	move	$a2, $fp
	jirl	$ra, $a3, 0
	ld.bu	$a0, $s3, 73
	beqz	$a0, .LBB27_230
# %bb.229:                              # %if.then400
	ld.d	$a0, $s0, 0
	ld.d	$a3, $a0, 0
	pcalau12i	$a0, %pc_hi20(.L.str.455)
	addi.d	$a1, $a0, %pc_lo12(.L.str.455)
	move	$a0, $s0
	move	$a2, $fp
	jirl	$ra, $a3, 0
.LBB27_230:                             # %if.end403
	ld.d	$a0, $s0, 0
	ld.d	$a3, $a0, 0
	pcalau12i	$a0, %pc_hi20(.L.str.456)
	addi.d	$a1, $a0, %pc_lo12(.L.str.456)
	move	$a0, $s0
	move	$a2, $fp
	jirl	$ra, $a3, 0
	ld.bu	$a0, $s3, 73
	beqz	$a0, .LBB27_232
# %bb.231:                              # %if.then407
	ld.d	$a0, $s0, 0
	ld.d	$a3, $a0, 0
	pcalau12i	$a0, %pc_hi20(.L.str.457)
	addi.d	$a1, $a0, %pc_lo12(.L.str.457)
	move	$a0, $s0
	move	$a2, $fp
	jirl	$ra, $a3, 0
	ld.d	$a0, $s0, 0
	ld.d	$a3, $a0, 0
	pcalau12i	$a0, %pc_hi20(.L.str.458)
	addi.d	$a1, $a0, %pc_lo12(.L.str.458)
	move	$a0, $s0
	move	$a2, $fp
	jirl	$ra, $a3, 0
.LBB27_232:                             # %if.end412
	ld.d	$a0, $s0, 0
	ld.d	$a3, $a0, 0
	pcalau12i	$a0, %pc_hi20(.L.str.459)
	addi.d	$a1, $a0, %pc_lo12(.L.str.459)
	move	$a0, $s0
	move	$a2, $fp
	jirl	$ra, $a3, 0
	pcalau12i	$a0, %got_pc_hi20(The_abstract_phylum_ref_decl)
	ld.d	$a0, $a0, %got_pc_lo12(The_abstract_phylum_ref_decl)
	ld.d	$a0, $a0, 0
	ld.d	$a0, $a0, 16
	ld.d	$a1, $a0, 0
	ld.d	$a3, $a1, 72
	pcalau12i	$a1, %pc_hi20(_ZN2kc21view_gen_member_dcl_hE)
	addi.d	$a2, $a1, %pc_lo12(_ZN2kc21view_gen_member_dcl_hE)
	move	$a1, $s0
	jirl	$ra, $a3, 0
	ld.d	$a0, $s0, 0
	ld.d	$a3, $a0, 0
	pcalau12i	$a0, %pc_hi20(.L.str.460)
	addi.d	$a1, $a0, %pc_lo12(.L.str.460)
	move	$a0, $s0
	move	$a2, $fp
	jirl	$ra, $a3, 0
	ld.bu	$a0, $s3, 73
	beqz	$a0, .LBB27_234
# %bb.233:                              # %if.then419
	ld.d	$a0, $s0, 0
	ld.d	$a3, $a0, 0
	pcalau12i	$a0, %pc_hi20(.L.str.461)
	addi.d	$a1, $a0, %pc_lo12(.L.str.461)
	move	$a0, $s0
	move	$a2, $fp
	jirl	$ra, $a3, 0
.LBB27_234:                             # %if.end422
	ld.d	$a0, $s0, 0
	ld.d	$a3, $a0, 0
	pcalau12i	$a0, %pc_hi20(.L.str.462)
	addi.d	$a1, $a0, %pc_lo12(.L.str.462)
	move	$a0, $s0
	move	$a2, $fp
	jirl	$ra, $a3, 0
	ld.d	$a0, $s0, 0
	ld.d	$a3, $a0, 0
	pcalau12i	$a0, %pc_hi20(.L.str.463)
	addi.d	$a1, $a0, %pc_lo12(.L.str.463)
	move	$a0, $s0
	move	$a2, $fp
	jirl	$ra, $a3, 0
	ld.d	$a0, $s0, 0
	ld.d	$a3, $a0, 0
	pcalau12i	$a0, %pc_hi20(.L.str.464)
	addi.d	$a1, $a0, %pc_lo12(.L.str.464)
	move	$a0, $s0
	move	$a2, $fp
	jirl	$ra, $a3, 0
	ld.d	$a0, $s0, 0
	ld.d	$a3, $a0, 0
	pcalau12i	$a0, %pc_hi20(.L.str.465)
	addi.d	$a1, $a0, %pc_lo12(.L.str.465)
	move	$a0, $s0
	move	$a2, $fp
	jirl	$ra, $a3, 0
	ld.d	$a0, $s0, 0
	ld.d	$a3, $a0, 0
	pcalau12i	$a0, %pc_hi20(.L.str.466)
	addi.d	$a1, $a0, %pc_lo12(.L.str.466)
	move	$a0, $s0
	move	$a2, $fp
	jirl	$ra, $a3, 0
	ld.d	$a0, $s0, 0
	ld.d	$a3, $a0, 0
	pcalau12i	$a0, %pc_hi20(.L.str.467)
	addi.d	$a1, $a0, %pc_lo12(.L.str.467)
	move	$a0, $s0
	move	$a2, $fp
	jirl	$ra, $a3, 0
	ld.d	$a0, $s0, 0
	ld.d	$a3, $a0, 0
	pcalau12i	$a0, %pc_hi20(.L.str.468)
	addi.d	$a1, $a0, %pc_lo12(.L.str.468)
	move	$a0, $s0
	move	$a2, $fp
	jirl	$ra, $a3, 0
	ld.d	$a0, $s0, 0
	ld.d	$a3, $a0, 0
	pcalau12i	$a0, %pc_hi20(.L.str.469)
	addi.d	$a1, $a0, %pc_lo12(.L.str.469)
	move	$a0, $s0
	move	$a2, $fp
	jirl	$ra, $a3, 0
	ld.d	$a0, $s0, 0
	ld.bu	$a2, $s3, 73
	ld.d	$a3, $a0, 0
	pcalau12i	$a0, %pc_hi20(.L.str.472)
	addi.d	$a0, $a0, %pc_lo12(.L.str.472)
	masknez	$a0, $a0, $a2
	pcalau12i	$a1, %pc_hi20(.L.str.470)
	addi.d	$a1, $a1, %pc_lo12(.L.str.470)
	maskeqz	$a1, $a1, $a2
	or	$a1, $a1, $a0
	pcalau12i	$a0, %pc_hi20(.L.str.473)
	addi.d	$a0, $a0, %pc_lo12(.L.str.473)
	masknez	$a0, $a0, $a2
	pcalau12i	$a4, %pc_hi20(.L.str.471)
	addi.d	$a4, $a4, %pc_lo12(.L.str.471)
	maskeqz	$a2, $a4, $a2
	or	$s2, $a2, $a0
	move	$a0, $s0
	move	$a2, $fp
	jirl	$ra, $a3, 0
	ld.d	$a0, $s0, 0
	ld.d	$a3, $a0, 0
	move	$a0, $s0
	move	$a1, $s2
	move	$a2, $fp
	jirl	$ra, $a3, 0
	ld.d	$a0, $s0, 0
	ld.d	$a3, $a0, 0
	pcalau12i	$a0, %pc_hi20(.L.str.474)
	addi.d	$a1, $a0, %pc_lo12(.L.str.474)
	move	$a0, $s0
	move	$a2, $fp
	jirl	$ra, $a3, 0
	ld.d	$a0, $s0, 0
	ld.d	$a3, $a0, 0
	pcalau12i	$a0, %pc_hi20(.L.str.475)
	addi.d	$a1, $a0, %pc_lo12(.L.str.475)
	move	$a0, $s0
	move	$a2, $fp
	jirl	$ra, $a3, 0
	ld.d	$a0, $s0, 0
	ld.d	$a3, $a0, 0
	pcalau12i	$a0, %pc_hi20(.L.str.476)
	addi.d	$a1, $a0, %pc_lo12(.L.str.476)
	move	$a0, $s0
	move	$a2, $fp
	jirl	$ra, $a3, 0
	ld.d	$a0, $s0, 0
	ld.d	$a3, $a0, 0
	pcalau12i	$a0, %pc_hi20(.L.str.477)
	addi.d	$a1, $a0, %pc_lo12(.L.str.477)
	move	$a0, $s0
	move	$a2, $fp
	jirl	$ra, $a3, 0
	ld.d	$a0, $s0, 0
	ld.d	$a3, $a0, 0
	pcalau12i	$a0, %pc_hi20(.L.str.478)
	addi.d	$a1, $a0, %pc_lo12(.L.str.478)
	move	$a0, $s0
	move	$a2, $fp
	jirl	$ra, $a3, 0
	ld.d	$a0, $s0, 0
	ld.d	$a3, $a0, 0
	pcalau12i	$a0, %pc_hi20(.L.str.479)
	addi.d	$a1, $a0, %pc_lo12(.L.str.479)
	move	$a0, $s0
	move	$a2, $fp
	jirl	$ra, $a3, 0
	ld.d	$a0, $s0, 0
	ld.d	$a3, $a0, 0
	pcalau12i	$a0, %pc_hi20(.L.str.480)
	addi.d	$a1, $a0, %pc_lo12(.L.str.480)
	move	$a0, $s0
	move	$a2, $fp
	jirl	$ra, $a3, 0
	ld.d	$a0, $s0, 0
	ld.d	$a3, $a0, 0
	pcalau12i	$a0, %pc_hi20(.L.str.481)
	addi.d	$a1, $a0, %pc_lo12(.L.str.481)
	move	$a0, $s0
	move	$a2, $fp
	jirl	$ra, $a3, 0
	ld.bu	$a0, $s3, 73
	beqz	$a0, .LBB27_363
# %bb.235:                              # %if.then468
	ld.d	$a0, $s0, 0
	ld.d	$a3, $a0, 0
	pcalau12i	$a0, %pc_hi20(.L.str.482)
	addi.d	$a1, $a0, %pc_lo12(.L.str.482)
	move	$a0, $s0
	move	$a2, $fp
	jirl	$ra, $a3, 0
	pcalau12i	$a0, %pc_hi20(.L.str.483)
	addi.d	$a1, $a0, %pc_lo12(.L.str.483)
	b	.LBB27_364
.LBB27_236:                             # %sw.bb1701
	ld.d	$a1, $s0, 0
	ld.d	$s1, $a0, 8
	ld.d	$a3, $a1, 0
	pcalau12i	$a0, %pc_hi20(.L.str.892)
	addi.d	$a1, $a0, %pc_lo12(.L.str.892)
	move	$a0, $s0
	move	$a2, $fp
	jirl	$ra, $a3, 0
	ld.d	$a0, $s0, 0
	ld.d	$a3, $a0, 0
	pcalau12i	$a0, %pc_hi20(.L.str.893)
	addi.d	$a1, $a0, %pc_lo12(.L.str.893)
	move	$a0, $s0
	move	$a2, $fp
	jirl	$ra, $a3, 0
	ld.d	$a0, $s0, 0
	ld.d	$a3, $a0, 0
	pcalau12i	$a0, %pc_hi20(.L.str.894)
	addi.d	$a1, $a0, %pc_lo12(.L.str.894)
.LBB27_237:                             # %sw.bb732
	move	$a0, $s0
	move	$a2, $fp
	jirl	$ra, $a3, 0
	ld.d	$a0, $s1, 0
	ld.d	$a3, $a0, 72
	move	$a0, $s1
	move	$a1, $s0
	b	.LBB27_371
.LBB27_238:                             # %sw.bb938
	ld.d	$a0, $s0, 0
	ld.d	$a3, $a0, 0
	pcalau12i	$a0, %pc_hi20(.L.str.597)
	addi.d	$a1, $a0, %pc_lo12(.L.str.597)
	move	$a0, $s0
	move	$a2, $fp
	jirl	$ra, $a3, 0
	ld.d	$a0, $s0, 0
	ld.d	$a3, $a0, 0
	pcalau12i	$a0, %pc_hi20(.L.str.598)
	addi.d	$a1, $a0, %pc_lo12(.L.str.598)
	move	$a0, $s0
	move	$a2, $fp
	jirl	$ra, $a3, 0
	ld.d	$a0, $s0, 0
	ld.d	$a3, $a0, 0
	pcalau12i	$a0, %pc_hi20(.L.str.599)
	addi.d	$a1, $a0, %pc_lo12(.L.str.599)
	move	$a0, $s0
	move	$a2, $fp
	jirl	$ra, $a3, 0
	ld.d	$a0, $s0, 0
	ld.d	$a3, $a0, 0
	pcalau12i	$a0, %pc_hi20(.L.str.600)
	addi.d	$a1, $a0, %pc_lo12(.L.str.600)
	move	$a0, $s0
	move	$a2, $fp
	jirl	$ra, $a3, 0
	ld.d	$a0, $s0, 0
	ld.d	$a3, $a0, 0
	pcalau12i	$a0, %pc_hi20(.L.str.601)
	addi.d	$a1, $a0, %pc_lo12(.L.str.601)
	move	$a0, $s0
	move	$a2, $fp
	jirl	$ra, $a3, 0
	ld.d	$a0, $s0, 0
	ld.d	$a3, $a0, 0
	pcalau12i	$a0, %pc_hi20(.L.str.602)
	addi.d	$a1, $a0, %pc_lo12(.L.str.602)
	move	$a0, $s0
	move	$a2, $fp
	jirl	$ra, $a3, 0
	pcalau12i	$a0, %got_pc_hi20(Theargsnumbers)
	ld.d	$s1, $a0, %got_pc_lo12(Theargsnumbers)
	ld.d	$a0, $s1, 0
	pcaddu18i	$ra, %call36(_ZNK2kc16impl_argsnumbers4lastEv)
	jirl	$ra, $ra, 0
	ld.w	$a0, $a0, 8
	ori	$a1, $zero, 1
	slt	$a2, $a1, $a0
	masknez	$a1, $a1, $a2
	maskeqz	$a0, $a0, $a2
	or	$a2, $a0, $a1
	pcalau12i	$a0, %pc_hi20(.L.str.331)
	addi.d	$a1, $a0, %pc_lo12(.L.str.331)
	addi.d	$a0, $sp, 784
	pcaddu18i	$ra, %call36(sprintf)
	jirl	$ra, $ra, 0
	ld.d	$a0, $s0, 0
	ld.d	$a3, $a0, 0
	addi.d	$a1, $sp, 784
	move	$a0, $s0
	move	$a2, $fp
	jirl	$ra, $a3, 0
	ld.d	$a0, $s0, 0
	ld.d	$a3, $a0, 0
	pcalau12i	$a0, %pc_hi20(.L.str.603)
	addi.d	$a1, $a0, %pc_lo12(.L.str.603)
	move	$a0, $s0
	move	$a2, $fp
	jirl	$ra, $a3, 0
	ld.d	$a0, $s1, 0
	ld.d	$a1, $a0, 0
	ld.d	$a3, $a1, 72
	move	$a1, $s0
	move	$a2, $fp
	jirl	$ra, $a3, 0
	ld.d	$a0, $s0, 0
	ld.d	$a3, $a0, 0
	pcalau12i	$a0, %pc_hi20(.L.str.604)
	addi.d	$a1, $a0, %pc_lo12(.L.str.604)
	b	.LBB27_343
.LBB27_239:                             # %sw.bb1238
	ld.d	$a0, $s0, 0
	ld.d	$a3, $a0, 0
	pcalau12i	$a0, %pc_hi20(.L.str.519)
	addi.d	$a1, $a0, %pc_lo12(.L.str.519)
	move	$a0, $s0
	move	$a2, $fp
	jirl	$ra, $a3, 0
	pcalau12i	$a0, %got_pc_hi20(Thefnfiles)
	ld.d	$a0, $a0, %got_pc_lo12(Thefnfiles)
	ld.d	$a0, $a0, 0
	ld.d	$a1, $a0, 0
	ld.d	$a3, $a1, 72
	move	$a1, $s0
	move	$a2, $fp
	jirl	$ra, $a3, 0
	ld.d	$a0, $s0, 0
	ld.d	$a3, $a0, 0
	pcalau12i	$a0, %pc_hi20(.L.str.520)
	addi.d	$a1, $a0, %pc_lo12(.L.str.520)
	move	$a0, $s0
	move	$a2, $fp
	jirl	$ra, $a3, 0
	ld.d	$a0, $s0, 0
	ld.d	$a3, $a0, 0
	pcalau12i	$a0, %got_pc_hi20(kimwitu_copyright)
	ld.d	$a1, $a0, %got_pc_lo12(kimwitu_copyright)
	move	$a0, $s0
	move	$a2, $fp
	jirl	$ra, $a3, 0
	ld.d	$a0, $s0, 0
	ld.d	$a3, $a0, 0
	pcalau12i	$a0, %pc_hi20(.L.str.736)
	addi.d	$a1, $a0, %pc_lo12(.L.str.736)
	move	$a0, $s0
	move	$a2, $fp
	jirl	$ra, $a3, 0
	pcalau12i	$a0, %got_pc_hi20(g_options)
	ld.d	$s1, $a0, %got_pc_lo12(g_options)
	addi.d	$a0, $s1, 120
	pcalau12i	$a1, %pc_hi20(.L.str.312)
	addi.d	$a1, $a1, %pc_lo12(.L.str.312)
	pcaddu18i	$ra, %call36(_ZStneIcSt11char_traitsIcESaIcEEbRKNSt7__cxx1112basic_stringIT_T0_T1_EEPKS5_)
	jirl	$ra, $ra, 0
	beqz	$a0, .LBB27_241
# %bb.240:                              # %if.then1247
	ld.d	$a0, $s0, 0
	ld.d	$a3, $a0, 0
	pcalau12i	$a0, %pc_hi20(.L.str.522)
	addi.d	$a1, $a0, %pc_lo12(.L.str.522)
	move	$a0, $s0
	move	$a2, $fp
	jirl	$ra, $a3, 0
	ld.d	$a0, $s0, 0
	ld.d	$a1, $s1, 120
	ld.d	$a3, $a0, 0
	move	$a0, $s0
	move	$a2, $fp
	jirl	$ra, $a3, 0
	ld.d	$a0, $s0, 0
	ld.d	$a3, $a0, 0
	pcalau12i	$a0, %pc_hi20(.L.str.523)
	addi.d	$a1, $a0, %pc_lo12(.L.str.523)
	move	$a0, $s0
	move	$a2, $fp
	jirl	$ra, $a3, 0
.LBB27_241:                             # %if.end1255
	ld.d	$a0, $s0, 0
	ld.d	$a3, $a0, 0
	pcalau12i	$a0, %pc_hi20(.L.str.737)
	addi.d	$a1, $a0, %pc_lo12(.L.str.737)
	move	$a0, $s0
	move	$a2, $fp
	jirl	$ra, $a3, 0
	ld.d	$a0, $s0, 0
	ld.d	$a1, $s1, 184
	ld.d	$a3, $a0, 0
	move	$a0, $s0
	move	$a2, $fp
	jirl	$ra, $a3, 0
	ld.d	$a0, $s0, 0
	ld.d	$a3, $a0, 0
	pcalau12i	$a0, %pc_hi20(.L.str.525)
	addi.d	$a1, $a0, %pc_lo12(.L.str.525)
	move	$a0, $s0
	move	$a2, $fp
	jirl	$ra, $a3, 0
	ld.d	$a0, $s0, 0
	ld.d	$a1, $s1, 184
	ld.d	$a3, $a0, 0
	move	$a0, $s0
	move	$a2, $fp
	jirl	$ra, $a3, 0
	ld.d	$a0, $s0, 0
	ld.d	$a3, $a0, 0
	pcalau12i	$a0, %pc_hi20(.L.str.738)
	addi.d	$a1, $a0, %pc_lo12(.L.str.738)
	b	.LBB27_370
.LBB27_242:                             # %sw.bb608
	ld.d	$a0, $s0, 0
	ld.d	$a3, $a0, 0
	pcalau12i	$a0, %pc_hi20(.L.str.532)
	addi.d	$a1, $a0, %pc_lo12(.L.str.532)
	b	.LBB27_370
.LBB27_243:                             # %sw.bb659
	ld.d	$a0, $s0, 0
	ld.d	$a3, $a0, 0
	pcalau12i	$a0, %pc_hi20(.L.str.522)
	addi.d	$a1, $a0, %pc_lo12(.L.str.522)
	move	$a0, $s0
	move	$a2, $fp
	jirl	$ra, $a3, 0
	pcalau12i	$a0, %got_pc_hi20(g_options)
	ld.d	$a0, $a0, %got_pc_lo12(g_options)
	ld.d	$a2, $s0, 0
	ld.d	$a1, $a0, 0
	ld.d	$a3, $a2, 0
	move	$a0, $s0
	move	$a2, $fp
	jirl	$ra, $a3, 0
	ld.d	$a0, $s0, 0
	ld.d	$a3, $a0, 0
	pcalau12i	$a0, %pc_hi20(.L.str.523)
	addi.d	$a1, $a0, %pc_lo12(.L.str.523)
	b	.LBB27_370
.LBB27_244:                             # %if.then173
	ld.d	$a0, $s0, 0
	ld.d	$a3, $a0, 0
	pcalau12i	$a0, %pc_hi20(.L.str.394)
	addi.d	$a1, $a0, %pc_lo12(.L.str.394)
	move	$a0, $s0
	move	$a2, $fp
	jirl	$ra, $a3, 0
	ld.bu	$a0, $s4, 69
	bnez	$a0, .LBB27_10
.LBB27_245:                             # %if.then178
	ld.d	$a0, $s0, 0
	ld.d	$a3, $a0, 0
	pcalau12i	$a0, %pc_hi20(.L.str.395)
	addi.d	$a1, $a0, %pc_lo12(.L.str.395)
	move	$a0, $s0
	move	$a2, $fp
	jirl	$ra, $a3, 0
	ld.d	$a0, $s0, 0
	ld.d	$a3, $a0, 0
	pcalau12i	$a0, %pc_hi20(.L.str.396)
	addi.d	$a1, $a0, %pc_lo12(.L.str.396)
	move	$a0, $s0
	move	$a2, $fp
	jirl	$ra, $a3, 0
	ld.d	$a0, $s0, 0
	ld.d	$a3, $a0, 0
	pcalau12i	$a0, %pc_hi20(.L.str.397)
	addi.d	$a1, $a0, %pc_lo12(.L.str.397)
	move	$a0, $s0
	move	$a2, $fp
	jirl	$ra, $a3, 0
	ld.bu	$a0, $s4, 66
	bnez	$a0, .LBB27_11
.LBB27_246:                             # %if.then187
	ld.d	$a0, $s0, 0
	ld.d	$a3, $a0, 0
	pcalau12i	$a0, %pc_hi20(.L.str.398)
	addi.d	$a1, $a0, %pc_lo12(.L.str.398)
	move	$a0, $s0
	move	$a2, $fp
	jirl	$ra, $a3, 0
	ld.bu	$a0, $s4, 68
	bnez	$a0, .LBB27_12
.LBB27_247:                             # %if.then192
	ld.d	$a0, $s0, 0
	ld.bu	$a1, $s4, 115
	ld.d	$a3, $a0, 0
	pcalau12i	$a0, %pc_hi20(.L.str.399)
	addi.d	$a0, $a0, %pc_lo12(.L.str.399)
	masknez	$a0, $a0, $a1
	pcalau12i	$a2, %pc_hi20(.L.str.400)
	addi.d	$a2, $a2, %pc_lo12(.L.str.400)
	maskeqz	$a1, $a2, $a1
	or	$a1, $a1, $a0
	move	$a0, $s0
	move	$a2, $fp
	jirl	$ra, $a3, 0
	ld.d	$a0, $s0, 0
	ld.d	$a3, $a0, 0
	pcalau12i	$a0, %pc_hi20(.L.str.401)
	addi.d	$a1, $a0, %pc_lo12(.L.str.401)
	move	$a0, $s0
	move	$a2, $fp
	jirl	$ra, $a3, 0
	ld.d	$a0, $s0, 0
	ld.d	$a3, $a0, 0
	pcalau12i	$a0, %pc_hi20(.L.str.402)
	addi.d	$a1, $a0, %pc_lo12(.L.str.402)
	move	$a0, $s0
	move	$a2, $fp
	jirl	$ra, $a3, 0
	ld.d	$a0, $s6, 0
	pcaddu18i	$ra, %call36(_ZN2kc27f_post_create_in_phylumdeclEPNS_22impl_phylumdeclarationE)
	jirl	$ra, $ra, 0
	beqz	$a0, .LBB27_13
	b	.LBB27_14
.LBB27_248:                             # %if.else236
	ld.w	$a1, $s5, %pc_lo12(_ZN12_GLOBAL__N_113gl_no_of_argsE)
	sltui	$a1, $a1, 1
	or	$a0, $a0, $a1
	beqz	$a0, .LBB27_345
# %bb.249:                              # %if.end244
	ld.d	$a0, $s6, 0
	pcaddu18i	$ra, %call36(_ZN2kc27f_destructors_in_phylumdeclEPNS_22impl_phylumdeclarationE)
	jirl	$ra, $ra, 0
	beqz	$a0, .LBB27_346
.LBB27_250:                             # %if.end250
	ld.bu	$a0, $s4, 67
	bnez	$a0, .LBB27_252
.LBB27_251:                             # %if.then252
	ld.d	$a0, $s0, 0
	ld.d	$a3, $a0, 0
	pcalau12i	$a0, %pc_hi20(.L.str.414)
	addi.d	$a1, $a0, %pc_lo12(.L.str.414)
	move	$a0, $s0
	move	$a2, $fp
	jirl	$ra, $a3, 0
.LBB27_252:                             # %if.end255
	ld.d	$a0, $s0, 0
	ld.d	$a3, $a0, 0
	pcalau12i	$a0, %pc_hi20(.L.str.415)
	addi.d	$a1, $a0, %pc_lo12(.L.str.415)
	move	$a0, $s0
	move	$a2, $fp
	jirl	$ra, $a3, 0
	ld.bu	$a0, $s4, 72
	beqz	$a0, .LBB27_352
# %bb.253:                              # %if.then259
	ld.d	$a0, $s0, 0
	ld.d	$a3, $a0, 0
	pcalau12i	$a0, %pc_hi20(.L.str.416)
	addi.d	$a1, $a0, %pc_lo12(.L.str.416)
	move	$a0, $s0
	move	$a2, $fp
	jirl	$ra, $a3, 0
	ld.d	$a0, $s0, 0
	ld.bu	$a2, $s4, 73
	ld.d	$a3, $a0, 0
	pcalau12i	$a0, %pc_hi20(.L.str.419)
	addi.d	$a0, $a0, %pc_lo12(.L.str.419)
	masknez	$a0, $a0, $a2
	pcalau12i	$a1, %pc_hi20(.L.str.417)
	addi.d	$a1, $a1, %pc_lo12(.L.str.417)
	maskeqz	$a1, $a1, $a2
	or	$a1, $a1, $a0
	pcalau12i	$a0, %pc_hi20(.L.str.420)
	addi.d	$a0, $a0, %pc_lo12(.L.str.420)
	masknez	$a0, $a0, $a2
	pcalau12i	$a4, %pc_hi20(.L.str.418)
	addi.d	$a4, $a4, %pc_lo12(.L.str.418)
	maskeqz	$a2, $a4, $a2
	or	$s3, $a2, $a0
	move	$a0, $s0
	move	$a2, $fp
	jirl	$ra, $a3, 0
	ld.d	$a0, $s0, 0
	ld.d	$a3, $a0, 0
	move	$a0, $s0
	move	$a1, $s3
	move	$a2, $fp
	jirl	$ra, $a3, 0
	ld.d	$a0, $s0, 0
	ld.d	$a3, $a0, 0
	pcalau12i	$a0, %pc_hi20(.L.str.421)
	addi.d	$a1, $a0, %pc_lo12(.L.str.421)
	move	$a0, $s0
	move	$a2, $fp
	jirl	$ra, $a3, 0
	ld.d	$a0, $s0, 0
	ld.d	$a3, $a0, 0
	pcalau12i	$a0, %pc_hi20(.L.str.422)
	addi.d	$a1, $a0, %pc_lo12(.L.str.422)
	move	$a0, $s0
	move	$a2, $fp
	jirl	$ra, $a3, 0
	ld.d	$a0, $s0, 0
	ld.d	$a3, $a0, 0
	pcalau12i	$a0, %pc_hi20(.L.str.423)
	addi.d	$a1, $a0, %pc_lo12(.L.str.423)
	move	$a0, $s0
	move	$a2, $fp
	jirl	$ra, $a3, 0
	ld.d	$a0, $s0, 0
	ld.d	$a3, $a0, 0
	pcalau12i	$a0, %pc_hi20(.L.str.424)
	addi.d	$a1, $a0, %pc_lo12(.L.str.424)
	move	$a0, $s0
	move	$a2, $fp
	jirl	$ra, $a3, 0
	ld.d	$a0, $s0, 0
	ld.d	$a3, $a0, 0
	pcalau12i	$a0, %pc_hi20(.L.str.425)
	addi.d	$a1, $a0, %pc_lo12(.L.str.425)
	move	$a0, $s0
	move	$a2, $fp
	jirl	$ra, $a3, 0
	ld.d	$a0, $s0, 0
	ld.d	$a3, $a0, 0
	pcalau12i	$a0, %pc_hi20(.L.str.426)
	addi.d	$a1, $a0, %pc_lo12(.L.str.426)
	move	$a0, $s0
	move	$a2, $fp
	jirl	$ra, $a3, 0
	ld.d	$a0, $s0, 0
	ld.d	$a3, $a0, 0
	pcalau12i	$a0, %pc_hi20(.L.str.427)
	addi.d	$a1, $a0, %pc_lo12(.L.str.427)
	move	$a0, $s0
	move	$a2, $fp
	jirl	$ra, $a3, 0
	ld.d	$a0, $s0, 0
	ld.d	$a3, $a0, 0
	pcalau12i	$a0, %pc_hi20(.L.str.428)
	addi.d	$a1, $a0, %pc_lo12(.L.str.428)
	move	$a0, $s0
	move	$a2, $fp
	jirl	$ra, $a3, 0
	ld.d	$a0, $s0, 0
	ld.d	$a3, $a0, 0
	pcalau12i	$a0, %pc_hi20(.L.str.429)
	addi.d	$a1, $a0, %pc_lo12(.L.str.429)
	move	$a0, $s0
	move	$a2, $fp
	jirl	$ra, $a3, 0
	ld.bu	$a0, $s4, 73
	beqz	$a0, .LBB27_348
# %bb.254:                              # %if.then293
	ld.d	$a0, $s0, 0
	ld.d	$a3, $a0, 0
	pcalau12i	$a0, %pc_hi20(.L.str.430)
	addi.d	$a1, $a0, %pc_lo12(.L.str.430)
	move	$a0, $s0
	move	$a2, $fp
	jirl	$ra, $a3, 0
	pcalau12i	$a0, %pc_hi20(.L.str.431)
	addi.d	$a1, $a0, %pc_lo12(.L.str.431)
	b	.LBB27_349
.LBB27_255:                             # %if.then1996
.Ltmp34:                                # EH_LABEL
	pcalau12i	$a0, %pc_hi20(.L.str.981)
	addi.d	$a1, $a0, %pc_lo12(.L.str.981)
	move	$a0, $s0
	move	$a2, $fp
	jirl	$ra, $a3, 0
.Ltmp35:                                # EH_LABEL
# %bb.256:                              # %invoke.cont1999
	ld.d	$a0, $s0, 0
	ld.d	$a3, $a0, 0
.Ltmp36:                                # EH_LABEL
	pcalau12i	$a0, %pc_hi20(.L.str.982)
	addi.d	$a1, $a0, %pc_lo12(.L.str.982)
	move	$a0, $s0
	move	$a2, $fp
	jirl	$ra, $a3, 0
.Ltmp37:                                # EH_LABEL
# %bb.257:                              # %invoke.cont2002
	ld.d	$a0, $s0, 0
	ld.d	$a3, $a0, 0
.Ltmp38:                                # EH_LABEL
	pcalau12i	$a0, %pc_hi20(.L.str.983)
	addi.d	$a1, $a0, %pc_lo12(.L.str.983)
	move	$a0, $s0
	move	$a2, $fp
	jirl	$ra, $a3, 0
.Ltmp39:                                # EH_LABEL
# %bb.258:                              # %invoke.cont2005
	ld.d	$a0, $s0, 0
	ld.d	$a3, $a0, 0
.Ltmp40:                                # EH_LABEL
	pcalau12i	$a0, %pc_hi20(.L.str.984)
	addi.d	$a1, $a0, %pc_lo12(.L.str.984)
	move	$a0, $s0
	move	$a2, $fp
	jirl	$ra, $a3, 0
.Ltmp41:                                # EH_LABEL
# %bb.259:                              # %invoke.cont2008
	ld.d	$a0, $s0, 0
	ld.d	$a3, $a0, 0
.Ltmp42:                                # EH_LABEL
	pcalau12i	$a0, %pc_hi20(.L.str.985)
	addi.d	$a1, $a0, %pc_lo12(.L.str.985)
	move	$a0, $s0
	move	$a2, $fp
	jirl	$ra, $a3, 0
.Ltmp43:                                # EH_LABEL
# %bb.260:                              # %invoke.cont2011
	ld.d	$a0, $s0, 0
	ld.d	$a3, $a0, 0
.Ltmp44:                                # EH_LABEL
	pcalau12i	$a0, %pc_hi20(.L.str.986)
	addi.d	$a1, $a0, %pc_lo12(.L.str.986)
	move	$a0, $s0
	move	$a2, $fp
	jirl	$ra, $a3, 0
.Ltmp45:                                # EH_LABEL
# %bb.261:                              # %invoke.cont2014
	ld.d	$a0, $s0, 0
	ld.d	$a3, $a0, 0
.Ltmp46:                                # EH_LABEL
	pcalau12i	$a0, %pc_hi20(.L.str.987)
	addi.d	$a1, $a0, %pc_lo12(.L.str.987)
	move	$a0, $s0
	move	$a2, $fp
	jirl	$ra, $a3, 0
.Ltmp47:                                # EH_LABEL
# %bb.262:
	pcalau12i	$a0, %pc_hi20(.L.str.988)
	addi.d	$a1, $a0, %pc_lo12(.L.str.988)
.LBB27_263:                             # %invoke.cont2033.invoke
	ld.d	$a0, $s0, 0
	ld.d	$a3, $a0, 0
.Ltmp56:                                # EH_LABEL
	move	$a0, $s0
	move	$a2, $fp
	jirl	$ra, $a3, 0
.Ltmp57:                                # EH_LABEL
# %bb.264:                              # %if.end2037
	ld.d	$a0, $s0, 0
	ld.d	$a3, $a0, 0
.Ltmp58:                                # EH_LABEL
	pcalau12i	$a0, %pc_hi20(.L.str.994)
	addi.d	$a1, $a0, %pc_lo12(.L.str.994)
	move	$a0, $s0
	move	$a2, $fp
	jirl	$ra, $a3, 0
.Ltmp59:                                # EH_LABEL
# %bb.265:                              # %invoke.cont2040
	ld.d	$a0, $s0, 0
	ld.d	$a3, $a0, 0
.Ltmp60:                                # EH_LABEL
	pcalau12i	$a0, %pc_hi20(.L.str.995)
	addi.d	$a1, $a0, %pc_lo12(.L.str.995)
	move	$a0, $s0
	move	$a2, $fp
	jirl	$ra, $a3, 0
.Ltmp61:                                # EH_LABEL
# %bb.266:                              # %invoke.cont2043
	ld.d	$a0, $s0, 0
	ld.d	$a3, $a0, 0
.Ltmp62:                                # EH_LABEL
	pcalau12i	$a0, %pc_hi20(.L.str.996)
	addi.d	$a1, $a0, %pc_lo12(.L.str.996)
	move	$a0, $s0
	move	$a2, $fp
	jirl	$ra, $a3, 0
.Ltmp63:                                # EH_LABEL
# %bb.267:                              # %invoke.cont2046
.Ltmp64:                                # EH_LABEL
	addi.d	$a0, $sp, 360
	addi.d	$a1, $sp, 784
	pcaddu18i	$ra, %call36(_ZNSt7__cxx1112basic_stringIcSt11char_traitsIcESaIcEEC2ERKS4_)
	jirl	$ra, $ra, 0
.Ltmp65:                                # EH_LABEL
# %bb.268:                              # %invoke.cont2048
	ld.d	$a0, $s0, 0
	ld.d	$a1, $sp, 360
	ld.d	$a3, $a0, 0
.Ltmp66:                                # EH_LABEL
	move	$a0, $s0
	move	$a2, $fp
	jirl	$ra, $a3, 0
.Ltmp67:                                # EH_LABEL
# %bb.269:                              # %invoke.cont2050
	ld.d	$a0, $sp, 360
	addi.d	$a1, $sp, 376
	beq	$a0, $a1, .LBB27_271
# %bb.270:                              # %if.then.i.i2198
	ld.d	$a1, $sp, 376
	addi.d	$a1, $a1, 1
	pcaddu18i	$ra, %call36(_ZdlPvm)
	jirl	$ra, $ra, 0
.LBB27_271:                             # %_ZNSt7__cxx1112basic_stringIcSt11char_traitsIcESaIcEED2Ev.exit2203
	ld.d	$a0, $s0, 0
	ld.d	$a3, $a0, 0
.Ltmp69:                                # EH_LABEL
	pcalau12i	$a0, %pc_hi20(.L.str.997)
	addi.d	$a1, $a0, %pc_lo12(.L.str.997)
	move	$a0, $s0
	move	$a2, $fp
	jirl	$ra, $a3, 0
.Ltmp70:                                # EH_LABEL
# %bb.272:                              # %invoke.cont2054
.Ltmp71:                                # EH_LABEL
	addi.d	$a0, $sp, 328
	addi.d	$a1, $sp, 784
	pcaddu18i	$ra, %call36(_ZNSt7__cxx1112basic_stringIcSt11char_traitsIcESaIcEEC2ERKS4_)
	jirl	$ra, $ra, 0
.Ltmp72:                                # EH_LABEL
# %bb.273:                              # %invoke.cont2056
	ld.d	$a0, $s0, 0
	ld.d	$a1, $sp, 328
	ld.d	$a3, $a0, 0
.Ltmp73:                                # EH_LABEL
	move	$a0, $s0
	move	$a2, $fp
	jirl	$ra, $a3, 0
.Ltmp74:                                # EH_LABEL
# %bb.274:                              # %invoke.cont2058
	ld.d	$a0, $sp, 328
	addi.d	$a1, $sp, 344
	beq	$a0, $a1, .LBB27_276
# %bb.275:                              # %if.then.i.i2207
	ld.d	$a1, $sp, 344
	addi.d	$a1, $a1, 1
	pcaddu18i	$ra, %call36(_ZdlPvm)
	jirl	$ra, $ra, 0
.LBB27_276:                             # %_ZNSt7__cxx1112basic_stringIcSt11char_traitsIcESaIcEED2Ev.exit2212
	ld.d	$a0, $s0, 0
	ld.d	$a3, $a0, 0
.Ltmp76:                                # EH_LABEL
	pcalau12i	$a0, %pc_hi20(.L.str.998)
	addi.d	$a1, $a0, %pc_lo12(.L.str.998)
	move	$a0, $s0
	move	$a2, $fp
	jirl	$ra, $a3, 0
.Ltmp77:                                # EH_LABEL
# %bb.277:                              # %invoke.cont2062
.Ltmp78:                                # EH_LABEL
	addi.d	$a0, $sp, 296
	addi.d	$a1, $sp, 784
	pcaddu18i	$ra, %call36(_ZNSt7__cxx1112basic_stringIcSt11char_traitsIcESaIcEEC2ERKS4_)
	jirl	$ra, $ra, 0
.Ltmp79:                                # EH_LABEL
# %bb.278:                              # %invoke.cont2064
	ld.d	$a0, $s0, 0
	ld.d	$a1, $sp, 296
	ld.d	$a3, $a0, 0
.Ltmp80:                                # EH_LABEL
	move	$a0, $s0
	move	$a2, $fp
	jirl	$ra, $a3, 0
.Ltmp81:                                # EH_LABEL
# %bb.279:                              # %invoke.cont2066
	ld.d	$a0, $sp, 296
	addi.d	$a1, $sp, 312
	beq	$a0, $a1, .LBB27_281
# %bb.280:                              # %if.then.i.i2216
	ld.d	$a1, $sp, 312
	addi.d	$a1, $a1, 1
	pcaddu18i	$ra, %call36(_ZdlPvm)
	jirl	$ra, $ra, 0
.LBB27_281:                             # %_ZNSt7__cxx1112basic_stringIcSt11char_traitsIcESaIcEED2Ev.exit2221
	ld.d	$a0, $s0, 0
	ld.d	$a3, $a0, 0
.Ltmp83:                                # EH_LABEL
	pcalau12i	$a0, %pc_hi20(.L.str.999)
	addi.d	$a1, $a0, %pc_lo12(.L.str.999)
	move	$a0, $s0
	move	$a2, $fp
	jirl	$ra, $a3, 0
.Ltmp84:                                # EH_LABEL
# %bb.282:                              # %invoke.cont2070
.Ltmp85:                                # EH_LABEL
	addi.d	$a0, $sp, 264
	addi.d	$a1, $sp, 784
	pcaddu18i	$ra, %call36(_ZNSt7__cxx1112basic_stringIcSt11char_traitsIcESaIcEEC2ERKS4_)
	jirl	$ra, $ra, 0
.Ltmp86:                                # EH_LABEL
# %bb.283:                              # %invoke.cont2072
	ld.d	$a0, $s0, 0
	ld.d	$a1, $sp, 264
	ld.d	$a3, $a0, 0
.Ltmp87:                                # EH_LABEL
	move	$a0, $s0
	move	$a2, $fp
	jirl	$ra, $a3, 0
.Ltmp88:                                # EH_LABEL
# %bb.284:                              # %invoke.cont2074
	ld.d	$a0, $sp, 264
	addi.d	$a1, $sp, 280
	beq	$a0, $a1, .LBB27_286
# %bb.285:                              # %if.then.i.i2225
	ld.d	$a1, $sp, 280
	addi.d	$a1, $a1, 1
	pcaddu18i	$ra, %call36(_ZdlPvm)
	jirl	$ra, $ra, 0
.LBB27_286:                             # %_ZNSt7__cxx1112basic_stringIcSt11char_traitsIcESaIcEED2Ev.exit2230
	ld.d	$a0, $s0, 0
	ld.d	$a3, $a0, 0
.Ltmp90:                                # EH_LABEL
	pcalau12i	$a0, %pc_hi20(.L.str.1000)
	addi.d	$a1, $a0, %pc_lo12(.L.str.1000)
	move	$a0, $s0
	move	$a2, $fp
	jirl	$ra, $a3, 0
.Ltmp91:                                # EH_LABEL
# %bb.287:                              # %invoke.cont2078
.Ltmp92:                                # EH_LABEL
	addi.d	$a0, $sp, 232
	addi.d	$a1, $sp, 784
	pcaddu18i	$ra, %call36(_ZNSt7__cxx1112basic_stringIcSt11char_traitsIcESaIcEEC2ERKS4_)
	jirl	$ra, $ra, 0
.Ltmp93:                                # EH_LABEL
# %bb.288:                              # %invoke.cont2080
	ld.d	$a0, $s0, 0
	ld.d	$a1, $sp, 232
	ld.d	$a3, $a0, 0
.Ltmp94:                                # EH_LABEL
	move	$a0, $s0
	move	$a2, $fp
	jirl	$ra, $a3, 0
.Ltmp95:                                # EH_LABEL
# %bb.289:                              # %invoke.cont2082
	ld.d	$a0, $sp, 232
	addi.d	$a1, $sp, 248
	beq	$a0, $a1, .LBB27_291
# %bb.290:                              # %if.then.i.i2234
	ld.d	$a1, $sp, 248
	addi.d	$a1, $a1, 1
	pcaddu18i	$ra, %call36(_ZdlPvm)
	jirl	$ra, $ra, 0
.LBB27_291:                             # %_ZNSt7__cxx1112basic_stringIcSt11char_traitsIcESaIcEED2Ev.exit2239
	ld.d	$a0, $s0, 0
	ld.d	$a3, $a0, 0
.Ltmp97:                                # EH_LABEL
	pcalau12i	$a0, %pc_hi20(.L.str.1001)
	addi.d	$a1, $a0, %pc_lo12(.L.str.1001)
	move	$a0, $s0
	move	$a2, $fp
	jirl	$ra, $a3, 0
.Ltmp98:                                # EH_LABEL
# %bb.292:                              # %invoke.cont2086
.Ltmp99:                                # EH_LABEL
	addi.d	$a0, $sp, 200
	addi.d	$a1, $sp, 784
	pcaddu18i	$ra, %call36(_ZNSt7__cxx1112basic_stringIcSt11char_traitsIcESaIcEEC2ERKS4_)
	jirl	$ra, $ra, 0
.Ltmp100:                               # EH_LABEL
# %bb.293:                              # %invoke.cont2088
	ld.d	$a0, $s0, 0
	ld.d	$a1, $sp, 200
	ld.d	$a3, $a0, 0
.Ltmp101:                               # EH_LABEL
	move	$a0, $s0
	move	$a2, $fp
	jirl	$ra, $a3, 0
.Ltmp102:                               # EH_LABEL
# %bb.294:                              # %invoke.cont2090
	ld.d	$a0, $sp, 200
	addi.d	$a1, $sp, 216
	beq	$a0, $a1, .LBB27_296
# %bb.295:                              # %if.then.i.i2243
	ld.d	$a1, $sp, 216
	addi.d	$a1, $a1, 1
	pcaddu18i	$ra, %call36(_ZdlPvm)
	jirl	$ra, $ra, 0
.LBB27_296:                             # %_ZNSt7__cxx1112basic_stringIcSt11char_traitsIcESaIcEED2Ev.exit2248
	ld.d	$a0, $s0, 0
	ld.d	$a3, $a0, 0
.Ltmp104:                               # EH_LABEL
	pcalau12i	$a0, %pc_hi20(.L.str.1002)
	addi.d	$a1, $a0, %pc_lo12(.L.str.1002)
	move	$a0, $s0
	move	$a2, $fp
	jirl	$ra, $a3, 0
.Ltmp105:                               # EH_LABEL
# %bb.297:                              # %invoke.cont2094
.Ltmp106:                               # EH_LABEL
	addi.d	$a0, $sp, 168
	addi.d	$a1, $sp, 784
	pcaddu18i	$ra, %call36(_ZNSt7__cxx1112basic_stringIcSt11char_traitsIcESaIcEEC2ERKS4_)
	jirl	$ra, $ra, 0
.Ltmp107:                               # EH_LABEL
# %bb.298:                              # %invoke.cont2096
	ld.d	$a0, $s0, 0
	ld.d	$a1, $sp, 168
	ld.d	$a3, $a0, 0
.Ltmp108:                               # EH_LABEL
	move	$a0, $s0
	move	$a2, $fp
	jirl	$ra, $a3, 0
.Ltmp109:                               # EH_LABEL
# %bb.299:                              # %invoke.cont2098
	ld.d	$a0, $sp, 168
	addi.d	$a1, $sp, 184
	beq	$a0, $a1, .LBB27_301
# %bb.300:                              # %if.then.i.i2252
	ld.d	$a1, $sp, 184
	addi.d	$a1, $a1, 1
	pcaddu18i	$ra, %call36(_ZdlPvm)
	jirl	$ra, $ra, 0
.LBB27_301:                             # %_ZNSt7__cxx1112basic_stringIcSt11char_traitsIcESaIcEED2Ev.exit2257
	ld.d	$a0, $s0, 0
	ld.d	$a3, $a0, 0
.Ltmp111:                               # EH_LABEL
	pcalau12i	$a0, %pc_hi20(.L.str.1003)
	addi.d	$a1, $a0, %pc_lo12(.L.str.1003)
	move	$a0, $s0
	move	$a2, $fp
	jirl	$ra, $a3, 0
.Ltmp112:                               # EH_LABEL
# %bb.302:                              # %invoke.cont2102
.Ltmp113:                               # EH_LABEL
	addi.d	$a0, $sp, 136
	addi.d	$a1, $sp, 784
	pcaddu18i	$ra, %call36(_ZNSt7__cxx1112basic_stringIcSt11char_traitsIcESaIcEEC2ERKS4_)
	jirl	$ra, $ra, 0
.Ltmp114:                               # EH_LABEL
# %bb.303:                              # %invoke.cont2104
	ld.d	$a0, $s0, 0
	ld.d	$a1, $sp, 136
	ld.d	$a3, $a0, 0
.Ltmp115:                               # EH_LABEL
	move	$a0, $s0
	move	$a2, $fp
	jirl	$ra, $a3, 0
.Ltmp116:                               # EH_LABEL
# %bb.304:                              # %invoke.cont2106
	ld.d	$a0, $sp, 136
	addi.d	$a1, $sp, 152
	beq	$a0, $a1, .LBB27_306
# %bb.305:                              # %if.then.i.i2261
	ld.d	$a1, $sp, 152
	addi.d	$a1, $a1, 1
	pcaddu18i	$ra, %call36(_ZdlPvm)
	jirl	$ra, $ra, 0
.LBB27_306:                             # %_ZNSt7__cxx1112basic_stringIcSt11char_traitsIcESaIcEED2Ev.exit2266
	ld.d	$a0, $s0, 0
	ld.d	$a3, $a0, 0
.Ltmp118:                               # EH_LABEL
	pcalau12i	$a0, %pc_hi20(.L.str.1004)
	addi.d	$a1, $a0, %pc_lo12(.L.str.1004)
	move	$a0, $s0
	move	$a2, $fp
	jirl	$ra, $a3, 0
.Ltmp119:                               # EH_LABEL
# %bb.307:                              # %invoke.cont2110
.Ltmp120:                               # EH_LABEL
	addi.d	$a0, $sp, 104
	addi.d	$a1, $sp, 784
	pcaddu18i	$ra, %call36(_ZNSt7__cxx1112basic_stringIcSt11char_traitsIcESaIcEEC2ERKS4_)
	jirl	$ra, $ra, 0
.Ltmp121:                               # EH_LABEL
# %bb.308:                              # %invoke.cont2112
	ld.d	$a0, $s0, 0
	ld.d	$a1, $sp, 104
	ld.d	$a3, $a0, 0
.Ltmp122:                               # EH_LABEL
	move	$a0, $s0
	move	$a2, $fp
	jirl	$ra, $a3, 0
.Ltmp123:                               # EH_LABEL
# %bb.309:                              # %invoke.cont2114
	ld.d	$a0, $sp, 104
	addi.d	$a1, $sp, 120
	beq	$a0, $a1, .LBB27_311
# %bb.310:                              # %if.then.i.i2270
	ld.d	$a1, $sp, 120
	addi.d	$a1, $a1, 1
	pcaddu18i	$ra, %call36(_ZdlPvm)
	jirl	$ra, $ra, 0
.LBB27_311:                             # %_ZNSt7__cxx1112basic_stringIcSt11char_traitsIcESaIcEED2Ev.exit2275
	ld.d	$a0, $s0, 0
	ld.d	$a3, $a0, 0
.Ltmp125:                               # EH_LABEL
	pcalau12i	$a0, %pc_hi20(.L.str.1005)
	addi.d	$a1, $a0, %pc_lo12(.L.str.1005)
	move	$a0, $s0
	move	$a2, $fp
	jirl	$ra, $a3, 0
.Ltmp126:                               # EH_LABEL
# %bb.312:                              # %invoke.cont2118
.Ltmp127:                               # EH_LABEL
	addi.d	$a0, $sp, 72
	addi.d	$a1, $sp, 784
	pcaddu18i	$ra, %call36(_ZNSt7__cxx1112basic_stringIcSt11char_traitsIcESaIcEEC2ERKS4_)
	jirl	$ra, $ra, 0
.Ltmp128:                               # EH_LABEL
# %bb.313:                              # %invoke.cont2120
	ld.d	$a0, $s0, 0
	ld.d	$a1, $sp, 72
	ld.d	$a3, $a0, 0
.Ltmp129:                               # EH_LABEL
	move	$a0, $s0
	move	$a2, $fp
	jirl	$ra, $a3, 0
.Ltmp130:                               # EH_LABEL
# %bb.314:                              # %invoke.cont2122
	ld.d	$a0, $sp, 72
	addi.d	$a1, $sp, 88
	beq	$a0, $a1, .LBB27_316
# %bb.315:                              # %if.then.i.i2279
	ld.d	$a1, $sp, 88
	addi.d	$a1, $a1, 1
	pcaddu18i	$ra, %call36(_ZdlPvm)
	jirl	$ra, $ra, 0
.LBB27_316:                             # %_ZNSt7__cxx1112basic_stringIcSt11char_traitsIcESaIcEED2Ev.exit2284
	ld.d	$a0, $s0, 0
	ld.d	$a3, $a0, 0
.Ltmp132:                               # EH_LABEL
	pcalau12i	$a0, %pc_hi20(.L.str.1006)
	addi.d	$a1, $a0, %pc_lo12(.L.str.1006)
	move	$a0, $s0
	move	$a2, $fp
	jirl	$ra, $a3, 0
.Ltmp133:                               # EH_LABEL
# %bb.317:                              # %invoke.cont2126
.Ltmp134:                               # EH_LABEL
	addi.d	$a0, $sp, 40
	addi.d	$a1, $sp, 784
	pcaddu18i	$ra, %call36(_ZNSt7__cxx1112basic_stringIcSt11char_traitsIcESaIcEEC2ERKS4_)
	jirl	$ra, $ra, 0
.Ltmp135:                               # EH_LABEL
# %bb.318:                              # %invoke.cont2128
	ld.d	$a0, $s0, 0
	ld.d	$a1, $sp, 40
	ld.d	$a3, $a0, 0
.Ltmp136:                               # EH_LABEL
	move	$a0, $s0
	move	$a2, $fp
	jirl	$ra, $a3, 0
.Ltmp137:                               # EH_LABEL
# %bb.319:                              # %invoke.cont2130
	ld.d	$a0, $sp, 40
	addi.d	$a1, $sp, 56
	beq	$a0, $a1, .LBB27_321
# %bb.320:                              # %if.then.i.i2288
	ld.d	$a1, $sp, 56
	addi.d	$a1, $a1, 1
	pcaddu18i	$ra, %call36(_ZdlPvm)
	jirl	$ra, $ra, 0
.LBB27_321:                             # %_ZNSt7__cxx1112basic_stringIcSt11char_traitsIcESaIcEED2Ev.exit2293
	ld.d	$a0, $s0, 0
	ld.d	$a3, $a0, 0
.Ltmp139:                               # EH_LABEL
	pcalau12i	$a0, %pc_hi20(.L.str.1007)
	addi.d	$a1, $a0, %pc_lo12(.L.str.1007)
	move	$a0, $s0
	move	$a2, $fp
	jirl	$ra, $a3, 0
.Ltmp140:                               # EH_LABEL
# %bb.322:                              # %invoke.cont2134
.Ltmp141:                               # EH_LABEL
	addi.d	$a0, $sp, 8
	addi.d	$a1, $sp, 784
	pcaddu18i	$ra, %call36(_ZNSt7__cxx1112basic_stringIcSt11char_traitsIcESaIcEEC2ERKS4_)
	jirl	$ra, $ra, 0
.Ltmp142:                               # EH_LABEL
# %bb.323:                              # %invoke.cont2136
	ld.d	$a0, $s0, 0
	ld.d	$a1, $sp, 8
	ld.d	$a3, $a0, 0
.Ltmp143:                               # EH_LABEL
	move	$a0, $s0
	move	$a2, $fp
	jirl	$ra, $a3, 0
.Ltmp144:                               # EH_LABEL
# %bb.324:                              # %invoke.cont2138
	ld.d	$a0, $sp, 8
	addi.d	$a1, $sp, 24
	beq	$a0, $a1, .LBB27_326
# %bb.325:                              # %if.then.i.i2297
	ld.d	$a1, $sp, 24
	addi.d	$a1, $a1, 1
	pcaddu18i	$ra, %call36(_ZdlPvm)
	jirl	$ra, $ra, 0
.LBB27_326:                             # %_ZNSt7__cxx1112basic_stringIcSt11char_traitsIcESaIcEED2Ev.exit2302
	ld.d	$a0, $s0, 0
	ld.d	$a3, $a0, 0
.Ltmp146:                               # EH_LABEL
	pcalau12i	$a0, %pc_hi20(.L.str.1008)
	addi.d	$a1, $a0, %pc_lo12(.L.str.1008)
	move	$a0, $s0
	move	$a2, $fp
	jirl	$ra, $a3, 0
.Ltmp147:                               # EH_LABEL
# %bb.327:                              # %invoke.cont2142
	ld.d	$a0, $s0, 0
	ld.d	$a3, $a0, 0
.Ltmp148:                               # EH_LABEL
	pcalau12i	$a0, %pc_hi20(.L.str.1009)
	addi.d	$a1, $a0, %pc_lo12(.L.str.1009)
	move	$a0, $s0
	move	$a2, $fp
	jirl	$ra, $a3, 0
.Ltmp149:                               # EH_LABEL
# %bb.328:                              # %invoke.cont2145
	ld.d	$a0, $s0, 0
	ld.d	$a3, $a0, 0
.Ltmp150:                               # EH_LABEL
	pcalau12i	$a0, %pc_hi20(.L.str.1010)
	addi.d	$a1, $a0, %pc_lo12(.L.str.1010)
	move	$a0, $s0
	move	$a2, $fp
	jirl	$ra, $a3, 0
.Ltmp151:                               # EH_LABEL
# %bb.329:                              # %invoke.cont2148
	ld.d	$a0, $s0, 0
	ld.d	$a3, $a0, 0
.Ltmp152:                               # EH_LABEL
	pcalau12i	$a0, %pc_hi20(.L.str.1011)
	addi.d	$a1, $a0, %pc_lo12(.L.str.1011)
	move	$a0, $s0
	move	$a2, $fp
	jirl	$ra, $a3, 0
.Ltmp153:                               # EH_LABEL
# %bb.330:                              # %invoke.cont2151
	ld.d	$a0, $s0, 0
	ld.d	$a3, $a0, 0
.Ltmp154:                               # EH_LABEL
	pcalau12i	$a0, %pc_hi20(.L.str.1012)
	addi.d	$a1, $a0, %pc_lo12(.L.str.1012)
	move	$a0, $s0
	move	$a2, $fp
	jirl	$ra, $a3, 0
.Ltmp155:                               # EH_LABEL
# %bb.331:                              # %invoke.cont2154
	ld.d	$a0, $s0, 0
	ld.d	$a3, $a0, 0
.Ltmp156:                               # EH_LABEL
	pcalau12i	$a0, %pc_hi20(.L.str.1013)
	addi.d	$a1, $a0, %pc_lo12(.L.str.1013)
	move	$a0, $s0
	move	$a2, $fp
	jirl	$ra, $a3, 0
.Ltmp157:                               # EH_LABEL
# %bb.332:                              # %invoke.cont2157
	ld.d	$a0, $s0, 0
	ld.d	$a3, $a0, 0
.Ltmp158:                               # EH_LABEL
	pcalau12i	$a0, %pc_hi20(.L.str.1014)
	addi.d	$a1, $a0, %pc_lo12(.L.str.1014)
	move	$a0, $s0
	move	$a2, $fp
	jirl	$ra, $a3, 0
.Ltmp159:                               # EH_LABEL
# %bb.333:                              # %invoke.cont2160
	ld.d	$a0, $s0, 0
	ld.d	$a3, $a0, 0
.Ltmp160:                               # EH_LABEL
	pcalau12i	$a0, %pc_hi20(.L.str.1015)
	addi.d	$a1, $a0, %pc_lo12(.L.str.1015)
	move	$a0, $s0
	move	$a2, $fp
	jirl	$ra, $a3, 0
.Ltmp161:                               # EH_LABEL
# %bb.334:                              # %invoke.cont2163
	ld.d	$a0, $s0, 0
	ld.d	$a3, $a0, 0
.Ltmp162:                               # EH_LABEL
	pcalau12i	$a0, %pc_hi20(.L.str.1016)
	addi.d	$a1, $a0, %pc_lo12(.L.str.1016)
	move	$a0, $s0
	move	$a2, $fp
	jirl	$ra, $a3, 0
.Ltmp163:                               # EH_LABEL
# %bb.335:                              # %invoke.cont2166
	ld.d	$a0, $s0, 0
	ld.d	$a3, $a0, 0
.Ltmp164:                               # EH_LABEL
	pcalau12i	$a0, %pc_hi20(.L.str.1017)
	addi.d	$a1, $a0, %pc_lo12(.L.str.1017)
	move	$a0, $s0
	move	$a2, $fp
	jirl	$ra, $a3, 0
.Ltmp165:                               # EH_LABEL
# %bb.336:                              # %invoke.cont2169
	ld.d	$a0, $s0, 0
	ld.d	$a3, $a0, 0
.Ltmp166:                               # EH_LABEL
	pcalau12i	$a0, %pc_hi20(.L.str.1018)
	addi.d	$a1, $a0, %pc_lo12(.L.str.1018)
	move	$a0, $s0
	move	$a2, $fp
	jirl	$ra, $a3, 0
.Ltmp167:                               # EH_LABEL
# %bb.337:                              # %invoke.cont2172
	ld.d	$a0, $s0, 0
	ld.d	$a3, $a0, 0
.Ltmp168:                               # EH_LABEL
	pcalau12i	$a0, %pc_hi20(.L.str.1019)
	addi.d	$a1, $a0, %pc_lo12(.L.str.1019)
	move	$a0, $s0
	move	$a2, $fp
	jirl	$ra, $a3, 0
.Ltmp169:                               # EH_LABEL
# %bb.338:                              # %invoke.cont2175
	ld.d	$a0, $s0, 0
	ld.d	$a3, $a0, 0
.Ltmp170:                               # EH_LABEL
	pcalau12i	$a0, %pc_hi20(.L.str.1020)
	addi.d	$a1, $a0, %pc_lo12(.L.str.1020)
	move	$a0, $s0
	move	$a2, $fp
	jirl	$ra, $a3, 0
.Ltmp171:                               # EH_LABEL
.LBB27_339:                             # %invoke.cont922
	ld.d	$a0, $sp, 784
	addi.d	$a1, $sp, 800
	beq	$a0, $a1, .LBB27_344
# %bb.340:                              # %if.then.i.i2049
	ld.d	$a1, $sp, 800
	addi.d	$a1, $a1, 1
	pcaddu18i	$ra, %call36(_ZdlPvm)
	jirl	$ra, $ra, 0
	b	.LBB27_344
.LBB27_341:                             # %if.then1473
	pcalau12i	$a0, %pc_hi20(.L.str.816)
	addi.d	$a1, $a0, %pc_lo12(.L.str.816)
.LBB27_342:                             # %if.end1488
	move	$a0, $s0
	move	$a2, $fp
	jirl	$ra, $a3, 0
	ld.d	$a0, $s0, 0
	ld.d	$a3, $a0, 0
	pcalau12i	$a0, %pc_hi20(.L.str.820)
	addi.d	$a1, $a0, %pc_lo12(.L.str.820)
.LBB27_343:                             # %sw.epilog
	move	$a0, $s0
	move	$a2, $fp
	jirl	$ra, $a3, 0
.LBB27_344:                             # %sw.epilog
	ld.d	$s6, $sp, 984                   # 8-byte Folded Reload
	ld.d	$s5, $sp, 992                   # 8-byte Folded Reload
	ld.d	$s4, $sp, 1000                  # 8-byte Folded Reload
	ld.d	$s3, $sp, 1008                  # 8-byte Folded Reload
	ld.d	$s2, $sp, 1016                  # 8-byte Folded Reload
	ld.d	$s1, $sp, 1024                  # 8-byte Folded Reload
	ld.d	$s0, $sp, 1032                  # 8-byte Folded Reload
	ld.d	$fp, $sp, 1040                  # 8-byte Folded Reload
	ld.d	$ra, $sp, 1048                  # 8-byte Folded Reload
	addi.d	$sp, $sp, 1056
	ret
.LBB27_345:                             # %if.then239
	ld.d	$a0, $s0, 0
	ld.d	$a3, $a0, 0
	pcalau12i	$a0, %pc_hi20(.L.str.411)
	addi.d	$a1, $a0, %pc_lo12(.L.str.411)
	move	$a0, $s0
	move	$a2, $fp
	jirl	$ra, $a3, 0
	pcalau12i	$a0, %pc_hi20(_ZN12_GLOBAL__N_110gl_membersE)
	ld.d	$a0, $a0, %pc_lo12(_ZN12_GLOBAL__N_110gl_membersE)
	ld.d	$a1, $a0, 0
	ld.d	$a3, $a1, 72
	pcalau12i	$a1, %pc_hi20(_ZN2kc29view_gen_user_assignment_inisE)
	addi.d	$a2, $a1, %pc_lo12(_ZN2kc29view_gen_user_assignment_inisE)
	move	$a1, $s0
	jirl	$ra, $a3, 0
	ld.d	$a0, $s0, 0
	ld.d	$a3, $a0, 0
	pcalau12i	$a0, %pc_hi20(.L.str.412)
	addi.d	$a1, $a0, %pc_lo12(.L.str.412)
	move	$a0, $s0
	move	$a2, $fp
	jirl	$ra, $a3, 0
	ld.d	$a0, $s6, 0
	pcaddu18i	$ra, %call36(_ZN2kc27f_destructors_in_phylumdeclEPNS_22impl_phylumdeclarationE)
	jirl	$ra, $ra, 0
	bnez	$a0, .LBB27_250
.LBB27_346:
	pcalau12i	$a0, %pc_hi20(.L.str.413)
	addi.d	$a1, $a0, %pc_lo12(.L.str.413)
.LBB27_347:                             # %if.end250.sink.split
	ld.d	$a0, $s0, 0
	ld.d	$a3, $a0, 0
	move	$a0, $s0
	move	$a2, $fp
	jirl	$ra, $a3, 0
	ld.bu	$a0, $s4, 67
	beqz	$a0, .LBB27_251
	b	.LBB27_252
.LBB27_348:
	pcalau12i	$a0, %pc_hi20(.L.str.432)
	addi.d	$a1, $a0, %pc_lo12(.L.str.432)
.LBB27_349:                             # %if.end301
	ld.d	$a0, $s0, 0
	ld.d	$a3, $a0, 0
	move	$a0, $s0
	move	$a2, $fp
	jirl	$ra, $a3, 0
	ld.d	$a0, $s0, 0
	ld.d	$a3, $a0, 0
	pcalau12i	$a0, %pc_hi20(.L.str.433)
	addi.d	$a1, $a0, %pc_lo12(.L.str.433)
	move	$a0, $s0
	move	$a2, $fp
	jirl	$ra, $a3, 0
	ld.bu	$a0, $s4, 73
	beqz	$a0, .LBB27_351
# %bb.350:                              # %if.then305
	ld.d	$a0, $s0, 0
	ld.d	$a3, $a0, 0
	pcalau12i	$a0, %pc_hi20(.L.str.434)
	addi.d	$a1, $a0, %pc_lo12(.L.str.434)
	move	$a0, $s0
	move	$a2, $fp
	jirl	$ra, $a3, 0
.LBB27_351:                             # %if.end308
	ld.d	$a0, $s0, 0
	ld.d	$a3, $a0, 0
	pcalau12i	$a0, %pc_hi20(.L.str.361)
