	.file	"LCALSStats.cxx"
                                        # Start of file scope inline assembly
	.globl	_ZSt21ios_base_library_initv

                                        # End of file scope inline assembly
	.text
	.globl	_ZNK8LoopStat5printERSo         # -- Begin function _ZNK8LoopStat5printERSo
	.p2align	5
	.type	_ZNK8LoopStat5printERSo,@function
_ZNK8LoopStat5printERSo:                # @_ZNK8LoopStat5printERSo
	.cfi_startproc
# %bb.0:                                # %entry
	addi.d	$sp, $sp, -160
	.cfi_def_cfa_offset 160
	st.d	$ra, $sp, 152                   # 8-byte Folded Spill
	st.d	$fp, $sp, 144                   # 8-byte Folded Spill
	st.d	$s0, $sp, 136                   # 8-byte Folded Spill
	st.d	$s1, $sp, 128                   # 8-byte Folded Spill
	st.d	$s2, $sp, 120                   # 8-byte Folded Spill
	st.d	$s3, $sp, 112                   # 8-byte Folded Spill
	st.d	$s4, $sp, 104                   # 8-byte Folded Spill
	st.d	$s5, $sp, 96                    # 8-byte Folded Spill
	st.d	$s6, $sp, 88                    # 8-byte Folded Spill
	st.d	$s7, $sp, 80                    # 8-byte Folded Spill
	st.d	$s8, $sp, 72                    # 8-byte Folded Spill
	.cfi_offset 1, -8
	.cfi_offset 22, -16
	.cfi_offset 23, -24
	.cfi_offset 24, -32
	.cfi_offset 25, -40
	.cfi_offset 26, -48
	.cfi_offset 27, -56
	.cfi_offset 28, -64
	.cfi_offset 29, -72
	.cfi_offset 30, -80
	.cfi_offset 31, -88
	move	$fp, $a1
	move	$s0, $a0
	pcalau12i	$a0, %pc_hi20(.L.str)
	addi.d	$a1, $a0, %pc_lo12(.L.str)
	ori	$a2, $zero, 19
	move	$a0, $fp
	pcaddu18i	$ra, %call36(_ZSt16__ostream_insertIcSt11char_traitsIcEERSt13basic_ostreamIT_T0_ES6_PKS3_l)
	jirl	$ra, $ra, 0
	ld.d	$a0, $fp, 0
	ld.d	$a0, $a0, -24
	add.d	$a0, $fp, $a0
	ld.d	$s1, $a0, 240
	beqz	$s1, .LBB0_79
# %bb.1:                                # %_ZSt13__check_facetISt5ctypeIcEERKT_PS3_.exit.i.i
	ld.bu	$a0, $s1, 56
	beqz	$a0, .LBB0_3
# %bb.2:                                # %if.then.i2.i.i
	ld.bu	$a0, $s1, 67
	b	.LBB0_4
.LBB0_3:                                # %if.end.i.i.i
	move	$a0, $s1
	pcaddu18i	$ra, %call36(_ZNKSt5ctypeIcE13_M_widen_initEv)
	jirl	$ra, $ra, 0
	ld.d	$a0, $s1, 0
	ld.d	$a2, $a0, 48
	ori	$a1, $zero, 10
	move	$a0, $s1
	jirl	$ra, $a2, 0
.LBB0_4:                                # %_ZSt4endlIcSt11char_traitsIcEERSt13basic_ostreamIT_T0_ES6_.exit
	ext.w.b	$a1, $a0
	move	$a0, $fp
	pcaddu18i	$ra, %call36(_ZNSo3putEc)
	jirl	$ra, $ra, 0
	pcaddu18i	$ra, %call36(_ZNSo5flushEv)
	jirl	$ra, $ra, 0
	pcalau12i	$a0, %pc_hi20(.L.str.1)
	addi.d	$a1, $a0, %pc_lo12(.L.str.1)
	ori	$a2, $zero, 15
	move	$a0, $fp
	pcaddu18i	$ra, %call36(_ZSt16__ostream_insertIcSt11char_traitsIcEERSt13basic_ostreamIT_T0_ES6_PKS3_l)
	jirl	$ra, $ra, 0
	ld.bu	$a1, $s0, 0
	move	$a0, $fp
	pcaddu18i	$ra, %call36(_ZNSo9_M_insertIbEERSoT_)
	jirl	$ra, $ra, 0
	ld.d	$a1, $a0, 0
	ld.d	$a1, $a1, -24
	add.d	$a1, $a0, $a1
	ld.d	$s1, $a1, 240
	beqz	$s1, .LBB0_79
# %bb.5:                                # %_ZSt13__check_facetISt5ctypeIcEERKT_PS3_.exit.i.i137
	ld.bu	$a1, $s1, 56
	beqz	$a1, .LBB0_7
# %bb.6:                                # %if.then.i2.i.i140
	ld.bu	$a1, $s1, 67
	b	.LBB0_8
.LBB0_7:                                # %if.end.i.i.i145
	move	$s2, $a0
	move	$a0, $s1
	pcaddu18i	$ra, %call36(_ZNKSt5ctypeIcE13_M_widen_initEv)
	jirl	$ra, $ra, 0
	ld.d	$a0, $s1, 0
	ld.d	$a2, $a0, 48
	ori	$a1, $zero, 10
	move	$a0, $s1
	jirl	$ra, $a2, 0
	move	$a1, $a0
	move	$a0, $s2
.LBB0_8:                                # %_ZSt4endlIcSt11char_traitsIcEERSt13basic_ostreamIT_T0_ES6_.exit150
	ext.w.b	$a1, $a1
	pcaddu18i	$ra, %call36(_ZNSo3putEc)
	jirl	$ra, $ra, 0
	pcaddu18i	$ra, %call36(_ZNSo5flushEv)
	jirl	$ra, $ra, 0
	pcalau12i	$a0, %pc_hi20(.L.str.2)
	addi.d	$a1, $a0, %pc_lo12(.L.str.2)
	ori	$a2, $zero, 20
	move	$a0, $fp
	pcaddu18i	$ra, %call36(_ZSt16__ostream_insertIcSt11char_traitsIcEERSt13basic_ostreamIT_T0_ES6_PKS3_l)
	jirl	$ra, $ra, 0
	ld.d	$a0, $s0, 216
	ld.d	$a1, $s0, 208
	sub.d	$a0, $a0, $a1
	srai.d	$a1, $a0, 2
	move	$a0, $fp
	pcaddu18i	$ra, %call36(_ZNSo9_M_insertImEERSoT_)
	jirl	$ra, $ra, 0
	ld.d	$a1, $a0, 0
	ld.d	$a1, $a1, -24
	add.d	$a1, $a0, $a1
	ld.d	$s1, $a1, 240
	beqz	$s1, .LBB0_79
# %bb.9:                                # %_ZSt13__check_facetISt5ctypeIcEERKT_PS3_.exit.i.i157
	ld.bu	$a1, $s1, 56
	beqz	$a1, .LBB0_11
# %bb.10:                               # %if.then.i2.i.i160
	ld.bu	$a1, $s1, 67
	b	.LBB0_12
.LBB0_11:                               # %if.end.i.i.i165
	move	$s2, $a0
	move	$a0, $s1
	pcaddu18i	$ra, %call36(_ZNKSt5ctypeIcE13_M_widen_initEv)
	jirl	$ra, $ra, 0
	ld.d	$a0, $s1, 0
	ld.d	$a2, $a0, 48
	ori	$a1, $zero, 10
	move	$a0, $s1
	jirl	$ra, $a2, 0
	move	$a1, $a0
	move	$a0, $s2
.LBB0_12:                               # %_ZSt4endlIcSt11char_traitsIcEERSt13basic_ostreamIT_T0_ES6_.exit170
	ext.w.b	$a1, $a1
	pcaddu18i	$ra, %call36(_ZNSo3putEc)
	jirl	$ra, $ra, 0
	pcaddu18i	$ra, %call36(_ZNSo5flushEv)
	jirl	$ra, $ra, 0
	ld.d	$a0, $s0, 216
	ld.d	$a1, $s0, 208
	beq	$a0, $a1, .LBB0_74
# %bb.13:                               # %for.body.lr.ph
	pcalau12i	$a0, %pc_hi20(.L.str.3)
	addi.d	$a0, $a0, %pc_lo12(.L.str.3)
	st.d	$a0, $sp, 64                    # 8-byte Folded Spill
	pcalau12i	$a0, %pc_hi20(.L.str.4)
	addi.d	$a0, $a0, %pc_lo12(.L.str.4)
	st.d	$a0, $sp, 56                    # 8-byte Folded Spill
	pcalau12i	$a0, %pc_hi20(.L.str.5)
	addi.d	$a0, $a0, %pc_lo12(.L.str.5)
	st.d	$a0, $sp, 48                    # 8-byte Folded Spill
	pcalau12i	$a0, %pc_hi20(.L.str.6)
	addi.d	$a0, $a0, %pc_lo12(.L.str.6)
	st.d	$a0, $sp, 40                    # 8-byte Folded Spill
	pcalau12i	$a0, %pc_hi20(.L.str.7)
	addi.d	$s5, $a0, %pc_lo12(.L.str.7)
	pcalau12i	$a0, %pc_hi20(.L.str.9)
	addi.d	$a0, $a0, %pc_lo12(.L.str.9)
	st.d	$a0, $sp, 32                    # 8-byte Folded Spill
	pcalau12i	$a0, %pc_hi20(.L.str.10)
	addi.d	$a0, $a0, %pc_lo12(.L.str.10)
	st.d	$a0, $sp, 24                    # 8-byte Folded Spill
	pcalau12i	$a0, %pc_hi20(.L.str.11)
	addi.d	$a0, $a0, %pc_lo12(.L.str.11)
	st.d	$a0, $sp, 16                    # 8-byte Folded Spill
	move	$s6, $zero
	move	$s1, $zero
	b	.LBB0_15
	.p2align	4, , 16
.LBB0_14:                               # %for.inc104
                                        #   in Loop: Header=BB0_15 Depth=1
	ld.d	$a0, $s0, 216
	ld.d	$a1, $s0, 208
	addi.w	$s1, $s1, 1
	bstrpick.d	$s6, $s1, 31, 0
	sub.d	$a0, $a0, $a1
	srai.d	$a0, $a0, 2
	bgeu	$s6, $a0, .LBB0_74
.LBB0_15:                               # %for.body
                                        # =>This Loop Header: Depth=1
                                        #     Child Loop BB0_36 Depth 2
                                        #     Child Loop BB0_71 Depth 2
	ori	$a2, $zero, 13
	move	$a0, $fp
	ld.d	$a1, $sp, 64                    # 8-byte Folded Reload
	pcaddu18i	$ra, %call36(_ZSt16__ostream_insertIcSt11char_traitsIcEERSt13basic_ostreamIT_T0_ES6_PKS3_l)
	jirl	$ra, $ra, 0
	move	$a0, $fp
	move	$a1, $s6
	pcaddu18i	$ra, %call36(_ZNSo9_M_insertImEERSoT_)
	jirl	$ra, $ra, 0
	move	$s7, $a0
	ori	$a2, $zero, 5
	ld.d	$a1, $sp, 56                    # 8-byte Folded Reload
	pcaddu18i	$ra, %call36(_ZSt16__ostream_insertIcSt11char_traitsIcEERSt13basic_ostreamIT_T0_ES6_PKS3_l)
	jirl	$ra, $ra, 0
	ld.d	$a0, $s7, 0
	ld.d	$a0, $a0, -24
	add.d	$a0, $s7, $a0
	ld.d	$s8, $a0, 240
	beqz	$s8, .LBB0_79
# %bb.16:                               # %_ZSt13__check_facetISt5ctypeIcEERKT_PS3_.exit.i.i197
                                        #   in Loop: Header=BB0_15 Depth=1
	ld.bu	$a0, $s8, 56
	beqz	$a0, .LBB0_18
# %bb.17:                               # %if.then.i2.i.i200
                                        #   in Loop: Header=BB0_15 Depth=1
	ld.bu	$a0, $s8, 67
	b	.LBB0_19
	.p2align	4, , 16
.LBB0_18:                               # %if.end.i.i.i205
                                        #   in Loop: Header=BB0_15 Depth=1
	move	$a0, $s8
	pcaddu18i	$ra, %call36(_ZNKSt5ctypeIcE13_M_widen_initEv)
	jirl	$ra, $ra, 0
	ld.d	$a0, $s8, 0
	ld.d	$a2, $a0, 48
	ori	$a1, $zero, 10
	move	$a0, $s8
	jirl	$ra, $a2, 0
.LBB0_19:                               # %_ZSt4endlIcSt11char_traitsIcEERSt13basic_ostreamIT_T0_ES6_.exit210
                                        #   in Loop: Header=BB0_15 Depth=1
	ext.w.b	$a1, $a0
	move	$a0, $s7
	pcaddu18i	$ra, %call36(_ZNSo3putEc)
	jirl	$ra, $ra, 0
	pcaddu18i	$ra, %call36(_ZNSo5flushEv)
	jirl	$ra, $ra, 0
	ori	$a2, $zero, 18
	move	$a0, $fp
	ld.d	$a1, $sp, 48                    # 8-byte Folded Reload
	pcaddu18i	$ra, %call36(_ZSt16__ostream_insertIcSt11char_traitsIcEERSt13basic_ostreamIT_T0_ES6_PKS3_l)
	jirl	$ra, $ra, 0
	ld.d	$a0, $s0, 208
	slli.d	$s2, $s6, 2
	ldx.w	$a1, $a0, $s2
	move	$a0, $fp
	pcaddu18i	$ra, %call36(_ZNSolsEi)
	jirl	$ra, $ra, 0
	ld.d	$a1, $a0, 0
	ld.d	$a1, $a1, -24
	add.d	$a1, $a0, $a1
	ld.d	$s7, $a1, 240
	beqz	$s7, .LBB0_79
# %bb.20:                               # %_ZSt13__check_facetISt5ctypeIcEERKT_PS3_.exit.i.i217
                                        #   in Loop: Header=BB0_15 Depth=1
	ld.bu	$a1, $s7, 56
	beqz	$a1, .LBB0_22
# %bb.21:                               # %if.then.i2.i.i220
                                        #   in Loop: Header=BB0_15 Depth=1
	ld.bu	$a1, $s7, 67
	b	.LBB0_23
	.p2align	4, , 16
.LBB0_22:                               # %if.end.i.i.i225
                                        #   in Loop: Header=BB0_15 Depth=1
	move	$s3, $a0
	move	$a0, $s7
	pcaddu18i	$ra, %call36(_ZNKSt5ctypeIcE13_M_widen_initEv)
	jirl	$ra, $ra, 0
	ld.d	$a0, $s7, 0
	ld.d	$a2, $a0, 48
	ori	$a1, $zero, 10
	move	$a0, $s7
	jirl	$ra, $a2, 0
	move	$a1, $a0
	move	$a0, $s3
.LBB0_23:                               # %_ZSt4endlIcSt11char_traitsIcEERSt13basic_ostreamIT_T0_ES6_.exit230
                                        #   in Loop: Header=BB0_15 Depth=1
	ext.w.b	$a1, $a1
	pcaddu18i	$ra, %call36(_ZNSo3putEc)
	jirl	$ra, $ra, 0
	pcaddu18i	$ra, %call36(_ZNSo5flushEv)
	jirl	$ra, $ra, 0
	ori	$a2, $zero, 23
	move	$a0, $fp
	ld.d	$a1, $sp, 40                    # 8-byte Folded Reload
	pcaddu18i	$ra, %call36(_ZSt16__ostream_insertIcSt11char_traitsIcEERSt13basic_ostreamIT_T0_ES6_PKS3_l)
	jirl	$ra, $ra, 0
	ld.d	$a0, $s0, 232
	ldx.w	$a1, $a0, $s2
	move	$a0, $fp
	pcaddu18i	$ra, %call36(_ZNSolsEi)
	jirl	$ra, $ra, 0
	ld.d	$a1, $a0, 0
	ld.d	$a1, $a1, -24
	add.d	$a1, $a0, $a1
	ld.d	$s7, $a1, 240
	beqz	$s7, .LBB0_79
# %bb.24:                               # %_ZSt13__check_facetISt5ctypeIcEERKT_PS3_.exit.i.i237
                                        #   in Loop: Header=BB0_15 Depth=1
	ld.bu	$a1, $s7, 56
	beqz	$a1, .LBB0_26
# %bb.25:                               # %if.then.i2.i.i240
                                        #   in Loop: Header=BB0_15 Depth=1
	ld.bu	$a1, $s7, 67
	b	.LBB0_27
	.p2align	4, , 16
.LBB0_26:                               # %if.end.i.i.i245
                                        #   in Loop: Header=BB0_15 Depth=1
	move	$s2, $a0
	move	$a0, $s7
	pcaddu18i	$ra, %call36(_ZNKSt5ctypeIcE13_M_widen_initEv)
	jirl	$ra, $ra, 0
	ld.d	$a0, $s7, 0
	ld.d	$a2, $a0, 48
	ori	$a1, $zero, 10
	move	$a0, $s7
	jirl	$ra, $a2, 0
	move	$a1, $a0
	move	$a0, $s2
.LBB0_27:                               # %_ZSt4endlIcSt11char_traitsIcEERSt13basic_ostreamIT_T0_ES6_.exit250
                                        #   in Loop: Header=BB0_15 Depth=1
	ext.w.b	$a1, $a1
	pcaddu18i	$ra, %call36(_ZNSo3putEc)
	jirl	$ra, $ra, 0
	pcaddu18i	$ra, %call36(_ZNSo5flushEv)
	jirl	$ra, $ra, 0
	ori	$a2, $zero, 21
	move	$a0, $fp
	move	$a1, $s5
	pcaddu18i	$ra, %call36(_ZSt16__ostream_insertIcSt11char_traitsIcEERSt13basic_ostreamIT_T0_ES6_PKS3_l)
	jirl	$ra, $ra, 0
	ld.d	$a0, $s0, 40
	slli.d	$s2, $s6, 3
	ldx.d	$a1, $a0, $s2
	move	$a0, $fp
	pcaddu18i	$ra, %call36(_ZNSo9_M_insertImEERSoT_)
	jirl	$ra, $ra, 0
	ld.d	$a1, $a0, 0
	ld.d	$a1, $a1, -24
	add.d	$a1, $a0, $a1
	ld.d	$s7, $a1, 240
	beqz	$s7, .LBB0_79
# %bb.28:                               # %_ZSt13__check_facetISt5ctypeIcEERKT_PS3_.exit.i.i257
                                        #   in Loop: Header=BB0_15 Depth=1
	ld.bu	$a1, $s7, 56
	beqz	$a1, .LBB0_30
# %bb.29:                               # %if.then.i2.i.i260
                                        #   in Loop: Header=BB0_15 Depth=1
	ld.bu	$a1, $s7, 67
	b	.LBB0_31
	.p2align	4, , 16
.LBB0_30:                               # %if.end.i.i.i265
                                        #   in Loop: Header=BB0_15 Depth=1
	move	$s3, $a0
	move	$a0, $s7
	pcaddu18i	$ra, %call36(_ZNKSt5ctypeIcE13_M_widen_initEv)
	jirl	$ra, $ra, 0
	ld.d	$a0, $s7, 0
	ld.d	$a2, $a0, 48
	ori	$a1, $zero, 10
	move	$a0, $s7
	jirl	$ra, $a2, 0
	move	$a1, $a0
	move	$a0, $s3
.LBB0_31:                               # %_ZSt4endlIcSt11char_traitsIcEERSt13basic_ostreamIT_T0_ES6_.exit270
                                        #   in Loop: Header=BB0_15 Depth=1
	ext.w.b	$a1, $a1
	pcaddu18i	$ra, %call36(_ZNSo3putEc)
	jirl	$ra, $ra, 0
	pcaddu18i	$ra, %call36(_ZNSo5flushEv)
	jirl	$ra, $ra, 0
	ld.d	$a0, $s0, 40
	ldx.d	$a0, $a0, $s2
	beqz	$a0, .LBB0_14
# %bb.32:                               # %for.cond36.preheader
                                        #   in Loop: Header=BB0_15 Depth=1
	ld.d	$a0, $s0, 16
	slli.d	$s2, $s6, 4
	alsl.d	$s8, $s6, $s2, 3
	add.d	$a1, $a0, $s8
	ld.d	$a1, $a1, 8
	ldx.d	$a0, $a0, $s8
	beq	$a1, $a0, .LBB0_39
# %bb.33:                               # %for.body43.preheader
                                        #   in Loop: Header=BB0_15 Depth=1
	move	$s7, $zero
	ori	$s3, $zero, 1
	b	.LBB0_36
	.p2align	4, , 16
.LBB0_34:                               # %if.end.i.i.i425
                                        #   in Loop: Header=BB0_36 Depth=2
	move	$s4, $a0
	move	$a0, $s7
	pcaddu18i	$ra, %call36(_ZNKSt5ctypeIcE13_M_widen_initEv)
	jirl	$ra, $ra, 0
	ld.d	$a0, $s7, 0
	ld.d	$a2, $a0, 48
	ori	$a1, $zero, 10
	move	$a0, $s7
	jirl	$ra, $a2, 0
	move	$a1, $a0
	move	$a0, $s4
.LBB0_35:                               # %_ZSt4endlIcSt11char_traitsIcEERSt13basic_ostreamIT_T0_ES6_.exit430
                                        #   in Loop: Header=BB0_36 Depth=2
	ext.w.b	$a1, $a1
	pcaddu18i	$ra, %call36(_ZNSo3putEc)
	jirl	$ra, $ra, 0
	pcaddu18i	$ra, %call36(_ZNSo5flushEv)
	jirl	$ra, $ra, 0
	ld.d	$a0, $s0, 16
	add.d	$a1, $a0, $s8
	ld.d	$a1, $a1, 8
	ldx.d	$a0, $a0, $s8
	bstrpick.d	$s7, $s3, 31, 0
	sub.d	$a0, $a1, $a0
	srai.d	$a0, $a0, 4
	addi.w	$s3, $s3, 1
	bgeu	$s7, $a0, .LBB0_39
.LBB0_36:                               # %for.body43
                                        #   Parent Loop BB0_15 Depth=1
                                        # =>  This Inner Loop Header: Depth=2
	pcalau12i	$a0, %pc_hi20(.L.str.8)
	addi.d	$a1, $a0, %pc_lo12(.L.str.8)
	ori	$a2, $zero, 19
	move	$a0, $fp
	pcaddu18i	$ra, %call36(_ZSt16__ostream_insertIcSt11char_traitsIcEERSt13basic_ostreamIT_T0_ES6_PKS3_l)
	jirl	$ra, $ra, 0
	ld.d	$a0, $s0, 16
	ldx.d	$a0, $a0, $s8
	alsl.d	$a2, $s7, $a0, 4
	slli.d	$a1, $s7, 4
	ldx.d	$a1, $a0, $a1
	ld.d	$a2, $a2, 8
	move	$a0, $fp
	pcaddu18i	$ra, %call36(_ZNSo9_M_insertIeEERSoT_)
	jirl	$ra, $ra, 0
	ld.d	$a1, $a0, 0
	ld.d	$a1, $a1, -24
	add.d	$a1, $a0, $a1
	ld.d	$s7, $a1, 240
	beqz	$s7, .LBB0_79
# %bb.37:                               # %_ZSt13__check_facetISt5ctypeIcEERKT_PS3_.exit.i.i417
                                        #   in Loop: Header=BB0_36 Depth=2
	ld.bu	$a1, $s7, 56
	beqz	$a1, .LBB0_34
# %bb.38:                               # %if.then.i2.i.i420
                                        #   in Loop: Header=BB0_36 Depth=2
	ld.bu	$a1, $s7, 67
	b	.LBB0_35
	.p2align	4, , 16
.LBB0_39:                               # %for.cond.cleanup42
                                        #   in Loop: Header=BB0_15 Depth=1
	ori	$a2, $zero, 12
	move	$a0, $fp
	ld.d	$a1, $sp, 32                    # 8-byte Folded Reload
	pcaddu18i	$ra, %call36(_ZSt16__ostream_insertIcSt11char_traitsIcEERSt13basic_ostreamIT_T0_ES6_PKS3_l)
	jirl	$ra, $ra, 0
	ld.d	$a0, $s0, 64
	alsl.d	$a2, $s6, $a0, 4
	ldx.d	$a1, $a0, $s2
	ld.d	$a2, $a2, 8
	move	$a0, $fp
	pcaddu18i	$ra, %call36(_ZNSo9_M_insertIeEERSoT_)
	jirl	$ra, $ra, 0
	ld.d	$a1, $a0, 0
	ld.d	$a1, $a1, -24
	add.d	$a1, $a0, $a1
	ld.d	$s7, $a1, 240
	beqz	$s7, .LBB0_79
# %bb.40:                               # %_ZSt13__check_facetISt5ctypeIcEERKT_PS3_.exit.i.i277
                                        #   in Loop: Header=BB0_15 Depth=1
	ld.bu	$a1, $s7, 56
	beqz	$a1, .LBB0_42
# %bb.41:                               # %if.then.i2.i.i280
                                        #   in Loop: Header=BB0_15 Depth=1
	ld.bu	$a1, $s7, 67
	b	.LBB0_43
	.p2align	4, , 16
.LBB0_42:                               # %if.end.i.i.i285
                                        #   in Loop: Header=BB0_15 Depth=1
	move	$s3, $a0
	move	$a0, $s7
	pcaddu18i	$ra, %call36(_ZNKSt5ctypeIcE13_M_widen_initEv)
	jirl	$ra, $ra, 0
	ld.d	$a0, $s7, 0
	ld.d	$a2, $a0, 48
	ori	$a1, $zero, 10
	move	$a0, $s7
	jirl	$ra, $a2, 0
	move	$a1, $a0
	move	$a0, $s3
.LBB0_43:                               # %_ZSt4endlIcSt11char_traitsIcEERSt13basic_ostreamIT_T0_ES6_.exit290
                                        #   in Loop: Header=BB0_15 Depth=1
	ext.w.b	$a1, $a1
	pcaddu18i	$ra, %call36(_ZNSo3putEc)
	jirl	$ra, $ra, 0
	pcaddu18i	$ra, %call36(_ZNSo5flushEv)
	jirl	$ra, $ra, 0
	ori	$a2, $zero, 15
	move	$a0, $fp
	ld.d	$a1, $sp, 24                    # 8-byte Folded Reload
	pcaddu18i	$ra, %call36(_ZSt16__ostream_insertIcSt11char_traitsIcEERSt13basic_ostreamIT_T0_ES6_PKS3_l)
	jirl	$ra, $ra, 0
	ld.d	$a0, $s0, 88
	alsl.d	$a2, $s6, $a0, 4
	ldx.d	$a1, $a0, $s2
	ld.d	$a2, $a2, 8
	move	$a0, $fp
	pcaddu18i	$ra, %call36(_ZNSo9_M_insertIeEERSoT_)
	jirl	$ra, $ra, 0
	ld.d	$a1, $a0, 0
	ld.d	$a1, $a1, -24
	add.d	$a1, $a0, $a1
	ld.d	$s7, $a1, 240
	beqz	$s7, .LBB0_79
# %bb.44:                               # %_ZSt13__check_facetISt5ctypeIcEERKT_PS3_.exit.i.i297
                                        #   in Loop: Header=BB0_15 Depth=1
	ld.bu	$a1, $s7, 56
	beqz	$a1, .LBB0_46
# %bb.45:                               # %if.then.i2.i.i300
                                        #   in Loop: Header=BB0_15 Depth=1
	ld.bu	$a1, $s7, 67
	b	.LBB0_47
	.p2align	4, , 16
.LBB0_46:                               # %if.end.i.i.i305
                                        #   in Loop: Header=BB0_15 Depth=1
	move	$s3, $a0
	move	$a0, $s7
	pcaddu18i	$ra, %call36(_ZNKSt5ctypeIcE13_M_widen_initEv)
	jirl	$ra, $ra, 0
	ld.d	$a0, $s7, 0
	ld.d	$a2, $a0, 48
	ori	$a1, $zero, 10
	move	$a0, $s7
	jirl	$ra, $a2, 0
	move	$a1, $a0
	move	$a0, $s3
.LBB0_47:                               # %_ZSt4endlIcSt11char_traitsIcEERSt13basic_ostreamIT_T0_ES6_.exit310
                                        #   in Loop: Header=BB0_15 Depth=1
	ext.w.b	$a1, $a1
	pcaddu18i	$ra, %call36(_ZNSo3putEc)
	jirl	$ra, $ra, 0
	pcaddu18i	$ra, %call36(_ZNSo5flushEv)
	jirl	$ra, $ra, 0
	ori	$a2, $zero, 11
	move	$a0, $fp
	ld.d	$a1, $sp, 16                    # 8-byte Folded Reload
	pcaddu18i	$ra, %call36(_ZSt16__ostream_insertIcSt11char_traitsIcEERSt13basic_ostreamIT_T0_ES6_PKS3_l)
	jirl	$ra, $ra, 0
	ld.d	$a0, $s0, 112
	alsl.d	$a2, $s6, $a0, 4
	ldx.d	$a1, $a0, $s2
	ld.d	$a2, $a2, 8
	move	$a0, $fp
	pcaddu18i	$ra, %call36(_ZNSo9_M_insertIeEERSoT_)
	jirl	$ra, $ra, 0
	ld.d	$a1, $a0, 0
	ld.d	$a1, $a1, -24
	add.d	$a1, $a0, $a1
	ld.d	$s7, $a1, 240
	beqz	$s7, .LBB0_79
# %bb.48:                               # %_ZSt13__check_facetISt5ctypeIcEERKT_PS3_.exit.i.i317
                                        #   in Loop: Header=BB0_15 Depth=1
	ld.bu	$a1, $s7, 56
	beqz	$a1, .LBB0_50
# %bb.49:                               # %if.then.i2.i.i320
                                        #   in Loop: Header=BB0_15 Depth=1
	ld.bu	$a1, $s7, 67
	b	.LBB0_51
	.p2align	4, , 16
.LBB0_50:                               # %if.end.i.i.i325
                                        #   in Loop: Header=BB0_15 Depth=1
	move	$s3, $a0
	move	$a0, $s7
	pcaddu18i	$ra, %call36(_ZNKSt5ctypeIcE13_M_widen_initEv)
	jirl	$ra, $ra, 0
	ld.d	$a0, $s7, 0
	ld.d	$a2, $a0, 48
	ori	$a1, $zero, 10
	move	$a0, $s7
	jirl	$ra, $a2, 0
	move	$a1, $a0
	move	$a0, $s3
.LBB0_51:                               # %_ZSt4endlIcSt11char_traitsIcEERSt13basic_ostreamIT_T0_ES6_.exit330
                                        #   in Loop: Header=BB0_15 Depth=1
	ext.w.b	$a1, $a1
	pcaddu18i	$ra, %call36(_ZNSo3putEc)
	jirl	$ra, $ra, 0
	pcaddu18i	$ra, %call36(_ZNSo5flushEv)
	jirl	$ra, $ra, 0
	pcalau12i	$a0, %pc_hi20(.L.str.12)
	addi.d	$a1, $a0, %pc_lo12(.L.str.12)
	ori	$a2, $zero, 11
	move	$a0, $fp
	pcaddu18i	$ra, %call36(_ZSt16__ostream_insertIcSt11char_traitsIcEERSt13basic_ostreamIT_T0_ES6_PKS3_l)
	jirl	$ra, $ra, 0
	ld.d	$a0, $s0, 136
	alsl.d	$a2, $s6, $a0, 4
	ldx.d	$a1, $a0, $s2
	ld.d	$a2, $a2, 8
	move	$a0, $fp
	pcaddu18i	$ra, %call36(_ZNSo9_M_insertIeEERSoT_)
	jirl	$ra, $ra, 0
	ld.d	$a1, $a0, 0
	ld.d	$a1, $a1, -24
	add.d	$a1, $a0, $a1
	ld.d	$s7, $a1, 240
	beqz	$s7, .LBB0_79
# %bb.52:                               # %_ZSt13__check_facetISt5ctypeIcEERKT_PS3_.exit.i.i337
                                        #   in Loop: Header=BB0_15 Depth=1
	ld.bu	$a1, $s7, 56
	beqz	$a1, .LBB0_54
# %bb.53:                               # %if.then.i2.i.i340
                                        #   in Loop: Header=BB0_15 Depth=1
	ld.bu	$a1, $s7, 67
	b	.LBB0_55
	.p2align	4, , 16
.LBB0_54:                               # %if.end.i.i.i345
                                        #   in Loop: Header=BB0_15 Depth=1
	move	$s3, $a0
	move	$a0, $s7
	pcaddu18i	$ra, %call36(_ZNKSt5ctypeIcE13_M_widen_initEv)
	jirl	$ra, $ra, 0
	ld.d	$a0, $s7, 0
	ld.d	$a2, $a0, 48
	ori	$a1, $zero, 10
	move	$a0, $s7
	jirl	$ra, $a2, 0
	move	$a1, $a0
	move	$a0, $s3
.LBB0_55:                               # %_ZSt4endlIcSt11char_traitsIcEERSt13basic_ostreamIT_T0_ES6_.exit350
                                        #   in Loop: Header=BB0_15 Depth=1
	ext.w.b	$a1, $a1
	pcaddu18i	$ra, %call36(_ZNSo3putEc)
	jirl	$ra, $ra, 0
	pcaddu18i	$ra, %call36(_ZNSo5flushEv)
	jirl	$ra, $ra, 0
	pcalau12i	$a0, %pc_hi20(.L.str.13)
	addi.d	$a1, $a0, %pc_lo12(.L.str.13)
	ori	$a2, $zero, 17
	move	$a0, $fp
	pcaddu18i	$ra, %call36(_ZSt16__ostream_insertIcSt11char_traitsIcEERSt13basic_ostreamIT_T0_ES6_PKS3_l)
	jirl	$ra, $ra, 0
	ld.d	$a0, $s0, 160
	alsl.d	$a2, $s6, $a0, 4
	ldx.d	$a1, $a0, $s2
	ld.d	$a2, $a2, 8
	move	$a0, $fp
	pcaddu18i	$ra, %call36(_ZNSo9_M_insertIeEERSoT_)
	jirl	$ra, $ra, 0
	ld.d	$a1, $a0, 0
	ld.d	$a1, $a1, -24
	add.d	$a1, $a0, $a1
	ld.d	$s7, $a1, 240
	beqz	$s7, .LBB0_79
# %bb.56:                               # %_ZSt13__check_facetISt5ctypeIcEERKT_PS3_.exit.i.i357
                                        #   in Loop: Header=BB0_15 Depth=1
	ld.bu	$a1, $s7, 56
	beqz	$a1, .LBB0_58
# %bb.57:                               # %if.then.i2.i.i360
                                        #   in Loop: Header=BB0_15 Depth=1
	ld.bu	$a1, $s7, 67
	b	.LBB0_59
	.p2align	4, , 16
.LBB0_58:                               # %if.end.i.i.i365
                                        #   in Loop: Header=BB0_15 Depth=1
	move	$s3, $a0
	move	$a0, $s7
	pcaddu18i	$ra, %call36(_ZNKSt5ctypeIcE13_M_widen_initEv)
	jirl	$ra, $ra, 0
	ld.d	$a0, $s7, 0
	ld.d	$a2, $a0, 48
	ori	$a1, $zero, 10
	move	$a0, $s7
	jirl	$ra, $a2, 0
	move	$a1, $a0
	move	$a0, $s3
.LBB0_59:                               # %_ZSt4endlIcSt11char_traitsIcEERSt13basic_ostreamIT_T0_ES6_.exit370
                                        #   in Loop: Header=BB0_15 Depth=1
	ext.w.b	$a1, $a1
	pcaddu18i	$ra, %call36(_ZNSo3putEc)
	jirl	$ra, $ra, 0
	pcaddu18i	$ra, %call36(_ZNSo5flushEv)
	jirl	$ra, $ra, 0
	pcalau12i	$a0, %pc_hi20(.L.str.14)
	addi.d	$a1, $a0, %pc_lo12(.L.str.14)
	ori	$a2, $zero, 19
	move	$a0, $fp
	pcaddu18i	$ra, %call36(_ZSt16__ostream_insertIcSt11char_traitsIcEERSt13basic_ostreamIT_T0_ES6_PKS3_l)
	jirl	$ra, $ra, 0
	ld.d	$a0, $s0, 184
	alsl.d	$a2, $s6, $a0, 4
	ldx.d	$a1, $a0, $s2
	ld.d	$a2, $a2, 8
	move	$a0, $fp
	pcaddu18i	$ra, %call36(_ZNSo9_M_insertIeEERSoT_)
	jirl	$ra, $ra, 0
	ld.d	$a1, $a0, 0
	ld.d	$a1, $a1, -24
	add.d	$a1, $a0, $a1
	ld.d	$s6, $a1, 240
	beqz	$s6, .LBB0_79
# %bb.60:                               # %_ZSt13__check_facetISt5ctypeIcEERKT_PS3_.exit.i.i377
                                        #   in Loop: Header=BB0_15 Depth=1
	ld.bu	$a1, $s6, 56
	beqz	$a1, .LBB0_62
# %bb.61:                               # %if.then.i2.i.i380
                                        #   in Loop: Header=BB0_15 Depth=1
	ld.bu	$a1, $s6, 67
	b	.LBB0_63
	.p2align	4, , 16
.LBB0_62:                               # %if.end.i.i.i385
                                        #   in Loop: Header=BB0_15 Depth=1
	move	$s2, $a0
	move	$a0, $s6
	pcaddu18i	$ra, %call36(_ZNKSt5ctypeIcE13_M_widen_initEv)
	jirl	$ra, $ra, 0
	ld.d	$a0, $s6, 0
	ld.d	$a2, $a0, 48
	ori	$a1, $zero, 10
	move	$a0, $s6
	jirl	$ra, $a2, 0
	move	$a1, $a0
	move	$a0, $s2
.LBB0_63:                               # %_ZSt4endlIcSt11char_traitsIcEERSt13basic_ostreamIT_T0_ES6_.exit390
                                        #   in Loop: Header=BB0_15 Depth=1
	ext.w.b	$a1, $a1
	pcaddu18i	$ra, %call36(_ZNSo3putEc)
	jirl	$ra, $ra, 0
	pcaddu18i	$ra, %call36(_ZNSo5flushEv)
	jirl	$ra, $ra, 0
	ld.d	$a0, $fp, 0
	ld.d	$a0, $a0, -24
	add.d	$a0, $fp, $a0
	ld.d	$s6, $a0, 240
	beqz	$s6, .LBB0_79
# %bb.64:                               # %_ZSt13__check_facetISt5ctypeIcEERKT_PS3_.exit.i.i397
                                        #   in Loop: Header=BB0_15 Depth=1
	ld.bu	$a0, $s6, 56
	beqz	$a0, .LBB0_66
# %bb.65:                               # %if.then.i2.i.i400
                                        #   in Loop: Header=BB0_15 Depth=1
	ld.bu	$a0, $s6, 67
	b	.LBB0_67
	.p2align	4, , 16
.LBB0_66:                               # %if.end.i.i.i405
                                        #   in Loop: Header=BB0_15 Depth=1
	move	$a0, $s6
	pcaddu18i	$ra, %call36(_ZNKSt5ctypeIcE13_M_widen_initEv)
	jirl	$ra, $ra, 0
	ld.d	$a0, $s6, 0
	ld.d	$a2, $a0, 48
	ori	$a1, $zero, 10
	move	$a0, $s6
	jirl	$ra, $a2, 0
.LBB0_67:                               # %_ZSt4endlIcSt11char_traitsIcEERSt13basic_ostreamIT_T0_ES6_.exit410
                                        #   in Loop: Header=BB0_15 Depth=1
	ext.w.b	$a1, $a0
	move	$a0, $fp
	pcaddu18i	$ra, %call36(_ZNSo3putEc)
	jirl	$ra, $ra, 0
	pcaddu18i	$ra, %call36(_ZNSo5flushEv)
	jirl	$ra, $ra, 0
	ld.d	$a0, $s0, 16
	add.d	$a1, $a0, $s8
	ld.d	$a1, $a1, 8
	ldx.d	$a0, $a0, $s8
	beq	$a1, $a0, .LBB0_14
# %bb.68:                               # %for.body92.preheader
                                        #   in Loop: Header=BB0_15 Depth=1
	move	$s3, $zero
	ori	$s2, $zero, 1
	b	.LBB0_71
	.p2align	4, , 16
.LBB0_69:                               # %if.end.i.i.i445
                                        #   in Loop: Header=BB0_71 Depth=2
	move	$s3, $a0
	move	$a0, $s6
	pcaddu18i	$ra, %call36(_ZNKSt5ctypeIcE13_M_widen_initEv)
	jirl	$ra, $ra, 0
	ld.d	$a0, $s6, 0
	ld.d	$a2, $a0, 48
	ori	$a1, $zero, 10
	move	$a0, $s6
	jirl	$ra, $a2, 0
	move	$a1, $a0
	move	$a0, $s3
.LBB0_70:                               # %_ZSt4endlIcSt11char_traitsIcEERSt13basic_ostreamIT_T0_ES6_.exit450
                                        #   in Loop: Header=BB0_71 Depth=2
	ext.w.b	$a1, $a1
	pcaddu18i	$ra, %call36(_ZNSo3putEc)
	jirl	$ra, $ra, 0
	pcaddu18i	$ra, %call36(_ZNSo5flushEv)
	jirl	$ra, $ra, 0
	ld.d	$a0, $s0, 16
	add.d	$a1, $a0, $s8
	ld.d	$a1, $a1, 8
	ldx.d	$a0, $a0, $s8
	bstrpick.d	$s3, $s2, 31, 0
	sub.d	$a0, $a1, $a0
	srai.d	$a0, $a0, 4
	addi.w	$s2, $s2, 1
	bgeu	$s3, $a0, .LBB0_14
.LBB0_71:                               # %for.body92
                                        #   Parent Loop BB0_15 Depth=1
                                        # =>  This Inner Loop Header: Depth=2
	pcalau12i	$a0, %pc_hi20(.L.str.8)
	addi.d	$a1, $a0, %pc_lo12(.L.str.8)
	ori	$a2, $zero, 19
	move	$a0, $fp
	pcaddu18i	$ra, %call36(_ZSt16__ostream_insertIcSt11char_traitsIcEERSt13basic_ostreamIT_T0_ES6_PKS3_l)
	jirl	$ra, $ra, 0
	ld.d	$a0, $s0, 16
	ldx.d	$a0, $a0, $s8
	alsl.d	$a2, $s3, $a0, 4
	slli.d	$a1, $s3, 4
	ldx.d	$a1, $a0, $a1
	ld.d	$a2, $a2, 8
	move	$a0, $fp
	pcaddu18i	$ra, %call36(_ZNSo9_M_insertIeEERSoT_)
	jirl	$ra, $ra, 0
	ld.d	$a1, $a0, 0
	ld.d	$a1, $a1, -24
	add.d	$a1, $a0, $a1
	ld.d	$s6, $a1, 240
	beqz	$s6, .LBB0_79
# %bb.72:                               # %_ZSt13__check_facetISt5ctypeIcEERKT_PS3_.exit.i.i437
                                        #   in Loop: Header=BB0_71 Depth=2
	ld.bu	$a1, $s6, 56
	beqz	$a1, .LBB0_69
# %bb.73:                               # %if.then.i2.i.i440
                                        #   in Loop: Header=BB0_71 Depth=2
	ld.bu	$a1, $s6, 67
	b	.LBB0_70
.LBB0_74:                               # %for.cond.cleanup
	ld.d	$a0, $fp, 0
	ld.d	$a0, $a0, -24
	add.d	$a0, $fp, $a0
	ld.d	$s0, $a0, 240
	beqz	$s0, .LBB0_79
# %bb.75:                               # %_ZSt13__check_facetISt5ctypeIcEERKT_PS3_.exit.i.i177
	ld.bu	$a0, $s0, 56
	beqz	$a0, .LBB0_77
# %bb.76:                               # %if.then.i2.i.i180
	ld.bu	$a0, $s0, 67
	b	.LBB0_78
.LBB0_77:                               # %if.end.i.i.i185
	move	$a0, $s0
	pcaddu18i	$ra, %call36(_ZNKSt5ctypeIcE13_M_widen_initEv)
	jirl	$ra, $ra, 0
	ld.d	$a0, $s0, 0
	ld.d	$a2, $a0, 48
	ori	$a1, $zero, 10
	move	$a0, $s0
	jirl	$ra, $a2, 0
.LBB0_78:                               # %_ZSt4endlIcSt11char_traitsIcEERSt13basic_ostreamIT_T0_ES6_.exit190
	ext.w.b	$a1, $a0
	move	$a0, $fp
	pcaddu18i	$ra, %call36(_ZNSo3putEc)
	jirl	$ra, $ra, 0
	ld.d	$s8, $sp, 72                    # 8-byte Folded Reload
	ld.d	$s7, $sp, 80                    # 8-byte Folded Reload
	ld.d	$s6, $sp, 88                    # 8-byte Folded Reload
	ld.d	$s5, $sp, 96                    # 8-byte Folded Reload
	ld.d	$s4, $sp, 104                   # 8-byte Folded Reload
	ld.d	$s3, $sp, 112                   # 8-byte Folded Reload
	ld.d	$s2, $sp, 120                   # 8-byte Folded Reload
	ld.d	$s1, $sp, 128                   # 8-byte Folded Reload
	ld.d	$s0, $sp, 136                   # 8-byte Folded Reload
	ld.d	$fp, $sp, 144                   # 8-byte Folded Reload
	ld.d	$ra, $sp, 152                   # 8-byte Folded Reload
	addi.d	$sp, $sp, 160
	pcaddu18i	$t8, %call36(_ZNSo5flushEv)
	jr	$t8
.LBB0_79:                               # %if.then.i.i.i
	pcaddu18i	$ra, %call36(_ZSt16__throw_bad_castv)
	jirl	$ra, $ra, 0
.Lfunc_end0:
	.size	_ZNK8LoopStat5printERSo, .Lfunc_end0-_ZNK8LoopStat5printERSo
	.cfi_endproc
                                        # -- End function
	.globl	_Z19getLoopSuiteRunInfov        # -- Begin function _Z19getLoopSuiteRunInfov
	.p2align	5
	.type	_Z19getLoopSuiteRunInfov,@function
_Z19getLoopSuiteRunInfov:               # @_Z19getLoopSuiteRunInfov
# %bb.0:                                # %entry
	pcalau12i	$a0, %pc_hi20(_ZL21s_loop_suite_run_info)
	ld.d	$a0, $a0, %pc_lo12(_ZL21s_loop_suite_run_info)
	ret
.Lfunc_end1:
	.size	_Z19getLoopSuiteRunInfov, .Lfunc_end1-_Z19getLoopSuiteRunInfov
                                        # -- End function
	.section	.rodata.cst8,"aM",@progbits,8
	.p2align	3, 0x0                          # -- Begin function _Z24allocateLoopSuiteRunInfoRKNSt7__cxx1112basic_stringIcSt11char_traitsIcESaIcEEEjjjPbm
.LCPI2_0:
	.dword	0x3fb999999999999a              # double 0.10000000000000001
	.text
	.globl	_Z24allocateLoopSuiteRunInfoRKNSt7__cxx1112basic_stringIcSt11char_traitsIcESaIcEEEjjjPbm
	.p2align	5
	.type	_Z24allocateLoopSuiteRunInfoRKNSt7__cxx1112basic_stringIcSt11char_traitsIcESaIcEEEjjjPbm,@function
_Z24allocateLoopSuiteRunInfoRKNSt7__cxx1112basic_stringIcSt11char_traitsIcESaIcEEEjjjPbm: # @_Z24allocateLoopSuiteRunInfoRKNSt7__cxx1112basic_stringIcSt11char_traitsIcESaIcEEEjjjPbm
	.cfi_startproc
# %bb.0:                                # %entry
	addi.d	$sp, $sp, -96
	.cfi_def_cfa_offset 96
	st.d	$ra, $sp, 88                    # 8-byte Folded Spill
	st.d	$fp, $sp, 80                    # 8-byte Folded Spill
	st.d	$s0, $sp, 72                    # 8-byte Folded Spill
	st.d	$s1, $sp, 64                    # 8-byte Folded Spill
	st.d	$s2, $sp, 56                    # 8-byte Folded Spill
	st.d	$s3, $sp, 48                    # 8-byte Folded Spill
	st.d	$s4, $sp, 40                    # 8-byte Folded Spill
	st.d	$s5, $sp, 32                    # 8-byte Folded Spill
	st.d	$s6, $sp, 24                    # 8-byte Folded Spill
	st.d	$s7, $sp, 16                    # 8-byte Folded Spill
	fst.d	$fs0, $sp, 8                    # 8-byte Folded Spill
	.cfi_offset 1, -8
	.cfi_offset 22, -16
	.cfi_offset 23, -24
	.cfi_offset 24, -32
	.cfi_offset 25, -40
	.cfi_offset 26, -48
	.cfi_offset 27, -56
	.cfi_offset 28, -64
	.cfi_offset 29, -72
	.cfi_offset 30, -80
	.cfi_offset 56, -88
	pcalau12i	$s6, %pc_hi20(_ZL21s_loop_suite_run_info)
	ld.d	$s5, $s6, %pc_lo12(_ZL21s_loop_suite_run_info)
	move	$fp, $a5
	move	$s0, $a4
	move	$s2, $a3
	move	$s1, $a2
	move	$s3, $a1
	move	$s4, $a0
	bnez	$s5, .LBB2_2
# %bb.1:                                # %invoke.cont
	ori	$a0, $zero, 640
	pcaddu18i	$ra, %call36(_Znwm)
	jirl	$ra, $ra, 0
	move	$s5, $a0
	addi.d	$a0, $a0, 16
	st.d	$a0, $s5, 0
	st.d	$zero, $s5, 8
	st.b	$zero, $s5, 16
	st.w	$zero, $s5, 32
	st.d	$zero, $s5, 72
	st.w	$zero, $s5, 80
	st.d	$zero, $s5, 88
	st.w	$zero, $s5, 96
	st.d	$zero, $s5, 144
	st.b	$zero, $s5, 152
	addi.d	$a0, $s5, 160
	vrepli.b	$vr0, 0
	vst	$vr0, $s5, 576
	addi.d	$s7, $s5, 600
	st.w	$zero, $s5, 600
	st.d	$zero, $s5, 608
	st.d	$zero, $s5, 40
	vst	$vr0, $s5, 48
	st.w	$zero, $s5, 64
	vst	$vr0, $s5, 104
	vst	$vr0, $s5, 120
	st.w	$zero, $s5, 136
	ori	$a2, $zero, 408
	move	$a1, $zero
	pcaddu18i	$ra, %call36(memset)
	jirl	$ra, $ra, 0
	st.d	$s7, $s5, 616
	st.d	$s7, $s5, 624
	st.d	$zero, $s5, 632
	st.d	$s5, $s6, %pc_lo12(_ZL21s_loop_suite_run_info)
.LBB2_2:                                # %if.end
	move	$a0, $s5
	move	$a1, $s4
	pcaddu18i	$ra, %call36(_ZNSt7__cxx1112basic_stringIcSt11char_traitsIcESaIcEE9_M_assignERKS4_)
	jirl	$ra, $ra, 0
	ld.d	$s4, $s6, %pc_lo12(_ZL21s_loop_suite_run_info)
	st.w	$s3, $s4, 32
	st.w	$s1, $s4, 64
	st.w	$s2, $s4, 136
	beqz	$s1, .LBB2_12
# %bb.3:                                # %for.body.preheader
	bstrpick.d	$s1, $s1, 31, 0
	ori	$s2, $zero, 63
	ori	$s3, $zero, 1
	b	.LBB2_6
	.p2align	4, , 16
.LBB2_4:                                # %if.else.i
                                        #   in Loop: Header=BB2_6 Depth=1
	ld.wu	$a2, $s4, 96
	addi.d	$a0, $s4, 72
	pcaddu18i	$ra, %call36(_ZNSt6vectorIbSaIbEE13_M_insert_auxESt13_Bit_iteratorb)
	jirl	$ra, $ra, 0
	ld.d	$s4, $s6, %pc_lo12(_ZL21s_loop_suite_run_info)
.LBB2_5:                                # %_ZNSt6vectorIbSaIbEE9push_backEb.exit
                                        #   in Loop: Header=BB2_6 Depth=1
	addi.d	$s1, $s1, -1
	addi.d	$s0, $s0, 1
	beqz	$s1, .LBB2_12
.LBB2_6:                                # %for.body
                                        # =>This Inner Loop Header: Depth=1
	ld.d	$a1, $s4, 88
	ld.d	$a0, $s4, 104
	ld.bu	$a3, $s0, 0
	beq	$a1, $a0, .LBB2_4
# %bb.7:                                # %if.then.i
                                        #   in Loop: Header=BB2_6 Depth=1
	ld.d	$a0, $s4, 96
	addi.w	$a2, $a0, 0
	addi.d	$a4, $a0, 1
	st.w	$a4, $s4, 96
	bne	$a2, $s2, .LBB2_9
# %bb.8:                                # %if.then.i.i.i
                                        #   in Loop: Header=BB2_6 Depth=1
	st.w	$zero, $s4, 96
	addi.d	$a2, $a1, 8
	st.d	$a2, $s4, 88
.LBB2_9:                                # %_ZNSt13_Bit_iteratorppEi.exit.i
                                        #   in Loop: Header=BB2_6 Depth=1
	bstrpick.d	$a0, $a0, 31, 0
	sll.d	$a0, $s3, $a0
	beqz	$a3, .LBB2_11
# %bb.10:                               # %if.then.i.i
                                        #   in Loop: Header=BB2_6 Depth=1
	ld.d	$a2, $a1, 0
	or	$a0, $a2, $a0
	st.d	$a0, $a1, 0
	b	.LBB2_5
	.p2align	4, , 16
.LBB2_11:                               # %if.else.i.i
                                        #   in Loop: Header=BB2_6 Depth=1
	ld.d	$a2, $a1, 0
	andn	$a0, $a2, $a0
	st.d	$a0, $a1, 0
	b	.LBB2_5
.LBB2_12:                               # %for.cond.cleanup
	bstrpick.d	$a0, $fp, 62, 2
	st.d	$a0, $s4, 552
	slli.d	$a0, $fp, 1
	bstrins.d	$a0, $zero, 2, 0
	pcaddu18i	$ra, %call36(_Znam)
	jirl	$ra, $ra, 0
	ld.d	$a1, $s4, 552
	st.d	$a0, $s4, 560
	beqz	$a1, .LBB2_15
# %bb.13:                               # %for.body14.preheader
	pcalau12i	$a0, %pc_hi20(.LCPI2_0)
	fld.d	$fs0, $a0, %pc_lo12(.LCPI2_0)
	move	$fp, $zero
	move	$s0, $zero
	.p2align	4, , 16
.LBB2_14:                               # %for.body14
                                        # =>This Inner Loop Header: Depth=1
	pcaddu18i	$ra, %call36(drand48)
	jirl	$ra, $ra, 0
	ld.d	$a0, $s6, %pc_lo12(_ZL21s_loop_suite_run_info)
	ld.d	$a1, $a0, 560
	ld.d	$a0, $a0, 552
	fadd.d	$fa0, $fa0, $fs0
	fstx.d	$fa0, $a1, $fp
	addi.d	$s0, $s0, 1
	addi.d	$fp, $fp, 8
	bltu	$s0, $a0, .LBB2_14
.LBB2_15:                               # %for.cond.cleanup13
	fld.d	$fs0, $sp, 8                    # 8-byte Folded Reload
	ld.d	$s7, $sp, 16                    # 8-byte Folded Reload
	ld.d	$s6, $sp, 24                    # 8-byte Folded Reload
	ld.d	$s5, $sp, 32                    # 8-byte Folded Reload
	ld.d	$s4, $sp, 40                    # 8-byte Folded Reload
	ld.d	$s3, $sp, 48                    # 8-byte Folded Reload
	ld.d	$s2, $sp, 56                    # 8-byte Folded Reload
	ld.d	$s1, $sp, 64                    # 8-byte Folded Reload
	ld.d	$s0, $sp, 72                    # 8-byte Folded Reload
	ld.d	$fp, $sp, 80                    # 8-byte Folded Reload
	ld.d	$ra, $sp, 88                    # 8-byte Folded Reload
	addi.d	$sp, $sp, 96
	ret
.Lfunc_end2:
	.size	_Z24allocateLoopSuiteRunInfoRKNSt7__cxx1112basic_stringIcSt11char_traitsIcESaIcEEEjjjPbm, .Lfunc_end2-_Z24allocateLoopSuiteRunInfoRKNSt7__cxx1112basic_stringIcSt11char_traitsIcESaIcEEEjjjPbm
	.cfi_endproc
                                        # -- End function
	.globl	_Z20freeLoopSuiteRunInfov       # -- Begin function _Z20freeLoopSuiteRunInfov
	.p2align	5
	.type	_Z20freeLoopSuiteRunInfov,@function
_Z20freeLoopSuiteRunInfov:              # @_Z20freeLoopSuiteRunInfov
# %bb.0:                                # %entry
	addi.d	$sp, $sp, -32
	st.d	$ra, $sp, 24                    # 8-byte Folded Spill
	st.d	$fp, $sp, 16                    # 8-byte Folded Spill
	st.d	$s0, $sp, 8                     # 8-byte Folded Spill
	pcalau12i	$s0, %pc_hi20(_ZL21s_loop_suite_run_info)
	ld.d	$fp, $s0, %pc_lo12(_ZL21s_loop_suite_run_info)
	beqz	$fp, .LBB3_5
# %bb.1:                                # %if.then
	ld.d	$a0, $fp, 560
	beqz	$a0, .LBB3_3
# %bb.2:                                # %if.end
	pcaddu18i	$ra, %call36(_ZdaPv)
	jirl	$ra, $ra, 0
	ld.d	$fp, $s0, %pc_lo12(_ZL21s_loop_suite_run_info)
	beqz	$fp, .LBB3_4
.LBB3_3:                                # %delete.notnull5
	move	$a0, $fp
	pcaddu18i	$ra, %call36(_ZN16LoopSuiteRunInfoD2Ev)
	jirl	$ra, $ra, 0
	move	$a0, $fp
	pcaddu18i	$ra, %call36(_ZdlPv)
	jirl	$ra, $ra, 0
.LBB3_4:                                # %delete.end6
	st.d	$zero, $s0, %pc_lo12(_ZL21s_loop_suite_run_info)
.LBB3_5:                                # %if.end7
	ld.d	$s0, $sp, 8                     # 8-byte Folded Reload
	ld.d	$fp, $sp, 16                    # 8-byte Folded Reload
	ld.d	$ra, $sp, 24                    # 8-byte Folded Reload
	addi.d	$sp, $sp, 32
	ret
.Lfunc_end3:
	.size	_Z20freeLoopSuiteRunInfov, .Lfunc_end3-_Z20freeLoopSuiteRunInfov
                                        # -- End function
	.section	.text._ZN16LoopSuiteRunInfoD2Ev,"axG",@progbits,_ZN16LoopSuiteRunInfoD2Ev,comdat
	.weak	_ZN16LoopSuiteRunInfoD2Ev       # -- Begin function _ZN16LoopSuiteRunInfoD2Ev
	.p2align	5
	.type	_ZN16LoopSuiteRunInfoD2Ev,@function
_ZN16LoopSuiteRunInfoD2Ev:              # @_ZN16LoopSuiteRunInfoD2Ev
.Lfunc_begin0:
	.cfi_startproc
	.cfi_personality 155, DW.ref.__gxx_personality_v0
	.cfi_lsda 27, .Lexception0
# %bb.0:                                # %entry
	addi.d	$sp, $sp, -80
	.cfi_def_cfa_offset 80
	st.d	$ra, $sp, 72                    # 8-byte Folded Spill
	st.d	$fp, $sp, 64                    # 8-byte Folded Spill
	st.d	$s0, $sp, 56                    # 8-byte Folded Spill
	st.d	$s1, $sp, 48                    # 8-byte Folded Spill
	st.d	$s2, $sp, 40                    # 8-byte Folded Spill
	st.d	$s3, $sp, 32                    # 8-byte Folded Spill
	st.d	$s4, $sp, 24                    # 8-byte Folded Spill
	st.d	$s5, $sp, 16                    # 8-byte Folded Spill
	.cfi_offset 1, -8
	.cfi_offset 22, -16
	.cfi_offset 23, -24
	.cfi_offset 24, -32
	.cfi_offset 25, -40
	.cfi_offset 26, -48
	.cfi_offset 27, -56
	.cfi_offset 28, -64
	move	$fp, $a0
	ld.d	$a0, $a0, 616
	addi.d	$s3, $fp, 600
	addi.d	$s0, $fp, 592
	bne	$a0, $s3, .LBB4_46
.LBB4_1:                                # %for.end
	ld.d	$a1, $fp, 608
.Ltmp0:                                 # EH_LABEL
	move	$a0, $s0
	pcaddu18i	$ra, %call36(_ZNSt8_Rb_treeINSt7__cxx1112basic_stringIcSt11char_traitsIcESaIcEEESt4pairIKS5_PSt6vectorI8LoopStatSaIS9_EEESt10_Select1stISD_ESt4lessIS5_ESaISD_EE8_M_eraseEPSt13_Rb_tree_nodeISD_E)
	jirl	$ra, $ra, 0
.Ltmp1:                                 # EH_LABEL
# %bb.2:                                # %_ZNSt3mapINSt7__cxx1112basic_stringIcSt11char_traitsIcESaIcEEEPSt6vectorI8LoopStatSaIS7_EESt4lessIS5_ESaISt4pairIKS5_SA_EEED2Ev.exit
	ld.d	$s0, $fp, 528
	ld.d	$s1, $fp, 536
	bne	$s0, $s1, .LBB4_27
# %bb.3:                                # %invoke.cont.i10
	beqz	$s0, .LBB4_5
.LBB4_4:                                # %if.then.i.i.i12
	move	$a0, $s0
	pcaddu18i	$ra, %call36(_ZdlPv)
	jirl	$ra, $ra, 0
.LBB4_5:                                # %_ZNSt6vectorIS_IeSaIeEESaIS1_EED2Ev.exit
	ld.d	$s0, $fp, 504
	ld.d	$s1, $fp, 512
	bne	$s0, $s1, .LBB4_30
# %bb.6:                                # %invoke.cont.i24
	beqz	$s0, .LBB4_8
.LBB4_7:                                # %if.then.i.i.i26
	move	$a0, $s0
	pcaddu18i	$ra, %call36(_ZdlPv)
	jirl	$ra, $ra, 0
.LBB4_8:                                # %_ZNSt6vectorIS_IeSaIeEESaIS1_EED2Ev.exit27
	ld.d	$s0, $fp, 480
	ld.d	$s1, $fp, 488
	bne	$s0, $s1, .LBB4_33
# %bb.9:                                # %invoke.cont.i39
	beqz	$s0, .LBB4_11
.LBB4_10:                               # %if.then.i.i.i41
	move	$a0, $s0
	pcaddu18i	$ra, %call36(_ZdlPv)
	jirl	$ra, $ra, 0
.LBB4_11:                               # %_ZNSt6vectorIS_IeSaIeEESaIS1_EED2Ev.exit42
	ld.d	$s0, $fp, 456
	ld.d	$s1, $fp, 464
	bne	$s0, $s1, .LBB4_36
# %bb.12:                               # %invoke.cont.i53
	beqz	$s0, .LBB4_14
.LBB4_13:                               # %if.then.i.i.i55
	move	$a0, $s0
	pcaddu18i	$ra, %call36(_ZdlPv)
	jirl	$ra, $ra, 0
.LBB4_14:                               # %_ZNSt6vectorIS_IiSaIiEESaIS1_EED2Ev.exit
	ld.d	$a0, $fp, 432
	beqz	$a0, .LBB4_16
# %bb.15:                               # %if.then.i.i.i58
	pcaddu18i	$ra, %call36(_ZdlPv)
	jirl	$ra, $ra, 0
.LBB4_16:                               # %_ZNSt6vectorIdSaIdEED2Ev.exit
	addi.d	$a0, $fp, 152
	pcaddu18i	$ra, %call36(_ZN8LoopStatD2Ev)
	jirl	$ra, $ra, 0
	ld.d	$a0, $fp, 112
	ld.d	$s0, $fp, 120
	bne	$a0, $s0, .LBB4_39
# %bb.17:                               # %invoke.cont.i67
	beqz	$a0, .LBB4_19
.LBB4_18:                               # %if.then.i.i.i69
	pcaddu18i	$ra, %call36(_ZdlPv)
	jirl	$ra, $ra, 0
.LBB4_19:                               # %_ZNSt6vectorINSt7__cxx1112basic_stringIcSt11char_traitsIcESaIcEEESaIS5_EED2Ev.exit
	ld.d	$a0, $fp, 72
	beqz	$a0, .LBB4_21
# %bb.20:                               # %if.then.i.i
	pcaddu18i	$ra, %call36(_ZdlPv)
	jirl	$ra, $ra, 0
	st.d	$zero, $fp, 72
	st.w	$zero, $fp, 80
	st.d	$zero, $fp, 88
	st.w	$zero, $fp, 96
	st.d	$zero, $fp, 104
.LBB4_21:                               # %_ZNSt13_Bvector_baseISaIbEED2Ev.exit
	ld.d	$a0, $fp, 40
	ld.d	$s0, $fp, 48
	bne	$a0, $s0, .LBB4_42
# %bb.22:                               # %invoke.cont.i82
	beqz	$a0, .LBB4_24
.LBB4_23:                               # %if.then.i.i.i84
	pcaddu18i	$ra, %call36(_ZdlPv)
	jirl	$ra, $ra, 0
.LBB4_24:                               # %_ZNSt6vectorINSt7__cxx1112basic_stringIcSt11char_traitsIcESaIcEEESaIS5_EED2Ev.exit88
	ld.d	$a0, $fp, 0
	addi.d	$a1, $fp, 16
	beq	$a0, $a1, .LBB4_58
# %bb.25:                               # %if.then.i.i89
	ld.d	$s5, $sp, 16                    # 8-byte Folded Reload
	ld.d	$s4, $sp, 24                    # 8-byte Folded Reload
	ld.d	$s3, $sp, 32                    # 8-byte Folded Reload
	ld.d	$s2, $sp, 40                    # 8-byte Folded Reload
	ld.d	$s1, $sp, 48                    # 8-byte Folded Reload
	ld.d	$s0, $sp, 56                    # 8-byte Folded Reload
	ld.d	$fp, $sp, 64                    # 8-byte Folded Reload
	ld.d	$ra, $sp, 72                    # 8-byte Folded Reload
	addi.d	$sp, $sp, 80
	pcaddu18i	$t8, %call36(_ZdlPv)
	jr	$t8
	.p2align	4, , 16
.LBB4_26:                               # %_ZSt8_DestroyISt6vectorIeSaIeEEEvPT_.exit.i.i
                                        #   in Loop: Header=BB4_27 Depth=1
	addi.d	$s0, $s0, 24
	beq	$s0, $s1, .LBB4_52
.LBB4_27:                               # %for.body.i.i4
                                        # =>This Inner Loop Header: Depth=1
	ld.d	$a0, $s0, 0
	beqz	$a0, .LBB4_26
# %bb.28:                               # %if.then.i.i.i.i.i.i
                                        #   in Loop: Header=BB4_27 Depth=1
	pcaddu18i	$ra, %call36(_ZdlPv)
	jirl	$ra, $ra, 0
	b	.LBB4_26
	.p2align	4, , 16
.LBB4_29:                               # %_ZSt8_DestroyISt6vectorIeSaIeEEEvPT_.exit.i.i19
                                        #   in Loop: Header=BB4_30 Depth=1
	addi.d	$s0, $s0, 24
	beq	$s0, $s1, .LBB4_53
.LBB4_30:                               # %for.body.i.i15
                                        # =>This Inner Loop Header: Depth=1
	ld.d	$a0, $s0, 0
	beqz	$a0, .LBB4_29
# %bb.31:                               # %if.then.i.i.i.i.i.i18
                                        #   in Loop: Header=BB4_30 Depth=1
	pcaddu18i	$ra, %call36(_ZdlPv)
	jirl	$ra, $ra, 0
	b	.LBB4_29
	.p2align	4, , 16
.LBB4_32:                               # %_ZSt8_DestroyISt6vectorIeSaIeEEEvPT_.exit.i.i34
                                        #   in Loop: Header=BB4_33 Depth=1
	addi.d	$s0, $s0, 24
	beq	$s0, $s1, .LBB4_54
.LBB4_33:                               # %for.body.i.i30
                                        # =>This Inner Loop Header: Depth=1
	ld.d	$a0, $s0, 0
	beqz	$a0, .LBB4_32
# %bb.34:                               # %if.then.i.i.i.i.i.i33
                                        #   in Loop: Header=BB4_33 Depth=1
	pcaddu18i	$ra, %call36(_ZdlPv)
	jirl	$ra, $ra, 0
	b	.LBB4_32
	.p2align	4, , 16
.LBB4_35:                               # %_ZSt8_DestroyISt6vectorIiSaIiEEEvPT_.exit.i.i
                                        #   in Loop: Header=BB4_36 Depth=1
	addi.d	$s0, $s0, 24
	beq	$s0, $s1, .LBB4_55
.LBB4_36:                               # %for.body.i.i45
                                        # =>This Inner Loop Header: Depth=1
	ld.d	$a0, $s0, 0
	beqz	$a0, .LBB4_35
# %bb.37:                               # %if.then.i.i.i.i.i.i48
                                        #   in Loop: Header=BB4_36 Depth=1
	pcaddu18i	$ra, %call36(_ZdlPv)
	jirl	$ra, $ra, 0
	b	.LBB4_35
	.p2align	4, , 16
.LBB4_38:                               # %_ZSt8_DestroyINSt7__cxx1112basic_stringIcSt11char_traitsIcESaIcEEEEvPT_.exit.i.i
                                        #   in Loop: Header=BB4_39 Depth=1
	addi.d	$a0, $s1, 16
	beq	$a0, $s0, .LBB4_56
.LBB4_39:                               # %for.body.i.i61
                                        # =>This Inner Loop Header: Depth=1
	ld.d	$a1, $a0, 0
	addi.d	$s1, $a0, 16
	beq	$a1, $s1, .LBB4_38
# %bb.40:                               # %if.then.i.i.i.i.i
                                        #   in Loop: Header=BB4_39 Depth=1
	move	$a0, $a1
	pcaddu18i	$ra, %call36(_ZdlPv)
	jirl	$ra, $ra, 0
	b	.LBB4_38
	.p2align	4, , 16
.LBB4_41:                               # %_ZSt8_DestroyINSt7__cxx1112basic_stringIcSt11char_traitsIcESaIcEEEEvPT_.exit.i.i77
                                        #   in Loop: Header=BB4_42 Depth=1
	addi.d	$a0, $s1, 16
	beq	$a0, $s0, .LBB4_57
.LBB4_42:                               # %for.body.i.i73
                                        # =>This Inner Loop Header: Depth=1
	ld.d	$a1, $a0, 0
	addi.d	$s1, $a0, 16
	beq	$a1, $s1, .LBB4_41
# %bb.43:                               # %if.then.i.i.i.i.i76
                                        #   in Loop: Header=BB4_42 Depth=1
	move	$a0, $a1
	pcaddu18i	$ra, %call36(_ZdlPv)
	jirl	$ra, $ra, 0
	b	.LBB4_41
	.p2align	4, , 16
.LBB4_44:                               # %_ZNSt6vectorI8LoopStatSaIS0_EED2Ev.exit
                                        #   in Loop: Header=BB4_46 Depth=1
	move	$a0, $s1
	pcaddu18i	$ra, %call36(_ZdlPv)
	jirl	$ra, $ra, 0
	move	$a0, $s4
.LBB4_45:                               # %for.inc
                                        #   in Loop: Header=BB4_46 Depth=1
	pcaddu18i	$ra, %call36(_ZSt18_Rb_tree_incrementPSt18_Rb_tree_node_base)
	jirl	$ra, $ra, 0
	beq	$a0, $s3, .LBB4_1
.LBB4_46:                               # %for.body
                                        # =>This Loop Header: Depth=1
                                        #     Child Loop BB4_48 Depth 2
	ld.d	$s1, $a0, 64
	beqz	$s1, .LBB4_45
# %bb.47:                               # %delete.notnull
                                        #   in Loop: Header=BB4_46 Depth=1
	move	$s4, $a0
	ld.d	$s2, $s1, 0
	ld.d	$s5, $s1, 8
	beq	$s2, $s5, .LBB4_50
	.p2align	4, , 16
.LBB4_48:                               # %for.body.i.i
                                        #   Parent Loop BB4_46 Depth=1
                                        # =>  This Inner Loop Header: Depth=2
	move	$a0, $s2
	pcaddu18i	$ra, %call36(_ZN8LoopStatD2Ev)
	jirl	$ra, $ra, 0
	addi.d	$s2, $s2, 280
	bne	$s2, $s5, .LBB4_48
# %bb.49:                               # %invoke.contthread-pre-split.i
                                        #   in Loop: Header=BB4_46 Depth=1
	ld.d	$s2, $s1, 0
.LBB4_50:                               # %invoke.cont.i
                                        #   in Loop: Header=BB4_46 Depth=1
	beqz	$s2, .LBB4_44
# %bb.51:                               # %if.then.i.i.i
                                        #   in Loop: Header=BB4_46 Depth=1
	move	$a0, $s2
	pcaddu18i	$ra, %call36(_ZdlPv)
	jirl	$ra, $ra, 0
	b	.LBB4_44
.LBB4_52:                               # %invoke.contthread-pre-split.i8
	ld.d	$s0, $fp, 528
	bnez	$s0, .LBB4_4
	b	.LBB4_5
.LBB4_53:                               # %invoke.contthread-pre-split.i22
	ld.d	$s0, $fp, 504
	bnez	$s0, .LBB4_7
	b	.LBB4_8
.LBB4_54:                               # %invoke.contthread-pre-split.i37
	ld.d	$s0, $fp, 480
	bnez	$s0, .LBB4_10
	b	.LBB4_11
.LBB4_55:                               # %invoke.contthread-pre-split.i51
	ld.d	$s0, $fp, 456
	bnez	$s0, .LBB4_13
	b	.LBB4_14
.LBB4_56:                               # %invoke.contthread-pre-split.i65
	ld.d	$a0, $fp, 112
	bnez	$a0, .LBB4_18
	b	.LBB4_19
.LBB4_57:                               # %invoke.contthread-pre-split.i80
	ld.d	$a0, $fp, 40
	bnez	$a0, .LBB4_23
	b	.LBB4_24
.LBB4_58:                               # %_ZNSt7__cxx1112basic_stringIcSt11char_traitsIcESaIcEED2Ev.exit
	ld.d	$s5, $sp, 16                    # 8-byte Folded Reload
	ld.d	$s4, $sp, 24                    # 8-byte Folded Reload
	ld.d	$s3, $sp, 32                    # 8-byte Folded Reload
	ld.d	$s2, $sp, 40                    # 8-byte Folded Reload
	ld.d	$s1, $sp, 48                    # 8-byte Folded Reload
	ld.d	$s0, $sp, 56                    # 8-byte Folded Reload
	ld.d	$fp, $sp, 64                    # 8-byte Folded Reload
	ld.d	$ra, $sp, 72                    # 8-byte Folded Reload
	addi.d	$sp, $sp, 80
	ret
.LBB4_59:                               # %terminate.lpad.i.i
.Ltmp2:                                 # EH_LABEL
	pcaddu18i	$ra, %call36(__clang_call_terminate)
	jirl	$ra, $ra, 0
.Lfunc_end4:
	.size	_ZN16LoopSuiteRunInfoD2Ev, .Lfunc_end4-_ZN16LoopSuiteRunInfoD2Ev
	.cfi_endproc
	.section	.gcc_except_table._ZN16LoopSuiteRunInfoD2Ev,"aG",@progbits,_ZN16LoopSuiteRunInfoD2Ev,comdat
	.p2align	2, 0x0
GCC_except_table4:
.Lexception0:
	.byte	255                             # @LPStart Encoding = omit
	.byte	155                             # @TType Encoding = indirect pcrel sdata4
	.uleb128 .Lttbase0-.Lttbaseref0
.Lttbaseref0:
	.byte	1                               # Call site Encoding = uleb128
	.uleb128 .Lcst_end0-.Lcst_begin0
.Lcst_begin0:
	.uleb128 .Ltmp0-.Lfunc_begin0           # >> Call Site 1 <<
	.uleb128 .Ltmp1-.Ltmp0                  #   Call between .Ltmp0 and .Ltmp1
	.uleb128 .Ltmp2-.Lfunc_begin0           #     jumps to .Ltmp2
	.byte	1                               #   On action: 1
	.uleb128 .Ltmp1-.Lfunc_begin0           # >> Call Site 2 <<
	.uleb128 .Lfunc_end4-.Ltmp1             #   Call between .Ltmp1 and .Lfunc_end4
	.byte	0                               #     has no landing pad
	.byte	0                               #   On action: cleanup
.Lcst_end0:
	.byte	1                               # >> Action Record 1 <<
                                        #   Catch TypeInfo 1
	.byte	0                               #   No further actions
	.p2align	2, 0x0
                                        # >> Catch TypeInfos <<
	.word	0                               # TypeInfo 1
.Lttbase0:
	.p2align	2, 0x0
                                        # -- End function
	.text
	.globl	_Z10flushCachev                 # -- Begin function _Z10flushCachev
	.p2align	5
	.type	_Z10flushCachev,@function
_Z10flushCachev:                        # @_Z10flushCachev
# %bb.0:                                # %entry
	addi.d	$sp, $sp, -64
	st.d	$ra, $sp, 56                    # 8-byte Folded Spill
	st.d	$fp, $sp, 48                    # 8-byte Folded Spill
	st.d	$s0, $sp, 40                    # 8-byte Folded Spill
	st.d	$s1, $sp, 32                    # 8-byte Folded Spill
	st.d	$s2, $sp, 24                    # 8-byte Folded Spill
	st.d	$s3, $sp, 16                    # 8-byte Folded Spill
	st.d	$s4, $sp, 8                     # 8-byte Folded Spill
	pcalau12i	$a0, %pc_hi20(_ZL21s_loop_suite_run_info)
	ld.d	$s2, $a0, %pc_lo12(_ZL21s_loop_suite_run_info)
	ld.d	$fp, $s2, 552
	beqz	$fp, .LBB5_3
# %bb.1:                                # %for.body.lr.ph
	ld.d	$s3, $s2, 560
	ld.d	$s0, $s2, 584
	ld.d	$s1, $s2, 576
	move	$s4, $fp
	.p2align	4, , 16
.LBB5_2:                                # %for.body
                                        # =>This Inner Loop Header: Depth=1
	fld.d	$fa0, $s3, 0
	pcaddu18i	$ra, %call36(__extenddftf2)
	jirl	$ra, $ra, 0
	move	$a2, $a0
	move	$a3, $a1
	move	$a0, $s1
	move	$a1, $s0
	pcaddu18i	$ra, %call36(__addtf3)
	jirl	$ra, $ra, 0
	move	$s1, $a0
	move	$s0, $a1
	addi.d	$s4, $s4, -1
	addi.d	$s3, $s3, 8
	bnez	$s4, .LBB5_2
	b	.LBB5_4
.LBB5_3:                                # %entry.for.cond.cleanup_crit_edge
	ld.d	$s0, $s2, 584
	ld.d	$s1, $s2, 576
.LBB5_4:                                # %for.cond.cleanup
	move	$a0, $fp
	pcaddu18i	$ra, %call36(__floatunditf)
	jirl	$ra, $ra, 0
	move	$a2, $a0
	move	$a3, $a1
	move	$a0, $s1
	move	$a1, $s0
	pcaddu18i	$ra, %call36(__divtf3)
	jirl	$ra, $ra, 0
	st.d	$a1, $s2, 584
	st.d	$a0, $s2, 576
	ld.d	$s4, $sp, 8                     # 8-byte Folded Reload
	ld.d	$s3, $sp, 16                    # 8-byte Folded Reload
	ld.d	$s2, $sp, 24                    # 8-byte Folded Reload
	ld.d	$s1, $sp, 32                    # 8-byte Folded Reload
	ld.d	$s0, $sp, 40                    # 8-byte Folded Reload
	ld.d	$fp, $sp, 48                    # 8-byte Folded Reload
	ld.d	$ra, $sp, 56                    # 8-byte Folded Reload
	addi.d	$sp, $sp, 64
	ret
.Lfunc_end5:
	.size	_Z10flushCachev, .Lfunc_end5-_Z10flushCachev
                                        # -- End function
	.globl	_Z9copyTimerR8LoopStatiRK9LoopTimer # -- Begin function _Z9copyTimerR8LoopStatiRK9LoopTimer
	.p2align	5
	.type	_Z9copyTimerR8LoopStatiRK9LoopTimer,@function
_Z9copyTimerR8LoopStatiRK9LoopTimer:    # @_Z9copyTimerR8LoopStatiRK9LoopTimer
	.cfi_startproc
# %bb.0:                                # %entry
	addi.d	$sp, $sp, -80
	.cfi_def_cfa_offset 80
	st.d	$ra, $sp, 72                    # 8-byte Folded Spill
	st.d	$fp, $sp, 64                    # 8-byte Folded Spill
	st.d	$s0, $sp, 56                    # 8-byte Folded Spill
	st.d	$s1, $sp, 48                    # 8-byte Folded Spill
	st.d	$s2, $sp, 40                    # 8-byte Folded Spill
	st.d	$s3, $sp, 32                    # 8-byte Folded Spill
	st.d	$s4, $sp, 24                    # 8-byte Folded Spill
	st.d	$s5, $sp, 16                    # 8-byte Folded Spill
	st.d	$s6, $sp, 8                     # 8-byte Folded Spill
	.cfi_offset 1, -8
	.cfi_offset 22, -16
	.cfi_offset 23, -24
	.cfi_offset 24, -32
	.cfi_offset 25, -40
	.cfi_offset 26, -48
	.cfi_offset 27, -56
	.cfi_offset 28, -64
	.cfi_offset 29, -72
	ld.bu	$a3, $a2, 16
	beqz	$a3, .LBB6_9
# %bb.1:                                # %if.then
	move	$fp, $a1
	move	$s0, $a0
	ld.d	$a0, $a2, 8
	ld.d	$a1, $a2, 0
	sub.d	$a0, $a0, $a1
	pcaddu18i	$ra, %call36(__floatditf)
	jirl	$ra, $ra, 0
	ori	$a2, $zero, 0
	lu32i.d	$a2, 190536
	lu52i.d	$a3, $a2, 1025
	move	$a2, $zero
	pcaddu18i	$ra, %call36(__divtf3)
	jirl	$ra, $ra, 0
	ld.d	$a2, $s0, 16
	slli.d	$a3, $fp, 4
	alsl.d	$a3, $fp, $a3, 3
	add.d	$s2, $a2, $a3
	ld.d	$a2, $s2, 8
	ld.d	$a3, $s2, 16
	beq	$a2, $a3, .LBB6_3
# %bb.2:                                # %if.then.i
	st.d	$a0, $a2, 0
	st.d	$a1, $a2, 8
	addi.d	$a0, $a2, 16
	st.d	$a0, $s2, 8
	b	.LBB6_9
.LBB6_3:                                # %if.else.i
	move	$s5, $a0
	ld.d	$fp, $s2, 0
	sub.d	$s0, $a2, $fp
	addi.w	$a0, $zero, -16
	lu52i.d	$a0, $a0, 2047
	beq	$s0, $a0, .LBB6_10
# %bb.4:                                # %_ZNKSt6vectorIeSaIeEE12_M_check_lenEmPKc.exit.i.i
	move	$s4, $a1
	srai.d	$a0, $s0, 4
	ori	$a1, $zero, 1
	sltu	$a2, $a1, $a0
	masknez	$a1, $a1, $a2
	maskeqz	$a2, $a0, $a2
	or	$a1, $a2, $a1
	add.d	$a0, $a1, $a0
	addi.w	$a1, $zero, -1
	lu52i.d	$a1, $a1, 127
	sltu	$a2, $a0, $a1
	maskeqz	$a0, $a0, $a2
	masknez	$a1, $a1, $a2
	or	$s3, $a0, $a1
	slli.d	$a0, $s3, 4
	pcaddu18i	$ra, %call36(_Znwm)
	jirl	$ra, $ra, 0
	move	$s1, $a0
	add.d	$s6, $a0, $s0
	stx.d	$s5, $a0, $s0
	st.d	$s4, $s6, 8
	blez	$s0, .LBB6_6
# %bb.5:                                # %if.then.i.i.i.i.i.i
	move	$a0, $s1
	move	$a1, $fp
	move	$a2, $s0
	pcaddu18i	$ra, %call36(memcpy)
	jirl	$ra, $ra, 0
.LBB6_6:                                # %_ZNSt6vectorIeSaIeEE11_S_relocateEPeS2_S2_RS0_.exit.i.i
	beqz	$fp, .LBB6_8
# %bb.7:                                # %_ZNSt12_Vector_baseIeSaIeEE13_M_deallocateEPem.exit.i.i.i
	move	$a0, $fp
	pcaddu18i	$ra, %call36(_ZdlPv)
	jirl	$ra, $ra, 0
.LBB6_8:                                # %_ZNSt6vectorIeSaIeEE17_M_realloc_appendIJRKeEEEvDpOT_.exit.i
	addi.d	$a0, $s6, 16
	st.d	$s1, $s2, 0
	st.d	$a0, $s2, 8
	alsl.d	$a0, $s3, $s1, 4
	st.d	$a0, $s2, 16
.LBB6_9:                                # %if.end
	ld.d	$s6, $sp, 8                     # 8-byte Folded Reload
	ld.d	$s5, $sp, 16                    # 8-byte Folded Reload
	ld.d	$s4, $sp, 24                    # 8-byte Folded Reload
	ld.d	$s3, $sp, 32                    # 8-byte Folded Reload
	ld.d	$s2, $sp, 40                    # 8-byte Folded Reload
	ld.d	$s1, $sp, 48                    # 8-byte Folded Reload
	ld.d	$s0, $sp, 56                    # 8-byte Folded Reload
	ld.d	$fp, $sp, 64                    # 8-byte Folded Reload
	ld.d	$ra, $sp, 72                    # 8-byte Folded Reload
	addi.d	$sp, $sp, 80
	ret
.LBB6_10:                               # %if.then.i.i.i
	pcalau12i	$a0, %pc_hi20(.L.str.72)
	addi.d	$a0, $a0, %pc_lo12(.L.str.72)
	pcaddu18i	$ra, %call36(_ZSt20__throw_length_errorPKc)
	jirl	$ra, $ra, 0
.Lfunc_end6:
	.size	_Z9copyTimerR8LoopStatiRK9LoopTimer, .Lfunc_end6-_Z9copyTimerR8LoopStatiRK9LoopTimer
	.cfi_endproc
                                        # -- End function
	.globl	_Z12computeStatsjRSt6vectorI8LoopStatSaIS0_EEb # -- Begin function _Z12computeStatsjRSt6vectorI8LoopStatSaIS0_EEb
	.p2align	5
	.type	_Z12computeStatsjRSt6vectorI8LoopStatSaIS0_EEb,@function
_Z12computeStatsjRSt6vectorI8LoopStatSaIS0_EEb: # @_Z12computeStatsjRSt6vectorI8LoopStatSaIS0_EEb
.Lfunc_begin1:
	.cfi_startproc
	.cfi_personality 155, DW.ref.__gxx_personality_v0
	.cfi_lsda 27, .Lexception1
# %bb.0:                                # %entry
	addi.d	$sp, $sp, -304
	.cfi_def_cfa_offset 304
	st.d	$ra, $sp, 296                   # 8-byte Folded Spill
	st.d	$fp, $sp, 288                   # 8-byte Folded Spill
	st.d	$s0, $sp, 280                   # 8-byte Folded Spill
	st.d	$s1, $sp, 272                   # 8-byte Folded Spill
	st.d	$s2, $sp, 264                   # 8-byte Folded Spill
	st.d	$s3, $sp, 256                   # 8-byte Folded Spill
	st.d	$s4, $sp, 248                   # 8-byte Folded Spill
	st.d	$s5, $sp, 240                   # 8-byte Folded Spill
	st.d	$s6, $sp, 232                   # 8-byte Folded Spill
	st.d	$s7, $sp, 224                   # 8-byte Folded Spill
	st.d	$s8, $sp, 216                   # 8-byte Folded Spill
	.cfi_offset 1, -8
	.cfi_offset 22, -16
	.cfi_offset 23, -24
	.cfi_offset 24, -32
	.cfi_offset 25, -40
	.cfi_offset 26, -48
	.cfi_offset 27, -56
	.cfi_offset 28, -64
	.cfi_offset 29, -72
	.cfi_offset 30, -80
	.cfi_offset 31, -88
	ld.d	$a4, $a1, 8
	ld.d	$a3, $a1, 0
	st.d	$a2, $sp, 32                    # 8-byte Folded Spill
	st.d	$a0, $sp, 16                    # 8-byte Folded Spill
	sub.d	$a0, $a4, $a3
	srli.d	$a0, $a0, 3
	lu12i.w	$a1, -479350
	ori	$a1, $a1, 3979
	lu32i.d	$a1, -329553
	lu52i.d	$a1, $a1, -1288
	mul.d	$a0, $a0, $a1
	st.d	$a0, $sp, 40                    # 8-byte Folded Spill
	st.d	$a3, $sp, 56                    # 8-byte Folded Spill
	st.d	$a4, $sp, 24                    # 8-byte Folded Spill
	beq	$a4, $a3, .LBB7_18
# %bb.1:                                # %for.body.preheader
	move	$a0, $zero
	st.d	$zero, $sp, 48                  # 8-byte Folded Spill
	addi.w	$a1, $zero, -1
	st.d	$a1, $sp, 80                    # 8-byte Folded Spill
	lu32i.d	$a1, -65537
	st.d	$a1, $sp, 72                    # 8-byte Folded Spill
	lu52i.d	$a1, $a1, 2047
	st.d	$a1, $sp, 64                    # 8-byte Folded Spill
	ori	$a1, $zero, 0
	lu32i.d	$a1, -65536
	lu52i.d	$a1, $a1, 1023
	st.d	$a1, $sp, 152                   # 8-byte Folded Spill
	b	.LBB7_3
	.p2align	4, , 16
.LBB7_2:                                # %if.end77
                                        #   in Loop: Header=BB7_3 Depth=1
	ld.d	$a0, $sp, 48                    # 8-byte Folded Reload
	addi.w	$a0, $a0, 1
	st.d	$a0, $sp, 48                    # 8-byte Folded Spill
	bstrpick.d	$a0, $a0, 31, 0
	ld.d	$a1, $sp, 40                    # 8-byte Folded Reload
	bgeu	$a0, $a1, .LBB7_18
.LBB7_3:                                # %for.body
                                        # =>This Loop Header: Depth=1
                                        #     Child Loop BB7_9 Depth 2
                                        #       Child Loop BB7_13 Depth 3
                                        #       Child Loop BB7_16 Depth 3
	ori	$a1, $zero, 280
	mul.d	$a0, $a0, $a1
	ld.d	$a1, $sp, 56                    # 8-byte Folded Reload
	ldx.bu	$a1, $a1, $a0
	beqz	$a1, .LBB7_2
# %bb.4:                                # %for.cond3.preheader
                                        #   in Loop: Header=BB7_3 Depth=1
	ld.d	$a1, $sp, 56                    # 8-byte Folded Reload
	add.d	$s0, $a1, $a0
	ld.d	$a0, $s0, 216
	ld.d	$a1, $s0, 208
	beq	$a0, $a1, .LBB7_2
# %bb.5:                                # %for.body8.lr.ph
                                        #   in Loop: Header=BB7_3 Depth=1
	ld.d	$a3, $s0, 40
	move	$a2, $zero
	move	$s8, $zero
	sub.d	$a0, $a0, $a1
	srai.d	$a0, $a0, 2
	st.d	$a0, $sp, 128                   # 8-byte Folded Spill
	st.d	$s0, $sp, 88                    # 8-byte Folded Spill
	st.d	$a3, $sp, 96                    # 8-byte Folded Spill
	b	.LBB7_9
	.p2align	4, , 16
.LBB7_6:                                # %for.cond.cleanup21.thread
                                        #   in Loop: Header=BB7_9 Depth=2
	pcaddu18i	$ra, %call36(__floatunsitf)
	jirl	$ra, $ra, 0
	move	$fp, $a0
	move	$s1, $a1
	move	$a0, $zero
	move	$a1, $zero
	move	$a2, $fp
	move	$a3, $s1
	pcaddu18i	$ra, %call36(__divtf3)
	jirl	$ra, $ra, 0
	move	$a3, $s1
	move	$a2, $fp
	move	$s7, $a0
	move	$s6, $a1
	st.d	$zero, $sp, 184                 # 8-byte Folded Spill
	st.d	$zero, $sp, 192                 # 8-byte Folded Spill
	move	$fp, $zero
	move	$s1, $zero
	ld.d	$s2, $sp, 80                    # 8-byte Folded Reload
	move	$s3, $s2
	ld.d	$s4, $sp, 72                    # 8-byte Folded Reload
	ld.d	$s5, $sp, 64                    # 8-byte Folded Reload
.LBB7_7:                                # %for.cond.cleanup48
                                        #   in Loop: Header=BB7_9 Depth=2
	move	$a0, $fp
	move	$a1, $s1
	pcaddu18i	$ra, %call36(__divtf3)
	jirl	$ra, $ra, 0
	ld.d	$a2, $s0, 64
	ld.d	$a6, $sp, 136                   # 8-byte Folded Reload
	stx.d	$s7, $a2, $a6
	ld.d	$a3, $s0, 88
	ld.d	$a5, $sp, 144                   # 8-byte Folded Reload
	alsl.d	$a2, $a5, $a2, 4
	st.d	$s6, $a2, 8
	ld.d	$a2, $s0, 112
	alsl.d	$a4, $a5, $a3, 4
	stx.d	$a0, $a3, $a6
	st.d	$a1, $a4, 8
	alsl.d	$a0, $a5, $a2, 4
	ld.d	$a1, $s0, 136
	stx.d	$s2, $a2, $a6
	st.d	$s5, $a0, 8
	ld.d	$a0, $s0, 160
	alsl.d	$a2, $a5, $a1, 4
	stx.d	$s3, $a1, $a6
	st.d	$s4, $a2, 8
	alsl.d	$a1, $a5, $a0, 4
	ld.d	$a2, $sp, 184                   # 8-byte Folded Reload
	stx.d	$a2, $a0, $a6
	ld.d	$a0, $sp, 192                   # 8-byte Folded Reload
	st.d	$a0, $a1, 8
	ld.d	$a3, $sp, 96                    # 8-byte Folded Reload
.LBB7_8:                                # %for.inc74
                                        #   in Loop: Header=BB7_9 Depth=2
	addi.w	$s8, $s8, 1
	bstrpick.d	$a2, $s8, 31, 0
	ld.d	$a0, $sp, 128                   # 8-byte Folded Reload
	bgeu	$a2, $a0, .LBB7_2
.LBB7_9:                                # %for.body8
                                        #   Parent Loop BB7_3 Depth=1
                                        # =>  This Loop Header: Depth=2
                                        #       Child Loop BB7_13 Depth 3
                                        #       Child Loop BB7_16 Depth 3
	slli.d	$a0, $a2, 3
	ldx.d	$a0, $a3, $a0
	beqz	$a0, .LBB7_8
# %bb.10:                               # %if.then12
                                        #   in Loop: Header=BB7_9 Depth=2
	ld.d	$a0, $s0, 16
	slli.d	$a1, $a2, 4
	st.d	$a2, $sp, 144                   # 8-byte Folded Spill
	st.d	$a1, $sp, 136                   # 8-byte Folded Spill
	alsl.d	$a1, $a2, $a1, 3
	add.d	$a2, $a0, $a1
	ld.d	$a2, $a2, 8
	ldx.d	$s3, $a0, $a1
	sub.d	$a0, $a2, $s3
	srai.d	$a1, $a0, 4
	addi.w	$a0, $a1, 0
	beqz	$a0, .LBB7_6
# %bb.11:                               # %for.body22.preheader
                                        #   in Loop: Header=BB7_9 Depth=2
	st.d	$a0, $sp, 112                   # 8-byte Folded Spill
	st.d	$s8, $sp, 120                   # 8-byte Folded Spill
	st.d	$zero, $sp, 192                 # 8-byte Folded Spill
	st.d	$zero, $sp, 184                 # 8-byte Folded Spill
	st.d	$zero, $sp, 168                 # 8-byte Folded Spill
	st.d	$zero, $sp, 160                 # 8-byte Folded Spill
	addi.w	$s6, $zero, -1
	bstrpick.d	$s2, $a1, 31, 0
	move	$s5, $s6
	lu32i.d	$s5, -65537
	lu52i.d	$s7, $s5, 2047
	move	$s8, $s2
	move	$s0, $s3
	move	$s4, $s6
	b	.LBB7_13
	.p2align	4, , 16
.LBB7_12:                               # %for.inc
                                        #   in Loop: Header=BB7_13 Depth=3
	slti	$a0, $s6, 0
	ld.d	$a1, $sp, 176                   # 8-byte Folded Reload
	masknez	$a1, $a1, $a0
	maskeqz	$a2, $fp, $a0
	or	$s5, $a2, $a1
	ld.d	$a1, $sp, 208                   # 8-byte Folded Reload
	masknez	$a1, $a1, $a0
	maskeqz	$a0, $s1, $a0
	or	$s6, $a0, $a1
	slti	$a0, $s7, 0
	masknez	$a1, $s4, $a0
	maskeqz	$a2, $fp, $a0
	or	$s7, $a2, $a1
	ld.d	$a1, $sp, 200                   # 8-byte Folded Reload
	masknez	$a1, $a1, $a0
	maskeqz	$a0, $s1, $a0
	or	$s4, $a0, $a1
	addi.d	$s8, $s8, -1
	addi.d	$s0, $s0, 16
	beqz	$s8, .LBB7_15
.LBB7_13:                               # %for.body22
                                        #   Parent Loop BB7_3 Depth=1
                                        #     Parent Loop BB7_9 Depth=2
                                        # =>    This Inner Loop Header: Depth=3
	ld.d	$fp, $s0, 8
	ld.d	$s1, $s0, 0
	ld.d	$a0, $sp, 192                   # 8-byte Folded Reload
	ld.d	$a1, $sp, 184                   # 8-byte Folded Reload
	move	$a2, $s1
	move	$a3, $fp
	pcaddu18i	$ra, %call36(__addtf3)
	jirl	$ra, $ra, 0
	st.d	$a0, $sp, 192                   # 8-byte Folded Spill
	st.d	$a1, $sp, 184                   # 8-byte Folded Spill
	st.d	$s6, $sp, 208                   # 8-byte Folded Spill
	move	$a0, $s6
	st.d	$s5, $sp, 176                   # 8-byte Folded Spill
	move	$a1, $s5
	move	$a2, $s1
	move	$a3, $fp
	pcaddu18i	$ra, %call36(__lttf2)
	jirl	$ra, $ra, 0
	move	$s6, $a0
	move	$a0, $s1
	move	$a1, $fp
	st.d	$s4, $sp, 200                   # 8-byte Folded Spill
	move	$a2, $s4
	move	$s4, $s7
	move	$a3, $s7
	pcaddu18i	$ra, %call36(__lttf2)
	jirl	$ra, $ra, 0
	move	$s7, $a0
	move	$a0, $s1
	move	$a1, $fp
	move	$a2, $zero
	move	$a3, $zero
	pcaddu18i	$ra, %call36(__gttf2)
	jirl	$ra, $ra, 0
	blez	$a0, .LBB7_12
# %bb.14:                               # %if.then34
                                        #   in Loop: Header=BB7_13 Depth=3
	move	$a0, $zero
	ld.d	$a1, $sp, 152                   # 8-byte Folded Reload
	move	$a2, $s1
	move	$a3, $fp
	pcaddu18i	$ra, %call36(__divtf3)
	jirl	$ra, $ra, 0
	move	$a2, $a0
	move	$a3, $a1
	ld.d	$a0, $sp, 168                   # 8-byte Folded Reload
	ld.d	$a1, $sp, 160                   # 8-byte Folded Reload
	pcaddu18i	$ra, %call36(__addtf3)
	jirl	$ra, $ra, 0
	st.d	$a0, $sp, 168                   # 8-byte Folded Spill
	st.d	$a1, $sp, 160                   # 8-byte Folded Spill
	b	.LBB7_12
	.p2align	4, , 16
.LBB7_15:                               # %for.cond.cleanup21
                                        #   in Loop: Header=BB7_9 Depth=2
	st.d	$s4, $sp, 200                   # 8-byte Folded Spill
	st.d	$s7, $sp, 176                   # 8-byte Folded Spill
	st.d	$s6, $sp, 208                   # 8-byte Folded Spill
	ld.d	$a0, $sp, 112                   # 8-byte Folded Reload
	pcaddu18i	$ra, %call36(__floatunsitf)
	jirl	$ra, $ra, 0
	move	$fp, $a0
	move	$s1, $a1
	ld.d	$a0, $sp, 192                   # 8-byte Folded Reload
	ld.d	$a1, $sp, 184                   # 8-byte Folded Reload
	move	$a2, $fp
	move	$a3, $s1
	pcaddu18i	$ra, %call36(__divtf3)
	jirl	$ra, $ra, 0
	move	$s7, $a0
	move	$s6, $a1
	ld.d	$s4, $sp, 168                   # 8-byte Folded Reload
	move	$a0, $s4
	ld.d	$s8, $sp, 160                   # 8-byte Folded Reload
	move	$a1, $s8
	move	$a2, $zero
	move	$a3, $zero
	pcaddu18i	$ra, %call36(__gttf2)
	jirl	$ra, $ra, 0
	slt	$s0, $zero, $a0
	st.d	$fp, $sp, 112                   # 8-byte Folded Spill
	move	$a0, $fp
	st.d	$s1, $sp, 104                   # 8-byte Folded Spill
	move	$a1, $s1
	move	$a2, $s4
	move	$a3, $s8
	pcaddu18i	$ra, %call36(__divtf3)
	jirl	$ra, $ra, 0
	move	$fp, $zero
	move	$s1, $zero
	maskeqz	$a1, $a1, $s0
	masknez	$a2, $s8, $s0
	or	$a1, $a1, $a2
	st.d	$a1, $sp, 192                   # 8-byte Folded Spill
	maskeqz	$a0, $a0, $s0
	masknez	$a1, $s4, $s0
	or	$a0, $a0, $a1
	st.d	$a0, $sp, 184                   # 8-byte Folded Spill
	.p2align	4, , 16
.LBB7_16:                               # %for.body49
                                        #   Parent Loop BB7_3 Depth=1
                                        #     Parent Loop BB7_9 Depth=2
                                        # =>    This Inner Loop Header: Depth=3
	ld.d	$a0, $s3, 0
	ld.d	$a1, $s3, 8
	move	$a2, $s7
	move	$a3, $s6
	pcaddu18i	$ra, %call36(__subtf3)
	jirl	$ra, $ra, 0
	move	$a2, $a0
	move	$a3, $a1
	pcaddu18i	$ra, %call36(__multf3)
	jirl	$ra, $ra, 0
	move	$a2, $fp
	move	$a3, $s1
	pcaddu18i	$ra, %call36(__addtf3)
	jirl	$ra, $ra, 0
	move	$fp, $a0
	move	$s1, $a1
	addi.d	$s2, $s2, -1
	addi.d	$s3, $s3, 16
	bnez	$s2, .LBB7_16
# %bb.17:                               #   in Loop: Header=BB7_9 Depth=2
	ld.d	$s0, $sp, 88                    # 8-byte Folded Reload
	ld.d	$s8, $sp, 120                   # 8-byte Folded Reload
	ld.d	$s3, $sp, 208                   # 8-byte Folded Reload
	move	$s4, $s5
	ld.d	$s5, $sp, 176                   # 8-byte Folded Reload
	ld.d	$s2, $sp, 200                   # 8-byte Folded Reload
	ld.d	$a2, $sp, 112                   # 8-byte Folded Reload
	ld.d	$a3, $sp, 104                   # 8-byte Folded Reload
	b	.LBB7_7
.LBB7_18:                               # %for.cond.cleanup
	ld.d	$a0, $sp, 32                    # 8-byte Folded Reload
	beqz	$a0, .LBB7_57
# %bb.19:                               # %if.then82
	pcalau12i	$a0, %pc_hi20(_ZL21s_loop_suite_run_info)
	ld.d	$s0, $a0, %pc_lo12(_ZL21s_loop_suite_run_info)
	ld.wu	$a0, $s0, 64
	st.d	$s0, $sp, 112                   # 8-byte Folded Spill
	beqz	$a0, .LBB7_29
# %bb.20:                               # %invoke.cont
	slli.d	$fp, $a0, 2
	move	$a0, $fp
	pcaddu18i	$ra, %call36(_Znwm)
	jirl	$ra, $ra, 0
	move	$s7, $a0
	move	$a1, $zero
	move	$a2, $fp
	pcaddu18i	$ra, %call36(memset)
	jirl	$ra, $ra, 0
	ld.wu	$a0, $s0, 64
	st.d	$s7, $sp, 200                   # 8-byte Folded Spill
	beqz	$a0, .LBB7_30
# %bb.21:                               # %for.body.preheader.i.i.i.i.i134
	slli.d	$fp, $a0, 4
.Ltmp3:                                 # EH_LABEL
	move	$a0, $fp
	pcaddu18i	$ra, %call36(_Znwm)
	jirl	$ra, $ra, 0
.Ltmp4:                                 # EH_LABEL
# %bb.22:                               # %invoke.cont92
	move	$s8, $a0
	move	$a1, $zero
	move	$a2, $fp
	pcaddu18i	$ra, %call36(memset)
	jirl	$ra, $ra, 0
	ld.d	$a0, $sp, 112                   # 8-byte Folded Reload
	ld.wu	$a0, $a0, 64
	beqz	$a0, .LBB7_31
# %bb.23:                               # %for.body.preheader.i.i.i.i.i150
	slli.d	$fp, $a0, 4
.Ltmp6:                                 # EH_LABEL
	move	$a0, $fp
	pcaddu18i	$ra, %call36(_Znwm)
	jirl	$ra, $ra, 0
.Ltmp7:                                 # EH_LABEL
# %bb.24:                               # %invoke.cont98
	move	$s1, $a0
	move	$a1, $zero
	move	$a2, $fp
	pcaddu18i	$ra, %call36(memset)
	jirl	$ra, $ra, 0
	ld.d	$a0, $sp, 112                   # 8-byte Folded Reload
	ld.wu	$a0, $a0, 64
	st.d	$s1, $sp, 152                   # 8-byte Folded Spill
	beqz	$a0, .LBB7_58
# %bb.25:                               # %for.body.preheader.i.i.i.i.i168
	slli.d	$fp, $a0, 4
.Ltmp9:                                 # EH_LABEL
	move	$a0, $fp
	pcaddu18i	$ra, %call36(_Znwm)
	jirl	$ra, $ra, 0
.Ltmp10:                                # EH_LABEL
# %bb.26:                               # %invoke.cont104
	move	$s2, $a0
	move	$a1, $zero
	move	$a2, $fp
	pcaddu18i	$ra, %call36(memset)
	jirl	$ra, $ra, 0
	ld.d	$a0, $sp, 112                   # 8-byte Folded Reload
	ld.wu	$s0, $a0, 64
	addi.w	$a0, $s0, 0
	st.d	$s2, $sp, 136                   # 8-byte Folded Spill
	beqz	$a0, .LBB7_59
# %bb.27:                               # %for.body.preheader.i.i.i.i.i186
	slli.d	$fp, $s0, 4
.Ltmp12:                                # EH_LABEL
	move	$a0, $fp
	pcaddu18i	$ra, %call36(_Znwm)
	jirl	$ra, $ra, 0
.Ltmp13:                                # EH_LABEL
# %bb.28:                               # %for.body.i.i.i.i.i191.preheader
	st.d	$a0, $sp, 128                   # 8-byte Folded Spill
	move	$a1, $zero
	move	$a2, $fp
	pcaddu18i	$ra, %call36(memset)
	jirl	$ra, $ra, 0
	ld.d	$a0, $sp, 56                    # 8-byte Folded Reload
	ld.d	$a1, $sp, 24                    # 8-byte Folded Reload
	bne	$a1, $a0, .LBB7_33
	b	.LBB7_42
.LBB7_29:
	st.d	$zero, $sp, 136                 # 8-byte Folded Spill
	move	$s0, $zero
	move	$s8, $zero
	st.d	$zero, $sp, 200                 # 8-byte Folded Spill
	b	.LBB7_32
.LBB7_30:
	st.d	$zero, $sp, 136                 # 8-byte Folded Spill
	move	$s0, $zero
	move	$s8, $zero
	b	.LBB7_32
.LBB7_31:
	st.d	$zero, $sp, 136                 # 8-byte Folded Spill
	move	$s0, $zero
.LBB7_32:                               # %invoke.cont110
	st.d	$zero, $sp, 152                 # 8-byte Folded Spill
	st.d	$zero, $sp, 128                 # 8-byte Folded Spill
	ld.d	$a0, $sp, 56                    # 8-byte Folded Reload
	ld.d	$a1, $sp, 24                    # 8-byte Folded Reload
	beq	$a1, $a0, .LBB7_42
.LBB7_33:                               # %for.body117.preheader
	st.d	$s8, $sp, 120                   # 8-byte Folded Spill
	move	$a0, $zero
	move	$a2, $zero
	b	.LBB7_35
	.p2align	4, , 16
.LBB7_34:                               # %if.end177
                                        #   in Loop: Header=BB7_35 Depth=1
	ld.d	$a2, $sp, 104                   # 8-byte Folded Reload
	addi.w	$a2, $a2, 1
	bstrpick.d	$a0, $a2, 31, 0
	ld.d	$a1, $sp, 40                    # 8-byte Folded Reload
	bgeu	$a0, $a1, .LBB7_41
.LBB7_35:                               # %for.body117
                                        # =>This Loop Header: Depth=1
                                        #     Child Loop BB7_39 Depth 2
	st.d	$a2, $sp, 104                   # 8-byte Folded Spill
	ori	$a1, $zero, 280
	mul.d	$a0, $a0, $a1
	ld.d	$a1, $sp, 56                    # 8-byte Folded Reload
	ldx.bu	$a1, $a1, $a0
	beqz	$a1, .LBB7_34
# %bb.36:                               # %for.cond125.preheader
                                        #   in Loop: Header=BB7_35 Depth=1
	ld.d	$a1, $sp, 56                    # 8-byte Folded Reload
	add.d	$a1, $a1, $a0
	ld.d	$a0, $a1, 216
	st.d	$a1, $sp, 208                   # 8-byte Folded Spill
	ld.d	$a1, $a1, 208
	st.d	$a1, $sp, 144                   # 8-byte Folded Spill
	beq	$a0, $a1, .LBB7_34
# %bb.37:                               # %for.body131.lr.ph
                                        #   in Loop: Header=BB7_35 Depth=1
	move	$s1, $zero
	move	$s8, $zero
	ld.d	$a1, $sp, 208                   # 8-byte Folded Reload
	ld.d	$s2, $a1, 40
	ld.d	$a1, $sp, 144                   # 8-byte Folded Reload
	sub.d	$a0, $a0, $a1
	srai.d	$a0, $a0, 2
	st.d	$a0, $sp, 160                   # 8-byte Folded Spill
	ori	$s4, $zero, 1
	b	.LBB7_39
	.p2align	4, , 16
.LBB7_38:                               # %for.inc174
                                        #   in Loop: Header=BB7_39 Depth=2
	bstrpick.d	$a0, $s4, 31, 0
	addi.d	$s2, $s2, 8
	addi.d	$s8, $s8, 4
	addi.d	$s1, $s1, 16
	addi.w	$s4, $s4, 1
	ld.d	$a1, $sp, 160                   # 8-byte Folded Reload
	bgeu	$a0, $a1, .LBB7_34
.LBB7_39:                               # %for.body131
                                        #   Parent Loop BB7_35 Depth=1
                                        # =>  This Inner Loop Header: Depth=2
	ld.d	$a0, $s2, 0
	beqz	$a0, .LBB7_38
# %bb.40:                               # %if.then136
                                        #   in Loop: Header=BB7_39 Depth=2
	ld.d	$s7, $sp, 200                   # 8-byte Folded Reload
	ldx.w	$a0, $s7, $s8
	addi.d	$a0, $a0, 1
	stx.w	$a0, $s7, $s8
	ld.d	$s0, $sp, 208                   # 8-byte Folded Reload
	fld.d	$fa0, $s0, 8
	pcaddu18i	$ra, %call36(__extenddftf2)
	jirl	$ra, $ra, 0
	ld.d	$fp, $sp, 120                   # 8-byte Folded Reload
	add.d	$s6, $fp, $s1
	ldx.d	$a2, $fp, $s1
	ld.d	$a3, $s6, 8
	move	$a4, $a0
	st.d	$a0, $sp, 192                   # 8-byte Folded Spill
	move	$a5, $a1
	st.d	$a1, $sp, 184                   # 8-byte Folded Spill
	move	$a0, $a2
	move	$a1, $a3
	move	$a2, $a4
	move	$a3, $a5
	pcaddu18i	$ra, %call36(__addtf3)
	jirl	$ra, $ra, 0
	ld.d	$s3, $s0, 64
	stx.d	$a0, $fp, $s1
	st.d	$a1, $s6, 8
	add.d	$s0, $s3, $s1
	ldx.d	$a0, $s3, $s1
	ld.d	$a1, $s0, 8
	ld.d	$fp, $sp, 152                   # 8-byte Folded Reload
	add.d	$s6, $fp, $s1
	ldx.d	$a2, $fp, $s1
	ld.d	$a3, $s6, 8
	pcaddu18i	$ra, %call36(__addtf3)
	jirl	$ra, $ra, 0
	stx.d	$a0, $fp, $s1
	st.d	$a1, $s6, 8
	ldx.d	$a2, $s3, $s1
	ld.d	$a3, $s0, 8
	ld.d	$s5, $sp, 136                   # 8-byte Folded Reload
	add.d	$fp, $s5, $s1
	ldx.d	$a0, $s5, $s1
	st.d	$a0, $sp, 176                   # 8-byte Folded Spill
	st.d	$s7, $sp, 200                   # 8-byte Folded Spill
	ld.d	$a0, $fp, 8
	st.d	$a0, $sp, 168                   # 8-byte Folded Spill
	ld.d	$s6, $sp, 192                   # 8-byte Folded Reload
	move	$a0, $s6
	ld.d	$s7, $sp, 184                   # 8-byte Folded Reload
	move	$a1, $s7
	pcaddu18i	$ra, %call36(__multf3)
	jirl	$ra, $ra, 0
	ld.d	$a2, $sp, 176                   # 8-byte Folded Reload
	ld.d	$a3, $sp, 168                   # 8-byte Folded Reload
	pcaddu18i	$ra, %call36(__addtf3)
	jirl	$ra, $ra, 0
	stx.d	$a0, $s5, $s1
	st.d	$a1, $fp, 8
	ldx.d	$a0, $s3, $s1
	ld.d	$a1, $s0, 8
	move	$a2, $s6
	move	$a3, $s7
	pcaddu18i	$ra, %call36(__multf3)
	jirl	$ra, $ra, 0
	ld.d	$a2, $sp, 208                   # 8-byte Folded Reload
	ld.d	$a2, $a2, 232
	ld.d	$a3, $sp, 144                   # 8-byte Folded Reload
	ldx.w	$a3, $a3, $s8
	ldx.w	$a2, $a2, $s8
	move	$fp, $a0
	move	$s5, $a1
	mul.w	$a0, $a2, $a3
	pcaddu18i	$ra, %call36(__floatsitf)
	jirl	$ra, $ra, 0
	move	$a2, $a0
	move	$a3, $a1
	move	$a0, $fp
	move	$a1, $s5
	pcaddu18i	$ra, %call36(__divtf3)
	jirl	$ra, $ra, 0
	ld.d	$s0, $sp, 128                   # 8-byte Folded Reload
	add.d	$fp, $s0, $s1
	ldx.d	$a2, $s0, $s1
	ld.d	$a3, $fp, 8
	move	$a4, $a0
	move	$a5, $a1
	move	$a0, $a2
	move	$a1, $a3
	move	$a2, $a4
	move	$a3, $a5
	pcaddu18i	$ra, %call36(__addtf3)
	jirl	$ra, $ra, 0
	stx.d	$a0, $s0, $s1
	st.d	$a1, $fp, 8
	b	.LBB7_38
.LBB7_41:                               # %for.cond182.preheader.loopexit
	ld.d	$a0, $sp, 112                   # 8-byte Folded Reload
	ld.w	$s0, $a0, 64
	ld.d	$s8, $sp, 120                   # 8-byte Folded Reload
.LBB7_42:                               # %for.cond182.preheader
	addi.w	$a0, $s0, 0
	beqz	$a0, .LBB7_47
# %bb.43:                               # %for.body186.lr.ph
	move	$s0, $zero
	move	$s1, $zero
	move	$s2, $zero
	ld.d	$a0, $sp, 16                    # 8-byte Folded Reload
	bstrpick.d	$a0, $a0, 31, 0
	ld.d	$a1, $sp, 112                   # 8-byte Folded Reload
	ld.d	$a1, $a1, 456
	ld.d	$a2, $sp, 112                   # 8-byte Folded Reload
	ld.d	$a2, $a2, 480
	slli.d	$a3, $a0, 4
	alsl.d	$s3, $a0, $a3, 3
	ldx.d	$s4, $a1, $s3
	ld.d	$a1, $sp, 112                   # 8-byte Folded Reload
	ldx.d	$s5, $a2, $s3
	ori	$a0, $zero, 0
	lu32i.d	$a0, -65536
	lu52i.d	$fp, $a0, 1023
	ld.d	$s6, $sp, 200                   # 8-byte Folded Reload
	b	.LBB7_45
	.p2align	4, , 16
.LBB7_44:                               # %if.end228
                                        #   in Loop: Header=BB7_45 Depth=1
	addi.d	$s2, $s2, 1
	ld.wu	$a0, $a1, 64
	addi.d	$s6, $s6, 4
	addi.d	$s4, $s4, 4
	addi.d	$s1, $s1, 16
	addi.d	$s0, $s0, 24
	bgeu	$s2, $a0, .LBB7_47
.LBB7_45:                               # %for.body186
                                        # =>This Inner Loop Header: Depth=1
	ld.w	$a0, $s6, 0
	st.w	$a0, $s4, 0
	ld.d	$a2, $sp, 152                   # 8-byte Folded Reload
	vldx	$vr0, $a2, $s1
	vstx	$vr0, $s5, $s1
	blez	$a0, .LBB7_44
# %bb.46:                               # %if.then208
                                        #   in Loop: Header=BB7_45 Depth=1
	ld.d	$a0, $a1, 168
	ldx.d	$a1, $a0, $s0
	ld.d	$a0, $a1, 0
	ld.d	$a1, $a1, 8
	add.d	$a3, $s8, $s1
	ldx.d	$a2, $s8, $s1
	ld.d	$a3, $a3, 8
	pcaddu18i	$ra, %call36(__multf3)
	jirl	$ra, $ra, 0
	ld.d	$a2, $sp, 136                   # 8-byte Folded Reload
	add.d	$a3, $a2, $s1
	ldx.d	$a2, $a2, $s1
	ld.d	$a3, $a3, 8
	pcaddu18i	$ra, %call36(__divtf3)
	jirl	$ra, $ra, 0
	ld.d	$a2, $sp, 112                   # 8-byte Folded Reload
	ld.d	$a2, $a2, 504
	ldx.d	$a2, $a2, $s3
	add.d	$a3, $a2, $s1
	stx.d	$a0, $a2, $s1
	st.d	$a1, $a3, 8
	ld.d	$a1, $sp, 128                   # 8-byte Folded Reload
	add.d	$a0, $a1, $s1
	ldx.d	$a2, $a1, $s1
	ld.d	$a3, $a0, 8
	move	$a0, $zero
	move	$a1, $fp
	pcaddu18i	$ra, %call36(__divtf3)
	jirl	$ra, $ra, 0
	ld.d	$a2, $sp, 112                   # 8-byte Folded Reload
	ld.d	$a2, $a2, 528
	ldx.d	$a2, $a2, $s3
	add.d	$a3, $a2, $s1
	stx.d	$a0, $a2, $s1
	st.d	$a1, $a3, 8
	ld.d	$a1, $sp, 112                   # 8-byte Folded Reload
	b	.LBB7_44
.LBB7_47:                               # %for.cond.cleanup185
	ld.d	$a0, $sp, 128                   # 8-byte Folded Reload
	beqz	$a0, .LBB7_49
# %bb.48:                               # %if.then.i.i.i228
	pcaddu18i	$ra, %call36(_ZdlPv)
	jirl	$ra, $ra, 0
.LBB7_49:                               # %_ZNSt6vectorIeSaIeEED2Ev.exit229
	ld.d	$fp, $sp, 152                   # 8-byte Folded Reload
	ld.d	$a0, $sp, 136                   # 8-byte Folded Reload
	ld.d	$s0, $sp, 200                   # 8-byte Folded Reload
	beqz	$a0, .LBB7_51
# %bb.50:                               # %if.then.i.i.i231
	pcaddu18i	$ra, %call36(_ZdlPv)
	jirl	$ra, $ra, 0
.LBB7_51:                               # %_ZNSt6vectorIeSaIeEED2Ev.exit232
	beqz	$fp, .LBB7_53
# %bb.52:                               # %if.then.i.i.i234
	move	$a0, $fp
	pcaddu18i	$ra, %call36(_ZdlPv)
	jirl	$ra, $ra, 0
.LBB7_53:                               # %_ZNSt6vectorIeSaIeEED2Ev.exit235
	beqz	$s8, .LBB7_55
# %bb.54:                               # %if.then.i.i.i237
	move	$a0, $s8
	pcaddu18i	$ra, %call36(_ZdlPv)
	jirl	$ra, $ra, 0
.LBB7_55:                               # %_ZNSt6vectorIeSaIeEED2Ev.exit238
	beqz	$s0, .LBB7_57
# %bb.56:                               # %if.then.i.i.i240
	move	$a0, $s0
	ld.d	$s8, $sp, 216                   # 8-byte Folded Reload
	ld.d	$s7, $sp, 224                   # 8-byte Folded Reload
	ld.d	$s6, $sp, 232                   # 8-byte Folded Reload
	ld.d	$s5, $sp, 240                   # 8-byte Folded Reload
	ld.d	$s4, $sp, 248                   # 8-byte Folded Reload
	ld.d	$s3, $sp, 256                   # 8-byte Folded Reload
	ld.d	$s2, $sp, 264                   # 8-byte Folded Reload
	ld.d	$s1, $sp, 272                   # 8-byte Folded Reload
	ld.d	$s0, $sp, 280                   # 8-byte Folded Reload
	ld.d	$fp, $sp, 288                   # 8-byte Folded Reload
	ld.d	$ra, $sp, 296                   # 8-byte Folded Reload
	addi.d	$sp, $sp, 304
	pcaddu18i	$t8, %call36(_ZdlPv)
	jr	$t8
.LBB7_57:                               # %if.end240
	ld.d	$s8, $sp, 216                   # 8-byte Folded Reload
	ld.d	$s7, $sp, 224                   # 8-byte Folded Reload
	ld.d	$s6, $sp, 232                   # 8-byte Folded Reload
	ld.d	$s5, $sp, 240                   # 8-byte Folded Reload
	ld.d	$s4, $sp, 248                   # 8-byte Folded Reload
	ld.d	$s3, $sp, 256                   # 8-byte Folded Reload
	ld.d	$s2, $sp, 264                   # 8-byte Folded Reload
	ld.d	$s1, $sp, 272                   # 8-byte Folded Reload
	ld.d	$s0, $sp, 280                   # 8-byte Folded Reload
	ld.d	$fp, $sp, 288                   # 8-byte Folded Reload
	ld.d	$ra, $sp, 296                   # 8-byte Folded Reload
	addi.d	$sp, $sp, 304
	ret
.LBB7_58:
	st.d	$zero, $sp, 136                 # 8-byte Folded Spill
.LBB7_59:
	move	$s0, $zero
	st.d	$zero, $sp, 128                 # 8-byte Folded Spill
	ld.d	$a0, $sp, 56                    # 8-byte Folded Reload
	ld.d	$a1, $sp, 24                    # 8-byte Folded Reload
	bne	$a1, $a0, .LBB7_33
	b	.LBB7_42
.LBB7_60:                               # %if.then.i.i.i
.Ltmp14:                                # EH_LABEL
	move	$fp, $a0
	move	$a0, $s2
	pcaddu18i	$ra, %call36(_ZdlPv)
	jirl	$ra, $ra, 0
	b	.LBB7_62
.LBB7_61:                               # %lpad103
.Ltmp11:                                # EH_LABEL
	move	$fp, $a0
.LBB7_62:                               # %if.then.i.i.i258
	move	$a0, $s1
	pcaddu18i	$ra, %call36(_ZdlPv)
	jirl	$ra, $ra, 0
	b	.LBB7_64
.LBB7_63:                               # %lpad97
.Ltmp8:                                 # EH_LABEL
	move	$fp, $a0
.LBB7_64:                               # %if.then.i.i.i261
	move	$a0, $s8
	pcaddu18i	$ra, %call36(_ZdlPv)
	jirl	$ra, $ra, 0
	move	$a0, $s7
	pcaddu18i	$ra, %call36(_ZdlPv)
	jirl	$ra, $ra, 0
	move	$a0, $fp
	pcaddu18i	$ra, %call36(_Unwind_Resume)
	jirl	$ra, $ra, 0
.LBB7_65:                               # %lpad91
.Ltmp5:                                 # EH_LABEL
	move	$fp, $a0
	move	$a0, $s7
	pcaddu18i	$ra, %call36(_ZdlPv)
	jirl	$ra, $ra, 0
	move	$a0, $fp
	pcaddu18i	$ra, %call36(_Unwind_Resume)
	jirl	$ra, $ra, 0
.Lfunc_end7:
	.size	_Z12computeStatsjRSt6vectorI8LoopStatSaIS0_EEb, .Lfunc_end7-_Z12computeStatsjRSt6vectorI8LoopStatSaIS0_EEb
	.cfi_endproc
	.section	.gcc_except_table,"a",@progbits
	.p2align	2, 0x0
GCC_except_table7:
.Lexception1:
	.byte	255                             # @LPStart Encoding = omit
	.byte	255                             # @TType Encoding = omit
	.byte	1                               # Call site Encoding = uleb128
	.uleb128 .Lcst_end1-.Lcst_begin1
.Lcst_begin1:
	.uleb128 .Lfunc_begin1-.Lfunc_begin1    # >> Call Site 1 <<
	.uleb128 .Ltmp3-.Lfunc_begin1           #   Call between .Lfunc_begin1 and .Ltmp3
	.byte	0                               #     has no landing pad
	.byte	0                               #   On action: cleanup
	.uleb128 .Ltmp3-.Lfunc_begin1           # >> Call Site 2 <<
	.uleb128 .Ltmp4-.Ltmp3                  #   Call between .Ltmp3 and .Ltmp4
	.uleb128 .Ltmp5-.Lfunc_begin1           #     jumps to .Ltmp5
	.byte	0                               #   On action: cleanup
	.uleb128 .Ltmp4-.Lfunc_begin1           # >> Call Site 3 <<
	.uleb128 .Ltmp6-.Ltmp4                  #   Call between .Ltmp4 and .Ltmp6
	.byte	0                               #     has no landing pad
	.byte	0                               #   On action: cleanup
	.uleb128 .Ltmp6-.Lfunc_begin1           # >> Call Site 4 <<
	.uleb128 .Ltmp7-.Ltmp6                  #   Call between .Ltmp6 and .Ltmp7
	.uleb128 .Ltmp8-.Lfunc_begin1           #     jumps to .Ltmp8
	.byte	0                               #   On action: cleanup
	.uleb128 .Ltmp7-.Lfunc_begin1           # >> Call Site 5 <<
	.uleb128 .Ltmp9-.Ltmp7                  #   Call between .Ltmp7 and .Ltmp9
	.byte	0                               #     has no landing pad
	.byte	0                               #   On action: cleanup
	.uleb128 .Ltmp9-.Lfunc_begin1           # >> Call Site 6 <<
	.uleb128 .Ltmp10-.Ltmp9                 #   Call between .Ltmp9 and .Ltmp10
	.uleb128 .Ltmp11-.Lfunc_begin1          #     jumps to .Ltmp11
	.byte	0                               #   On action: cleanup
	.uleb128 .Ltmp10-.Lfunc_begin1          # >> Call Site 7 <<
	.uleb128 .Ltmp12-.Ltmp10                #   Call between .Ltmp10 and .Ltmp12
	.byte	0                               #     has no landing pad
	.byte	0                               #   On action: cleanup
	.uleb128 .Ltmp12-.Lfunc_begin1          # >> Call Site 8 <<
	.uleb128 .Ltmp13-.Ltmp12                #   Call between .Ltmp12 and .Ltmp13
	.uleb128 .Ltmp14-.Lfunc_begin1          #     jumps to .Ltmp14
	.byte	0                               #   On action: cleanup
	.uleb128 .Ltmp13-.Lfunc_begin1          # >> Call Site 9 <<
	.uleb128 .Lfunc_end7-.Ltmp13            #   Call between .Ltmp13 and .Lfunc_end7
	.byte	0                               #     has no landing pad
	.byte	0                               #   On action: cleanup
.Lcst_end1:
	.p2align	2, 0x0
                                        # -- End function
	.text
	.globl	_Z20generateTimingReportRKSt6vectorINSt7__cxx1112basic_stringIcSt11char_traitsIcESaIcEEESaIS5_EERKS5_ # -- Begin function _Z20generateTimingReportRKSt6vectorINSt7__cxx1112basic_stringIcSt11char_traitsIcESaIcEEESaIS5_EERKS5_
	.p2align	5
	.type	_Z20generateTimingReportRKSt6vectorINSt7__cxx1112basic_stringIcSt11char_traitsIcESaIcEEESaIS5_EERKS5_,@function
_Z20generateTimingReportRKSt6vectorINSt7__cxx1112basic_stringIcSt11char_traitsIcESaIcEEESaIS5_EERKS5_: # @_Z20generateTimingReportRKSt6vectorINSt7__cxx1112basic_stringIcSt11char_traitsIcESaIcEEESaIS5_EERKS5_
.Lfunc_begin2:
	.cfi_startproc
	.cfi_personality 155, DW.ref.__gxx_personality_v0
	.cfi_lsda 27, .Lexception2
# %bb.0:                                # %entry
	addi.d	$sp, $sp, -1408
	.cfi_def_cfa_offset 1408
	st.d	$ra, $sp, 1400                  # 8-byte Folded Spill
	st.d	$fp, $sp, 1392                  # 8-byte Folded Spill
	st.d	$s0, $sp, 1384                  # 8-byte Folded Spill
	st.d	$s1, $sp, 1376                  # 8-byte Folded Spill
	st.d	$s2, $sp, 1368                  # 8-byte Folded Spill
	st.d	$s3, $sp, 1360                  # 8-byte Folded Spill
	st.d	$s4, $sp, 1352                  # 8-byte Folded Spill
	st.d	$s5, $sp, 1344                  # 8-byte Folded Spill
	st.d	$s6, $sp, 1336                  # 8-byte Folded Spill
	st.d	$s7, $sp, 1328                  # 8-byte Folded Spill
	st.d	$s8, $sp, 1320                  # 8-byte Folded Spill
	.cfi_offset 1, -8
	.cfi_offset 22, -16
	.cfi_offset 23, -24
	.cfi_offset 24, -32
	.cfi_offset 25, -40
	.cfi_offset 26, -48
	.cfi_offset 27, -56
	.cfi_offset 28, -64
	.cfi_offset 29, -72
	.cfi_offset 30, -80
	.cfi_offset 31, -88
	move	$fp, $a0
	ld.d	$a0, $a0, 8
	ld.d	$a2, $fp, 0
	beq	$a0, $a2, .LBB8_150
# %bb.1:                                # %if.end
	st.d	$a1, $sp, 120                   # 8-byte Folded Spill
	addi.d	$a0, $sp, 712
	pcaddu18i	$ra, %call36(_ZN12_GLOBAL__N_116buildVersionInfoB5cxx11Ev)
	jirl	$ra, $ra, 0
	ld.d	$a0, $fp, 8
	st.d	$fp, $sp, 136                   # 8-byte Folded Spill
	ld.d	$a1, $fp, 0
	pcalau12i	$a2, %pc_hi20(_ZL21s_loop_suite_run_info)
	st.d	$a2, $sp, 112                   # 8-byte Folded Spill
	sub.d	$a0, $a0, $a1
	st.d	$a0, $sp, 144                   # 8-byte Folded Spill
	srai.d	$a0, $a0, 5
	addi.w	$a1, $a0, 0
	beqz	$a1, .LBB8_16
# %bb.2:                                # %for.body.lr.ph
	ld.d	$a1, $sp, 112                   # 8-byte Folded Reload
	ld.d	$a1, $a1, %pc_lo12(_ZL21s_loop_suite_run_info)
	move	$s3, $zero
	st.d	$a1, $sp, 160                   # 8-byte Folded Spill
	addi.d	$s1, $a1, 600
	bstrpick.d	$a0, $a0, 31, 0
	st.d	$a0, $sp, 152                   # 8-byte Folded Spill
	lu12i.w	$a0, 524287
	ori	$s7, $a0, 4095
	ori	$s8, $zero, 16
	ori	$s0, $zero, 24
	.p2align	4, , 16
.LBB8_3:                                # %for.body
                                        # =>This Loop Header: Depth=1
                                        #     Child Loop BB8_7 Depth 2
	ld.d	$a0, $sp, 160                   # 8-byte Folded Reload
	ld.d	$s4, $a0, 608
	move	$a0, $s1
	beqz	$s4, .LBB8_14
# %bb.4:                                # %while.body.lr.ph.i.i.i.i
                                        #   in Loop: Header=BB8_3 Depth=1
	ld.d	$a0, $sp, 136                   # 8-byte Folded Reload
	ld.d	$a0, $a0, 0
	slli.d	$a1, $s3, 5
	add.d	$a2, $a0, $a1
	ld.d	$s2, $a2, 8
	ldx.d	$fp, $a0, $a1
	move	$s5, $s1
	b	.LBB8_7
	.p2align	4, , 16
.LBB8_5:                                # %if.then.i.i.i.i.i.i.i
                                        #   in Loop: Header=BB8_7 Depth=2
	sub.d	$a0, $s6, $s2
	lu12i.w	$a2, -524288
	slt	$a1, $a2, $a0
	maskeqz	$a0, $a0, $a1
	masknez	$a1, $a2, $a1
	or	$a0, $a0, $a1
	slt	$a1, $a0, $s7
	maskeqz	$a0, $a0, $a1
	masknez	$a1, $s7, $a1
	or	$a0, $a0, $a1
.LBB8_6:                                # %_ZNKSt4lessINSt7__cxx1112basic_stringIcSt11char_traitsIcESaIcEEEEclERKS5_S8_.exit.i.i.i.i
                                        #   in Loop: Header=BB8_7 Depth=2
	addi.w	$a0, $a0, 0
	slti	$a0, $a0, 0
	masknez	$a1, $s4, $a0
	masknez	$a2, $s8, $a0
	maskeqz	$a3, $s0, $a0
	or	$a2, $a3, $a2
	ldx.d	$s4, $s4, $a2
	maskeqz	$a0, $s5, $a0
	or	$s5, $a0, $a1
	beqz	$s4, .LBB8_9
.LBB8_7:                                # %while.body.i.i.i.i
                                        #   Parent Loop BB8_3 Depth=1
                                        # =>  This Inner Loop Header: Depth=2
	ld.d	$s6, $s4, 40
	sltu	$a0, $s2, $s6
	masknez	$a1, $s6, $a0
	maskeqz	$a0, $s2, $a0
	or	$a2, $a0, $a1
	beqz	$a2, .LBB8_5
# %bb.8:                                # %_ZNSt11char_traitsIcE7compareEPKcS2_m.exit.i.i.i.i.i.i.i
                                        #   in Loop: Header=BB8_7 Depth=2
	ld.d	$a0, $s4, 32
	move	$a1, $fp
	pcaddu18i	$ra, %call36(memcmp)
	jirl	$ra, $ra, 0
	bnez	$a0, .LBB8_6
	b	.LBB8_5
	.p2align	4, , 16
.LBB8_9:                                # %_ZNKSt8_Rb_treeINSt7__cxx1112basic_stringIcSt11char_traitsIcESaIcEEESt4pairIKS5_PSt6vectorI8LoopStatSaIS9_EEESt10_Select1stISD_ESt4lessIS5_ESaISD_EE14_M_lower_boundEPSt18_Rb_tree_node_baseSL_RS7_.exit.i.i.i
                                        #   in Loop: Header=BB8_3 Depth=1
	move	$a0, $s1
	beq	$s5, $s1, .LBB8_14
# %bb.10:                               # %lor.lhs.false.i.i.i
                                        #   in Loop: Header=BB8_3 Depth=1
	ld.d	$s4, $s5, 40
	sltu	$a0, $s4, $s2
	masknez	$a1, $s2, $a0
	maskeqz	$a0, $s4, $a0
	or	$a2, $a0, $a1
	beqz	$a2, .LBB8_12
# %bb.11:                               # %_ZNSt11char_traitsIcE7compareEPKcS2_m.exit.i.i.i.i.i.i
                                        #   in Loop: Header=BB8_3 Depth=1
	ld.d	$a1, $s5, 32
	move	$a0, $fp
	pcaddu18i	$ra, %call36(memcmp)
	jirl	$ra, $ra, 0
	bnez	$a0, .LBB8_13
.LBB8_12:                               # %if.then.i.i.i.i.i.i
                                        #   in Loop: Header=BB8_3 Depth=1
	sub.d	$a0, $s2, $s4
	lu12i.w	$a2, -524288
	slt	$a1, $a2, $a0
	maskeqz	$a0, $a0, $a1
	masknez	$a1, $a2, $a1
	or	$a0, $a0, $a1
	slt	$a1, $a0, $s7
	maskeqz	$a0, $a0, $a1
	masknez	$a1, $s7, $a1
	or	$a0, $a0, $a1
.LBB8_13:                               # %_ZNKSt4lessINSt7__cxx1112basic_stringIcSt11char_traitsIcESaIcEEEEclERKS5_S8_.exit.i.i.i
                                        #   in Loop: Header=BB8_3 Depth=1
	addi.w	$a0, $a0, 0
	slti	$a0, $a0, 0
	masknez	$a1, $s5, $a0
	maskeqz	$a0, $s1, $a0
	or	$a0, $a0, $a1
.LBB8_14:                               # %invoke.cont
                                        #   in Loop: Header=BB8_3 Depth=1
	ld.d	$a1, $a0, 64
.Ltmp15:                                # EH_LABEL
	addi.w	$a0, $s3, 0
	ori	$a2, $zero, 1
	pcaddu18i	$ra, %call36(_Z12computeStatsjRSt6vectorI8LoopStatSaIS0_EEb)
	jirl	$ra, $ra, 0
.Ltmp16:                                # EH_LABEL
# %bb.15:                               # %for.inc
                                        #   in Loop: Header=BB8_3 Depth=1
	addi.d	$s3, $s3, 1
	ld.d	$a0, $sp, 152                   # 8-byte Folded Reload
	bne	$s3, $a0, .LBB8_3
.LBB8_16:                               # %for.cond.cleanup
	ld.d	$s4, $sp, 120                   # 8-byte Folded Reload
	ld.d	$fp, $s4, 8
	beqz	$fp, .LBB8_26
# %bb.17:                               # %if.then9
	ld.d	$s3, $s4, 0
	addi.d	$s5, $sp, 792
	st.d	$s5, $sp, 776
	st.d	$zero, $sp, 784
	st.b	$zero, $sp, 792
	addi.d	$a1, $fp, 1
.Ltmp18:                                # EH_LABEL
	addi.d	$a0, $sp, 776
	pcaddu18i	$ra, %call36(_ZNSt7__cxx1112basic_stringIcSt11char_traitsIcESaIcEE7reserveEm)
	jirl	$ra, $ra, 0
.Ltmp19:                                # EH_LABEL
	ld.d	$s2, $sp, 136                   # 8-byte Folded Reload
# %bb.18:                               # %invoke.cont.i.i
	ld.d	$a0, $sp, 784
	addi.w	$a1, $zero, -2
	lu52i.d	$s6, $a1, 2047
	sub.d	$a0, $s6, $a0
	bltu	$a0, $fp, .LBB8_268
# %bb.19:                               # %_ZNKSt7__cxx1112basic_stringIcSt11char_traitsIcESaIcEE15_M_check_lengthEmmPKc.exit.i.i.i
.Ltmp20:                                # EH_LABEL
	addi.d	$a0, $sp, 776
	move	$a1, $s3
	move	$a2, $fp
	pcaddu18i	$ra, %call36(_ZNSt7__cxx1112basic_stringIcSt11char_traitsIcESaIcEE9_M_appendEPKcm)
	jirl	$ra, $ra, 0
.Ltmp21:                                # EH_LABEL
# %bb.20:                               # %invoke.cont1.i.i
	ld.d	$a0, $sp, 784
	beq	$a0, $s6, .LBB8_268
# %bb.21:                               # %_ZNKSt7__cxx1112basic_stringIcSt11char_traitsIcESaIcEE15_M_check_lengthEmmPKc.exit.i9.i.i
.Ltmp22:                                # EH_LABEL
	pcalau12i	$a0, %pc_hi20(.L.str.15)
	addi.d	$a1, $a0, %pc_lo12(.L.str.15)
	addi.d	$a0, $sp, 776
	ori	$a2, $zero, 1
	pcaddu18i	$ra, %call36(_ZNSt7__cxx1112basic_stringIcSt11char_traitsIcESaIcEE9_M_appendEPKcm)
	jirl	$ra, $ra, 0
.Ltmp23:                                # EH_LABEL
# %bb.22:                               # %invoke.cont11
	ld.d	$a0, $sp, 784
	addi.w	$a1, $zero, -11
	lu52i.d	$a1, $a1, 2047
	bgeu	$a0, $a1, .LBB8_272
# %bb.23:                               # %_ZNSt7__cxx1112basic_stringIcSt11char_traitsIcESaIcEE6appendEPKc.exit.i
.Ltmp24:                                # EH_LABEL
	pcalau12i	$a0, %pc_hi20(.L.str.16)
	addi.d	$a1, $a0, %pc_lo12(.L.str.16)
	addi.d	$a0, $sp, 776
	ori	$a2, $zero, 10
	pcaddu18i	$ra, %call36(_ZNSt7__cxx1112basic_stringIcSt11char_traitsIcESaIcEE9_M_appendEPKcm)
	jirl	$ra, $ra, 0
.Ltmp25:                                # EH_LABEL
# %bb.24:                               # %call2.i.i.noexc
	addi.d	$a3, $sp, 696
	st.d	$a3, $sp, 680
	ld.d	$a1, $a0, 0
	addi.d	$fp, $a0, 16
	beq	$a1, $fp, .LBB8_27
# %bb.25:                               # %if.else.i.i
	ld.d	$a2, $a0, 16
	st.d	$a2, $sp, 696
	ld.d	$s0, $a0, 8
	st.d	$a1, $sp, 680
	b	.LBB8_28
.LBB8_26:                               # %if.else
.Ltmp276:                               # EH_LABEL
	pcalau12i	$a0, %got_pc_hi20(_ZSt4cout)
	ld.d	$a1, $a0, %got_pc_lo12(_ZSt4cout)
	ld.d	$a0, $sp, 136                   # 8-byte Folded Reload
	pcaddu18i	$ra, %call36(_ZN12_GLOBAL__N_124writeTimingSummaryReportERKSt6vectorINSt7__cxx1112basic_stringIcSt11char_traitsIcESaIcEEESaIS6_EERSo)
	jirl	$ra, $ra, 0
.Ltmp277:                               # EH_LABEL
	b	.LBB8_148
.LBB8_27:                               # %_ZNSt11char_traitsIcE4copyEPcPKcm.exit.i.i
	ld.d	$s0, $a0, 8
	addi.d	$a2, $s0, 1
	move	$s1, $a0
	move	$a0, $a3
	move	$a1, $fp
	pcaddu18i	$ra, %call36(memcpy)
	jirl	$ra, $ra, 0
	move	$a0, $s1
.LBB8_28:                               # %invoke.cont13
	st.d	$s0, $sp, 688
	st.d	$fp, $a0, 0
	ld.d	$a1, $sp, 776
	st.d	$zero, $a0, 8
	st.b	$zero, $a0, 16
	beq	$a1, $s5, .LBB8_30
# %bb.29:                               # %if.then.i.i
	move	$a0, $a1
	pcaddu18i	$ra, %call36(_ZdlPv)
	jirl	$ra, $ra, 0
.LBB8_30:                               # %_ZNSt7__cxx1112basic_stringIcSt11char_traitsIcESaIcEED2Ev.exit
	ld.d	$a1, $sp, 680
.Ltmp26:                                # EH_LABEL
	addi.d	$a0, $sp, 168
	ori	$a2, $zero, 48
	addi.d	$fp, $sp, 168
	pcaddu18i	$ra, %call36(_ZNSt14basic_ofstreamIcSt11char_traitsIcEEC1EPKcSt13_Ios_Openmode)
	jirl	$ra, $ra, 0
.Ltmp27:                                # EH_LABEL
# %bb.31:                               # %invoke.cont19
	ld.d	$a0, $sp, 168
	ld.d	$a0, $a0, -24
	add.d	$a0, $fp, $a0
	ld.bu	$a0, $a0, 32
	andi	$a0, $a0, 5
	beqz	$a0, .LBB8_41
# %bb.32:                               # %if.then21
.Ltmp29:                                # EH_LABEL
	pcalau12i	$a0, %got_pc_hi20(_ZSt4cout)
	ld.d	$a0, $a0, %got_pc_lo12(_ZSt4cout)
	pcalau12i	$a1, %pc_hi20(.L.str.17)
	addi.d	$a1, $a1, %pc_lo12(.L.str.17)
	ori	$a2, $zero, 31
	pcaddu18i	$ra, %call36(_ZSt16__ostream_insertIcSt11char_traitsIcEERSt13basic_ostreamIT_T0_ES6_PKS3_l)
	jirl	$ra, $ra, 0
.Ltmp30:                                # EH_LABEL
# %bb.33:                               # %invoke.cont22
	ld.d	$a1, $sp, 680
	ld.d	$a2, $sp, 688
.Ltmp31:                                # EH_LABEL
	pcalau12i	$a0, %got_pc_hi20(_ZSt4cout)
	ld.d	$a0, $a0, %got_pc_lo12(_ZSt4cout)
	pcaddu18i	$ra, %call36(_ZSt16__ostream_insertIcSt11char_traitsIcEERSt13basic_ostreamIT_T0_ES6_PKS3_l)
	jirl	$ra, $ra, 0
.Ltmp32:                                # EH_LABEL
# %bb.34:                               # %invoke.cont24
	move	$fp, $a0
	ld.d	$a0, $a0, 0
	ld.d	$a0, $a0, -24
	add.d	$a0, $fp, $a0
	ld.d	$s3, $a0, 240
	beqz	$s3, .LBB8_270
# %bb.35:                               # %_ZSt13__check_facetISt5ctypeIcEERKT_PS3_.exit.i.i
	ld.bu	$a0, $s3, 56
	beqz	$a0, .LBB8_37
# %bb.36:                               # %if.then.i2.i.i
	ld.bu	$a0, $s3, 67
	b	.LBB8_39
.LBB8_37:                               # %if.end.i.i.i
.Ltmp33:                                # EH_LABEL
	move	$a0, $s3
	pcaddu18i	$ra, %call36(_ZNKSt5ctypeIcE13_M_widen_initEv)
	jirl	$ra, $ra, 0
.Ltmp34:                                # EH_LABEL
# %bb.38:                               # %.noexc541
	ld.d	$a0, $s3, 0
	ld.d	$a2, $a0, 48
.Ltmp35:                                # EH_LABEL
	ori	$a1, $zero, 10
	move	$a0, $s3
	jirl	$ra, $a2, 0
.Ltmp36:                                # EH_LABEL
.LBB8_39:                               # %_ZNKSt9basic_iosIcSt11char_traitsIcEE5widenEc.exit.i
.Ltmp37:                                # EH_LABEL
	ext.w.b	$a1, $a0
	move	$a0, $fp
	pcaddu18i	$ra, %call36(_ZNSo3putEc)
	jirl	$ra, $ra, 0
.Ltmp38:                                # EH_LABEL
# %bb.40:                               # %call1.i.noexc
.Ltmp39:                                # EH_LABEL
	pcaddu18i	$ra, %call36(_ZNSo5flushEv)
	jirl	$ra, $ra, 0
.Ltmp40:                                # EH_LABEL
.LBB8_41:                               # %if.end28
.Ltmp41:                                # EH_LABEL
	pcalau12i	$a0, %got_pc_hi20(_ZSt4cout)
	ld.d	$a0, $a0, %got_pc_lo12(_ZSt4cout)
	pcalau12i	$a1, %pc_hi20(.L.str.18)
	addi.d	$a1, $a1, %pc_lo12(.L.str.18)
	ori	$a2, $zero, 32
	pcaddu18i	$ra, %call36(_ZSt16__ostream_insertIcSt11char_traitsIcEERSt13basic_ostreamIT_T0_ES6_PKS3_l)
	jirl	$ra, $ra, 0
.Ltmp42:                                # EH_LABEL
# %bb.42:                               # %invoke.cont29
	ld.d	$a1, $sp, 680
	ld.d	$a2, $sp, 688
.Ltmp43:                                # EH_LABEL
	pcalau12i	$a0, %got_pc_hi20(_ZSt4cout)
	ld.d	$a0, $a0, %got_pc_lo12(_ZSt4cout)
	pcaddu18i	$ra, %call36(_ZSt16__ostream_insertIcSt11char_traitsIcEERSt13basic_ostreamIT_T0_ES6_PKS3_l)
	jirl	$ra, $ra, 0
.Ltmp44:                                # EH_LABEL
# %bb.43:                               # %invoke.cont31
	move	$fp, $a0
	ld.d	$a0, $a0, 0
	ld.d	$a0, $a0, -24
	add.d	$a0, $fp, $a0
	ld.d	$s3, $a0, 240
	beqz	$s3, .LBB8_270
# %bb.44:                               # %_ZSt13__check_facetISt5ctypeIcEERKT_PS3_.exit.i.i551
	ld.bu	$a0, $s3, 56
	beqz	$a0, .LBB8_46
# %bb.45:                               # %if.then.i2.i.i554
	ld.bu	$a0, $s3, 67
	b	.LBB8_48
.LBB8_46:                               # %if.end.i.i.i559
.Ltmp45:                                # EH_LABEL
	move	$a0, $s3
	pcaddu18i	$ra, %call36(_ZNKSt5ctypeIcE13_M_widen_initEv)
	jirl	$ra, $ra, 0
.Ltmp46:                                # EH_LABEL
# %bb.47:                               # %.noexc565
	ld.d	$a0, $s3, 0
	ld.d	$a2, $a0, 48
.Ltmp47:                                # EH_LABEL
	ori	$a1, $zero, 10
	move	$a0, $s3
	jirl	$ra, $a2, 0
.Ltmp48:                                # EH_LABEL
.LBB8_48:                               # %_ZNKSt9basic_iosIcSt11char_traitsIcEE5widenEc.exit.i556
.Ltmp49:                                # EH_LABEL
	ext.w.b	$a1, $a0
	move	$a0, $fp
	pcaddu18i	$ra, %call36(_ZNSo3putEc)
	jirl	$ra, $ra, 0
.Ltmp50:                                # EH_LABEL
# %bb.49:                               # %call1.i.noexc567
.Ltmp51:                                # EH_LABEL
	pcaddu18i	$ra, %call36(_ZNSo5flushEv)
	jirl	$ra, $ra, 0
.Ltmp52:                                # EH_LABEL
# %bb.50:                               # %invoke.cont33
.Ltmp53:                                # EH_LABEL
	addi.d	$a1, $sp, 168
	move	$a0, $s2
	pcaddu18i	$ra, %call36(_ZN12_GLOBAL__N_124writeTimingSummaryReportERKSt6vectorINSt7__cxx1112basic_stringIcSt11char_traitsIcESaIcEEESaIS6_EERSo)
	jirl	$ra, $ra, 0
.Ltmp54:                                # EH_LABEL
# %bb.51:                               # %for.cond37.preheader
	ld.d	$a0, $sp, 144                   # 8-byte Folded Reload
	bstrpick.d	$a2, $a0, 36, 5
	pcalau12i	$a0, %got_pc_hi20(_ZTTSt14basic_ofstreamIcSt11char_traitsIcEE)
	ld.d	$a0, $a0, %got_pc_lo12(_ZTTSt14basic_ofstreamIcSt11char_traitsIcEE)
	ld.d	$a1, $a0, 0
	st.d	$a1, $sp, 96                    # 8-byte Folded Spill
	ld.d	$a0, $a0, 24
	st.d	$a0, $sp, 104                   # 8-byte Folded Spill
	st.d	$a2, $sp, 88                    # 8-byte Folded Spill
	beqz	$a2, .LBB8_146
# %bb.52:                               # %for.body40.lr.ph
	pcalau12i	$a0, %pc_hi20(.L.str.15)
	addi.d	$a0, $a0, %pc_lo12(.L.str.15)
	st.d	$a0, $sp, 56                    # 8-byte Folded Spill
	pcalau12i	$a0, %pc_hi20(.L.str.64)
	addi.d	$a0, $a0, %pc_lo12(.L.str.64)
	st.d	$a0, $sp, 48                    # 8-byte Folded Spill
	addi.w	$a0, $zero, -14
	lu52i.d	$a0, $a0, 2047
	st.d	$a0, $sp, 40                    # 8-byte Folded Spill
	pcalau12i	$a0, %got_pc_hi20(_ZSt4cout)
	ld.d	$s7, $a0, %got_pc_lo12(_ZSt4cout)
	pcalau12i	$a0, %pc_hi20(.L.str.65)
	addi.d	$a0, $a0, %pc_lo12(.L.str.65)
	st.d	$a0, $sp, 32                    # 8-byte Folded Spill
	pcalau12i	$a0, %pc_hi20(.L.str.36)
	addi.d	$a0, $a0, %pc_lo12(.L.str.36)
	st.d	$a0, $sp, 24                    # 8-byte Folded Spill
	pcalau12i	$a0, %pc_hi20(.L.str.66)
	addi.d	$a0, $a0, %pc_lo12(.L.str.66)
	st.d	$a0, $sp, 16                    # 8-byte Folded Spill
	move	$s8, $zero
	lu12i.w	$a0, 524287
	ori	$s0, $a0, 4095
	st.d	$s6, $sp, 80                    # 8-byte Folded Spill
	st.d	$s7, $sp, 8                     # 8-byte Folded Spill
	b	.LBB8_54
	.p2align	4, , 16
.LBB8_53:                               # %for.inc45
                                        #   in Loop: Header=BB8_54 Depth=1
	addi.d	$s8, $s8, 1
	ld.d	$a0, $sp, 88                    # 8-byte Folded Reload
	beq	$s8, $a0, .LBB8_145
.LBB8_54:                               # %for.body40
                                        # =>This Loop Header: Depth=1
                                        #     Child Loop BB8_89 Depth 2
                                        #     Child Loop BB8_100 Depth 2
                                        #     Child Loop BB8_113 Depth 2
                                        #       Child Loop BB8_117 Depth 3
                                        #       Child Loop BB8_129 Depth 3
	ld.d	$s1, $s2, 0
	ld.d	$fp, $s4, 0
	ld.d	$s3, $s4, 8
	addi.d	$a0, $sp, 1304
	st.d	$a0, $sp, 1288
	st.d	$zero, $sp, 1296
	st.b	$zero, $sp, 1304
	addi.d	$a1, $s3, 1
.Ltmp55:                                # EH_LABEL
	addi.d	$a0, $sp, 1288
	pcaddu18i	$ra, %call36(_ZNSt7__cxx1112basic_stringIcSt11char_traitsIcESaIcEE7reserveEm)
	jirl	$ra, $ra, 0
.Ltmp56:                                # EH_LABEL
# %bb.55:                               # %invoke.cont.i.i.i
                                        #   in Loop: Header=BB8_54 Depth=1
	ld.d	$a0, $sp, 1296
	sub.d	$a0, $s6, $a0
	bltu	$a0, $s3, .LBB8_248
# %bb.56:                               # %_ZNKSt7__cxx1112basic_stringIcSt11char_traitsIcESaIcEE15_M_check_lengthEmmPKc.exit.i.i.i.i
                                        #   in Loop: Header=BB8_54 Depth=1
.Ltmp57:                                # EH_LABEL
	addi.d	$a0, $sp, 1288
	move	$a1, $fp
	move	$a2, $s3
	pcaddu18i	$ra, %call36(_ZNSt7__cxx1112basic_stringIcSt11char_traitsIcESaIcEE9_M_appendEPKcm)
	jirl	$ra, $ra, 0
.Ltmp58:                                # EH_LABEL
# %bb.57:                               # %invoke.cont1.i.i.i
                                        #   in Loop: Header=BB8_54 Depth=1
	ld.d	$a0, $sp, 1296
	beq	$a0, $s6, .LBB8_248
# %bb.58:                               # %_ZNKSt7__cxx1112basic_stringIcSt11char_traitsIcESaIcEE15_M_check_lengthEmmPKc.exit.i9.i.i.i
                                        #   in Loop: Header=BB8_54 Depth=1
.Ltmp59:                                # EH_LABEL
	addi.d	$a0, $sp, 1288
	ori	$a2, $zero, 1
	ld.d	$a1, $sp, 56                    # 8-byte Folded Reload
	pcaddu18i	$ra, %call36(_ZNSt7__cxx1112basic_stringIcSt11char_traitsIcESaIcEE9_M_appendEPKcm)
	jirl	$ra, $ra, 0
.Ltmp60:                                # EH_LABEL
# %bb.59:                               # %_ZStplIcSt11char_traitsIcESaIcEENSt7__cxx1112basic_stringIT_T0_T1_EERKS8_PKS5_.exit.i
                                        #   in Loop: Header=BB8_54 Depth=1
	slli.d	$a0, $s8, 5
	add.d	$s2, $s1, $a0
	ld.d	$a0, $sp, 1296
	ld.d	$a2, $s2, 8
	sub.d	$a0, $s6, $a0
	bltu	$a0, $a2, .LBB8_254
# %bb.60:                               # %_ZNSt7__cxx1112basic_stringIcSt11char_traitsIcESaIcEE6appendERKS4_.exit.i.i
                                        #   in Loop: Header=BB8_54 Depth=1
.Ltmp62:                                # EH_LABEL
	ld.d	$a1, $s2, 0
	addi.d	$a0, $sp, 1288
	pcaddu18i	$ra, %call36(_ZNSt7__cxx1112basic_stringIcSt11char_traitsIcESaIcEE9_M_appendEPKcm)
	jirl	$ra, $ra, 0
.Ltmp63:                                # EH_LABEL
# %bb.61:                               # %invoke.cont.i
                                        #   in Loop: Header=BB8_54 Depth=1
	ld.d	$a1, $sp, 48                    # 8-byte Folded Reload
	ld.d	$a0, $a1, 0
	ld.d	$a1, $a1, 5
	st.d	$s5, $sp, 776
	ld.d	$a2, $sp, 1296
	st.d	$a0, $s5, 0
	st.d	$a1, $s5, 5
	ori	$a0, $zero, 13
	st.d	$a0, $sp, 784
	st.b	$zero, $sp, 805
	ld.d	$a0, $sp, 40                    # 8-byte Folded Reload
	bgeu	$a2, $a0, .LBB8_256
# %bb.62:                               # %_ZNSt7__cxx1112basic_stringIcSt11char_traitsIcESaIcEE6appendERKS4_.exit.i44.i
                                        #   in Loop: Header=BB8_54 Depth=1
.Ltmp65:                                # EH_LABEL
	addi.d	$a0, $sp, 1288
	ori	$a2, $zero, 13
	move	$a1, $s5
	pcaddu18i	$ra, %call36(_ZNSt7__cxx1112basic_stringIcSt11char_traitsIcESaIcEE9_M_appendEPKcm)
	jirl	$ra, $ra, 0
.Ltmp66:                                # EH_LABEL
# %bb.63:                               # %invoke.cont5.i
                                        #   in Loop: Header=BB8_54 Depth=1
	ld.d	$a0, $sp, 776
	beq	$a0, $s5, .LBB8_65
# %bb.64:                               # %if.then.i.i50.i
                                        #   in Loop: Header=BB8_54 Depth=1
	pcaddu18i	$ra, %call36(_ZdlPv)
	jirl	$ra, $ra, 0
.LBB8_65:                               # %_ZNSt7__cxx1112basic_stringIcSt11char_traitsIcESaIcEED2Ev.exit.i
                                        #   in Loop: Header=BB8_54 Depth=1
	ld.d	$a1, $sp, 1288
.Ltmp68:                                # EH_LABEL
	addi.d	$a0, $sp, 776
	ori	$a2, $zero, 48
	pcaddu18i	$ra, %call36(_ZNSt14basic_ofstreamIcSt11char_traitsIcEEC1EPKcSt13_Ios_Openmode)
	jirl	$ra, $ra, 0
.Ltmp69:                                # EH_LABEL
# %bb.66:                               # %invoke.cont14.i
                                        #   in Loop: Header=BB8_54 Depth=1
	ld.d	$a0, $sp, 776
	ld.d	$a0, $a0, -24
	addi.d	$a1, $sp, 776
	add.d	$a0, $a1, $a0
	ld.bu	$a0, $a0, 32
	andi	$a0, $a0, 5
	beqz	$a0, .LBB8_76
# %bb.67:                               # %if.then.i
                                        #   in Loop: Header=BB8_54 Depth=1
.Ltmp71:                                # EH_LABEL
	pcalau12i	$a0, %pc_hi20(.L.str.17)
	addi.d	$a1, $a0, %pc_lo12(.L.str.17)
	ori	$a2, $zero, 31
	move	$a0, $s7
	pcaddu18i	$ra, %call36(_ZSt16__ostream_insertIcSt11char_traitsIcEERSt13basic_ostreamIT_T0_ES6_PKS3_l)
	jirl	$ra, $ra, 0
.Ltmp72:                                # EH_LABEL
# %bb.68:                               # %invoke.cont16.i
                                        #   in Loop: Header=BB8_54 Depth=1
	ld.d	$a1, $sp, 1288
	ld.d	$a2, $sp, 1296
.Ltmp73:                                # EH_LABEL
	move	$a0, $s7
	pcaddu18i	$ra, %call36(_ZSt16__ostream_insertIcSt11char_traitsIcEERSt13basic_ostreamIT_T0_ES6_PKS3_l)
	jirl	$ra, $ra, 0
.Ltmp74:                                # EH_LABEL
# %bb.69:                               # %invoke.cont18.i
                                        #   in Loop: Header=BB8_54 Depth=1
	move	$fp, $a0
	ld.d	$a0, $a0, 0
	ld.d	$a0, $a0, -24
	add.d	$a0, $fp, $a0
	ld.d	$s3, $a0, 240
	beqz	$s3, .LBB8_252
# %bb.70:                               # %_ZSt13__check_facetISt5ctypeIcEERKT_PS3_.exit.i.i.i
                                        #   in Loop: Header=BB8_54 Depth=1
	ld.bu	$a0, $s3, 56
	beqz	$a0, .LBB8_72
# %bb.71:                               # %if.then.i2.i.i.i
                                        #   in Loop: Header=BB8_54 Depth=1
	ld.bu	$a0, $s3, 67
	b	.LBB8_74
	.p2align	4, , 16
.LBB8_72:                               # %if.end.i.i.i.i
                                        #   in Loop: Header=BB8_54 Depth=1
.Ltmp75:                                # EH_LABEL
	move	$a0, $s3
	pcaddu18i	$ra, %call36(_ZNKSt5ctypeIcE13_M_widen_initEv)
	jirl	$ra, $ra, 0
.Ltmp76:                                # EH_LABEL
# %bb.73:                               # %.noexc177.i
                                        #   in Loop: Header=BB8_54 Depth=1
	ld.d	$a0, $s3, 0
	ld.d	$a2, $a0, 48
.Ltmp77:                                # EH_LABEL
	ori	$a1, $zero, 10
	move	$a0, $s3
	jirl	$ra, $a2, 0
.Ltmp78:                                # EH_LABEL
.LBB8_74:                               # %_ZNKSt9basic_iosIcSt11char_traitsIcEE5widenEc.exit.i.i
                                        #   in Loop: Header=BB8_54 Depth=1
.Ltmp79:                                # EH_LABEL
	ext.w.b	$a1, $a0
	move	$a0, $fp
	pcaddu18i	$ra, %call36(_ZNSo3putEc)
	jirl	$ra, $ra, 0
.Ltmp80:                                # EH_LABEL
# %bb.75:                               # %call1.i.noexc.i
                                        #   in Loop: Header=BB8_54 Depth=1
.Ltmp81:                                # EH_LABEL
	pcaddu18i	$ra, %call36(_ZNSo5flushEv)
	jirl	$ra, $ra, 0
.Ltmp82:                                # EH_LABEL
.LBB8_76:                               # %if.end.i
                                        #   in Loop: Header=BB8_54 Depth=1
.Ltmp83:                                # EH_LABEL
	ori	$a2, $zero, 27
	move	$a0, $s7
	ld.d	$a1, $sp, 32                    # 8-byte Folded Reload
	pcaddu18i	$ra, %call36(_ZSt16__ostream_insertIcSt11char_traitsIcEERSt13basic_ostreamIT_T0_ES6_PKS3_l)
	jirl	$ra, $ra, 0
.Ltmp84:                                # EH_LABEL
# %bb.77:                               # %invoke.cont22.i
                                        #   in Loop: Header=BB8_54 Depth=1
	ld.d	$a1, $sp, 1288
	ld.d	$a2, $sp, 1296
.Ltmp85:                                # EH_LABEL
	move	$a0, $s7
	pcaddu18i	$ra, %call36(_ZSt16__ostream_insertIcSt11char_traitsIcEERSt13basic_ostreamIT_T0_ES6_PKS3_l)
	jirl	$ra, $ra, 0
.Ltmp86:                                # EH_LABEL
# %bb.78:                               # %invoke.cont24.i
                                        #   in Loop: Header=BB8_54 Depth=1
	move	$fp, $a0
	ld.d	$a0, $a0, 0
	ld.d	$a0, $a0, -24
	add.d	$a0, $fp, $a0
	ld.d	$s3, $a0, 240
	beqz	$s3, .LBB8_252
# %bb.79:                               # %_ZSt13__check_facetISt5ctypeIcEERKT_PS3_.exit.i.i187.i
                                        #   in Loop: Header=BB8_54 Depth=1
	ld.bu	$a0, $s3, 56
	beqz	$a0, .LBB8_81
# %bb.80:                               # %if.then.i2.i.i190.i
                                        #   in Loop: Header=BB8_54 Depth=1
	ld.bu	$a0, $s3, 67
	b	.LBB8_83
	.p2align	4, , 16
.LBB8_81:                               # %if.end.i.i.i195.i
                                        #   in Loop: Header=BB8_54 Depth=1
.Ltmp87:                                # EH_LABEL
	move	$a0, $s3
	pcaddu18i	$ra, %call36(_ZNKSt5ctypeIcE13_M_widen_initEv)
	jirl	$ra, $ra, 0
.Ltmp88:                                # EH_LABEL
# %bb.82:                               # %.noexc200.i
                                        #   in Loop: Header=BB8_54 Depth=1
	ld.d	$a0, $s3, 0
	ld.d	$a2, $a0, 48
.Ltmp89:                                # EH_LABEL
	ori	$a1, $zero, 10
	move	$a0, $s3
	jirl	$ra, $a2, 0
.Ltmp90:                                # EH_LABEL
.LBB8_83:                               # %_ZNKSt9basic_iosIcSt11char_traitsIcEE5widenEc.exit.i192.i
                                        #   in Loop: Header=BB8_54 Depth=1
.Ltmp91:                                # EH_LABEL
	ext.w.b	$a1, $a0
	move	$a0, $fp
	pcaddu18i	$ra, %call36(_ZNSo3putEc)
	jirl	$ra, $ra, 0
.Ltmp92:                                # EH_LABEL
# %bb.84:                               # %call1.i.noexc203.i
                                        #   in Loop: Header=BB8_54 Depth=1
.Ltmp93:                                # EH_LABEL
	pcaddu18i	$ra, %call36(_ZNSo5flushEv)
	jirl	$ra, $ra, 0
.Ltmp94:                                # EH_LABEL
# %bb.85:                               # %invoke.cont26.i
                                        #   in Loop: Header=BB8_54 Depth=1
	ld.d	$a0, $sp, 24                    # 8-byte Folded Reload
	ld.b	$a1, $a0, 2
	ld.h	$a2, $a0, 0
	ld.d	$a0, $sp, 112                   # 8-byte Folded Reload
	ld.d	$s3, $a0, %pc_lo12(_ZL21s_loop_suite_run_info)
	addi.d	$a0, $sp, 760
	st.d	$a0, $sp, 744
	st.d	$a1, $sp, 72                    # 8-byte Folded Spill
	st.b	$a1, $a0, 2
	st.d	$a2, $sp, 64                    # 8-byte Folded Spill
	st.h	$a2, $a0, 0
	ori	$a0, $zero, 3
	st.d	$a0, $sp, 752
	st.b	$zero, $sp, 763
	ld.d	$a1, $s2, 0
	ld.d	$a2, $s2, 8
.Ltmp96:                                # EH_LABEL
	addi.d	$a0, $sp, 776
	pcaddu18i	$ra, %call36(_ZSt16__ostream_insertIcSt11char_traitsIcEERSt13basic_ostreamIT_T0_ES6_PKS3_l)
	jirl	$ra, $ra, 0
.Ltmp97:                                # EH_LABEL
# %bb.86:                               # %invoke.cont36.i
                                        #   in Loop: Header=BB8_54 Depth=1
.Ltmp98:                                # EH_LABEL
	ori	$a2, $zero, 16
	ld.d	$a1, $sp, 16                    # 8-byte Folded Reload
	pcaddu18i	$ra, %call36(_ZSt16__ostream_insertIcSt11char_traitsIcEERSt13basic_ostreamIT_T0_ES6_PKS3_l)
	jirl	$ra, $ra, 0
.Ltmp99:                                # EH_LABEL
# %bb.87:                               # %for.cond.preheader.i
                                        #   in Loop: Header=BB8_54 Depth=1
	ld.d	$a0, $s3, 120
	ld.d	$a1, $s3, 112
	beq	$a0, $a1, .LBB8_91
# %bb.88:                               # %for.body.i.preheader
                                        #   in Loop: Header=BB8_54 Depth=1
	ori	$fp, $zero, 1
	.p2align	4, , 16
.LBB8_89:                               # %for.body.i
                                        #   Parent Loop BB8_54 Depth=1
                                        # =>  This Inner Loop Header: Depth=2
	ld.d	$a1, $sp, 744
	ld.d	$a2, $sp, 752
.Ltmp100:                               # EH_LABEL
	addi.d	$a0, $sp, 776
	pcaddu18i	$ra, %call36(_ZSt16__ostream_insertIcSt11char_traitsIcEERSt13basic_ostreamIT_T0_ES6_PKS3_l)
	jirl	$ra, $ra, 0
.Ltmp101:                               # EH_LABEL
# %bb.90:                               # %for.inc.i
                                        #   in Loop: Header=BB8_89 Depth=2
	ld.d	$a0, $s3, 120
	ld.d	$a1, $s3, 112
	bstrpick.d	$a2, $fp, 31, 0
	sub.d	$a0, $a0, $a1
	srai.d	$a0, $a0, 5
	addi.w	$fp, $fp, 1
	bltu	$a2, $a0, .LBB8_89
.LBB8_91:                               # %for.cond.cleanup.i
                                        #   in Loop: Header=BB8_54 Depth=1
	ld.d	$a0, $sp, 776
	ld.d	$a0, $a0, -24
	addi.d	$a1, $sp, 776
	add.d	$a0, $a1, $a0
	ld.d	$fp, $a0, 240
	beqz	$fp, .LBB8_250
# %bb.92:                               # %_ZSt13__check_facetISt5ctypeIcEERKT_PS3_.exit.i.i213.i
                                        #   in Loop: Header=BB8_54 Depth=1
	ld.bu	$a0, $fp, 56
	beqz	$a0, .LBB8_94
# %bb.93:                               # %if.then.i2.i.i216.i
                                        #   in Loop: Header=BB8_54 Depth=1
	ld.bu	$a0, $fp, 67
	b	.LBB8_96
	.p2align	4, , 16
.LBB8_94:                               # %if.end.i.i.i221.i
                                        #   in Loop: Header=BB8_54 Depth=1
.Ltmp103:                               # EH_LABEL
	move	$a0, $fp
	pcaddu18i	$ra, %call36(_ZNKSt5ctypeIcE13_M_widen_initEv)
	jirl	$ra, $ra, 0
.Ltmp104:                               # EH_LABEL
# %bb.95:                               # %.noexc226.i
                                        #   in Loop: Header=BB8_54 Depth=1
	ld.d	$a0, $fp, 0
	ld.d	$a2, $a0, 48
.Ltmp105:                               # EH_LABEL
	ori	$a1, $zero, 10
	move	$a0, $fp
	jirl	$ra, $a2, 0
.Ltmp106:                               # EH_LABEL
.LBB8_96:                               # %_ZNKSt9basic_iosIcSt11char_traitsIcEE5widenEc.exit.i218.i
                                        #   in Loop: Header=BB8_54 Depth=1
.Ltmp107:                               # EH_LABEL
	ext.w.b	$a1, $a0
	addi.d	$a0, $sp, 776
	pcaddu18i	$ra, %call36(_ZNSo3putEc)
	jirl	$ra, $ra, 0
.Ltmp108:                               # EH_LABEL
# %bb.97:                               # %call1.i.noexc229.i
                                        #   in Loop: Header=BB8_54 Depth=1
.Ltmp109:                               # EH_LABEL
	pcaddu18i	$ra, %call36(_ZNSo5flushEv)
	jirl	$ra, $ra, 0
.Ltmp110:                               # EH_LABEL
# %bb.98:                               # %for.cond48.preheader.i
                                        #   in Loop: Header=BB8_54 Depth=1
	ld.d	$a0, $s3, 120
	ld.d	$a1, $s3, 112
	beq	$a0, $a1, .LBB8_103
# %bb.99:                               # %for.body53.i.preheader
                                        #   in Loop: Header=BB8_54 Depth=1
	move	$s1, $zero
	ori	$fp, $zero, 1
	.p2align	4, , 16
.LBB8_100:                              # %for.body53.i
                                        #   Parent Loop BB8_54 Depth=1
                                        # =>  This Inner Loop Header: Depth=2
	ld.d	$a1, $sp, 744
	ld.d	$a2, $sp, 752
.Ltmp111:                               # EH_LABEL
	addi.d	$a0, $sp, 776
	pcaddu18i	$ra, %call36(_ZSt16__ostream_insertIcSt11char_traitsIcEERSt13basic_ostreamIT_T0_ES6_PKS3_l)
	jirl	$ra, $ra, 0
.Ltmp112:                               # EH_LABEL
# %bb.101:                              # %invoke.cont55.i
                                        #   in Loop: Header=BB8_100 Depth=2
	ld.d	$a1, $s3, 112
	slli.d	$a2, $s1, 5
	add.d	$a3, $a1, $a2
	ldx.d	$a1, $a1, $a2
	ld.d	$a2, $a3, 8
.Ltmp113:                               # EH_LABEL
	pcaddu18i	$ra, %call36(_ZSt16__ostream_insertIcSt11char_traitsIcEERSt13basic_ostreamIT_T0_ES6_PKS3_l)
	jirl	$ra, $ra, 0
.Ltmp114:                               # EH_LABEL
# %bb.102:                              # %for.inc61.i
                                        #   in Loop: Header=BB8_100 Depth=2
	ld.d	$a0, $s3, 120
	ld.d	$a1, $s3, 112
	bstrpick.d	$s1, $fp, 31, 0
	sub.d	$a0, $a0, $a1
	srai.d	$a0, $a0, 5
	addi.w	$fp, $fp, 1
	bltu	$s1, $a0, .LBB8_100
.LBB8_103:                              # %for.cond.cleanup52.i
                                        #   in Loop: Header=BB8_54 Depth=1
	ld.d	$a0, $sp, 776
	ld.d	$a0, $a0, -24
	addi.d	$a1, $sp, 776
	add.d	$a0, $a1, $a0
	ld.d	$fp, $a0, 240
	beqz	$fp, .LBB8_250
# %bb.104:                              # %_ZSt13__check_facetISt5ctypeIcEERKT_PS3_.exit.i.i239.i
                                        #   in Loop: Header=BB8_54 Depth=1
	ld.bu	$a0, $fp, 56
	beqz	$a0, .LBB8_106
# %bb.105:                              # %if.then.i2.i.i242.i
                                        #   in Loop: Header=BB8_54 Depth=1
	ld.bu	$a0, $fp, 67
	b	.LBB8_108
	.p2align	4, , 16
.LBB8_106:                              # %if.end.i.i.i247.i
                                        #   in Loop: Header=BB8_54 Depth=1
.Ltmp116:                               # EH_LABEL
	move	$a0, $fp
	pcaddu18i	$ra, %call36(_ZNKSt5ctypeIcE13_M_widen_initEv)
	jirl	$ra, $ra, 0
.Ltmp117:                               # EH_LABEL
# %bb.107:                              # %.noexc252.i
                                        #   in Loop: Header=BB8_54 Depth=1
	ld.d	$a0, $fp, 0
	ld.d	$a2, $a0, 48
.Ltmp118:                               # EH_LABEL
	ori	$a1, $zero, 10
	move	$a0, $fp
	jirl	$ra, $a2, 0
.Ltmp119:                               # EH_LABEL
.LBB8_108:                              # %_ZNKSt9basic_iosIcSt11char_traitsIcEE5widenEc.exit.i244.i
                                        #   in Loop: Header=BB8_54 Depth=1
.Ltmp120:                               # EH_LABEL
	ext.w.b	$a1, $a0
	addi.d	$a0, $sp, 776
	pcaddu18i	$ra, %call36(_ZNSo3putEc)
	jirl	$ra, $ra, 0
.Ltmp121:                               # EH_LABEL
# %bb.109:                              # %call1.i.noexc255.i
                                        #   in Loop: Header=BB8_54 Depth=1
.Ltmp122:                               # EH_LABEL
	pcaddu18i	$ra, %call36(_ZNSo5flushEv)
	jirl	$ra, $ra, 0
.Ltmp123:                               # EH_LABEL
# %bb.110:                              # %for.cond67.preheader.i
                                        #   in Loop: Header=BB8_54 Depth=1
	st.d	$s2, $sp, 144                   # 8-byte Folded Spill
	st.d	$s8, $sp, 128                   # 8-byte Folded Spill
	ld.d	$s7, $s3, 48
	ld.d	$a4, $s3, 40
	beq	$s7, $a4, .LBB8_140
# %bb.111:                              # %for.body72.lr.ph.i
                                        #   in Loop: Header=BB8_54 Depth=1
	move	$s8, $zero
	move	$s1, $zero
	addi.d	$s6, $s3, 600
	b	.LBB8_113
	.p2align	4, , 16
.LBB8_112:                              # %if.end110.i
                                        #   in Loop: Header=BB8_113 Depth=2
	addi.w	$s1, $s1, 1
	bstrpick.d	$s8, $s1, 31, 0
	sub.d	$a0, $s7, $a4
	srai.d	$a0, $a0, 5
	bgeu	$s8, $a0, .LBB8_140
.LBB8_113:                              # %for.body72.i
                                        #   Parent Loop BB8_54 Depth=1
                                        # =>  This Loop Header: Depth=2
                                        #       Child Loop BB8_117 Depth 3
                                        #       Child Loop BB8_129 Depth 3
	st.d	$a4, $sp, 160                   # 8-byte Folded Spill
	ld.d	$s5, $s3, 608
	move	$a0, $s6
	beqz	$s5, .LBB8_124
# %bb.114:                              # %while.body.lr.ph.i.i.i.i.i
                                        #   in Loop: Header=BB8_113 Depth=2
	st.d	$s7, $sp, 152                   # 8-byte Folded Spill
	move	$s7, $s3
	ld.d	$a0, $sp, 144                   # 8-byte Folded Reload
	ld.d	$s4, $a0, 8
	ld.d	$fp, $a0, 0
	move	$s3, $s6
	move	$s2, $s6
	b	.LBB8_117
	.p2align	4, , 16
.LBB8_115:                              # %if.then.i.i.i.i.i.i.i.i
                                        #   in Loop: Header=BB8_117 Depth=3
	sub.d	$a0, $s6, $s4
	lu12i.w	$a2, -524288
	slt	$a1, $a2, $a0
	maskeqz	$a0, $a0, $a1
	masknez	$a1, $a2, $a1
	or	$a0, $a0, $a1
	slt	$a1, $a0, $s0
	maskeqz	$a0, $a0, $a1
	masknez	$a1, $s0, $a1
	or	$a0, $a0, $a1
.LBB8_116:                              # %_ZNKSt4lessINSt7__cxx1112basic_stringIcSt11char_traitsIcESaIcEEEEclERKS5_S8_.exit.i.i.i.i.i
                                        #   in Loop: Header=BB8_117 Depth=3
	addi.w	$a0, $a0, 0
	slti	$a0, $a0, 0
	masknez	$a1, $s5, $a0
	ori	$a2, $zero, 16
	masknez	$a2, $a2, $a0
	ori	$a3, $zero, 24
	maskeqz	$a3, $a3, $a0
	or	$a2, $a3, $a2
	ldx.d	$s5, $s5, $a2
	maskeqz	$a0, $s2, $a0
	or	$s2, $a0, $a1
	beqz	$s5, .LBB8_119
.LBB8_117:                              # %while.body.i.i.i.i.i
                                        #   Parent Loop BB8_54 Depth=1
                                        #     Parent Loop BB8_113 Depth=2
                                        # =>    This Inner Loop Header: Depth=3
	ld.d	$s6, $s5, 40
	sltu	$a0, $s4, $s6
	masknez	$a1, $s6, $a0
	maskeqz	$a0, $s4, $a0
	or	$a2, $a0, $a1
	beqz	$a2, .LBB8_115
# %bb.118:                              # %_ZNSt11char_traitsIcE7compareEPKcS2_m.exit.i.i.i.i.i.i.i.i
                                        #   in Loop: Header=BB8_117 Depth=3
	ld.d	$a0, $s5, 32
	move	$a1, $fp
	pcaddu18i	$ra, %call36(memcmp)
	jirl	$ra, $ra, 0
	bnez	$a0, .LBB8_116
	b	.LBB8_115
	.p2align	4, , 16
.LBB8_119:                              # %_ZNKSt8_Rb_treeINSt7__cxx1112basic_stringIcSt11char_traitsIcESaIcEEESt4pairIKS5_PSt6vectorI8LoopStatSaIS9_EEESt10_Select1stISD_ESt4lessIS5_ESaISD_EE14_M_lower_boundEPSt18_Rb_tree_node_baseSL_RS7_.exit.i.i.i.i
                                        #   in Loop: Header=BB8_113 Depth=2
	move	$s6, $s3
	move	$a0, $s3
	move	$s3, $s7
	ld.d	$s7, $sp, 152                   # 8-byte Folded Reload
	beq	$s2, $s6, .LBB8_124
# %bb.120:                              # %lor.lhs.false.i.i.i.i
                                        #   in Loop: Header=BB8_113 Depth=2
	ld.d	$s5, $s2, 40
	sltu	$a0, $s5, $s4
	masknez	$a1, $s4, $a0
	maskeqz	$a0, $s5, $a0
	or	$a2, $a0, $a1
	beqz	$a2, .LBB8_122
# %bb.121:                              # %_ZNSt11char_traitsIcE7compareEPKcS2_m.exit.i.i.i.i.i.i.i81
                                        #   in Loop: Header=BB8_113 Depth=2
	ld.d	$a1, $s2, 32
	move	$a0, $fp
	pcaddu18i	$ra, %call36(memcmp)
	jirl	$ra, $ra, 0
	bnez	$a0, .LBB8_123
.LBB8_122:                              # %if.then.i.i.i.i.i.i.i89
                                        #   in Loop: Header=BB8_113 Depth=2
	sub.d	$a0, $s4, $s5
	lu12i.w	$a2, -524288
	slt	$a1, $a2, $a0
	maskeqz	$a0, $a0, $a1
	masknez	$a1, $a2, $a1
	or	$a0, $a0, $a1
	slt	$a1, $a0, $s0
	maskeqz	$a0, $a0, $a1
	masknez	$a1, $s0, $a1
	or	$a0, $a0, $a1
.LBB8_123:                              # %_ZNKSt4lessINSt7__cxx1112basic_stringIcSt11char_traitsIcESaIcEEEEclERKS5_S8_.exit.i.i.i.i85
                                        #   in Loop: Header=BB8_113 Depth=2
	addi.w	$a0, $a0, 0
	slti	$a0, $a0, 0
	masknez	$a1, $s2, $a0
	maskeqz	$a0, $s6, $a0
	or	$a0, $a0, $a1
.LBB8_124:                              # %invoke.cont74.i
                                        #   in Loop: Header=BB8_113 Depth=2
	slli.d	$a1, $s8, 5
	ld.d	$a4, $sp, 160                   # 8-byte Folded Reload
	add.d	$a1, $a4, $a1
	ld.d	$a2, $a1, 8
	beqz	$a2, .LBB8_112
# %bb.125:                              # %land.lhs.true.i
                                        #   in Loop: Header=BB8_113 Depth=2
	ld.d	$a0, $a0, 64
	ld.d	$a0, $a0, 0
	ori	$a3, $zero, 280
	mul.d	$a3, $s8, $a3
	add.d	$fp, $a0, $a3
	ld.bu	$a0, $fp, 0
	beqz	$a0, .LBB8_112
# %bb.126:                              # %if.then81.i
                                        #   in Loop: Header=BB8_113 Depth=2
	ld.d	$a1, $a1, 0
.Ltmp124:                               # EH_LABEL
	addi.d	$a0, $sp, 776
	pcaddu18i	$ra, %call36(_ZSt16__ostream_insertIcSt11char_traitsIcEERSt13basic_ostreamIT_T0_ES6_PKS3_l)
	jirl	$ra, $ra, 0
.Ltmp125:                               # EH_LABEL
	ori	$s5, $zero, 8
# %bb.127:                              # %for.cond86.preheader.i
                                        #   in Loop: Header=BB8_113 Depth=2
	ld.d	$a0, $fp, 216
	ld.d	$a1, $fp, 208
	beq	$a0, $a1, .LBB8_132
# %bb.128:                              # %for.body91.lr.ph.i
                                        #   in Loop: Header=BB8_113 Depth=2
	move	$s4, $zero
	ori	$s2, $zero, 1
	.p2align	4, , 16
.LBB8_129:                              # %for.body91.i
                                        #   Parent Loop BB8_54 Depth=1
                                        #     Parent Loop BB8_113 Depth=2
                                        # =>    This Inner Loop Header: Depth=3
	ld.d	$a1, $sp, 744
	ld.d	$a2, $sp, 752
.Ltmp126:                               # EH_LABEL
	addi.d	$a0, $sp, 776
	pcaddu18i	$ra, %call36(_ZSt16__ostream_insertIcSt11char_traitsIcEERSt13basic_ostreamIT_T0_ES6_PKS3_l)
	jirl	$ra, $ra, 0
.Ltmp127:                               # EH_LABEL
# %bb.130:                              # %invoke.cont98.i
                                        #   in Loop: Header=BB8_129 Depth=3
	ld.d	$a1, $a0, 0
	ld.d	$a1, $a1, -24
	add.d	$a1, $a0, $a1
	st.d	$s5, $a1, 8
	ld.d	$a1, $fp, 64
	alsl.d	$a2, $s4, $a1, 4
	slli.d	$a3, $s4, 4
	ldx.d	$a1, $a1, $a3
	ld.d	$a2, $a2, 8
.Ltmp128:                               # EH_LABEL
	pcaddu18i	$ra, %call36(_ZNSo9_M_insertIeEERSoT_)
	jirl	$ra, $ra, 0
.Ltmp129:                               # EH_LABEL
# %bb.131:                              # %for.inc104.i
                                        #   in Loop: Header=BB8_129 Depth=3
	ld.d	$a0, $fp, 216
	ld.d	$a1, $fp, 208
	bstrpick.d	$s4, $s2, 31, 0
	sub.d	$a0, $a0, $a1
	srai.d	$a0, $a0, 2
	addi.w	$s2, $s2, 1
	bltu	$s4, $a0, .LBB8_129
.LBB8_132:                              # %for.cond.cleanup90.i
                                        #   in Loop: Header=BB8_113 Depth=2
	ld.d	$a0, $sp, 776
	ld.d	$a0, $a0, -24
	addi.d	$a1, $sp, 776
	add.d	$a0, $a1, $a0
	ld.d	$fp, $a0, 240
	beqz	$fp, .LBB8_244
# %bb.133:                              # %_ZSt13__check_facetISt5ctypeIcEERKT_PS3_.exit.i.i265.i
                                        #   in Loop: Header=BB8_113 Depth=2
	ld.bu	$a0, $fp, 56
	beqz	$a0, .LBB8_135
# %bb.134:                              # %if.then.i2.i.i268.i
                                        #   in Loop: Header=BB8_113 Depth=2
	ld.bu	$a0, $fp, 67
	b	.LBB8_137
.LBB8_135:                              # %if.end.i.i.i273.i
                                        #   in Loop: Header=BB8_113 Depth=2
.Ltmp131:                               # EH_LABEL
	move	$a0, $fp
	pcaddu18i	$ra, %call36(_ZNKSt5ctypeIcE13_M_widen_initEv)
	jirl	$ra, $ra, 0
.Ltmp132:                               # EH_LABEL
# %bb.136:                              # %.noexc278.i
                                        #   in Loop: Header=BB8_113 Depth=2
	ld.d	$a0, $fp, 0
	ld.d	$a2, $a0, 48
.Ltmp133:                               # EH_LABEL
	ori	$a1, $zero, 10
	move	$a0, $fp
	jirl	$ra, $a2, 0
.Ltmp134:                               # EH_LABEL
.LBB8_137:                              # %_ZNKSt9basic_iosIcSt11char_traitsIcEE5widenEc.exit.i270.i
                                        #   in Loop: Header=BB8_113 Depth=2
.Ltmp135:                               # EH_LABEL
	ext.w.b	$a1, $a0
	addi.d	$a0, $sp, 776
	pcaddu18i	$ra, %call36(_ZNSo3putEc)
	jirl	$ra, $ra, 0
.Ltmp136:                               # EH_LABEL
# %bb.138:                              # %call1.i.noexc281.i
                                        #   in Loop: Header=BB8_113 Depth=2
.Ltmp137:                               # EH_LABEL
	pcaddu18i	$ra, %call36(_ZNSo5flushEv)
	jirl	$ra, $ra, 0
.Ltmp138:                               # EH_LABEL
# %bb.139:                              # %call1.i.noexc281.if.end110_crit_edge.i
                                        #   in Loop: Header=BB8_113 Depth=2
	ld.d	$s7, $s3, 48
	ld.d	$a4, $s3, 40
	b	.LBB8_112
	.p2align	4, , 16
.LBB8_140:                              # %for.cond.cleanup71.i
                                        #   in Loop: Header=BB8_54 Depth=1
.Ltmp143:                               # EH_LABEL
	addi.d	$a0, $sp, 776
	pcaddu18i	$ra, %call36(_ZNSo5flushEv)
	jirl	$ra, $ra, 0
.Ltmp144:                               # EH_LABEL
	ld.d	$s2, $sp, 136                   # 8-byte Folded Reload
	ld.d	$s4, $sp, 120                   # 8-byte Folded Reload
	addi.d	$s5, $sp, 792
	ld.d	$s6, $sp, 80                    # 8-byte Folded Reload
	ld.d	$s7, $sp, 8                     # 8-byte Folded Reload
	ld.d	$s8, $sp, 128                   # 8-byte Folded Reload
# %bb.141:                              # %invoke.cont116.i
                                        #   in Loop: Header=BB8_54 Depth=1
	ld.d	$a0, $sp, 744
	addi.d	$a1, $sp, 760
	beq	$a0, $a1, .LBB8_143
# %bb.142:                              # %if.then.i.i147.i
                                        #   in Loop: Header=BB8_54 Depth=1
	pcaddu18i	$ra, %call36(_ZdlPv)
	jirl	$ra, $ra, 0
.LBB8_143:                              # %_ZNSt7__cxx1112basic_stringIcSt11char_traitsIcESaIcEED2Ev.exit151.i
                                        #   in Loop: Header=BB8_54 Depth=1
	ld.d	$a0, $sp, 96                    # 8-byte Folded Reload
	st.d	$a0, $sp, 776
	ld.d	$a0, $a0, -24
	ld.d	$a1, $sp, 104                   # 8-byte Folded Reload
	addi.d	$a2, $sp, 776
	stx.d	$a1, $a0, $a2
	addi.d	$a0, $sp, 784
	pcaddu18i	$ra, %call36(_ZNSt13basic_filebufIcSt11char_traitsIcEED2Ev)
	jirl	$ra, $ra, 0
	addi.d	$a0, $sp, 1024
	pcaddu18i	$ra, %call36(_ZNSt8ios_baseD2Ev)
	jirl	$ra, $ra, 0
	ld.d	$a0, $sp, 1288
	addi.d	$a1, $sp, 1304
	beq	$a0, $a1, .LBB8_53
# %bb.144:                              # %if.then.i.i153.i
                                        #   in Loop: Header=BB8_54 Depth=1
	pcaddu18i	$ra, %call36(_ZdlPv)
	jirl	$ra, $ra, 0
	b	.LBB8_53
.LBB8_145:                              # %for.cond50.preheader
	ori	$s7, $zero, 1
	ld.d	$a0, $sp, 88                    # 8-byte Folded Reload
	bne	$a0, $s7, .LBB8_151
.LBB8_146:                              # %for.cond.cleanup52
	ld.d	$a0, $sp, 96                    # 8-byte Folded Reload
	st.d	$a0, $sp, 168
	ld.d	$a0, $a0, -24
	addi.d	$a1, $sp, 168
	ld.d	$a2, $sp, 104                   # 8-byte Folded Reload
	stx.d	$a2, $a0, $a1
	addi.d	$a0, $sp, 176
	pcaddu18i	$ra, %call36(_ZNSt13basic_filebufIcSt11char_traitsIcEED2Ev)
	jirl	$ra, $ra, 0
	addi.d	$a0, $sp, 416
	pcaddu18i	$ra, %call36(_ZNSt8ios_baseD2Ev)
	jirl	$ra, $ra, 0
	ld.d	$a0, $sp, 680
	addi.d	$a1, $sp, 696
	beq	$a0, $a1, .LBB8_148
# %bb.147:                              # %if.then.i.i99
	pcaddu18i	$ra, %call36(_ZdlPv)
	jirl	$ra, $ra, 0
.LBB8_148:                              # %if.end68
	ld.d	$a0, $sp, 712
	addi.d	$a1, $sp, 728
	beq	$a0, $a1, .LBB8_150
# %bb.149:                              # %if.then.i.i520
	pcaddu18i	$ra, %call36(_ZdlPv)
	jirl	$ra, $ra, 0
.LBB8_150:                              # %return
	ld.d	$s8, $sp, 1320                  # 8-byte Folded Reload
	ld.d	$s7, $sp, 1328                  # 8-byte Folded Reload
	ld.d	$s6, $sp, 1336                  # 8-byte Folded Reload
	ld.d	$s5, $sp, 1344                  # 8-byte Folded Reload
	ld.d	$s4, $sp, 1352                  # 8-byte Folded Reload
	ld.d	$s3, $sp, 1360                  # 8-byte Folded Reload
	ld.d	$s2, $sp, 1368                  # 8-byte Folded Reload
	ld.d	$s1, $sp, 1376                  # 8-byte Folded Reload
	ld.d	$s0, $sp, 1384                  # 8-byte Folded Reload
	ld.d	$fp, $sp, 1392                  # 8-byte Folded Reload
	ld.d	$ra, $sp, 1400                  # 8-byte Folded Reload
	addi.d	$sp, $sp, 1408
	ret
.LBB8_151:                              # %for.body53.lr.ph
	pcalau12i	$a0, %pc_hi20(.L.str.15)
	addi.d	$a0, $a0, %pc_lo12(.L.str.15)
	st.d	$a0, $sp, 56                    # 8-byte Folded Spill
	pcalau12i	$a0, %pc_hi20(.L.str.67)
	addi.d	$a0, $a0, %pc_lo12(.L.str.67)
	st.d	$a0, $sp, 48                    # 8-byte Folded Spill
	addi.w	$a0, $zero, -13
	lu52i.d	$a0, $a0, 2047
	st.d	$a0, $sp, 40                    # 8-byte Folded Spill
	pcalau12i	$a0, %got_pc_hi20(_ZSt4cout)
	ld.d	$s8, $a0, %got_pc_lo12(_ZSt4cout)
	pcalau12i	$a0, %pc_hi20(.L.str.68)
	addi.d	$a0, $a0, %pc_lo12(.L.str.68)
	st.d	$a0, $sp, 32                    # 8-byte Folded Spill
	pcalau12i	$a0, %pc_hi20(.L.str.69)
	addi.d	$a0, $a0, %pc_lo12(.L.str.69)
	st.d	$a0, $sp, 24                    # 8-byte Folded Spill
	st.d	$s8, $sp, 16                    # 8-byte Folded Spill
	b	.LBB8_153
	.p2align	4, , 16
.LBB8_152:                              # %for.inc58
                                        #   in Loop: Header=BB8_153 Depth=1
	addi.d	$s7, $s7, 1
	ld.d	$a0, $sp, 88                    # 8-byte Folded Reload
	beq	$s7, $a0, .LBB8_146
.LBB8_153:                              # %for.body53
                                        # =>This Loop Header: Depth=1
                                        #     Child Loop BB8_188 Depth 2
                                        #     Child Loop BB8_199 Depth 2
                                        #     Child Loop BB8_213 Depth 2
                                        #       Child Loop BB8_217 Depth 3
                                        #       Child Loop BB8_229 Depth 3
	ld.d	$s1, $s2, 0
	ld.d	$fp, $s4, 0
	ld.d	$s3, $s4, 8
	addi.d	$a0, $sp, 1304
	st.d	$a0, $sp, 1288
	st.d	$zero, $sp, 1296
	st.b	$zero, $sp, 1304
	addi.d	$a1, $s3, 1
.Ltmp146:                               # EH_LABEL
	addi.d	$a0, $sp, 1288
	pcaddu18i	$ra, %call36(_ZNSt7__cxx1112basic_stringIcSt11char_traitsIcESaIcEE7reserveEm)
	jirl	$ra, $ra, 0
.Ltmp147:                               # EH_LABEL
# %bb.154:                              # %invoke.cont.i.i.i120
                                        #   in Loop: Header=BB8_153 Depth=1
	ld.d	$a0, $sp, 1296
	sub.d	$a0, $s6, $a0
	bltu	$a0, $s3, .LBB8_258
# %bb.155:                              # %_ZNKSt7__cxx1112basic_stringIcSt11char_traitsIcESaIcEE15_M_check_lengthEmmPKc.exit.i.i.i.i124
                                        #   in Loop: Header=BB8_153 Depth=1
.Ltmp148:                               # EH_LABEL
	addi.d	$a0, $sp, 1288
	move	$a1, $fp
	move	$a2, $s3
	pcaddu18i	$ra, %call36(_ZNSt7__cxx1112basic_stringIcSt11char_traitsIcESaIcEE9_M_appendEPKcm)
	jirl	$ra, $ra, 0
.Ltmp149:                               # EH_LABEL
# %bb.156:                              # %invoke.cont1.i.i.i126
                                        #   in Loop: Header=BB8_153 Depth=1
	ld.d	$a0, $sp, 1296
	beq	$a0, $s6, .LBB8_258
# %bb.157:                              # %_ZNKSt7__cxx1112basic_stringIcSt11char_traitsIcESaIcEE15_M_check_lengthEmmPKc.exit.i9.i.i.i129
                                        #   in Loop: Header=BB8_153 Depth=1
.Ltmp150:                               # EH_LABEL
	addi.d	$a0, $sp, 1288
	ori	$a2, $zero, 1
	ld.d	$a1, $sp, 56                    # 8-byte Folded Reload
	pcaddu18i	$ra, %call36(_ZNSt7__cxx1112basic_stringIcSt11char_traitsIcESaIcEE9_M_appendEPKcm)
	jirl	$ra, $ra, 0
.Ltmp151:                               # EH_LABEL
# %bb.158:                              # %_ZStplIcSt11char_traitsIcESaIcEENSt7__cxx1112basic_stringIT_T0_T1_EERKS8_PKS5_.exit.i131
                                        #   in Loop: Header=BB8_153 Depth=1
	slli.d	$a0, $s7, 5
	add.d	$s2, $s1, $a0
	ld.d	$a0, $sp, 1296
	ld.d	$a2, $s2, 8
	sub.d	$a0, $s6, $a0
	bltu	$a0, $a2, .LBB8_266
# %bb.159:                              # %_ZNSt7__cxx1112basic_stringIcSt11char_traitsIcESaIcEE6appendERKS4_.exit.i.i137
                                        #   in Loop: Header=BB8_153 Depth=1
.Ltmp153:                               # EH_LABEL
	ld.d	$a1, $s2, 0
	addi.d	$a0, $sp, 1288
	pcaddu18i	$ra, %call36(_ZNSt7__cxx1112basic_stringIcSt11char_traitsIcESaIcEE9_M_appendEPKcm)
	jirl	$ra, $ra, 0
.Ltmp154:                               # EH_LABEL
# %bb.160:                              # %invoke.cont.i147
                                        #   in Loop: Header=BB8_153 Depth=1
	ld.d	$a1, $sp, 48                    # 8-byte Folded Reload
	ld.d	$a0, $a1, 0
	ld.w	$a1, $a1, 8
	st.d	$s5, $sp, 776
	ld.d	$a2, $sp, 1296
	st.d	$a0, $s5, 0
	st.w	$a1, $s5, 8
	ori	$a0, $zero, 12
	st.d	$a0, $sp, 784
	st.b	$zero, $sp, 804
	ld.d	$a0, $sp, 40                    # 8-byte Folded Reload
	bgeu	$a2, $a0, .LBB8_264
# %bb.161:                              # %_ZNSt7__cxx1112basic_stringIcSt11char_traitsIcESaIcEE6appendERKS4_.exit.i44.i152
                                        #   in Loop: Header=BB8_153 Depth=1
.Ltmp156:                               # EH_LABEL
	addi.d	$a0, $sp, 1288
	ori	$a2, $zero, 12
	move	$a1, $s5
	pcaddu18i	$ra, %call36(_ZNSt7__cxx1112basic_stringIcSt11char_traitsIcESaIcEE9_M_appendEPKcm)
	jirl	$ra, $ra, 0
.Ltmp157:                               # EH_LABEL
# %bb.162:                              # %invoke.cont5.i160
                                        #   in Loop: Header=BB8_153 Depth=1
	ld.d	$a0, $sp, 776
	beq	$a0, $s5, .LBB8_164
# %bb.163:                              # %if.then.i.i50.i162
                                        #   in Loop: Header=BB8_153 Depth=1
	pcaddu18i	$ra, %call36(_ZdlPv)
	jirl	$ra, $ra, 0
.LBB8_164:                              # %_ZNSt7__cxx1112basic_stringIcSt11char_traitsIcESaIcEED2Ev.exit.i163
                                        #   in Loop: Header=BB8_153 Depth=1
	ld.d	$a1, $sp, 1288
.Ltmp159:                               # EH_LABEL
	addi.d	$a0, $sp, 776
	ori	$a2, $zero, 48
	pcaddu18i	$ra, %call36(_ZNSt14basic_ofstreamIcSt11char_traitsIcEEC1EPKcSt13_Ios_Openmode)
	jirl	$ra, $ra, 0
.Ltmp160:                               # EH_LABEL
# %bb.165:                              # %invoke.cont14.i167
                                        #   in Loop: Header=BB8_153 Depth=1
	ld.d	$a0, $sp, 776
	ld.d	$a0, $a0, -24
	addi.d	$a1, $sp, 776
	add.d	$a0, $a1, $a0
	ld.bu	$a0, $a0, 32
	andi	$a0, $a0, 5
	beqz	$a0, .LBB8_175
# %bb.166:                              # %if.then.i175
                                        #   in Loop: Header=BB8_153 Depth=1
.Ltmp162:                               # EH_LABEL
	pcalau12i	$a0, %pc_hi20(.L.str.17)
	addi.d	$a1, $a0, %pc_lo12(.L.str.17)
	ori	$a2, $zero, 31
	move	$a0, $s8
	pcaddu18i	$ra, %call36(_ZSt16__ostream_insertIcSt11char_traitsIcEERSt13basic_ostreamIT_T0_ES6_PKS3_l)
	jirl	$ra, $ra, 0
.Ltmp163:                               # EH_LABEL
# %bb.167:                              # %invoke.cont16.i180
                                        #   in Loop: Header=BB8_153 Depth=1
	ld.d	$a1, $sp, 1288
	ld.d	$a2, $sp, 1296
.Ltmp164:                               # EH_LABEL
	move	$a0, $s8
	pcaddu18i	$ra, %call36(_ZSt16__ostream_insertIcSt11char_traitsIcEERSt13basic_ostreamIT_T0_ES6_PKS3_l)
	jirl	$ra, $ra, 0
.Ltmp165:                               # EH_LABEL
# %bb.168:                              # %invoke.cont18.i183
                                        #   in Loop: Header=BB8_153 Depth=1
	move	$fp, $a0
	ld.d	$a0, $a0, 0
	ld.d	$a0, $a0, -24
	add.d	$a0, $fp, $a0
	ld.d	$s3, $a0, 240
	beqz	$s3, .LBB8_262
# %bb.169:                              # %_ZSt13__check_facetISt5ctypeIcEERKT_PS3_.exit.i.i.i190
                                        #   in Loop: Header=BB8_153 Depth=1
	ld.bu	$a0, $s3, 56
	beqz	$a0, .LBB8_171
# %bb.170:                              # %if.then.i2.i.i.i193
                                        #   in Loop: Header=BB8_153 Depth=1
	ld.bu	$a0, $s3, 67
	b	.LBB8_173
	.p2align	4, , 16
.LBB8_171:                              # %if.end.i.i.i.i498
                                        #   in Loop: Header=BB8_153 Depth=1
.Ltmp166:                               # EH_LABEL
	move	$a0, $s3
	pcaddu18i	$ra, %call36(_ZNKSt5ctypeIcE13_M_widen_initEv)
	jirl	$ra, $ra, 0
.Ltmp167:                               # EH_LABEL
# %bb.172:                              # %.noexc177.i499
                                        #   in Loop: Header=BB8_153 Depth=1
	ld.d	$a0, $s3, 0
	ld.d	$a2, $a0, 48
.Ltmp168:                               # EH_LABEL
	ori	$a1, $zero, 10
	move	$a0, $s3
	jirl	$ra, $a2, 0
.Ltmp169:                               # EH_LABEL
.LBB8_173:                              # %_ZNKSt9basic_iosIcSt11char_traitsIcEE5widenEc.exit.i.i195
                                        #   in Loop: Header=BB8_153 Depth=1
.Ltmp170:                               # EH_LABEL
	ext.w.b	$a1, $a0
	move	$a0, $fp
	pcaddu18i	$ra, %call36(_ZNSo3putEc)
	jirl	$ra, $ra, 0
.Ltmp171:                               # EH_LABEL
# %bb.174:                              # %call1.i.noexc.i198
                                        #   in Loop: Header=BB8_153 Depth=1
.Ltmp172:                               # EH_LABEL
	pcaddu18i	$ra, %call36(_ZNSo5flushEv)
	jirl	$ra, $ra, 0
.Ltmp173:                               # EH_LABEL
.LBB8_175:                              # %if.end.i200
                                        #   in Loop: Header=BB8_153 Depth=1
.Ltmp174:                               # EH_LABEL
	ori	$a2, $zero, 31
	move	$a0, $s8
	ld.d	$a1, $sp, 32                    # 8-byte Folded Reload
	pcaddu18i	$ra, %call36(_ZSt16__ostream_insertIcSt11char_traitsIcEERSt13basic_ostreamIT_T0_ES6_PKS3_l)
	jirl	$ra, $ra, 0
.Ltmp175:                               # EH_LABEL
# %bb.176:                              # %invoke.cont22.i202
                                        #   in Loop: Header=BB8_153 Depth=1
	ld.d	$a1, $sp, 1288
	ld.d	$a2, $sp, 1296
.Ltmp176:                               # EH_LABEL
	move	$a0, $s8
	pcaddu18i	$ra, %call36(_ZSt16__ostream_insertIcSt11char_traitsIcEERSt13basic_ostreamIT_T0_ES6_PKS3_l)
	jirl	$ra, $ra, 0
.Ltmp177:                               # EH_LABEL
# %bb.177:                              # %invoke.cont24.i205
                                        #   in Loop: Header=BB8_153 Depth=1
	move	$fp, $a0
	ld.d	$a0, $a0, 0
	ld.d	$a0, $a0, -24
	add.d	$a0, $fp, $a0
	ld.d	$s3, $a0, 240
	beqz	$s3, .LBB8_262
# %bb.178:                              # %_ZSt13__check_facetISt5ctypeIcEERKT_PS3_.exit.i.i187.i212
                                        #   in Loop: Header=BB8_153 Depth=1
	ld.bu	$a0, $s3, 56
	beqz	$a0, .LBB8_180
# %bb.179:                              # %if.then.i2.i.i190.i215
                                        #   in Loop: Header=BB8_153 Depth=1
	ld.bu	$a0, $s3, 67
	b	.LBB8_182
	.p2align	4, , 16
.LBB8_180:                              # %if.end.i.i.i195.i491
                                        #   in Loop: Header=BB8_153 Depth=1
.Ltmp178:                               # EH_LABEL
	move	$a0, $s3
	pcaddu18i	$ra, %call36(_ZNKSt5ctypeIcE13_M_widen_initEv)
	jirl	$ra, $ra, 0
.Ltmp179:                               # EH_LABEL
# %bb.181:                              # %.noexc200.i492
                                        #   in Loop: Header=BB8_153 Depth=1
	ld.d	$a0, $s3, 0
	ld.d	$a2, $a0, 48
.Ltmp180:                               # EH_LABEL
	ori	$a1, $zero, 10
	move	$a0, $s3
	jirl	$ra, $a2, 0
.Ltmp181:                               # EH_LABEL
.LBB8_182:                              # %_ZNKSt9basic_iosIcSt11char_traitsIcEE5widenEc.exit.i192.i217
                                        #   in Loop: Header=BB8_153 Depth=1
.Ltmp182:                               # EH_LABEL
	ext.w.b	$a1, $a0
	move	$a0, $fp
	pcaddu18i	$ra, %call36(_ZNSo3putEc)
	jirl	$ra, $ra, 0
.Ltmp183:                               # EH_LABEL
# %bb.183:                              # %call1.i.noexc203.i220
                                        #   in Loop: Header=BB8_153 Depth=1
.Ltmp184:                               # EH_LABEL
	pcaddu18i	$ra, %call36(_ZNSo5flushEv)
	jirl	$ra, $ra, 0
.Ltmp185:                               # EH_LABEL
# %bb.184:                              # %invoke.cont26.i222
                                        #   in Loop: Header=BB8_153 Depth=1
	ld.d	$a0, $sp, 112                   # 8-byte Folded Reload
	ld.d	$s3, $a0, %pc_lo12(_ZL21s_loop_suite_run_info)
	addi.d	$a0, $sp, 760
	st.d	$a0, $sp, 744
	ld.d	$a1, $sp, 72                    # 8-byte Folded Reload
	st.b	$a1, $a0, 2
	ld.d	$a1, $sp, 64                    # 8-byte Folded Reload
	st.h	$a1, $a0, 0
	ori	$a0, $zero, 3
	st.d	$a0, $sp, 752
	st.b	$zero, $sp, 763
	ld.d	$a1, $s2, 0
	ld.d	$a2, $s2, 8
.Ltmp187:                               # EH_LABEL
	addi.d	$a0, $sp, 776
	pcaddu18i	$ra, %call36(_ZSt16__ostream_insertIcSt11char_traitsIcEERSt13basic_ostreamIT_T0_ES6_PKS3_l)
	jirl	$ra, $ra, 0
.Ltmp188:                               # EH_LABEL
# %bb.185:                              # %invoke.cont36.i237
                                        #   in Loop: Header=BB8_153 Depth=1
.Ltmp189:                               # EH_LABEL
	ori	$a2, $zero, 20
	ld.d	$a1, $sp, 24                    # 8-byte Folded Reload
	pcaddu18i	$ra, %call36(_ZSt16__ostream_insertIcSt11char_traitsIcEERSt13basic_ostreamIT_T0_ES6_PKS3_l)
	jirl	$ra, $ra, 0
.Ltmp190:                               # EH_LABEL
# %bb.186:                              # %for.cond.preheader.i239
                                        #   in Loop: Header=BB8_153 Depth=1
	ld.d	$a0, $s3, 120
	ld.d	$a1, $s3, 112
	beq	$a0, $a1, .LBB8_190
# %bb.187:                              # %for.body.i246.preheader
                                        #   in Loop: Header=BB8_153 Depth=1
	ori	$fp, $zero, 1
	.p2align	4, , 16
.LBB8_188:                              # %for.body.i246
                                        #   Parent Loop BB8_153 Depth=1
                                        # =>  This Inner Loop Header: Depth=2
	ld.d	$a1, $sp, 744
	ld.d	$a2, $sp, 752
.Ltmp191:                               # EH_LABEL
	addi.d	$a0, $sp, 776
	pcaddu18i	$ra, %call36(_ZSt16__ostream_insertIcSt11char_traitsIcEERSt13basic_ostreamIT_T0_ES6_PKS3_l)
	jirl	$ra, $ra, 0
.Ltmp192:                               # EH_LABEL
# %bb.189:                              # %for.inc.i251
                                        #   in Loop: Header=BB8_188 Depth=2
	ld.d	$a0, $s3, 120
	ld.d	$a1, $s3, 112
	bstrpick.d	$a2, $fp, 31, 0
	sub.d	$a0, $a0, $a1
	srai.d	$a0, $a0, 5
	addi.w	$fp, $fp, 1
	bltu	$a2, $a0, .LBB8_188
.LBB8_190:                              # %for.cond.cleanup.i260
                                        #   in Loop: Header=BB8_153 Depth=1
	ld.d	$a0, $sp, 776
	ld.d	$a0, $a0, -24
	addi.d	$a1, $sp, 776
	add.d	$a0, $a1, $a0
	ld.d	$fp, $a0, 240
	beqz	$fp, .LBB8_260
# %bb.191:                              # %_ZSt13__check_facetISt5ctypeIcEERKT_PS3_.exit.i.i213.i267
                                        #   in Loop: Header=BB8_153 Depth=1
	ld.bu	$a0, $fp, 56
	beqz	$a0, .LBB8_193
# %bb.192:                              # %if.then.i2.i.i216.i270
                                        #   in Loop: Header=BB8_153 Depth=1
	ld.bu	$a0, $fp, 67
	b	.LBB8_195
	.p2align	4, , 16
.LBB8_193:                              # %if.end.i.i.i221.i486
                                        #   in Loop: Header=BB8_153 Depth=1
.Ltmp194:                               # EH_LABEL
	move	$a0, $fp
	pcaddu18i	$ra, %call36(_ZNKSt5ctypeIcE13_M_widen_initEv)
	jirl	$ra, $ra, 0
.Ltmp195:                               # EH_LABEL
# %bb.194:                              # %.noexc226.i487
                                        #   in Loop: Header=BB8_153 Depth=1
	ld.d	$a0, $fp, 0
	ld.d	$a2, $a0, 48
.Ltmp196:                               # EH_LABEL
	ori	$a1, $zero, 10
	move	$a0, $fp
	jirl	$ra, $a2, 0
.Ltmp197:                               # EH_LABEL
.LBB8_195:                              # %_ZNKSt9basic_iosIcSt11char_traitsIcEE5widenEc.exit.i218.i272
                                        #   in Loop: Header=BB8_153 Depth=1
.Ltmp198:                               # EH_LABEL
	ext.w.b	$a1, $a0
	addi.d	$a0, $sp, 776
	pcaddu18i	$ra, %call36(_ZNSo3putEc)
	jirl	$ra, $ra, 0
.Ltmp199:                               # EH_LABEL
# %bb.196:                              # %call1.i.noexc229.i275
                                        #   in Loop: Header=BB8_153 Depth=1
.Ltmp200:                               # EH_LABEL
	pcaddu18i	$ra, %call36(_ZNSo5flushEv)
	jirl	$ra, $ra, 0
.Ltmp201:                               # EH_LABEL
# %bb.197:                              # %for.cond48.preheader.i277
                                        #   in Loop: Header=BB8_153 Depth=1
	ld.d	$a0, $s3, 120
	ld.d	$a1, $s3, 112
	beq	$a0, $a1, .LBB8_202
# %bb.198:                              # %for.body53.i283.preheader
                                        #   in Loop: Header=BB8_153 Depth=1
	move	$s1, $zero
	ori	$fp, $zero, 1
	.p2align	4, , 16
.LBB8_199:                              # %for.body53.i283
                                        #   Parent Loop BB8_153 Depth=1
                                        # =>  This Inner Loop Header: Depth=2
	ld.d	$a1, $sp, 744
	ld.d	$a2, $sp, 752
.Ltmp202:                               # EH_LABEL
	addi.d	$a0, $sp, 776
	pcaddu18i	$ra, %call36(_ZSt16__ostream_insertIcSt11char_traitsIcEERSt13basic_ostreamIT_T0_ES6_PKS3_l)
	jirl	$ra, $ra, 0
.Ltmp203:                               # EH_LABEL
# %bb.200:                              # %invoke.cont55.i289
                                        #   in Loop: Header=BB8_199 Depth=2
	ld.d	$a1, $s3, 112
	slli.d	$a2, $s1, 5
	add.d	$a3, $a1, $a2
	ldx.d	$a1, $a1, $a2
	ld.d	$a2, $a3, 8
.Ltmp204:                               # EH_LABEL
	pcaddu18i	$ra, %call36(_ZSt16__ostream_insertIcSt11char_traitsIcEERSt13basic_ostreamIT_T0_ES6_PKS3_l)
	jirl	$ra, $ra, 0
.Ltmp205:                               # EH_LABEL
# %bb.201:                              # %for.inc61.i294
                                        #   in Loop: Header=BB8_199 Depth=2
	ld.d	$a0, $s3, 120
	ld.d	$a1, $s3, 112
	bstrpick.d	$s1, $fp, 31, 0
	sub.d	$a0, $a0, $a1
	srai.d	$a0, $a0, 5
	addi.w	$fp, $fp, 1
	bltu	$s1, $a0, .LBB8_199
.LBB8_202:                              # %for.cond.cleanup52.i303
                                        #   in Loop: Header=BB8_153 Depth=1
	ld.d	$a0, $sp, 776
	ld.d	$a0, $a0, -24
	addi.d	$a1, $sp, 776
	add.d	$a0, $a1, $a0
	ld.d	$fp, $a0, 240
	beqz	$fp, .LBB8_260
# %bb.203:                              # %_ZSt13__check_facetISt5ctypeIcEERKT_PS3_.exit.i.i239.i310
                                        #   in Loop: Header=BB8_153 Depth=1
	ld.bu	$a0, $fp, 56
	beqz	$a0, .LBB8_205
# %bb.204:                              # %if.then.i2.i.i242.i313
                                        #   in Loop: Header=BB8_153 Depth=1
	ld.bu	$a0, $fp, 67
	b	.LBB8_207
	.p2align	4, , 16
.LBB8_205:                              # %if.end.i.i.i247.i479
                                        #   in Loop: Header=BB8_153 Depth=1
.Ltmp207:                               # EH_LABEL
	move	$a0, $fp
	pcaddu18i	$ra, %call36(_ZNKSt5ctypeIcE13_M_widen_initEv)
	jirl	$ra, $ra, 0
.Ltmp208:                               # EH_LABEL
# %bb.206:                              # %.noexc252.i480
                                        #   in Loop: Header=BB8_153 Depth=1
	ld.d	$a0, $fp, 0
	ld.d	$a2, $a0, 48
.Ltmp209:                               # EH_LABEL
	ori	$a1, $zero, 10
	move	$a0, $fp
	jirl	$ra, $a2, 0
.Ltmp210:                               # EH_LABEL
.LBB8_207:                              # %_ZNKSt9basic_iosIcSt11char_traitsIcEE5widenEc.exit.i244.i315
                                        #   in Loop: Header=BB8_153 Depth=1
.Ltmp211:                               # EH_LABEL
	ext.w.b	$a1, $a0
	addi.d	$a0, $sp, 776
	pcaddu18i	$ra, %call36(_ZNSo3putEc)
	jirl	$ra, $ra, 0
.Ltmp212:                               # EH_LABEL
# %bb.208:                              # %call1.i.noexc255.i318
                                        #   in Loop: Header=BB8_153 Depth=1
.Ltmp213:                               # EH_LABEL
	pcaddu18i	$ra, %call36(_ZNSo5flushEv)
	jirl	$ra, $ra, 0
.Ltmp214:                               # EH_LABEL
# %bb.209:                              # %for.cond67.preheader.i320
                                        #   in Loop: Header=BB8_153 Depth=1
	st.d	$s2, $sp, 144                   # 8-byte Folded Spill
	st.d	$s7, $sp, 128                   # 8-byte Folded Spill
	ld.d	$s1, $s3, 48
	ld.d	$a4, $s3, 40
	beq	$s1, $a4, .LBB8_239
# %bb.210:                              # %for.body72.lr.ph.i327
                                        #   in Loop: Header=BB8_153 Depth=1
	move	$s8, $zero
	move	$s7, $zero
	addi.d	$s6, $s3, 600
	b	.LBB8_213
	.p2align	4, , 16
.LBB8_211:                              # %call1.i.noexc281.if.end110_crit_edge.i457
                                        #   in Loop: Header=BB8_213 Depth=2
	ld.d	$s1, $s3, 48
	ld.d	$a4, $s3, 40
.LBB8_212:                              # %if.end110.i378
                                        #   in Loop: Header=BB8_213 Depth=2
	addi.w	$s7, $s7, 1
	bstrpick.d	$s8, $s7, 31, 0
	sub.d	$a0, $s1, $a4
	srai.d	$a0, $a0, 5
	bgeu	$s8, $a0, .LBB8_239
.LBB8_213:                              # %for.body72.i330
                                        #   Parent Loop BB8_153 Depth=1
                                        # =>  This Loop Header: Depth=2
                                        #       Child Loop BB8_217 Depth 3
                                        #       Child Loop BB8_229 Depth 3
	st.d	$a4, $sp, 160                   # 8-byte Folded Spill
	ld.d	$s2, $s3, 608
	move	$a0, $s6
	beqz	$s2, .LBB8_224
# %bb.214:                              # %while.body.lr.ph.i.i.i.i.i334
                                        #   in Loop: Header=BB8_213 Depth=2
	st.d	$s1, $sp, 152                   # 8-byte Folded Spill
	move	$s1, $s3
	ld.d	$a0, $sp, 144                   # 8-byte Folded Reload
	ld.d	$s4, $a0, 8
	ld.d	$fp, $a0, 0
	move	$s3, $s6
	move	$s5, $s6
	b	.LBB8_217
	.p2align	4, , 16
.LBB8_215:                              # %if.then.i.i.i.i.i.i.i.i474
                                        #   in Loop: Header=BB8_217 Depth=3
	sub.d	$a0, $s6, $s4
	lu12i.w	$a2, -524288
	slt	$a1, $a2, $a0
	maskeqz	$a0, $a0, $a1
	masknez	$a1, $a2, $a1
	or	$a0, $a0, $a1
	slt	$a1, $a0, $s0
	maskeqz	$a0, $a0, $a1
	masknez	$a1, $s0, $a1
	or	$a0, $a0, $a1
.LBB8_216:                              # %_ZNKSt4lessINSt7__cxx1112basic_stringIcSt11char_traitsIcESaIcEEEEclERKS5_S8_.exit.i.i.i.i.i347
                                        #   in Loop: Header=BB8_217 Depth=3
	addi.w	$a0, $a0, 0
	slti	$a0, $a0, 0
	masknez	$a1, $s2, $a0
	ori	$a2, $zero, 16
	masknez	$a2, $a2, $a0
	ori	$a3, $zero, 24
	maskeqz	$a3, $a3, $a0
	or	$a2, $a3, $a2
	ldx.d	$s2, $s2, $a2
	maskeqz	$a0, $s5, $a0
	or	$s5, $a0, $a1
	beqz	$s2, .LBB8_219
.LBB8_217:                              # %while.body.i.i.i.i.i336
                                        #   Parent Loop BB8_153 Depth=1
                                        #     Parent Loop BB8_213 Depth=2
                                        # =>    This Inner Loop Header: Depth=3
	ld.d	$s6, $s2, 40
	sltu	$a0, $s4, $s6
	masknez	$a1, $s6, $a0
	maskeqz	$a0, $s4, $a0
	or	$a2, $a0, $a1
	beqz	$a2, .LBB8_215
# %bb.218:                              # %_ZNSt11char_traitsIcE7compareEPKcS2_m.exit.i.i.i.i.i.i.i.i343
                                        #   in Loop: Header=BB8_217 Depth=3
	ld.d	$a0, $s2, 32
	move	$a1, $fp
	pcaddu18i	$ra, %call36(memcmp)
	jirl	$ra, $ra, 0
	bnez	$a0, .LBB8_216
	b	.LBB8_215
	.p2align	4, , 16
.LBB8_219:                              # %_ZNKSt8_Rb_treeINSt7__cxx1112basic_stringIcSt11char_traitsIcESaIcEEESt4pairIKS5_PSt6vectorI8LoopStatSaIS9_EEESt10_Select1stISD_ESt4lessIS5_ESaISD_EE14_M_lower_boundEPSt18_Rb_tree_node_baseSL_RS7_.exit.i.i.i.i355
                                        #   in Loop: Header=BB8_213 Depth=2
	move	$s6, $s3
	move	$a0, $s3
	move	$s3, $s1
	ld.d	$s1, $sp, 152                   # 8-byte Folded Reload
	beq	$s5, $s6, .LBB8_224
# %bb.220:                              # %lor.lhs.false.i.i.i.i357
                                        #   in Loop: Header=BB8_213 Depth=2
	ld.d	$s2, $s5, 40
	sltu	$a0, $s2, $s4
	masknez	$a1, $s4, $a0
	maskeqz	$a0, $s2, $a0
	or	$a2, $a0, $a1
	beqz	$a2, .LBB8_222
# %bb.221:                              # %_ZNSt11char_traitsIcE7compareEPKcS2_m.exit.i.i.i.i.i.i.i362
                                        #   in Loop: Header=BB8_213 Depth=2
	ld.d	$a1, $s5, 32
	move	$a0, $fp
	pcaddu18i	$ra, %call36(memcmp)
	jirl	$ra, $ra, 0
	bnez	$a0, .LBB8_223
.LBB8_222:                              # %if.then.i.i.i.i.i.i.i469
                                        #   in Loop: Header=BB8_213 Depth=2
	sub.d	$a0, $s4, $s2
	lu12i.w	$a2, -524288
	slt	$a1, $a2, $a0
	maskeqz	$a0, $a0, $a1
	masknez	$a1, $a2, $a1
	or	$a0, $a0, $a1
	slt	$a1, $a0, $s0
	maskeqz	$a0, $a0, $a1
	masknez	$a1, $s0, $a1
	or	$a0, $a0, $a1
.LBB8_223:                              # %_ZNKSt4lessINSt7__cxx1112basic_stringIcSt11char_traitsIcESaIcEEEEclERKS5_S8_.exit.i.i.i.i366
                                        #   in Loop: Header=BB8_213 Depth=2
	addi.w	$a0, $a0, 0
	slti	$a0, $a0, 0
	masknez	$a1, $s5, $a0
	maskeqz	$a0, $s6, $a0
	or	$a0, $a0, $a1
.LBB8_224:                              # %invoke.cont74.i369
                                        #   in Loop: Header=BB8_213 Depth=2
	slli.d	$a1, $s8, 5
	ld.d	$a4, $sp, 160                   # 8-byte Folded Reload
	add.d	$a1, $a4, $a1
	ld.d	$a2, $a1, 8
	beqz	$a2, .LBB8_212
# %bb.225:                              # %land.lhs.true.i376
                                        #   in Loop: Header=BB8_213 Depth=2
	ld.d	$a0, $a0, 64
	ld.d	$a0, $a0, 0
	ori	$a3, $zero, 280
	mul.d	$a3, $s8, $a3
	add.d	$fp, $a0, $a3
	ld.bu	$a0, $fp, 0
	beqz	$a0, .LBB8_212
# %bb.226:                              # %if.then81.i403
                                        #   in Loop: Header=BB8_213 Depth=2
	ld.d	$a1, $a1, 0
.Ltmp215:                               # EH_LABEL
	addi.d	$a0, $sp, 776
	pcaddu18i	$ra, %call36(_ZSt16__ostream_insertIcSt11char_traitsIcEERSt13basic_ostreamIT_T0_ES6_PKS3_l)
	jirl	$ra, $ra, 0
.Ltmp216:                               # EH_LABEL
	ori	$s4, $zero, 6
# %bb.227:                              # %for.cond86.preheader.i408
                                        #   in Loop: Header=BB8_213 Depth=2
	ld.d	$a0, $fp, 216
	ld.d	$a1, $fp, 208
	beq	$a0, $a1, .LBB8_232
# %bb.228:                              # %for.body91.lr.ph.i416
                                        #   in Loop: Header=BB8_213 Depth=2
	move	$s2, $zero
	ori	$s1, $zero, 1
	.p2align	4, , 16
.LBB8_229:                              # %for.body91.i417
                                        #   Parent Loop BB8_153 Depth=1
                                        #     Parent Loop BB8_213 Depth=2
                                        # =>    This Inner Loop Header: Depth=3
	ld.d	$a1, $sp, 744
	ld.d	$a2, $sp, 752
.Ltmp217:                               # EH_LABEL
	addi.d	$a0, $sp, 776
	pcaddu18i	$ra, %call36(_ZSt16__ostream_insertIcSt11char_traitsIcEERSt13basic_ostreamIT_T0_ES6_PKS3_l)
	jirl	$ra, $ra, 0
.Ltmp218:                               # EH_LABEL
# %bb.230:                              # %invoke.cont98.i423
                                        #   in Loop: Header=BB8_229 Depth=3
	ld.d	$a1, $a0, 0
	ld.d	$a1, $a1, -24
	add.d	$a1, $a0, $a1
	st.d	$s4, $a1, 8
	ld.d	$a1, $fp, 184
	alsl.d	$a2, $s2, $a1, 4
	slli.d	$a3, $s2, 4
	ldx.d	$a1, $a1, $a3
	ld.d	$a2, $a2, 8
.Ltmp219:                               # EH_LABEL
	pcaddu18i	$ra, %call36(_ZNSo9_M_insertIeEERSoT_)
	jirl	$ra, $ra, 0
.Ltmp220:                               # EH_LABEL
# %bb.231:                              # %for.inc104.i431
                                        #   in Loop: Header=BB8_229 Depth=3
	ld.d	$a0, $fp, 216
	ld.d	$a1, $fp, 208
	bstrpick.d	$s2, $s1, 31, 0
	sub.d	$a0, $a0, $a1
	srai.d	$a0, $a0, 2
	addi.w	$s1, $s1, 1
	bltu	$s2, $a0, .LBB8_229
.LBB8_232:                              # %for.cond.cleanup90.i440
                                        #   in Loop: Header=BB8_213 Depth=2
	ld.d	$a0, $sp, 776
	ld.d	$a0, $a0, -24
	addi.d	$a1, $sp, 776
	add.d	$a0, $a1, $a0
	ld.d	$fp, $a0, 240
	beqz	$fp, .LBB8_246
# %bb.233:                              # %_ZSt13__check_facetISt5ctypeIcEERKT_PS3_.exit.i.i265.i447
                                        #   in Loop: Header=BB8_213 Depth=2
	ld.bu	$a0, $fp, 56
	beqz	$a0, .LBB8_235
# %bb.234:                              # %if.then.i2.i.i268.i450
                                        #   in Loop: Header=BB8_213 Depth=2
	ld.bu	$a0, $fp, 67
	b	.LBB8_237
.LBB8_235:                              # %if.end.i.i.i273.i460
                                        #   in Loop: Header=BB8_213 Depth=2
.Ltmp222:                               # EH_LABEL
	move	$a0, $fp
	pcaddu18i	$ra, %call36(_ZNKSt5ctypeIcE13_M_widen_initEv)
	jirl	$ra, $ra, 0
.Ltmp223:                               # EH_LABEL
# %bb.236:                              # %.noexc278.i461
                                        #   in Loop: Header=BB8_213 Depth=2
	ld.d	$a0, $fp, 0
	ld.d	$a2, $a0, 48
.Ltmp224:                               # EH_LABEL
	ori	$a1, $zero, 10
	move	$a0, $fp
	jirl	$ra, $a2, 0
.Ltmp225:                               # EH_LABEL
.LBB8_237:                              # %_ZNKSt9basic_iosIcSt11char_traitsIcEE5widenEc.exit.i270.i452
                                        #   in Loop: Header=BB8_213 Depth=2
.Ltmp226:                               # EH_LABEL
	ext.w.b	$a1, $a0
	addi.d	$a0, $sp, 776
	pcaddu18i	$ra, %call36(_ZNSo3putEc)
	jirl	$ra, $ra, 0
.Ltmp227:                               # EH_LABEL
# %bb.238:                              # %call1.i.noexc281.i455
                                        #   in Loop: Header=BB8_213 Depth=2
.Ltmp228:                               # EH_LABEL
	pcaddu18i	$ra, %call36(_ZNSo5flushEv)
	jirl	$ra, $ra, 0
.Ltmp229:                               # EH_LABEL
	b	.LBB8_211
	.p2align	4, , 16
.LBB8_239:                              # %for.cond.cleanup71.i387
                                        #   in Loop: Header=BB8_153 Depth=1
.Ltmp234:                               # EH_LABEL
	addi.d	$a0, $sp, 776
	pcaddu18i	$ra, %call36(_ZNSo5flushEv)
	jirl	$ra, $ra, 0
.Ltmp235:                               # EH_LABEL
	ld.d	$s2, $sp, 136                   # 8-byte Folded Reload
	ld.d	$s4, $sp, 120                   # 8-byte Folded Reload
	addi.d	$s5, $sp, 792
	ld.d	$s6, $sp, 80                    # 8-byte Folded Reload
	ld.d	$s7, $sp, 128                   # 8-byte Folded Reload
	ld.d	$s8, $sp, 16                    # 8-byte Folded Reload
# %bb.240:                              # %invoke.cont116.i389
                                        #   in Loop: Header=BB8_153 Depth=1
	ld.d	$a0, $sp, 744
	addi.d	$a1, $sp, 760
	beq	$a0, $a1, .LBB8_242
# %bb.241:                              # %if.then.i.i147.i391
                                        #   in Loop: Header=BB8_153 Depth=1
	pcaddu18i	$ra, %call36(_ZdlPv)
	jirl	$ra, $ra, 0
.LBB8_242:                              # %_ZNSt7__cxx1112basic_stringIcSt11char_traitsIcESaIcEED2Ev.exit151.i392
                                        #   in Loop: Header=BB8_153 Depth=1
	ld.d	$a0, $sp, 96                    # 8-byte Folded Reload
	st.d	$a0, $sp, 776
	ld.d	$a0, $a0, -24
	ld.d	$a1, $sp, 104                   # 8-byte Folded Reload
	addi.d	$a2, $sp, 776
	stx.d	$a1, $a0, $a2
	addi.d	$a0, $sp, 784
	pcaddu18i	$ra, %call36(_ZNSt13basic_filebufIcSt11char_traitsIcEED2Ev)
	jirl	$ra, $ra, 0
	addi.d	$a0, $sp, 1024
	pcaddu18i	$ra, %call36(_ZNSt8ios_baseD2Ev)
	jirl	$ra, $ra, 0
	ld.d	$a0, $sp, 1288
	addi.d	$a1, $sp, 1304
	beq	$a0, $a1, .LBB8_152
# %bb.243:                              # %if.then.i.i153.i398
                                        #   in Loop: Header=BB8_153 Depth=1
	pcaddu18i	$ra, %call36(_ZdlPv)
	jirl	$ra, $ra, 0
	b	.LBB8_152
.LBB8_244:                              # %if.then.i.i.i276.i
.Ltmp140:                               # EH_LABEL
	pcaddu18i	$ra, %call36(_ZSt16__throw_bad_castv)
	jirl	$ra, $ra, 0
.Ltmp141:                               # EH_LABEL
# %bb.245:                              # %.noexc277.i
.LBB8_246:                              # %if.then.i.i.i276.i465
.Ltmp231:                               # EH_LABEL
	pcaddu18i	$ra, %call36(_ZSt16__throw_bad_castv)
	jirl	$ra, $ra, 0
.Ltmp232:                               # EH_LABEL
# %bb.247:                              # %.noexc277.i468
.LBB8_248:                              # %if.then.i.i10.invoke.i.i.i
.Ltmp264:                               # EH_LABEL
	pcalau12i	$a0, %pc_hi20(.L.str.53)
	addi.d	$a0, $a0, %pc_lo12(.L.str.53)
	pcaddu18i	$ra, %call36(_ZSt20__throw_length_errorPKc)
	jirl	$ra, $ra, 0
.Ltmp265:                               # EH_LABEL
# %bb.249:                              # %if.then.i.i10.cont.i.i.i
.LBB8_250:                              # %if.then.i.i.i250.invoke.i
.Ltmp252:                               # EH_LABEL
	pcaddu18i	$ra, %call36(_ZSt16__throw_bad_castv)
	jirl	$ra, $ra, 0
.Ltmp253:                               # EH_LABEL
# %bb.251:                              # %if.then.i.i.i250.cont.i
.LBB8_252:                              # %if.then.i.i.i198.invoke.i
.Ltmp255:                               # EH_LABEL
	pcaddu18i	$ra, %call36(_ZSt16__throw_bad_castv)
	jirl	$ra, $ra, 0
.Ltmp256:                               # EH_LABEL
# %bb.253:                              # %if.then.i.i.i198.cont.i
.LBB8_254:                              # %if.then.i.i.i.i.i
.Ltmp261:                               # EH_LABEL
	pcalau12i	$a0, %pc_hi20(.L.str.53)
	addi.d	$a0, $a0, %pc_lo12(.L.str.53)
	pcaddu18i	$ra, %call36(_ZSt20__throw_length_errorPKc)
	jirl	$ra, $ra, 0
.Ltmp262:                               # EH_LABEL
# %bb.255:                              # %.noexc.i
.LBB8_256:                              # %if.then.i.i.i.i45.i
.Ltmp258:                               # EH_LABEL
	pcalau12i	$a0, %pc_hi20(.L.str.53)
	addi.d	$a0, $a0, %pc_lo12(.L.str.53)
	pcaddu18i	$ra, %call36(_ZSt20__throw_length_errorPKc)
	jirl	$ra, $ra, 0
.Ltmp259:                               # EH_LABEL
# %bb.257:                              # %.noexc46.i
.LBB8_258:                              # %if.then.i.i10.invoke.i.i.i509
.Ltmp249:                               # EH_LABEL
	pcalau12i	$a0, %pc_hi20(.L.str.53)
	addi.d	$a0, $a0, %pc_lo12(.L.str.53)
	pcaddu18i	$ra, %call36(_ZSt20__throw_length_errorPKc)
	jirl	$ra, $ra, 0
.Ltmp250:                               # EH_LABEL
# %bb.259:                              # %if.then.i.i10.cont.i.i.i510
.LBB8_260:                              # %if.then.i.i.i250.invoke.i484
.Ltmp237:                               # EH_LABEL
	pcaddu18i	$ra, %call36(_ZSt16__throw_bad_castv)
	jirl	$ra, $ra, 0
.Ltmp238:                               # EH_LABEL
# %bb.261:                              # %if.then.i.i.i250.cont.i485
.LBB8_262:                              # %if.then.i.i.i198.invoke.i496
.Ltmp240:                               # EH_LABEL
	pcaddu18i	$ra, %call36(_ZSt16__throw_bad_castv)
	jirl	$ra, $ra, 0
.Ltmp241:                               # EH_LABEL
# %bb.263:                              # %if.then.i.i.i198.cont.i497
.LBB8_264:                              # %if.then.i.i.i.i45.i505
.Ltmp243:                               # EH_LABEL
	pcalau12i	$a0, %pc_hi20(.L.str.53)
	addi.d	$a0, $a0, %pc_lo12(.L.str.53)
	pcaddu18i	$ra, %call36(_ZSt20__throw_length_errorPKc)
	jirl	$ra, $ra, 0
.Ltmp244:                               # EH_LABEL
# %bb.265:                              # %.noexc46.i506
.LBB8_266:                              # %if.then.i.i.i.i.i507
.Ltmp246:                               # EH_LABEL
	pcalau12i	$a0, %pc_hi20(.L.str.53)
	addi.d	$a0, $a0, %pc_lo12(.L.str.53)
	pcaddu18i	$ra, %call36(_ZSt20__throw_length_errorPKc)
	jirl	$ra, $ra, 0
.Ltmp247:                               # EH_LABEL
# %bb.267:                              # %.noexc.i508
.LBB8_268:                              # %if.then.i.i10.invoke.i.i
.Ltmp273:                               # EH_LABEL
	pcalau12i	$a0, %pc_hi20(.L.str.53)
	addi.d	$a0, $a0, %pc_lo12(.L.str.53)
	pcaddu18i	$ra, %call36(_ZSt20__throw_length_errorPKc)
	jirl	$ra, $ra, 0
.Ltmp274:                               # EH_LABEL
# %bb.269:                              # %if.then.i.i10.cont.i.i
.LBB8_270:                              # %if.then.i.i.i563.invoke
.Ltmp267:                               # EH_LABEL
	pcaddu18i	$ra, %call36(_ZSt16__throw_bad_castv)
	jirl	$ra, $ra, 0
.Ltmp268:                               # EH_LABEL
# %bb.271:                              # %if.then.i.i.i563.cont
.LBB8_272:                              # %if.then.i.i.i
.Ltmp270:                               # EH_LABEL
	pcalau12i	$a0, %pc_hi20(.L.str.53)
	addi.d	$a0, $a0, %pc_lo12(.L.str.53)
	pcaddu18i	$ra, %call36(_ZSt20__throw_length_errorPKc)
	jirl	$ra, $ra, 0
.Ltmp271:                               # EH_LABEL
# %bb.273:                              # %.noexc
.LBB8_274:                              # %lpad66
.Ltmp278:                               # EH_LABEL
	b	.LBB8_298
.LBB8_275:                              # %lpad16
.Ltmp28:                                # EH_LABEL
	move	$s0, $a0
	b	.LBB8_324
.LBB8_276:                              # %lpad12
.Ltmp272:                               # EH_LABEL
	b	.LBB8_278
.LBB8_277:                              # %lpad.i.i
.Ltmp275:                               # EH_LABEL
.LBB8_278:                              # %lpad12
	ld.d	$a1, $sp, 776
	move	$s0, $a0
	beq	$a1, $s5, .LBB8_326
# %bb.279:                              # %ehcleanup.sink.split
	move	$a0, $a1
	b	.LBB8_325
.LBB8_280:                              # %lpad.i139.loopexit.split-lp
.Ltmp248:                               # EH_LABEL
	move	$s0, $a0
	b	.LBB8_321
.LBB8_281:                              # %lpad4.i154.loopexit.split-lp
.Ltmp245:                               # EH_LABEL
	b	.LBB8_293
.LBB8_282:                              # %lpad.i139.loopexit
.Ltmp155:                               # EH_LABEL
	move	$s0, $a0
	b	.LBB8_321
.LBB8_283:                              # %lpad4.i154.loopexit
.Ltmp158:                               # EH_LABEL
	b	.LBB8_293
.LBB8_284:                              # %lpad11.i164
.Ltmp161:                               # EH_LABEL
	move	$s0, $a0
	b	.LBB8_321
.LBB8_285:                              # %lpad18
.Ltmp269:                               # EH_LABEL
	move	$s0, $a0
	b	.LBB8_323
.LBB8_286:                              # %lpad13.i177.loopexit.split-lp
.Ltmp242:                               # EH_LABEL
	move	$s0, $a0
	b	.LBB8_320
.LBB8_287:                              # %lpad35.i229.loopexit.split-lp
.Ltmp239:                               # EH_LABEL
	b	.LBB8_318
.LBB8_288:                              # %lpad.i.i.i113.loopexit.split-lp
.Ltmp251:                               # EH_LABEL
	b	.LBB8_303
.LBB8_289:                              # %lpad4.i.loopexit.split-lp
.Ltmp260:                               # EH_LABEL
	b	.LBB8_293
.LBB8_290:                              # %lpad.i.loopexit.split-lp
.Ltmp263:                               # EH_LABEL
	move	$s0, $a0
	b	.LBB8_321
.LBB8_291:                              # %lpad.i.loopexit
.Ltmp64:                                # EH_LABEL
	move	$s0, $a0
	b	.LBB8_321
.LBB8_292:                              # %lpad4.i.loopexit
.Ltmp67:                                # EH_LABEL
.LBB8_293:                              # %lpad4.i154
	move	$s0, $a0
	ld.d	$a0, $sp, 776
	addi.d	$a1, $sp, 792
	beq	$a0, $a1, .LBB8_321
# %bb.294:                              # %if.then.i.i60.i156
	pcaddu18i	$ra, %call36(_ZdlPv)
	jirl	$ra, $ra, 0
	b	.LBB8_321
.LBB8_295:                              # %lpad11.i
.Ltmp70:                                # EH_LABEL
	move	$s0, $a0
	b	.LBB8_321
.LBB8_296:                              # %lpad.i.i.i113.loopexit
.Ltmp152:                               # EH_LABEL
	b	.LBB8_303
.LBB8_297:                              # %lpad
.Ltmp17:                                # EH_LABEL
.LBB8_298:                              # %ehcleanup69
	move	$s0, $a0
	b	.LBB8_326
.LBB8_299:                              # %lpad13.i.loopexit.split-lp
.Ltmp257:                               # EH_LABEL
	move	$s0, $a0
	b	.LBB8_320
.LBB8_300:                              # %lpad35.i.loopexit.split-lp
.Ltmp254:                               # EH_LABEL
	b	.LBB8_318
.LBB8_301:                              # %lpad.i.i.i.loopexit.split-lp
.Ltmp266:                               # EH_LABEL
	b	.LBB8_303
.LBB8_302:                              # %lpad.i.i.i.loopexit
.Ltmp61:                                # EH_LABEL
.LBB8_303:                              # %lpad.i.i.i113
	move	$s0, $a0
	ld.d	$a0, $sp, 1288
	addi.d	$a1, $sp, 1304
	bne	$a0, $a1, .LBB8_322
	b	.LBB8_323
.LBB8_304:                              # %lpad73.loopexit.split-lp.i466
.Ltmp233:                               # EH_LABEL
	b	.LBB8_318
.LBB8_305:                              # %lpad13.i177.loopexit
.Ltmp186:                               # EH_LABEL
	move	$s0, $a0
	b	.LBB8_320
.LBB8_306:                              # %lpad35.i229.loopexit
.Ltmp236:                               # EH_LABEL
	b	.LBB8_318
.LBB8_307:                              # %lpad73.loopexit.split-lp.i
.Ltmp142:                               # EH_LABEL
	b	.LBB8_318
.LBB8_308:                              # %lpad13.i.loopexit
.Ltmp95:                                # EH_LABEL
	move	$s0, $a0
	b	.LBB8_320
.LBB8_309:                              # %lpad35.i.loopexit
.Ltmp145:                               # EH_LABEL
	b	.LBB8_318
.LBB8_310:                              # %lpad41.i250
.Ltmp193:                               # EH_LABEL
	b	.LBB8_318
.LBB8_311:                              # %lpad73.loopexit.i406
.Ltmp230:                               # EH_LABEL
	b	.LBB8_318
.LBB8_312:                              # %lpad54.i288
.Ltmp206:                               # EH_LABEL
	b	.LBB8_318
.LBB8_313:                              # %lpad41.i
.Ltmp102:                               # EH_LABEL
	b	.LBB8_318
.LBB8_314:                              # %lpad73.loopexit.i
.Ltmp139:                               # EH_LABEL
	b	.LBB8_318
.LBB8_315:                              # %lpad54.i
.Ltmp115:                               # EH_LABEL
	b	.LBB8_318
.LBB8_316:                              # %lpad92.i422
.Ltmp221:                               # EH_LABEL
	b	.LBB8_318
.LBB8_317:                              # %lpad92.i
.Ltmp130:                               # EH_LABEL
.LBB8_318:                              # %ehcleanup118.i
	move	$s0, $a0
	ld.d	$a0, $sp, 744
	addi.d	$a1, $sp, 760
	beq	$a0, $a1, .LBB8_320
# %bb.319:                              # %if.then.i.i159.i
	pcaddu18i	$ra, %call36(_ZdlPv)
	jirl	$ra, $ra, 0
.LBB8_320:                              # %ehcleanup124.i
	addi.d	$a0, $sp, 776
	pcaddu18i	$ra, %call36(_ZNSt14basic_ofstreamIcSt11char_traitsIcEED1Ev)
	jirl	$ra, $ra, 0
.LBB8_321:                              # %ehcleanup126.i
	ld.d	$a0, $sp, 1288
	addi.d	$a1, $sp, 1304
	beq	$a0, $a1, .LBB8_323
.LBB8_322:                              # %if.then.i.i165.i
	pcaddu18i	$ra, %call36(_ZdlPv)
	jirl	$ra, $ra, 0
.LBB8_323:                              # %ehcleanup62
	addi.d	$a0, $sp, 168
	pcaddu18i	$ra, %call36(_ZNSt14basic_ofstreamIcSt11char_traitsIcEED1Ev)
	jirl	$ra, $ra, 0
.LBB8_324:                              # %ehcleanup63
	ld.d	$a0, $sp, 680
	addi.d	$a1, $sp, 696
	beq	$a0, $a1, .LBB8_326
.LBB8_325:                              # %if.then.i.i513
	pcaddu18i	$ra, %call36(_ZdlPv)
	jirl	$ra, $ra, 0
.LBB8_326:                              # %ehcleanup69
	ld.d	$a0, $sp, 712
	addi.d	$a1, $sp, 728
	beq	$a0, $a1, .LBB8_328
# %bb.327:                              # %if.then.i.i527
	pcaddu18i	$ra, %call36(_ZdlPv)
	jirl	$ra, $ra, 0
.LBB8_328:                              # %_ZNSt7__cxx1112basic_stringIcSt11char_traitsIcESaIcEED2Ev.exit532
	move	$a0, $s0
	pcaddu18i	$ra, %call36(_Unwind_Resume)
	jirl	$ra, $ra, 0
.Lfunc_end8:
	.size	_Z20generateTimingReportRKSt6vectorINSt7__cxx1112basic_stringIcSt11char_traitsIcESaIcEEESaIS5_EERKS5_, .Lfunc_end8-_Z20generateTimingReportRKSt6vectorINSt7__cxx1112basic_stringIcSt11char_traitsIcESaIcEEESaIS5_EERKS5_
	.cfi_endproc
	.section	.gcc_except_table,"a",@progbits
	.p2align	2, 0x0
GCC_except_table8:
.Lexception2:
	.byte	255                             # @LPStart Encoding = omit
	.byte	255                             # @TType Encoding = omit
	.byte	1                               # Call site Encoding = uleb128
	.uleb128 .Lcst_end2-.Lcst_begin2
.Lcst_begin2:
	.uleb128 .Lfunc_begin2-.Lfunc_begin2    # >> Call Site 1 <<
	.uleb128 .Ltmp15-.Lfunc_begin2          #   Call between .Lfunc_begin2 and .Ltmp15
	.byte	0                               #     has no landing pad
	.byte	0                               #   On action: cleanup
	.uleb128 .Ltmp15-.Lfunc_begin2          # >> Call Site 2 <<
	.uleb128 .Ltmp16-.Ltmp15                #   Call between .Ltmp15 and .Ltmp16
	.uleb128 .Ltmp17-.Lfunc_begin2          #     jumps to .Ltmp17
	.byte	0                               #   On action: cleanup
	.uleb128 .Ltmp18-.Lfunc_begin2          # >> Call Site 3 <<
	.uleb128 .Ltmp23-.Ltmp18                #   Call between .Ltmp18 and .Ltmp23
	.uleb128 .Ltmp275-.Lfunc_begin2         #     jumps to .Ltmp275
	.byte	0                               #   On action: cleanup
	.uleb128 .Ltmp24-.Lfunc_begin2          # >> Call Site 4 <<
	.uleb128 .Ltmp25-.Ltmp24                #   Call between .Ltmp24 and .Ltmp25
	.uleb128 .Ltmp272-.Lfunc_begin2         #     jumps to .Ltmp272
	.byte	0                               #   On action: cleanup
	.uleb128 .Ltmp276-.Lfunc_begin2         # >> Call Site 5 <<
	.uleb128 .Ltmp277-.Ltmp276              #   Call between .Ltmp276 and .Ltmp277
	.uleb128 .Ltmp278-.Lfunc_begin2         #     jumps to .Ltmp278
	.byte	0                               #   On action: cleanup
	.uleb128 .Ltmp277-.Lfunc_begin2         # >> Call Site 6 <<
	.uleb128 .Ltmp26-.Ltmp277               #   Call between .Ltmp277 and .Ltmp26
	.byte	0                               #     has no landing pad
	.byte	0                               #   On action: cleanup
	.uleb128 .Ltmp26-.Lfunc_begin2          # >> Call Site 7 <<
	.uleb128 .Ltmp27-.Ltmp26                #   Call between .Ltmp26 and .Ltmp27
	.uleb128 .Ltmp28-.Lfunc_begin2          #     jumps to .Ltmp28
	.byte	0                               #   On action: cleanup
	.uleb128 .Ltmp29-.Lfunc_begin2          # >> Call Site 8 <<
	.uleb128 .Ltmp54-.Ltmp29                #   Call between .Ltmp29 and .Ltmp54
	.uleb128 .Ltmp269-.Lfunc_begin2         #     jumps to .Ltmp269
	.byte	0                               #   On action: cleanup
	.uleb128 .Ltmp55-.Lfunc_begin2          # >> Call Site 9 <<
	.uleb128 .Ltmp60-.Ltmp55                #   Call between .Ltmp55 and .Ltmp60
	.uleb128 .Ltmp61-.Lfunc_begin2          #     jumps to .Ltmp61
	.byte	0                               #   On action: cleanup
	.uleb128 .Ltmp62-.Lfunc_begin2          # >> Call Site 10 <<
	.uleb128 .Ltmp63-.Ltmp62                #   Call between .Ltmp62 and .Ltmp63
	.uleb128 .Ltmp64-.Lfunc_begin2          #     jumps to .Ltmp64
	.byte	0                               #   On action: cleanup
	.uleb128 .Ltmp65-.Lfunc_begin2          # >> Call Site 11 <<
	.uleb128 .Ltmp66-.Ltmp65                #   Call between .Ltmp65 and .Ltmp66
	.uleb128 .Ltmp67-.Lfunc_begin2          #     jumps to .Ltmp67
	.byte	0                               #   On action: cleanup
	.uleb128 .Ltmp66-.Lfunc_begin2          # >> Call Site 12 <<
	.uleb128 .Ltmp68-.Ltmp66                #   Call between .Ltmp66 and .Ltmp68
	.byte	0                               #     has no landing pad
	.byte	0                               #   On action: cleanup
	.uleb128 .Ltmp68-.Lfunc_begin2          # >> Call Site 13 <<
	.uleb128 .Ltmp69-.Ltmp68                #   Call between .Ltmp68 and .Ltmp69
	.uleb128 .Ltmp70-.Lfunc_begin2          #     jumps to .Ltmp70
	.byte	0                               #   On action: cleanup
	.uleb128 .Ltmp71-.Lfunc_begin2          # >> Call Site 14 <<
	.uleb128 .Ltmp94-.Ltmp71                #   Call between .Ltmp71 and .Ltmp94
	.uleb128 .Ltmp95-.Lfunc_begin2          #     jumps to .Ltmp95
	.byte	0                               #   On action: cleanup
	.uleb128 .Ltmp96-.Lfunc_begin2          # >> Call Site 15 <<
	.uleb128 .Ltmp99-.Ltmp96                #   Call between .Ltmp96 and .Ltmp99
	.uleb128 .Ltmp145-.Lfunc_begin2         #     jumps to .Ltmp145
	.byte	0                               #   On action: cleanup
	.uleb128 .Ltmp100-.Lfunc_begin2         # >> Call Site 16 <<
	.uleb128 .Ltmp101-.Ltmp100              #   Call between .Ltmp100 and .Ltmp101
	.uleb128 .Ltmp102-.Lfunc_begin2         #     jumps to .Ltmp102
	.byte	0                               #   On action: cleanup
	.uleb128 .Ltmp103-.Lfunc_begin2         # >> Call Site 17 <<
	.uleb128 .Ltmp110-.Ltmp103              #   Call between .Ltmp103 and .Ltmp110
	.uleb128 .Ltmp145-.Lfunc_begin2         #     jumps to .Ltmp145
	.byte	0                               #   On action: cleanup
	.uleb128 .Ltmp111-.Lfunc_begin2         # >> Call Site 18 <<
	.uleb128 .Ltmp114-.Ltmp111              #   Call between .Ltmp111 and .Ltmp114
	.uleb128 .Ltmp115-.Lfunc_begin2         #     jumps to .Ltmp115
	.byte	0                               #   On action: cleanup
	.uleb128 .Ltmp116-.Lfunc_begin2         # >> Call Site 19 <<
	.uleb128 .Ltmp123-.Ltmp116              #   Call between .Ltmp116 and .Ltmp123
	.uleb128 .Ltmp145-.Lfunc_begin2         #     jumps to .Ltmp145
	.byte	0                               #   On action: cleanup
	.uleb128 .Ltmp123-.Lfunc_begin2         # >> Call Site 20 <<
	.uleb128 .Ltmp124-.Ltmp123              #   Call between .Ltmp123 and .Ltmp124
	.byte	0                               #     has no landing pad
	.byte	0                               #   On action: cleanup
	.uleb128 .Ltmp124-.Lfunc_begin2         # >> Call Site 21 <<
	.uleb128 .Ltmp125-.Ltmp124              #   Call between .Ltmp124 and .Ltmp125
	.uleb128 .Ltmp139-.Lfunc_begin2         #     jumps to .Ltmp139
	.byte	0                               #   On action: cleanup
	.uleb128 .Ltmp126-.Lfunc_begin2         # >> Call Site 22 <<
	.uleb128 .Ltmp129-.Ltmp126              #   Call between .Ltmp126 and .Ltmp129
	.uleb128 .Ltmp130-.Lfunc_begin2         #     jumps to .Ltmp130
	.byte	0                               #   On action: cleanup
	.uleb128 .Ltmp131-.Lfunc_begin2         # >> Call Site 23 <<
	.uleb128 .Ltmp138-.Ltmp131              #   Call between .Ltmp131 and .Ltmp138
	.uleb128 .Ltmp139-.Lfunc_begin2         #     jumps to .Ltmp139
	.byte	0                               #   On action: cleanup
	.uleb128 .Ltmp143-.Lfunc_begin2         # >> Call Site 24 <<
	.uleb128 .Ltmp144-.Ltmp143              #   Call between .Ltmp143 and .Ltmp144
	.uleb128 .Ltmp145-.Lfunc_begin2         #     jumps to .Ltmp145
	.byte	0                               #   On action: cleanup
	.uleb128 .Ltmp144-.Lfunc_begin2         # >> Call Site 25 <<
	.uleb128 .Ltmp146-.Ltmp144              #   Call between .Ltmp144 and .Ltmp146
	.byte	0                               #     has no landing pad
	.byte	0                               #   On action: cleanup
	.uleb128 .Ltmp146-.Lfunc_begin2         # >> Call Site 26 <<
	.uleb128 .Ltmp151-.Ltmp146              #   Call between .Ltmp146 and .Ltmp151
	.uleb128 .Ltmp152-.Lfunc_begin2         #     jumps to .Ltmp152
	.byte	0                               #   On action: cleanup
	.uleb128 .Ltmp153-.Lfunc_begin2         # >> Call Site 27 <<
	.uleb128 .Ltmp154-.Ltmp153              #   Call between .Ltmp153 and .Ltmp154
	.uleb128 .Ltmp155-.Lfunc_begin2         #     jumps to .Ltmp155
	.byte	0                               #   On action: cleanup
	.uleb128 .Ltmp156-.Lfunc_begin2         # >> Call Site 28 <<
	.uleb128 .Ltmp157-.Ltmp156              #   Call between .Ltmp156 and .Ltmp157
	.uleb128 .Ltmp158-.Lfunc_begin2         #     jumps to .Ltmp158
	.byte	0                               #   On action: cleanup
	.uleb128 .Ltmp157-.Lfunc_begin2         # >> Call Site 29 <<
	.uleb128 .Ltmp159-.Ltmp157              #   Call between .Ltmp157 and .Ltmp159
	.byte	0                               #     has no landing pad
	.byte	0                               #   On action: cleanup
	.uleb128 .Ltmp159-.Lfunc_begin2         # >> Call Site 30 <<
	.uleb128 .Ltmp160-.Ltmp159              #   Call between .Ltmp159 and .Ltmp160
	.uleb128 .Ltmp161-.Lfunc_begin2         #     jumps to .Ltmp161
	.byte	0                               #   On action: cleanup
	.uleb128 .Ltmp162-.Lfunc_begin2         # >> Call Site 31 <<
	.uleb128 .Ltmp185-.Ltmp162              #   Call between .Ltmp162 and .Ltmp185
	.uleb128 .Ltmp186-.Lfunc_begin2         #     jumps to .Ltmp186
	.byte	0                               #   On action: cleanup
	.uleb128 .Ltmp187-.Lfunc_begin2         # >> Call Site 32 <<
	.uleb128 .Ltmp190-.Ltmp187              #   Call between .Ltmp187 and .Ltmp190
	.uleb128 .Ltmp236-.Lfunc_begin2         #     jumps to .Ltmp236
	.byte	0                               #   On action: cleanup
	.uleb128 .Ltmp191-.Lfunc_begin2         # >> Call Site 33 <<
	.uleb128 .Ltmp192-.Ltmp191              #   Call between .Ltmp191 and .Ltmp192
	.uleb128 .Ltmp193-.Lfunc_begin2         #     jumps to .Ltmp193
	.byte	0                               #   On action: cleanup
	.uleb128 .Ltmp194-.Lfunc_begin2         # >> Call Site 34 <<
	.uleb128 .Ltmp201-.Ltmp194              #   Call between .Ltmp194 and .Ltmp201
	.uleb128 .Ltmp236-.Lfunc_begin2         #     jumps to .Ltmp236
	.byte	0                               #   On action: cleanup
	.uleb128 .Ltmp202-.Lfunc_begin2         # >> Call Site 35 <<
	.uleb128 .Ltmp205-.Ltmp202              #   Call between .Ltmp202 and .Ltmp205
	.uleb128 .Ltmp206-.Lfunc_begin2         #     jumps to .Ltmp206
	.byte	0                               #   On action: cleanup
	.uleb128 .Ltmp207-.Lfunc_begin2         # >> Call Site 36 <<
	.uleb128 .Ltmp214-.Ltmp207              #   Call between .Ltmp207 and .Ltmp214
	.uleb128 .Ltmp236-.Lfunc_begin2         #     jumps to .Ltmp236
	.byte	0                               #   On action: cleanup
	.uleb128 .Ltmp214-.Lfunc_begin2         # >> Call Site 37 <<
	.uleb128 .Ltmp215-.Ltmp214              #   Call between .Ltmp214 and .Ltmp215
	.byte	0                               #     has no landing pad
	.byte	0                               #   On action: cleanup
	.uleb128 .Ltmp215-.Lfunc_begin2         # >> Call Site 38 <<
	.uleb128 .Ltmp216-.Ltmp215              #   Call between .Ltmp215 and .Ltmp216
	.uleb128 .Ltmp230-.Lfunc_begin2         #     jumps to .Ltmp230
	.byte	0                               #   On action: cleanup
	.uleb128 .Ltmp217-.Lfunc_begin2         # >> Call Site 39 <<
	.uleb128 .Ltmp220-.Ltmp217              #   Call between .Ltmp217 and .Ltmp220
	.uleb128 .Ltmp221-.Lfunc_begin2         #     jumps to .Ltmp221
	.byte	0                               #   On action: cleanup
	.uleb128 .Ltmp222-.Lfunc_begin2         # >> Call Site 40 <<
	.uleb128 .Ltmp229-.Ltmp222              #   Call between .Ltmp222 and .Ltmp229
	.uleb128 .Ltmp230-.Lfunc_begin2         #     jumps to .Ltmp230
	.byte	0                               #   On action: cleanup
	.uleb128 .Ltmp234-.Lfunc_begin2         # >> Call Site 41 <<
	.uleb128 .Ltmp235-.Ltmp234              #   Call between .Ltmp234 and .Ltmp235
	.uleb128 .Ltmp236-.Lfunc_begin2         #     jumps to .Ltmp236
	.byte	0                               #   On action: cleanup
	.uleb128 .Ltmp235-.Lfunc_begin2         # >> Call Site 42 <<
	.uleb128 .Ltmp140-.Ltmp235              #   Call between .Ltmp235 and .Ltmp140
	.byte	0                               #     has no landing pad
	.byte	0                               #   On action: cleanup
	.uleb128 .Ltmp140-.Lfunc_begin2         # >> Call Site 43 <<
	.uleb128 .Ltmp141-.Ltmp140              #   Call between .Ltmp140 and .Ltmp141
	.uleb128 .Ltmp142-.Lfunc_begin2         #     jumps to .Ltmp142
	.byte	0                               #   On action: cleanup
	.uleb128 .Ltmp231-.Lfunc_begin2         # >> Call Site 44 <<
	.uleb128 .Ltmp232-.Ltmp231              #   Call between .Ltmp231 and .Ltmp232
	.uleb128 .Ltmp233-.Lfunc_begin2         #     jumps to .Ltmp233
	.byte	0                               #   On action: cleanup
	.uleb128 .Ltmp264-.Lfunc_begin2         # >> Call Site 45 <<
	.uleb128 .Ltmp265-.Ltmp264              #   Call between .Ltmp264 and .Ltmp265
	.uleb128 .Ltmp266-.Lfunc_begin2         #     jumps to .Ltmp266
	.byte	0                               #   On action: cleanup
	.uleb128 .Ltmp252-.Lfunc_begin2         # >> Call Site 46 <<
	.uleb128 .Ltmp253-.Ltmp252              #   Call between .Ltmp252 and .Ltmp253
	.uleb128 .Ltmp254-.Lfunc_begin2         #     jumps to .Ltmp254
	.byte	0                               #   On action: cleanup
	.uleb128 .Ltmp255-.Lfunc_begin2         # >> Call Site 47 <<
	.uleb128 .Ltmp256-.Ltmp255              #   Call between .Ltmp255 and .Ltmp256
	.uleb128 .Ltmp257-.Lfunc_begin2         #     jumps to .Ltmp257
	.byte	0                               #   On action: cleanup
	.uleb128 .Ltmp261-.Lfunc_begin2         # >> Call Site 48 <<
	.uleb128 .Ltmp262-.Ltmp261              #   Call between .Ltmp261 and .Ltmp262
	.uleb128 .Ltmp263-.Lfunc_begin2         #     jumps to .Ltmp263
	.byte	0                               #   On action: cleanup
	.uleb128 .Ltmp258-.Lfunc_begin2         # >> Call Site 49 <<
	.uleb128 .Ltmp259-.Ltmp258              #   Call between .Ltmp258 and .Ltmp259
	.uleb128 .Ltmp260-.Lfunc_begin2         #     jumps to .Ltmp260
	.byte	0                               #   On action: cleanup
	.uleb128 .Ltmp249-.Lfunc_begin2         # >> Call Site 50 <<
	.uleb128 .Ltmp250-.Ltmp249              #   Call between .Ltmp249 and .Ltmp250
	.uleb128 .Ltmp251-.Lfunc_begin2         #     jumps to .Ltmp251
	.byte	0                               #   On action: cleanup
	.uleb128 .Ltmp237-.Lfunc_begin2         # >> Call Site 51 <<
	.uleb128 .Ltmp238-.Ltmp237              #   Call between .Ltmp237 and .Ltmp238
	.uleb128 .Ltmp239-.Lfunc_begin2         #     jumps to .Ltmp239
	.byte	0                               #   On action: cleanup
	.uleb128 .Ltmp240-.Lfunc_begin2         # >> Call Site 52 <<
	.uleb128 .Ltmp241-.Ltmp240              #   Call between .Ltmp240 and .Ltmp241
	.uleb128 .Ltmp242-.Lfunc_begin2         #     jumps to .Ltmp242
	.byte	0                               #   On action: cleanup
	.uleb128 .Ltmp243-.Lfunc_begin2         # >> Call Site 53 <<
	.uleb128 .Ltmp244-.Ltmp243              #   Call between .Ltmp243 and .Ltmp244
	.uleb128 .Ltmp245-.Lfunc_begin2         #     jumps to .Ltmp245
	.byte	0                               #   On action: cleanup
	.uleb128 .Ltmp246-.Lfunc_begin2         # >> Call Site 54 <<
	.uleb128 .Ltmp247-.Ltmp246              #   Call between .Ltmp246 and .Ltmp247
	.uleb128 .Ltmp248-.Lfunc_begin2         #     jumps to .Ltmp248
	.byte	0                               #   On action: cleanup
	.uleb128 .Ltmp273-.Lfunc_begin2         # >> Call Site 55 <<
	.uleb128 .Ltmp274-.Ltmp273              #   Call between .Ltmp273 and .Ltmp274
	.uleb128 .Ltmp275-.Lfunc_begin2         #     jumps to .Ltmp275
	.byte	0                               #   On action: cleanup
	.uleb128 .Ltmp267-.Lfunc_begin2         # >> Call Site 56 <<
	.uleb128 .Ltmp268-.Ltmp267              #   Call between .Ltmp267 and .Ltmp268
	.uleb128 .Ltmp269-.Lfunc_begin2         #     jumps to .Ltmp269
	.byte	0                               #   On action: cleanup
	.uleb128 .Ltmp270-.Lfunc_begin2         # >> Call Site 57 <<
	.uleb128 .Ltmp271-.Ltmp270              #   Call between .Ltmp270 and .Ltmp271
	.uleb128 .Ltmp272-.Lfunc_begin2         #     jumps to .Ltmp272
	.byte	0                               #   On action: cleanup
	.uleb128 .Ltmp271-.Lfunc_begin2         # >> Call Site 58 <<
	.uleb128 .Lfunc_end8-.Ltmp271           #   Call between .Ltmp271 and .Lfunc_end8
	.byte	0                               #     has no landing pad
	.byte	0                               #   On action: cleanup
.Lcst_end2:
	.p2align	2, 0x0
                                        # -- End function
	.text
	.p2align	5                               # -- Begin function _ZN12_GLOBAL__N_116buildVersionInfoB5cxx11Ev
	.type	_ZN12_GLOBAL__N_116buildVersionInfoB5cxx11Ev,@function
_ZN12_GLOBAL__N_116buildVersionInfoB5cxx11Ev: # @_ZN12_GLOBAL__N_116buildVersionInfoB5cxx11Ev
.Lfunc_begin3:
	.cfi_startproc
	.cfi_personality 155, DW.ref.__gxx_personality_v0
	.cfi_lsda 27, .Lexception3
# %bb.0:                                # %entry
	addi.d	$sp, $sp, -560
	.cfi_def_cfa_offset 560
	st.d	$ra, $sp, 552                   # 8-byte Folded Spill
	st.d	$fp, $sp, 544                   # 8-byte Folded Spill
	st.d	$s0, $sp, 536                   # 8-byte Folded Spill
	st.d	$s1, $sp, 528                   # 8-byte Folded Spill
	.cfi_offset 1, -8
	.cfi_offset 22, -16
	.cfi_offset 23, -24
	.cfi_offset 24, -32
	move	$fp, $a0
	pcalau12i	$a0, %pc_hi20(.L.str.70)
	addi.d	$a1, $a0, %pc_lo12(.L.str.70)
	addi.d	$a0, $sp, 8
	ori	$a2, $zero, 8
	pcaddu18i	$ra, %call36(_ZNSt14basic_ifstreamIcSt11char_traitsIcEEC1EPKcSt13_Ios_Openmode)
	jirl	$ra, $ra, 0
	addi.d	$s1, $fp, 16
	st.d	$s1, $fp, 0
	st.d	$zero, $fp, 8
	st.b	$zero, $fp, 16
.Ltmp279:                               # EH_LABEL
	addi.d	$a0, $sp, 8
	ori	$a2, $zero, 2
	move	$a1, $zero
	pcaddu18i	$ra, %call36(_ZNSi5seekgElSt12_Ios_Seekdir)
	jirl	$ra, $ra, 0
.Ltmp280:                               # EH_LABEL
# %bb.1:                                # %invoke.cont
.Ltmp281:                               # EH_LABEL
	addi.d	$a0, $sp, 8
	pcaddu18i	$ra, %call36(_ZNSi5tellgEv)
	jirl	$ra, $ra, 0
	move	$a1, $a0
.Ltmp282:                               # EH_LABEL
# %bb.2:                                # %invoke.cont2
.Ltmp283:                               # EH_LABEL
	move	$a0, $fp
	pcaddu18i	$ra, %call36(_ZNSt7__cxx1112basic_stringIcSt11char_traitsIcESaIcEE7reserveEm)
	jirl	$ra, $ra, 0
.Ltmp284:                               # EH_LABEL
# %bb.3:                                # %invoke.cont6
.Ltmp286:                               # EH_LABEL
	addi.d	$a0, $sp, 8
	addi.d	$s0, $sp, 8
	move	$a1, $zero
	move	$a2, $zero
	pcaddu18i	$ra, %call36(_ZNSi5seekgElSt12_Ios_Seekdir)
	jirl	$ra, $ra, 0
.Ltmp287:                               # EH_LABEL
# %bb.4:                                # %invoke.cont7
	ld.d	$a0, $sp, 8
	ld.d	$a0, $a0, -24
	add.d	$a0, $s0, $a0
	ld.d	$a1, $a0, 232
.Ltmp288:                               # EH_LABEL
	addi.w	$a2, $zero, -1
	lu32i.d	$a2, 0
	move	$a0, $fp
	move	$a3, $zero
	move	$a4, $a2
	pcaddu18i	$ra, %call36(_ZNSt7__cxx1112basic_stringIcSt11char_traitsIcESaIcEE6assignISt19istreambuf_iteratorIcS2_EvEERS4_T_S9_)
	jirl	$ra, $ra, 0
.Ltmp289:                               # EH_LABEL
# %bb.5:                                # %invoke.cont10
	addi.d	$s0, $sp, 24
.Ltmp290:                               # EH_LABEL
	move	$a0, $s0
	pcaddu18i	$ra, %call36(_ZNSt13basic_filebufIcSt11char_traitsIcEE5closeEv)
	jirl	$ra, $ra, 0
.Ltmp291:                               # EH_LABEL
# %bb.6:                                # %call.i.noexc
	bnez	$a0, .LBB9_8
# %bb.7:                                # %if.then.i
	ld.d	$a0, $sp, 8
	ld.d	$a0, $a0, -24
	addi.d	$a1, $sp, 8
	add.d	$a0, $a1, $a0
	ld.w	$a1, $a0, 32
	ori	$a1, $a1, 4
.Ltmp292:                               # EH_LABEL
	pcaddu18i	$ra, %call36(_ZNSt9basic_iosIcSt11char_traitsIcEE5clearESt12_Ios_Iostate)
	jirl	$ra, $ra, 0
.Ltmp293:                               # EH_LABEL
.LBB9_8:                                # %nrvo.skipdtor
	pcalau12i	$a0, %got_pc_hi20(_ZTTSt14basic_ifstreamIcSt11char_traitsIcEE)
	ld.d	$fp, $a0, %got_pc_lo12(_ZTTSt14basic_ifstreamIcSt11char_traitsIcEE)
	ld.d	$a0, $fp, 0
	st.d	$a0, $sp, 8
	ld.d	$a1, $fp, 24
	ld.d	$a0, $a0, -24
	addi.d	$s1, $sp, 8
	stx.d	$a1, $a0, $s1
	move	$a0, $s0
	pcaddu18i	$ra, %call36(_ZNSt13basic_filebufIcSt11char_traitsIcEED2Ev)
	jirl	$ra, $ra, 0
	ld.d	$a0, $fp, 8
	st.d	$a0, $sp, 8
	ld.d	$a1, $fp, 16
	ld.d	$a0, $a0, -24
	stx.d	$a1, $a0, $s1
	st.d	$zero, $sp, 16
	addi.d	$a0, $sp, 264
	pcaddu18i	$ra, %call36(_ZNSt8ios_baseD2Ev)
	jirl	$ra, $ra, 0
	ld.d	$s1, $sp, 528                   # 8-byte Folded Reload
	ld.d	$s0, $sp, 536                   # 8-byte Folded Reload
	ld.d	$fp, $sp, 544                   # 8-byte Folded Reload
	ld.d	$ra, $sp, 552                   # 8-byte Folded Reload
	addi.d	$sp, $sp, 560
	ret
.LBB9_9:                                # %lpad1
.Ltmp285:                               # EH_LABEL
	b	.LBB9_11
.LBB9_10:                               # %lpad
.Ltmp294:                               # EH_LABEL
.LBB9_11:                               # %ehcleanup
	move	$s0, $a0
	ld.d	$a0, $fp, 0
	beq	$a0, $s1, .LBB9_13
# %bb.12:                               # %if.then.i.i
	pcaddu18i	$ra, %call36(_ZdlPv)
	jirl	$ra, $ra, 0
.LBB9_13:                               # %_ZNSt7__cxx1112basic_stringIcSt11char_traitsIcESaIcEED2Ev.exit
	addi.d	$a0, $sp, 8
	pcaddu18i	$ra, %call36(_ZNSt14basic_ifstreamIcSt11char_traitsIcEED1Ev)
	jirl	$ra, $ra, 0
	move	$a0, $s0
	pcaddu18i	$ra, %call36(_Unwind_Resume)
	jirl	$ra, $ra, 0
.Lfunc_end9:
	.size	_ZN12_GLOBAL__N_116buildVersionInfoB5cxx11Ev, .Lfunc_end9-_ZN12_GLOBAL__N_116buildVersionInfoB5cxx11Ev
	.cfi_endproc
	.section	.gcc_except_table,"a",@progbits
	.p2align	2, 0x0
GCC_except_table9:
.Lexception3:
	.byte	255                             # @LPStart Encoding = omit
	.byte	255                             # @TType Encoding = omit
	.byte	1                               # Call site Encoding = uleb128
	.uleb128 .Lcst_end3-.Lcst_begin3
.Lcst_begin3:
	.uleb128 .Lfunc_begin3-.Lfunc_begin3    # >> Call Site 1 <<
	.uleb128 .Ltmp279-.Lfunc_begin3         #   Call between .Lfunc_begin3 and .Ltmp279
	.byte	0                               #     has no landing pad
	.byte	0                               #   On action: cleanup
	.uleb128 .Ltmp279-.Lfunc_begin3         # >> Call Site 2 <<
	.uleb128 .Ltmp280-.Ltmp279              #   Call between .Ltmp279 and .Ltmp280
	.uleb128 .Ltmp294-.Lfunc_begin3         #     jumps to .Ltmp294
	.byte	0                               #   On action: cleanup
	.uleb128 .Ltmp281-.Lfunc_begin3         # >> Call Site 3 <<
	.uleb128 .Ltmp284-.Ltmp281              #   Call between .Ltmp281 and .Ltmp284
	.uleb128 .Ltmp285-.Lfunc_begin3         #     jumps to .Ltmp285
	.byte	0                               #   On action: cleanup
	.uleb128 .Ltmp286-.Lfunc_begin3         # >> Call Site 4 <<
	.uleb128 .Ltmp293-.Ltmp286              #   Call between .Ltmp286 and .Ltmp293
	.uleb128 .Ltmp294-.Lfunc_begin3         #     jumps to .Ltmp294
	.byte	0                               #   On action: cleanup
	.uleb128 .Ltmp293-.Lfunc_begin3         # >> Call Site 5 <<
	.uleb128 .Lfunc_end9-.Ltmp293           #   Call between .Ltmp293 and .Lfunc_end9
	.byte	0                               #     has no landing pad
	.byte	0                               #   On action: cleanup
.Lcst_end3:
	.p2align	2, 0x0
                                        # -- End function
	.text
	.p2align	5                               # -- Begin function _ZN12_GLOBAL__N_124writeTimingSummaryReportERKSt6vectorINSt7__cxx1112basic_stringIcSt11char_traitsIcESaIcEEESaIS6_EERSo
	.type	_ZN12_GLOBAL__N_124writeTimingSummaryReportERKSt6vectorINSt7__cxx1112basic_stringIcSt11char_traitsIcESaIcEEESaIS6_EERSo,@function
_ZN12_GLOBAL__N_124writeTimingSummaryReportERKSt6vectorINSt7__cxx1112basic_stringIcSt11char_traitsIcESaIcEEESaIS6_EERSo: # @_ZN12_GLOBAL__N_124writeTimingSummaryReportERKSt6vectorINSt7__cxx1112basic_stringIcSt11char_traitsIcESaIcEEESaIS6_EERSo
.Lfunc_begin4:
	.cfi_startproc
	.cfi_personality 155, DW.ref.__gxx_personality_v0
	.cfi_lsda 27, .Lexception4
# %bb.0:                                # %entry
	addi.d	$sp, $sp, -528
	.cfi_def_cfa_offset 528
	st.d	$ra, $sp, 520                   # 8-byte Folded Spill
	st.d	$fp, $sp, 512                   # 8-byte Folded Spill
	st.d	$s0, $sp, 504                   # 8-byte Folded Spill
	st.d	$s1, $sp, 496                   # 8-byte Folded Spill
	st.d	$s2, $sp, 488                   # 8-byte Folded Spill
	st.d	$s3, $sp, 480                   # 8-byte Folded Spill
	st.d	$s4, $sp, 472                   # 8-byte Folded Spill
	st.d	$s5, $sp, 464                   # 8-byte Folded Spill
	st.d	$s6, $sp, 456                   # 8-byte Folded Spill
	st.d	$s7, $sp, 448                   # 8-byte Folded Spill
	st.d	$s8, $sp, 440                   # 8-byte Folded Spill
	.cfi_offset 1, -8
	.cfi_offset 22, -16
	.cfi_offset 23, -24
	.cfi_offset 24, -32
	.cfi_offset 25, -40
	.cfi_offset 26, -48
	.cfi_offset 27, -56
	.cfi_offset 28, -64
	.cfi_offset 29, -72
	.cfi_offset 30, -80
	.cfi_offset 31, -88
	move	$s0, $a1
	pcalau12i	$a1, %pc_hi20(_ZL21s_loop_suite_run_info)
	ld.d	$s6, $a1, %pc_lo12(_ZL21s_loop_suite_run_info)
	ld.d	$s5, $a0, 8
	st.d	$a0, $sp, 112                   # 8-byte Folded Spill
	ld.d	$s4, $a0, 0
	addi.d	$a0, $sp, 424
	st.d	$a0, $sp, 408
	ori	$a0, $zero, 108
	st.d	$a0, $sp, 376
	addi.d	$a0, $sp, 408
	addi.d	$a1, $sp, 376
	move	$a2, $zero
	pcaddu18i	$ra, %call36(_ZNSt7__cxx1112basic_stringIcSt11char_traitsIcESaIcEE9_M_createERmm)
	jirl	$ra, $ra, 0
	ld.d	$s1, $sp, 376
	move	$fp, $a0
	st.d	$a0, $sp, 408
	st.d	$s1, $sp, 424
	pcalau12i	$a0, %pc_hi20(.L.str.24)
	addi.d	$a1, $a0, %pc_lo12(.L.str.24)
	ori	$a2, $zero, 108
	move	$a0, $fp
	pcaddu18i	$ra, %call36(memcpy)
	jirl	$ra, $ra, 0
	st.d	$s1, $sp, 416
	stx.b	$zero, $fp, $s1
	addi.d	$a0, $sp, 392
	st.d	$a0, $sp, 376
	ori	$a0, $zero, 109
	st.d	$a0, $sp, 344
.Ltmp295:                               # EH_LABEL
	addi.d	$a0, $sp, 376
	addi.d	$a1, $sp, 344
	move	$a2, $zero
	pcaddu18i	$ra, %call36(_ZNSt7__cxx1112basic_stringIcSt11char_traitsIcESaIcEE9_M_createERmm)
	jirl	$ra, $ra, 0
.Ltmp296:                               # EH_LABEL
# %bb.1:                                # %call2.i5.i.noexc154
	move	$fp, $a0
	ld.d	$s1, $sp, 344
	st.d	$a0, $sp, 376
	st.d	$s1, $sp, 392
	pcalau12i	$a0, %pc_hi20(.L.str.25)
	addi.d	$a1, $a0, %pc_lo12(.L.str.25)
	ori	$a2, $zero, 109
	move	$a0, $fp
	pcaddu18i	$ra, %call36(memcpy)
	jirl	$ra, $ra, 0
	st.d	$s1, $sp, 384
	stx.b	$zero, $fp, $s1
	addi.d	$a0, $sp, 360
	st.d	$a0, $sp, 344
	ori	$a0, $zero, 56
	st.d	$a0, $sp, 312
.Ltmp298:                               # EH_LABEL
	addi.d	$a0, $sp, 344
	addi.d	$a1, $sp, 312
	move	$a2, $zero
	pcaddu18i	$ra, %call36(_ZNSt7__cxx1112basic_stringIcSt11char_traitsIcESaIcEE9_M_createERmm)
	jirl	$ra, $ra, 0
.Ltmp299:                               # EH_LABEL
# %bb.2:                                # %call2.i5.i.noexc166
	ld.d	$a1, $sp, 312
	st.d	$a0, $sp, 344
	st.d	$a1, $sp, 360
	pcalau12i	$a2, %pc_hi20(.L.str.26)
	addi.d	$a2, $a2, %pc_lo12(.L.str.26)
	vld	$vr0, $a2, 16
	vst	$vr0, $a0, 16
	vld	$vr0, $a2, 0
	ld.d	$a3, $a2, 32
	vst	$vr0, $a0, 0
	st.d	$a3, $a0, 32
	vld	$vr0, $a2, 40
	vst	$vr0, $a0, 40
	st.d	$a1, $sp, 352
	stx.b	$zero, $a0, $a1
	addi.d	$a0, $sp, 328
	st.d	$a0, $sp, 312
	ori	$a0, $zero, 45
	st.d	$a0, $sp, 280
.Ltmp301:                               # EH_LABEL
	addi.d	$a0, $sp, 312
	addi.d	$a1, $sp, 280
	move	$a2, $zero
	pcaddu18i	$ra, %call36(_ZNSt7__cxx1112basic_stringIcSt11char_traitsIcESaIcEE9_M_createERmm)
	jirl	$ra, $ra, 0
.Ltmp302:                               # EH_LABEL
# %bb.3:                                # %call2.i5.i.noexc178
	ld.d	$a1, $sp, 280
	st.d	$a0, $sp, 312
	st.d	$a1, $sp, 328
	pcalau12i	$a2, %pc_hi20(.L.str.27)
	addi.d	$a2, $a2, %pc_lo12(.L.str.27)
	vld	$vr0, $a2, 16
	vst	$vr0, $a0, 16
	vld	$vr0, $a2, 0
	ld.d	$a3, $a2, 32
	ld.d	$a2, $a2, 37
	vst	$vr0, $a0, 0
	st.d	$a3, $a0, 32
	st.d	$a2, $a0, 37
	st.d	$a1, $sp, 320
	stx.b	$zero, $a0, $a1
	ld.d	$fp, $s6, 120
	ld.d	$s1, $s6, 112
	st.d	$fp, $sp, 24                    # 8-byte Folded Spill
	st.d	$s1, $sp, 16                    # 8-byte Folded Spill
	beq	$fp, $s1, .LBB10_10
# %bb.4:                                # %_ZNSt12_Vector_baseINSt7__cxx1112basic_stringIcSt11char_traitsIcESaIcEEESaIS5_EEC2EmRKS6_.exit.i
.Ltmp304:                               # EH_LABEL
	sub.d	$s2, $fp, $s1
	move	$a0, $s2
	pcaddu18i	$ra, %call36(_Znwm)
	jirl	$ra, $ra, 0
.Ltmp305:                               # EH_LABEL
# %bb.5:                                # %for.body.i.i.i.i.i.preheader
	move	$a4, $zero
	srai.d	$a1, $s2, 5
	.p2align	4, , 16
.LBB10_6:                               # %for.body.i.i.i.i.i
                                        # =>This Inner Loop Header: Depth=1
	add.d	$a2, $a0, $a4
	addi.d	$a3, $a2, 16
	stx.d	$a3, $a0, $a4
	st.d	$zero, $a2, 8
	st.b	$zero, $a2, 16
	addi.d	$a1, $a1, -1
	addi.d	$a4, $a4, 32
	bnez	$a1, .LBB10_6
# %bb.7:                                # %for.body.preheader
	move	$a1, $zero
	srai.d	$fp, $a4, 5
	st.d	$a0, $sp, 136                   # 8-byte Folded Spill
	add.d	$s1, $a0, $a4
	ori	$s2, $zero, 1
	.p2align	4, , 16
.LBB10_8:                               # %for.body
                                        # =>This Inner Loop Header: Depth=1
	ld.d	$a0, $s6, 112
	slli.d	$a1, $a1, 5
	ldx.d	$a0, $a0, $a1
	ld.b	$a4, $a0, 0
	ld.d	$a0, $sp, 136                   # 8-byte Folded Reload
	add.d	$a0, $a0, $a1
	ld.d	$a2, $a0, 8
.Ltmp307:                               # EH_LABEL
	ori	$a3, $zero, 1
	move	$a1, $zero
	pcaddu18i	$ra, %call36(_ZNSt7__cxx1112basic_stringIcSt11char_traitsIcESaIcEE14_M_replace_auxEmmmc)
	jirl	$ra, $ra, 0
.Ltmp308:                               # EH_LABEL
# %bb.9:                                # %for.inc
                                        #   in Loop: Header=BB10_8 Depth=1
	bstrpick.d	$a1, $s2, 31, 0
	addi.w	$s2, $s2, 1
	bltu	$a1, $fp, .LBB10_8
	b	.LBB10_11
.LBB10_10:
	move	$s1, $zero
	st.d	$zero, $sp, 136                 # 8-byte Folded Spill
.LBB10_11:                              # %for.cond.cleanup
.Ltmp310:                               # EH_LABEL
	addi.d	$a0, $sp, 280
	pcaddu18i	$ra, %call36(_ZN12_GLOBAL__N_116buildVersionInfoB5cxx11Ev)
	jirl	$ra, $ra, 0
.Ltmp311:                               # EH_LABEL
# %bb.12:                               # %invoke.cont30
.Ltmp313:                               # EH_LABEL
	pcalau12i	$a0, %pc_hi20(.L.str.28)
	addi.d	$a1, $a0, %pc_lo12(.L.str.28)
	ori	$a2, $zero, 3
	move	$a0, $s0
	pcaddu18i	$ra, %call36(_ZSt16__ostream_insertIcSt11char_traitsIcEERSt13basic_ostreamIT_T0_ES6_PKS3_l)
	jirl	$ra, $ra, 0
.Ltmp314:                               # EH_LABEL
# %bb.13:                               # %invoke.cont32
	ld.d	$a1, $sp, 408
	ld.d	$a2, $sp, 416
.Ltmp315:                               # EH_LABEL
	move	$a0, $s0
	pcaddu18i	$ra, %call36(_ZSt16__ostream_insertIcSt11char_traitsIcEERSt13basic_ostreamIT_T0_ES6_PKS3_l)
	jirl	$ra, $ra, 0
.Ltmp316:                               # EH_LABEL
# %bb.14:                               # %invoke.cont34
	ld.d	$a1, $sp, 408
	ld.d	$a2, $sp, 416
.Ltmp317:                               # EH_LABEL
	move	$a0, $s0
	pcaddu18i	$ra, %call36(_ZSt16__ostream_insertIcSt11char_traitsIcEERSt13basic_ostreamIT_T0_ES6_PKS3_l)
	jirl	$ra, $ra, 0
.Ltmp318:                               # EH_LABEL
# %bb.15:                               # %invoke.cont36
.Ltmp319:                               # EH_LABEL
	pcalau12i	$a0, %pc_hi20(.L.str.29)
	addi.d	$a1, $a0, %pc_lo12(.L.str.29)
	ori	$a2, $zero, 27
	move	$a0, $s0
	pcaddu18i	$ra, %call36(_ZSt16__ostream_insertIcSt11char_traitsIcEERSt13basic_ostreamIT_T0_ES6_PKS3_l)
	jirl	$ra, $ra, 0
.Ltmp320:                               # EH_LABEL
# %bb.16:                               # %invoke.cont38
	ld.d	$a0, $s0, 0
	ld.d	$a0, $a0, -24
	add.d	$a0, $s0, $a0
	ld.d	$s2, $a0, 240
	beqz	$s2, .LBB10_270
# %bb.17:                               # %_ZSt13__check_facetISt5ctypeIcEERKT_PS3_.exit.i.i
	ld.bu	$a0, $s2, 56
	beqz	$a0, .LBB10_19
# %bb.18:                               # %if.then.i2.i.i
	ld.bu	$a0, $s2, 67
	b	.LBB10_21
.LBB10_19:                              # %if.end.i.i.i926
.Ltmp321:                               # EH_LABEL
	move	$a0, $s2
	pcaddu18i	$ra, %call36(_ZNKSt5ctypeIcE13_M_widen_initEv)
	jirl	$ra, $ra, 0
.Ltmp322:                               # EH_LABEL
# %bb.20:                               # %.noexc930
	ld.d	$a0, $s2, 0
	ld.d	$a2, $a0, 48
.Ltmp323:                               # EH_LABEL
	ori	$a1, $zero, 10
	move	$a0, $s2
	jirl	$ra, $a2, 0
.Ltmp324:                               # EH_LABEL
.LBB10_21:                              # %_ZNKSt9basic_iosIcSt11char_traitsIcEE5widenEc.exit.i
.Ltmp325:                               # EH_LABEL
	ext.w.b	$a1, $a0
	move	$a0, $s0
	pcaddu18i	$ra, %call36(_ZNSo3putEc)
	jirl	$ra, $ra, 0
.Ltmp326:                               # EH_LABEL
# %bb.22:                               # %call1.i.noexc
.Ltmp327:                               # EH_LABEL
	pcaddu18i	$ra, %call36(_ZNSo5flushEv)
	jirl	$ra, $ra, 0
.Ltmp328:                               # EH_LABEL
# %bb.23:                               # %invoke.cont40
	ld.d	$a1, $sp, 280
	ld.d	$a2, $sp, 288
.Ltmp329:                               # EH_LABEL
	move	$a0, $s0
	pcaddu18i	$ra, %call36(_ZSt16__ostream_insertIcSt11char_traitsIcEERSt13basic_ostreamIT_T0_ES6_PKS3_l)
	jirl	$ra, $ra, 0
.Ltmp330:                               # EH_LABEL
# %bb.24:                               # %invoke.cont42
	move	$s2, $a0
	ld.d	$a0, $a0, 0
	ld.d	$a0, $a0, -24
	add.d	$a0, $s2, $a0
	ld.d	$s3, $a0, 240
	beqz	$s3, .LBB10_270
# %bb.25:                               # %_ZSt13__check_facetISt5ctypeIcEERKT_PS3_.exit.i.i940
	ld.bu	$a0, $s3, 56
	beqz	$a0, .LBB10_27
# %bb.26:                               # %if.then.i2.i.i943
	ld.bu	$a0, $s3, 67
	b	.LBB10_29
.LBB10_27:                              # %if.end.i.i.i948
.Ltmp331:                               # EH_LABEL
	move	$a0, $s3
	pcaddu18i	$ra, %call36(_ZNKSt5ctypeIcE13_M_widen_initEv)
	jirl	$ra, $ra, 0
.Ltmp332:                               # EH_LABEL
# %bb.28:                               # %.noexc954
	ld.d	$a0, $s3, 0
	ld.d	$a2, $a0, 48
.Ltmp333:                               # EH_LABEL
	ori	$a1, $zero, 10
	move	$a0, $s3
	jirl	$ra, $a2, 0
.Ltmp334:                               # EH_LABEL
.LBB10_29:                              # %_ZNKSt9basic_iosIcSt11char_traitsIcEE5widenEc.exit.i945
.Ltmp335:                               # EH_LABEL
	ext.w.b	$a1, $a0
	move	$a0, $s2
	pcaddu18i	$ra, %call36(_ZNSo3putEc)
	jirl	$ra, $ra, 0
.Ltmp336:                               # EH_LABEL
# %bb.30:                               # %call1.i.noexc956
.Ltmp337:                               # EH_LABEL
	pcaddu18i	$ra, %call36(_ZNSo5flushEv)
	jirl	$ra, $ra, 0
.Ltmp338:                               # EH_LABEL
# %bb.31:                               # %invoke.cont44
.Ltmp339:                               # EH_LABEL
	pcalau12i	$a0, %pc_hi20(.L.str.30)
	addi.d	$a1, $a0, %pc_lo12(.L.str.30)
	ori	$a2, $zero, 2
	move	$a0, $s0
	pcaddu18i	$ra, %call36(_ZSt16__ostream_insertIcSt11char_traitsIcEERSt13basic_ostreamIT_T0_ES6_PKS3_l)
	jirl	$ra, $ra, 0
.Ltmp340:                               # EH_LABEL
# %bb.32:                               # %invoke.cont46
	ld.d	$a1, $sp, 408
	ld.d	$a2, $sp, 416
.Ltmp341:                               # EH_LABEL
	move	$a0, $s0
	pcaddu18i	$ra, %call36(_ZSt16__ostream_insertIcSt11char_traitsIcEERSt13basic_ostreamIT_T0_ES6_PKS3_l)
	jirl	$ra, $ra, 0
.Ltmp342:                               # EH_LABEL
# %bb.33:                               # %invoke.cont48
	ld.d	$a1, $sp, 408
	ld.d	$a2, $sp, 416
.Ltmp343:                               # EH_LABEL
	move	$a0, $s0
	pcaddu18i	$ra, %call36(_ZSt16__ostream_insertIcSt11char_traitsIcEERSt13basic_ostreamIT_T0_ES6_PKS3_l)
	jirl	$ra, $ra, 0
.Ltmp344:                               # EH_LABEL
# %bb.34:                               # %invoke.cont50
.Ltmp345:                               # EH_LABEL
	pcalau12i	$a0, %pc_hi20(.L.str.31)
	addi.d	$a1, $a0, %pc_lo12(.L.str.31)
	ori	$a2, $zero, 19
	move	$a0, $s0
	pcaddu18i	$ra, %call36(_ZSt16__ostream_insertIcSt11char_traitsIcEERSt13basic_ostreamIT_T0_ES6_PKS3_l)
	jirl	$ra, $ra, 0
.Ltmp346:                               # EH_LABEL
# %bb.35:                               # %invoke.cont52
	ld.d	$a0, $s0, 0
	ld.d	$a0, $a0, -24
	add.d	$a0, $s0, $a0
	ld.d	$s2, $a0, 240
	beqz	$s2, .LBB10_270
# %bb.36:                               # %_ZSt13__check_facetISt5ctypeIcEERKT_PS3_.exit.i.i966
	ld.bu	$a0, $s2, 56
	beqz	$a0, .LBB10_38
# %bb.37:                               # %if.then.i2.i.i969
	ld.bu	$a0, $s2, 67
	b	.LBB10_40
.LBB10_38:                              # %if.end.i.i.i974
.Ltmp347:                               # EH_LABEL
	move	$a0, $s2
	pcaddu18i	$ra, %call36(_ZNKSt5ctypeIcE13_M_widen_initEv)
	jirl	$ra, $ra, 0
.Ltmp348:                               # EH_LABEL
# %bb.39:                               # %.noexc980
	ld.d	$a0, $s2, 0
	ld.d	$a2, $a0, 48
.Ltmp349:                               # EH_LABEL
	ori	$a1, $zero, 10
	move	$a0, $s2
	jirl	$ra, $a2, 0
.Ltmp350:                               # EH_LABEL
.LBB10_40:                              # %_ZNKSt9basic_iosIcSt11char_traitsIcEE5widenEc.exit.i971
.Ltmp351:                               # EH_LABEL
	ext.w.b	$a1, $a0
	move	$a0, $s0
	pcaddu18i	$ra, %call36(_ZNSo3putEc)
	jirl	$ra, $ra, 0
.Ltmp352:                               # EH_LABEL
# %bb.41:                               # %call1.i.noexc982
.Ltmp353:                               # EH_LABEL
	pcaddu18i	$ra, %call36(_ZNSo5flushEv)
	jirl	$ra, $ra, 0
.Ltmp354:                               # EH_LABEL
# %bb.42:                               # %invoke.cont54
.Ltmp355:                               # EH_LABEL
	pcalau12i	$a0, %pc_hi20(.L.str.32)
	addi.d	$a1, $a0, %pc_lo12(.L.str.32)
	ori	$a2, $zero, 20
	move	$a0, $s0
	pcaddu18i	$ra, %call36(_ZSt16__ostream_insertIcSt11char_traitsIcEERSt13basic_ostreamIT_T0_ES6_PKS3_l)
	jirl	$ra, $ra, 0
.Ltmp356:                               # EH_LABEL
# %bb.43:                               # %invoke.cont56
.Ltmp357:                               # EH_LABEL
	ori	$a1, $zero, 8
	move	$a0, $s0
	pcaddu18i	$ra, %call36(_ZNSo9_M_insertImEERSoT_)
	jirl	$ra, $ra, 0
.Ltmp358:                               # EH_LABEL
# %bb.44:                               # %invoke.cont58
	move	$s2, $a0
	ld.d	$a0, $a0, 0
	ld.d	$a0, $a0, -24
	add.d	$a0, $s2, $a0
	ld.d	$s3, $a0, 240
	beqz	$s3, .LBB10_270
# %bb.45:                               # %_ZSt13__check_facetISt5ctypeIcEERKT_PS3_.exit.i.i992
	ld.bu	$a0, $s3, 56
	beqz	$a0, .LBB10_47
# %bb.46:                               # %if.then.i2.i.i995
	ld.bu	$a0, $s3, 67
	b	.LBB10_49
.LBB10_47:                              # %if.end.i.i.i1000
.Ltmp359:                               # EH_LABEL
	move	$a0, $s3
	pcaddu18i	$ra, %call36(_ZNKSt5ctypeIcE13_M_widen_initEv)
	jirl	$ra, $ra, 0
.Ltmp360:                               # EH_LABEL
# %bb.48:                               # %.noexc1006
	ld.d	$a0, $s3, 0
	ld.d	$a2, $a0, 48
.Ltmp361:                               # EH_LABEL
	ori	$a1, $zero, 10
	move	$a0, $s3
	jirl	$ra, $a2, 0
.Ltmp362:                               # EH_LABEL
.LBB10_49:                              # %_ZNKSt9basic_iosIcSt11char_traitsIcEE5widenEc.exit.i997
.Ltmp363:                               # EH_LABEL
	ext.w.b	$a1, $a0
	move	$a0, $s2
	pcaddu18i	$ra, %call36(_ZNSo3putEc)
	jirl	$ra, $ra, 0
.Ltmp364:                               # EH_LABEL
# %bb.50:                               # %call1.i.noexc1008
.Ltmp365:                               # EH_LABEL
	pcaddu18i	$ra, %call36(_ZNSo5flushEv)
	jirl	$ra, $ra, 0
.Ltmp366:                               # EH_LABEL
# %bb.51:                               # %invoke.cont60
.Ltmp367:                               # EH_LABEL
	pcalau12i	$a0, %pc_hi20(.L.str.33)
	addi.d	$a1, $a0, %pc_lo12(.L.str.33)
	ori	$a2, $zero, 24
	move	$a0, $s0
	pcaddu18i	$ra, %call36(_ZSt16__ostream_insertIcSt11char_traitsIcEERSt13basic_ostreamIT_T0_ES6_PKS3_l)
	jirl	$ra, $ra, 0
.Ltmp368:                               # EH_LABEL
# %bb.52:                               # %invoke.cont62
	ld.wu	$a1, $s6, 136
.Ltmp369:                               # EH_LABEL
	move	$a0, $s0
	pcaddu18i	$ra, %call36(_ZNSo9_M_insertImEERSoT_)
	jirl	$ra, $ra, 0
.Ltmp370:                               # EH_LABEL
# %bb.53:                               # %invoke.cont64
	move	$s2, $a0
	ld.d	$a0, $a0, 0
	ld.d	$a0, $a0, -24
	add.d	$a0, $s2, $a0
	ld.d	$s3, $a0, 240
	beqz	$s3, .LBB10_270
# %bb.54:                               # %_ZSt13__check_facetISt5ctypeIcEERKT_PS3_.exit.i.i1018
	ld.bu	$a0, $s3, 56
	beqz	$a0, .LBB10_56
# %bb.55:                               # %if.then.i2.i.i1021
	ld.bu	$a0, $s3, 67
	b	.LBB10_58
.LBB10_56:                              # %if.end.i.i.i1026
.Ltmp371:                               # EH_LABEL
	move	$a0, $s3
	pcaddu18i	$ra, %call36(_ZNKSt5ctypeIcE13_M_widen_initEv)
	jirl	$ra, $ra, 0
.Ltmp372:                               # EH_LABEL
# %bb.57:                               # %.noexc1032
	ld.d	$a0, $s3, 0
	ld.d	$a2, $a0, 48
.Ltmp373:                               # EH_LABEL
	ori	$a1, $zero, 10
	move	$a0, $s3
	jirl	$ra, $a2, 0
.Ltmp374:                               # EH_LABEL
.LBB10_58:                              # %_ZNKSt9basic_iosIcSt11char_traitsIcEE5widenEc.exit.i1023
.Ltmp375:                               # EH_LABEL
	ext.w.b	$a1, $a0
	move	$a0, $s2
	pcaddu18i	$ra, %call36(_ZNSo3putEc)
	jirl	$ra, $ra, 0
.Ltmp376:                               # EH_LABEL
# %bb.59:                               # %call1.i.noexc1034
.Ltmp377:                               # EH_LABEL
	pcaddu18i	$ra, %call36(_ZNSo5flushEv)
	jirl	$ra, $ra, 0
.Ltmp378:                               # EH_LABEL
# %bb.60:                               # %invoke.cont66
.Ltmp379:                               # EH_LABEL
	pcalau12i	$a0, %pc_hi20(.L.str.34)
	addi.d	$a1, $a0, %pc_lo12(.L.str.34)
	ori	$a2, $zero, 28
	move	$a0, $s0
	pcaddu18i	$ra, %call36(_ZSt16__ostream_insertIcSt11char_traitsIcEERSt13basic_ostreamIT_T0_ES6_PKS3_l)
	jirl	$ra, $ra, 0
.Ltmp380:                               # EH_LABEL
# %bb.61:                               # %invoke.cont68
	fld.d	$fa0, $s6, 144
.Ltmp381:                               # EH_LABEL
	move	$a0, $s0
	pcaddu18i	$ra, %call36(_ZNSo9_M_insertIdEERSoT_)
	jirl	$ra, $ra, 0
.Ltmp382:                               # EH_LABEL
# %bb.62:                               # %invoke.cont70
	move	$s2, $a0
	ld.d	$a0, $a0, 0
	ld.d	$a0, $a0, -24
	add.d	$a0, $s2, $a0
	ld.d	$s3, $a0, 240
	beqz	$s3, .LBB10_270
# %bb.63:                               # %_ZSt13__check_facetISt5ctypeIcEERKT_PS3_.exit.i.i1044
	ld.bu	$a0, $s3, 56
	beqz	$a0, .LBB10_65
# %bb.64:                               # %if.then.i2.i.i1047
	ld.bu	$a0, $s3, 67
	b	.LBB10_67
.LBB10_65:                              # %if.end.i.i.i1052
.Ltmp383:                               # EH_LABEL
	move	$a0, $s3
	pcaddu18i	$ra, %call36(_ZNKSt5ctypeIcE13_M_widen_initEv)
	jirl	$ra, $ra, 0
.Ltmp384:                               # EH_LABEL
# %bb.66:                               # %.noexc1058
	ld.d	$a0, $s3, 0
	ld.d	$a2, $a0, 48
.Ltmp385:                               # EH_LABEL
	ori	$a1, $zero, 10
	move	$a0, $s3
	jirl	$ra, $a2, 0
.Ltmp386:                               # EH_LABEL
.LBB10_67:                              # %_ZNKSt9basic_iosIcSt11char_traitsIcEE5widenEc.exit.i1049
.Ltmp387:                               # EH_LABEL
	ext.w.b	$a1, $a0
	move	$a0, $s2
	pcaddu18i	$ra, %call36(_ZNSo3putEc)
	jirl	$ra, $ra, 0
.Ltmp388:                               # EH_LABEL
# %bb.68:                               # %call1.i.noexc1060
.Ltmp389:                               # EH_LABEL
	pcaddu18i	$ra, %call36(_ZNSo5flushEv)
	jirl	$ra, $ra, 0
.Ltmp390:                               # EH_LABEL
# %bb.69:                               # %invoke.cont72
.Ltmp391:                               # EH_LABEL
	pcalau12i	$a0, %pc_hi20(.L.str.35)
	addi.d	$a1, $a0, %pc_lo12(.L.str.35)
	ori	$a2, $zero, 25
	move	$a0, $s0
	pcaddu18i	$ra, %call36(_ZSt16__ostream_insertIcSt11char_traitsIcEERSt13basic_ostreamIT_T0_ES6_PKS3_l)
	jirl	$ra, $ra, 0
.Ltmp392:                               # EH_LABEL
# %bb.70:                               # %for.cond76.preheader
	sub.d	$a0, $s5, $s4
	srai.d	$a1, $a0, 5
	bstrpick.d	$a0, $a0, 36, 5
	slli.d	$a0, $a0, 5
	bstrpick.d	$a1, $a1, 31, 0
	st.d	$a1, $sp, 48                    # 8-byte Folded Spill
	st.d	$a0, $sp, 32                    # 8-byte Folded Spill
	st.d	$s1, $sp, 88                    # 8-byte Folded Spill
	beqz	$a0, .LBB10_79
# %bb.71:                               # %for.body79.lr.ph
	pcalau12i	$a0, %pc_hi20(.L.str.36)
	addi.d	$fp, $a0, %pc_lo12(.L.str.36)
	move	$s2, $zero
	move	$s3, $zero
	ori	$s5, $zero, 3
	b	.LBB10_73
	.p2align	4, , 16
.LBB10_72:                              # %_ZNSt7__cxx1112basic_stringIcSt11char_traitsIcESaIcEED2Ev.exit299
                                        #   in Loop: Header=BB10_73 Depth=1
	addi.d	$s2, $s2, 32
	ld.d	$a0, $sp, 48                    # 8-byte Folded Reload
	beq	$a0, $s3, .LBB10_79
.LBB10_73:                              # %for.body79
                                        # =>This Inner Loop Header: Depth=1
	ld.d	$a0, $sp, 112                   # 8-byte Folded Reload
	ld.d	$a1, $a0, 8
	ld.d	$a0, $a0, 0
	addi.d	$a2, $sp, 264
	st.d	$a2, $sp, 248
	st.d	$zero, $sp, 256
	addi.d	$s3, $s3, 1
	sub.d	$a1, $a1, $a0
	srai.d	$a1, $a1, 5
	st.b	$zero, $sp, 264
	bgeu	$s3, $a1, .LBB10_75
# %bb.74:                               # %_ZNSt7__cxx1112basic_stringIcSt11char_traitsIcESaIcEED2Ev.exit
                                        #   in Loop: Header=BB10_73 Depth=1
	ld.b	$a1, $fp, 2
	ld.h	$a2, $fp, 0
	addi.d	$a3, $sp, 264
	st.b	$a1, $a3, 2
	st.h	$a2, $a3, 0
	st.d	$s5, $sp, 256
	st.b	$zero, $sp, 267
.LBB10_75:                              # %if.end
                                        #   in Loop: Header=BB10_73 Depth=1
	add.d	$a2, $a0, $s2
	ldx.d	$a1, $a0, $s2
	ld.d	$a2, $a2, 8
.Ltmp393:                               # EH_LABEL
	move	$a0, $s0
	pcaddu18i	$ra, %call36(_ZSt16__ostream_insertIcSt11char_traitsIcEERSt13basic_ostreamIT_T0_ES6_PKS3_l)
	jirl	$ra, $ra, 0
.Ltmp394:                               # EH_LABEL
# %bb.76:                               # %invoke.cont91
                                        #   in Loop: Header=BB10_73 Depth=1
	ld.d	$a1, $sp, 248
	ld.d	$a2, $sp, 256
.Ltmp395:                               # EH_LABEL
	pcaddu18i	$ra, %call36(_ZSt16__ostream_insertIcSt11char_traitsIcEERSt13basic_ostreamIT_T0_ES6_PKS3_l)
	jirl	$ra, $ra, 0
.Ltmp396:                               # EH_LABEL
# %bb.77:                               # %invoke.cont93
                                        #   in Loop: Header=BB10_73 Depth=1
	ld.d	$a0, $sp, 248
	addi.d	$a1, $sp, 264
	beq	$a0, $a1, .LBB10_72
# %bb.78:                               # %if.then.i.i294
                                        #   in Loop: Header=BB10_73 Depth=1
	pcaddu18i	$ra, %call36(_ZdlPv)
	jirl	$ra, $ra, 0
	b	.LBB10_72
.LBB10_79:                              # %for.cond.cleanup78
.Ltmp398:                               # EH_LABEL
	pcalau12i	$a0, %pc_hi20(.L.str.37)
	addi.d	$a1, $a0, %pc_lo12(.L.str.37)
	ori	$a2, $zero, 26
	move	$a0, $s0
	pcaddu18i	$ra, %call36(_ZSt16__ostream_insertIcSt11char_traitsIcEERSt13basic_ostreamIT_T0_ES6_PKS3_l)
	jirl	$ra, $ra, 0
.Ltmp399:                               # EH_LABEL
# %bb.80:                               # %invoke.cont100
	ld.d	$a1, $s4, 0
	ld.d	$a2, $s4, 8
.Ltmp400:                               # EH_LABEL
	move	$a0, $s0
	pcaddu18i	$ra, %call36(_ZSt16__ostream_insertIcSt11char_traitsIcEERSt13basic_ostreamIT_T0_ES6_PKS3_l)
	jirl	$ra, $ra, 0
.Ltmp401:                               # EH_LABEL
# %bb.81:                               # %invoke.cont102
	move	$s2, $a0
	ld.d	$a0, $a0, 0
	ld.d	$a0, $a0, -24
	add.d	$a0, $s2, $a0
	ld.d	$s3, $a0, 240
	beqz	$s3, .LBB10_270
# %bb.82:                               # %_ZSt13__check_facetISt5ctypeIcEERKT_PS3_.exit.i.i1070
	ld.bu	$a0, $s3, 56
	beqz	$a0, .LBB10_84
# %bb.83:                               # %if.then.i2.i.i1073
	ld.bu	$a0, $s3, 67
	b	.LBB10_86
.LBB10_84:                              # %if.end.i.i.i1078
.Ltmp402:                               # EH_LABEL
	move	$a0, $s3
	pcaddu18i	$ra, %call36(_ZNKSt5ctypeIcE13_M_widen_initEv)
	jirl	$ra, $ra, 0
.Ltmp403:                               # EH_LABEL
# %bb.85:                               # %.noexc1084
	ld.d	$a0, $s3, 0
	ld.d	$a2, $a0, 48
.Ltmp404:                               # EH_LABEL
	ori	$a1, $zero, 10
	move	$a0, $s3
	jirl	$ra, $a2, 0
.Ltmp405:                               # EH_LABEL
.LBB10_86:                              # %_ZNKSt9basic_iosIcSt11char_traitsIcEE5widenEc.exit.i1075
.Ltmp406:                               # EH_LABEL
	ext.w.b	$a1, $a0
	move	$a0, $s2
	pcaddu18i	$ra, %call36(_ZNSo3putEc)
	jirl	$ra, $ra, 0
.Ltmp407:                               # EH_LABEL
# %bb.87:                               # %call1.i.noexc1086
.Ltmp408:                               # EH_LABEL
	pcaddu18i	$ra, %call36(_ZNSo5flushEv)
	jirl	$ra, $ra, 0
.Ltmp409:                               # EH_LABEL
# %bb.88:                               # %invoke.cont104
	ld.d	$a1, $sp, 408
	ld.d	$a2, $sp, 416
.Ltmp410:                               # EH_LABEL
	move	$a0, $s0
	pcaddu18i	$ra, %call36(_ZSt16__ostream_insertIcSt11char_traitsIcEERSt13basic_ostreamIT_T0_ES6_PKS3_l)
	jirl	$ra, $ra, 0
.Ltmp411:                               # EH_LABEL
# %bb.89:                               # %invoke.cont106
	ld.d	$a1, $sp, 408
	ld.d	$a2, $sp, 416
.Ltmp412:                               # EH_LABEL
	move	$a0, $s0
	pcaddu18i	$ra, %call36(_ZSt16__ostream_insertIcSt11char_traitsIcEERSt13basic_ostreamIT_T0_ES6_PKS3_l)
	jirl	$ra, $ra, 0
.Ltmp413:                               # EH_LABEL
# %bb.90:                               # %for.cond110.preheader
	addi.d	$a0, $sp, 264
	st.d	$a0, $sp, 248
	ori	$a0, $zero, 18
	st.d	$a0, $sp, 216
.Ltmp414:                               # EH_LABEL
	addi.d	$a0, $sp, 248
	addi.d	$a1, $sp, 216
	move	$a2, $zero
	pcaddu18i	$ra, %call36(_ZNSt7__cxx1112basic_stringIcSt11char_traitsIcESaIcEE9_M_createERmm)
	jirl	$ra, $ra, 0
.Ltmp415:                               # EH_LABEL
# %bb.91:                               # %call2.i5.i.noexc339
	ld.d	$a1, $sp, 216
	st.d	$a0, $sp, 248
	st.d	$a1, $sp, 264
	pcalau12i	$a2, %pc_hi20(.L.str.38)
	addi.d	$a2, $a2, %pc_lo12(.L.str.38)
	vld	$vr0, $a2, 0
	ld.h	$a2, $a2, 16
	vst	$vr0, $a0, 0
	st.h	$a2, $a0, 16
	ld.d	$a0, $sp, 248
	st.d	$a1, $sp, 256
	stx.b	$zero, $a0, $a1
	ld.d	$fp, $sp, 256
.Ltmp417:                               # EH_LABEL
	pcalau12i	$a0, %pc_hi20(.L.str.39)
	addi.d	$a1, $a0, %pc_lo12(.L.str.39)
	ori	$a2, $zero, 65
	move	$a0, $s0
	pcaddu18i	$ra, %call36(_ZSt16__ostream_insertIcSt11char_traitsIcEERSt13basic_ostreamIT_T0_ES6_PKS3_l)
	jirl	$ra, $ra, 0
.Ltmp418:                               # EH_LABEL
# %bb.92:                               # %invoke.cont151
	ld.d	$a0, $s0, 0
	ld.d	$a0, $a0, -24
	add.d	$a0, $s0, $a0
	ld.d	$s2, $a0, 240
	beqz	$s2, .LBB10_274
# %bb.93:                               # %_ZSt13__check_facetISt5ctypeIcEERKT_PS3_.exit.i.i1096
	ld.bu	$a0, $s2, 56
	beqz	$a0, .LBB10_95
# %bb.94:                               # %if.then.i2.i.i1099
	ld.bu	$a0, $s2, 67
	b	.LBB10_97
.LBB10_95:                              # %if.end.i.i.i1104
.Ltmp419:                               # EH_LABEL
	move	$a0, $s2
	pcaddu18i	$ra, %call36(_ZNKSt5ctypeIcE13_M_widen_initEv)
	jirl	$ra, $ra, 0
.Ltmp420:                               # EH_LABEL
# %bb.96:                               # %.noexc1110
	ld.d	$a0, $s2, 0
	ld.d	$a2, $a0, 48
.Ltmp421:                               # EH_LABEL
	ori	$a1, $zero, 10
	move	$a0, $s2
	jirl	$ra, $a2, 0
.Ltmp422:                               # EH_LABEL
.LBB10_97:                              # %_ZNKSt9basic_iosIcSt11char_traitsIcEE5widenEc.exit.i1101
.Ltmp423:                               # EH_LABEL
	ext.w.b	$a1, $a0
	move	$a0, $s0
	pcaddu18i	$ra, %call36(_ZNSo3putEc)
	jirl	$ra, $ra, 0
.Ltmp424:                               # EH_LABEL
# %bb.98:                               # %call1.i.noexc1112
.Ltmp425:                               # EH_LABEL
	pcaddu18i	$ra, %call36(_ZNSo5flushEv)
	jirl	$ra, $ra, 0
.Ltmp426:                               # EH_LABEL
# %bb.99:                               # %invoke.cont163
	ld.d	$a0, $s0, 0
	ld.d	$a1, $a0, -24
	add.d	$a1, $s0, $a1
	ld.wu	$a2, $a1, 24
	addi.w	$s8, $zero, -177
	lu32i.d	$s8, 0
	and	$a2, $a2, $s8
	addi.d	$a2, $a2, 32
	st.w	$a2, $a1, 24
	ld.d	$a0, $a0, -24
	slli.d	$a1, $fp, 32
	ori	$a2, $zero, 0
	lu32i.d	$a2, 1
	add.d	$a3, $a1, $a2
	ld.d	$a1, $sp, 248
	ld.d	$a2, $sp, 256
	add.d	$a0, $s0, $a0
	srai.d	$a3, $a3, 32
	st.d	$a3, $sp, 104                   # 8-byte Folded Spill
	st.d	$a3, $a0, 16
.Ltmp427:                               # EH_LABEL
	move	$a0, $s0
	pcaddu18i	$ra, %call36(_ZSt16__ostream_insertIcSt11char_traitsIcEERSt13basic_ostreamIT_T0_ES6_PKS3_l)
	jirl	$ra, $ra, 0
.Ltmp428:                               # EH_LABEL
# %bb.100:                              # %invoke.cont176
	ld.d	$a0, $s0, 0
	ld.d	$a1, $a0, -24
	add.d	$a1, $s0, $a1
	ld.wu	$a2, $a1, 24
	and	$a2, $a2, $s8
	addi.d	$a2, $a2, 128
	st.w	$a2, $a1, 24
	ld.d	$a0, $a0, -24
	add.d	$a0, $s0, $a0
	ori	$fp, $zero, 18
	st.d	$fp, $a0, 16
.Ltmp429:                               # EH_LABEL
	pcalau12i	$a0, %pc_hi20(.L.str.40)
	addi.d	$a1, $a0, %pc_lo12(.L.str.40)
	ori	$a2, $zero, 13
	move	$a0, $s0
	pcaddu18i	$ra, %call36(_ZSt16__ostream_insertIcSt11char_traitsIcEERSt13basic_ostreamIT_T0_ES6_PKS3_l)
	jirl	$ra, $ra, 0
.Ltmp430:                               # EH_LABEL
# %bb.101:                              # %invoke.cont189
	ld.d	$a0, $s0, 0
	ld.d	$a1, $a0, -24
	add.d	$a1, $s0, $a1
	ld.wu	$a2, $a1, 24
	and	$a2, $a2, $s8
	addi.d	$a2, $a2, 32
	st.w	$a2, $a1, 24
	ld.d	$a0, $a0, -24
	add.d	$a0, $s0, $a0
	st.d	$fp, $a0, 16
.Ltmp431:                               # EH_LABEL
	pcalau12i	$a0, %pc_hi20(.L.str.41)
	addi.d	$a1, $a0, %pc_lo12(.L.str.41)
	ori	$a2, $zero, 16
	move	$a0, $s0
	pcaddu18i	$ra, %call36(_ZSt16__ostream_insertIcSt11char_traitsIcEERSt13basic_ostreamIT_T0_ES6_PKS3_l)
	jirl	$ra, $ra, 0
.Ltmp432:                               # EH_LABEL
# %bb.102:                              # %invoke.cont202
	ld.d	$a0, $s0, 0
	ld.d	$a1, $a0, -24
	add.d	$a1, $s0, $a1
	ld.wu	$a2, $a1, 24
	and	$a2, $a2, $s8
	addi.d	$a2, $a2, 32
	st.w	$a2, $a1, 24
	ld.d	$a0, $a0, -24
	add.d	$a0, $s0, $a0
	ori	$fp, $zero, 18
	st.d	$fp, $a0, 16
.Ltmp433:                               # EH_LABEL
	pcalau12i	$a0, %pc_hi20(.L.str.42)
	addi.d	$a1, $a0, %pc_lo12(.L.str.42)
	ori	$a2, $zero, 14
	move	$a0, $s0
	pcaddu18i	$ra, %call36(_ZSt16__ostream_insertIcSt11char_traitsIcEERSt13basic_ostreamIT_T0_ES6_PKS3_l)
	jirl	$ra, $ra, 0
.Ltmp434:                               # EH_LABEL
# %bb.103:                              # %invoke.cont215
	ld.d	$a0, $s0, 0
	ld.d	$a1, $a0, -24
	add.d	$a1, $s0, $a1
	ld.wu	$a2, $a1, 24
	and	$a2, $a2, $s8
	addi.d	$a2, $a2, 32
	st.w	$a2, $a1, 24
	ld.d	$a0, $a0, -24
	add.d	$a0, $s0, $a0
	st.d	$fp, $a0, 16
.Ltmp435:                               # EH_LABEL
	pcalau12i	$a0, %pc_hi20(.L.str.43)
	addi.d	$a1, $a0, %pc_lo12(.L.str.43)
	ori	$a2, $zero, 13
	move	$a0, $s0
	pcaddu18i	$ra, %call36(_ZSt16__ostream_insertIcSt11char_traitsIcEERSt13basic_ostreamIT_T0_ES6_PKS3_l)
	jirl	$ra, $ra, 0
.Ltmp436:                               # EH_LABEL
# %bb.104:                              # %invoke.cont228
	ld.d	$a0, $s0, 0
	ld.d	$a1, $a0, -24
	add.d	$a1, $s0, $a1
	ld.wu	$a2, $a1, 24
	and	$a2, $a2, $s8
	addi.d	$a2, $a2, 32
	st.w	$a2, $a1, 24
	ld.d	$a0, $a0, -24
	add.d	$a0, $s0, $a0
	ori	$a1, $zero, 18
	st.d	$a1, $a0, 16
.Ltmp437:                               # EH_LABEL
	pcalau12i	$a0, %pc_hi20(.L.str.44)
	addi.d	$a1, $a0, %pc_lo12(.L.str.44)
	ori	$a2, $zero, 28
	move	$a0, $s0
	pcaddu18i	$ra, %call36(_ZSt16__ostream_insertIcSt11char_traitsIcEERSt13basic_ostreamIT_T0_ES6_PKS3_l)
	jirl	$ra, $ra, 0
.Ltmp438:                               # EH_LABEL
# %bb.105:                              # %invoke.cont230
	ld.d	$a0, $s0, 0
	ld.d	$a0, $a0, -24
	add.d	$a0, $s0, $a0
	ld.d	$s2, $a0, 240
	beqz	$s2, .LBB10_274
# %bb.106:                              # %_ZSt13__check_facetISt5ctypeIcEERKT_PS3_.exit.i.i1137
	ld.bu	$a0, $s2, 56
	beqz	$a0, .LBB10_108
# %bb.107:                              # %if.then.i2.i.i1140
	ld.bu	$a0, $s2, 67
	b	.LBB10_110
.LBB10_108:                             # %if.end.i.i.i1145
.Ltmp439:                               # EH_LABEL
	move	$a0, $s2
	pcaddu18i	$ra, %call36(_ZNKSt5ctypeIcE13_M_widen_initEv)
	jirl	$ra, $ra, 0
.Ltmp440:                               # EH_LABEL
# %bb.109:                              # %.noexc1151
	ld.d	$a0, $s2, 0
	ld.d	$a2, $a0, 48
.Ltmp441:                               # EH_LABEL
	ori	$a1, $zero, 10
	move	$a0, $s2
	jirl	$ra, $a2, 0
.Ltmp442:                               # EH_LABEL
.LBB10_110:                             # %_ZNKSt9basic_iosIcSt11char_traitsIcEE5widenEc.exit.i1142
.Ltmp443:                               # EH_LABEL
	ext.w.b	$a1, $a0
	move	$a0, $s0
	pcaddu18i	$ra, %call36(_ZNSo3putEc)
	jirl	$ra, $ra, 0
.Ltmp444:                               # EH_LABEL
# %bb.111:                              # %call1.i.noexc1153
.Ltmp445:                               # EH_LABEL
	pcaddu18i	$ra, %call36(_ZNSo5flushEv)
	jirl	$ra, $ra, 0
.Ltmp446:                               # EH_LABEL
# %bb.112:                              # %invoke.cont232
	ld.d	$a1, $sp, 376
	ld.d	$a2, $sp, 384
.Ltmp447:                               # EH_LABEL
	move	$a0, $s0
	pcaddu18i	$ra, %call36(_ZSt16__ostream_insertIcSt11char_traitsIcEERSt13basic_ostreamIT_T0_ES6_PKS3_l)
	jirl	$ra, $ra, 0
.Ltmp448:                               # EH_LABEL
# %bb.113:                              # %for.cond237.preheader
	ld.d	$a0, $s6, 48
	ld.d	$fp, $s6, 40
	beq	$a0, $fp, .LBB10_235
# %bb.114:                              # %for.body242.lr.ph
	move	$a1, $s6
	move	$s6, $zero
	st.d	$zero, $sp, 40                  # 8-byte Folded Spill
	addi.d	$a0, $a1, 600
	st.d	$a0, $sp, 80                    # 8-byte Folded Spill
	ori	$a0, $zero, 0
	lu32i.d	$a0, -65536
	lu52i.d	$a0, $a0, 1023
	st.d	$a0, $sp, 72                    # 8-byte Folded Spill
	lu12i.w	$a0, 524287
	ori	$a0, $a0, 4095
	st.d	$a0, $sp, 144                   # 8-byte Folded Spill
	st.d	$a1, $sp, 56                    # 8-byte Folded Spill
	b	.LBB10_116
	.p2align	4, , 16
.LBB10_115:                             # %_ZNSt6vectorIeSaIeEED2Ev.exit
                                        #   in Loop: Header=BB10_116 Depth=1
	ld.d	$a1, $sp, 56                    # 8-byte Folded Reload
	ld.d	$a0, $a1, 48
	ld.d	$fp, $a1, 40
	ld.d	$a2, $sp, 40                    # 8-byte Folded Reload
	addi.w	$a2, $a2, 1
	st.d	$a2, $sp, 40                    # 8-byte Folded Spill
	bstrpick.d	$s6, $a2, 31, 0
	sub.d	$a0, $a0, $fp
	srai.d	$a0, $a0, 5
	bgeu	$s6, $a0, .LBB10_235
.LBB10_116:                             # %for.body242
                                        # =>This Loop Header: Depth=1
                                        #     Child Loop BB10_120 Depth 2
                                        #     Child Loop BB10_151 Depth 2
                                        #       Child Loop BB10_155 Depth 3
                                        #       Child Loop BB10_167 Depth 3
                                        #       Child Loop BB10_186 Depth 3
	ld.d	$s5, $a1, 608
	ld.d	$a0, $sp, 80                    # 8-byte Folded Reload
	beqz	$s5, .LBB10_127
# %bb.117:                              # %while.body.lr.ph.i.i.i.i
                                        #   in Loop: Header=BB10_116 Depth=1
	ld.d	$a0, $sp, 112                   # 8-byte Folded Reload
	ld.d	$a0, $a0, 0
	ld.d	$s4, $a0, 8
	ld.d	$s2, $a0, 0
	ld.d	$s3, $sp, 80                    # 8-byte Folded Reload
	b	.LBB10_120
	.p2align	4, , 16
.LBB10_118:                             # %if.then.i.i.i.i.i.i.i
                                        #   in Loop: Header=BB10_120 Depth=2
	sub.d	$a0, $s7, $s4
	lu12i.w	$a2, -524288
	slt	$a1, $a2, $a0
	maskeqz	$a0, $a0, $a1
	masknez	$a1, $a2, $a1
	or	$a0, $a0, $a1
	ld.d	$a2, $sp, 144                   # 8-byte Folded Reload
	slt	$a1, $a0, $a2
	maskeqz	$a0, $a0, $a1
	masknez	$a1, $a2, $a1
	or	$a0, $a0, $a1
.LBB10_119:                             # %_ZNKSt4lessINSt7__cxx1112basic_stringIcSt11char_traitsIcESaIcEEEEclERKS5_S8_.exit.i.i.i.i
                                        #   in Loop: Header=BB10_120 Depth=2
	addi.w	$a0, $a0, 0
	slti	$a0, $a0, 0
	masknez	$a1, $s5, $a0
	ori	$a2, $zero, 16
	masknez	$a2, $a2, $a0
	ori	$a3, $zero, 24
	maskeqz	$a3, $a3, $a0
	or	$a2, $a3, $a2
	ldx.d	$s5, $s5, $a2
	maskeqz	$a0, $s3, $a0
	or	$s3, $a0, $a1
	beqz	$s5, .LBB10_122
.LBB10_120:                             # %while.body.i.i.i.i
                                        #   Parent Loop BB10_116 Depth=1
                                        # =>  This Inner Loop Header: Depth=2
	ld.d	$s7, $s5, 40
	sltu	$a0, $s4, $s7
	masknez	$a1, $s7, $a0
	maskeqz	$a0, $s4, $a0
	or	$a2, $a0, $a1
	beqz	$a2, .LBB10_118
# %bb.121:                              # %_ZNSt11char_traitsIcE7compareEPKcS2_m.exit.i.i.i.i.i.i.i
                                        #   in Loop: Header=BB10_120 Depth=2
	ld.d	$a0, $s5, 32
	move	$a1, $s2
	pcaddu18i	$ra, %call36(memcmp)
	jirl	$ra, $ra, 0
	bnez	$a0, .LBB10_119
	b	.LBB10_118
	.p2align	4, , 16
.LBB10_122:                             # %_ZNKSt8_Rb_treeINSt7__cxx1112basic_stringIcSt11char_traitsIcESaIcEEESt4pairIKS5_PSt6vectorI8LoopStatSaIS9_EEESt10_Select1stISD_ESt4lessIS5_ESaISD_EE14_M_lower_boundEPSt18_Rb_tree_node_baseSL_RS7_.exit.i.i.i
                                        #   in Loop: Header=BB10_116 Depth=1
	ld.d	$a1, $sp, 80                    # 8-byte Folded Reload
	move	$a0, $a1
	beq	$s3, $a1, .LBB10_127
# %bb.123:                              # %lor.lhs.false.i.i.i
                                        #   in Loop: Header=BB10_116 Depth=1
	ld.d	$s5, $s3, 40
	sltu	$a0, $s5, $s4
	masknez	$a1, $s4, $a0
	maskeqz	$a0, $s5, $a0
	or	$a2, $a0, $a1
	beqz	$a2, .LBB10_125
# %bb.124:                              # %_ZNSt11char_traitsIcE7compareEPKcS2_m.exit.i.i.i.i.i.i
                                        #   in Loop: Header=BB10_116 Depth=1
	ld.d	$a1, $s3, 32
	move	$a0, $s2
	pcaddu18i	$ra, %call36(memcmp)
	jirl	$ra, $ra, 0
	bnez	$a0, .LBB10_126
.LBB10_125:                             # %if.then.i.i.i.i.i.i
                                        #   in Loop: Header=BB10_116 Depth=1
	sub.d	$a0, $s4, $s5
	lu12i.w	$a2, -524288
	slt	$a1, $a2, $a0
	maskeqz	$a0, $a0, $a1
	masknez	$a1, $a2, $a1
	or	$a0, $a0, $a1
	ld.d	$a2, $sp, 144                   # 8-byte Folded Reload
	slt	$a1, $a0, $a2
	maskeqz	$a0, $a0, $a1
	masknez	$a1, $a2, $a1
	or	$a0, $a0, $a1
.LBB10_126:                             # %_ZNKSt4lessINSt7__cxx1112basic_stringIcSt11char_traitsIcESaIcEEEEclERKS5_S8_.exit.i.i.i
                                        #   in Loop: Header=BB10_116 Depth=1
	addi.w	$a0, $a0, 0
	slti	$a0, $a0, 0
	masknez	$a1, $s3, $a0
	ld.d	$a2, $sp, 80                    # 8-byte Folded Reload
	maskeqz	$a0, $a2, $a0
	or	$a0, $a0, $a1
.LBB10_127:                             # %invoke.cont245
                                        #   in Loop: Header=BB10_116 Depth=1
	ld.d	$a0, $a0, 64
	ld.d	$a0, $a0, 0
	ori	$a1, $zero, 280
	mul.d	$a1, $s6, $a1
	st.d	$a1, $sp, 64                    # 8-byte Folded Spill
	add.d	$s3, $a0, $a1
	ld.d	$a0, $s3, 72
	ld.d	$a1, $s3, 64
	beq	$a0, $a1, .LBB10_132
# %bb.128:                              # %_ZNSt15__new_allocatorIeE8allocateEmPKv.exit.i.i.i.i
                                        #   in Loop: Header=BB10_116 Depth=1
.Ltmp449:                               # EH_LABEL
	sub.d	$a0, $a0, $a1
	pcaddu18i	$ra, %call36(_Znwm)
	jirl	$ra, $ra, 0
	st.d	$a0, $sp, 96                    # 8-byte Folded Spill
.Ltmp450:                               # EH_LABEL
# %bb.129:                              # %invoke.cont.i468
                                        #   in Loop: Header=BB10_116 Depth=1
	ld.d	$a1, $s3, 64
	ld.d	$a0, $s3, 72
	sub.d	$a2, $a0, $a1
	blez	$a2, .LBB10_131
# %bb.130:                              # %if.then.i.i.i
                                        #   in Loop: Header=BB10_116 Depth=1
	ld.d	$a0, $sp, 96                    # 8-byte Folded Reload
	pcaddu18i	$ra, %call36(memcpy)
	jirl	$ra, $ra, 0
.LBB10_131:                             # %invoke.cont250
                                        #   in Loop: Header=BB10_116 Depth=1
	slli.d	$s2, $s6, 5
	add.d	$a0, $fp, $s2
	ld.d	$a2, $a0, 8
	bnez	$a2, .LBB10_133
	b	.LBB10_233
	.p2align	4, , 16
.LBB10_132:                             #   in Loop: Header=BB10_116 Depth=1
	st.d	$zero, $sp, 96                  # 8-byte Folded Spill
	slli.d	$s2, $s6, 5
	add.d	$a0, $fp, $s2
	ld.d	$a2, $a0, 8
	beqz	$a2, .LBB10_233
.LBB10_133:                             # %land.lhs.true
                                        #   in Loop: Header=BB10_116 Depth=1
	ld.bu	$a0, $s3, 0
	beqz	$a0, .LBB10_233
# %bb.134:                              # %if.then254
                                        #   in Loop: Header=BB10_116 Depth=1
