	.file	"benchmark.cc"
                                        # Start of file scope inline assembly
	.globl	_ZSt21ios_base_library_initv

                                        # End of file scope inline assembly
	.text
	.hidden	_ZN9benchmark8internal17InitializeStreamsEv # -- Begin function _ZN9benchmark8internal17InitializeStreamsEv
	.globl	_ZN9benchmark8internal17InitializeStreamsEv
	.p2align	5
	.type	_ZN9benchmark8internal17InitializeStreamsEv,@function
_ZN9benchmark8internal17InitializeStreamsEv: # @_ZN9benchmark8internal17InitializeStreamsEv
.Lfunc_begin0:
	.cfi_startproc
	.cfi_personality 155, DW.ref.__gxx_personality_v0
	.cfi_lsda 27, .Lexception0
# %bb.0:                                # %entry
	addi.d	$sp, $sp, -16
	.cfi_def_cfa_offset 16
	st.d	$ra, $sp, 8                     # 8-byte Folded Spill
	st.d	$fp, $sp, 0                     # 8-byte Folded Spill
	.cfi_offset 1, -8
	.cfi_offset 22, -16
	pcalau12i	$a0, %pc_hi20(_ZGVZN9benchmark8internal17InitializeStreamsEvE4init)
	ld.b	$a0, $a0, %pc_lo12(_ZGVZN9benchmark8internal17InitializeStreamsEvE4init)
	dbar	20
	beqz	$a0, .LBB0_2
.LBB0_1:                                # %init.end
	move	$a0, $zero
	ld.d	$fp, $sp, 0                     # 8-byte Folded Reload
	ld.d	$ra, $sp, 8                     # 8-byte Folded Reload
	addi.d	$sp, $sp, 16
	ret
.LBB0_2:                                # %init.check
	pcalau12i	$a0, %pc_hi20(_ZGVZN9benchmark8internal17InitializeStreamsEvE4init)
	addi.d	$a0, $a0, %pc_lo12(_ZGVZN9benchmark8internal17InitializeStreamsEvE4init)
	pcaddu18i	$ra, %call36(__cxa_guard_acquire)
	jirl	$ra, $ra, 0
	addi.w	$a0, $a0, 0
	beqz	$a0, .LBB0_1
# %bb.3:                                # %init
.Ltmp0:                                 # EH_LABEL
	pcalau12i	$a0, %pc_hi20(_ZZN9benchmark8internal17InitializeStreamsEvE4init)
	addi.d	$a0, $a0, %pc_lo12(_ZZN9benchmark8internal17InitializeStreamsEvE4init)
	pcaddu18i	$ra, %call36(_ZNSt8ios_base4InitC1Ev)
	jirl	$ra, $ra, 0
.Ltmp1:                                 # EH_LABEL
# %bb.4:                                # %invoke.cont
	pcalau12i	$a0, %got_pc_hi20(_ZNSt8ios_base4InitD1Ev)
	ld.d	$a0, $a0, %got_pc_lo12(_ZNSt8ios_base4InitD1Ev)
	pcalau12i	$a1, %pc_hi20(_ZZN9benchmark8internal17InitializeStreamsEvE4init)
	addi.d	$a1, $a1, %pc_lo12(_ZZN9benchmark8internal17InitializeStreamsEvE4init)
	pcalau12i	$a2, %pc_hi20(__dso_handle)
	addi.d	$a2, $a2, %pc_lo12(__dso_handle)
	pcaddu18i	$ra, %call36(__cxa_atexit)
	jirl	$ra, $ra, 0
	pcalau12i	$a0, %pc_hi20(_ZGVZN9benchmark8internal17InitializeStreamsEvE4init)
	addi.d	$a0, $a0, %pc_lo12(_ZGVZN9benchmark8internal17InitializeStreamsEvE4init)
	pcaddu18i	$ra, %call36(__cxa_guard_release)
	jirl	$ra, $ra, 0
	b	.LBB0_1
.LBB0_5:                                # %lpad
.Ltmp2:                                 # EH_LABEL
	move	$fp, $a0
	pcalau12i	$a0, %pc_hi20(_ZGVZN9benchmark8internal17InitializeStreamsEvE4init)
	addi.d	$a0, $a0, %pc_lo12(_ZGVZN9benchmark8internal17InitializeStreamsEvE4init)
	pcaddu18i	$ra, %call36(__cxa_guard_abort)
	jirl	$ra, $ra, 0
	move	$a0, $fp
	pcaddu18i	$ra, %call36(_Unwind_Resume)
	jirl	$ra, $ra, 0
.Lfunc_end0:
	.size	_ZN9benchmark8internal17InitializeStreamsEv, .Lfunc_end0-_ZN9benchmark8internal17InitializeStreamsEv
	.cfi_endproc
	.section	.gcc_except_table,"a",@progbits
	.p2align	2, 0x0
GCC_except_table0:
.Lexception0:
	.byte	255                             # @LPStart Encoding = omit
	.byte	255                             # @TType Encoding = omit
	.byte	1                               # Call site Encoding = uleb128
	.uleb128 .Lcst_end0-.Lcst_begin0
.Lcst_begin0:
	.uleb128 .Lfunc_begin0-.Lfunc_begin0    # >> Call Site 1 <<
	.uleb128 .Ltmp0-.Lfunc_begin0           #   Call between .Lfunc_begin0 and .Ltmp0
	.byte	0                               #     has no landing pad
	.byte	0                               #   On action: cleanup
	.uleb128 .Ltmp0-.Lfunc_begin0           # >> Call Site 2 <<
	.uleb128 .Ltmp1-.Ltmp0                  #   Call between .Ltmp0 and .Ltmp1
	.uleb128 .Ltmp2-.Lfunc_begin0           #     jumps to .Ltmp2
	.byte	0                               #   On action: cleanup
	.uleb128 .Ltmp1-.Lfunc_begin0           # >> Call Site 3 <<
	.uleb128 .Lfunc_end0-.Ltmp1             #   Call between .Ltmp1 and .Lfunc_end0
	.byte	0                               #     has no landing pad
	.byte	0                               #   On action: cleanup
.Lcst_end0:
	.p2align	2, 0x0
                                        # -- End function
	.section	.text._ZNSt3mapINSt7__cxx1112basic_stringIcSt11char_traitsIcESaIcEEES5_St4lessIS5_ESaISt4pairIKS5_S5_EEED2Ev,"axG",@progbits,_ZNSt3mapINSt7__cxx1112basic_stringIcSt11char_traitsIcESaIcEEES5_St4lessIS5_ESaISt4pairIKS5_S5_EEED2Ev,comdat
	.hidden	_ZNSt3mapINSt7__cxx1112basic_stringIcSt11char_traitsIcESaIcEEES5_St4lessIS5_ESaISt4pairIKS5_S5_EEED2Ev # -- Begin function _ZNSt3mapINSt7__cxx1112basic_stringIcSt11char_traitsIcESaIcEEES5_St4lessIS5_ESaISt4pairIKS5_S5_EEED2Ev
	.weak	_ZNSt3mapINSt7__cxx1112basic_stringIcSt11char_traitsIcESaIcEEES5_St4lessIS5_ESaISt4pairIKS5_S5_EEED2Ev
	.p2align	2
	.type	_ZNSt3mapINSt7__cxx1112basic_stringIcSt11char_traitsIcESaIcEEES5_St4lessIS5_ESaISt4pairIKS5_S5_EEED2Ev,@function
_ZNSt3mapINSt7__cxx1112basic_stringIcSt11char_traitsIcESaIcEEES5_St4lessIS5_ESaISt4pairIKS5_S5_EEED2Ev: # @_ZNSt3mapINSt7__cxx1112basic_stringIcSt11char_traitsIcESaIcEEES5_St4lessIS5_ESaISt4pairIKS5_S5_EEED2Ev
.Lfunc_begin1:
	.cfi_startproc
	.cfi_personality 155, DW.ref.__gxx_personality_v0
	.cfi_lsda 27, .Lexception1
# %bb.0:                                # %entry
	addi.d	$sp, $sp, -16
	.cfi_def_cfa_offset 16
	st.d	$ra, $sp, 8                     # 8-byte Folded Spill
	.cfi_offset 1, -8
	ld.d	$a1, $a0, 16
.Ltmp3:                                 # EH_LABEL
	pcaddu18i	$ra, %call36(_ZNSt8_Rb_treeINSt7__cxx1112basic_stringIcSt11char_traitsIcESaIcEEESt4pairIKS5_S5_ESt10_Select1stIS8_ESt4lessIS5_ESaIS8_EE8_M_eraseEPSt13_Rb_tree_nodeIS8_E)
	jirl	$ra, $ra, 0
.Ltmp4:                                 # EH_LABEL
# %bb.1:                                # %_ZNSt8_Rb_treeINSt7__cxx1112basic_stringIcSt11char_traitsIcESaIcEEESt4pairIKS5_S5_ESt10_Select1stIS8_ESt4lessIS5_ESaIS8_EED2Ev.exit
	ld.d	$ra, $sp, 8                     # 8-byte Folded Reload
	addi.d	$sp, $sp, 16
	ret
.LBB1_2:                                # %terminate.lpad.i
.Ltmp5:                                 # EH_LABEL
	pcaddu18i	$ra, %call36(__clang_call_terminate)
	jirl	$ra, $ra, 0
.Lfunc_end1:
	.size	_ZNSt3mapINSt7__cxx1112basic_stringIcSt11char_traitsIcESaIcEEES5_St4lessIS5_ESaISt4pairIKS5_S5_EEED2Ev, .Lfunc_end1-_ZNSt3mapINSt7__cxx1112basic_stringIcSt11char_traitsIcESaIcEEES5_St4lessIS5_ESaISt4pairIKS5_S5_EEED2Ev
	.cfi_endproc
	.section	.gcc_except_table._ZNSt3mapINSt7__cxx1112basic_stringIcSt11char_traitsIcESaIcEEES5_St4lessIS5_ESaISt4pairIKS5_S5_EEED2Ev,"aG",@progbits,_ZNSt3mapINSt7__cxx1112basic_stringIcSt11char_traitsIcESaIcEEES5_St4lessIS5_ESaISt4pairIKS5_S5_EEED2Ev,comdat
	.p2align	2, 0x0
GCC_except_table1:
.Lexception1:
	.byte	255                             # @LPStart Encoding = omit
	.byte	155                             # @TType Encoding = indirect pcrel sdata4
	.uleb128 .Lttbase0-.Lttbaseref0
.Lttbaseref0:
	.byte	1                               # Call site Encoding = uleb128
	.uleb128 .Lcst_end1-.Lcst_begin1
.Lcst_begin1:
	.uleb128 .Ltmp3-.Lfunc_begin1           # >> Call Site 1 <<
	.uleb128 .Ltmp4-.Ltmp3                  #   Call between .Ltmp3 and .Ltmp4
	.uleb128 .Ltmp5-.Lfunc_begin1           #     jumps to .Ltmp5
	.byte	1                               #   On action: 1
	.uleb128 .Ltmp4-.Lfunc_begin1           # >> Call Site 2 <<
	.uleb128 .Lfunc_end1-.Ltmp4             #   Call between .Ltmp4 and .Lfunc_end1
	.byte	0                               #     has no landing pad
	.byte	0                               #   On action: cleanup
.Lcst_end1:
	.byte	1                               # >> Action Record 1 <<
                                        #   Catch TypeInfo 1
	.byte	0                               #   No further actions
	.p2align	2, 0x0
                                        # >> Catch TypeInfos <<
	.word	0                               # TypeInfo 1
.Lttbase0:
	.p2align	2, 0x0
                                        # -- End function
	.text
	.hidden	_ZN9benchmark8internal16GetGlobalContextB5cxx11Ev # -- Begin function _ZN9benchmark8internal16GetGlobalContextB5cxx11Ev
	.globl	_ZN9benchmark8internal16GetGlobalContextB5cxx11Ev
	.p2align	5
	.type	_ZN9benchmark8internal16GetGlobalContextB5cxx11Ev,@function
_ZN9benchmark8internal16GetGlobalContextB5cxx11Ev: # @_ZN9benchmark8internal16GetGlobalContextB5cxx11Ev
# %bb.0:                                # %entry
	pcalau12i	$a0, %pc_hi20(_ZN9benchmark8internal14global_contextB5cxx11E)
	addi.d	$a0, $a0, %pc_lo12(_ZN9benchmark8internal14global_contextB5cxx11E)
	ret
.Lfunc_end2:
	.size	_ZN9benchmark8internal16GetGlobalContextB5cxx11Ev, .Lfunc_end2-_ZN9benchmark8internal16GetGlobalContextB5cxx11Ev
                                        # -- End function
	.hidden	_ZN9benchmark8internal14UseCharPointerEPVKc # -- Begin function _ZN9benchmark8internal14UseCharPointerEPVKc
	.globl	_ZN9benchmark8internal14UseCharPointerEPVKc
	.p2align	5
	.type	_ZN9benchmark8internal14UseCharPointerEPVKc,@function
_ZN9benchmark8internal14UseCharPointerEPVKc: # @_ZN9benchmark8internal14UseCharPointerEPVKc
# %bb.0:                                # %entry
	pcalau12i	$a1, %pc_hi20(_ZN9benchmark8internalL27global_force_escape_pointerE)
	st.d	$a0, $a1, %pc_lo12(_ZN9benchmark8internalL27global_force_escape_pointerE)
	ret
.Lfunc_end3:
	.size	_ZN9benchmark8internal14UseCharPointerEPVKc, .Lfunc_end3-_ZN9benchmark8internal14UseCharPointerEPVKc
                                        # -- End function
	.hidden	_ZN9benchmark5StateC2ENSt7__cxx1112basic_stringIcSt11char_traitsIcESaIcEEElRKSt6vectorIlSaIlEEiiPNS_8internal11ThreadTimerEPNSC_13ThreadManagerEPNSC_23PerfCountersMeasurementEPNS_15ProfilerManagerE # -- Begin function _ZN9benchmark5StateC2ENSt7__cxx1112basic_stringIcSt11char_traitsIcESaIcEEElRKSt6vectorIlSaIlEEiiPNS_8internal11ThreadTimerEPNSC_13ThreadManagerEPNSC_23PerfCountersMeasurementEPNS_15ProfilerManagerE
	.globl	_ZN9benchmark5StateC2ENSt7__cxx1112basic_stringIcSt11char_traitsIcESaIcEEElRKSt6vectorIlSaIlEEiiPNS_8internal11ThreadTimerEPNSC_13ThreadManagerEPNSC_23PerfCountersMeasurementEPNS_15ProfilerManagerE
	.p2align	2
	.type	_ZN9benchmark5StateC2ENSt7__cxx1112basic_stringIcSt11char_traitsIcESaIcEEElRKSt6vectorIlSaIlEEiiPNS_8internal11ThreadTimerEPNSC_13ThreadManagerEPNSC_23PerfCountersMeasurementEPNS_15ProfilerManagerE,@function
_ZN9benchmark5StateC2ENSt7__cxx1112basic_stringIcSt11char_traitsIcESaIcEEElRKSt6vectorIlSaIlEEiiPNS_8internal11ThreadTimerEPNSC_13ThreadManagerEPNSC_23PerfCountersMeasurementEPNS_15ProfilerManagerE: # @_ZN9benchmark5StateC2ENSt7__cxx1112basic_stringIcSt11char_traitsIcESaIcEEElRKSt6vectorIlSaIlEEiiPNS_8internal11ThreadTimerEPNSC_13ThreadManagerEPNSC_23PerfCountersMeasurementEPNS_15ProfilerManagerE
.Lfunc_begin2:
	.cfi_startproc
	.cfi_personality 155, DW.ref.__gxx_personality_v0
	.cfi_lsda 27, .Lexception2
# %bb.0:                                # %entry
	addi.d	$sp, $sp, -128
	.cfi_def_cfa_offset 128
	st.d	$ra, $sp, 120                   # 8-byte Folded Spill
	st.d	$fp, $sp, 112                   # 8-byte Folded Spill
	st.d	$s0, $sp, 104                   # 8-byte Folded Spill
	st.d	$s1, $sp, 96                    # 8-byte Folded Spill
	st.d	$s2, $sp, 88                    # 8-byte Folded Spill
	st.d	$s3, $sp, 80                    # 8-byte Folded Spill
	st.d	$s4, $sp, 72                    # 8-byte Folded Spill
	st.d	$s5, $sp, 64                    # 8-byte Folded Spill
	st.d	$s6, $sp, 56                    # 8-byte Folded Spill
	st.d	$s7, $sp, 48                    # 8-byte Folded Spill
	st.d	$s8, $sp, 40                    # 8-byte Folded Spill
	.cfi_offset 1, -8
	.cfi_offset 22, -16
	.cfi_offset 23, -24
	.cfi_offset 24, -32
	.cfi_offset 25, -40
	.cfi_offset 26, -48
	.cfi_offset 27, -56
	.cfi_offset 28, -64
	.cfi_offset 29, -72
	.cfi_offset 30, -80
	.cfi_offset 31, -88
	move	$s0, $a3
	move	$fp, $a0
	vrepli.b	$vr0, 0
	vst	$vr0, $a0, 0
	st.h	$zero, $a0, 24
	ld.d	$a0, $a3, 8
	ld.d	$a3, $a3, 0
	move	$s1, $a7
	move	$s2, $a6
	move	$s3, $a5
	move	$s4, $a4
	move	$s5, $a1
	st.d	$a2, $fp, 16
	st.w	$zero, $fp, 28
	sub.d	$s7, $a0, $a3
	vst	$vr0, $fp, 32
	st.d	$zero, $fp, 48
	beq	$a0, $a3, .LBB4_2
# %bb.1:                                # %_ZNSt15__new_allocatorIlE8allocateEmPKv.exit.i.i.i.i
	move	$a0, $s7
	pcaddu18i	$ra, %call36(_Znwm)
	jirl	$ra, $ra, 0
	move	$s6, $a0
	b	.LBB4_3
.LBB4_2:
	move	$s6, $zero
.LBB4_3:                                # %invoke.cont.i
	st.d	$s6, $fp, 32
	st.d	$s6, $fp, 40
	add.d	$a0, $s6, $s7
	st.d	$a0, $fp, 48
	ld.d	$a1, $s0, 0
	ld.d	$a0, $s0, 8
	sub.d	$s0, $a0, $a1
	ori	$a0, $zero, 1
	blt	$s0, $a0, .LBB4_5
# %bb.4:                                # %if.then.i.i.i
	move	$a0, $s6
	move	$a2, $s0
	pcaddu18i	$ra, %call36(memcpy)
	jirl	$ra, $ra, 0
	add.d	$s6, $s6, $s0
.LBB4_5:                                # %_ZNSt6vectorIlSaIlEEC2ERKS1_.exit
	ld.d	$s7, $sp, 136
	ld.d	$s8, $sp, 128
	st.d	$s6, $fp, 40
	st.d	$zero, $fp, 56
	addi.d	$a1, $fp, 72
	st.w	$zero, $fp, 72
	st.d	$zero, $fp, 80
	addi.d	$s0, $fp, 128
	st.d	$s0, $fp, 112
	ld.d	$a0, $s5, 0
	st.d	$a1, $fp, 88
	st.d	$a1, $fp, 96
	addi.d	$s6, $s5, 16
	st.d	$zero, $fp, 104
	beq	$a0, $s6, .LBB4_7
# %bb.6:                                # %if.else.i
	st.d	$a0, $fp, 112
	ld.d	$a0, $s6, 0
	st.d	$a0, $fp, 128
	b	.LBB4_8
.LBB4_7:                                # %_ZNSt11char_traitsIcE4copyEPcPKcm.exit.i
	ld.d	$a0, $s5, 8
	addi.d	$a2, $a0, 1
	move	$a0, $s0
	move	$a1, $s6
	pcaddu18i	$ra, %call36(memcpy)
	jirl	$ra, $ra, 0
.LBB4_8:                                # %_ZNSt7__cxx1112basic_stringIcSt11char_traitsIcESaIcEEC2EOS4_.exit
	ld.d	$a0, $s5, 8
	st.d	$a0, $fp, 120
	st.d	$s6, $s5, 0
	st.d	$zero, $s5, 8
	st.b	$zero, $s5, 16
	st.w	$s4, $fp, 144
	st.w	$s3, $fp, 148
	st.d	$s2, $fp, 152
	st.d	$s1, $fp, 160
	st.d	$s8, $fp, 168
	st.d	$s7, $fp, 176
	pcalau12i	$s3, %pc_hi20(_ZGVZN9benchmark8internal18GetNullLogInstanceEvE8null_log)
	ld.b	$a0, $s3, %pc_lo12(_ZGVZN9benchmark8internal18GetNullLogInstanceEvE8null_log)
	dbar	20
	pcalau12i	$s2, %pc_hi20(_ZZN9benchmark8internal18GetNullLogInstanceEvE8null_log)
	beqz	$a0, .LBB4_29
.LBB4_9:                                # %invoke.cont
	ld.d	$a0, $s2, %pc_lo12(_ZZN9benchmark8internal18GetNullLogInstanceEvE8null_log)
	addi.d	$s1, $fp, 64
	beqz	$a0, .LBB4_11
# %bb.10:                               # %if.then.i
.Ltmp6:                                 # EH_LABEL
	pcalau12i	$a1, %pc_hi20(.L.str.40)
	addi.d	$a1, $a1, %pc_lo12(.L.str.40)
	ori	$a2, $zero, 34
	pcaddu18i	$ra, %call36(_ZSt16__ostream_insertIcSt11char_traitsIcEERSt13basic_ostreamIT_T0_ES6_PKS3_l)
	jirl	$ra, $ra, 0
.Ltmp7:                                 # EH_LABEL
.LBB4_11:                               # %invoke.cont2
	ld.b	$a0, $s3, %pc_lo12(_ZGVZN9benchmark8internal18GetNullLogInstanceEvE8null_log)
	dbar	20
	beqz	$a0, .LBB4_31
.LBB4_12:                               # %invoke.cont4
	ld.d	$a0, $s2, %pc_lo12(_ZZN9benchmark8internal18GetNullLogInstanceEvE8null_log)
	beqz	$a0, .LBB4_14
# %bb.13:                               # %if.then.i13
.Ltmp8:                                 # EH_LABEL
	pcalau12i	$a1, %pc_hi20(.L.str.41)
	addi.d	$a1, $a1, %pc_lo12(.L.str.41)
	ori	$a2, $zero, 38
	pcaddu18i	$ra, %call36(_ZSt16__ostream_insertIcSt11char_traitsIcEERSt13basic_ostreamIT_T0_ES6_PKS3_l)
	jirl	$ra, $ra, 0
.Ltmp9:                                 # EH_LABEL
.LBB4_14:                               # %invoke.cont6
	ld.d	$a0, $fp, 168
	beqz	$a0, .LBB4_28
# %bb.15:                               # %if.then
	addi.d	$a1, $a0, 48
.Ltmp11:                                # EH_LABEL
	addi.d	$a0, $sp, 16
	pcaddu18i	$ra, %call36(_ZNSt6vectorINSt7__cxx1112basic_stringIcSt11char_traitsIcESaIcEEESaIS5_EEC2ERKS7_)
	jirl	$ra, $ra, 0
.Ltmp12:                                # EH_LABEL
# %bb.16:                               # %invoke.cont11
	ld.d	$s2, $sp, 16
	ld.d	$s3, $sp, 24
	beq	$s2, $s3, .LBB4_26
# %bb.17:
	ori	$s4, $zero, 8
	lu32i.d	$s4, 1000
	.p2align	4, , 16
.LBB4_18:                               # %for.body
                                        # =>This Inner Loop Header: Depth=1
.Ltmp14:                                # EH_LABEL
	move	$a0, $s1
	move	$a1, $s2
	pcaddu18i	$ra, %call36(_ZNSt3mapINSt7__cxx1112basic_stringIcSt11char_traitsIcESaIcEEEN9benchmark7CounterESt4lessIS5_ESaISt4pairIKS5_S7_EEEixERSB_)
	jirl	$ra, $ra, 0
.Ltmp15:                                # EH_LABEL
# %bb.19:                               # %invoke.cont22
                                        #   in Loop: Header=BB4_18 Depth=1
	st.d	$zero, $a0, 0
	addi.d	$s2, $s2, 32
	st.d	$s4, $a0, 8
	bne	$s2, $s3, .LBB4_18
# %bb.20:                               # %for.cond.cleanup
	ld.d	$s2, $sp, 16
	ld.d	$fp, $sp, 24
	beq	$s2, $fp, .LBB4_26
# %bb.21:                               # %for.body.i.i.preheader
	addi.d	$s0, $s2, 16
	b	.LBB4_23
	.p2align	4, , 16
.LBB4_22:                               # %_ZSt8_DestroyINSt7__cxx1112basic_stringIcSt11char_traitsIcESaIcEEEEvPT_.exit.i.i
                                        #   in Loop: Header=BB4_23 Depth=1
	addi.d	$a0, $s0, 16
	addi.d	$s0, $s0, 32
	beq	$a0, $fp, .LBB4_25
.LBB4_23:                               # %for.body.i.i
                                        # =>This Inner Loop Header: Depth=1
	ld.d	$a0, $s0, -16
	beq	$s0, $a0, .LBB4_22
# %bb.24:                               # %if.then.i.i.i.i.i
                                        #   in Loop: Header=BB4_23 Depth=1
	ld.d	$a1, $s0, 0
	addi.d	$a1, $a1, 1
	pcaddu18i	$ra, %call36(_ZdlPvm)
	jirl	$ra, $ra, 0
	b	.LBB4_22
.LBB4_25:                               # %invoke.contthread-pre-split.i
	ld.d	$s2, $sp, 16
.LBB4_26:                               # %invoke.cont.i19
	beqz	$s2, .LBB4_28
# %bb.27:                               # %if.then.i.i.i20
	ld.d	$a0, $sp, 32
	sub.d	$a1, $a0, $s2
	move	$a0, $s2
	pcaddu18i	$ra, %call36(_ZdlPvm)
	jirl	$ra, $ra, 0
.LBB4_28:                               # %if.end
	ld.d	$s8, $sp, 40                    # 8-byte Folded Reload
	ld.d	$s7, $sp, 48                    # 8-byte Folded Reload
	ld.d	$s6, $sp, 56                    # 8-byte Folded Reload
	ld.d	$s5, $sp, 64                    # 8-byte Folded Reload
	ld.d	$s4, $sp, 72                    # 8-byte Folded Reload
	ld.d	$s3, $sp, 80                    # 8-byte Folded Reload
	ld.d	$s2, $sp, 88                    # 8-byte Folded Reload
	ld.d	$s1, $sp, 96                    # 8-byte Folded Reload
	ld.d	$s0, $sp, 104                   # 8-byte Folded Reload
	ld.d	$fp, $sp, 112                   # 8-byte Folded Reload
	ld.d	$ra, $sp, 120                   # 8-byte Folded Reload
	addi.d	$sp, $sp, 128
	ret
.LBB4_29:                               # %init.check.i
	pcalau12i	$a0, %pc_hi20(_ZGVZN9benchmark8internal18GetNullLogInstanceEvE8null_log)
	addi.d	$a0, $a0, %pc_lo12(_ZGVZN9benchmark8internal18GetNullLogInstanceEvE8null_log)
	pcaddu18i	$ra, %call36(__cxa_guard_acquire)
	jirl	$ra, $ra, 0
	addi.w	$a0, $a0, 0
	beqz	$a0, .LBB4_9
# %bb.30:                               # %init.i
	st.d	$zero, $s2, %pc_lo12(_ZZN9benchmark8internal18GetNullLogInstanceEvE8null_log)
	pcalau12i	$a0, %pc_hi20(_ZGVZN9benchmark8internal18GetNullLogInstanceEvE8null_log)
	addi.d	$a0, $a0, %pc_lo12(_ZGVZN9benchmark8internal18GetNullLogInstanceEvE8null_log)
	pcaddu18i	$ra, %call36(__cxa_guard_release)
	jirl	$ra, $ra, 0
	b	.LBB4_9
.LBB4_31:                               # %init.check.i8
	pcalau12i	$a0, %pc_hi20(_ZGVZN9benchmark8internal18GetNullLogInstanceEvE8null_log)
	addi.d	$a0, $a0, %pc_lo12(_ZGVZN9benchmark8internal18GetNullLogInstanceEvE8null_log)
	pcaddu18i	$ra, %call36(__cxa_guard_acquire)
	jirl	$ra, $ra, 0
	addi.w	$a0, $a0, 0
	beqz	$a0, .LBB4_12
# %bb.32:                               # %init.i10
	st.d	$zero, $s2, %pc_lo12(_ZZN9benchmark8internal18GetNullLogInstanceEvE8null_log)
	pcalau12i	$a0, %pc_hi20(_ZGVZN9benchmark8internal18GetNullLogInstanceEvE8null_log)
	addi.d	$a0, $a0, %pc_lo12(_ZGVZN9benchmark8internal18GetNullLogInstanceEvE8null_log)
	pcaddu18i	$ra, %call36(__cxa_guard_release)
	jirl	$ra, $ra, 0
	b	.LBB4_12
.LBB4_33:                               # %lpad10
.Ltmp13:                                # EH_LABEL
	b	.LBB4_35
.LBB4_34:                               # %lpad
.Ltmp10:                                # EH_LABEL
.LBB4_35:                               # %ehcleanup25
	move	$s2, $a0
	b	.LBB4_37
.LBB4_36:                               # %lpad19
.Ltmp16:                                # EH_LABEL
	move	$s2, $a0
	addi.d	$a0, $sp, 16
	pcaddu18i	$ra, %call36(_ZNSt6vectorINSt7__cxx1112basic_stringIcSt11char_traitsIcESaIcEEESaIS5_EED2Ev)
	jirl	$ra, $ra, 0
.LBB4_37:                               # %ehcleanup25
	ld.d	$a0, $fp, 112
	addi.d	$s3, $fp, 32
	bne	$a0, $s0, .LBB4_40
# %bb.38:                               # %_ZNSt7__cxx1112basic_stringIcSt11char_traitsIcESaIcEED2Ev.exit
	move	$a0, $s1
	pcaddu18i	$ra, %call36(_ZNSt3mapINSt7__cxx1112basic_stringIcSt11char_traitsIcESaIcEEEN9benchmark7CounterESt4lessIS5_ESaISt4pairIKS5_S7_EEED2Ev)
	jirl	$ra, $ra, 0
	ld.d	$a0, $s3, 0
	bnez	$a0, .LBB4_41
.LBB4_39:                               # %_ZNSt6vectorIlSaIlEED2Ev.exit
	move	$a0, $s2
	pcaddu18i	$ra, %call36(_Unwind_Resume)
	jirl	$ra, $ra, 0
.LBB4_40:                               # %if.then.i.i
	ld.d	$a1, $s0, 0
	addi.d	$a1, $a1, 1
	pcaddu18i	$ra, %call36(_ZdlPvm)
	jirl	$ra, $ra, 0
	move	$a0, $s1
	pcaddu18i	$ra, %call36(_ZNSt3mapINSt7__cxx1112basic_stringIcSt11char_traitsIcESaIcEEEN9benchmark7CounterESt4lessIS5_ESaISt4pairIKS5_S7_EEED2Ev)
	jirl	$ra, $ra, 0
	ld.d	$a0, $s3, 0
	beqz	$a0, .LBB4_39
.LBB4_41:                               # %if.then.i.i.i28
	ld.d	$a1, $fp, 48
	sub.d	$a1, $a1, $a0
	pcaddu18i	$ra, %call36(_ZdlPvm)
	jirl	$ra, $ra, 0
	move	$a0, $s2
	pcaddu18i	$ra, %call36(_Unwind_Resume)
	jirl	$ra, $ra, 0
.Lfunc_end4:
	.size	_ZN9benchmark5StateC2ENSt7__cxx1112basic_stringIcSt11char_traitsIcESaIcEEElRKSt6vectorIlSaIlEEiiPNS_8internal11ThreadTimerEPNSC_13ThreadManagerEPNSC_23PerfCountersMeasurementEPNS_15ProfilerManagerE, .Lfunc_end4-_ZN9benchmark5StateC2ENSt7__cxx1112basic_stringIcSt11char_traitsIcESaIcEEElRKSt6vectorIlSaIlEEiiPNS_8internal11ThreadTimerEPNSC_13ThreadManagerEPNSC_23PerfCountersMeasurementEPNS_15ProfilerManagerE
	.cfi_endproc
	.section	.gcc_except_table,"a",@progbits
	.p2align	2, 0x0
GCC_except_table4:
.Lexception2:
	.byte	255                             # @LPStart Encoding = omit
	.byte	255                             # @TType Encoding = omit
	.byte	1                               # Call site Encoding = uleb128
	.uleb128 .Lcst_end2-.Lcst_begin2
.Lcst_begin2:
	.uleb128 .Lfunc_begin2-.Lfunc_begin2    # >> Call Site 1 <<
	.uleb128 .Ltmp6-.Lfunc_begin2           #   Call between .Lfunc_begin2 and .Ltmp6
	.byte	0                               #     has no landing pad
	.byte	0                               #   On action: cleanup
	.uleb128 .Ltmp6-.Lfunc_begin2           # >> Call Site 2 <<
	.uleb128 .Ltmp9-.Ltmp6                  #   Call between .Ltmp6 and .Ltmp9
	.uleb128 .Ltmp10-.Lfunc_begin2          #     jumps to .Ltmp10
	.byte	0                               #   On action: cleanup
	.uleb128 .Ltmp11-.Lfunc_begin2          # >> Call Site 3 <<
	.uleb128 .Ltmp12-.Ltmp11                #   Call between .Ltmp11 and .Ltmp12
	.uleb128 .Ltmp13-.Lfunc_begin2          #     jumps to .Ltmp13
	.byte	0                               #   On action: cleanup
	.uleb128 .Ltmp14-.Lfunc_begin2          # >> Call Site 4 <<
	.uleb128 .Ltmp15-.Ltmp14                #   Call between .Ltmp14 and .Ltmp15
	.uleb128 .Ltmp16-.Lfunc_begin2          #     jumps to .Ltmp16
	.byte	0                               #   On action: cleanup
	.uleb128 .Ltmp15-.Lfunc_begin2          # >> Call Site 5 <<
	.uleb128 .Lfunc_end4-.Ltmp15            #   Call between .Ltmp15 and .Lfunc_end4
	.byte	0                               #     has no landing pad
	.byte	0                               #   On action: cleanup
.Lcst_end2:
	.p2align	2, 0x0
                                        # -- End function
	.section	.text._ZNSt3mapINSt7__cxx1112basic_stringIcSt11char_traitsIcESaIcEEEN9benchmark7CounterESt4lessIS5_ESaISt4pairIKS5_S7_EEEixERSB_,"axG",@progbits,_ZNSt3mapINSt7__cxx1112basic_stringIcSt11char_traitsIcESaIcEEEN9benchmark7CounterESt4lessIS5_ESaISt4pairIKS5_S7_EEEixERSB_,comdat
	.hidden	_ZNSt3mapINSt7__cxx1112basic_stringIcSt11char_traitsIcESaIcEEEN9benchmark7CounterESt4lessIS5_ESaISt4pairIKS5_S7_EEEixERSB_ # -- Begin function _ZNSt3mapINSt7__cxx1112basic_stringIcSt11char_traitsIcESaIcEEEN9benchmark7CounterESt4lessIS5_ESaISt4pairIKS5_S7_EEEixERSB_
	.weak	_ZNSt3mapINSt7__cxx1112basic_stringIcSt11char_traitsIcESaIcEEEN9benchmark7CounterESt4lessIS5_ESaISt4pairIKS5_S7_EEEixERSB_
	.p2align	2
	.type	_ZNSt3mapINSt7__cxx1112basic_stringIcSt11char_traitsIcESaIcEEEN9benchmark7CounterESt4lessIS5_ESaISt4pairIKS5_S7_EEEixERSB_,@function
_ZNSt3mapINSt7__cxx1112basic_stringIcSt11char_traitsIcESaIcEEEN9benchmark7CounterESt4lessIS5_ESaISt4pairIKS5_S7_EEEixERSB_: # @_ZNSt3mapINSt7__cxx1112basic_stringIcSt11char_traitsIcESaIcEEEN9benchmark7CounterESt4lessIS5_ESaISt4pairIKS5_S7_EEEixERSB_
	.cfi_startproc
# %bb.0:                                # %entry
	addi.d	$sp, $sp, -128
	.cfi_def_cfa_offset 128
	st.d	$ra, $sp, 120                   # 8-byte Folded Spill
	st.d	$fp, $sp, 112                   # 8-byte Folded Spill
	st.d	$s0, $sp, 104                   # 8-byte Folded Spill
	st.d	$s1, $sp, 96                    # 8-byte Folded Spill
	st.d	$s2, $sp, 88                    # 8-byte Folded Spill
	st.d	$s3, $sp, 80                    # 8-byte Folded Spill
	st.d	$s4, $sp, 72                    # 8-byte Folded Spill
	st.d	$s5, $sp, 64                    # 8-byte Folded Spill
	st.d	$s6, $sp, 56                    # 8-byte Folded Spill
	st.d	$s7, $sp, 48                    # 8-byte Folded Spill
	st.d	$s8, $sp, 40                    # 8-byte Folded Spill
	.cfi_offset 1, -8
	.cfi_offset 22, -16
	.cfi_offset 23, -24
	.cfi_offset 24, -32
	.cfi_offset 25, -40
	.cfi_offset 26, -48
	.cfi_offset 27, -56
	.cfi_offset 28, -64
	.cfi_offset 29, -72
	.cfi_offset 30, -80
	.cfi_offset 31, -88
	move	$s0, $a0
	ld.d	$s7, $a0, 16
	move	$s8, $a1
	addi.d	$s2, $a0, 8
	beqz	$s7, .LBB5_11
# %bb.1:                                # %while.body.lr.ph.i.i.i
	st.d	$s0, $sp, 16                    # 8-byte Folded Spill
	ld.d	$s6, $s8, 8
	st.d	$s8, $sp, 8                     # 8-byte Folded Spill
	ld.d	$s3, $s8, 0
	lu12i.w	$s5, -524288
	lu12i.w	$a0, 524287
	ori	$s4, $a0, 4095
	ori	$s8, $zero, 16
	ori	$s0, $zero, 24
	move	$s1, $s2
	b	.LBB5_4
	.p2align	4, , 16
.LBB5_2:                                # %if.then.i.i.i.i.i.i
                                        #   in Loop: Header=BB5_4 Depth=1
	sub.d	$a0, $fp, $s6
	slt	$a1, $s5, $a0
	maskeqz	$a0, $a0, $a1
	masknez	$a1, $s5, $a1
	or	$a0, $a0, $a1
	slt	$a1, $a0, $s4
	maskeqz	$a0, $a0, $a1
	masknez	$a1, $s4, $a1
	or	$a0, $a0, $a1
.LBB5_3:                                # %_ZNKSt4lessINSt7__cxx1112basic_stringIcSt11char_traitsIcESaIcEEEEclERKS5_S8_.exit.i.i.i
                                        #   in Loop: Header=BB5_4 Depth=1
	addi.w	$a0, $a0, 0
	slti	$a0, $a0, 0
	masknez	$a1, $s7, $a0
	masknez	$a2, $s8, $a0
	maskeqz	$a3, $s0, $a0
	or	$a2, $a3, $a2
	ldx.d	$s7, $s7, $a2
	maskeqz	$a0, $s1, $a0
	or	$s1, $a0, $a1
	beqz	$s7, .LBB5_6
.LBB5_4:                                # %while.body.i.i.i
                                        # =>This Inner Loop Header: Depth=1
	ld.d	$fp, $s7, 40
	sltu	$a0, $s6, $fp
	masknez	$a1, $fp, $a0
	maskeqz	$a0, $s6, $a0
	or	$a2, $a0, $a1
	beqz	$a2, .LBB5_2
# %bb.5:                                # %_ZNSt11char_traitsIcE7compareEPKcS2_m.exit.i.i.i.i.i.i
                                        #   in Loop: Header=BB5_4 Depth=1
	ld.d	$a0, $s7, 32
	move	$a1, $s3
	pcaddu18i	$ra, %call36(memcmp)
	jirl	$ra, $ra, 0
	bnez	$a0, .LBB5_3
	b	.LBB5_2
.LBB5_6:                                # %_ZNSt3mapINSt7__cxx1112basic_stringIcSt11char_traitsIcESaIcEEEN9benchmark7CounterESt4lessIS5_ESaISt4pairIKS5_S7_EEE11lower_boundERSB_.exit
	ld.d	$s0, $sp, 16                    # 8-byte Folded Reload
	ld.d	$s8, $sp, 8                     # 8-byte Folded Reload
	beq	$s1, $s2, .LBB5_11
# %bb.7:                                # %lor.rhs
	ld.d	$fp, $s1, 40
	sltu	$a0, $fp, $s6
	masknez	$a1, $s6, $a0
	maskeqz	$a0, $fp, $a0
	or	$a2, $a0, $a1
	beqz	$a2, .LBB5_9
# %bb.8:                                # %_ZNSt11char_traitsIcE7compareEPKcS2_m.exit.i.i.i
	ld.d	$a1, $s1, 32
	move	$a0, $s3
	pcaddu18i	$ra, %call36(memcmp)
	jirl	$ra, $ra, 0
	bnez	$a0, .LBB5_10
.LBB5_9:                                # %if.then.i.i.i
	sub.d	$a0, $s6, $fp
	slt	$a1, $s5, $a0
	maskeqz	$a0, $a0, $a1
	masknez	$a1, $s5, $a1
	or	$a0, $a0, $a1
	slt	$a1, $a0, $s4
	maskeqz	$a0, $a0, $a1
	masknez	$a1, $s4, $a1
	or	$a0, $a0, $a1
.LBB5_10:                               # %_ZNKSt4lessINSt7__cxx1112basic_stringIcSt11char_traitsIcESaIcEEEEclERKS5_S8_.exit
	addi.w	$a0, $a0, 0
	addi.w	$a1, $zero, -1
	move	$s2, $s1
	blt	$a1, $a0, .LBB5_12
.LBB5_11:                               # %if.then
	st.d	$s8, $sp, 32
	pcalau12i	$a0, %pc_hi20(_ZSt19piecewise_construct)
	addi.d	$a2, $a0, %pc_lo12(_ZSt19piecewise_construct)
	addi.d	$a3, $sp, 32
	addi.d	$a4, $sp, 31
	move	$a0, $s0
	move	$a1, $s2
	pcaddu18i	$ra, %call36(_ZNSt8_Rb_treeINSt7__cxx1112basic_stringIcSt11char_traitsIcESaIcEEESt4pairIKS5_N9benchmark7CounterEESt10_Select1stISA_ESt4lessIS5_ESaISA_EE22_M_emplace_hint_uniqueIJRKSt21piecewise_construct_tSt5tupleIJRS7_EESL_IJEEEEESt17_Rb_tree_iteratorISA_ESt23_Rb_tree_const_iteratorISA_EDpOT_)
	jirl	$ra, $ra, 0
	move	$s1, $a0
.LBB5_12:                               # %if.end
	addi.d	$a0, $s1, 64
	ld.d	$s8, $sp, 40                    # 8-byte Folded Reload
	ld.d	$s7, $sp, 48                    # 8-byte Folded Reload
	ld.d	$s6, $sp, 56                    # 8-byte Folded Reload
	ld.d	$s5, $sp, 64                    # 8-byte Folded Reload
	ld.d	$s4, $sp, 72                    # 8-byte Folded Reload
	ld.d	$s3, $sp, 80                    # 8-byte Folded Reload
	ld.d	$s2, $sp, 88                    # 8-byte Folded Reload
	ld.d	$s1, $sp, 96                    # 8-byte Folded Reload
	ld.d	$s0, $sp, 104                   # 8-byte Folded Reload
	ld.d	$fp, $sp, 112                   # 8-byte Folded Reload
	ld.d	$ra, $sp, 120                   # 8-byte Folded Reload
	addi.d	$sp, $sp, 128
	ret
.Lfunc_end5:
	.size	_ZNSt3mapINSt7__cxx1112basic_stringIcSt11char_traitsIcESaIcEEEN9benchmark7CounterESt4lessIS5_ESaISt4pairIKS5_S7_EEEixERSB_, .Lfunc_end5-_ZNSt3mapINSt7__cxx1112basic_stringIcSt11char_traitsIcESaIcEEEN9benchmark7CounterESt4lessIS5_ESaISt4pairIKS5_S7_EEEixERSB_
	.cfi_endproc
                                        # -- End function
	.section	.text._ZNSt6vectorINSt7__cxx1112basic_stringIcSt11char_traitsIcESaIcEEESaIS5_EED2Ev,"axG",@progbits,_ZNSt6vectorINSt7__cxx1112basic_stringIcSt11char_traitsIcESaIcEEESaIS5_EED2Ev,comdat
	.hidden	_ZNSt6vectorINSt7__cxx1112basic_stringIcSt11char_traitsIcESaIcEEESaIS5_EED2Ev # -- Begin function _ZNSt6vectorINSt7__cxx1112basic_stringIcSt11char_traitsIcESaIcEEESaIS5_EED2Ev
	.weak	_ZNSt6vectorINSt7__cxx1112basic_stringIcSt11char_traitsIcESaIcEEESaIS5_EED2Ev
	.p2align	2
	.type	_ZNSt6vectorINSt7__cxx1112basic_stringIcSt11char_traitsIcESaIcEEESaIS5_EED2Ev,@function
_ZNSt6vectorINSt7__cxx1112basic_stringIcSt11char_traitsIcESaIcEEESaIS5_EED2Ev: # @_ZNSt6vectorINSt7__cxx1112basic_stringIcSt11char_traitsIcESaIcEEESaIS5_EED2Ev
	.cfi_startproc
# %bb.0:                                # %entry
	addi.d	$sp, $sp, -32
	.cfi_def_cfa_offset 32
	st.d	$ra, $sp, 24                    # 8-byte Folded Spill
	st.d	$fp, $sp, 16                    # 8-byte Folded Spill
	st.d	$s0, $sp, 8                     # 8-byte Folded Spill
	st.d	$s1, $sp, 0                     # 8-byte Folded Spill
	.cfi_offset 1, -8
	.cfi_offset 22, -16
	.cfi_offset 23, -24
	.cfi_offset 24, -32
	move	$fp, $a0
	ld.d	$a0, $a0, 0
	ld.d	$s0, $fp, 8
	beq	$a0, $s0, .LBB6_6
# %bb.1:                                # %for.body.i.preheader
	addi.d	$s1, $a0, 16
	b	.LBB6_3
	.p2align	4, , 16
.LBB6_2:                                # %_ZSt8_DestroyINSt7__cxx1112basic_stringIcSt11char_traitsIcESaIcEEEEvPT_.exit.i
                                        #   in Loop: Header=BB6_3 Depth=1
	addi.d	$a0, $s1, 16
	addi.d	$s1, $s1, 32
	beq	$a0, $s0, .LBB6_5
.LBB6_3:                                # %for.body.i
                                        # =>This Inner Loop Header: Depth=1
	ld.d	$a0, $s1, -16
	beq	$s1, $a0, .LBB6_2
# %bb.4:                                # %if.then.i.i.i.i
                                        #   in Loop: Header=BB6_3 Depth=1
	ld.d	$a1, $s1, 0
	addi.d	$a1, $a1, 1
	pcaddu18i	$ra, %call36(_ZdlPvm)
	jirl	$ra, $ra, 0
	b	.LBB6_2
.LBB6_5:                                # %invoke.contthread-pre-split
	ld.d	$a0, $fp, 0
.LBB6_6:                                # %invoke.cont
	beqz	$a0, .LBB6_8
# %bb.7:                                # %if.then.i.i
	ld.d	$a1, $fp, 16
	sub.d	$a1, $a1, $a0
	ld.d	$s1, $sp, 0                     # 8-byte Folded Reload
	ld.d	$s0, $sp, 8                     # 8-byte Folded Reload
	ld.d	$fp, $sp, 16                    # 8-byte Folded Reload
	ld.d	$ra, $sp, 24                    # 8-byte Folded Reload
	addi.d	$sp, $sp, 32
	pcaddu18i	$t8, %call36(_ZdlPvm)
	jr	$t8
.LBB6_8:                                # %_ZNSt12_Vector_baseINSt7__cxx1112basic_stringIcSt11char_traitsIcESaIcEEESaIS5_EED2Ev.exit
	ld.d	$s1, $sp, 0                     # 8-byte Folded Reload
	ld.d	$s0, $sp, 8                     # 8-byte Folded Reload
	ld.d	$fp, $sp, 16                    # 8-byte Folded Reload
	ld.d	$ra, $sp, 24                    # 8-byte Folded Reload
	addi.d	$sp, $sp, 32
	ret
.Lfunc_end6:
	.size	_ZNSt6vectorINSt7__cxx1112basic_stringIcSt11char_traitsIcESaIcEEESaIS5_EED2Ev, .Lfunc_end6-_ZNSt6vectorINSt7__cxx1112basic_stringIcSt11char_traitsIcESaIcEEESaIS5_EED2Ev
	.cfi_endproc
                                        # -- End function
	.section	.text._ZNSt3mapINSt7__cxx1112basic_stringIcSt11char_traitsIcESaIcEEEN9benchmark7CounterESt4lessIS5_ESaISt4pairIKS5_S7_EEED2Ev,"axG",@progbits,_ZNSt3mapINSt7__cxx1112basic_stringIcSt11char_traitsIcESaIcEEEN9benchmark7CounterESt4lessIS5_ESaISt4pairIKS5_S7_EEED2Ev,comdat
	.hidden	_ZNSt3mapINSt7__cxx1112basic_stringIcSt11char_traitsIcESaIcEEEN9benchmark7CounterESt4lessIS5_ESaISt4pairIKS5_S7_EEED2Ev # -- Begin function _ZNSt3mapINSt7__cxx1112basic_stringIcSt11char_traitsIcESaIcEEEN9benchmark7CounterESt4lessIS5_ESaISt4pairIKS5_S7_EEED2Ev
	.weak	_ZNSt3mapINSt7__cxx1112basic_stringIcSt11char_traitsIcESaIcEEEN9benchmark7CounterESt4lessIS5_ESaISt4pairIKS5_S7_EEED2Ev
	.p2align	2
	.type	_ZNSt3mapINSt7__cxx1112basic_stringIcSt11char_traitsIcESaIcEEEN9benchmark7CounterESt4lessIS5_ESaISt4pairIKS5_S7_EEED2Ev,@function
_ZNSt3mapINSt7__cxx1112basic_stringIcSt11char_traitsIcESaIcEEEN9benchmark7CounterESt4lessIS5_ESaISt4pairIKS5_S7_EEED2Ev: # @_ZNSt3mapINSt7__cxx1112basic_stringIcSt11char_traitsIcESaIcEEEN9benchmark7CounterESt4lessIS5_ESaISt4pairIKS5_S7_EEED2Ev
.Lfunc_begin3:
	.cfi_startproc
	.cfi_personality 155, DW.ref.__gxx_personality_v0
	.cfi_lsda 27, .Lexception3
# %bb.0:                                # %entry
	addi.d	$sp, $sp, -16
	.cfi_def_cfa_offset 16
	st.d	$ra, $sp, 8                     # 8-byte Folded Spill
	.cfi_offset 1, -8
	ld.d	$a1, $a0, 16
.Ltmp17:                                # EH_LABEL
	pcaddu18i	$ra, %call36(_ZNSt8_Rb_treeINSt7__cxx1112basic_stringIcSt11char_traitsIcESaIcEEESt4pairIKS5_N9benchmark7CounterEESt10_Select1stISA_ESt4lessIS5_ESaISA_EE8_M_eraseEPSt13_Rb_tree_nodeISA_E)
	jirl	$ra, $ra, 0
.Ltmp18:                                # EH_LABEL
# %bb.1:                                # %_ZNSt8_Rb_treeINSt7__cxx1112basic_stringIcSt11char_traitsIcESaIcEEESt4pairIKS5_N9benchmark7CounterEESt10_Select1stISA_ESt4lessIS5_ESaISA_EED2Ev.exit
	ld.d	$ra, $sp, 8                     # 8-byte Folded Reload
	addi.d	$sp, $sp, 16
	ret
.LBB7_2:                                # %terminate.lpad.i
.Ltmp19:                                # EH_LABEL
	pcaddu18i	$ra, %call36(__clang_call_terminate)
	jirl	$ra, $ra, 0
.Lfunc_end7:
	.size	_ZNSt3mapINSt7__cxx1112basic_stringIcSt11char_traitsIcESaIcEEEN9benchmark7CounterESt4lessIS5_ESaISt4pairIKS5_S7_EEED2Ev, .Lfunc_end7-_ZNSt3mapINSt7__cxx1112basic_stringIcSt11char_traitsIcESaIcEEEN9benchmark7CounterESt4lessIS5_ESaISt4pairIKS5_S7_EEED2Ev
	.cfi_endproc
	.section	.gcc_except_table._ZNSt3mapINSt7__cxx1112basic_stringIcSt11char_traitsIcESaIcEEEN9benchmark7CounterESt4lessIS5_ESaISt4pairIKS5_S7_EEED2Ev,"aG",@progbits,_ZNSt3mapINSt7__cxx1112basic_stringIcSt11char_traitsIcESaIcEEEN9benchmark7CounterESt4lessIS5_ESaISt4pairIKS5_S7_EEED2Ev,comdat
	.p2align	2, 0x0
GCC_except_table7:
.Lexception3:
	.byte	255                             # @LPStart Encoding = omit
	.byte	155                             # @TType Encoding = indirect pcrel sdata4
	.uleb128 .Lttbase1-.Lttbaseref1
.Lttbaseref1:
	.byte	1                               # Call site Encoding = uleb128
	.uleb128 .Lcst_end3-.Lcst_begin3
.Lcst_begin3:
	.uleb128 .Ltmp17-.Lfunc_begin3          # >> Call Site 1 <<
	.uleb128 .Ltmp18-.Ltmp17                #   Call between .Ltmp17 and .Ltmp18
	.uleb128 .Ltmp19-.Lfunc_begin3          #     jumps to .Ltmp19
	.byte	1                               #   On action: 1
	.uleb128 .Ltmp18-.Lfunc_begin3          # >> Call Site 2 <<
	.uleb128 .Lfunc_end7-.Ltmp18            #   Call between .Ltmp18 and .Lfunc_end7
	.byte	0                               #     has no landing pad
	.byte	0                               #   On action: cleanup
.Lcst_end3:
	.byte	1                               # >> Action Record 1 <<
                                        #   Catch TypeInfo 1
	.byte	0                               #   No further actions
	.p2align	2, 0x0
                                        # >> Catch TypeInfos <<
	.word	0                               # TypeInfo 1
.Lttbase1:
	.p2align	2, 0x0
                                        # -- End function
	.section	.rodata.cst8,"aM",@progbits,8
	.p2align	3, 0x0                          # -- Begin function _ZN9benchmark5State11PauseTimingEv
.LCPI8_0:
	.dword	0x41cdcd6500000000              # double 1.0E+9
.LCPI8_1:
	.dword	0x4530000000100000              # double 1.9342813118337666E+25
	.text
	.hidden	_ZN9benchmark5State11PauseTimingEv
	.globl	_ZN9benchmark5State11PauseTimingEv
	.p2align	2
	.type	_ZN9benchmark5State11PauseTimingEv,@function
_ZN9benchmark5State11PauseTimingEv:     # @_ZN9benchmark5State11PauseTimingEv
.Lfunc_begin4:
	.cfi_startproc
	.cfi_personality 155, DW.ref.__gxx_personality_v0
	.cfi_lsda 27, .Lexception4
# %bb.0:                                # %entry
	addi.d	$sp, $sp, -192
	.cfi_def_cfa_offset 192
	st.d	$ra, $sp, 184                   # 8-byte Folded Spill
	st.d	$fp, $sp, 176                   # 8-byte Folded Spill
	st.d	$s0, $sp, 168                   # 8-byte Folded Spill
	st.d	$s1, $sp, 160                   # 8-byte Folded Spill
	st.d	$s2, $sp, 152                   # 8-byte Folded Spill
	st.d	$s3, $sp, 144                   # 8-byte Folded Spill
	st.d	$s4, $sp, 136                   # 8-byte Folded Spill
	st.d	$s5, $sp, 128                   # 8-byte Folded Spill
	st.d	$s6, $sp, 120                   # 8-byte Folded Spill
	st.d	$s7, $sp, 112                   # 8-byte Folded Spill
	st.d	$s8, $sp, 104                   # 8-byte Folded Spill
	fst.d	$fs0, $sp, 96                   # 8-byte Folded Spill
	.cfi_offset 1, -8
	.cfi_offset 22, -16
	.cfi_offset 23, -24
	.cfi_offset 24, -32
	.cfi_offset 25, -40
	.cfi_offset 26, -48
	.cfi_offset 27, -56
	.cfi_offset 28, -64
	.cfi_offset 29, -72
	.cfi_offset 30, -80
	.cfi_offset 31, -88
	.cfi_offset 56, -96
	pcalau12i	$s1, %pc_hi20(_ZGVZN9benchmark8internal18GetNullLogInstanceEvE8null_log)
	ld.b	$a1, $s1, %pc_lo12(_ZGVZN9benchmark8internal18GetNullLogInstanceEvE8null_log)
	move	$s2, $a0
	dbar	20
	beqz	$a1, .LBB8_43
.LBB8_1:                                # %_ZN9benchmark8internal18GetNullLogInstanceEv.exit
	ld.d	$fp, $s2, 152
	ld.b	$a0, $s1, %pc_lo12(_ZGVZN9benchmark8internal18GetNullLogInstanceEvE8null_log)
	dbar	20
	beqz	$a0, .LBB8_45
.LBB8_2:                                # %_ZN9benchmark8internal18GetNullLogInstanceEv.exit.i
	st.b	$zero, $fp, 1
	pcaddu18i	$ra, %call36(_ZNSt6chrono3_V212steady_clock3nowEv)
	jirl	$ra, $ra, 0
	movgr2fr.d	$fa0, $a0
	pcalau12i	$a0, %pc_hi20(.LCPI8_0)
	fld.d	$fa1, $a0, %pc_lo12(.LCPI8_0)
	ffint.d.l	$fa0, $fa0
	fld.d	$fa2, $fp, 8
	fld.d	$fa3, $fp, 24
	fdiv.d	$fa0, $fa0, $fa1
	ld.bu	$a0, $fp, 0
	fsub.d	$fa0, $fa0, $fa2
	fadd.d	$fa0, $fa3, $fa0
	ori	$a1, $zero, 1
	fst.d	$fa0, $fp, 24
	bne	$a0, $a1, .LBB8_4
# %bb.3:                                # %if.then.i.i
	pcaddu18i	$ra, %call36(_ZN9benchmark15ProcessCPUUsageEv)
	jirl	$ra, $ra, 0
	b	.LBB8_5
.LBB8_4:                                # %if.end.i.i
	pcaddu18i	$ra, %call36(_ZN9benchmark14ThreadCPUUsageEv)
	jirl	$ra, $ra, 0
.LBB8_5:                                # %_ZN9benchmark8internal11ThreadTimer9StopTimerEv.exit
	fld.d	$fa1, $fp, 16
	fsub.d	$fa0, $fa0, $fa1
	movgr2fr.d	$fa1, $zero
	fld.d	$fa2, $fp, 32
	ld.d	$s4, $s2, 168
	fcmp.clt.d	$fcc0, $fa0, $fa1
	fsel	$fa0, $fa0, $fa1, $fcc0
	fadd.d	$fa0, $fa2, $fa0
	fst.d	$fa0, $fp, 32
	beqz	$s4, .LBB8_42
# %bb.6:                                # %call.i.noexc
	ld.d	$a0, $s4, 56
	ld.d	$a1, $s4, 48
	st.d	$zero, $sp, 40
	vrepli.b	$vr0, 0
	vst	$vr0, $sp, 24
	beq	$a0, $a1, .LBB8_30
# %bb.7:                                # %if.end.i
	#MEMBARRIER
	addi.d	$s0, $s4, 360
	addi.d	$a1, $s4, 24
.Ltmp20:                                # EH_LABEL
	move	$a0, $s0
	pcaddu18i	$ra, %call36(_ZN9benchmark8internal17PerfCounterValues4ReadERKSt6vectorIiSaIiEE)
	jirl	$ra, $ra, 0
.Ltmp21:                                # EH_LABEL
# %bb.8:                                # %call2.i.noexc
	st.d	$s1, $sp, 8                     # 8-byte Folded Spill
	st.d	$s2, $sp, 16                    # 8-byte Folded Spill
	ld.d	$a1, $s4, 8
	ld.d	$a2, $s4, 0
	sub.d	$a1, $a1, $a2
	ld.bu	$a2, $s4, 72
	srai.d	$a1, $a1, 2
	xor	$a0, $a0, $a1
	sltui	$a0, $a0, 1
	and	$a0, $a2, $a0
	st.b	$a0, $s4, 72
	#MEMBARRIER
	ld.d	$a1, $s4, 56
	ld.d	$a0, $s4, 48
	beq	$a1, $a0, .LBB8_26
# %bb.9:                                # %for.body.i.lr.ph
	move	$s5, $zero
	move	$s6, $zero
	addi.d	$s1, $sp, 64
	pcalau12i	$a1, %pc_hi20(.LCPI8_1)
	fld.d	$fs0, $a1, %pc_lo12(.LCPI8_1)
	lu12i.w	$s8, 275200
	addi.w	$s3, $zero, -1
	b	.LBB8_13
	.p2align	4, , 16
.LBB8_10:                               # %if.else.i.i.i.i
                                        #   in Loop: Header=BB8_13 Depth=1
	st.d	$a1, $fp, 0
	ld.d	$a0, $sp, 64
	st.d	$a0, $fp, 16
.LBB8_11:                               # %invoke.cont.i.thread
                                        #   in Loop: Header=BB8_13 Depth=1
	st.d	$s2, $fp, 8
	fld.d	$fa0, $sp, 80
	st.d	$s1, $sp, 48
	st.d	$zero, $sp, 56
	st.b	$zero, $sp, 64
	fst.d	$fa0, $fp, 32
	addi.d	$a0, $fp, 40
	st.d	$a0, $sp, 32
.LBB8_12:                               # %_ZNSt4pairINSt7__cxx1112basic_stringIcSt11char_traitsIcESaIcEEEdED2Ev.exit
                                        #   in Loop: Header=BB8_13 Depth=1
	ld.d	$a1, $s4, 56
	ld.d	$a0, $s4, 48
	addi.d	$s6, $s6, 1
	sub.d	$a1, $a1, $a0
	srai.d	$a1, $a1, 5
	addi.d	$s0, $s0, 8
	addi.d	$s5, $s5, 32
	bgeu	$s6, $a1, .LBB8_26
.LBB8_13:                               # %for.body.i
                                        # =>This Inner Loop Header: Depth=1
	ld.d	$s7, $s0, 0
	ld.d	$fp, $s0, -280
	add.d	$a1, $a0, $s5
	st.d	$s1, $sp, 48
	ld.d	$a1, $a1, 8
	ldx.d	$s2, $a0, $s5
	st.d	$a1, $sp, 88
	move	$a0, $s1
	ori	$a2, $zero, 16
	bltu	$a1, $a2, .LBB8_16
# %bb.14:                               # %if.then.i.i.i
                                        #   in Loop: Header=BB8_13 Depth=1
.Ltmp22:                                # EH_LABEL
	addi.d	$a0, $sp, 48
	addi.d	$a1, $sp, 88
	move	$a2, $zero
	pcaddu18i	$ra, %call36(_ZNSt7__cxx1112basic_stringIcSt11char_traitsIcESaIcEE9_M_createERmm)
	jirl	$ra, $ra, 0
.Ltmp23:                                # EH_LABEL
# %bb.15:                               # %call.i4.i.i.noexc
                                        #   in Loop: Header=BB8_13 Depth=1
	ld.d	$a1, $sp, 88
	st.d	$a0, $sp, 48
	st.d	$a1, $sp, 64
.LBB8_16:                               # %if.end.i.i.i
                                        #   in Loop: Header=BB8_13 Depth=1
	beq	$a1, $s3, .LBB8_20
# %bb.17:                               # %if.end.i.i.i
                                        #   in Loop: Header=BB8_13 Depth=1
	bnez	$a1, .LBB8_19
# %bb.18:                               # %if.then.i.i.i.i
                                        #   in Loop: Header=BB8_13 Depth=1
	ld.b	$a1, $s2, 0
	st.b	$a1, $a0, 0
	b	.LBB8_20
	.p2align	4, , 16
.LBB8_19:                               # %if.end.i.i.i.i.i
                                        #   in Loop: Header=BB8_13 Depth=1
	addi.d	$a2, $a1, 1
	move	$a1, $s2
	pcaddu18i	$ra, %call36(memcpy)
	jirl	$ra, $ra, 0
.LBB8_20:                               # %.noexc
                                        #   in Loop: Header=BB8_13 Depth=1
	srli.d	$a0, $s7, 32
	lu52i.d	$a1, $zero, 1107
	or	$a0, $a0, $a1
	movgr2fr.d	$fa0, $a0
	fsub.d	$fa0, $fa0, $fs0
	bstrins.d	$s7, $s8, 63, 32
	movgr2fr.d	$fa1, $s7
	fadd.d	$fa0, $fa1, $fa0
	srli.d	$a0, $fp, 32
	or	$a0, $a0, $a1
	movgr2fr.d	$fa1, $a0
	fsub.d	$fa1, $fa1, $fs0
	bstrins.d	$fp, $s8, 63, 32
	movgr2fr.d	$fa2, $fp
	ld.d	$s2, $sp, 88
	ld.d	$fp, $sp, 32
	ld.d	$a0, $sp, 40
	fadd.d	$fa1, $fa2, $fa1
	fsub.d	$fa0, $fa0, $fa1
	st.d	$s2, $sp, 56
	fst.d	$fa0, $sp, 80
	beq	$fp, $a0, .LBB8_23
# %bb.21:                               # %if.then.i.i22
                                        #   in Loop: Header=BB8_13 Depth=1
	addi.d	$a0, $fp, 16
	st.d	$a0, $fp, 0
	ld.d	$a1, $sp, 48
	bne	$a1, $s1, .LBB8_10
# %bb.22:                               # %_ZNSt11char_traitsIcE4copyEPcPKcm.exit.i.i.i.i
                                        #   in Loop: Header=BB8_13 Depth=1
	addi.d	$a2, $s2, 1
	move	$a1, $s1
	pcaddu18i	$ra, %call36(memcpy)
	jirl	$ra, $ra, 0
	b	.LBB8_11
	.p2align	4, , 16
.LBB8_23:                               # %if.else.i.i
                                        #   in Loop: Header=BB8_13 Depth=1
.Ltmp25:                                # EH_LABEL
	addi.d	$a0, $sp, 24
	addi.d	$a1, $sp, 48
	pcaddu18i	$ra, %call36(_ZNSt6vectorISt4pairINSt7__cxx1112basic_stringIcSt11char_traitsIcESaIcEEEdESaIS7_EE17_M_realloc_appendIJS7_EEEvDpOT_)
	jirl	$ra, $ra, 0
.Ltmp26:                                # EH_LABEL
# %bb.24:                               # %invoke.cont.i
                                        #   in Loop: Header=BB8_13 Depth=1
	ld.d	$a0, $sp, 48
	beq	$a0, $s1, .LBB8_12
# %bb.25:                               # %if.then.i.i.i25
                                        #   in Loop: Header=BB8_13 Depth=1
	ld.d	$a1, $sp, 64
	addi.d	$a1, $a1, 1
	pcaddu18i	$ra, %call36(_ZdlPvm)
	jirl	$ra, $ra, 0
	b	.LBB8_12
.LBB8_26:                               # %invoke.cont
	ld.bu	$a0, $s4, 72
	ld.d	$s2, $sp, 16                    # 8-byte Folded Reload
	ld.d	$a1, $sp, 8                     # 8-byte Folded Reload
	bnez	$a0, .LBB8_30
# %bb.27:                               # %if.then4
	ld.b	$a0, $a1, %pc_lo12(_ZGVZN9benchmark8internal18GetNullLogInstanceEvE8null_log)
	dbar	20
	pcalau12i	$fp, %pc_hi20(_ZZN9benchmark8internal18GetNullLogInstanceEvE8null_log)
	beqz	$a0, .LBB8_47
.LBB8_28:                               # %invoke.cont5
	ld.d	$a0, $fp, %pc_lo12(_ZZN9benchmark8internal18GetNullLogInstanceEvE8null_log)
	beqz	$a0, .LBB8_30
# %bb.29:                               # %if.then.i
.Ltmp28:                                # EH_LABEL
	pcalau12i	$a1, %pc_hi20(.L.str.42)
	addi.d	$a1, $a1, %pc_lo12(.L.str.42)
	ori	$a2, $zero, 36
	pcaddu18i	$ra, %call36(_ZSt16__ostream_insertIcSt11char_traitsIcEERSt13basic_ostreamIT_T0_ES6_PKS3_l)
	jirl	$ra, $ra, 0
.Ltmp29:                                # EH_LABEL
.LBB8_30:                               # %if.end
	ld.d	$s0, $sp, 24
	ld.d	$s1, $sp, 32
	beq	$s0, $s1, .LBB8_40
# %bb.31:                               # %for.body.lr.ph
	addi.d	$fp, $s2, 64
	.p2align	4, , 16
.LBB8_32:                               # %for.body
                                        # =>This Inner Loop Header: Depth=1
	fld.d	$fs0, $s0, 32
.Ltmp31:                                # EH_LABEL
	move	$a0, $fp
	move	$a1, $s0
	pcaddu18i	$ra, %call36(_ZNSt3mapINSt7__cxx1112basic_stringIcSt11char_traitsIcESaIcEEEN9benchmark7CounterESt4lessIS5_ESaISt4pairIKS5_S7_EEEixERSB_)
	jirl	$ra, $ra, 0
.Ltmp32:                                # EH_LABEL
# %bb.33:                               # %invoke.cont16
                                        #   in Loop: Header=BB8_32 Depth=1
	fld.d	$fa0, $a0, 0
	fadd.d	$fa0, $fs0, $fa0
	addi.d	$s0, $s0, 40
	fst.d	$fa0, $a0, 0
	bne	$s0, $s1, .LBB8_32
# %bb.34:                               # %for.cond.cleanup
	ld.d	$s0, $sp, 24
	ld.d	$fp, $sp, 32
	beq	$s0, $fp, .LBB8_40
# %bb.35:                               # %for.body.i.i.preheader
	addi.d	$s0, $s0, 16
	b	.LBB8_37
	.p2align	4, , 16
.LBB8_36:                               # %_ZSt8_DestroyISt4pairINSt7__cxx1112basic_stringIcSt11char_traitsIcESaIcEEEdEEvPT_.exit.i.i
                                        #   in Loop: Header=BB8_37 Depth=1
	addi.d	$a0, $s0, 24
	addi.d	$s0, $s0, 40
	beq	$a0, $fp, .LBB8_39
.LBB8_37:                               # %for.body.i.i
                                        # =>This Inner Loop Header: Depth=1
	ld.d	$a0, $s0, -16
	beq	$s0, $a0, .LBB8_36
# %bb.38:                               # %if.then.i.i.i.i.i.i
                                        #   in Loop: Header=BB8_37 Depth=1
	ld.d	$a1, $s0, 0
	addi.d	$a1, $a1, 1
	pcaddu18i	$ra, %call36(_ZdlPvm)
	jirl	$ra, $ra, 0
	b	.LBB8_36
.LBB8_39:                               # %invoke.contthread-pre-split.i
	ld.d	$s0, $sp, 24
.LBB8_40:                               # %invoke.cont.i48
	beqz	$s0, .LBB8_42
# %bb.41:                               # %if.then.i.i.i49
	ld.d	$a0, $sp, 40
	sub.d	$a1, $a0, $s0
	move	$a0, $s0
	pcaddu18i	$ra, %call36(_ZdlPvm)
	jirl	$ra, $ra, 0
.LBB8_42:                               # %if.end20
	fld.d	$fs0, $sp, 96                   # 8-byte Folded Reload
	ld.d	$s8, $sp, 104                   # 8-byte Folded Reload
	ld.d	$s7, $sp, 112                   # 8-byte Folded Reload
	ld.d	$s6, $sp, 120                   # 8-byte Folded Reload
	ld.d	$s5, $sp, 128                   # 8-byte Folded Reload
	ld.d	$s4, $sp, 136                   # 8-byte Folded Reload
	ld.d	$s3, $sp, 144                   # 8-byte Folded Reload
	ld.d	$s2, $sp, 152                   # 8-byte Folded Reload
	ld.d	$s1, $sp, 160                   # 8-byte Folded Reload
	ld.d	$s0, $sp, 168                   # 8-byte Folded Reload
	ld.d	$fp, $sp, 176                   # 8-byte Folded Reload
	ld.d	$ra, $sp, 184                   # 8-byte Folded Reload
	addi.d	$sp, $sp, 192
	ret
.LBB8_43:                               # %init.check.i
	pcalau12i	$a0, %pc_hi20(_ZGVZN9benchmark8internal18GetNullLogInstanceEvE8null_log)
	addi.d	$a0, $a0, %pc_lo12(_ZGVZN9benchmark8internal18GetNullLogInstanceEvE8null_log)
	pcaddu18i	$ra, %call36(__cxa_guard_acquire)
	jirl	$ra, $ra, 0
	addi.w	$a0, $a0, 0
	beqz	$a0, .LBB8_1
# %bb.44:                               # %init.i
	pcalau12i	$a0, %pc_hi20(_ZZN9benchmark8internal18GetNullLogInstanceEvE8null_log)
	st.d	$zero, $a0, %pc_lo12(_ZZN9benchmark8internal18GetNullLogInstanceEvE8null_log)
	pcalau12i	$a0, %pc_hi20(_ZGVZN9benchmark8internal18GetNullLogInstanceEvE8null_log)
	addi.d	$a0, $a0, %pc_lo12(_ZGVZN9benchmark8internal18GetNullLogInstanceEvE8null_log)
	pcaddu18i	$ra, %call36(__cxa_guard_release)
	jirl	$ra, $ra, 0
	b	.LBB8_1
.LBB8_45:                               # %init.check.i.i
	pcalau12i	$a0, %pc_hi20(_ZGVZN9benchmark8internal18GetNullLogInstanceEvE8null_log)
	addi.d	$a0, $a0, %pc_lo12(_ZGVZN9benchmark8internal18GetNullLogInstanceEvE8null_log)
	pcaddu18i	$ra, %call36(__cxa_guard_acquire)
	jirl	$ra, $ra, 0
	addi.w	$a0, $a0, 0
	beqz	$a0, .LBB8_2
# %bb.46:                               # %init.i.i
	pcalau12i	$a0, %pc_hi20(_ZZN9benchmark8internal18GetNullLogInstanceEvE8null_log)
	st.d	$zero, $a0, %pc_lo12(_ZZN9benchmark8internal18GetNullLogInstanceEvE8null_log)
	pcalau12i	$a0, %pc_hi20(_ZGVZN9benchmark8internal18GetNullLogInstanceEvE8null_log)
	addi.d	$a0, $a0, %pc_lo12(_ZGVZN9benchmark8internal18GetNullLogInstanceEvE8null_log)
	pcaddu18i	$ra, %call36(__cxa_guard_release)
	jirl	$ra, $ra, 0
	b	.LBB8_2
.LBB8_47:                               # %init.check.i36
	pcalau12i	$a0, %pc_hi20(_ZGVZN9benchmark8internal18GetNullLogInstanceEvE8null_log)
	addi.d	$a0, $a0, %pc_lo12(_ZGVZN9benchmark8internal18GetNullLogInstanceEvE8null_log)
	pcaddu18i	$ra, %call36(__cxa_guard_acquire)
	jirl	$ra, $ra, 0
	addi.w	$a0, $a0, 0
	beqz	$a0, .LBB8_28
# %bb.48:                               # %init.i38
	st.d	$zero, $fp, %pc_lo12(_ZZN9benchmark8internal18GetNullLogInstanceEvE8null_log)
	pcalau12i	$a0, %pc_hi20(_ZGVZN9benchmark8internal18GetNullLogInstanceEvE8null_log)
	addi.d	$a0, $a0, %pc_lo12(_ZGVZN9benchmark8internal18GetNullLogInstanceEvE8null_log)
	pcaddu18i	$ra, %call36(__cxa_guard_release)
	jirl	$ra, $ra, 0
	b	.LBB8_28
.LBB8_49:                               # %lpad.loopexit.split-lp
.Ltmp30:                                # EH_LABEL
	b	.LBB8_54
.LBB8_50:                               # %lpad.i
.Ltmp27:                                # EH_LABEL
	ld.d	$a2, $sp, 48
	move	$fp, $a0
	beq	$a2, $s1, .LBB8_55
# %bb.51:                               # %if.then.i.i.i29
	ld.d	$a0, $sp, 64
	addi.d	$a1, $a0, 1
	move	$a0, $a2
	pcaddu18i	$ra, %call36(_ZdlPvm)
	jirl	$ra, $ra, 0
	addi.d	$a0, $sp, 24
	pcaddu18i	$ra, %call36(_ZNSt6vectorISt4pairINSt7__cxx1112basic_stringIcSt11char_traitsIcESaIcEEEdESaIS7_EED2Ev)
	jirl	$ra, $ra, 0
	move	$a0, $fp
	pcaddu18i	$ra, %call36(_Unwind_Resume)
	jirl	$ra, $ra, 0
.LBB8_52:                               # %lpad.loopexit
.Ltmp24:                                # EH_LABEL
	b	.LBB8_54
.LBB8_53:                               # %lpad15
.Ltmp33:                                # EH_LABEL
.LBB8_54:                               # %ehcleanup
	move	$fp, $a0
.LBB8_55:                               # %ehcleanup
	addi.d	$a0, $sp, 24
	pcaddu18i	$ra, %call36(_ZNSt6vectorISt4pairINSt7__cxx1112basic_stringIcSt11char_traitsIcESaIcEEEdESaIS7_EED2Ev)
	jirl	$ra, $ra, 0
	move	$a0, $fp
	pcaddu18i	$ra, %call36(_Unwind_Resume)
	jirl	$ra, $ra, 0
.Lfunc_end8:
	.size	_ZN9benchmark5State11PauseTimingEv, .Lfunc_end8-_ZN9benchmark5State11PauseTimingEv
	.cfi_endproc
	.section	.gcc_except_table,"a",@progbits
	.p2align	2, 0x0
GCC_except_table8:
.Lexception4:
	.byte	255                             # @LPStart Encoding = omit
	.byte	255                             # @TType Encoding = omit
	.byte	1                               # Call site Encoding = uleb128
	.uleb128 .Lcst_end4-.Lcst_begin4
.Lcst_begin4:
	.uleb128 .Lfunc_begin4-.Lfunc_begin4    # >> Call Site 1 <<
	.uleb128 .Ltmp20-.Lfunc_begin4          #   Call between .Lfunc_begin4 and .Ltmp20
	.byte	0                               #     has no landing pad
	.byte	0                               #   On action: cleanup
	.uleb128 .Ltmp20-.Lfunc_begin4          # >> Call Site 2 <<
	.uleb128 .Ltmp21-.Ltmp20                #   Call between .Ltmp20 and .Ltmp21
	.uleb128 .Ltmp30-.Lfunc_begin4          #     jumps to .Ltmp30
	.byte	0                               #   On action: cleanup
	.uleb128 .Ltmp22-.Lfunc_begin4          # >> Call Site 3 <<
	.uleb128 .Ltmp23-.Ltmp22                #   Call between .Ltmp22 and .Ltmp23
	.uleb128 .Ltmp24-.Lfunc_begin4          #     jumps to .Ltmp24
	.byte	0                               #   On action: cleanup
	.uleb128 .Ltmp23-.Lfunc_begin4          # >> Call Site 4 <<
	.uleb128 .Ltmp25-.Ltmp23                #   Call between .Ltmp23 and .Ltmp25
	.byte	0                               #     has no landing pad
	.byte	0                               #   On action: cleanup
	.uleb128 .Ltmp25-.Lfunc_begin4          # >> Call Site 5 <<
	.uleb128 .Ltmp26-.Ltmp25                #   Call between .Ltmp25 and .Ltmp26
	.uleb128 .Ltmp27-.Lfunc_begin4          #     jumps to .Ltmp27
	.byte	0                               #   On action: cleanup
	.uleb128 .Ltmp26-.Lfunc_begin4          # >> Call Site 6 <<
	.uleb128 .Ltmp28-.Ltmp26                #   Call between .Ltmp26 and .Ltmp28
	.byte	0                               #     has no landing pad
	.byte	0                               #   On action: cleanup
	.uleb128 .Ltmp28-.Lfunc_begin4          # >> Call Site 7 <<
	.uleb128 .Ltmp29-.Ltmp28                #   Call between .Ltmp28 and .Ltmp29
	.uleb128 .Ltmp30-.Lfunc_begin4          #     jumps to .Ltmp30
	.byte	0                               #   On action: cleanup
	.uleb128 .Ltmp31-.Lfunc_begin4          # >> Call Site 8 <<
	.uleb128 .Ltmp32-.Ltmp31                #   Call between .Ltmp31 and .Ltmp32
	.uleb128 .Ltmp33-.Lfunc_begin4          #     jumps to .Ltmp33
	.byte	0                               #   On action: cleanup
	.uleb128 .Ltmp32-.Lfunc_begin4          # >> Call Site 9 <<
	.uleb128 .Lfunc_end8-.Ltmp32            #   Call between .Ltmp32 and .Lfunc_end8
	.byte	0                               #     has no landing pad
	.byte	0                               #   On action: cleanup
.Lcst_end4:
	.p2align	2, 0x0
                                        # -- End function
	.section	.text._ZNSt6vectorISt4pairINSt7__cxx1112basic_stringIcSt11char_traitsIcESaIcEEEdESaIS7_EED2Ev,"axG",@progbits,_ZNSt6vectorISt4pairINSt7__cxx1112basic_stringIcSt11char_traitsIcESaIcEEEdESaIS7_EED2Ev,comdat
	.hidden	_ZNSt6vectorISt4pairINSt7__cxx1112basic_stringIcSt11char_traitsIcESaIcEEEdESaIS7_EED2Ev # -- Begin function _ZNSt6vectorISt4pairINSt7__cxx1112basic_stringIcSt11char_traitsIcESaIcEEEdESaIS7_EED2Ev
	.weak	_ZNSt6vectorISt4pairINSt7__cxx1112basic_stringIcSt11char_traitsIcESaIcEEEdESaIS7_EED2Ev
	.p2align	2
	.type	_ZNSt6vectorISt4pairINSt7__cxx1112basic_stringIcSt11char_traitsIcESaIcEEEdESaIS7_EED2Ev,@function
_ZNSt6vectorISt4pairINSt7__cxx1112basic_stringIcSt11char_traitsIcESaIcEEEdESaIS7_EED2Ev: # @_ZNSt6vectorISt4pairINSt7__cxx1112basic_stringIcSt11char_traitsIcESaIcEEEdESaIS7_EED2Ev
	.cfi_startproc
# %bb.0:                                # %entry
	addi.d	$sp, $sp, -32
	.cfi_def_cfa_offset 32
	st.d	$ra, $sp, 24                    # 8-byte Folded Spill
	st.d	$fp, $sp, 16                    # 8-byte Folded Spill
	st.d	$s0, $sp, 8                     # 8-byte Folded Spill
	st.d	$s1, $sp, 0                     # 8-byte Folded Spill
	.cfi_offset 1, -8
	.cfi_offset 22, -16
	.cfi_offset 23, -24
	.cfi_offset 24, -32
	move	$fp, $a0
	ld.d	$a0, $a0, 0
	ld.d	$s0, $fp, 8
	beq	$a0, $s0, .LBB9_6
# %bb.1:                                # %for.body.i.preheader
	addi.d	$s1, $a0, 16
	b	.LBB9_3
	.p2align	4, , 16
.LBB9_2:                                # %_ZSt8_DestroyISt4pairINSt7__cxx1112basic_stringIcSt11char_traitsIcESaIcEEEdEEvPT_.exit.i
                                        #   in Loop: Header=BB9_3 Depth=1
	addi.d	$a0, $s1, 24
	addi.d	$s1, $s1, 40
	beq	$a0, $s0, .LBB9_5
.LBB9_3:                                # %for.body.i
                                        # =>This Inner Loop Header: Depth=1
	ld.d	$a0, $s1, -16
	beq	$s1, $a0, .LBB9_2
# %bb.4:                                # %if.then.i.i.i.i.i
                                        #   in Loop: Header=BB9_3 Depth=1
	ld.d	$a1, $s1, 0
	addi.d	$a1, $a1, 1
	pcaddu18i	$ra, %call36(_ZdlPvm)
	jirl	$ra, $ra, 0
	b	.LBB9_2
.LBB9_5:                                # %invoke.contthread-pre-split
	ld.d	$a0, $fp, 0
.LBB9_6:                                # %invoke.cont
	beqz	$a0, .LBB9_8
# %bb.7:                                # %if.then.i.i
	ld.d	$a1, $fp, 16
	sub.d	$a1, $a1, $a0
	ld.d	$s1, $sp, 0                     # 8-byte Folded Reload
	ld.d	$s0, $sp, 8                     # 8-byte Folded Reload
	ld.d	$fp, $sp, 16                    # 8-byte Folded Reload
	ld.d	$ra, $sp, 24                    # 8-byte Folded Reload
	addi.d	$sp, $sp, 32
	pcaddu18i	$t8, %call36(_ZdlPvm)
	jr	$t8
.LBB9_8:                                # %_ZNSt12_Vector_baseISt4pairINSt7__cxx1112basic_stringIcSt11char_traitsIcESaIcEEEdESaIS7_EED2Ev.exit
	ld.d	$s1, $sp, 0                     # 8-byte Folded Reload
	ld.d	$s0, $sp, 8                     # 8-byte Folded Reload
	ld.d	$fp, $sp, 16                    # 8-byte Folded Reload
	ld.d	$ra, $sp, 24                    # 8-byte Folded Reload
	addi.d	$sp, $sp, 32
	ret
.Lfunc_end9:
	.size	_ZNSt6vectorISt4pairINSt7__cxx1112basic_stringIcSt11char_traitsIcESaIcEEEdESaIS7_EED2Ev, .Lfunc_end9-_ZNSt6vectorISt4pairINSt7__cxx1112basic_stringIcSt11char_traitsIcESaIcEEEdESaIS7_EED2Ev
	.cfi_endproc
                                        # -- End function
	.section	.rodata.cst8,"aM",@progbits,8
	.p2align	3, 0x0                          # -- Begin function _ZN9benchmark5State12ResumeTimingEv
.LCPI10_0:
	.dword	0x41cdcd6500000000              # double 1.0E+9
	.text
	.hidden	_ZN9benchmark5State12ResumeTimingEv
	.globl	_ZN9benchmark5State12ResumeTimingEv
	.p2align	2
	.type	_ZN9benchmark5State12ResumeTimingEv,@function
_ZN9benchmark5State12ResumeTimingEv:    # @_ZN9benchmark5State12ResumeTimingEv
	.cfi_startproc
# %bb.0:                                # %entry
	addi.d	$sp, $sp, -32
	.cfi_def_cfa_offset 32
	st.d	$ra, $sp, 24                    # 8-byte Folded Spill
	st.d	$fp, $sp, 16                    # 8-byte Folded Spill
	st.d	$s0, $sp, 8                     # 8-byte Folded Spill
	st.d	$s1, $sp, 0                     # 8-byte Folded Spill
	.cfi_offset 1, -8
	.cfi_offset 22, -16
	.cfi_offset 23, -24
	.cfi_offset 24, -32
	pcalau12i	$a1, %pc_hi20(_ZGVZN9benchmark8internal18GetNullLogInstanceEvE8null_log)
	ld.b	$a1, $a1, %pc_lo12(_ZGVZN9benchmark8internal18GetNullLogInstanceEvE8null_log)
	move	$fp, $a0
	dbar	20
	beqz	$a1, .LBB10_7
.LBB10_1:                               # %_ZN9benchmark8internal18GetNullLogInstanceEv.exit
	ld.d	$s0, $fp, 152
	ori	$s1, $zero, 1
	st.b	$s1, $s0, 1
	pcaddu18i	$ra, %call36(_ZNSt6chrono3_V212steady_clock3nowEv)
	jirl	$ra, $ra, 0
	pcalau12i	$a1, %pc_hi20(.LCPI10_0)
	fld.d	$fa0, $a1, %pc_lo12(.LCPI10_0)
	ld.bu	$a1, $s0, 0
	movgr2fr.d	$fa1, $a0
	ffint.d.l	$fa1, $fa1
	fdiv.d	$fa0, $fa1, $fa0
	fst.d	$fa0, $s0, 8
	bne	$a1, $s1, .LBB10_3
# %bb.2:                                # %if.then.i.i
	pcaddu18i	$ra, %call36(_ZN9benchmark15ProcessCPUUsageEv)
	jirl	$ra, $ra, 0
	ld.d	$fp, $fp, 168
	fst.d	$fa0, $s0, 16
	bnez	$fp, .LBB10_4
	b	.LBB10_6
.LBB10_3:                               # %if.end.i.i
	pcaddu18i	$ra, %call36(_ZN9benchmark14ThreadCPUUsageEv)
	jirl	$ra, $ra, 0
	ld.d	$fp, $fp, 168
	fst.d	$fa0, $s0, 16
	beqz	$fp, .LBB10_6
.LBB10_4:                               # %if.then
	ld.d	$a0, $fp, 56
	ld.d	$a1, $fp, 48
	beq	$a0, $a1, .LBB10_6
# %bb.5:                                # %if.end.i
	#MEMBARRIER
	addi.d	$a0, $fp, 80
	addi.d	$a1, $fp, 24
	pcaddu18i	$ra, %call36(_ZN9benchmark8internal17PerfCounterValues4ReadERKSt6vectorIiSaIiEE)
	jirl	$ra, $ra, 0
	ld.d	$a1, $fp, 8
	ld.d	$a2, $fp, 0
	sub.d	$a1, $a1, $a2
	ld.bu	$a2, $fp, 72
	srai.d	$a1, $a1, 2
	xor	$a0, $a0, $a1
	sltui	$a0, $a0, 1
	and	$a0, $a2, $a0
	st.b	$a0, $fp, 72
	#MEMBARRIER
.LBB10_6:                               # %if.end
	ld.d	$s1, $sp, 0                     # 8-byte Folded Reload
	ld.d	$s0, $sp, 8                     # 8-byte Folded Reload
	ld.d	$fp, $sp, 16                    # 8-byte Folded Reload
	ld.d	$ra, $sp, 24                    # 8-byte Folded Reload
	addi.d	$sp, $sp, 32
	ret
.LBB10_7:                               # %init.check.i
	pcalau12i	$a0, %pc_hi20(_ZGVZN9benchmark8internal18GetNullLogInstanceEvE8null_log)
	addi.d	$a0, $a0, %pc_lo12(_ZGVZN9benchmark8internal18GetNullLogInstanceEvE8null_log)
	pcaddu18i	$ra, %call36(__cxa_guard_acquire)
	jirl	$ra, $ra, 0
	addi.w	$a0, $a0, 0
	beqz	$a0, .LBB10_1
# %bb.8:                                # %init.i
	pcalau12i	$a0, %pc_hi20(_ZZN9benchmark8internal18GetNullLogInstanceEvE8null_log)
	st.d	$zero, $a0, %pc_lo12(_ZZN9benchmark8internal18GetNullLogInstanceEvE8null_log)
	pcalau12i	$a0, %pc_hi20(_ZGVZN9benchmark8internal18GetNullLogInstanceEvE8null_log)
	addi.d	$a0, $a0, %pc_lo12(_ZGVZN9benchmark8internal18GetNullLogInstanceEvE8null_log)
	pcaddu18i	$ra, %call36(__cxa_guard_release)
	jirl	$ra, $ra, 0
	b	.LBB10_1
.Lfunc_end10:
	.size	_ZN9benchmark5State12ResumeTimingEv, .Lfunc_end10-_ZN9benchmark5State12ResumeTimingEv
	.cfi_endproc
                                        # -- End function
	.section	.rodata.cst8,"aM",@progbits,8
	.p2align	3, 0x0                          # -- Begin function _ZN9benchmark5State15SkipWithMessageERKNSt7__cxx1112basic_stringIcSt11char_traitsIcESaIcEEE
.LCPI11_0:
	.dword	0x41cdcd6500000000              # double 1.0E+9
	.text
	.hidden	_ZN9benchmark5State15SkipWithMessageERKNSt7__cxx1112basic_stringIcSt11char_traitsIcESaIcEEE
	.globl	_ZN9benchmark5State15SkipWithMessageERKNSt7__cxx1112basic_stringIcSt11char_traitsIcESaIcEEE
	.p2align	2
	.type	_ZN9benchmark5State15SkipWithMessageERKNSt7__cxx1112basic_stringIcSt11char_traitsIcESaIcEEE,@function
_ZN9benchmark5State15SkipWithMessageERKNSt7__cxx1112basic_stringIcSt11char_traitsIcESaIcEEE: # @_ZN9benchmark5State15SkipWithMessageERKNSt7__cxx1112basic_stringIcSt11char_traitsIcESaIcEEE
.Lfunc_begin5:
	.cfi_startproc
	.cfi_personality 155, DW.ref.__gxx_personality_v0
	.cfi_lsda 27, .Lexception5
# %bb.0:                                # %entry
	addi.d	$sp, $sp, -32
	.cfi_def_cfa_offset 32
	st.d	$ra, $sp, 24                    # 8-byte Folded Spill
	st.d	$fp, $sp, 16                    # 8-byte Folded Spill
	st.d	$s0, $sp, 8                     # 8-byte Folded Spill
	st.d	$s1, $sp, 0                     # 8-byte Folded Spill
	.cfi_offset 1, -8
	.cfi_offset 22, -16
	.cfi_offset 23, -24
	.cfi_offset 24, -32
	move	$fp, $a0
	ld.d	$a0, $a0, 160
	move	$s1, $a1
	ori	$a1, $zero, 1
	st.w	$a1, $fp, 28
	addi.d	$s0, $a0, 160
	move	$a0, $s0
	pcaddu18i	$ra, %call36(pthread_mutex_lock)
	jirl	$ra, $ra, 0
	bnez	$a0, .LBB11_11
# %bb.1:                                # %_ZN9benchmark9MutexLockC2ERNS_5MutexE.exit
	ld.d	$a0, $fp, 160
	ld.w	$a1, $a0, 104
	bnez	$a1, .LBB11_4
# %bb.2:                                # %if.then
	addi.d	$a0, $a0, 72
.Ltmp34:                                # EH_LABEL
	move	$a1, $s1
	pcaddu18i	$ra, %call36(_ZNSt7__cxx1112basic_stringIcSt11char_traitsIcESaIcEE9_M_assignERKS4_)
	jirl	$ra, $ra, 0
.Ltmp35:                                # EH_LABEL
# %bb.3:                                # %invoke.cont
	ld.w	$a0, $fp, 28
	ld.d	$a1, $fp, 160
	st.w	$a0, $a1, 104
.LBB11_4:                               # %_ZN9benchmark9MutexLockD2Ev.exit9
	move	$a0, $s0
	pcaddu18i	$ra, %call36(pthread_mutex_unlock)
	jirl	$ra, $ra, 0
	ld.d	$s0, $fp, 152
	ld.bu	$a0, $s0, 1
	ori	$a1, $zero, 1
	st.d	$zero, $fp, 0
	bne	$a0, $a1, .LBB11_10
# %bb.5:                                # %if.then12
	pcalau12i	$a0, %pc_hi20(_ZGVZN9benchmark8internal18GetNullLogInstanceEvE8null_log)
	ld.b	$a0, $a0, %pc_lo12(_ZGVZN9benchmark8internal18GetNullLogInstanceEvE8null_log)
	dbar	20
	beqz	$a0, .LBB11_12
.LBB11_6:                               # %_ZN9benchmark8internal18GetNullLogInstanceEv.exit.i
	st.b	$zero, $s0, 1
	pcaddu18i	$ra, %call36(_ZNSt6chrono3_V212steady_clock3nowEv)
	jirl	$ra, $ra, 0
	movgr2fr.d	$fa0, $a0
	pcalau12i	$a0, %pc_hi20(.LCPI11_0)
	fld.d	$fa1, $a0, %pc_lo12(.LCPI11_0)
	ffint.d.l	$fa0, $fa0
	fld.d	$fa2, $s0, 8
	fld.d	$fa3, $s0, 24
	fdiv.d	$fa0, $fa0, $fa1
	ld.bu	$a0, $s0, 0
	fsub.d	$fa0, $fa0, $fa2
	fadd.d	$fa0, $fa3, $fa0
	ori	$a1, $zero, 1
	fst.d	$fa0, $s0, 24
	bne	$a0, $a1, .LBB11_8
# %bb.7:                                # %if.then.i.i
	pcaddu18i	$ra, %call36(_ZN9benchmark15ProcessCPUUsageEv)
	jirl	$ra, $ra, 0
	b	.LBB11_9
.LBB11_8:                               # %if.end.i.i
	pcaddu18i	$ra, %call36(_ZN9benchmark14ThreadCPUUsageEv)
	jirl	$ra, $ra, 0
.LBB11_9:                               # %_ZN9benchmark8internal11ThreadTimer9StopTimerEv.exit
	fld.d	$fa1, $s0, 16
	fsub.d	$fa0, $fa0, $fa1
	fld.d	$fa1, $s0, 32
	movgr2fr.d	$fa2, $zero
	fcmp.clt.d	$fcc0, $fa0, $fa2
	fsel	$fa0, $fa0, $fa2, $fcc0
	fadd.d	$fa0, $fa1, $fa0
	fst.d	$fa0, $s0, 32
.LBB11_10:                              # %if.end14
	ld.d	$s1, $sp, 0                     # 8-byte Folded Reload
	ld.d	$s0, $sp, 8                     # 8-byte Folded Reload
	ld.d	$fp, $sp, 16                    # 8-byte Folded Reload
	ld.d	$ra, $sp, 24                    # 8-byte Folded Reload
	addi.d	$sp, $sp, 32
	ret
.LBB11_11:                              # %if.then.i.i.i.i
	pcaddu18i	$ra, %call36(_ZSt20__throw_system_errori)
	jirl	$ra, $ra, 0
.LBB11_12:                              # %init.check.i.i
	pcalau12i	$a0, %pc_hi20(_ZGVZN9benchmark8internal18GetNullLogInstanceEvE8null_log)
	addi.d	$a0, $a0, %pc_lo12(_ZGVZN9benchmark8internal18GetNullLogInstanceEvE8null_log)
	pcaddu18i	$ra, %call36(__cxa_guard_acquire)
	jirl	$ra, $ra, 0
	addi.w	$a0, $a0, 0
	beqz	$a0, .LBB11_6
# %bb.13:                               # %init.i.i
	pcalau12i	$a0, %pc_hi20(_ZZN9benchmark8internal18GetNullLogInstanceEvE8null_log)
	st.d	$zero, $a0, %pc_lo12(_ZZN9benchmark8internal18GetNullLogInstanceEvE8null_log)
	pcalau12i	$a0, %pc_hi20(_ZGVZN9benchmark8internal18GetNullLogInstanceEvE8null_log)
	addi.d	$a0, $a0, %pc_lo12(_ZGVZN9benchmark8internal18GetNullLogInstanceEvE8null_log)
	pcaddu18i	$ra, %call36(__cxa_guard_release)
	jirl	$ra, $ra, 0
	b	.LBB11_6
.LBB11_14:                              # %_ZN9benchmark9MutexLockD2Ev.exit
.Ltmp36:                                # EH_LABEL
	move	$fp, $a0
	move	$a0, $s0
	pcaddu18i	$ra, %call36(pthread_mutex_unlock)
	jirl	$ra, $ra, 0
	move	$a0, $fp
	pcaddu18i	$ra, %call36(_Unwind_Resume)
	jirl	$ra, $ra, 0
.Lfunc_end11:
	.size	_ZN9benchmark5State15SkipWithMessageERKNSt7__cxx1112basic_stringIcSt11char_traitsIcESaIcEEE, .Lfunc_end11-_ZN9benchmark5State15SkipWithMessageERKNSt7__cxx1112basic_stringIcSt11char_traitsIcESaIcEEE
	.cfi_endproc
	.section	.gcc_except_table,"a",@progbits
	.p2align	2, 0x0
GCC_except_table11:
.Lexception5:
	.byte	255                             # @LPStart Encoding = omit
	.byte	255                             # @TType Encoding = omit
	.byte	1                               # Call site Encoding = uleb128
	.uleb128 .Lcst_end5-.Lcst_begin5
.Lcst_begin5:
	.uleb128 .Lfunc_begin5-.Lfunc_begin5    # >> Call Site 1 <<
	.uleb128 .Ltmp34-.Lfunc_begin5          #   Call between .Lfunc_begin5 and .Ltmp34
	.byte	0                               #     has no landing pad
	.byte	0                               #   On action: cleanup
	.uleb128 .Ltmp34-.Lfunc_begin5          # >> Call Site 2 <<
	.uleb128 .Ltmp35-.Ltmp34                #   Call between .Ltmp34 and .Ltmp35
	.uleb128 .Ltmp36-.Lfunc_begin5          #     jumps to .Ltmp36
	.byte	0                               #   On action: cleanup
	.uleb128 .Ltmp35-.Lfunc_begin5          # >> Call Site 3 <<
	.uleb128 .Lfunc_end11-.Ltmp35           #   Call between .Ltmp35 and .Lfunc_end11
	.byte	0                               #     has no landing pad
	.byte	0                               #   On action: cleanup
.Lcst_end5:
	.p2align	2, 0x0
                                        # -- End function
	.section	.rodata.cst8,"aM",@progbits,8
	.p2align	3, 0x0                          # -- Begin function _ZN9benchmark5State13SkipWithErrorERKNSt7__cxx1112basic_stringIcSt11char_traitsIcESaIcEEE
.LCPI12_0:
	.dword	0x41cdcd6500000000              # double 1.0E+9
	.text
	.hidden	_ZN9benchmark5State13SkipWithErrorERKNSt7__cxx1112basic_stringIcSt11char_traitsIcESaIcEEE
	.globl	_ZN9benchmark5State13SkipWithErrorERKNSt7__cxx1112basic_stringIcSt11char_traitsIcESaIcEEE
	.p2align	2
	.type	_ZN9benchmark5State13SkipWithErrorERKNSt7__cxx1112basic_stringIcSt11char_traitsIcESaIcEEE,@function
_ZN9benchmark5State13SkipWithErrorERKNSt7__cxx1112basic_stringIcSt11char_traitsIcESaIcEEE: # @_ZN9benchmark5State13SkipWithErrorERKNSt7__cxx1112basic_stringIcSt11char_traitsIcESaIcEEE
.Lfunc_begin6:
	.cfi_startproc
	.cfi_personality 155, DW.ref.__gxx_personality_v0
	.cfi_lsda 27, .Lexception6
# %bb.0:                                # %entry
	addi.d	$sp, $sp, -32
	.cfi_def_cfa_offset 32
	st.d	$ra, $sp, 24                    # 8-byte Folded Spill
	st.d	$fp, $sp, 16                    # 8-byte Folded Spill
	st.d	$s0, $sp, 8                     # 8-byte Folded Spill
	st.d	$s1, $sp, 0                     # 8-byte Folded Spill
	.cfi_offset 1, -8
	.cfi_offset 22, -16
	.cfi_offset 23, -24
	.cfi_offset 24, -32
	move	$fp, $a0
	ld.d	$a0, $a0, 160
	move	$s1, $a1
	ori	$a1, $zero, 2
	st.w	$a1, $fp, 28
	addi.d	$s0, $a0, 160
	move	$a0, $s0
	pcaddu18i	$ra, %call36(pthread_mutex_lock)
	jirl	$ra, $ra, 0
	bnez	$a0, .LBB12_11
# %bb.1:                                # %_ZN9benchmark9MutexLockC2ERNS_5MutexE.exit
	ld.d	$a0, $fp, 160
	ld.w	$a1, $a0, 104
	bnez	$a1, .LBB12_4
# %bb.2:                                # %if.then
	addi.d	$a0, $a0, 72
.Ltmp37:                                # EH_LABEL
	move	$a1, $s1
	pcaddu18i	$ra, %call36(_ZNSt7__cxx1112basic_stringIcSt11char_traitsIcESaIcEE9_M_assignERKS4_)
	jirl	$ra, $ra, 0
.Ltmp38:                                # EH_LABEL
# %bb.3:                                # %invoke.cont
	ld.w	$a0, $fp, 28
	ld.d	$a1, $fp, 160
	st.w	$a0, $a1, 104
.LBB12_4:                               # %_ZN9benchmark9MutexLockD2Ev.exit9
	move	$a0, $s0
	pcaddu18i	$ra, %call36(pthread_mutex_unlock)
	jirl	$ra, $ra, 0
	ld.d	$s0, $fp, 152
	ld.bu	$a0, $s0, 1
	ori	$a1, $zero, 1
	st.d	$zero, $fp, 0
	bne	$a0, $a1, .LBB12_10
# %bb.5:                                # %if.then12
	pcalau12i	$a0, %pc_hi20(_ZGVZN9benchmark8internal18GetNullLogInstanceEvE8null_log)
	ld.b	$a0, $a0, %pc_lo12(_ZGVZN9benchmark8internal18GetNullLogInstanceEvE8null_log)
	dbar	20
	beqz	$a0, .LBB12_12
.LBB12_6:                               # %_ZN9benchmark8internal18GetNullLogInstanceEv.exit.i
	st.b	$zero, $s0, 1
	pcaddu18i	$ra, %call36(_ZNSt6chrono3_V212steady_clock3nowEv)
	jirl	$ra, $ra, 0
	movgr2fr.d	$fa0, $a0
	pcalau12i	$a0, %pc_hi20(.LCPI12_0)
	fld.d	$fa1, $a0, %pc_lo12(.LCPI12_0)
	ffint.d.l	$fa0, $fa0
	fld.d	$fa2, $s0, 8
	fld.d	$fa3, $s0, 24
	fdiv.d	$fa0, $fa0, $fa1
	ld.bu	$a0, $s0, 0
	fsub.d	$fa0, $fa0, $fa2
	fadd.d	$fa0, $fa3, $fa0
	ori	$a1, $zero, 1
	fst.d	$fa0, $s0, 24
	bne	$a0, $a1, .LBB12_8
# %bb.7:                                # %if.then.i.i
	pcaddu18i	$ra, %call36(_ZN9benchmark15ProcessCPUUsageEv)
	jirl	$ra, $ra, 0
	b	.LBB12_9
.LBB12_8:                               # %if.end.i.i
	pcaddu18i	$ra, %call36(_ZN9benchmark14ThreadCPUUsageEv)
	jirl	$ra, $ra, 0
.LBB12_9:                               # %_ZN9benchmark8internal11ThreadTimer9StopTimerEv.exit
	fld.d	$fa1, $s0, 16
	fsub.d	$fa0, $fa0, $fa1
	fld.d	$fa1, $s0, 32
	movgr2fr.d	$fa2, $zero
	fcmp.clt.d	$fcc0, $fa0, $fa2
	fsel	$fa0, $fa0, $fa2, $fcc0
	fadd.d	$fa0, $fa1, $fa0
	fst.d	$fa0, $s0, 32
.LBB12_10:                              # %if.end14
	ld.d	$s1, $sp, 0                     # 8-byte Folded Reload
	ld.d	$s0, $sp, 8                     # 8-byte Folded Reload
	ld.d	$fp, $sp, 16                    # 8-byte Folded Reload
	ld.d	$ra, $sp, 24                    # 8-byte Folded Reload
	addi.d	$sp, $sp, 32
	ret
.LBB12_11:                              # %if.then.i.i.i.i
	pcaddu18i	$ra, %call36(_ZSt20__throw_system_errori)
	jirl	$ra, $ra, 0
.LBB12_12:                              # %init.check.i.i
	pcalau12i	$a0, %pc_hi20(_ZGVZN9benchmark8internal18GetNullLogInstanceEvE8null_log)
	addi.d	$a0, $a0, %pc_lo12(_ZGVZN9benchmark8internal18GetNullLogInstanceEvE8null_log)
	pcaddu18i	$ra, %call36(__cxa_guard_acquire)
	jirl	$ra, $ra, 0
	addi.w	$a0, $a0, 0
	beqz	$a0, .LBB12_6
# %bb.13:                               # %init.i.i
	pcalau12i	$a0, %pc_hi20(_ZZN9benchmark8internal18GetNullLogInstanceEvE8null_log)
	st.d	$zero, $a0, %pc_lo12(_ZZN9benchmark8internal18GetNullLogInstanceEvE8null_log)
	pcalau12i	$a0, %pc_hi20(_ZGVZN9benchmark8internal18GetNullLogInstanceEvE8null_log)
	addi.d	$a0, $a0, %pc_lo12(_ZGVZN9benchmark8internal18GetNullLogInstanceEvE8null_log)
	pcaddu18i	$ra, %call36(__cxa_guard_release)
	jirl	$ra, $ra, 0
	b	.LBB12_6
.LBB12_14:                              # %_ZN9benchmark9MutexLockD2Ev.exit
.Ltmp39:                                # EH_LABEL
	move	$fp, $a0
	move	$a0, $s0
	pcaddu18i	$ra, %call36(pthread_mutex_unlock)
	jirl	$ra, $ra, 0
	move	$a0, $fp
	pcaddu18i	$ra, %call36(_Unwind_Resume)
	jirl	$ra, $ra, 0
.Lfunc_end12:
	.size	_ZN9benchmark5State13SkipWithErrorERKNSt7__cxx1112basic_stringIcSt11char_traitsIcESaIcEEE, .Lfunc_end12-_ZN9benchmark5State13SkipWithErrorERKNSt7__cxx1112basic_stringIcSt11char_traitsIcESaIcEEE
	.cfi_endproc
	.section	.gcc_except_table,"a",@progbits
	.p2align	2, 0x0
GCC_except_table12:
.Lexception6:
	.byte	255                             # @LPStart Encoding = omit
	.byte	255                             # @TType Encoding = omit
	.byte	1                               # Call site Encoding = uleb128
	.uleb128 .Lcst_end6-.Lcst_begin6
.Lcst_begin6:
	.uleb128 .Lfunc_begin6-.Lfunc_begin6    # >> Call Site 1 <<
	.uleb128 .Ltmp37-.Lfunc_begin6          #   Call between .Lfunc_begin6 and .Ltmp37
	.byte	0                               #     has no landing pad
	.byte	0                               #   On action: cleanup
	.uleb128 .Ltmp37-.Lfunc_begin6          # >> Call Site 2 <<
	.uleb128 .Ltmp38-.Ltmp37                #   Call between .Ltmp37 and .Ltmp38
	.uleb128 .Ltmp39-.Lfunc_begin6          #     jumps to .Ltmp39
	.byte	0                               #   On action: cleanup
	.uleb128 .Ltmp38-.Lfunc_begin6          # >> Call Site 3 <<
	.uleb128 .Lfunc_end12-.Ltmp38           #   Call between .Ltmp38 and .Lfunc_end12
	.byte	0                               #     has no landing pad
	.byte	0                               #   On action: cleanup
.Lcst_end6:
	.p2align	2, 0x0
                                        # -- End function
	.text
	.hidden	_ZN9benchmark5State16SetIterationTimeEd # -- Begin function _ZN9benchmark5State16SetIterationTimeEd
	.globl	_ZN9benchmark5State16SetIterationTimeEd
	.p2align	2
	.type	_ZN9benchmark5State16SetIterationTimeEd,@function
_ZN9benchmark5State16SetIterationTimeEd: # @_ZN9benchmark5State16SetIterationTimeEd
# %bb.0:                                # %entry
	ld.d	$a0, $a0, 152
	fld.d	$fa1, $a0, 40
	fadd.d	$fa0, $fa0, $fa1
	fst.d	$fa0, $a0, 40
	ret
.Lfunc_end13:
	.size	_ZN9benchmark5State16SetIterationTimeEd, .Lfunc_end13-_ZN9benchmark5State16SetIterationTimeEd
                                        # -- End function
	.hidden	_ZN9benchmark5State8SetLabelERKNSt7__cxx1112basic_stringIcSt11char_traitsIcESaIcEEE # -- Begin function _ZN9benchmark5State8SetLabelERKNSt7__cxx1112basic_stringIcSt11char_traitsIcESaIcEEE
	.globl	_ZN9benchmark5State8SetLabelERKNSt7__cxx1112basic_stringIcSt11char_traitsIcESaIcEEE
	.p2align	2
	.type	_ZN9benchmark5State8SetLabelERKNSt7__cxx1112basic_stringIcSt11char_traitsIcESaIcEEE,@function
_ZN9benchmark5State8SetLabelERKNSt7__cxx1112basic_stringIcSt11char_traitsIcESaIcEEE: # @_ZN9benchmark5State8SetLabelERKNSt7__cxx1112basic_stringIcSt11char_traitsIcESaIcEEE
.Lfunc_begin7:
	.cfi_startproc
	.cfi_personality 155, DW.ref.__gxx_personality_v0
	.cfi_lsda 27, .Lexception7
# %bb.0:                                # %entry
	addi.d	$sp, $sp, -32
	.cfi_def_cfa_offset 32
	st.d	$ra, $sp, 24                    # 8-byte Folded Spill
	st.d	$fp, $sp, 16                    # 8-byte Folded Spill
	st.d	$s0, $sp, 8                     # 8-byte Folded Spill
	st.d	$s1, $sp, 0                     # 8-byte Folded Spill
	.cfi_offset 1, -8
	.cfi_offset 22, -16
	.cfi_offset 23, -24
	.cfi_offset 24, -32
	move	$s1, $a0
	ld.d	$a0, $a0, 160
	move	$s0, $a1
	addi.d	$fp, $a0, 160
	move	$a0, $fp
	pcaddu18i	$ra, %call36(pthread_mutex_lock)
	jirl	$ra, $ra, 0
	bnez	$a0, .LBB14_3
# %bb.1:                                # %_ZN9benchmark9MutexLockC2ERNS_5MutexE.exit
	ld.d	$a0, $s1, 160
	addi.d	$a0, $a0, 40
.Ltmp40:                                # EH_LABEL
	move	$a1, $s0
	pcaddu18i	$ra, %call36(_ZNSt7__cxx1112basic_stringIcSt11char_traitsIcESaIcEE9_M_assignERKS4_)
	jirl	$ra, $ra, 0
.Ltmp41:                                # EH_LABEL
# %bb.2:                                # %_ZN9benchmark9MutexLockD2Ev.exit
	move	$a0, $fp
	ld.d	$s1, $sp, 0                     # 8-byte Folded Reload
	ld.d	$s0, $sp, 8                     # 8-byte Folded Reload
	ld.d	$fp, $sp, 16                    # 8-byte Folded Reload
	ld.d	$ra, $sp, 24                    # 8-byte Folded Reload
	addi.d	$sp, $sp, 32
	pcaddu18i	$t8, %call36(pthread_mutex_unlock)
	jr	$t8
.LBB14_3:                               # %if.then.i.i.i.i
	pcaddu18i	$ra, %call36(_ZSt20__throw_system_errori)
	jirl	$ra, $ra, 0
.LBB14_4:                               # %_ZN9benchmark9MutexLockD2Ev.exit9
.Ltmp42:                                # EH_LABEL
	move	$s0, $a0
	move	$a0, $fp
	pcaddu18i	$ra, %call36(pthread_mutex_unlock)
	jirl	$ra, $ra, 0
	move	$a0, $s0
	pcaddu18i	$ra, %call36(_Unwind_Resume)
	jirl	$ra, $ra, 0
.Lfunc_end14:
	.size	_ZN9benchmark5State8SetLabelERKNSt7__cxx1112basic_stringIcSt11char_traitsIcESaIcEEE, .Lfunc_end14-_ZN9benchmark5State8SetLabelERKNSt7__cxx1112basic_stringIcSt11char_traitsIcESaIcEEE
	.cfi_endproc
	.section	.gcc_except_table,"a",@progbits
	.p2align	2, 0x0
GCC_except_table14:
.Lexception7:
	.byte	255                             # @LPStart Encoding = omit
	.byte	255                             # @TType Encoding = omit
	.byte	1                               # Call site Encoding = uleb128
	.uleb128 .Lcst_end7-.Lcst_begin7
.Lcst_begin7:
	.uleb128 .Lfunc_begin7-.Lfunc_begin7    # >> Call Site 1 <<
	.uleb128 .Ltmp40-.Lfunc_begin7          #   Call between .Lfunc_begin7 and .Ltmp40
	.byte	0                               #     has no landing pad
	.byte	0                               #   On action: cleanup
	.uleb128 .Ltmp40-.Lfunc_begin7          # >> Call Site 2 <<
	.uleb128 .Ltmp41-.Ltmp40                #   Call between .Ltmp40 and .Ltmp41
	.uleb128 .Ltmp42-.Lfunc_begin7          #     jumps to .Ltmp42
	.byte	0                               #   On action: cleanup
	.uleb128 .Ltmp41-.Lfunc_begin7          # >> Call Site 3 <<
	.uleb128 .Lfunc_end14-.Ltmp41           #   Call between .Ltmp41 and .Lfunc_end14
	.byte	0                               #     has no landing pad
	.byte	0                               #   On action: cleanup
.Lcst_end7:
	.p2align	2, 0x0
                                        # -- End function
	.text
	.hidden	_ZN9benchmark5State16StartKeepRunningEv # -- Begin function _ZN9benchmark5State16StartKeepRunningEv
	.globl	_ZN9benchmark5State16StartKeepRunningEv
	.p2align	2
	.type	_ZN9benchmark5State16StartKeepRunningEv,@function
_ZN9benchmark5State16StartKeepRunningEv: # @_ZN9benchmark5State16StartKeepRunningEv
	.cfi_startproc
# %bb.0:                                # %entry
	addi.d	$sp, $sp, -16
	.cfi_def_cfa_offset 16
	st.d	$ra, $sp, 8                     # 8-byte Folded Spill
	st.d	$fp, $sp, 0                     # 8-byte Folded Spill
	.cfi_offset 1, -8
	.cfi_offset 22, -16
	pcalau12i	$a1, %pc_hi20(_ZGVZN9benchmark8internal18GetNullLogInstanceEvE8null_log)
	ld.b	$a1, $a1, %pc_lo12(_ZGVZN9benchmark8internal18GetNullLogInstanceEvE8null_log)
	move	$fp, $a0
	dbar	20
	beqz	$a1, .LBB15_6
.LBB15_1:                               # %_ZN9benchmark8internal18GetNullLogInstanceEv.exit
	ori	$a1, $zero, 1
	ld.w	$a2, $fp, 28
	ld.d	$a3, $fp, 16
	ld.d	$a0, $fp, 176
	st.b	$a1, $fp, 24
	sltui	$a1, $a2, 1
	maskeqz	$a1, $a3, $a1
	st.d	$a1, $fp, 0
	bnez	$a0, .LBB15_5
.LBB15_2:                               # %if.end
	ld.d	$a0, $fp, 160
	addi.d	$a0, $a0, 208
	pcaddu18i	$ra, %call36(_ZN9benchmark7Barrier4waitEv)
	jirl	$ra, $ra, 0
	ld.w	$a0, $fp, 28
	beqz	$a0, .LBB15_4
# %bb.3:                                # %if.end7
	ld.d	$fp, $sp, 0                     # 8-byte Folded Reload
	ld.d	$ra, $sp, 8                     # 8-byte Folded Reload
	addi.d	$sp, $sp, 16
	ret
.LBB15_4:                               # %if.then6
	move	$a0, $fp
	ld.d	$fp, $sp, 0                     # 8-byte Folded Reload
	ld.d	$ra, $sp, 8                     # 8-byte Folded Reload
	addi.d	$sp, $sp, 16
	pcaddu18i	$t8, %call36(_ZN9benchmark5State12ResumeTimingEv)
	jr	$t8
.LBB15_5:                               # %if.then
	ld.d	$a1, $a0, 0
	ld.d	$a1, $a1, 16
	jirl	$ra, $a1, 0
	b	.LBB15_2
.LBB15_6:                               # %init.check.i
	pcalau12i	$a0, %pc_hi20(_ZGVZN9benchmark8internal18GetNullLogInstanceEvE8null_log)
	addi.d	$a0, $a0, %pc_lo12(_ZGVZN9benchmark8internal18GetNullLogInstanceEvE8null_log)
	pcaddu18i	$ra, %call36(__cxa_guard_acquire)
	jirl	$ra, $ra, 0
	addi.w	$a0, $a0, 0
	beqz	$a0, .LBB15_1
# %bb.7:                                # %init.i
	pcalau12i	$a0, %pc_hi20(_ZZN9benchmark8internal18GetNullLogInstanceEvE8null_log)
	st.d	$zero, $a0, %pc_lo12(_ZZN9benchmark8internal18GetNullLogInstanceEvE8null_log)
	pcalau12i	$a0, %pc_hi20(_ZGVZN9benchmark8internal18GetNullLogInstanceEvE8null_log)
	addi.d	$a0, $a0, %pc_lo12(_ZGVZN9benchmark8internal18GetNullLogInstanceEvE8null_log)
	pcaddu18i	$ra, %call36(__cxa_guard_release)
	jirl	$ra, $ra, 0
	b	.LBB15_1
.Lfunc_end15:
	.size	_ZN9benchmark5State16StartKeepRunningEv, .Lfunc_end15-_ZN9benchmark5State16StartKeepRunningEv
	.cfi_endproc
                                        # -- End function
	.hidden	_ZN9benchmark5State17FinishKeepRunningEv # -- Begin function _ZN9benchmark5State17FinishKeepRunningEv
	.globl	_ZN9benchmark5State17FinishKeepRunningEv
	.p2align	2
	.type	_ZN9benchmark5State17FinishKeepRunningEv,@function
_ZN9benchmark5State17FinishKeepRunningEv: # @_ZN9benchmark5State17FinishKeepRunningEv
	.cfi_startproc
# %bb.0:                                # %entry
	addi.d	$sp, $sp, -16
	.cfi_def_cfa_offset 16
	st.d	$ra, $sp, 8                     # 8-byte Folded Spill
	st.d	$fp, $sp, 0                     # 8-byte Folded Spill
	.cfi_offset 1, -8
	.cfi_offset 22, -16
	pcalau12i	$a1, %pc_hi20(_ZGVZN9benchmark8internal18GetNullLogInstanceEvE8null_log)
	ld.b	$a1, $a1, %pc_lo12(_ZGVZN9benchmark8internal18GetNullLogInstanceEvE8null_log)
	move	$fp, $a0
	dbar	20
	beqz	$a1, .LBB16_6
.LBB16_1:                               # %_ZN9benchmark8internal18GetNullLogInstanceEv.exit
	ld.w	$a0, $fp, 28
	bnez	$a0, .LBB16_3
# %bb.2:                                # %if.then
	move	$a0, $fp
	pcaddu18i	$ra, %call36(_ZN9benchmark5State11PauseTimingEv)
	jirl	$ra, $ra, 0
.LBB16_3:                               # %if.end
	ld.d	$a0, $fp, 160
	st.d	$zero, $fp, 0
	ori	$a1, $zero, 1
	st.b	$a1, $fp, 25
	addi.d	$a0, $a0, 208
	pcaddu18i	$ra, %call36(_ZN9benchmark7Barrier4waitEv)
	jirl	$ra, $ra, 0
	ld.d	$a0, $fp, 176
	bnez	$a0, .LBB16_5
# %bb.4:                                # %if.end6
	ld.d	$fp, $sp, 0                     # 8-byte Folded Reload
	ld.d	$ra, $sp, 8                     # 8-byte Folded Reload
	addi.d	$sp, $sp, 16
	ret
.LBB16_5:                               # %if.then4
	ld.d	$a1, $a0, 0
	ld.d	$a1, $a1, 24
	ld.d	$fp, $sp, 0                     # 8-byte Folded Reload
	ld.d	$ra, $sp, 8                     # 8-byte Folded Reload
	addi.d	$sp, $sp, 16
	jr	$a1
.LBB16_6:                               # %init.check.i
	pcalau12i	$a0, %pc_hi20(_ZGVZN9benchmark8internal18GetNullLogInstanceEvE8null_log)
	addi.d	$a0, $a0, %pc_lo12(_ZGVZN9benchmark8internal18GetNullLogInstanceEvE8null_log)
	pcaddu18i	$ra, %call36(__cxa_guard_acquire)
	jirl	$ra, $ra, 0
	addi.w	$a0, $a0, 0
	beqz	$a0, .LBB16_1
# %bb.7:                                # %init.i
	pcalau12i	$a0, %pc_hi20(_ZZN9benchmark8internal18GetNullLogInstanceEvE8null_log)
	st.d	$zero, $a0, %pc_lo12(_ZZN9benchmark8internal18GetNullLogInstanceEvE8null_log)
	pcalau12i	$a0, %pc_hi20(_ZGVZN9benchmark8internal18GetNullLogInstanceEvE8null_log)
	addi.d	$a0, $a0, %pc_lo12(_ZGVZN9benchmark8internal18GetNullLogInstanceEvE8null_log)
	pcaddu18i	$ra, %call36(__cxa_guard_release)
	jirl	$ra, $ra, 0
	b	.LBB16_1
.Lfunc_end16:
	.size	_ZN9benchmark5State17FinishKeepRunningEv, .Lfunc_end16-_ZN9benchmark5State17FinishKeepRunningEv
	.cfi_endproc
                                        # -- End function
	.section	.rodata.cst8,"aM",@progbits,8
	.p2align	3, 0x0                          # -- Begin function _ZN9benchmark8internal6IsZeroEd
.LCPI17_0:
	.dword	0x3cb0000000000000              # double 2.2204460492503131E-16
	.text
	.hidden	_ZN9benchmark8internal6IsZeroEd
	.globl	_ZN9benchmark8internal6IsZeroEd
	.p2align	5
	.type	_ZN9benchmark8internal6IsZeroEd,@function
_ZN9benchmark8internal6IsZeroEd:        # @_ZN9benchmark8internal6IsZeroEd
# %bb.0:                                # %entry
	pcalau12i	$a0, %pc_hi20(.LCPI17_0)
	fld.d	$fa1, $a0, %pc_lo12(.LCPI17_0)
	fabs.d	$fa0, $fa0
	fcmp.clt.d	$fcc0, $fa0, $fa1
	movcf2gr	$a0, $fcc0
	ret
.Lfunc_end17:
	.size	_ZN9benchmark8internal6IsZeroEd, .Lfunc_end17-_ZN9benchmark8internal6IsZeroEd
                                        # -- End function
	.hidden	_ZN9benchmark8internal16GetOutputOptionsEb # -- Begin function _ZN9benchmark8internal16GetOutputOptionsEb
	.globl	_ZN9benchmark8internal16GetOutputOptionsEb
	.p2align	5
	.type	_ZN9benchmark8internal16GetOutputOptionsEb,@function
_ZN9benchmark8internal16GetOutputOptionsEb: # @_ZN9benchmark8internal16GetOutputOptionsEb
	.cfi_startproc
# %bb.0:                                # %entry
	addi.d	$sp, $sp, -16
	.cfi_def_cfa_offset 16
	st.d	$ra, $sp, 8                     # 8-byte Folded Spill
	st.d	$fp, $sp, 0                     # 8-byte Folded Spill
	.cfi_offset 1, -8
	.cfi_offset 22, -16
	ori	$fp, $zero, 2
	bnez	$a0, .LBB18_5
# %bb.1:                                # %if.end.i
	pcalau12i	$a0, %pc_hi20(_ZN9benchmark21FLAGS_benchmark_colorB5cxx11E)
	addi.d	$a0, $a0, %pc_lo12(_ZN9benchmark21FLAGS_benchmark_colorB5cxx11E)
	ld.d	$a1, $a0, 8
	ori	$a2, $zero, 4
	bne	$a1, $a2, .LBB18_3
# %bb.2:                                # %_ZSteqIcSt11char_traitsIcESaIcEEbRKNSt7__cxx1112basic_stringIT_T0_T1_EEPKS5_.exit.i
	ld.d	$a0, $a0, 0
	ld.w	$a0, $a0, 0
	lu12i.w	$a1, 456519
	ori	$a1, $a1, 1377
	beq	$a0, $a1, .LBB18_6
.LBB18_3:                               # %"_ZZN9benchmark8internal16GetOutputOptionsEbENK3$_0clEv.exit"
	pcalau12i	$a0, %pc_hi20(_ZN9benchmark21FLAGS_benchmark_colorB5cxx11E)
	addi.d	$a0, $a0, %pc_lo12(_ZN9benchmark21FLAGS_benchmark_colorB5cxx11E)
	pcaddu18i	$ra, %call36(_ZN9benchmark17IsTruthyFlagValueERKNSt7__cxx1112basic_stringIcSt11char_traitsIcESaIcEEE)
	jirl	$ra, $ra, 0
	beqz	$a0, .LBB18_5
.LBB18_4:
	ori	$fp, $zero, 3
.LBB18_5:                               # %"_ZZN9benchmark8internal16GetOutputOptionsEbENK3$_0clEv.exit.thread"
	pcalau12i	$a0, %pc_hi20(_ZN9benchmark32FLAGS_benchmark_counters_tabularE)
	ld.bu	$a0, $a0, %pc_lo12(_ZN9benchmark32FLAGS_benchmark_counters_tabularE)
	andi	$a1, $fp, 1
	masknez	$a1, $a1, $a0
	maskeqz	$a0, $fp, $a0
	or	$a0, $a0, $a1
	ld.d	$fp, $sp, 0                     # 8-byte Folded Reload
	ld.d	$ra, $sp, 8                     # 8-byte Folded Reload
	addi.d	$sp, $sp, 16
	ret
.LBB18_6:                               # %if.then2.i
	pcaddu18i	$ra, %call36(_ZN9benchmark15IsColorTerminalEv)
	jirl	$ra, $ra, 0
	bnez	$a0, .LBB18_4
	b	.LBB18_5
.Lfunc_end18:
	.size	_ZN9benchmark8internal16GetOutputOptionsEb, .Lfunc_end18-_ZN9benchmark8internal16GetOutputOptionsEb
	.cfi_endproc
                                        # -- End function
	.hidden	_ZN9benchmark28CreateDefaultDisplayReporterEv # -- Begin function _ZN9benchmark28CreateDefaultDisplayReporterEv
	.globl	_ZN9benchmark28CreateDefaultDisplayReporterEv
	.p2align	5
	.type	_ZN9benchmark28CreateDefaultDisplayReporterEv,@function
_ZN9benchmark28CreateDefaultDisplayReporterEv: # @_ZN9benchmark28CreateDefaultDisplayReporterEv
.Lfunc_begin8:
	.cfi_startproc
	.cfi_personality 155, DW.ref.__gxx_personality_v0
	.cfi_lsda 27, .Lexception8
# %bb.0:                                # %entry
	addi.d	$sp, $sp, -32
	.cfi_def_cfa_offset 32
	st.d	$ra, $sp, 24                    # 8-byte Folded Spill
	st.d	$fp, $sp, 16                    # 8-byte Folded Spill
	.cfi_offset 1, -8
	.cfi_offset 22, -16
	pcalau12i	$a0, %pc_hi20(_ZGVZN9benchmark28CreateDefaultDisplayReporterEvE24default_display_reporter)
	ld.b	$a0, $a0, %pc_lo12(_ZGVZN9benchmark28CreateDefaultDisplayReporterEvE24default_display_reporter)
	dbar	20
	pcalau12i	$fp, %pc_hi20(_ZZN9benchmark28CreateDefaultDisplayReporterEvE24default_display_reporter)
	beqz	$a0, .LBB19_2
.LBB19_1:                               # %init.end
	ld.d	$a0, $fp, %pc_lo12(_ZZN9benchmark28CreateDefaultDisplayReporterEvE24default_display_reporter)
	ld.d	$fp, $sp, 16                    # 8-byte Folded Reload
	ld.d	$ra, $sp, 24                    # 8-byte Folded Reload
	addi.d	$sp, $sp, 32
	ret
.LBB19_2:                               # %init.check
	pcalau12i	$a0, %pc_hi20(_ZGVZN9benchmark28CreateDefaultDisplayReporterEvE24default_display_reporter)
	addi.d	$a0, $a0, %pc_lo12(_ZGVZN9benchmark28CreateDefaultDisplayReporterEvE24default_display_reporter)
	pcaddu18i	$ra, %call36(__cxa_guard_acquire)
	jirl	$ra, $ra, 0
	addi.w	$a0, $a0, 0
	beqz	$a0, .LBB19_1
# %bb.3:                                # %init
.Ltmp43:                                # EH_LABEL
	move	$a0, $zero
	pcaddu18i	$ra, %call36(_ZN9benchmark8internal16GetOutputOptionsEb)
	jirl	$ra, $ra, 0
.Ltmp44:                                # EH_LABEL
# %bb.4:                                # %invoke.cont
.Ltmp45:                                # EH_LABEL
	move	$a2, $a0
	pcalau12i	$a0, %pc_hi20(_ZN9benchmark22FLAGS_benchmark_formatB5cxx11E)
	addi.d	$a1, $a0, %pc_lo12(_ZN9benchmark22FLAGS_benchmark_formatB5cxx11E)
	addi.d	$a0, $sp, 8
	pcaddu18i	$ra, %call36(_ZN9benchmark8internal12_GLOBAL__N_114CreateReporterERKNSt7__cxx1112basic_stringIcSt11char_traitsIcESaIcEEENS_15ConsoleReporter13OutputOptionsE)
	jirl	$ra, $ra, 0
.Ltmp46:                                # EH_LABEL
# %bb.5:                                # %_ZNSt10unique_ptrIN9benchmark17BenchmarkReporterESt14default_deleteIS1_EED2Ev.exit
	ld.d	$a0, $sp, 8
	st.d	$a0, $fp, %pc_lo12(_ZZN9benchmark28CreateDefaultDisplayReporterEvE24default_display_reporter)
	pcalau12i	$a0, %pc_hi20(_ZGVZN9benchmark28CreateDefaultDisplayReporterEvE24default_display_reporter)
	addi.d	$a0, $a0, %pc_lo12(_ZGVZN9benchmark28CreateDefaultDisplayReporterEvE24default_display_reporter)
	pcaddu18i	$ra, %call36(__cxa_guard_release)
	jirl	$ra, $ra, 0
	b	.LBB19_1
.LBB19_6:                               # %lpad
.Ltmp47:                                # EH_LABEL
	move	$fp, $a0
	pcalau12i	$a0, %pc_hi20(_ZGVZN9benchmark28CreateDefaultDisplayReporterEvE24default_display_reporter)
	addi.d	$a0, $a0, %pc_lo12(_ZGVZN9benchmark28CreateDefaultDisplayReporterEvE24default_display_reporter)
	pcaddu18i	$ra, %call36(__cxa_guard_abort)
	jirl	$ra, $ra, 0
	move	$a0, $fp
	pcaddu18i	$ra, %call36(_Unwind_Resume)
	jirl	$ra, $ra, 0
.Lfunc_end19:
	.size	_ZN9benchmark28CreateDefaultDisplayReporterEv, .Lfunc_end19-_ZN9benchmark28CreateDefaultDisplayReporterEv
	.cfi_endproc
	.section	.gcc_except_table,"a",@progbits
	.p2align	2, 0x0
GCC_except_table19:
.Lexception8:
	.byte	255                             # @LPStart Encoding = omit
	.byte	255                             # @TType Encoding = omit
	.byte	1                               # Call site Encoding = uleb128
	.uleb128 .Lcst_end8-.Lcst_begin8
.Lcst_begin8:
	.uleb128 .Lfunc_begin8-.Lfunc_begin8    # >> Call Site 1 <<
	.uleb128 .Ltmp43-.Lfunc_begin8          #   Call between .Lfunc_begin8 and .Ltmp43
	.byte	0                               #     has no landing pad
	.byte	0                               #   On action: cleanup
	.uleb128 .Ltmp43-.Lfunc_begin8          # >> Call Site 2 <<
	.uleb128 .Ltmp46-.Ltmp43                #   Call between .Ltmp43 and .Ltmp46
	.uleb128 .Ltmp47-.Lfunc_begin8          #     jumps to .Ltmp47
	.byte	0                               #   On action: cleanup
	.uleb128 .Ltmp46-.Lfunc_begin8          # >> Call Site 3 <<
	.uleb128 .Lfunc_end19-.Ltmp46           #   Call between .Ltmp46 and .Lfunc_end19
	.byte	0                               #     has no landing pad
	.byte	0                               #   On action: cleanup
.Lcst_end8:
	.p2align	2, 0x0
                                        # -- End function
	.text
	.p2align	5                               # -- Begin function _ZN9benchmark8internal12_GLOBAL__N_114CreateReporterERKNSt7__cxx1112basic_stringIcSt11char_traitsIcESaIcEEENS_15ConsoleReporter13OutputOptionsE
	.type	_ZN9benchmark8internal12_GLOBAL__N_114CreateReporterERKNSt7__cxx1112basic_stringIcSt11char_traitsIcESaIcEEENS_15ConsoleReporter13OutputOptionsE,@function
_ZN9benchmark8internal12_GLOBAL__N_114CreateReporterERKNSt7__cxx1112basic_stringIcSt11char_traitsIcESaIcEEENS_15ConsoleReporter13OutputOptionsE: # @_ZN9benchmark8internal12_GLOBAL__N_114CreateReporterERKNSt7__cxx1112basic_stringIcSt11char_traitsIcESaIcEEENS_15ConsoleReporter13OutputOptionsE
.Lfunc_begin9:
	.cfi_startproc
	.cfi_personality 155, DW.ref.__gxx_personality_v0
	.cfi_lsda 27, .Lexception9
# %bb.0:                                # %entry
	addi.d	$sp, $sp, -32
	.cfi_def_cfa_offset 32
	st.d	$ra, $sp, 24                    # 8-byte Folded Spill
	st.d	$fp, $sp, 16                    # 8-byte Folded Spill
	st.d	$s0, $sp, 8                     # 8-byte Folded Spill
	st.d	$s1, $sp, 0                     # 8-byte Folded Spill
	.cfi_offset 1, -8
	.cfi_offset 22, -16
	.cfi_offset 23, -24
	.cfi_offset 24, -32
	move	$s0, $a1
	ld.d	$a3, $a1, 8
	ori	$a1, $zero, 3
	move	$fp, $a0
	beq	$a3, $a1, .LBB20_9
# %bb.1:                                # %entry
	ori	$a0, $zero, 4
	beq	$a3, $a0, .LBB20_6
# %bb.2:                                # %entry
	ori	$a0, $zero, 7
	bne	$a3, $a0, .LBB20_13
# %bb.3:                                # %_ZSteqIcSt11char_traitsIcESaIcEEbRKNSt7__cxx1112basic_stringIT_T0_T1_EEPKS5_.exit
	move	$s1, $a2
	ld.d	$a0, $s0, 0
	pcalau12i	$a1, %pc_hi20(.L.str.21)
	addi.d	$a1, $a1, %pc_lo12(.L.str.21)
	ori	$a2, $zero, 7
	pcaddu18i	$ra, %call36(bcmp)
	jirl	$ra, $ra, 0
	bnez	$a0, .LBB20_13
# %bb.4:                                # %if.then
	ori	$a0, $zero, 96
	pcaddu18i	$ra, %call36(_Znwm)
	jirl	$ra, $ra, 0
	move	$s0, $a0
.Ltmp54:                                # EH_LABEL
	pcaddu18i	$ra, %call36(_ZN9benchmark17BenchmarkReporterC2Ev)
	jirl	$ra, $ra, 0
.Ltmp55:                                # EH_LABEL
# %bb.5:                                # %invoke.cont
	pcalau12i	$a0, %got_pc_hi20(_ZTVN9benchmark15ConsoleReporterE)
	ld.d	$a0, $a0, %got_pc_lo12(_ZTVN9benchmark15ConsoleReporterE)
	addi.d	$a0, $a0, 16
	st.d	$a0, $s0, 0
	st.w	$s1, $s0, 24
	st.d	$zero, $s0, 32
	addi.d	$a0, $s0, 48
	st.w	$zero, $s0, 48
	st.d	$zero, $s0, 56
	st.d	$a0, $s0, 64
	st.d	$a0, $s0, 72
	st.d	$zero, $s0, 80
	st.b	$zero, $s0, 88
	b	.LBB20_12
.LBB20_6:                               # %_ZSteqIcSt11char_traitsIcESaIcEEbRKNSt7__cxx1112basic_stringIT_T0_T1_EEPKS5_.exit13
	ld.d	$a0, $s0, 0
	pcalau12i	$a1, %pc_hi20(.L.str.24)
	addi.d	$a1, $a1, %pc_lo12(.L.str.24)
	move	$a2, $a3
	pcaddu18i	$ra, %call36(bcmp)
	jirl	$ra, $ra, 0
	bnez	$a0, .LBB20_13
# %bb.7:                                # %if.then3
	ori	$a0, $zero, 32
	pcaddu18i	$ra, %call36(_Znwm)
	jirl	$ra, $ra, 0
	move	$s0, $a0
.Ltmp51:                                # EH_LABEL
	pcaddu18i	$ra, %call36(_ZN9benchmark17BenchmarkReporterC2Ev)
	jirl	$ra, $ra, 0
.Ltmp52:                                # EH_LABEL
# %bb.8:                                # %invoke.cont6
	pcalau12i	$a0, %got_pc_hi20(_ZTVN9benchmark12JSONReporterE)
	ld.d	$a0, $a0, %got_pc_lo12(_ZTVN9benchmark12JSONReporterE)
	addi.d	$a0, $a0, 16
	st.d	$a0, $s0, 0
	ori	$a0, $zero, 1
	st.b	$a0, $s0, 24
	b	.LBB20_12
.LBB20_9:                               # %_ZSteqIcSt11char_traitsIcESaIcEEbRKNSt7__cxx1112basic_stringIT_T0_T1_EEPKS5_.exit22
	ld.d	$a0, $s0, 0
	pcalau12i	$a1, %pc_hi20(.L.str.60)
	addi.d	$a1, $a1, %pc_lo12(.L.str.60)
	move	$a2, $a3
	pcaddu18i	$ra, %call36(bcmp)
	jirl	$ra, $ra, 0
	bnez	$a0, .LBB20_13
# %bb.10:                               # %if.then9
	ori	$a0, $zero, 80
	pcaddu18i	$ra, %call36(_Znwm)
	jirl	$ra, $ra, 0
	move	$s0, $a0
.Ltmp48:                                # EH_LABEL
	pcaddu18i	$ra, %call36(_ZN9benchmark17BenchmarkReporterC2Ev)
	jirl	$ra, $ra, 0
.Ltmp49:                                # EH_LABEL
# %bb.11:                               # %invoke.cont12
	pcalau12i	$a0, %got_pc_hi20(_ZTVN9benchmark11CSVReporterE)
	ld.d	$a0, $a0, %got_pc_lo12(_ZTVN9benchmark11CSVReporterE)
	addi.d	$a0, $a0, 16
	st.d	$a0, $s0, 0
	st.b	$zero, $s0, 24
	addi.d	$a0, $s0, 40
	st.w	$zero, $s0, 40
	st.d	$zero, $s0, 48
	st.d	$a0, $s0, 56
	st.d	$a0, $s0, 64
	st.d	$zero, $s0, 72
.LBB20_12:                              # %return
	st.d	$s0, $fp, 0
	ld.d	$s1, $sp, 0                     # 8-byte Folded Reload
	ld.d	$s0, $sp, 8                     # 8-byte Folded Reload
	ld.d	$fp, $sp, 16                    # 8-byte Folded Reload
	ld.d	$ra, $sp, 24                    # 8-byte Folded Reload
	addi.d	$sp, $sp, 32
	ret
.LBB20_13:                              # %if.end13
	pcalau12i	$a0, %got_pc_hi20(_ZSt4cerr)
	ld.d	$a0, $a0, %got_pc_lo12(_ZSt4cerr)
	pcalau12i	$a1, %pc_hi20(.L.str.67)
	addi.d	$a1, $a1, %pc_lo12(.L.str.67)
	pcaddu18i	$ra, %call36(_ZStlsISt11char_traitsIcEERSt13basic_ostreamIcT_ES5_PKc)
	jirl	$ra, $ra, 0
	move	$a1, $s0
	pcaddu18i	$ra, %call36(_ZStlsIcSt11char_traitsIcESaIcEERSt13basic_ostreamIT_T0_ES7_RKNSt7__cxx1112basic_stringIS4_S5_T1_EE)
	jirl	$ra, $ra, 0
	pcalau12i	$a1, %pc_hi20(.L.str.68)
	addi.d	$a1, $a1, %pc_lo12(.L.str.68)
	pcaddu18i	$ra, %call36(_ZStlsISt11char_traitsIcEERSt13basic_ostreamIcT_ES5_PKc)
	jirl	$ra, $ra, 0
	ori	$a0, $zero, 1
	pcaddu18i	$ra, %call36(exit)
	jirl	$ra, $ra, 0
.LBB20_14:                              # %lpad
.Ltmp56:                                # EH_LABEL
	move	$fp, $a0
	ori	$a1, $zero, 96
	move	$a0, $s0
	pcaddu18i	$ra, %call36(_ZdlPvm)
	jirl	$ra, $ra, 0
	move	$a0, $fp
	pcaddu18i	$ra, %call36(_Unwind_Resume)
	jirl	$ra, $ra, 0
.LBB20_15:                              # %lpad11
.Ltmp50:                                # EH_LABEL
	move	$fp, $a0
	ori	$a1, $zero, 80
	move	$a0, $s0
	pcaddu18i	$ra, %call36(_ZdlPvm)
	jirl	$ra, $ra, 0
	move	$a0, $fp
	pcaddu18i	$ra, %call36(_Unwind_Resume)
	jirl	$ra, $ra, 0
.LBB20_16:                              # %lpad5
.Ltmp53:                                # EH_LABEL
	move	$fp, $a0
	ori	$a1, $zero, 32
	move	$a0, $s0
	pcaddu18i	$ra, %call36(_ZdlPvm)
	jirl	$ra, $ra, 0
	move	$a0, $fp
	pcaddu18i	$ra, %call36(_Unwind_Resume)
	jirl	$ra, $ra, 0
.Lfunc_end20:
	.size	_ZN9benchmark8internal12_GLOBAL__N_114CreateReporterERKNSt7__cxx1112basic_stringIcSt11char_traitsIcESaIcEEENS_15ConsoleReporter13OutputOptionsE, .Lfunc_end20-_ZN9benchmark8internal12_GLOBAL__N_114CreateReporterERKNSt7__cxx1112basic_stringIcSt11char_traitsIcESaIcEEENS_15ConsoleReporter13OutputOptionsE
	.cfi_endproc
	.section	.gcc_except_table,"a",@progbits
	.p2align	2, 0x0
GCC_except_table20:
.Lexception9:
	.byte	255                             # @LPStart Encoding = omit
	.byte	255                             # @TType Encoding = omit
	.byte	1                               # Call site Encoding = uleb128
	.uleb128 .Lcst_end9-.Lcst_begin9
.Lcst_begin9:
	.uleb128 .Lfunc_begin9-.Lfunc_begin9    # >> Call Site 1 <<
	.uleb128 .Ltmp54-.Lfunc_begin9          #   Call between .Lfunc_begin9 and .Ltmp54
	.byte	0                               #     has no landing pad
	.byte	0                               #   On action: cleanup
	.uleb128 .Ltmp54-.Lfunc_begin9          # >> Call Site 2 <<
	.uleb128 .Ltmp55-.Ltmp54                #   Call between .Ltmp54 and .Ltmp55
	.uleb128 .Ltmp56-.Lfunc_begin9          #     jumps to .Ltmp56
	.byte	0                               #   On action: cleanup
	.uleb128 .Ltmp55-.Lfunc_begin9          # >> Call Site 3 <<
	.uleb128 .Ltmp51-.Ltmp55                #   Call between .Ltmp55 and .Ltmp51
	.byte	0                               #     has no landing pad
	.byte	0                               #   On action: cleanup
	.uleb128 .Ltmp51-.Lfunc_begin9          # >> Call Site 4 <<
	.uleb128 .Ltmp52-.Ltmp51                #   Call between .Ltmp51 and .Ltmp52
	.uleb128 .Ltmp53-.Lfunc_begin9          #     jumps to .Ltmp53
	.byte	0                               #   On action: cleanup
	.uleb128 .Ltmp52-.Lfunc_begin9          # >> Call Site 5 <<
	.uleb128 .Ltmp48-.Ltmp52                #   Call between .Ltmp52 and .Ltmp48
	.byte	0                               #     has no landing pad
	.byte	0                               #   On action: cleanup
	.uleb128 .Ltmp48-.Lfunc_begin9          # >> Call Site 6 <<
	.uleb128 .Ltmp49-.Ltmp48                #   Call between .Ltmp48 and .Ltmp49
	.uleb128 .Ltmp50-.Lfunc_begin9          #     jumps to .Ltmp50
	.byte	0                               #   On action: cleanup
	.uleb128 .Ltmp49-.Lfunc_begin9          # >> Call Site 7 <<
	.uleb128 .Lfunc_end20-.Ltmp49           #   Call between .Ltmp49 and .Lfunc_end20
	.byte	0                               #     has no landing pad
	.byte	0                               #   On action: cleanup
.Lcst_end9:
	.p2align	2, 0x0
                                        # -- End function
	.text
	.hidden	_ZN9benchmark22RunSpecifiedBenchmarksEv # -- Begin function _ZN9benchmark22RunSpecifiedBenchmarksEv
	.globl	_ZN9benchmark22RunSpecifiedBenchmarksEv
	.p2align	5
	.type	_ZN9benchmark22RunSpecifiedBenchmarksEv,@function
_ZN9benchmark22RunSpecifiedBenchmarksEv: # @_ZN9benchmark22RunSpecifiedBenchmarksEv
.Lfunc_begin10:
	.cfi_startproc
	.cfi_personality 155, DW.ref.__gxx_personality_v0
	.cfi_lsda 27, .Lexception10
# %bb.0:                                # %entry
	addi.d	$sp, $sp, -80
	.cfi_def_cfa_offset 80
	st.d	$ra, $sp, 72                    # 8-byte Folded Spill
	st.d	$fp, $sp, 64                    # 8-byte Folded Spill
	st.d	$s0, $sp, 56                    # 8-byte Folded Spill
	.cfi_offset 1, -8
	.cfi_offset 22, -16
	.cfi_offset 23, -24
	addi.d	$s0, $sp, 32
	pcalau12i	$a0, %pc_hi20(_ZN9benchmark22FLAGS_benchmark_filterB5cxx11E)
	addi.d	$a0, $a0, %pc_lo12(_ZN9benchmark22FLAGS_benchmark_filterB5cxx11E)
	ld.d	$a1, $a0, 8
	ld.d	$fp, $a0, 0
	st.d	$s0, $sp, 16
	ori	$a2, $zero, 16
	st.d	$a1, $sp, 48
	move	$a0, $s0
	bltu	$a1, $a2, .LBB21_2
# %bb.1:                                # %if.then.i.i
	addi.d	$a0, $sp, 16
	addi.d	$a1, $sp, 48
	move	$a2, $zero
	pcaddu18i	$ra, %call36(_ZNSt7__cxx1112basic_stringIcSt11char_traitsIcESaIcEE9_M_createERmm)
	jirl	$ra, $ra, 0
	ld.d	$a1, $sp, 48
	st.d	$a0, $sp, 16
	st.d	$a1, $sp, 32
.LBB21_2:                               # %if.end.i.i
	addi.w	$a2, $zero, -1
	beq	$a1, $a2, .LBB21_6
# %bb.3:                                # %if.end.i.i
	bnez	$a1, .LBB21_5
# %bb.4:                                # %if.then.i.i.i
	ld.b	$a1, $fp, 0
	st.b	$a1, $a0, 0
	b	.LBB21_6
.LBB21_5:                               # %if.end.i.i.i.i
	addi.d	$a2, $a1, 1
	move	$a1, $fp
	pcaddu18i	$ra, %call36(memcpy)
	jirl	$ra, $ra, 0
.LBB21_6:                               # %_ZNSt7__cxx1112basic_stringIcSt11char_traitsIcESaIcEEC2ERKS4_.exit
	ld.d	$a0, $sp, 48
	st.d	$a0, $sp, 24
.Ltmp57:                                # EH_LABEL
	addi.d	$a2, $sp, 16
	move	$a0, $zero
	move	$a1, $zero
	pcaddu18i	$ra, %call36(_ZN9benchmark22RunSpecifiedBenchmarksEPNS_17BenchmarkReporterES1_NSt7__cxx1112basic_stringIcSt11char_traitsIcESaIcEEE)
	jirl	$ra, $ra, 0
.Ltmp58:                                # EH_LABEL
# %bb.7:                                # %invoke.cont
	ld.d	$a2, $sp, 16
	beq	$a2, $s0, .LBB21_9
# %bb.8:                                # %if.then.i.i2
	ld.d	$a1, $sp, 32
	addi.d	$a1, $a1, 1
	move	$fp, $a0
	move	$a0, $a2
	pcaddu18i	$ra, %call36(_ZdlPvm)
	jirl	$ra, $ra, 0
	move	$a0, $fp
.LBB21_9:                               # %_ZNSt7__cxx1112basic_stringIcSt11char_traitsIcESaIcEED2Ev.exit
	ld.d	$s0, $sp, 56                    # 8-byte Folded Reload
	ld.d	$fp, $sp, 64                    # 8-byte Folded Reload
	ld.d	$ra, $sp, 72                    # 8-byte Folded Reload
	addi.d	$sp, $sp, 80
	ret
.LBB21_10:                              # %lpad
.Ltmp59:                                # EH_LABEL
	ld.d	$a2, $sp, 16
	move	$fp, $a0
	beq	$a2, $s0, .LBB21_12
# %bb.11:                               # %if.then.i.i4
	ld.d	$a0, $sp, 32
	addi.d	$a1, $a0, 1
	move	$a0, $a2
	pcaddu18i	$ra, %call36(_ZdlPvm)
	jirl	$ra, $ra, 0
.LBB21_12:                              # %_ZNSt7__cxx1112basic_stringIcSt11char_traitsIcESaIcEED2Ev.exit9
	move	$a0, $fp
	pcaddu18i	$ra, %call36(_Unwind_Resume)
	jirl	$ra, $ra, 0
.Lfunc_end21:
	.size	_ZN9benchmark22RunSpecifiedBenchmarksEv, .Lfunc_end21-_ZN9benchmark22RunSpecifiedBenchmarksEv
	.cfi_endproc
	.section	.gcc_except_table,"a",@progbits
	.p2align	2, 0x0
GCC_except_table21:
.Lexception10:
	.byte	255                             # @LPStart Encoding = omit
	.byte	255                             # @TType Encoding = omit
	.byte	1                               # Call site Encoding = uleb128
	.uleb128 .Lcst_end10-.Lcst_begin10
.Lcst_begin10:
	.uleb128 .Lfunc_begin10-.Lfunc_begin10  # >> Call Site 1 <<
	.uleb128 .Ltmp57-.Lfunc_begin10         #   Call between .Lfunc_begin10 and .Ltmp57
	.byte	0                               #     has no landing pad
	.byte	0                               #   On action: cleanup
	.uleb128 .Ltmp57-.Lfunc_begin10         # >> Call Site 2 <<
	.uleb128 .Ltmp58-.Ltmp57                #   Call between .Ltmp57 and .Ltmp58
	.uleb128 .Ltmp59-.Lfunc_begin10         #     jumps to .Ltmp59
	.byte	0                               #   On action: cleanup
	.uleb128 .Ltmp58-.Lfunc_begin10         # >> Call Site 3 <<
	.uleb128 .Lfunc_end21-.Ltmp58           #   Call between .Ltmp58 and .Lfunc_end21
	.byte	0                               #     has no landing pad
	.byte	0                               #   On action: cleanup
.Lcst_end10:
	.p2align	2, 0x0
                                        # -- End function
	.section	.rodata.cst32,"aM",@progbits,32
	.p2align	5, 0x0                          # -- Begin function _ZN9benchmark22RunSpecifiedBenchmarksEPNS_17BenchmarkReporterES1_NSt7__cxx1112basic_stringIcSt11char_traitsIcESaIcEEE
.LCPI22_0:
	.dword	0                               # 0x0
	.dword	1                               # 0x1
	.dword	0                               # 0x0
	.dword	0                               # 0x0
	.text
	.hidden	_ZN9benchmark22RunSpecifiedBenchmarksEPNS_17BenchmarkReporterES1_NSt7__cxx1112basic_stringIcSt11char_traitsIcESaIcEEE
	.globl	_ZN9benchmark22RunSpecifiedBenchmarksEPNS_17BenchmarkReporterES1_NSt7__cxx1112basic_stringIcSt11char_traitsIcESaIcEEE
	.p2align	5
	.type	_ZN9benchmark22RunSpecifiedBenchmarksEPNS_17BenchmarkReporterES1_NSt7__cxx1112basic_stringIcSt11char_traitsIcESaIcEEE,@function
_ZN9benchmark22RunSpecifiedBenchmarksEPNS_17BenchmarkReporterES1_NSt7__cxx1112basic_stringIcSt11char_traitsIcESaIcEEE: # @_ZN9benchmark22RunSpecifiedBenchmarksEPNS_17BenchmarkReporterES1_NSt7__cxx1112basic_stringIcSt11char_traitsIcESaIcEEE
.Lfunc_begin11:
	.cfi_startproc
	.cfi_personality 155, DW.ref.__gxx_personality_v0
	.cfi_lsda 27, .Lexception11
# %bb.0:                                # %entry
	addi.d	$sp, $sp, -2032
	.cfi_def_cfa_offset 2032
	st.d	$ra, $sp, 2024                  # 8-byte Folded Spill
	st.d	$fp, $sp, 2016                  # 8-byte Folded Spill
	st.d	$s0, $sp, 2008                  # 8-byte Folded Spill
	st.d	$s1, $sp, 2000                  # 8-byte Folded Spill
	st.d	$s2, $sp, 1992                  # 8-byte Folded Spill
	st.d	$s3, $sp, 1984                  # 8-byte Folded Spill
	st.d	$s4, $sp, 1976                  # 8-byte Folded Spill
	st.d	$s5, $sp, 1968                  # 8-byte Folded Spill
	st.d	$s6, $sp, 1960                  # 8-byte Folded Spill
	st.d	$s7, $sp, 1952                  # 8-byte Folded Spill
	st.d	$s8, $sp, 1944                  # 8-byte Folded Spill
	.cfi_offset 1, -8
	.cfi_offset 22, -16
	.cfi_offset 23, -24
	.cfi_offset 24, -32
	.cfi_offset 25, -40
	.cfi_offset 26, -48
	.cfi_offset 27, -56
	.cfi_offset 28, -64
	.cfi_offset 29, -72
	.cfi_offset 30, -80
	.cfi_offset 31, -88
	lu12i.w	$a3, 2
	ori	$a3, $a3, 1248
	sub.d	$sp, $sp, $a3
	.cfi_def_cfa_offset 11472
	move	$s5, $a2
	ld.d	$fp, $a2, 8
	move	$s2, $a1
	move	$s3, $a0
	beqz	$fp, .LBB22_3
# %bb.1:                                # %lor.lhs.false
	ori	$a0, $zero, 3
	bne	$fp, $a0, .LBB22_4
# %bb.2:                                # %_ZSteqIcSt11char_traitsIcESaIcEEbRKNSt7__cxx1112basic_stringIT_T0_T1_EEPKS5_.exit
	ld.d	$a0, $s5, 0
	pcalau12i	$a1, %pc_hi20(.L.str.43)
	addi.d	$a1, $a1, %pc_lo12(.L.str.43)
	ori	$a2, $zero, 3
	pcaddu18i	$ra, %call36(bcmp)
	jirl	$ra, $ra, 0
	bnez	$a0, .LBB22_4
.LBB22_3:                               # %if.then
	pcalau12i	$a0, %pc_hi20(.L.str.44)
	addi.d	$a3, $a0, %pc_lo12(.L.str.44)
	ori	$a4, $zero, 1
	move	$a0, $s5
	move	$a1, $zero
	move	$a2, $fp
	pcaddu18i	$ra, %call36(_ZNSt7__cxx1112basic_stringIcSt11char_traitsIcESaIcEE10_M_replaceEmmPKcm)
	jirl	$ra, $ra, 0
.LBB22_4:                               # %if.end
	addi.d	$a0, $sp, 120
	pcaddu18i	$ra, %call36(_ZNSt14basic_ofstreamIcSt11char_traitsIcEEC1Ev)
	jirl	$ra, $ra, 0
	beqz	$s3, .LBB22_6
# %bb.5:
	move	$s4, $zero
	b	.LBB22_8
.LBB22_6:                               # %if.then3
	pcalau12i	$a0, %pc_hi20(_ZGVZN9benchmark28CreateDefaultDisplayReporterEvE24default_display_reporter)
	ld.b	$a0, $a0, %pc_lo12(_ZGVZN9benchmark28CreateDefaultDisplayReporterEvE24default_display_reporter)
	dbar	20
	pcalau12i	$fp, %pc_hi20(_ZZN9benchmark28CreateDefaultDisplayReporterEvE24default_display_reporter)
	beqz	$a0, .LBB22_221
.LBB22_7:                               # %_ZNSt10unique_ptrIN9benchmark17BenchmarkReporterESt14default_deleteIS1_EE5resetEPS1_.exit
	ld.d	$s4, $fp, %pc_lo12(_ZZN9benchmark28CreateDefaultDisplayReporterEvE24default_display_reporter)
	move	$s3, $s4
.LBB22_8:                               # %if.end6
	ld.d	$a0, $s3, 8
	st.d	$a0, $sp, 88                    # 8-byte Folded Spill
	ld.d	$a0, $s3, 16
	st.d	$a0, $sp, 80                    # 8-byte Folded Spill
	pcalau12i	$a0, %pc_hi20(_ZN9benchmark19FLAGS_benchmark_outB5cxx11E)
	addi.d	$fp, $a0, %pc_lo12(_ZN9benchmark19FLAGS_benchmark_outB5cxx11E)
	ld.d	$a0, $fp, 8
	beqz	$s2, .LBB22_10
# %bb.9:                                # %if.end6
	beqz	$a0, .LBB22_210
.LBB22_10:                              # %if.end25
	beqz	$a0, .LBB22_14
# %bb.11:                               # %if.then27
	ld.d	$a1, $fp, 0
	addi.d	$a0, $sp, 128
.Ltmp65:                                # EH_LABEL
	ori	$a2, $zero, 16
	pcaddu18i	$ra, %call36(_ZNSt13basic_filebufIcSt11char_traitsIcEE4openEPKcSt13_Ios_Openmode)
	jirl	$ra, $ra, 0
	move	$a1, $a0
.Ltmp66:                                # EH_LABEL
# %bb.12:                               # %call2.i.i.noexc
	ld.d	$a0, $sp, 120
	ld.d	$a0, $a0, -24
	addi.d	$a2, $sp, 120
	add.d	$a0, $a2, $a0
	beqz	$a1, .LBB22_15
# %bb.13:
	move	$a1, $zero
	b	.LBB22_16
.LBB22_14:
	st.d	$zero, $sp, 72                  # 8-byte Folded Spill
	b	.LBB22_23
.LBB22_15:                              # %if.then.i
	ld.w	$a1, $a0, 32
	ori	$a1, $a1, 4
.LBB22_16:                              # %if.end.i
.Ltmp67:                                # EH_LABEL
	pcaddu18i	$ra, %call36(_ZNSt9basic_iosIcSt11char_traitsIcEE5clearESt12_Ios_Iostate)
	jirl	$ra, $ra, 0
.Ltmp68:                                # EH_LABEL
# %bb.17:                               # %invoke.cont28
	addi.d	$a0, $sp, 232
	pcaddu18i	$ra, %call36(_ZNKSt12__basic_fileIcE7is_openEv)
	jirl	$ra, $ra, 0
	beqz	$a0, .LBB22_215
# %bb.18:                               # %if.end44
	beqz	$s2, .LBB22_20
# %bb.19:
	move	$a0, $zero
	b	.LBB22_22
.LBB22_20:                              # %if.then46
	pcalau12i	$a0, %pc_hi20(_ZN9benchmark32FLAGS_benchmark_counters_tabularE)
	ld.b	$a0, $a0, %pc_lo12(_ZN9benchmark32FLAGS_benchmark_counters_tabularE)
	slli.d	$a0, $a0, 1
.Ltmp81:                                # EH_LABEL
	andi	$a2, $a0, 2
	pcalau12i	$a0, %pc_hi20(_ZN9benchmark26FLAGS_benchmark_out_formatB5cxx11E)
	addi.d	$a1, $a0, %pc_lo12(_ZN9benchmark26FLAGS_benchmark_out_formatB5cxx11E)
	lu12i.w	$a0, 1
	ori	$a0, $a0, 1536
	add.d	$a0, $sp, $a0
	pcaddu18i	$ra, %call36(_ZN9benchmark8internal12_GLOBAL__N_114CreateReporterERKNSt7__cxx1112basic_stringIcSt11char_traitsIcESaIcEEENS_15ConsoleReporter13OutputOptionsE)
	jirl	$ra, $ra, 0
.Ltmp82:                                # EH_LABEL
# %bb.21:                               # %_ZNSt10unique_ptrIN9benchmark17BenchmarkReporterESt14default_deleteIS1_EED2Ev.exit
	lu12i.w	$a0, 1
	ori	$a0, $a0, 1536
	add.d	$a0, $sp, $a0
	ld.d	$a0, $a0, 0
	move	$s2, $a0
.LBB22_22:                              # %if.end51
	st.d	$a0, $sp, 72                    # 8-byte Folded Spill
	addi.d	$a0, $sp, 120
	st.d	$a0, $s2, 8
	st.d	$a0, $s2, 16
.LBB22_23:                              # %if.end54
	st.d	$zero, $sp, 112
	vrepli.b	$vr0, 0
	vst	$vr0, $sp, 48                   # 16-byte Folded Spill
	vst	$vr0, $sp, 96
.Ltmp84:                                # EH_LABEL
	addi.d	$a1, $sp, 96
	move	$a0, $s5
	ld.d	$a2, $sp, 80                    # 8-byte Folded Reload
	pcaddu18i	$ra, %call36(_ZN9benchmark8internal22FindBenchmarksInternalERKNSt7__cxx1112basic_stringIcSt11char_traitsIcESaIcEEEPSt6vectorINS0_17BenchmarkInstanceESaISA_EEPSo)
	jirl	$ra, $ra, 0
.Ltmp85:                                # EH_LABEL
# %bb.24:                               # %invoke.cont56
	beqz	$a0, .LBB22_37
# %bb.25:                               # %if.end63
	ld.d	$s6, $sp, 96
	ld.d	$fp, $sp, 104
	beq	$s6, $fp, .LBB22_34
# %bb.26:                               # %if.end76
	pcalau12i	$a0, %pc_hi20(_ZN9benchmark26FLAGS_benchmark_list_testsE)
	ld.bu	$a0, $a0, %pc_lo12(_ZN9benchmark26FLAGS_benchmark_list_testsE)
	ori	$a1, $zero, 1
	bne	$a0, $a1, .LBB22_44
# %bb.27:                               # %for.body.lr.ph
	lu12i.w	$a0, 1
	ori	$a0, $a0, 1552
	add.d	$s0, $sp, $a0
	pcalau12i	$a0, %pc_hi20(.L.str.49)
	addi.d	$s3, $a0, %pc_lo12(.L.str.49)
	b	.LBB22_29
	.p2align	4, , 16
.LBB22_28:                              # %_ZNSt7__cxx1112basic_stringIcSt11char_traitsIcESaIcEED2Ev.exit
                                        #   in Loop: Header=BB22_29 Depth=1
	addi.d	$s6, $s6, 424
	beq	$s6, $fp, .LBB22_198
.LBB22_29:                              # %for.body
                                        # =>This Inner Loop Header: Depth=1
.Ltmp209:                               # EH_LABEL
	lu12i.w	$a0, 1
	ori	$a0, $a0, 1536
	add.d	$a0, $sp, $a0
	move	$a1, $s6
	pcaddu18i	$ra, %call36(_ZNK9benchmark13BenchmarkName3strB5cxx11Ev)
	jirl	$ra, $ra, 0
.Ltmp210:                               # EH_LABEL
# %bb.30:                               # %invoke.cont89
                                        #   in Loop: Header=BB22_29 Depth=1
	lu12i.w	$a0, 1
	ori	$a0, $a0, 1536
	add.d	$a0, $sp, $a0
	ld.d	$a1, $a0, 0
	lu12i.w	$a0, 1
	ori	$a0, $a0, 1544
	add.d	$a0, $sp, $a0
	ld.d	$a2, $a0, 0
.Ltmp212:                               # EH_LABEL
	ld.d	$a0, $sp, 88                    # 8-byte Folded Reload
	pcaddu18i	$ra, %call36(_ZSt16__ostream_insertIcSt11char_traitsIcEERSt13basic_ostreamIT_T0_ES6_PKS3_l)
	jirl	$ra, $ra, 0
.Ltmp213:                               # EH_LABEL
# %bb.31:                               # %invoke.cont91
                                        #   in Loop: Header=BB22_29 Depth=1
.Ltmp214:                               # EH_LABEL
	ori	$a2, $zero, 1
	move	$a1, $s3
	pcaddu18i	$ra, %call36(_ZSt16__ostream_insertIcSt11char_traitsIcEERSt13basic_ostreamIT_T0_ES6_PKS3_l)
	jirl	$ra, $ra, 0
.Ltmp215:                               # EH_LABEL
# %bb.32:                               # %invoke.cont93
                                        #   in Loop: Header=BB22_29 Depth=1
	lu12i.w	$a0, 1
	ori	$a0, $a0, 1536
	add.d	$a0, $sp, $a0
	ld.d	$a0, $a0, 0
	beq	$a0, $s0, .LBB22_28
# %bb.33:                               # %if.then.i.i
                                        #   in Loop: Header=BB22_29 Depth=1
	lu12i.w	$a1, 1
	ori	$a1, $a1, 1552
	add.d	$a1, $sp, $a1
	ld.d	$a1, $a1, 0
	addi.d	$a1, $a1, 1
	pcaddu18i	$ra, %call36(_ZdlPvm)
	jirl	$ra, $ra, 0
	b	.LBB22_28
.LBB22_34:                              # %if.then65
.Ltmp221:                               # EH_LABEL
	pcalau12i	$a0, %pc_hi20(.L.str.48)
	addi.d	$a1, $a0, %pc_lo12(.L.str.48)
	ori	$a2, $zero, 46
	ld.d	$a0, $sp, 80                    # 8-byte Folded Reload
	pcaddu18i	$ra, %call36(_ZSt16__ostream_insertIcSt11char_traitsIcEERSt13basic_ostreamIT_T0_ES6_PKS3_l)
	jirl	$ra, $ra, 0
.Ltmp222:                               # EH_LABEL
# %bb.35:                               # %invoke.cont66
	ld.d	$a1, $s5, 0
	ld.d	$a2, $s5, 8
.Ltmp223:                               # EH_LABEL
	ld.d	$a0, $sp, 80                    # 8-byte Folded Reload
	pcaddu18i	$ra, %call36(_ZSt16__ostream_insertIcSt11char_traitsIcEERSt13basic_ostreamIT_T0_ES6_PKS3_l)
	jirl	$ra, $ra, 0
.Ltmp224:                               # EH_LABEL
# %bb.36:                               # %invoke.cont68
.Ltmp225:                               # EH_LABEL
	pcalau12i	$a1, %pc_hi20(.L.str.49)
	addi.d	$a1, $a1, %pc_lo12(.L.str.49)
	ori	$a2, $zero, 1
	pcaddu18i	$ra, %call36(_ZSt16__ostream_insertIcSt11char_traitsIcEERSt13basic_ostreamIT_T0_ES6_PKS3_l)
	jirl	$ra, $ra, 0
.Ltmp226:                               # EH_LABEL
.LBB22_37:                              # %if.then58.invoke
.Ltmp227:                               # EH_LABEL
	ld.d	$a0, $sp, 88                    # 8-byte Folded Reload
	pcaddu18i	$ra, %call36(_ZNSo5flushEv)
	jirl	$ra, $ra, 0
.Ltmp228:                               # EH_LABEL
# %bb.38:                               # %invoke.cont59.invoke
.Ltmp229:                               # EH_LABEL
	ld.d	$a0, $sp, 80                    # 8-byte Folded Reload
	pcaddu18i	$ra, %call36(_ZNSo5flushEv)
	jirl	$ra, $ra, 0
.Ltmp230:                               # EH_LABEL
# %bb.39:
	move	$s1, $zero
	ld.d	$a0, $sp, 96
	ld.d	$fp, $sp, 104
	beq	$a0, $fp, .LBB22_201
.LBB22_40:                              # %for.body.i.i107.preheader
	addi.d	$s2, $a0, 312
	.p2align	4, , 16
.LBB22_41:                              # %for.body.i.i107
                                        # =>This Inner Loop Header: Depth=1
	ld.d	$a1, $s2, 16
.Ltmp232:                               # EH_LABEL
	move	$a0, $s2
	pcaddu18i	$ra, %call36(_ZNSt8_Rb_treeINSt7__cxx1112basic_stringIcSt11char_traitsIcESaIcEEESt4pairIKS5_N9benchmark7CounterEESt10_Select1stISA_ESt4lessIS5_ESaISA_EE8_M_eraseEPSt13_Rb_tree_nodeISA_E)
	jirl	$ra, $ra, 0
.Ltmp233:                               # EH_LABEL
# %bb.42:                               # %_ZSt8_DestroyIN9benchmark8internal17BenchmarkInstanceEEvPT_.exit.i.i
                                        #   in Loop: Header=BB22_41 Depth=1
	addi.d	$a0, $s2, -312
	pcaddu18i	$ra, %call36(_ZN9benchmark13BenchmarkNameD2Ev)
	jirl	$ra, $ra, 0
	addi.d	$a0, $s2, 112
	addi.d	$s2, $s2, 424
	bne	$a0, $fp, .LBB22_41
# %bb.43:                               # %invoke.contthread-pre-split.i
	ld.d	$a0, $sp, 96
	bnez	$a0, .LBB22_202
	b	.LBB22_203
.LBB22_44:                              # %if.else
	st.d	$s4, $sp, 32                    # 8-byte Folded Spill
	pcalau12i	$a0, %pc_hi20(_ZGVZN9benchmark8internal18GetNullLogInstanceEvE8null_log)
	ld.b	$a0, $a0, %pc_lo12(_ZGVZN9benchmark8internal18GetNullLogInstanceEvE8null_log)
	dbar	20
	beqz	$a0, .LBB22_225
.LBB22_45:                              # %_ZN9benchmark8internal18GetNullLogInstanceEv.exit.i
	pcalau12i	$a0, %pc_hi20(_ZN9benchmark27FLAGS_benchmark_repetitionsE)
	ld.w	$a0, $a0, %pc_lo12(_ZN9benchmark27FLAGS_benchmark_repetitionsE)
	ld.d	$s5, $sp, 96
	ld.d	$s6, $sp, 104
	ori	$s1, $zero, 1
	slt	$fp, $s1, $a0
	st.d	$s2, $sp, 24                    # 8-byte Folded Spill
	st.d	$s3, $sp, 16                    # 8-byte Folded Spill
	beq	$s5, $s6, .LBB22_59
# %bb.46:                               # %for.body.lr.ph.i
	move	$s4, $zero
	ori	$s0, $zero, 10
	lu12i.w	$a0, 1
	ori	$a0, $a0, 1552
	add.d	$s7, $sp, $a0
	ori	$s8, $zero, 1
	lu12i.w	$a0, -349526
	ori	$a0, $a0, 2731
	lu32i.d	$a0, -349526
	lu52i.d	$s1, $a0, -1366
	ori	$s2, $zero, 336
	b	.LBB22_48
	.p2align	4, , 16
.LBB22_47:                              # %for.cond.cleanup24.i
                                        #   in Loop: Header=BB22_48 Depth=1
	sltu	$a1, $s3, $s0
	masknez	$a2, $s3, $a1
	maskeqz	$a1, $s0, $a1
	or	$s0, $a1, $a2
	slt	$a0, $s8, $a0
	addi.d	$s5, $s5, 424
	or	$fp, $fp, $a0
	beq	$s5, $s6, .LBB22_58
.LBB22_48:                              # %for.body.i
                                        # =>This Loop Header: Depth=1
                                        #     Child Loop BB22_55 Depth 2
                                        #     Child Loop BB22_57 Depth 2
.Ltmp86:                                # EH_LABEL
	lu12i.w	$a0, 1
	ori	$a0, $a0, 1536
	add.d	$a0, $sp, $a0
	move	$a1, $s5
	pcaddu18i	$ra, %call36(_ZNK9benchmark13BenchmarkName3strB5cxx11Ev)
	jirl	$ra, $ra, 0
.Ltmp87:                                # EH_LABEL
# %bb.49:                               # %.noexc102
                                        #   in Loop: Header=BB22_48 Depth=1
	lu12i.w	$a0, 1
	ori	$a0, $a0, 1536
	add.d	$a0, $sp, $a0
	ld.d	$a0, $a0, 0
	lu12i.w	$a1, 1
	ori	$a1, $a1, 1544
	add.d	$a1, $sp, $a1
	ld.d	$s3, $a1, 0
	beq	$a0, $s7, .LBB22_51
# %bb.50:                               # %if.then.i.i.i
                                        #   in Loop: Header=BB22_48 Depth=1
	lu12i.w	$a1, 1
	ori	$a1, $a1, 1552
	add.d	$a1, $sp, $a1
	ld.d	$a1, $a1, 0
	addi.d	$a1, $a1, 1
	pcaddu18i	$ra, %call36(_ZdlPvm)
	jirl	$ra, $ra, 0
.LBB22_51:                              # %_ZNSt7__cxx1112basic_stringIcSt11char_traitsIcESaIcEED2Ev.exit.i
                                        #   in Loop: Header=BB22_48 Depth=1
	ld.d	$a0, $s5, 360
	ld.d	$a5, $a0, 0
	ld.d	$a1, $a0, 8
	ld.w	$a0, $s5, 368
	beq	$a5, $a1, .LBB22_47
# %bb.52:                               # %for.body25.i.preheader
                                        #   in Loop: Header=BB22_48 Depth=1
	sub.d	$a2, $a1, $a5
	addi.d	$a2, $a2, -48
	bgeu	$a2, $s2, .LBB22_54
# %bb.53:                               #   in Loop: Header=BB22_48 Depth=1
	move	$a2, $a5
	b	.LBB22_57
	.p2align	4, , 16
.LBB22_54:                              # %vector.ph
                                        #   in Loop: Header=BB22_48 Depth=1
	mulh.du	$a2, $a2, $s1
	srli.d	$a2, $a2, 5
	addi.d	$a3, $a2, 1
	bstrpick.d	$a2, $a3, 59, 3
	slli.d	$a4, $a2, 3
	slli.d	$a6, $a2, 7
	slli.d	$a2, $a2, 8
	add.d	$a2, $a2, $a6
	add.d	$a2, $a5, $a2
	xvreplgr2vr.d	$xr0, $s4
	addi.d	$a5, $a5, 200
	move	$a6, $a4
	xvori.b	$xr1, $xr0, 0
	.p2align	4, , 16
.LBB22_55:                              # %vector.body
                                        #   Parent Loop BB22_48 Depth=1
                                        # =>  This Inner Loop Header: Depth=2
	ld.d	$a7, $a5, -96
	ld.d	$t0, $a5, -48
	ld.d	$t1, $a5, -192
	ld.d	$t2, $a5, -144
	vinsgr2vr.d	$vr2, $a7, 0
	vinsgr2vr.d	$vr2, $t0, 1
	vinsgr2vr.d	$vr3, $t1, 0
	vinsgr2vr.d	$vr3, $t2, 1
	xvpermi.q	$xr3, $xr2, 2
	ld.d	$a7, $a5, 96
	ld.d	$t0, $a5, 144
	ld.d	$t1, $a5, 0
	ld.d	$t2, $a5, 48
	vinsgr2vr.d	$vr2, $a7, 0
	vinsgr2vr.d	$vr2, $t0, 1
	vinsgr2vr.d	$vr4, $t1, 0
	vinsgr2vr.d	$vr4, $t2, 1
	xvpermi.q	$xr4, $xr2, 2
	xvmax.du	$xr0, $xr0, $xr3
	xvmax.du	$xr1, $xr1, $xr4
	addi.d	$a6, $a6, -8
	addi.d	$a5, $a5, 384
	bnez	$a6, .LBB22_55
# %bb.56:                               # %middle.block
                                        #   in Loop: Header=BB22_48 Depth=1
	pcalau12i	$a5, %pc_hi20(.LCPI22_0)
	xvld	$xr2, $a5, %pc_lo12(.LCPI22_0)
	xvmax.du	$xr0, $xr0, $xr1
	xvpermi.d	$xr1, $xr0, 78
	xvshuf.d	$xr2, $xr0, $xr1
	xvmax.du	$xr0, $xr0, $xr2
	xvpermi.d	$xr1, $xr0, 68
	xvrepl128vei.d	$xr1, $xr1, 1
	xvmax.du	$xr0, $xr0, $xr1
	xvpickve2gr.d	$s4, $xr0, 0
	beq	$a3, $a4, .LBB22_47
	.p2align	4, , 16
.LBB22_57:                              # %for.body25.i
                                        #   Parent Loop BB22_48 Depth=1
                                        # =>  This Inner Loop Header: Depth=2
	ld.d	$a3, $a2, 8
	sltu	$a4, $a3, $s4
	masknez	$a3, $a3, $a4
	maskeqz	$a4, $s4, $a4
	addi.d	$a2, $a2, 48
	or	$s4, $a4, $a3
	bne	$a2, $a1, .LBB22_57
	b	.LBB22_47
.LBB22_58:                              # %for.cond.cleanup.loopexit.i
	addi.d	$s1, $s4, 1
	ld.d	$s2, $sp, 24                    # 8-byte Folded Reload
	ld.d	$s3, $sp, 16                    # 8-byte Folded Reload
	b	.LBB22_60
.LBB22_59:
	ori	$s0, $zero, 10
.LBB22_60:                              # %for.cond.cleanup.i
.Ltmp89:                                # EH_LABEL
	lu12i.w	$a0, 2
	ori	$a0, $a0, 3160
	add.d	$a0, $sp, $a0
	ld.d	$s4, $sp, 32                    # 8-byte Folded Reload
	pcaddu18i	$ra, %call36(_ZN9benchmark17BenchmarkReporter7ContextC1Ev)
	jirl	$ra, $ra, 0
.Ltmp90:                                # EH_LABEL
# %bb.61:                               # %.noexc
	andi	$a0, $fp, 1
	maskeqz	$a0, $s1, $a0
	add.d	$a0, $a0, $s0
	lu12i.w	$a1, 2
	ori	$a1, $a1, 3176
	add.d	$a1, $sp, $a1
	st.d	$a0, $a1, 0
	lu12i.w	$a0, 2
	ori	$a0, $a0, 3120
	add.d	$a0, $sp, $a0
	lu12i.w	$a1, 2
	ori	$a1, $a1, 3120
	add.d	$a1, $sp, $a1
	st.w	$zero, $a1, 0
	lu12i.w	$a1, 2
	ori	$a1, $a1, 3128
	add.d	$a1, $sp, $a1
	st.d	$zero, $a1, 0
	lu12i.w	$a1, 2
	ori	$a1, $a1, 3136
	add.d	$a1, $sp, $a1
	st.d	$a0, $a1, 0
	lu12i.w	$a1, 2
	ori	$a1, $a1, 3144
	add.d	$a1, $sp, $a1
	st.d	$a0, $a1, 0
	lu12i.w	$a0, 2
	ori	$a0, $a0, 3152
	add.d	$a0, $sp, $a0
	st.d	$zero, $a0, 0
	ld.d	$a0, $s3, 0
	ld.d	$a2, $a0, 0
.Ltmp91:                                # EH_LABEL
	lu12i.w	$a0, 2
	ori	$a0, $a0, 3160
	add.d	$a1, $sp, $a0
	move	$a0, $s3
	jirl	$ra, $a2, 0
.Ltmp92:                                # EH_LABEL
# %bb.62:                               # %invoke.cont.i93
	beqz	$a0, .LBB22_189
# %bb.63:                               # %land.lhs.true.i
	beqz	$s2, .LBB22_66
# %bb.64:                               # %lor.lhs.false.i
	ld.d	$a0, $s2, 0
	ld.d	$a2, $a0, 0
.Ltmp93:                                # EH_LABEL
	lu12i.w	$a0, 2
	ori	$a0, $a0, 3160
	add.d	$a1, $sp, $a0
	move	$a0, $s2
	jirl	$ra, $a2, 0
.Ltmp94:                                # EH_LABEL
# %bb.65:                               # %invoke.cont41.i
	beqz	$a0, .LBB22_189
.LBB22_66:                              # %if.end.i.i94
	ld.d	$a0, $s3, 8
.Ltmp95:                                # EH_LABEL
	pcaddu18i	$ra, %call36(_ZNSo5flushEv)
	jirl	$ra, $ra, 0
.Ltmp96:                                # EH_LABEL
# %bb.67:                               # %call.i.i.noexc.i
	ld.d	$a0, $s3, 16
.Ltmp97:                                # EH_LABEL
	pcaddu18i	$ra, %call36(_ZNSo5flushEv)
	jirl	$ra, $ra, 0
.Ltmp98:                                # EH_LABEL
# %bb.68:                               # %invoke.cont44.i
	beqz	$s2, .LBB22_71
# %bb.69:                               # %if.end.i91.i
	ld.d	$a0, $s2, 8
.Ltmp99:                                # EH_LABEL
	pcaddu18i	$ra, %call36(_ZNSo5flushEv)
	jirl	$ra, $ra, 0
.Ltmp100:                               # EH_LABEL
# %bb.70:                               # %call.i.i.noexc94.i
	ld.d	$a0, $s2, 16
.Ltmp101:                               # EH_LABEL
	pcaddu18i	$ra, %call36(_ZNSo5flushEv)
	jirl	$ra, $ra, 0
.Ltmp102:                               # EH_LABEL
.LBB22_71:                              # %invoke.cont45.i
.Ltmp103:                               # EH_LABEL
	pcalau12i	$a0, %pc_hi20(_ZN9benchmark29FLAGS_benchmark_perf_countersB5cxx11E)
	addi.d	$a1, $a0, %pc_lo12(_ZN9benchmark29FLAGS_benchmark_perf_countersB5cxx11E)
	lu12i.w	$a0, 1
	ori	$a0, $a0, 1536
	add.d	$a0, $sp, $a0
	ori	$a2, $zero, 44
	pcaddu18i	$ra, %call36(_ZN9benchmark8StrSplitERKNSt7__cxx1112basic_stringIcSt11char_traitsIcESaIcEEEc)
	jirl	$ra, $ra, 0
.Ltmp104:                               # EH_LABEL
# %bb.72:                               # %invoke.cont48.i
.Ltmp106:                               # EH_LABEL
	lu12i.w	$a0, 2
	ori	$a0, $a0, 2472
	add.d	$a0, $sp, $a0
	lu12i.w	$a1, 1
	ori	$a1, $a1, 1536
	add.d	$a1, $sp, $a1
	pcaddu18i	$ra, %call36(_ZN9benchmark8internal23PerfCountersMeasurementC1ERKSt6vectorINSt7__cxx1112basic_stringIcSt11char_traitsIcESaIcEEESaIS8_EE)
	jirl	$ra, $ra, 0
.Ltmp107:                               # EH_LABEL
	lu12i.w	$a2, 2
	ori	$a2, $a2, 3120
	add.d	$s4, $sp, $a2
# %bb.73:                               # %invoke.cont50.i
	lu12i.w	$a0, 1
	ori	$a0, $a0, 1536
	add.d	$a0, $sp, $a0
	ld.d	$a0, $a0, 0
	lu12i.w	$a1, 1
	ori	$a1, $a1, 1544
	add.d	$a1, $sp, $a1
	ld.d	$fp, $a1, 0
	beq	$a0, $fp, .LBB22_79
# %bb.74:                               # %for.body.i.i.i.preheader
	addi.d	$s0, $a0, 16
	b	.LBB22_76
	.p2align	4, , 16
.LBB22_75:                              # %_ZSt8_DestroyINSt7__cxx1112basic_stringIcSt11char_traitsIcESaIcEEEEvPT_.exit.i.i.i
                                        #   in Loop: Header=BB22_76 Depth=1
	addi.d	$a0, $s0, 16
	addi.d	$s0, $s0, 32
	beq	$a0, $fp, .LBB22_78
.LBB22_76:                              # %for.body.i.i.i
                                        # =>This Inner Loop Header: Depth=1
	ld.d	$a0, $s0, -16
	beq	$s0, $a0, .LBB22_75
# %bb.77:                               # %if.then.i.i.i.i.i.i
                                        #   in Loop: Header=BB22_76 Depth=1
	ld.d	$a1, $s0, 0
	addi.d	$a1, $a1, 1
	pcaddu18i	$ra, %call36(_ZdlPvm)
	jirl	$ra, $ra, 0
	b	.LBB22_75
.LBB22_78:                              # %invoke.contthread-pre-split.i.i
	lu12i.w	$a0, 1
	ori	$a0, $a0, 1536
	add.d	$a0, $sp, $a0
	ld.d	$a0, $a0, 0
.LBB22_79:                              # %invoke.cont.i.i
	beqz	$a0, .LBB22_81
# %bb.80:                               # %if.then.i.i.i.i
	lu12i.w	$a1, 1
	ori	$a1, $a1, 1552
	add.d	$a1, $sp, $a1
	ld.d	$a1, $a1, 0
	sub.d	$a1, $a1, $a0
	pcaddu18i	$ra, %call36(_ZdlPvm)
	jirl	$ra, $ra, 0
.LBB22_81:                              # %_ZNSt6vectorINSt7__cxx1112basic_stringIcSt11char_traitsIcESaIcEEESaIS5_EED2Ev.exit.i
	ld.d	$a0, $sp, 104
	ld.d	$a1, $sp, 96
	lu12i.w	$a2, 2
	ori	$a2, $a2, 2464
	add.d	$a2, $sp, $a2
	st.d	$zero, $a2, 0
	vld	$vr0, $sp, 48                   # 16-byte Folded Reload
	lu12i.w	$a2, 2
	ori	$a2, $a2, 2448
	add.d	$a2, $sp, $a2
	vst	$vr0, $a2, 0
	sub.d	$a0, $a0, $a1
	srli.d	$a0, $a0, 3
	lu12i.w	$a1, -474827
	ori	$a1, $a1, 541
	lu32i.d	$a1, -19785
	lu52i.d	$a1, $a1, 540
	mul.d	$a1, $a0, $a1
.Ltmp109:                               # EH_LABEL
	lu12i.w	$a0, 2
	ori	$a0, $a0, 2448
	add.d	$a0, $sp, $a0
	pcaddu18i	$ra, %call36(_ZNSt6vectorIN9benchmark8internal15BenchmarkRunnerESaIS2_EE7reserveEm)
	jirl	$ra, $ra, 0
.Ltmp110:                               # EH_LABEL
# %bb.82:                               # %invoke.cont53.i
	ld.d	$s6, $sp, 96
	ld.d	$s0, $sp, 104
	beq	$s6, $s0, .LBB22_117
# %bb.83:                               # %for.body66.lr.ph.i
	move	$fp, $zero
	move	$s5, $zero
	lu12i.w	$a0, 2
	ori	$a0, $a0, 2472
	add.d	$s2, $sp, $a0
	pcalau12i	$a0, %pc_hi20(_ZSt19piecewise_construct)
	addi.d	$s7, $a0, %pc_lo12(_ZSt19piecewise_construct)
	ori	$s8, $zero, 16
	ori	$s1, $zero, 24
	b	.LBB22_86
	.p2align	4, , 16
.LBB22_84:                              # %if.then99.i
                                        #   in Loop: Header=BB22_86 Depth=1
	ld.w	$a2, $a1, 0
	add.d	$a2, $a2, $a0
	st.w	$a2, $a1, 0
.LBB22_85:                              # %if.end101.i
                                        #   in Loop: Header=BB22_86 Depth=1
	ori	$a1, $zero, 1
	slt	$a1, $a1, $s3
	add.w	$s5, $s5, $a1
	addi.d	$s6, $s6, 424
	add.d	$fp, $fp, $a0
	beq	$s6, $s0, .LBB22_100
.LBB22_86:                              # %for.body66.i
                                        # =>This Loop Header: Depth=1
                                        #     Child Loop BB22_89 Depth 2
	ld.w	$a0, $s6, 296
	st.d	$zero, $sp, 632
	beqz	$a0, .LBB22_94
# %bb.87:                               # %if.then73.i
                                        #   in Loop: Header=BB22_86 Depth=1
	ld.w	$a2, $s6, 264
	lu12i.w	$a0, 2
	ori	$a0, $a0, 3128
	add.d	$a0, $sp, $a0
	ld.d	$a3, $a0, 0
	lu12i.w	$a0, 2
	ori	$a0, $a0, 2444
	add.d	$a0, $sp, $a0
	st.w	$a2, $a0, 0
	move	$a1, $s4
	beqz	$a3, .LBB22_92
# %bb.88:                               # %while.body.i.i.i.i.i.preheader
                                        #   in Loop: Header=BB22_86 Depth=1
	move	$a0, $s4
	.p2align	4, , 16
.LBB22_89:                              # %while.body.i.i.i.i.i
                                        #   Parent Loop BB22_86 Depth=1
                                        # =>  This Inner Loop Header: Depth=2
	ld.w	$a1, $a3, 32
	slt	$a1, $a1, $a2
	masknez	$a4, $a3, $a1
	masknez	$a5, $s8, $a1
	maskeqz	$a6, $s1, $a1
	or	$a5, $a6, $a5
	ldx.d	$a3, $a3, $a5
	maskeqz	$a5, $a0, $a1
	or	$a0, $a5, $a4
	bnez	$a3, .LBB22_89
# %bb.90:                               # %_ZNSt3mapIiN9benchmark17BenchmarkReporter19PerFamilyRunReportsESt4lessIiESaISt4pairIKiS2_EEE11lower_boundERS6_.exit.i.i
                                        #   in Loop: Header=BB22_86 Depth=1
	move	$a1, $s4
	beq	$a0, $s4, .LBB22_92
# %bb.91:                               # %lor.rhs.i.i
                                        #   in Loop: Header=BB22_86 Depth=1
	or	$a1, $a5, $a4
	ld.w	$a3, $a1, 32
	move	$a1, $a0
	bge	$a2, $a3, .LBB22_93
.LBB22_92:                              # %if.then.i.i100
                                        #   in Loop: Header=BB22_86 Depth=1
	lu12i.w	$a0, 2
	ori	$a0, $a0, 2444
	add.d	$a0, $sp, $a0
	lu12i.w	$a2, 1
	ori	$a2, $a2, 1536
	add.d	$a2, $sp, $a2
	st.d	$a0, $a2, 0
.Ltmp112:                               # EH_LABEL
	lu12i.w	$a0, 2
	ori	$a0, $a0, 3112
	add.d	$a0, $sp, $a0
	lu12i.w	$a2, 1
	ori	$a2, $a2, 1536
	add.d	$a3, $sp, $a2
	lu12i.w	$a2, 2
	ori	$a2, $a2, 3191
	add.d	$a4, $sp, $a2
	move	$a2, $s7
	pcaddu18i	$ra, %call36(_ZNSt8_Rb_treeIiSt4pairIKiN9benchmark17BenchmarkReporter19PerFamilyRunReportsEESt10_Select1stIS5_ESt4lessIiESaIS5_EE22_M_emplace_hint_uniqueIJRKSt21piecewise_construct_tSt5tupleIJOiEESG_IJEEEEESt17_Rb_tree_iteratorIS5_ESt23_Rb_tree_const_iteratorIS5_EDpOT_)
	jirl	$ra, $ra, 0
.Ltmp113:                               # EH_LABEL
.LBB22_93:                              # %invoke.cont78.i
                                        #   in Loop: Header=BB22_86 Depth=1
	addi.d	$a3, $a0, 40
	st.d	$a3, $sp, 632
	b	.LBB22_95
	.p2align	4, , 16
.LBB22_94:                              #   in Loop: Header=BB22_86 Depth=1
	move	$a3, $zero
.LBB22_95:                              # %if.end81.i
                                        #   in Loop: Header=BB22_86 Depth=1
	lu12i.w	$a0, 2
	ori	$a0, $a0, 2456
	add.d	$a0, $sp, $a0
	ld.d	$a0, $a0, 0
	lu12i.w	$a1, 2
	ori	$a1, $a1, 2464
	add.d	$a1, $sp, $a1
	ld.d	$a1, $a1, 0
	ld.w	$s3, $s6, 400
	lu12i.w	$a2, 1
	ori	$a2, $a2, 1536
	add.d	$a2, $sp, $a2
	st.d	$s2, $a2, 0
	beq	$a0, $a1, .LBB22_98
# %bb.96:                               # %if.then.i108.i
                                        #   in Loop: Header=BB22_86 Depth=1
.Ltmp115:                               # EH_LABEL
	lu12i.w	$a1, 2
	ori	$a1, $a1, 2472
	add.d	$a2, $sp, $a1
	move	$a1, $s6
	pcaddu18i	$ra, %call36(_ZN9benchmark8internal15BenchmarkRunnerC1ERKNS0_17BenchmarkInstanceEPNS0_23PerfCountersMeasurementEPNS_17BenchmarkReporter19PerFamilyRunReportsE)
	jirl	$ra, $ra, 0
.Ltmp116:                               # EH_LABEL
# %bb.97:                               # %.noexc.i
                                        #   in Loop: Header=BB22_86 Depth=1
	lu12i.w	$a0, 2
	ori	$a0, $a0, 2456
	add.d	$a0, $sp, $a0
	ld.d	$a0, $a0, 0
	addi.d	$a0, $a0, 184
	lu12i.w	$a1, 2
	ori	$a1, $a1, 2456
	add.d	$a1, $sp, $a1
	st.d	$a0, $a1, 0
	ld.d	$a1, $sp, 632
	ld.w	$a0, $a0, -76
	bnez	$a1, .LBB22_84
	b	.LBB22_85
	.p2align	4, , 16
.LBB22_98:                              # %if.else.i.i
                                        #   in Loop: Header=BB22_86 Depth=1
.Ltmp117:                               # EH_LABEL
	lu12i.w	$a0, 2
	ori	$a0, $a0, 2448
	add.d	$a0, $sp, $a0
	lu12i.w	$a1, 1
	ori	$a1, $a1, 1536
	add.d	$a2, $sp, $a1
	addi.d	$a3, $sp, 632
	move	$a1, $s6
	pcaddu18i	$ra, %call36(_ZNSt6vectorIN9benchmark8internal15BenchmarkRunnerESaIS2_EE17_M_realloc_appendIJRKNS1_17BenchmarkInstanceEPNS1_23PerfCountersMeasurementERPNS0_17BenchmarkReporter19PerFamilyRunReportsEEEEvDpOT_)
	jirl	$ra, $ra, 0
.Ltmp118:                               # EH_LABEL
# %bb.99:                               # %if.else.i.invoke.cont89_crit_edge.i
                                        #   in Loop: Header=BB22_86 Depth=1
	lu12i.w	$a0, 2
	ori	$a0, $a0, 2456
	add.d	$a0, $sp, $a0
	ld.d	$a0, $a0, 0
	ld.d	$a1, $sp, 632
	ld.w	$a0, $a0, -76
	bnez	$a1, .LBB22_84
	b	.LBB22_85
.LBB22_100:                             # %for.cond.cleanup65.i
	beqz	$s5, .LBB22_113
# %bb.101:                              # %invoke.cont114.i
	lu12i.w	$a0, 2
	ori	$a0, $a0, 2528
	add.d	$a0, $sp, $a0
	ld.d	$a0, $a0, 0
	lu12i.w	$a1, 2
	ori	$a1, $a1, 2520
	add.d	$a1, $sp, $a1
	ld.d	$a1, $a1, 0
	beq	$a0, $a1, .LBB22_113
# %bb.102:                              # %if.then117.i
	pcalau12i	$a0, %pc_hi20(_ZGVZN9benchmark8internal19GetErrorLogInstanceEvE9error_log)
	ld.b	$a0, $a0, %pc_lo12(_ZGVZN9benchmark8internal19GetErrorLogInstanceEvE9error_log)
	dbar	20
	pcalau12i	$s0, %pc_hi20(_ZZN9benchmark8internal19GetErrorLogInstanceEvE9error_log)
	beqz	$a0, .LBB22_229
.LBB22_103:                             # %invoke.cont118.i
	ld.d	$a0, $s0, %pc_lo12(_ZZN9benchmark8internal19GetErrorLogInstanceEvE9error_log)
	beqz	$a0, .LBB22_113
# %bb.104:                              # %if.then.i118.i
.Ltmp120:                               # EH_LABEL
	pcalau12i	$a1, %pc_hi20(.L.str.69)
	addi.d	$a1, $a1, %pc_lo12(.L.str.69)
	ori	$a2, $zero, 24
	pcaddu18i	$ra, %call36(_ZSt16__ostream_insertIcSt11char_traitsIcEERSt13basic_ostreamIT_T0_ES6_PKS3_l)
	jirl	$ra, $ra, 0
.Ltmp121:                               # EH_LABEL
# %bb.105:                              # %invoke.cont120.i
	ld.d	$a0, $s0, %pc_lo12(_ZZN9benchmark8internal19GetErrorLogInstanceEvE9error_log)
	beqz	$a0, .LBB22_113
# %bb.106:                              # %if.then.i122.i
.Ltmp122:                               # EH_LABEL
	move	$a1, $s5
	pcaddu18i	$ra, %call36(_ZNSolsEi)
	jirl	$ra, $ra, 0
.Ltmp123:                               # EH_LABEL
# %bb.107:                              # %invoke.cont122.i
	ld.d	$a0, $s0, %pc_lo12(_ZZN9benchmark8internal19GetErrorLogInstanceEvE9error_log)
	beqz	$a0, .LBB22_113
# %bb.108:                              # %if.then.i126.i
.Ltmp124:                               # EH_LABEL
	pcalau12i	$a1, %pc_hi20(.L.str.70)
	addi.d	$a1, $a1, %pc_lo12(.L.str.70)
	ori	$a2, $zero, 29
	pcaddu18i	$ra, %call36(_ZSt16__ostream_insertIcSt11char_traitsIcEERSt13basic_ostreamIT_T0_ES6_PKS3_l)
	jirl	$ra, $ra, 0
.Ltmp125:                               # EH_LABEL
# %bb.109:                              # %invoke.cont128.i
	ld.d	$a0, $s0, %pc_lo12(_ZZN9benchmark8internal19GetErrorLogInstanceEvE9error_log)
	beqz	$a0, .LBB22_113
# %bb.110:                              # %if.then.i139.i
.Ltmp127:                               # EH_LABEL
	lu12i.w	$a1, 2
	ori	$a1, $a1, 2528
	add.d	$a1, $sp, $a1
	ld.d	$a1, $a1, 0
	lu12i.w	$a2, 2
	ori	$a2, $a2, 2520
	add.d	$a2, $sp, $a2
	ld.d	$a2, $a2, 0
	sub.d	$a1, $a1, $a2
	srai.d	$a1, $a1, 5
	pcaddu18i	$ra, %call36(_ZNSo9_M_insertImEERSoT_)
	jirl	$ra, $ra, 0
.Ltmp128:                               # EH_LABEL
# %bb.111:                              # %invoke.cont130.i
	ld.d	$a0, $s0, %pc_lo12(_ZZN9benchmark8internal19GetErrorLogInstanceEvE9error_log)
	beqz	$a0, .LBB22_113
# %bb.112:                              # %if.then.i144.i
.Ltmp129:                               # EH_LABEL
	pcalau12i	$a1, %pc_hi20(.L.str.71)
	addi.d	$a1, $a1, %pc_lo12(.L.str.71)
	ori	$a2, $zero, 106
	pcaddu18i	$ra, %call36(_ZSt16__ostream_insertIcSt11char_traitsIcEERSt13basic_ostreamIT_T0_ES6_PKS3_l)
	jirl	$ra, $ra, 0
.Ltmp130:                               # EH_LABEL
.LBB22_113:                             # %if.end135.i
	srli.d	$a0, $fp, 60
	bnez	$a0, .LBB22_227
# %bb.114:                              # %if.end.i150.i
	beqz	$fp, .LBB22_117
# %bb.115:                              # %_ZNSt12_Vector_baseImSaImEE11_M_allocateEm.exit.i.i
	slli.d	$a0, $fp, 3
.Ltmp132:                               # EH_LABEL
	pcaddu18i	$ra, %call36(_Znwm)
	jirl	$ra, $ra, 0
.Ltmp133:                               # EH_LABEL
# %bb.116:                              # %_ZNSt12_Vector_baseImSaImEE13_M_deallocateEPmm.exit.i.i
	move	$s7, $a0
	alsl.d	$fp, $fp, $a0, 3
	b	.LBB22_118
.LBB22_117:
	move	$s7, $zero
	move	$fp, $zero
.LBB22_118:                             # %invoke.cont137.i
	lu12i.w	$a0, 2
	ori	$a0, $a0, 2456
	add.d	$a0, $sp, $a0
	ld.d	$a0, $a0, 0
	lu12i.w	$a1, 2
	ori	$a1, $a1, 2448
	add.d	$a1, $sp, $a1
	ld.d	$a1, $a1, 0
	beq	$a0, $a1, .LBB22_133
# %bb.119:                              # %invoke.cont145.i.preheader
	move	$s0, $zero
	sub.d	$a0, $a0, $a1
	srli.d	$a0, $a0, 3
	lu12i.w	$a1, -91181
	ori	$a1, $a1, 1959
	lu32i.d	$a1, -364723
	lu52i.d	$a1, $a1, -713
	mul.d	$a0, $a0, $a1
	st.d	$a0, $sp, 40                    # 8-byte Folded Spill
	ori	$s3, $zero, 1
	addi.w	$a0, $zero, -8
	lu52i.d	$s8, $a0, 2047
	addi.w	$a0, $zero, -1
	lu52i.d	$s2, $a0, 255
	move	$s6, $s7
	b	.LBB22_122
	.p2align	4, , 16
.LBB22_120:                             #   in Loop: Header=BB22_122 Depth=1
	move	$s5, $s7
.LBB22_121:                             # %invoke.cont152.i
                                        #   in Loop: Header=BB22_122 Depth=1
	addi.d	$s0, $s0, 1
	move	$s7, $s5
	ld.d	$a0, $sp, 40                    # 8-byte Folded Reload
	beq	$s0, $a0, .LBB22_134
.LBB22_122:                             # %invoke.cont145.i
                                        # =>This Loop Header: Depth=1
                                        #     Child Loop BB22_125 Depth 2
	lu12i.w	$a0, 2
	ori	$a0, $a0, 2448
	add.d	$a0, $sp, $a0
	ld.d	$a0, $a0, 0
	ori	$a1, $zero, 184
	mul.d	$a1, $s0, $a1
	add.d	$a0, $a0, $a1
	ld.w	$a0, $a0, 108
	blt	$a0, $s3, .LBB22_120
# %bb.123:                              # %for.body.i.i.preheader
                                        #   in Loop: Header=BB22_122 Depth=1
	addi.d	$s4, $a0, 1
	b	.LBB22_125
	.p2align	4, , 16
.LBB22_124:                             # %if.then.i.i.i173.i
                                        #   in Loop: Header=BB22_125 Depth=2
	st.d	$s0, $s6, 0
	move	$s5, $s7
	addi.w	$s4, $s4, -1
	addi.d	$s6, $s6, 8
	bge	$s3, $s4, .LBB22_121
.LBB22_125:                             # %for.body.i.i
                                        #   Parent Loop BB22_122 Depth=1
                                        # =>  This Inner Loop Header: Depth=2
	bne	$s6, $fp, .LBB22_124
# %bb.126:                              # %if.else.i.i.i.i
                                        #   in Loop: Header=BB22_125 Depth=2
	sub.d	$s6, $fp, $s7
	beq	$s6, $s8, .LBB22_208
# %bb.127:                              # %_ZNKSt6vectorImSaImEE12_M_check_lenEmPKc.exit.i.i.i.i.i
                                        #   in Loop: Header=BB22_125 Depth=2
	srai.d	$a0, $s6, 3
	sltu	$a1, $s3, $a0
	masknez	$a2, $s3, $a1
	maskeqz	$a1, $a0, $a1
	or	$a1, $a1, $a2
	add.d	$a0, $a1, $a0
	sltu	$a1, $a0, $s2
	maskeqz	$a0, $a0, $a1
	masknez	$a1, $s2, $a1
	or	$s1, $a0, $a1
	slli.d	$a0, $s1, 3
.Ltmp137:                               # EH_LABEL
	pcaddu18i	$ra, %call36(_Znwm)
	jirl	$ra, $ra, 0
.Ltmp138:                               # EH_LABEL
# %bb.128:                              # %call5.i.i.i.i.i.i.noexc.i
                                        #   in Loop: Header=BB22_125 Depth=2
	move	$s5, $a0
	stx.d	$s0, $a0, $s6
	blt	$s6, $s3, .LBB22_130
# %bb.129:                              # %if.then.i.i.i.i.i.i.i.i
                                        #   in Loop: Header=BB22_125 Depth=2
	move	$a0, $s5
	move	$a1, $s7
	move	$a2, $s6
	pcaddu18i	$ra, %call36(memcpy)
	jirl	$ra, $ra, 0
.LBB22_130:                             # %_ZNSt6vectorImSaImEE11_S_relocateEPmS2_S2_RS0_.exit.i.i.i.i.i
                                        #   in Loop: Header=BB22_125 Depth=2
	beqz	$s7, .LBB22_132
# %bb.131:                              # %_ZNSt12_Vector_baseImSaImEE13_M_deallocateEPmm.exit.i.i.i.i.i.i
                                        #   in Loop: Header=BB22_125 Depth=2
	move	$a0, $s7
	move	$a1, $s6
	pcaddu18i	$ra, %call36(_ZdlPvm)
	jirl	$ra, $ra, 0
.LBB22_132:                             # %_ZNSt6vectorImSaImEE17_M_realloc_appendIJRKmEEEvDpOT_.exit.i.i.i.i
                                        #   in Loop: Header=BB22_125 Depth=2
	add.d	$s6, $s5, $s6
	alsl.d	$fp, $s1, $s5, 3
	move	$s7, $s5
	addi.w	$s4, $s4, -1
	addi.d	$s6, $s6, 8
	blt	$s3, $s4, .LBB22_125
	b	.LBB22_121
.LBB22_133:
	move	$s5, $s7
	move	$s6, $s7
.LBB22_134:                             # %for.cond.cleanup141.i
	pcalau12i	$a0, %pc_hi20(_ZN9benchmark42FLAGS_benchmark_enable_random_interleavingE)
	ld.bu	$a0, $a0, %pc_lo12(_ZN9benchmark42FLAGS_benchmark_enable_random_interleavingE)
	ld.d	$s4, $sp, 32                    # 8-byte Folded Reload
	ld.d	$s2, $sp, 24                    # 8-byte Folded Reload
	ld.d	$s3, $sp, 16                    # 8-byte Folded Reload
	beqz	$a0, .LBB22_143
# %bb.135:                              # %if.then162.i
	pcalau12i	$a0, %pc_hi20(.L.str.73)
	addi.d	$a0, $a0, %pc_lo12(.L.str.73)
	ld.w	$a1, $a0, 0
	ld.w	$a0, $a0, 3
	addi.d	$s0, $sp, 648
	st.d	$s0, $sp, 632
	st.w	$a1, $sp, 648
	st.w	$a0, $sp, 651
	ori	$a0, $zero, 7
	st.d	$a0, $sp, 640
	st.b	$zero, $sp, 655
.Ltmp143:                               # EH_LABEL
	lu12i.w	$a0, 1
	ori	$a0, $a0, 1536
	add.d	$a0, $sp, $a0
	addi.d	$a1, $sp, 632
	pcaddu18i	$ra, %call36(_ZNSt13random_device7_M_initERKNSt7__cxx1112basic_stringIcSt11char_traitsIcESaIcEEE)
	jirl	$ra, $ra, 0
.Ltmp144:                               # EH_LABEL
# %bb.136:                              # %invoke.cont4.i.i
	ld.d	$a0, $sp, 632
	beq	$a0, $s0, .LBB22_138
# %bb.137:                              # %if.then.i.i3.i.i
	ld.d	$a1, $sp, 648
	addi.d	$a1, $a1, 1
	pcaddu18i	$ra, %call36(_ZdlPvm)
	jirl	$ra, $ra, 0
.LBB22_138:                             # %invoke.cont164.i
.Ltmp146:                               # EH_LABEL
	lu12i.w	$a0, 1
	ori	$a0, $a0, 1536
	add.d	$a0, $sp, $a0
	pcaddu18i	$ra, %call36(_ZNSt13random_device9_M_getvalEv)
	jirl	$ra, $ra, 0
.Ltmp147:                               # EH_LABEL
# %bb.139:                              # %invoke.cont166.i
	bstrpick.d	$a2, $a0, 31, 0
	st.d	$a2, $sp, 632
	ori	$a0, $zero, 1
	ori	$a1, $zero, 8
	lu12i.w	$a3, 442488
	ori	$a3, $a3, 2405
	addi.d	$a4, $sp, 632
	ori	$a5, $zero, 624
	.p2align	4, , 16
.LBB22_140:                             # %for.body.i.i183.i
                                        # =>This Inner Loop Header: Depth=1
	srli.d	$a6, $a2, 30
	xor	$a2, $a6, $a2
	mul.d	$a2, $a2, $a3
	add.d	$a2, $a0, $a2
	bstrpick.d	$a2, $a2, 31, 0
	stx.d	$a2, $a1, $a4
	addi.d	$a0, $a0, 1
	addi.d	$a1, $a1, 8
	bne	$a0, $a5, .LBB22_140
# %bb.141:                              # %invoke.cont169.i
	ori	$a0, $zero, 624
	lu12i.w	$a1, 1
	ori	$a1, $a1, 1528
	add.d	$a1, $sp, $a1
	stptr.d	$a0, $a1, 0
.Ltmp148:                               # EH_LABEL
	addi.d	$a2, $sp, 632
	move	$a0, $s5
	move	$a1, $s6
	pcaddu18i	$ra, %call36(_ZSt7shuffleIN9__gnu_cxx17__normal_iteratorIPmSt6vectorImSaImEEEERSt23mersenne_twister_engineImLm32ELm624ELm397ELm31ELm2567483615ELm11ELm4294967295ELm7ELm2636928640ELm15ELm4022730752ELm18ELm1812433253EEEvT_SA_OT0_)
	jirl	$ra, $ra, 0
.Ltmp149:                               # EH_LABEL
# %bb.142:                              # %invoke.cont182.i
.Ltmp154:                               # EH_LABEL
	lu12i.w	$a0, 1
	ori	$a0, $a0, 1536
	add.d	$a0, $sp, $a0
	pcaddu18i	$ra, %call36(_ZNSt13random_device7_M_finiEv)
	jirl	$ra, $ra, 0
.Ltmp155:                               # EH_LABEL
.LBB22_143:                             # %if.end186.i
	beq	$s5, $s6, .LBB22_186
# %bb.144:                              # %for.body199.lr.ph.i
	ori	$s1, $zero, 184
	ori	$s0, $zero, 16
	move	$s7, $s5
	b	.LBB22_146
	.p2align	4, , 16
.LBB22_145:                             # %cleanup.i
                                        #   in Loop: Header=BB22_146 Depth=1
	addi.d	$s7, $s7, 8
	beq	$s7, $s6, .LBB22_186
.LBB22_146:                             # %for.body199.i
                                        # =>This Loop Header: Depth=1
                                        #     Child Loop BB22_160 Depth 2
                                        #     Child Loop BB22_164 Depth 2
                                        #     Child Loop BB22_166 Depth 2
	ld.d	$a0, $s7, 0
	lu12i.w	$a1, 2
	ori	$a1, $a1, 2448
	add.d	$a1, $sp, $a1
	ld.d	$a1, $a1, 0
	mul.d	$a0, $a0, $s1
	add.d	$s8, $a1, $a0
.Ltmp157:                               # EH_LABEL
	move	$a0, $s8
	pcaddu18i	$ra, %call36(_ZN9benchmark8internal15BenchmarkRunner15DoOneRepetitionEv)
	jirl	$ra, $ra, 0
.Ltmp158:                               # EH_LABEL
# %bb.147:                              # %invoke.cont204.i
                                        #   in Loop: Header=BB22_146 Depth=1
	ld.w	$a0, $s8, 108
	ld.w	$a1, $s8, 116
	bne	$a0, $a1, .LBB22_145
# %bb.148:                              # %if.end208.i
                                        #   in Loop: Header=BB22_146 Depth=1
	ld.d	$a0, $s3, 0
	fld.d	$fa0, $s8, 88
	ld.bu	$a1, $s8, 112
	ld.d	$a2, $s8, 168
	ld.d	$a3, $a0, 8
.Ltmp159:                               # EH_LABEL
	move	$a0, $s3
	jirl	$ra, $a3, 0
.Ltmp160:                               # EH_LABEL
# %bb.149:                              # %invoke.cont217.i
                                        #   in Loop: Header=BB22_146 Depth=1
	beqz	$s2, .LBB22_151
# %bb.150:                              # %if.then219.i
                                        #   in Loop: Header=BB22_146 Depth=1
	ld.d	$a0, $s2, 0
	fld.d	$fa0, $s8, 88
	ld.bu	$a1, $s8, 112
	ld.d	$a2, $s8, 168
	ld.d	$a3, $a0, 8
.Ltmp161:                               # EH_LABEL
	move	$a0, $s2
	jirl	$ra, $a3, 0
.Ltmp162:                               # EH_LABEL
.LBB22_151:                             # %if.end229.i
                                        #   in Loop: Header=BB22_146 Depth=1
.Ltmp164:                               # EH_LABEL
	move	$a0, $s8
	pcaddu18i	$ra, %call36(_ZN9benchmark8internal15BenchmarkRunner10GetResultsEv)
	jirl	$ra, $ra, 0
.Ltmp165:                               # EH_LABEL
# %bb.152:                              # %invoke.cont231.i
                                        #   in Loop: Header=BB22_146 Depth=1
	vld	$vr0, $a0, 0
	ld.d	$a1, $a0, 16
	lu12i.w	$a2, 1
	ori	$a2, $a2, 1536
	add.d	$a2, $sp, $a2
	vst	$vr0, $a2, 0
	lu12i.w	$a2, 1
	ori	$a2, $a2, 1552
	add.d	$a2, $sp, $a2
	st.d	$a1, $a2, 0
	ld.d	$a1, $a0, 40
	st.d	$zero, $a0, 16
	vld	$vr0, $a0, 24
	vld	$vr1, $sp, 48                   # 16-byte Folded Reload
	vst	$vr1, $a0, 0
	lu12i.w	$a2, 1
	ori	$a2, $a2, 1576
	add.d	$a2, $sp, $a2
	st.d	$a1, $a2, 0
	ld.hu	$a1, $a0, 48
	lu12i.w	$a2, 1
	ori	$a2, $a2, 1560
	add.d	$a2, $sp, $a2
	vst	$vr0, $a2, 0
	st.d	$zero, $a0, 40
	vst	$vr1, $a0, 24
	lu12i.w	$a0, 1
	ori	$a0, $a0, 1584
	add.d	$a0, $sp, $a0
	st.h	$a1, $a0, 0
	ld.d	$a0, $s8, 64
	ori	$s1, $zero, 24
	beqz	$a0, .LBB22_167
# %bb.153:                              # %if.then238.i
                                        #   in Loop: Header=BB22_146 Depth=1
	ld.w	$a2, $a0, 4
	ld.w	$a3, $a0, 0
	bne	$a2, $a3, .LBB22_167
# %bb.154:                              # %if.then241.i
                                        #   in Loop: Header=BB22_146 Depth=1
	addi.d	$s8, $a0, 8
.Ltmp167:                               # EH_LABEL
	addi.d	$a0, $sp, 632
	move	$a1, $s8
	pcaddu18i	$ra, %call36(_ZN9benchmark11ComputeBigOERKSt6vectorINS_17BenchmarkReporter3RunESaIS2_EE)
	jirl	$ra, $ra, 0
.Ltmp168:                               # EH_LABEL
# %bb.155:                              # %invoke.cont243.i
                                        #   in Loop: Header=BB22_146 Depth=1
	lu12i.w	$a0, 1
	ori	$a0, $a0, 1568
	add.d	$a0, $sp, $a0
	ld.d	$a1, $a0, 0
	ld.d	$a2, $sp, 632
	ld.d	$a3, $sp, 640
.Ltmp170:                               # EH_LABEL
	lu12i.w	$a0, 1
	ori	$a0, $a0, 1560
	add.d	$a0, $sp, $a0
	move	$a4, $zero
	pcaddu18i	$ra, %call36(_ZNSt6vectorIN9benchmark17BenchmarkReporter3RunESaIS2_EE15_M_range_insertIN9__gnu_cxx17__normal_iteratorIPS2_S4_EEEEvS9_T_SA_St20forward_iterator_tag)
	jirl	$ra, $ra, 0
.Ltmp171:                               # EH_LABEL
# %bb.156:                              # %invoke.cont265.i
                                        #   in Loop: Header=BB22_146 Depth=1
	lu12i.w	$a0, 2
	ori	$a0, $a0, 3128
	add.d	$a0, $sp, $a0
	ld.d	$a3, $a0, 0
	lu12i.w	$a0, 2
	ori	$a0, $a0, 3120
	add.d	$a1, $sp, $a0
	beqz	$a3, .LBB22_168
# %bb.157:                              # %while.body.i.i.i.i.preheader
                                        #   in Loop: Header=BB22_146 Depth=1
	ld.d	$a0, $s8, 0
	ld.w	$a0, $a0, 256
	lu12i.w	$a1, 2
	ori	$a1, $a1, 3120
	add.d	$a2, $sp, $a1
	b	.LBB22_160
	.p2align	4, , 16
.LBB22_158:                             #   in Loop: Header=BB22_160 Depth=2
	move	$a1, $a2
.LBB22_159:                             # %if.end17.i.i.i.i
                                        #   in Loop: Header=BB22_160 Depth=2
	ldx.d	$a3, $a3, $a4
	move	$a2, $a1
	beqz	$a3, .LBB22_168
.LBB22_160:                             # %while.body.i.i.i.i
                                        #   Parent Loop BB22_146 Depth=1
                                        # =>  This Inner Loop Header: Depth=2
	ld.w	$a5, $a3, 32
	ori	$a4, $zero, 24
	blt	$a5, $a0, .LBB22_158
# %bb.161:                              # %if.else.i.i.i218.i
                                        #   in Loop: Header=BB22_160 Depth=2
	ori	$a4, $zero, 16
	move	$a1, $a3
	blt	$a0, $a5, .LBB22_159
# %bb.162:                              # %if.else11.i.i.i.i
                                        #   in Loop: Header=BB22_146 Depth=1
	ld.d	$a4, $a3, 16
	move	$a1, $a3
	beqz	$a4, .LBB22_165
# %bb.163:                              # %while.body.i.i.i.i220.i.preheader
                                        #   in Loop: Header=BB22_146 Depth=1
	move	$a1, $a3
	.p2align	4, , 16
.LBB22_164:                             # %while.body.i.i.i.i220.i
                                        #   Parent Loop BB22_146 Depth=1
                                        # =>  This Inner Loop Header: Depth=2
	ld.w	$a5, $a4, 32
	slt	$a5, $a5, $a0
	masknez	$a6, $a4, $a5
	masknez	$a7, $s0, $a5
	maskeqz	$t0, $s1, $a5
	or	$a7, $t0, $a7
	ldx.d	$a4, $a4, $a7
	maskeqz	$a1, $a1, $a5
	or	$a1, $a1, $a6
	bnez	$a4, .LBB22_164
.LBB22_165:                             # %_ZNKSt8_Rb_treeIiSt4pairIKiN9benchmark17BenchmarkReporter19PerFamilyRunReportsEESt10_Select1stIS5_ESt4lessIiESaIS5_EE14_M_lower_boundEPSt18_Rb_tree_node_baseSD_RS1_.exit.i.i.i.i
                                        #   in Loop: Header=BB22_146 Depth=1
	ld.d	$a3, $a3, 24
	lu12i.w	$a4, 1
	ori	$a4, $a4, 1560
	add.d	$s8, $sp, $a4
	beqz	$a3, .LBB22_169
	.p2align	4, , 16
.LBB22_166:                             # %while.body.i23.i.i.i.i
                                        #   Parent Loop BB22_146 Depth=1
                                        # =>  This Inner Loop Header: Depth=2
	ld.w	$a4, $a3, 32
	slt	$a4, $a0, $a4
	maskeqz	$a5, $a3, $a4
	masknez	$a6, $s1, $a4
	maskeqz	$a7, $s0, $a4
	or	$a6, $a7, $a6
	ldx.d	$a3, $a3, $a6
	masknez	$a2, $a2, $a4
	or	$a2, $a5, $a2
	bnez	$a3, .LBB22_166
	b	.LBB22_169
	.p2align	4, , 16
.LBB22_167:                             #   in Loop: Header=BB22_146 Depth=1
	lu12i.w	$a0, 1
	ori	$a0, $a0, 1560
	add.d	$s8, $sp, $a0
	andi	$a0, $a1, 1
	bnez	$a0, .LBB22_171
	b	.LBB22_172
.LBB22_168:                             # %while.end.i.i.i.i
                                        #   in Loop: Header=BB22_146 Depth=1
	move	$a2, $a1
	lu12i.w	$a0, 1
	ori	$a0, $a0, 1560
	add.d	$s8, $sp, $a0
.LBB22_169:                             # %_ZNSt8_Rb_treeIiSt4pairIKiN9benchmark17BenchmarkReporter19PerFamilyRunReportsEESt10_Select1stIS5_ESt4lessIiESaIS5_EE5eraseERS1_.exit.i.i
                                        #   in Loop: Header=BB22_146 Depth=1
.Ltmp173:                               # EH_LABEL
	lu12i.w	$a0, 2
	ori	$a0, $a0, 3112
	add.d	$a0, $sp, $a0
	pcaddu18i	$ra, %call36(_ZNSt8_Rb_treeIiSt4pairIKiN9benchmark17BenchmarkReporter19PerFamilyRunReportsEESt10_Select1stIS5_ESt4lessIiESaIS5_EE12_M_erase_auxESt23_Rb_tree_const_iteratorIS5_ESD_)
	jirl	$ra, $ra, 0
.Ltmp174:                               # EH_LABEL
# %bb.170:                              # %invoke.cont276.i
                                        #   in Loop: Header=BB22_146 Depth=1
	addi.d	$a0, $sp, 632
	pcaddu18i	$ra, %call36(_ZNSt6vectorIN9benchmark17BenchmarkReporter3RunESaIS2_EED2Ev)
	jirl	$ra, $ra, 0
	lu12i.w	$a0, 1
	ori	$a0, $a0, 1584
	add.d	$a0, $sp, $a0
	ld.b	$a1, $a0, 0
	andi	$a0, $a1, 1
	beqz	$a0, .LBB22_172
.LBB22_171:                             # %if.end282.i
                                        #   in Loop: Header=BB22_146 Depth=1
	lu12i.w	$a0, 1
	ori	$a0, $a0, 1560
	add.d	$a0, $sp, $a0
	ld.d	$a0, $a0, 0
	lu12i.w	$a1, 1
	ori	$a1, $a1, 1568
	add.d	$a1, $sp, $a1
	ld.d	$a1, $a1, 0
	bne	$a0, $a1, .LBB22_174
.LBB22_172:                             # %if.end.i.i.i
                                        #   in Loop: Header=BB22_146 Depth=1
	ld.d	$a0, $s3, 0
	ld.d	$a2, $a0, 16
.Ltmp176:                               # EH_LABEL
	lu12i.w	$a0, 1
	ori	$a0, $a0, 1536
	add.d	$a1, $sp, $a0
	move	$a0, $s3
	jirl	$ra, $a2, 0
.Ltmp177:                               # EH_LABEL
# %bb.173:                              # %.noexc239.i
                                        #   in Loop: Header=BB22_146 Depth=1
	lu12i.w	$a0, 1
	ori	$a0, $a0, 1560
	add.d	$a0, $sp, $a0
	ld.d	$a0, $a0, 0
	lu12i.w	$a1, 1
	ori	$a1, $a1, 1568
	add.d	$a1, $sp, $a1
	ld.d	$a1, $a1, 0
	beq	$a0, $a1, .LBB22_175
.LBB22_174:                             # %if.then8.i.i.i
                                        #   in Loop: Header=BB22_146 Depth=1
	ld.d	$a0, $s3, 0
	ld.d	$a2, $a0, 16
.Ltmp178:                               # EH_LABEL
	move	$a0, $s3
	move	$a1, $s8
	jirl	$ra, $a2, 0
.Ltmp179:                               # EH_LABEL
.LBB22_175:                             # %"_ZZN9benchmark8internal12_GLOBAL__N_16ReportEPNS_17BenchmarkReporterES3_RKNS0_10RunResultsEENK3$_0clES3_bS6_.exit.i.i"
                                        #   in Loop: Header=BB22_146 Depth=1
	move	$s1, $s3
	beqz	$s2, .LBB22_183
# %bb.176:                              # %if.then.i236.i
                                        #   in Loop: Header=BB22_146 Depth=1
	lu12i.w	$a0, 1
	ori	$a0, $a0, 1560
	add.d	$a0, $sp, $a0
	ld.d	$a0, $a0, 0
	lu12i.w	$a1, 1
	ori	$a1, $a1, 1568
	add.d	$a1, $sp, $a1
	ld.d	$a1, $a1, 0
	beq	$a0, $a1, .LBB22_178
# %bb.177:                              # %if.then.i236.i
                                        #   in Loop: Header=BB22_146 Depth=1
	lu12i.w	$a0, 1
	ori	$a0, $a0, 1585
	add.d	$a0, $sp, $a0
	ld.b	$a0, $a0, 0
	andi	$a0, $a0, 1
	bnez	$a0, .LBB22_180
.LBB22_178:                             # %if.end.i12.i.i
                                        #   in Loop: Header=BB22_146 Depth=1
	ld.d	$a0, $s2, 0
	ld.d	$a2, $a0, 16
.Ltmp180:                               # EH_LABEL
	lu12i.w	$a0, 1
	ori	$a0, $a0, 1536
	add.d	$a1, $sp, $a0
	move	$a0, $s2
	jirl	$ra, $a2, 0
.Ltmp181:                               # EH_LABEL
# %bb.179:                              # %.noexc241.i
                                        #   in Loop: Header=BB22_146 Depth=1
	lu12i.w	$a0, 1
	ori	$a0, $a0, 1560
	add.d	$a0, $sp, $a0
	ld.d	$a0, $a0, 0
	lu12i.w	$a1, 1
	ori	$a1, $a1, 1568
	add.d	$a1, $sp, $a1
	ld.d	$a1, $a1, 0
	beq	$a0, $a1, .LBB22_181
.LBB22_180:                             # %if.then8.i17.i.i
                                        #   in Loop: Header=BB22_146 Depth=1
	ld.d	$a0, $s2, 0
	ld.d	$a2, $a0, 16
.Ltmp182:                               # EH_LABEL
	move	$a0, $s2
	move	$a1, $s8
	jirl	$ra, $a2, 0
.Ltmp183:                               # EH_LABEL
.LBB22_181:                             # %_ZN9benchmark8internal12_GLOBAL__N_112FlushStreamsEPNS_17BenchmarkReporterE.exit34.i.i
                                        #   in Loop: Header=BB22_146 Depth=1
	ld.d	$a0, $s3, 8
.Ltmp184:                               # EH_LABEL
	pcaddu18i	$ra, %call36(_ZNSo5flushEv)
	jirl	$ra, $ra, 0
.Ltmp185:                               # EH_LABEL
# %bb.182:                              # %call.i.i24.i.noexc.i
                                        #   in Loop: Header=BB22_146 Depth=1
	ld.d	$a0, $s3, 16
.Ltmp186:                               # EH_LABEL
	pcaddu18i	$ra, %call36(_ZNSo5flushEv)
	jirl	$ra, $ra, 0
.Ltmp187:                               # EH_LABEL
	move	$s1, $s2
.LBB22_183:                             # %if.end.i237.i
                                        #   in Loop: Header=BB22_146 Depth=1
	ld.d	$a0, $s1, 8
.Ltmp188:                               # EH_LABEL
	pcaddu18i	$ra, %call36(_ZNSo5flushEv)
	jirl	$ra, $ra, 0
.Ltmp189:                               # EH_LABEL
# %bb.184:                              # %call.i.i.i238.noexc.i
                                        #   in Loop: Header=BB22_146 Depth=1
	ld.d	$a0, $s1, 16
.Ltmp190:                               # EH_LABEL
	pcaddu18i	$ra, %call36(_ZNSo5flushEv)
	jirl	$ra, $ra, 0
.Ltmp191:                               # EH_LABEL
# %bb.185:                              # %invoke.cont285.i
                                        #   in Loop: Header=BB22_146 Depth=1
	move	$a0, $s8
	pcaddu18i	$ra, %call36(_ZNSt6vectorIN9benchmark17BenchmarkReporter3RunESaIS2_EED2Ev)
	jirl	$ra, $ra, 0
	lu12i.w	$a0, 1
	ori	$a0, $a0, 1536
	add.d	$a0, $sp, $a0
	pcaddu18i	$ra, %call36(_ZNSt6vectorIN9benchmark17BenchmarkReporter3RunESaIS2_EED2Ev)
	jirl	$ra, $ra, 0
	ori	$s1, $zero, 184
	b	.LBB22_145
.LBB22_186:                             # %for.cond.cleanup198.i
	beqz	$s5, .LBB22_188
# %bb.187:                              # %if.then.i.i.i196.i
	sub.d	$a1, $fp, $s5
	move	$a0, $s5
	pcaddu18i	$ra, %call36(_ZdlPvm)
	jirl	$ra, $ra, 0
.LBB22_188:                             # %_ZNSt6vectorImSaImEED2Ev.exit.i
	lu12i.w	$a0, 2
	ori	$a0, $a0, 2448
	add.d	$a0, $sp, $a0
	pcaddu18i	$ra, %call36(_ZNSt6vectorIN9benchmark8internal15BenchmarkRunnerESaIS2_EED2Ev)
	jirl	$ra, $ra, 0
	lu12i.w	$a0, 2
	ori	$a0, $a0, 2472
	add.d	$a0, $sp, $a0
	pcaddu18i	$ra, %call36(_ZN9benchmark8internal12PerfCountersD2Ev)
	jirl	$ra, $ra, 0
.LBB22_189:                             # %if.end310.i
	ld.d	$a0, $s3, 0
	ld.d	$a1, $a0, 24
.Ltmp193:                               # EH_LABEL
	move	$a0, $s3
	jirl	$ra, $a1, 0
.Ltmp194:                               # EH_LABEL
# %bb.190:                              # %invoke.cont313.i
	beqz	$s2, .LBB22_192
# %bb.191:                              # %if.then315.i
	ld.d	$a0, $s2, 0
	ld.d	$a1, $a0, 24
.Ltmp195:                               # EH_LABEL
	move	$a0, $s2
	jirl	$ra, $a1, 0
.Ltmp196:                               # EH_LABEL
.LBB22_192:                             # %if.end.i258.i
	ld.d	$a0, $s3, 8
.Ltmp197:                               # EH_LABEL
	pcaddu18i	$ra, %call36(_ZNSo5flushEv)
	jirl	$ra, $ra, 0
.Ltmp198:                               # EH_LABEL
# %bb.193:                              # %call.i.i.noexc261.i
	ld.d	$a0, $s3, 16
.Ltmp199:                               # EH_LABEL
	pcaddu18i	$ra, %call36(_ZNSo5flushEv)
	jirl	$ra, $ra, 0
.Ltmp200:                               # EH_LABEL
# %bb.194:                              # %invoke.cont320.i
	beqz	$s2, .LBB22_197
# %bb.195:                              # %if.end.i267.i
	ld.d	$a0, $s2, 8
.Ltmp201:                               # EH_LABEL
	pcaddu18i	$ra, %call36(_ZNSo5flushEv)
	jirl	$ra, $ra, 0
.Ltmp202:                               # EH_LABEL
# %bb.196:                              # %call.i.i.noexc270.i
	ld.d	$a0, $s2, 16
.Ltmp203:                               # EH_LABEL
	pcaddu18i	$ra, %call36(_ZNSo5flushEv)
	jirl	$ra, $ra, 0
.Ltmp204:                               # EH_LABEL
.LBB22_197:                             # %invoke.cont321.i
	lu12i.w	$a0, 2
	ori	$a0, $a0, 3128
	add.d	$a0, $sp, $a0
	ld.d	$a1, $a0, 0
.Ltmp206:                               # EH_LABEL
	lu12i.w	$a0, 2
	ori	$a0, $a0, 3112
	add.d	$a0, $sp, $a0
	pcaddu18i	$ra, %call36(_ZNSt8_Rb_treeIiSt4pairIKiN9benchmark17BenchmarkReporter19PerFamilyRunReportsEESt10_Select1stIS5_ESt4lessIiESaIS5_EE8_M_eraseEPSt13_Rb_tree_nodeIS5_E)
	jirl	$ra, $ra, 0
.Ltmp207:                               # EH_LABEL
.LBB22_198:                             # %if.end101
.Ltmp217:                               # EH_LABEL
	ld.d	$a0, $sp, 88                    # 8-byte Folded Reload
	pcaddu18i	$ra, %call36(_ZNSo5flushEv)
	jirl	$ra, $ra, 0
.Ltmp218:                               # EH_LABEL
# %bb.199:                              # %invoke.cont102
.Ltmp219:                               # EH_LABEL
	ld.d	$a0, $sp, 80                    # 8-byte Folded Reload
	pcaddu18i	$ra, %call36(_ZNSo5flushEv)
	jirl	$ra, $ra, 0
.Ltmp220:                               # EH_LABEL
# %bb.200:                              # %invoke.cont104
	ld.d	$a0, $sp, 104
	ld.d	$a1, $sp, 96
	sub.d	$a0, $a0, $a1
	srli.d	$a0, $a0, 3
	lu12i.w	$a1, -474827
	ori	$a1, $a1, 541
	lu32i.d	$a1, -19785
	lu52i.d	$a1, $a1, 540
	mul.d	$s1, $a0, $a1
	ld.d	$a0, $sp, 96
	ld.d	$fp, $sp, 104
	bne	$a0, $fp, .LBB22_40
.LBB22_201:                             # %invoke.cont.i111
	beqz	$a0, .LBB22_203
.LBB22_202:                             # %if.then.i.i.i112
	ld.d	$a1, $sp, 112
	sub.d	$a1, $a1, $a0
	pcaddu18i	$ra, %call36(_ZdlPvm)
	jirl	$ra, $ra, 0
.LBB22_203:                             # %_ZNSt6vectorIN9benchmark8internal17BenchmarkInstanceESaIS2_EED2Ev.exit
	ld.d	$a0, $sp, 72                    # 8-byte Folded Reload
	beqz	$a0, .LBB22_205
# %bb.204:                              # %_ZNKSt14default_deleteIN9benchmark17BenchmarkReporterEEclEPS1_.exit.i118
	ld.d	$a1, $a0, 0
	ld.d	$a1, $a1, 40
	jirl	$ra, $a1, 0
.LBB22_205:                             # %_ZNSt10unique_ptrIN9benchmark17BenchmarkReporterESt14default_deleteIS1_EED2Ev.exit122
	beqz	$s4, .LBB22_207
# %bb.206:                              # %_ZNKSt14default_deleteIN9benchmark17BenchmarkReporterEEclEPS1_.exit.i124
	ld.d	$a0, $s4, 0
	ld.d	$a1, $a0, 40
	move	$a0, $s4
	jirl	$ra, $a1, 0
.LBB22_207:                             # %_ZNSt10unique_ptrIN9benchmark17BenchmarkReporterESt14default_deleteIS1_EED2Ev.exit128
	addi.d	$a0, $sp, 120
	pcaddu18i	$ra, %call36(_ZNSt14basic_ofstreamIcSt11char_traitsIcEED1Ev)
	jirl	$ra, $ra, 0
	move	$a0, $s1
	lu12i.w	$a1, 2
	ori	$a1, $a1, 1248
	add.d	$sp, $sp, $a1
	ld.d	$s8, $sp, 1944                  # 8-byte Folded Reload
	ld.d	$s7, $sp, 1952                  # 8-byte Folded Reload
	ld.d	$s6, $sp, 1960                  # 8-byte Folded Reload
	ld.d	$s5, $sp, 1968                  # 8-byte Folded Reload
	ld.d	$s4, $sp, 1976                  # 8-byte Folded Reload
	ld.d	$s3, $sp, 1984                  # 8-byte Folded Reload
	ld.d	$s2, $sp, 1992                  # 8-byte Folded Reload
	ld.d	$s1, $sp, 2000                  # 8-byte Folded Reload
	ld.d	$s0, $sp, 2008                  # 8-byte Folded Reload
	ld.d	$fp, $sp, 2016                  # 8-byte Folded Reload
	ld.d	$ra, $sp, 2024                  # 8-byte Folded Reload
	addi.d	$sp, $sp, 2032
	ret
.LBB22_208:                             # %if.then.i.i.i.i.i178.i
.Ltmp140:                               # EH_LABEL
	pcalau12i	$a0, %pc_hi20(.L.str.66)
	addi.d	$a0, $a0, %pc_lo12(.L.str.66)
	pcaddu18i	$ra, %call36(_ZSt20__throw_length_errorPKc)
	jirl	$ra, $ra, 0
.Ltmp141:                               # EH_LABEL
# %bb.209:                              # %.noexc179.i
.LBB22_210:                             # %if.then15
.Ltmp235:                               # EH_LABEL
	pcalau12i	$a0, %pc_hi20(.L.str.45)
	addi.d	$a1, $a0, %pc_lo12(.L.str.45)
	ori	$a2, $zero, 81
	ld.d	$a0, $sp, 80                    # 8-byte Folded Reload
	pcaddu18i	$ra, %call36(_ZSt16__ostream_insertIcSt11char_traitsIcEERSt13basic_ostreamIT_T0_ES6_PKS3_l)
	jirl	$ra, $ra, 0
.Ltmp236:                               # EH_LABEL
# %bb.211:                              # %invoke.cont17
.Ltmp237:                               # EH_LABEL
	ld.d	$a0, $sp, 80                    # 8-byte Folded Reload
	pcaddu18i	$ra, %call36(_ZSt4endlIcSt11char_traitsIcEERSt13basic_ostreamIT_T0_ES6_)
	jirl	$ra, $ra, 0
.Ltmp238:                               # EH_LABEL
# %bb.212:                              # %invoke.cont19
.Ltmp239:                               # EH_LABEL
	ld.d	$a0, $sp, 88                    # 8-byte Folded Reload
	pcaddu18i	$ra, %call36(_ZNSo5flushEv)
	jirl	$ra, $ra, 0
.Ltmp240:                               # EH_LABEL
# %bb.213:                              # %invoke.cont21
.Ltmp241:                               # EH_LABEL
	ld.d	$a0, $sp, 80                    # 8-byte Folded Reload
	pcaddu18i	$ra, %call36(_ZNSo5flushEv)
	jirl	$ra, $ra, 0
.Ltmp242:                               # EH_LABEL
.LBB22_214:                             # %invoke.cont23
	ori	$a0, $zero, 1
	pcaddu18i	$ra, %call36(exit)
	jirl	$ra, $ra, 0
.LBB22_215:                             # %if.then31
.Ltmp69:                                # EH_LABEL
	pcalau12i	$a0, %pc_hi20(.L.str.46)
	addi.d	$a1, $a0, %pc_lo12(.L.str.46)
	ori	$a2, $zero, 20
	ld.d	$a0, $sp, 80                    # 8-byte Folded Reload
	pcaddu18i	$ra, %call36(_ZSt16__ostream_insertIcSt11char_traitsIcEERSt13basic_ostreamIT_T0_ES6_PKS3_l)
	jirl	$ra, $ra, 0
.Ltmp70:                                # EH_LABEL
# %bb.216:                              # %invoke.cont32
	ld.d	$a1, $fp, 0
	ld.d	$a2, $fp, 8
.Ltmp71:                                # EH_LABEL
	ld.d	$a0, $sp, 80                    # 8-byte Folded Reload
	pcaddu18i	$ra, %call36(_ZSt16__ostream_insertIcSt11char_traitsIcEERSt13basic_ostreamIT_T0_ES6_PKS3_l)
	jirl	$ra, $ra, 0
.Ltmp72:                                # EH_LABEL
# %bb.217:                              # %invoke.cont34
.Ltmp73:                                # EH_LABEL
	move	$s0, $a0
	pcalau12i	$a0, %pc_hi20(.L.str.47)
	addi.d	$a1, $a0, %pc_lo12(.L.str.47)
	ori	$a2, $zero, 1
	move	$a0, $s0
	pcaddu18i	$ra, %call36(_ZSt16__ostream_insertIcSt11char_traitsIcEERSt13basic_ostreamIT_T0_ES6_PKS3_l)
	jirl	$ra, $ra, 0
.Ltmp74:                                # EH_LABEL
# %bb.218:                              # %invoke.cont36
.Ltmp75:                                # EH_LABEL
	move	$a0, $s0
	pcaddu18i	$ra, %call36(_ZSt4endlIcSt11char_traitsIcEERSt13basic_ostreamIT_T0_ES6_)
	jirl	$ra, $ra, 0
.Ltmp76:                                # EH_LABEL
# %bb.219:                              # %invoke.cont38
.Ltmp77:                                # EH_LABEL
	ld.d	$a0, $sp, 88                    # 8-byte Folded Reload
	pcaddu18i	$ra, %call36(_ZNSo5flushEv)
	jirl	$ra, $ra, 0
.Ltmp78:                                # EH_LABEL
# %bb.220:                              # %invoke.cont40
.Ltmp79:                                # EH_LABEL
	ld.d	$a0, $sp, 80                    # 8-byte Folded Reload
	pcaddu18i	$ra, %call36(_ZNSo5flushEv)
	jirl	$ra, $ra, 0
.Ltmp80:                                # EH_LABEL
	b	.LBB22_214
.LBB22_221:                             # %init.check.i
	pcalau12i	$a0, %pc_hi20(_ZGVZN9benchmark28CreateDefaultDisplayReporterEvE24default_display_reporter)
	addi.d	$a0, $a0, %pc_lo12(_ZGVZN9benchmark28CreateDefaultDisplayReporterEvE24default_display_reporter)
	pcaddu18i	$ra, %call36(__cxa_guard_acquire)
	jirl	$ra, $ra, 0
	addi.w	$a0, $a0, 0
	beqz	$a0, .LBB22_7
# %bb.222:                              # %init.i
.Ltmp60:                                # EH_LABEL
	move	$a0, $zero
	pcaddu18i	$ra, %call36(_ZN9benchmark8internal16GetOutputOptionsEb)
	jirl	$ra, $ra, 0
.Ltmp61:                                # EH_LABEL
# %bb.223:                              # %invoke.cont.i
.Ltmp62:                                # EH_LABEL
	move	$a2, $a0
	pcalau12i	$a0, %pc_hi20(_ZN9benchmark22FLAGS_benchmark_formatB5cxx11E)
	addi.d	$a1, $a0, %pc_lo12(_ZN9benchmark22FLAGS_benchmark_formatB5cxx11E)
	lu12i.w	$a0, 1
	ori	$a0, $a0, 1536
	add.d	$a0, $sp, $a0
	pcaddu18i	$ra, %call36(_ZN9benchmark8internal12_GLOBAL__N_114CreateReporterERKNSt7__cxx1112basic_stringIcSt11char_traitsIcESaIcEEENS_15ConsoleReporter13OutputOptionsE)
	jirl	$ra, $ra, 0
.Ltmp63:                                # EH_LABEL
# %bb.224:                              # %_ZNSt10unique_ptrIN9benchmark17BenchmarkReporterESt14default_deleteIS1_EED2Ev.exit.i
	lu12i.w	$a0, 1
	ori	$a0, $a0, 1536
	add.d	$a0, $sp, $a0
	ld.d	$a0, $a0, 0
	st.d	$a0, $fp, %pc_lo12(_ZZN9benchmark28CreateDefaultDisplayReporterEvE24default_display_reporter)
	pcalau12i	$a0, %pc_hi20(_ZGVZN9benchmark28CreateDefaultDisplayReporterEvE24default_display_reporter)
	addi.d	$a0, $a0, %pc_lo12(_ZGVZN9benchmark28CreateDefaultDisplayReporterEvE24default_display_reporter)
	pcaddu18i	$ra, %call36(__cxa_guard_release)
	jirl	$ra, $ra, 0
	b	.LBB22_7
.LBB22_225:                             # %init.check.i.i
	pcalau12i	$a0, %pc_hi20(_ZGVZN9benchmark8internal18GetNullLogInstanceEvE8null_log)
	addi.d	$a0, $a0, %pc_lo12(_ZGVZN9benchmark8internal18GetNullLogInstanceEvE8null_log)
	pcaddu18i	$ra, %call36(__cxa_guard_acquire)
	jirl	$ra, $ra, 0
	addi.w	$a0, $a0, 0
	beqz	$a0, .LBB22_45
# %bb.226:                              # %init.i.i
	pcalau12i	$a0, %pc_hi20(_ZZN9benchmark8internal18GetNullLogInstanceEvE8null_log)
	st.d	$zero, $a0, %pc_lo12(_ZZN9benchmark8internal18GetNullLogInstanceEvE8null_log)
	pcalau12i	$a0, %pc_hi20(_ZGVZN9benchmark8internal18GetNullLogInstanceEvE8null_log)
	addi.d	$a0, $a0, %pc_lo12(_ZGVZN9benchmark8internal18GetNullLogInstanceEvE8null_log)
	pcaddu18i	$ra, %call36(__cxa_guard_release)
	jirl	$ra, $ra, 0
	b	.LBB22_45
.LBB22_227:                             # %if.then.i158.i
.Ltmp134:                               # EH_LABEL
	pcalau12i	$a0, %pc_hi20(.L.str.72)
	addi.d	$a0, $a0, %pc_lo12(.L.str.72)
	pcaddu18i	$ra, %call36(_ZSt20__throw_length_errorPKc)
	jirl	$ra, $ra, 0
.Ltmp135:                               # EH_LABEL
# %bb.228:                              # %.noexc159.i
.LBB22_229:                             # %init.check.i114.i
	pcalau12i	$a0, %pc_hi20(_ZGVZN9benchmark8internal19GetErrorLogInstanceEvE9error_log)
	addi.d	$a0, $a0, %pc_lo12(_ZGVZN9benchmark8internal19GetErrorLogInstanceEvE9error_log)
	pcaddu18i	$ra, %call36(__cxa_guard_acquire)
	jirl	$ra, $ra, 0
	addi.w	$a0, $a0, 0
	beqz	$a0, .LBB22_103
# %bb.230:                              # %init.i116.i
	pcalau12i	$a0, %got_pc_hi20(_ZSt4clog)
	ld.d	$a0, $a0, %got_pc_lo12(_ZSt4clog)
	st.d	$a0, $s0, %pc_lo12(_ZZN9benchmark8internal19GetErrorLogInstanceEvE9error_log)
	pcalau12i	$a0, %pc_hi20(_ZGVZN9benchmark8internal19GetErrorLogInstanceEvE9error_log)
	addi.d	$a0, $a0, %pc_lo12(_ZGVZN9benchmark8internal19GetErrorLogInstanceEvE9error_log)
	pcaddu18i	$ra, %call36(__cxa_guard_release)
	jirl	$ra, $ra, 0
	b	.LBB22_103
.LBB22_231:                             # %lpad.i
.Ltmp64:                                # EH_LABEL
	move	$s1, $a0
	pcalau12i	$a0, %pc_hi20(_ZGVZN9benchmark28CreateDefaultDisplayReporterEvE24default_display_reporter)
	addi.d	$a0, $a0, %pc_lo12(_ZGVZN9benchmark28CreateDefaultDisplayReporterEvE24default_display_reporter)
	pcaddu18i	$ra, %call36(__cxa_guard_abort)
	jirl	$ra, $ra, 0
	addi.d	$a0, $sp, 120
	pcaddu18i	$ra, %call36(_ZNSt14basic_ofstreamIcSt11char_traitsIcEED1Ev)
	jirl	$ra, $ra, 0
	move	$a0, $s1
	pcaddu18i	$ra, %call36(_Unwind_Resume)
	jirl	$ra, $ra, 0
.LBB22_232:                             # %lpad127.i
.Ltmp131:                               # EH_LABEL
	move	$s1, $a0
	b	.LBB22_270
.LBB22_233:                             # %lpad113.i
.Ltmp126:                               # EH_LABEL
	move	$s1, $a0
	b	.LBB22_270
.LBB22_234:                             # %terminate.lpad.i.i
.Ltmp156:                               # EH_LABEL
	pcaddu18i	$ra, %call36(__clang_call_terminate)
	jirl	$ra, $ra, 0
.LBB22_235:                             # %lpad3.i.i
.Ltmp145:                               # EH_LABEL
	ld.d	$a2, $sp, 632
	move	$s1, $a0
	beq	$a2, $s0, .LBB22_268
# %bb.236:                              # %if.then.i.i5.i.i
	ld.d	$a0, $sp, 648
	addi.d	$a1, $a0, 1
	move	$a0, $a2
	pcaddu18i	$ra, %call36(_ZdlPvm)
	jirl	$ra, $ra, 0
	b	.LBB22_268
.LBB22_237:                             # %lpad165.i
.Ltmp150:                               # EH_LABEL
	move	$s1, $a0
.Ltmp151:                               # EH_LABEL
	lu12i.w	$a0, 1
	ori	$a0, $a0, 1536
	add.d	$a0, $sp, $a0
	pcaddu18i	$ra, %call36(_ZNSt13random_device7_M_finiEv)
	jirl	$ra, $ra, 0
.Ltmp152:                               # EH_LABEL
	b	.LBB22_268
.LBB22_238:                             # %terminate.lpad.i188.i
.Ltmp153:                               # EH_LABEL
	pcaddu18i	$ra, %call36(__clang_call_terminate)
	jirl	$ra, $ra, 0
.LBB22_239:                             # %lpad52.i
.Ltmp111:                               # EH_LABEL
	move	$s1, $a0
	b	.LBB22_270
.LBB22_240:                             # %lpad49.i
.Ltmp108:                               # EH_LABEL
	move	$s1, $a0
	lu12i.w	$a0, 1
	ori	$a0, $a0, 1536
	add.d	$a0, $sp, $a0
	pcaddu18i	$ra, %call36(_ZNSt6vectorINSt7__cxx1112basic_stringIcSt11char_traitsIcESaIcEEESaIS5_EED2Ev)
	jirl	$ra, $ra, 0
	b	.LBB22_271
.LBB22_241:                             # %lpad47.i
.Ltmp105:                               # EH_LABEL
	b	.LBB22_253
.LBB22_242:                             # %ehcleanup302.thread.i
.Ltmp136:                               # EH_LABEL
	move	$s1, $a0
	b	.LBB22_270
.LBB22_243:                             # %terminate.lpad.i.i.i
.Ltmp208:                               # EH_LABEL
	pcaddu18i	$ra, %call36(__clang_call_terminate)
	jirl	$ra, $ra, 0
.LBB22_244:                             # %lpad275.i
.Ltmp175:                               # EH_LABEL
	b	.LBB22_246
.LBB22_245:                             # %lpad264.i
.Ltmp172:                               # EH_LABEL
.LBB22_246:                             # %ehcleanup279.i
	move	$s1, $a0
	addi.d	$a0, $sp, 632
	pcaddu18i	$ra, %call36(_ZNSt6vectorIN9benchmark17BenchmarkReporter3RunESaIS2_EED2Ev)
	jirl	$ra, $ra, 0
	b	.LBB22_259
.LBB22_247:                             # %lpad242.i
.Ltmp169:                               # EH_LABEL
	b	.LBB22_258
.LBB22_248:                             # %lpad47
.Ltmp83:                                # EH_LABEL
	b	.LBB22_256
.LBB22_249:                             # %lpad230.i
.Ltmp166:                               # EH_LABEL
	move	$s1, $a0
	b	.LBB22_268
.LBB22_250:                             # %lpad75.i
.Ltmp114:                               # EH_LABEL
	move	$s1, $a0
	b	.LBB22_270
.LBB22_251:                             # %lpad88.i
.Ltmp119:                               # EH_LABEL
	move	$s1, $a0
	b	.LBB22_270
.LBB22_252:                             # %lpad.i92
.Ltmp205:                               # EH_LABEL
.LBB22_253:                             # %ehcleanup322.i
	move	$s1, $a0
	b	.LBB22_271
.LBB22_254:                             # %lpad203.i
.Ltmp163:                               # EH_LABEL
	move	$s1, $a0
	b	.LBB22_268
.LBB22_255:                             # %lpad16
.Ltmp243:                               # EH_LABEL
.LBB22_256:                             # %_ZNSt10unique_ptrIN9benchmark17BenchmarkReporterESt14default_deleteIS1_EED2Ev.exit134
	st.d	$s4, $sp, 32                    # 8-byte Folded Spill
	move	$s1, $a0
	ld.d	$a0, $sp, 32                    # 8-byte Folded Reload
	beqz	$a0, .LBB22_274
	b	.LBB22_276
.LBB22_257:                             # %lpad284.i
.Ltmp192:                               # EH_LABEL
.LBB22_258:                             # %ehcleanup286.i
	move	$s1, $a0
.LBB22_259:                             # %ehcleanup286.i
	lu12i.w	$a0, 1
	ori	$a0, $a0, 1560
	add.d	$a0, $sp, $a0
	pcaddu18i	$ra, %call36(_ZNSt6vectorIN9benchmark17BenchmarkReporter3RunESaIS2_EED2Ev)
	jirl	$ra, $ra, 0
	lu12i.w	$a0, 1
	ori	$a0, $a0, 1536
	add.d	$a0, $sp, $a0
	pcaddu18i	$ra, %call36(_ZNSt6vectorIN9benchmark17BenchmarkReporter3RunESaIS2_EED2Ev)
	jirl	$ra, $ra, 0
	b	.LBB22_268
.LBB22_260:                             # %lpad55.loopexit
.Ltmp88:                                # EH_LABEL
	b	.LBB22_264
.LBB22_261:                             # %lpad55.loopexit.split-lp
.Ltmp231:                               # EH_LABEL
	b	.LBB22_263
.LBB22_262:                             # %lpad86
.Ltmp211:                               # EH_LABEL
.LBB22_263:                             # %ehcleanup117
	st.d	$s4, $sp, 32                    # 8-byte Folded Spill
.LBB22_264:                             # %ehcleanup117
	move	$s1, $a0
	b	.LBB22_272
.LBB22_265:                             # %lpad144.loopexit.i
.Ltmp139:                               # EH_LABEL
	b	.LBB22_267
.LBB22_266:                             # %lpad144.loopexit.split-lp.i
.Ltmp142:                               # EH_LABEL
.LBB22_267:                             # %ehcleanup302.i
	move	$s1, $a0
	move	$s5, $s7
.LBB22_268:                             # %ehcleanup302.i
	beqz	$s5, .LBB22_270
# %bb.269:                              # %if.then.i.i.i251.i
	sub.d	$a1, $fp, $s5
	move	$a0, $s5
	pcaddu18i	$ra, %call36(_ZdlPvm)
	jirl	$ra, $ra, 0
.LBB22_270:                             # %ehcleanup305.i
	lu12i.w	$a0, 2
	ori	$a0, $a0, 2448
	add.d	$a0, $sp, $a0
	pcaddu18i	$ra, %call36(_ZNSt6vectorIN9benchmark8internal15BenchmarkRunnerESaIS2_EED2Ev)
	jirl	$ra, $ra, 0
	lu12i.w	$a0, 2
	ori	$a0, $a0, 2472
	add.d	$a0, $sp, $a0
	pcaddu18i	$ra, %call36(_ZN9benchmark8internal12PerfCountersD2Ev)
	jirl	$ra, $ra, 0
.LBB22_271:                             # %ehcleanup322.i
	lu12i.w	$a0, 2
	ori	$a0, $a0, 3112
	add.d	$a0, $sp, $a0
	pcaddu18i	$ra, %call36(_ZNSt3mapIiN9benchmark17BenchmarkReporter19PerFamilyRunReportsESt4lessIiESaISt4pairIKiS2_EEED2Ev)
	jirl	$ra, $ra, 0
.LBB22_272:                             # %ehcleanup117
	addi.d	$a0, $sp, 96
	pcaddu18i	$ra, %call36(_ZNSt6vectorIN9benchmark8internal17BenchmarkInstanceESaIS2_EED2Ev)
	jirl	$ra, $ra, 0
	ld.d	$a0, $sp, 72                    # 8-byte Folded Reload
	bnez	$a0, .LBB22_275
# %bb.273:                              # %_ZNSt10unique_ptrIN9benchmark17BenchmarkReporterESt14default_deleteIS1_EED2Ev.exit134
	ld.d	$a0, $sp, 32                    # 8-byte Folded Reload
	bnez	$a0, .LBB22_276
.LBB22_274:                             # %_ZNSt10unique_ptrIN9benchmark17BenchmarkReporterESt14default_deleteIS1_EED2Ev.exit140
	addi.d	$a0, $sp, 120
	pcaddu18i	$ra, %call36(_ZNSt14basic_ofstreamIcSt11char_traitsIcEED1Ev)
	jirl	$ra, $ra, 0
	move	$a0, $s1
	pcaddu18i	$ra, %call36(_Unwind_Resume)
	jirl	$ra, $ra, 0
.LBB22_275:                             # %_ZNKSt14default_deleteIN9benchmark17BenchmarkReporterEEclEPS1_.exit.i130
	ld.d	$a0, $sp, 72                    # 8-byte Folded Reload
	ld.d	$a1, $a0, 0
	ld.d	$a1, $a1, 40
	jirl	$ra, $a1, 0
	ld.d	$a0, $sp, 32                    # 8-byte Folded Reload
	beqz	$a0, .LBB22_274
.LBB22_276:                             # %_ZNKSt14default_deleteIN9benchmark17BenchmarkReporterEEclEPS1_.exit.i136
	ld.d	$a0, $sp, 32                    # 8-byte Folded Reload
	ld.d	$a1, $a0, 0
	ld.d	$a1, $a1, 40
	jirl	$ra, $a1, 0
	addi.d	$a0, $sp, 120
	pcaddu18i	$ra, %call36(_ZNSt14basic_ofstreamIcSt11char_traitsIcEED1Ev)
	jirl	$ra, $ra, 0
	move	$a0, $s1
	pcaddu18i	$ra, %call36(_Unwind_Resume)
	jirl	$ra, $ra, 0
.LBB22_277:                             # %lpad90
.Ltmp216:                               # EH_LABEL
	st.d	$s4, $sp, 32                    # 8-byte Folded Spill
	lu12i.w	$a1, 1
	ori	$a1, $a1, 1536
	add.d	$a1, $sp, $a1
	ld.d	$a2, $a1, 0
	move	$s1, $a0
	beq	$a2, $s0, .LBB22_272
# %bb.278:                              # %if.then.i.i81
	lu12i.w	$a0, 1
	ori	$a0, $a0, 1552
	add.d	$a0, $sp, $a0
	ld.d	$a0, $a0, 0
	addi.d	$a1, $a0, 1
	move	$a0, $a2
	pcaddu18i	$ra, %call36(_ZdlPvm)
	jirl	$ra, $ra, 0
	b	.LBB22_272
.LBB22_279:                             # %terminate.lpad.i.i.i.i.i.i
.Ltmp234:                               # EH_LABEL
	pcaddu18i	$ra, %call36(__clang_call_terminate)
	jirl	$ra, $ra, 0
.Lfunc_end22:
	.size	_ZN9benchmark22RunSpecifiedBenchmarksEPNS_17BenchmarkReporterES1_NSt7__cxx1112basic_stringIcSt11char_traitsIcESaIcEEE, .Lfunc_end22-_ZN9benchmark22RunSpecifiedBenchmarksEPNS_17BenchmarkReporterES1_NSt7__cxx1112basic_stringIcSt11char_traitsIcESaIcEEE
	.cfi_endproc
	.section	.gcc_except_table,"a",@progbits
	.p2align	2, 0x0
GCC_except_table22:
.Lexception11:
	.byte	255                             # @LPStart Encoding = omit
	.byte	155                             # @TType Encoding = indirect pcrel sdata4
	.uleb128 .Lttbase2-.Lttbaseref2
.Lttbaseref2:
	.byte	1                               # Call site Encoding = uleb128
	.uleb128 .Lcst_end11-.Lcst_begin11
.Lcst_begin11:
	.uleb128 .Lfunc_begin11-.Lfunc_begin11  # >> Call Site 1 <<
	.uleb128 .Ltmp65-.Lfunc_begin11         #   Call between .Lfunc_begin11 and .Ltmp65
	.byte	0                               #     has no landing pad
	.byte	0                               #   On action: cleanup
	.uleb128 .Ltmp65-.Lfunc_begin11         # >> Call Site 2 <<
	.uleb128 .Ltmp68-.Ltmp65                #   Call between .Ltmp65 and .Ltmp68
	.uleb128 .Ltmp243-.Lfunc_begin11        #     jumps to .Ltmp243
	.byte	0                               #   On action: cleanup
	.uleb128 .Ltmp68-.Lfunc_begin11         # >> Call Site 3 <<
	.uleb128 .Ltmp81-.Ltmp68                #   Call between .Ltmp68 and .Ltmp81
	.byte	0                               #     has no landing pad
	.byte	0                               #   On action: cleanup
	.uleb128 .Ltmp81-.Lfunc_begin11         # >> Call Site 4 <<
	.uleb128 .Ltmp82-.Ltmp81                #   Call between .Ltmp81 and .Ltmp82
	.uleb128 .Ltmp83-.Lfunc_begin11         #     jumps to .Ltmp83
	.byte	0                               #   On action: cleanup
	.uleb128 .Ltmp84-.Lfunc_begin11         # >> Call Site 5 <<
	.uleb128 .Ltmp85-.Ltmp84                #   Call between .Ltmp84 and .Ltmp85
	.uleb128 .Ltmp231-.Lfunc_begin11        #     jumps to .Ltmp231
	.byte	0                               #   On action: cleanup
	.uleb128 .Ltmp209-.Lfunc_begin11        # >> Call Site 6 <<
	.uleb128 .Ltmp210-.Ltmp209              #   Call between .Ltmp209 and .Ltmp210
	.uleb128 .Ltmp211-.Lfunc_begin11        #     jumps to .Ltmp211
	.byte	0                               #   On action: cleanup
	.uleb128 .Ltmp212-.Lfunc_begin11        # >> Call Site 7 <<
	.uleb128 .Ltmp215-.Ltmp212              #   Call between .Ltmp212 and .Ltmp215
	.uleb128 .Ltmp216-.Lfunc_begin11        #     jumps to .Ltmp216
	.byte	0                               #   On action: cleanup
	.uleb128 .Ltmp215-.Lfunc_begin11        # >> Call Site 8 <<
	.uleb128 .Ltmp221-.Ltmp215              #   Call between .Ltmp215 and .Ltmp221
	.byte	0                               #     has no landing pad
	.byte	0                               #   On action: cleanup
	.uleb128 .Ltmp221-.Lfunc_begin11        # >> Call Site 9 <<
	.uleb128 .Ltmp230-.Ltmp221              #   Call between .Ltmp221 and .Ltmp230
	.uleb128 .Ltmp231-.Lfunc_begin11        #     jumps to .Ltmp231
	.byte	0                               #   On action: cleanup
	.uleb128 .Ltmp232-.Lfunc_begin11        # >> Call Site 10 <<
	.uleb128 .Ltmp233-.Ltmp232              #   Call between .Ltmp232 and .Ltmp233
	.uleb128 .Ltmp234-.Lfunc_begin11        #     jumps to .Ltmp234
	.byte	1                               #   On action: 1
	.uleb128 .Ltmp233-.Lfunc_begin11        # >> Call Site 11 <<
	.uleb128 .Ltmp86-.Ltmp233               #   Call between .Ltmp233 and .Ltmp86
	.byte	0                               #     has no landing pad
	.byte	0                               #   On action: cleanup
	.uleb128 .Ltmp86-.Lfunc_begin11         # >> Call Site 12 <<
	.uleb128 .Ltmp87-.Ltmp86                #   Call between .Ltmp86 and .Ltmp87
	.uleb128 .Ltmp88-.Lfunc_begin11         #     jumps to .Ltmp88
	.byte	0                               #   On action: cleanup
	.uleb128 .Ltmp87-.Lfunc_begin11         # >> Call Site 13 <<
	.uleb128 .Ltmp89-.Ltmp87                #   Call between .Ltmp87 and .Ltmp89
	.byte	0                               #     has no landing pad
	.byte	0                               #   On action: cleanup
	.uleb128 .Ltmp89-.Lfunc_begin11         # >> Call Site 14 <<
	.uleb128 .Ltmp90-.Ltmp89                #   Call between .Ltmp89 and .Ltmp90
	.uleb128 .Ltmp231-.Lfunc_begin11        #     jumps to .Ltmp231
	.byte	0                               #   On action: cleanup
	.uleb128 .Ltmp91-.Lfunc_begin11         # >> Call Site 15 <<
	.uleb128 .Ltmp102-.Ltmp91               #   Call between .Ltmp91 and .Ltmp102
	.uleb128 .Ltmp205-.Lfunc_begin11        #     jumps to .Ltmp205
	.byte	0                               #   On action: cleanup
	.uleb128 .Ltmp103-.Lfunc_begin11        # >> Call Site 16 <<
	.uleb128 .Ltmp104-.Ltmp103              #   Call between .Ltmp103 and .Ltmp104
	.uleb128 .Ltmp105-.Lfunc_begin11        #     jumps to .Ltmp105
	.byte	0                               #   On action: cleanup
	.uleb128 .Ltmp106-.Lfunc_begin11        # >> Call Site 17 <<
	.uleb128 .Ltmp107-.Ltmp106              #   Call between .Ltmp106 and .Ltmp107
	.uleb128 .Ltmp108-.Lfunc_begin11        #     jumps to .Ltmp108
	.byte	0                               #   On action: cleanup
	.uleb128 .Ltmp107-.Lfunc_begin11        # >> Call Site 18 <<
	.uleb128 .Ltmp109-.Ltmp107              #   Call between .Ltmp107 and .Ltmp109
	.byte	0                               #     has no landing pad
	.byte	0                               #   On action: cleanup
	.uleb128 .Ltmp109-.Lfunc_begin11        # >> Call Site 19 <<
	.uleb128 .Ltmp110-.Ltmp109              #   Call between .Ltmp109 and .Ltmp110
	.uleb128 .Ltmp111-.Lfunc_begin11        #     jumps to .Ltmp111
	.byte	0                               #   On action: cleanup
	.uleb128 .Ltmp112-.Lfunc_begin11        # >> Call Site 20 <<
	.uleb128 .Ltmp113-.Ltmp112              #   Call between .Ltmp112 and .Ltmp113
	.uleb128 .Ltmp114-.Lfunc_begin11        #     jumps to .Ltmp114
	.byte	0                               #   On action: cleanup
	.uleb128 .Ltmp115-.Lfunc_begin11        # >> Call Site 21 <<
	.uleb128 .Ltmp118-.Ltmp115              #   Call between .Ltmp115 and .Ltmp118
	.uleb128 .Ltmp119-.Lfunc_begin11        #     jumps to .Ltmp119
	.byte	0                               #   On action: cleanup
	.uleb128 .Ltmp120-.Lfunc_begin11        # >> Call Site 22 <<
	.uleb128 .Ltmp125-.Ltmp120              #   Call between .Ltmp120 and .Ltmp125
	.uleb128 .Ltmp126-.Lfunc_begin11        #     jumps to .Ltmp126
	.byte	0                               #   On action: cleanup
	.uleb128 .Ltmp127-.Lfunc_begin11        # >> Call Site 23 <<
	.uleb128 .Ltmp130-.Ltmp127              #   Call between .Ltmp127 and .Ltmp130
	.uleb128 .Ltmp131-.Lfunc_begin11        #     jumps to .Ltmp131
	.byte	0                               #   On action: cleanup
	.uleb128 .Ltmp132-.Lfunc_begin11        # >> Call Site 24 <<
	.uleb128 .Ltmp133-.Ltmp132              #   Call between .Ltmp132 and .Ltmp133
	.uleb128 .Ltmp136-.Lfunc_begin11        #     jumps to .Ltmp136
	.byte	0                               #   On action: cleanup
	.uleb128 .Ltmp137-.Lfunc_begin11        # >> Call Site 25 <<
	.uleb128 .Ltmp138-.Ltmp137              #   Call between .Ltmp137 and .Ltmp138
	.uleb128 .Ltmp139-.Lfunc_begin11        #     jumps to .Ltmp139
	.byte	0                               #   On action: cleanup
	.uleb128 .Ltmp138-.Lfunc_begin11        # >> Call Site 26 <<
	.uleb128 .Ltmp143-.Ltmp138              #   Call between .Ltmp138 and .Ltmp143
	.byte	0                               #     has no landing pad
	.byte	0                               #   On action: cleanup
	.uleb128 .Ltmp143-.Lfunc_begin11        # >> Call Site 27 <<
	.uleb128 .Ltmp144-.Ltmp143              #   Call between .Ltmp143 and .Ltmp144
	.uleb128 .Ltmp145-.Lfunc_begin11        #     jumps to .Ltmp145
	.byte	0                               #   On action: cleanup
	.uleb128 .Ltmp144-.Lfunc_begin11        # >> Call Site 28 <<
	.uleb128 .Ltmp146-.Ltmp144              #   Call between .Ltmp144 and .Ltmp146
	.byte	0                               #     has no landing pad
	.byte	0                               #   On action: cleanup
	.uleb128 .Ltmp146-.Lfunc_begin11        # >> Call Site 29 <<
	.uleb128 .Ltmp149-.Ltmp146              #   Call between .Ltmp146 and .Ltmp149
	.uleb128 .Ltmp150-.Lfunc_begin11        #     jumps to .Ltmp150
	.byte	0                               #   On action: cleanup
	.uleb128 .Ltmp154-.Lfunc_begin11        # >> Call Site 30 <<
	.uleb128 .Ltmp155-.Ltmp154              #   Call between .Ltmp154 and .Ltmp155
	.uleb128 .Ltmp156-.Lfunc_begin11        #     jumps to .Ltmp156
	.byte	1                               #   On action: 1
	.uleb128 .Ltmp157-.Lfunc_begin11        # >> Call Site 31 <<
	.uleb128 .Ltmp162-.Ltmp157              #   Call between .Ltmp157 and .Ltmp162
	.uleb128 .Ltmp163-.Lfunc_begin11        #     jumps to .Ltmp163
	.byte	0                               #   On action: cleanup
	.uleb128 .Ltmp164-.Lfunc_begin11        # >> Call Site 32 <<
	.uleb128 .Ltmp165-.Ltmp164              #   Call between .Ltmp164 and .Ltmp165
	.uleb128 .Ltmp166-.Lfunc_begin11        #     jumps to .Ltmp166
	.byte	0                               #   On action: cleanup
	.uleb128 .Ltmp167-.Lfunc_begin11        # >> Call Site 33 <<
	.uleb128 .Ltmp168-.Ltmp167              #   Call between .Ltmp167 and .Ltmp168
	.uleb128 .Ltmp169-.Lfunc_begin11        #     jumps to .Ltmp169
	.byte	0                               #   On action: cleanup
	.uleb128 .Ltmp170-.Lfunc_begin11        # >> Call Site 34 <<
	.uleb128 .Ltmp171-.Ltmp170              #   Call between .Ltmp170 and .Ltmp171
	.uleb128 .Ltmp172-.Lfunc_begin11        #     jumps to .Ltmp172
	.byte	0                               #   On action: cleanup
	.uleb128 .Ltmp173-.Lfunc_begin11        # >> Call Site 35 <<
	.uleb128 .Ltmp174-.Ltmp173              #   Call between .Ltmp173 and .Ltmp174
	.uleb128 .Ltmp175-.Lfunc_begin11        #     jumps to .Ltmp175
	.byte	0                               #   On action: cleanup
	.uleb128 .Ltmp174-.Lfunc_begin11        # >> Call Site 36 <<
	.uleb128 .Ltmp176-.Ltmp174              #   Call between .Ltmp174 and .Ltmp176
	.byte	0                               #     has no landing pad
	.byte	0                               #   On action: cleanup
	.uleb128 .Ltmp176-.Lfunc_begin11        # >> Call Site 37 <<
	.uleb128 .Ltmp191-.Ltmp176              #   Call between .Ltmp176 and .Ltmp191
	.uleb128 .Ltmp192-.Lfunc_begin11        #     jumps to .Ltmp192
	.byte	0                               #   On action: cleanup
	.uleb128 .Ltmp191-.Lfunc_begin11        # >> Call Site 38 <<
	.uleb128 .Ltmp193-.Ltmp191              #   Call between .Ltmp191 and .Ltmp193
	.byte	0                               #     has no landing pad
	.byte	0                               #   On action: cleanup
	.uleb128 .Ltmp193-.Lfunc_begin11        # >> Call Site 39 <<
	.uleb128 .Ltmp204-.Ltmp193              #   Call between .Ltmp193 and .Ltmp204
	.uleb128 .Ltmp205-.Lfunc_begin11        #     jumps to .Ltmp205
	.byte	0                               #   On action: cleanup
	.uleb128 .Ltmp206-.Lfunc_begin11        # >> Call Site 40 <<
	.uleb128 .Ltmp207-.Ltmp206              #   Call between .Ltmp206 and .Ltmp207
	.uleb128 .Ltmp208-.Lfunc_begin11        #     jumps to .Ltmp208
	.byte	1                               #   On action: 1
	.uleb128 .Ltmp217-.Lfunc_begin11        # >> Call Site 41 <<
	.uleb128 .Ltmp220-.Ltmp217              #   Call between .Ltmp217 and .Ltmp220
	.uleb128 .Ltmp231-.Lfunc_begin11        #     jumps to .Ltmp231
	.byte	0                               #   On action: cleanup
	.uleb128 .Ltmp220-.Lfunc_begin11        # >> Call Site 42 <<
	.uleb128 .Ltmp140-.Ltmp220              #   Call between .Ltmp220 and .Ltmp140
	.byte	0                               #     has no landing pad
	.byte	0                               #   On action: cleanup
	.uleb128 .Ltmp140-.Lfunc_begin11        # >> Call Site 43 <<
	.uleb128 .Ltmp141-.Ltmp140              #   Call between .Ltmp140 and .Ltmp141
	.uleb128 .Ltmp142-.Lfunc_begin11        #     jumps to .Ltmp142
	.byte	0                               #   On action: cleanup
	.uleb128 .Ltmp235-.Lfunc_begin11        # >> Call Site 44 <<
	.uleb128 .Ltmp242-.Ltmp235              #   Call between .Ltmp235 and .Ltmp242
	.uleb128 .Ltmp243-.Lfunc_begin11        #     jumps to .Ltmp243
	.byte	0                               #   On action: cleanup
	.uleb128 .Ltmp242-.Lfunc_begin11        # >> Call Site 45 <<
	.uleb128 .Ltmp69-.Ltmp242               #   Call between .Ltmp242 and .Ltmp69
	.byte	0                               #     has no landing pad
	.byte	0                               #   On action: cleanup
	.uleb128 .Ltmp69-.Lfunc_begin11         # >> Call Site 46 <<
	.uleb128 .Ltmp80-.Ltmp69                #   Call between .Ltmp69 and .Ltmp80
	.uleb128 .Ltmp243-.Lfunc_begin11        #     jumps to .Ltmp243
	.byte	0                               #   On action: cleanup
	.uleb128 .Ltmp80-.Lfunc_begin11         # >> Call Site 47 <<
	.uleb128 .Ltmp60-.Ltmp80                #   Call between .Ltmp80 and .Ltmp60
	.byte	0                               #     has no landing pad
	.byte	0                               #   On action: cleanup
	.uleb128 .Ltmp60-.Lfunc_begin11         # >> Call Site 48 <<
	.uleb128 .Ltmp63-.Ltmp60                #   Call between .Ltmp60 and .Ltmp63
	.uleb128 .Ltmp64-.Lfunc_begin11         #     jumps to .Ltmp64
	.byte	0                               #   On action: cleanup
	.uleb128 .Ltmp63-.Lfunc_begin11         # >> Call Site 49 <<
	.uleb128 .Ltmp134-.Ltmp63               #   Call between .Ltmp63 and .Ltmp134
	.byte	0                               #     has no landing pad
	.byte	0                               #   On action: cleanup
	.uleb128 .Ltmp134-.Lfunc_begin11        # >> Call Site 50 <<
	.uleb128 .Ltmp135-.Ltmp134              #   Call between .Ltmp134 and .Ltmp135
	.uleb128 .Ltmp136-.Lfunc_begin11        #     jumps to .Ltmp136
	.byte	0                               #   On action: cleanup
	.uleb128 .Ltmp135-.Lfunc_begin11        # >> Call Site 51 <<
	.uleb128 .Ltmp151-.Ltmp135              #   Call between .Ltmp135 and .Ltmp151
	.byte	0                               #     has no landing pad
	.byte	0                               #   On action: cleanup
	.uleb128 .Ltmp151-.Lfunc_begin11        # >> Call Site 52 <<
	.uleb128 .Ltmp152-.Ltmp151              #   Call between .Ltmp151 and .Ltmp152
	.uleb128 .Ltmp153-.Lfunc_begin11        #     jumps to .Ltmp153
	.byte	1                               #   On action: 1
	.uleb128 .Ltmp152-.Lfunc_begin11        # >> Call Site 53 <<
	.uleb128 .Lfunc_end22-.Ltmp152          #   Call between .Ltmp152 and .Lfunc_end22
	.byte	0                               #     has no landing pad
	.byte	0                               #   On action: cleanup
.Lcst_end11:
	.byte	1                               # >> Action Record 1 <<
                                        #   Catch TypeInfo 1
	.byte	0                               #   No further actions
	.p2align	2, 0x0
                                        # >> Catch TypeInfos <<
	.word	0                               # TypeInfo 1
.Lttbase2:
	.p2align	2, 0x0
                                        # -- End function
	.text
	.hidden	_ZN9benchmark22RunSpecifiedBenchmarksENSt7__cxx1112basic_stringIcSt11char_traitsIcESaIcEEE # -- Begin function _ZN9benchmark22RunSpecifiedBenchmarksENSt7__cxx1112basic_stringIcSt11char_traitsIcESaIcEEE
	.globl	_ZN9benchmark22RunSpecifiedBenchmarksENSt7__cxx1112basic_stringIcSt11char_traitsIcESaIcEEE
	.p2align	5
	.type	_ZN9benchmark22RunSpecifiedBenchmarksENSt7__cxx1112basic_stringIcSt11char_traitsIcESaIcEEE,@function
_ZN9benchmark22RunSpecifiedBenchmarksENSt7__cxx1112basic_stringIcSt11char_traitsIcESaIcEEE: # @_ZN9benchmark22RunSpecifiedBenchmarksENSt7__cxx1112basic_stringIcSt11char_traitsIcESaIcEEE
.Lfunc_begin12:
	.cfi_startproc
	.cfi_personality 155, DW.ref.__gxx_personality_v0
	.cfi_lsda 27, .Lexception12
# %bb.0:                                # %entry
	addi.d	$sp, $sp, -80
	.cfi_def_cfa_offset 80
	st.d	$ra, $sp, 72                    # 8-byte Folded Spill
	st.d	$fp, $sp, 64                    # 8-byte Folded Spill
	st.d	$s0, $sp, 56                    # 8-byte Folded Spill
	st.d	$s1, $sp, 48                    # 8-byte Folded Spill
	st.d	$s2, $sp, 40                    # 8-byte Folded Spill
	.cfi_offset 1, -8
	.cfi_offset 22, -16
	.cfi_offset 23, -24
	.cfi_offset 24, -32
	.cfi_offset 25, -40
	move	$s0, $a0
	ld.d	$a0, $a0, 0
	addi.d	$fp, $sp, 24
	addi.d	$s1, $s0, 16
	st.d	$fp, $sp, 8
	beq	$a0, $s1, .LBB23_2
# %bb.1:                                # %if.else.i
	ld.d	$a1, $s0, 16
	ld.d	$s2, $s0, 8
	st.d	$a0, $sp, 8
	st.d	$a1, $sp, 24
	b	.LBB23_3
.LBB23_2:                               # %_ZNSt11char_traitsIcE4copyEPcPKcm.exit.i
	ld.d	$s2, $s0, 8
	addi.d	$a2, $s2, 1
	move	$a0, $fp
	move	$a1, $s1
	pcaddu18i	$ra, %call36(memcpy)
	jirl	$ra, $ra, 0
.LBB23_3:                               # %_ZNSt7__cxx1112basic_stringIcSt11char_traitsIcESaIcEEC2EOS4_.exit
	st.d	$s2, $sp, 16
	st.d	$s1, $s0, 0
	st.d	$zero, $s0, 8
	st.b	$zero, $s0, 16
.Ltmp244:                               # EH_LABEL
	addi.d	$a2, $sp, 8
	move	$a0, $zero
	move	$a1, $zero
	pcaddu18i	$ra, %call36(_ZN9benchmark22RunSpecifiedBenchmarksEPNS_17BenchmarkReporterES1_NSt7__cxx1112basic_stringIcSt11char_traitsIcESaIcEEE)
	jirl	$ra, $ra, 0
.Ltmp245:                               # EH_LABEL
# %bb.4:                                # %invoke.cont
	ld.d	$a2, $sp, 8
	beq	$a2, $fp, .LBB23_6
# %bb.5:                                # %if.then.i.i
	ld.d	$a1, $sp, 24
	addi.d	$a1, $a1, 1
	move	$fp, $a0
	move	$a0, $a2
	pcaddu18i	$ra, %call36(_ZdlPvm)
	jirl	$ra, $ra, 0
	move	$a0, $fp
.LBB23_6:                               # %_ZNSt7__cxx1112basic_stringIcSt11char_traitsIcESaIcEED2Ev.exit
	ld.d	$s2, $sp, 40                    # 8-byte Folded Reload
	ld.d	$s1, $sp, 48                    # 8-byte Folded Reload
	ld.d	$s0, $sp, 56                    # 8-byte Folded Reload
	ld.d	$fp, $sp, 64                    # 8-byte Folded Reload
	ld.d	$ra, $sp, 72                    # 8-byte Folded Reload
	addi.d	$sp, $sp, 80
	ret
.LBB23_7:                               # %lpad
.Ltmp246:                               # EH_LABEL
	ld.d	$a2, $sp, 8
	move	$s0, $a0
	beq	$a2, $fp, .LBB23_9
# %bb.8:                                # %if.then.i.i2
	ld.d	$a0, $sp, 24
	addi.d	$a1, $a0, 1
	move	$a0, $a2
	pcaddu18i	$ra, %call36(_ZdlPvm)
	jirl	$ra, $ra, 0
.LBB23_9:                               # %_ZNSt7__cxx1112basic_stringIcSt11char_traitsIcESaIcEED2Ev.exit7
	move	$a0, $s0
	pcaddu18i	$ra, %call36(_Unwind_Resume)
	jirl	$ra, $ra, 0
.Lfunc_end23:
	.size	_ZN9benchmark22RunSpecifiedBenchmarksENSt7__cxx1112basic_stringIcSt11char_traitsIcESaIcEEE, .Lfunc_end23-_ZN9benchmark22RunSpecifiedBenchmarksENSt7__cxx1112basic_stringIcSt11char_traitsIcESaIcEEE
	.cfi_endproc
	.section	.gcc_except_table,"a",@progbits
	.p2align	2, 0x0
GCC_except_table23:
.Lexception12:
	.byte	255                             # @LPStart Encoding = omit
	.byte	255                             # @TType Encoding = omit
	.byte	1                               # Call site Encoding = uleb128
	.uleb128 .Lcst_end12-.Lcst_begin12
.Lcst_begin12:
	.uleb128 .Lfunc_begin12-.Lfunc_begin12  # >> Call Site 1 <<
	.uleb128 .Ltmp244-.Lfunc_begin12        #   Call between .Lfunc_begin12 and .Ltmp244
	.byte	0                               #     has no landing pad
	.byte	0                               #   On action: cleanup
	.uleb128 .Ltmp244-.Lfunc_begin12        # >> Call Site 2 <<
	.uleb128 .Ltmp245-.Ltmp244              #   Call between .Ltmp244 and .Ltmp245
	.uleb128 .Ltmp246-.Lfunc_begin12        #     jumps to .Ltmp246
	.byte	0                               #   On action: cleanup
	.uleb128 .Ltmp245-.Lfunc_begin12        # >> Call Site 3 <<
	.uleb128 .Lfunc_end23-.Ltmp245          #   Call between .Ltmp245 and .Lfunc_end23
	.byte	0                               #     has no landing pad
	.byte	0                               #   On action: cleanup
.Lcst_end12:
	.p2align	2, 0x0
                                        # -- End function
	.text
	.hidden	_ZN9benchmark22RunSpecifiedBenchmarksEPNS_17BenchmarkReporterE # -- Begin function _ZN9benchmark22RunSpecifiedBenchmarksEPNS_17BenchmarkReporterE
	.globl	_ZN9benchmark22RunSpecifiedBenchmarksEPNS_17BenchmarkReporterE
	.p2align	5
	.type	_ZN9benchmark22RunSpecifiedBenchmarksEPNS_17BenchmarkReporterE,@function
_ZN9benchmark22RunSpecifiedBenchmarksEPNS_17BenchmarkReporterE: # @_ZN9benchmark22RunSpecifiedBenchmarksEPNS_17BenchmarkReporterE
.Lfunc_begin13:
	.cfi_startproc
	.cfi_personality 155, DW.ref.__gxx_personality_v0
	.cfi_lsda 27, .Lexception13
# %bb.0:                                # %entry
	addi.d	$sp, $sp, -80
	.cfi_def_cfa_offset 80
	st.d	$ra, $sp, 72                    # 8-byte Folded Spill
	st.d	$fp, $sp, 64                    # 8-byte Folded Spill
	st.d	$s0, $sp, 56                    # 8-byte Folded Spill
	st.d	$s1, $sp, 48                    # 8-byte Folded Spill
	.cfi_offset 1, -8
	.cfi_offset 22, -16
	.cfi_offset 23, -24
	.cfi_offset 24, -32
	move	$fp, $a0
	addi.d	$s1, $sp, 24
	pcalau12i	$a0, %pc_hi20(_ZN9benchmark22FLAGS_benchmark_filterB5cxx11E)
	addi.d	$a0, $a0, %pc_lo12(_ZN9benchmark22FLAGS_benchmark_filterB5cxx11E)
	ld.d	$a1, $a0, 8
	ld.d	$s0, $a0, 0
	st.d	$s1, $sp, 8
	ori	$a2, $zero, 16
	st.d	$a1, $sp, 40
	move	$a0, $s1
	bltu	$a1, $a2, .LBB24_2
# %bb.1:                                # %if.then.i.i
	addi.d	$a0, $sp, 8
	addi.d	$a1, $sp, 40
	move	$a2, $zero
	pcaddu18i	$ra, %call36(_ZNSt7__cxx1112basic_stringIcSt11char_traitsIcESaIcEE9_M_createERmm)
	jirl	$ra, $ra, 0
	ld.d	$a1, $sp, 40
	st.d	$a0, $sp, 8
	st.d	$a1, $sp, 24
.LBB24_2:                               # %if.end.i.i
	addi.w	$a2, $zero, -1
	beq	$a1, $a2, .LBB24_6
# %bb.3:                                # %if.end.i.i
	bnez	$a1, .LBB24_5
# %bb.4:                                # %if.then.i.i.i
	ld.b	$a1, $s0, 0
	st.b	$a1, $a0, 0
	b	.LBB24_6
.LBB24_5:                               # %if.end.i.i.i.i
	addi.d	$a2, $a1, 1
	move	$a1, $s0
	pcaddu18i	$ra, %call36(memcpy)
	jirl	$ra, $ra, 0
.LBB24_6:                               # %_ZNSt7__cxx1112basic_stringIcSt11char_traitsIcESaIcEEC2ERKS4_.exit
	ld.d	$a0, $sp, 40
	st.d	$a0, $sp, 16
.Ltmp247:                               # EH_LABEL
	addi.d	$a2, $sp, 8
	move	$a0, $fp
	move	$a1, $zero
	pcaddu18i	$ra, %call36(_ZN9benchmark22RunSpecifiedBenchmarksEPNS_17BenchmarkReporterES1_NSt7__cxx1112basic_stringIcSt11char_traitsIcESaIcEEE)
	jirl	$ra, $ra, 0
.Ltmp248:                               # EH_LABEL
# %bb.7:                                # %invoke.cont
	ld.d	$a2, $sp, 8
	beq	$a2, $s1, .LBB24_9
# %bb.8:                                # %if.then.i.i2
	ld.d	$a1, $sp, 24
	addi.d	$a1, $a1, 1
	move	$fp, $a0
	move	$a0, $a2
	pcaddu18i	$ra, %call36(_ZdlPvm)
	jirl	$ra, $ra, 0
	move	$a0, $fp
.LBB24_9:                               # %_ZNSt7__cxx1112basic_stringIcSt11char_traitsIcESaIcEED2Ev.exit
	ld.d	$s1, $sp, 48                    # 8-byte Folded Reload
	ld.d	$s0, $sp, 56                    # 8-byte Folded Reload
	ld.d	$fp, $sp, 64                    # 8-byte Folded Reload
	ld.d	$ra, $sp, 72                    # 8-byte Folded Reload
	addi.d	$sp, $sp, 80
	ret
.LBB24_10:                              # %lpad
.Ltmp249:                               # EH_LABEL
	ld.d	$a2, $sp, 8
	move	$fp, $a0
	beq	$a2, $s1, .LBB24_12
# %bb.11:                               # %if.then.i.i4
	ld.d	$a0, $sp, 24
	addi.d	$a1, $a0, 1
	move	$a0, $a2
	pcaddu18i	$ra, %call36(_ZdlPvm)
	jirl	$ra, $ra, 0
.LBB24_12:                              # %_ZNSt7__cxx1112basic_stringIcSt11char_traitsIcESaIcEED2Ev.exit9
	move	$a0, $fp
	pcaddu18i	$ra, %call36(_Unwind_Resume)
	jirl	$ra, $ra, 0
.Lfunc_end24:
	.size	_ZN9benchmark22RunSpecifiedBenchmarksEPNS_17BenchmarkReporterE, .Lfunc_end24-_ZN9benchmark22RunSpecifiedBenchmarksEPNS_17BenchmarkReporterE
	.cfi_endproc
	.section	.gcc_except_table,"a",@progbits
	.p2align	2, 0x0
GCC_except_table24:
.Lexception13:
	.byte	255                             # @LPStart Encoding = omit
	.byte	255                             # @TType Encoding = omit
	.byte	1                               # Call site Encoding = uleb128
	.uleb128 .Lcst_end13-.Lcst_begin13
.Lcst_begin13:
	.uleb128 .Lfunc_begin13-.Lfunc_begin13  # >> Call Site 1 <<
	.uleb128 .Ltmp247-.Lfunc_begin13        #   Call between .Lfunc_begin13 and .Ltmp247
	.byte	0                               #     has no landing pad
	.byte	0                               #   On action: cleanup
	.uleb128 .Ltmp247-.Lfunc_begin13        # >> Call Site 2 <<
	.uleb128 .Ltmp248-.Ltmp247              #   Call between .Ltmp247 and .Ltmp248
	.uleb128 .Ltmp249-.Lfunc_begin13        #     jumps to .Ltmp249
	.byte	0                               #   On action: cleanup
	.uleb128 .Ltmp248-.Lfunc_begin13        # >> Call Site 3 <<
	.uleb128 .Lfunc_end24-.Ltmp248          #   Call between .Ltmp248 and .Lfunc_end24
	.byte	0                               #     has no landing pad
	.byte	0                               #   On action: cleanup
.Lcst_end13:
	.p2align	2, 0x0
                                        # -- End function
	.text
	.hidden	_ZN9benchmark22RunSpecifiedBenchmarksEPNS_17BenchmarkReporterENSt7__cxx1112basic_stringIcSt11char_traitsIcESaIcEEE # -- Begin function _ZN9benchmark22RunSpecifiedBenchmarksEPNS_17BenchmarkReporterENSt7__cxx1112basic_stringIcSt11char_traitsIcESaIcEEE
	.globl	_ZN9benchmark22RunSpecifiedBenchmarksEPNS_17BenchmarkReporterENSt7__cxx1112basic_stringIcSt11char_traitsIcESaIcEEE
	.p2align	5
	.type	_ZN9benchmark22RunSpecifiedBenchmarksEPNS_17BenchmarkReporterENSt7__cxx1112basic_stringIcSt11char_traitsIcESaIcEEE,@function
_ZN9benchmark22RunSpecifiedBenchmarksEPNS_17BenchmarkReporterENSt7__cxx1112basic_stringIcSt11char_traitsIcESaIcEEE: # @_ZN9benchmark22RunSpecifiedBenchmarksEPNS_17BenchmarkReporterENSt7__cxx1112basic_stringIcSt11char_traitsIcESaIcEEE
.Lfunc_begin14:
	.cfi_startproc
	.cfi_personality 155, DW.ref.__gxx_personality_v0
	.cfi_lsda 27, .Lexception14
# %bb.0:                                # %entry
	addi.d	$sp, $sp, -96
	.cfi_def_cfa_offset 96
	st.d	$ra, $sp, 88                    # 8-byte Folded Spill
	st.d	$fp, $sp, 80                    # 8-byte Folded Spill
	st.d	$s0, $sp, 72                    # 8-byte Folded Spill
	st.d	$s1, $sp, 64                    # 8-byte Folded Spill
	st.d	$s2, $sp, 56                    # 8-byte Folded Spill
	st.d	$s3, $sp, 48                    # 8-byte Folded Spill
	.cfi_offset 1, -8
	.cfi_offset 22, -16
	.cfi_offset 23, -24
	.cfi_offset 24, -32
	.cfi_offset 25, -40
	.cfi_offset 26, -48
	move	$s0, $a1
	ld.d	$a1, $a1, 0
	addi.d	$fp, $sp, 32
	addi.d	$s1, $s0, 16
	st.d	$fp, $sp, 16
	beq	$a1, $s1, .LBB25_2
# %bb.1:                                # %if.else.i
	ld.d	$a2, $s0, 16
	ld.d	$s2, $s0, 8
	st.d	$a1, $sp, 16
	st.d	$a2, $sp, 32
	b	.LBB25_3
.LBB25_2:                               # %_ZNSt11char_traitsIcE4copyEPcPKcm.exit.i
	ld.d	$s2, $s0, 8
	addi.d	$a2, $s2, 1
	move	$s3, $a0
	move	$a0, $fp
	move	$a1, $s1
	pcaddu18i	$ra, %call36(memcpy)
	jirl	$ra, $ra, 0
	move	$a0, $s3
.LBB25_3:                               # %_ZNSt7__cxx1112basic_stringIcSt11char_traitsIcESaIcEEC2EOS4_.exit
	st.d	$s2, $sp, 24
	st.d	$s1, $s0, 0
	st.d	$zero, $s0, 8
	st.b	$zero, $s0, 16
.Ltmp250:                               # EH_LABEL
	addi.d	$a2, $sp, 16
	move	$a1, $zero
	pcaddu18i	$ra, %call36(_ZN9benchmark22RunSpecifiedBenchmarksEPNS_17BenchmarkReporterES1_NSt7__cxx1112basic_stringIcSt11char_traitsIcESaIcEEE)
	jirl	$ra, $ra, 0
.Ltmp251:                               # EH_LABEL
# %bb.4:                                # %invoke.cont
	ld.d	$a2, $sp, 16
	beq	$a2, $fp, .LBB25_6
# %bb.5:                                # %if.then.i.i
	ld.d	$a1, $sp, 32
	addi.d	$a1, $a1, 1
	move	$fp, $a0
	move	$a0, $a2
	pcaddu18i	$ra, %call36(_ZdlPvm)
	jirl	$ra, $ra, 0
	move	$a0, $fp
.LBB25_6:                               # %_ZNSt7__cxx1112basic_stringIcSt11char_traitsIcESaIcEED2Ev.exit
	ld.d	$s3, $sp, 48                    # 8-byte Folded Reload
	ld.d	$s2, $sp, 56                    # 8-byte Folded Reload
	ld.d	$s1, $sp, 64                    # 8-byte Folded Reload
	ld.d	$s0, $sp, 72                    # 8-byte Folded Reload
	ld.d	$fp, $sp, 80                    # 8-byte Folded Reload
	ld.d	$ra, $sp, 88                    # 8-byte Folded Reload
	addi.d	$sp, $sp, 96
	ret
.LBB25_7:                               # %lpad
.Ltmp252:                               # EH_LABEL
	ld.d	$a2, $sp, 16
	move	$s0, $a0
	beq	$a2, $fp, .LBB25_9
# %bb.8:                                # %if.then.i.i2
	ld.d	$a0, $sp, 32
	addi.d	$a1, $a0, 1
	move	$a0, $a2
	pcaddu18i	$ra, %call36(_ZdlPvm)
	jirl	$ra, $ra, 0
.LBB25_9:                               # %_ZNSt7__cxx1112basic_stringIcSt11char_traitsIcESaIcEED2Ev.exit7
	move	$a0, $s0
	pcaddu18i	$ra, %call36(_Unwind_Resume)
	jirl	$ra, $ra, 0
.Lfunc_end25:
	.size	_ZN9benchmark22RunSpecifiedBenchmarksEPNS_17BenchmarkReporterENSt7__cxx1112basic_stringIcSt11char_traitsIcESaIcEEE, .Lfunc_end25-_ZN9benchmark22RunSpecifiedBenchmarksEPNS_17BenchmarkReporterENSt7__cxx1112basic_stringIcSt11char_traitsIcESaIcEEE
	.cfi_endproc
	.section	.gcc_except_table,"a",@progbits
	.p2align	2, 0x0
GCC_except_table25:
.Lexception14:
	.byte	255                             # @LPStart Encoding = omit
	.byte	255                             # @TType Encoding = omit
	.byte	1                               # Call site Encoding = uleb128
	.uleb128 .Lcst_end14-.Lcst_begin14
.Lcst_begin14:
	.uleb128 .Lfunc_begin14-.Lfunc_begin14  # >> Call Site 1 <<
	.uleb128 .Ltmp250-.Lfunc_begin14        #   Call between .Lfunc_begin14 and .Ltmp250
	.byte	0                               #     has no landing pad
	.byte	0                               #   On action: cleanup
	.uleb128 .Ltmp250-.Lfunc_begin14        # >> Call Site 2 <<
	.uleb128 .Ltmp251-.Ltmp250              #   Call between .Ltmp250 and .Ltmp251
	.uleb128 .Ltmp252-.Lfunc_begin14        #     jumps to .Ltmp252
	.byte	0                               #   On action: cleanup
	.uleb128 .Ltmp251-.Lfunc_begin14        # >> Call Site 3 <<
	.uleb128 .Lfunc_end25-.Ltmp251          #   Call between .Ltmp251 and .Lfunc_end25
	.byte	0                               #     has no landing pad
	.byte	0                               #   On action: cleanup
.Lcst_end14:
	.p2align	2, 0x0
                                        # -- End function
	.text
	.hidden	_ZN9benchmark22RunSpecifiedBenchmarksEPNS_17BenchmarkReporterES1_ # -- Begin function _ZN9benchmark22RunSpecifiedBenchmarksEPNS_17BenchmarkReporterES1_
	.globl	_ZN9benchmark22RunSpecifiedBenchmarksEPNS_17BenchmarkReporterES1_
	.p2align	5
	.type	_ZN9benchmark22RunSpecifiedBenchmarksEPNS_17BenchmarkReporterES1_,@function
_ZN9benchmark22RunSpecifiedBenchmarksEPNS_17BenchmarkReporterES1_: # @_ZN9benchmark22RunSpecifiedBenchmarksEPNS_17BenchmarkReporterES1_
.Lfunc_begin15:
	.cfi_startproc
	.cfi_personality 155, DW.ref.__gxx_personality_v0
	.cfi_lsda 27, .Lexception15
# %bb.0:                                # %entry
	addi.d	$sp, $sp, -96
	.cfi_def_cfa_offset 96
	st.d	$ra, $sp, 88                    # 8-byte Folded Spill
	st.d	$fp, $sp, 80                    # 8-byte Folded Spill
	st.d	$s0, $sp, 72                    # 8-byte Folded Spill
	st.d	$s1, $sp, 64                    # 8-byte Folded Spill
	st.d	$s2, $sp, 56                    # 8-byte Folded Spill
	.cfi_offset 1, -8
	.cfi_offset 22, -16
	.cfi_offset 23, -24
	.cfi_offset 24, -32
	.cfi_offset 25, -40
	move	$fp, $a1
	move	$s0, $a0
	addi.d	$s2, $sp, 32
	pcalau12i	$a0, %pc_hi20(_ZN9benchmark22FLAGS_benchmark_filterB5cxx11E)
	addi.d	$a0, $a0, %pc_lo12(_ZN9benchmark22FLAGS_benchmark_filterB5cxx11E)
	ld.d	$a1, $a0, 8
	ld.d	$s1, $a0, 0
	st.d	$s2, $sp, 16
	ori	$a2, $zero, 16
	st.d	$a1, $sp, 48
	move	$a0, $s2
	bltu	$a1, $a2, .LBB26_2
# %bb.1:                                # %if.then.i.i
	addi.d	$a0, $sp, 16
	addi.d	$a1, $sp, 48
	move	$a2, $zero
	pcaddu18i	$ra, %call36(_ZNSt7__cxx1112basic_stringIcSt11char_traitsIcESaIcEE9_M_createERmm)
	jirl	$ra, $ra, 0
	ld.d	$a1, $sp, 48
	st.d	$a0, $sp, 16
	st.d	$a1, $sp, 32
.LBB26_2:                               # %if.end.i.i
	addi.w	$a2, $zero, -1
	beq	$a1, $a2, .LBB26_6
# %bb.3:                                # %if.end.i.i
	bnez	$a1, .LBB26_5
# %bb.4:                                # %if.then.i.i.i
	ld.b	$a1, $s1, 0
	st.b	$a1, $a0, 0
	b	.LBB26_6
.LBB26_5:                               # %if.end.i.i.i.i
	addi.d	$a2, $a1, 1
	move	$a1, $s1
	pcaddu18i	$ra, %call36(memcpy)
	jirl	$ra, $ra, 0
.LBB26_6:                               # %_ZNSt7__cxx1112basic_stringIcSt11char_traitsIcESaIcEEC2ERKS4_.exit
	ld.d	$a0, $sp, 48
	st.d	$a0, $sp, 24
.Ltmp253:                               # EH_LABEL
	addi.d	$a2, $sp, 16
	move	$a0, $s0
	move	$a1, $fp
	pcaddu18i	$ra, %call36(_ZN9benchmark22RunSpecifiedBenchmarksEPNS_17BenchmarkReporterES1_NSt7__cxx1112basic_stringIcSt11char_traitsIcESaIcEEE)
	jirl	$ra, $ra, 0
.Ltmp254:                               # EH_LABEL
# %bb.7:                                # %invoke.cont
	ld.d	$a2, $sp, 16
	beq	$a2, $s2, .LBB26_9
# %bb.8:                                # %if.then.i.i2
	ld.d	$a1, $sp, 32
	addi.d	$a1, $a1, 1
	move	$fp, $a0
	move	$a0, $a2
	pcaddu18i	$ra, %call36(_ZdlPvm)
	jirl	$ra, $ra, 0
	move	$a0, $fp
.LBB26_9:                               # %_ZNSt7__cxx1112basic_stringIcSt11char_traitsIcESaIcEED2Ev.exit
	ld.d	$s2, $sp, 56                    # 8-byte Folded Reload
	ld.d	$s1, $sp, 64                    # 8-byte Folded Reload
	ld.d	$s0, $sp, 72                    # 8-byte Folded Reload
	ld.d	$fp, $sp, 80                    # 8-byte Folded Reload
	ld.d	$ra, $sp, 88                    # 8-byte Folded Reload
	addi.d	$sp, $sp, 96
	ret
.LBB26_10:                              # %lpad
.Ltmp255:                               # EH_LABEL
	ld.d	$a2, $sp, 16
	move	$fp, $a0
	beq	$a2, $s2, .LBB26_12
# %bb.11:                               # %if.then.i.i4
	ld.d	$a0, $sp, 32
	addi.d	$a1, $a0, 1
	move	$a0, $a2
	pcaddu18i	$ra, %call36(_ZdlPvm)
	jirl	$ra, $ra, 0
.LBB26_12:                              # %_ZNSt7__cxx1112basic_stringIcSt11char_traitsIcESaIcEED2Ev.exit9
	move	$a0, $fp
	pcaddu18i	$ra, %call36(_Unwind_Resume)
	jirl	$ra, $ra, 0
.Lfunc_end26:
	.size	_ZN9benchmark22RunSpecifiedBenchmarksEPNS_17BenchmarkReporterES1_, .Lfunc_end26-_ZN9benchmark22RunSpecifiedBenchmarksEPNS_17BenchmarkReporterES1_
	.cfi_endproc
	.section	.gcc_except_table,"a",@progbits
	.p2align	2, 0x0
GCC_except_table26:
.Lexception15:
	.byte	255                             # @LPStart Encoding = omit
	.byte	255                             # @TType Encoding = omit
	.byte	1                               # Call site Encoding = uleb128
	.uleb128 .Lcst_end15-.Lcst_begin15
.Lcst_begin15:
	.uleb128 .Lfunc_begin15-.Lfunc_begin15  # >> Call Site 1 <<
	.uleb128 .Ltmp253-.Lfunc_begin15        #   Call between .Lfunc_begin15 and .Ltmp253
	.byte	0                               #     has no landing pad
	.byte	0                               #   On action: cleanup
	.uleb128 .Ltmp253-.Lfunc_begin15        # >> Call Site 2 <<
	.uleb128 .Ltmp254-.Ltmp253              #   Call between .Ltmp253 and .Ltmp254
	.uleb128 .Ltmp255-.Lfunc_begin15        #     jumps to .Ltmp255
	.byte	0                               #   On action: cleanup
	.uleb128 .Ltmp254-.Lfunc_begin15        # >> Call Site 3 <<
	.uleb128 .Lfunc_end26-.Ltmp254          #   Call between .Ltmp254 and .Lfunc_end26
	.byte	0                               #     has no landing pad
	.byte	0                               #   On action: cleanup
.Lcst_end15:
	.p2align	2, 0x0
                                        # -- End function
	.section	.text._ZNSt6vectorIN9benchmark8internal17BenchmarkInstanceESaIS2_EED2Ev,"axG",@progbits,_ZNSt6vectorIN9benchmark8internal17BenchmarkInstanceESaIS2_EED2Ev,comdat
	.hidden	_ZNSt6vectorIN9benchmark8internal17BenchmarkInstanceESaIS2_EED2Ev # -- Begin function _ZNSt6vectorIN9benchmark8internal17BenchmarkInstanceESaIS2_EED2Ev
	.weak	_ZNSt6vectorIN9benchmark8internal17BenchmarkInstanceESaIS2_EED2Ev
	.p2align	2
	.type	_ZNSt6vectorIN9benchmark8internal17BenchmarkInstanceESaIS2_EED2Ev,@function
_ZNSt6vectorIN9benchmark8internal17BenchmarkInstanceESaIS2_EED2Ev: # @_ZNSt6vectorIN9benchmark8internal17BenchmarkInstanceESaIS2_EED2Ev
.Lfunc_begin16:
	.cfi_startproc
	.cfi_personality 155, DW.ref.__gxx_personality_v0
	.cfi_lsda 27, .Lexception16
# %bb.0:                                # %entry
	addi.d	$sp, $sp, -32
	.cfi_def_cfa_offset 32
	st.d	$ra, $sp, 24                    # 8-byte Folded Spill
	st.d	$fp, $sp, 16                    # 8-byte Folded Spill
	st.d	$s0, $sp, 8                     # 8-byte Folded Spill
	st.d	$s1, $sp, 0                     # 8-byte Folded Spill
	.cfi_offset 1, -8
	.cfi_offset 22, -16
	.cfi_offset 23, -24
	.cfi_offset 24, -32
	move	$fp, $a0
	ld.d	$a0, $a0, 0
	ld.d	$s1, $fp, 8
	beq	$a0, $s1, .LBB27_5
# %bb.1:                                # %for.body.i.preheader
	addi.d	$s0, $a0, 312
	.p2align	4, , 16
.LBB27_2:                               # %for.body.i
                                        # =>This Inner Loop Header: Depth=1
	ld.d	$a1, $s0, 16
.Ltmp256:                               # EH_LABEL
	move	$a0, $s0
	pcaddu18i	$ra, %call36(_ZNSt8_Rb_treeINSt7__cxx1112basic_stringIcSt11char_traitsIcESaIcEEESt4pairIKS5_N9benchmark7CounterEESt10_Select1stISA_ESt4lessIS5_ESaISA_EE8_M_eraseEPSt13_Rb_tree_nodeISA_E)
	jirl	$ra, $ra, 0
.Ltmp257:                               # EH_LABEL
# %bb.3:                                # %_ZSt8_DestroyIN9benchmark8internal17BenchmarkInstanceEEvPT_.exit.i
                                        #   in Loop: Header=BB27_2 Depth=1
	addi.d	$a0, $s0, -312
	pcaddu18i	$ra, %call36(_ZN9benchmark13BenchmarkNameD2Ev)
	jirl	$ra, $ra, 0
	addi.d	$a0, $s0, 112
	addi.d	$s0, $s0, 424
	bne	$a0, $s1, .LBB27_2
# %bb.4:                                # %invoke.contthread-pre-split
	ld.d	$a0, $fp, 0
.LBB27_5:                               # %invoke.cont
	beqz	$a0, .LBB27_7
# %bb.6:                                # %if.then.i.i
	ld.d	$a1, $fp, 16
	sub.d	$a1, $a1, $a0
	ld.d	$s1, $sp, 0                     # 8-byte Folded Reload
	ld.d	$s0, $sp, 8                     # 8-byte Folded Reload
	ld.d	$fp, $sp, 16                    # 8-byte Folded Reload
	ld.d	$ra, $sp, 24                    # 8-byte Folded Reload
	addi.d	$sp, $sp, 32
	pcaddu18i	$t8, %call36(_ZdlPvm)
	jr	$t8
.LBB27_7:                               # %_ZNSt12_Vector_baseIN9benchmark8internal17BenchmarkInstanceESaIS2_EED2Ev.exit
	ld.d	$s1, $sp, 0                     # 8-byte Folded Reload
	ld.d	$s0, $sp, 8                     # 8-byte Folded Reload
	ld.d	$fp, $sp, 16                    # 8-byte Folded Reload
	ld.d	$ra, $sp, 24                    # 8-byte Folded Reload
	addi.d	$sp, $sp, 32
	ret
.LBB27_8:                               # %terminate.lpad.i.i.i.i.i
.Ltmp258:                               # EH_LABEL
	pcaddu18i	$ra, %call36(__clang_call_terminate)
	jirl	$ra, $ra, 0
.Lfunc_end27:
	.size	_ZNSt6vectorIN9benchmark8internal17BenchmarkInstanceESaIS2_EED2Ev, .Lfunc_end27-_ZNSt6vectorIN9benchmark8internal17BenchmarkInstanceESaIS2_EED2Ev
	.cfi_endproc
	.section	.gcc_except_table._ZNSt6vectorIN9benchmark8internal17BenchmarkInstanceESaIS2_EED2Ev,"aG",@progbits,_ZNSt6vectorIN9benchmark8internal17BenchmarkInstanceESaIS2_EED2Ev,comdat
	.p2align	2, 0x0
GCC_except_table27:
.Lexception16:
	.byte	255                             # @LPStart Encoding = omit
	.byte	155                             # @TType Encoding = indirect pcrel sdata4
	.uleb128 .Lttbase3-.Lttbaseref3
.Lttbaseref3:
	.byte	1                               # Call site Encoding = uleb128
	.uleb128 .Lcst_end16-.Lcst_begin16
.Lcst_begin16:
	.uleb128 .Ltmp256-.Lfunc_begin16        # >> Call Site 1 <<
	.uleb128 .Ltmp257-.Ltmp256              #   Call between .Ltmp256 and .Ltmp257
	.uleb128 .Ltmp258-.Lfunc_begin16        #     jumps to .Ltmp258
	.byte	1                               #   On action: 1
	.uleb128 .Ltmp257-.Lfunc_begin16        # >> Call Site 2 <<
	.uleb128 .Lfunc_end27-.Ltmp257          #   Call between .Ltmp257 and .Lfunc_end27
	.byte	0                               #     has no landing pad
	.byte	0                               #   On action: cleanup
.Lcst_end16:
	.byte	1                               # >> Action Record 1 <<
                                        #   Catch TypeInfo 1
	.byte	0                               #   No further actions
	.p2align	2, 0x0
                                        # >> Catch TypeInfos <<
	.word	0                               # TypeInfo 1
.Lttbase3:
	.p2align	2, 0x0
                                        # -- End function
	.text
	.hidden	_ZN9benchmark18GetDefaultTimeUnitEv # -- Begin function _ZN9benchmark18GetDefaultTimeUnitEv
	.globl	_ZN9benchmark18GetDefaultTimeUnitEv
	.p2align	5
	.type	_ZN9benchmark18GetDefaultTimeUnitEv,@function
_ZN9benchmark18GetDefaultTimeUnitEv:    # @_ZN9benchmark18GetDefaultTimeUnitEv
# %bb.0:                                # %entry
	pcalau12i	$a0, %pc_hi20(_ZN9benchmark12_GLOBAL__N_117default_time_unitE)
	ld.w	$a0, $a0, %pc_lo12(_ZN9benchmark12_GLOBAL__N_117default_time_unitE)
	ret
.Lfunc_end28:
	.size	_ZN9benchmark18GetDefaultTimeUnitEv, .Lfunc_end28-_ZN9benchmark18GetDefaultTimeUnitEv
                                        # -- End function
	.hidden	_ZN9benchmark18SetDefaultTimeUnitENS_8TimeUnitE # -- Begin function _ZN9benchmark18SetDefaultTimeUnitENS_8TimeUnitE
	.globl	_ZN9benchmark18SetDefaultTimeUnitENS_8TimeUnitE
	.p2align	5
	.type	_ZN9benchmark18SetDefaultTimeUnitENS_8TimeUnitE,@function
_ZN9benchmark18SetDefaultTimeUnitENS_8TimeUnitE: # @_ZN9benchmark18SetDefaultTimeUnitENS_8TimeUnitE
# %bb.0:                                # %entry
	pcalau12i	$a1, %pc_hi20(_ZN9benchmark12_GLOBAL__N_117default_time_unitE)
	st.w	$a0, $a1, %pc_lo12(_ZN9benchmark12_GLOBAL__N_117default_time_unitE)
	ret
.Lfunc_end29:
	.size	_ZN9benchmark18SetDefaultTimeUnitENS_8TimeUnitE, .Lfunc_end29-_ZN9benchmark18SetDefaultTimeUnitENS_8TimeUnitE
                                        # -- End function
	.hidden	_ZN9benchmark18GetBenchmarkFilterB5cxx11Ev # -- Begin function _ZN9benchmark18GetBenchmarkFilterB5cxx11Ev
	.globl	_ZN9benchmark18GetBenchmarkFilterB5cxx11Ev
	.p2align	5
	.type	_ZN9benchmark18GetBenchmarkFilterB5cxx11Ev,@function
_ZN9benchmark18GetBenchmarkFilterB5cxx11Ev: # @_ZN9benchmark18GetBenchmarkFilterB5cxx11Ev
	.cfi_startproc
# %bb.0:                                # %entry
	addi.d	$sp, $sp, -32
	.cfi_def_cfa_offset 32
	st.d	$ra, $sp, 24                    # 8-byte Folded Spill
	st.d	$fp, $sp, 16                    # 8-byte Folded Spill
	st.d	$s0, $sp, 8                     # 8-byte Folded Spill
	.cfi_offset 1, -8
	.cfi_offset 22, -16
	.cfi_offset 23, -24
	move	$fp, $a0
	addi.d	$a0, $a0, 16
	pcalau12i	$a1, %pc_hi20(_ZN9benchmark22FLAGS_benchmark_filterB5cxx11E)
	addi.d	$a2, $a1, %pc_lo12(_ZN9benchmark22FLAGS_benchmark_filterB5cxx11E)
	ld.d	$a1, $a2, 8
	ld.d	$s0, $a2, 0
	st.d	$a0, $fp, 0
	ori	$a2, $zero, 16
	st.d	$a1, $sp, 0
	bltu	$a1, $a2, .LBB30_2
# %bb.1:                                # %if.then.i.i
	addi.d	$a1, $sp, 0
	move	$a0, $fp
	move	$a2, $zero
	pcaddu18i	$ra, %call36(_ZNSt7__cxx1112basic_stringIcSt11char_traitsIcESaIcEE9_M_createERmm)
	jirl	$ra, $ra, 0
	ld.d	$a1, $sp, 0
	st.d	$a0, $fp, 0
	st.d	$a1, $fp, 16
.LBB30_2:                               # %if.end.i.i
	addi.w	$a2, $zero, -1
	beq	$a1, $a2, .LBB30_6
# %bb.3:                                # %if.end.i.i
	bnez	$a1, .LBB30_5
# %bb.4:                                # %if.then.i.i.i
	ld.b	$a1, $s0, 0
	st.b	$a1, $a0, 0
	b	.LBB30_6
.LBB30_5:                               # %if.end.i.i.i.i
	addi.d	$a2, $a1, 1
	move	$a1, $s0
	pcaddu18i	$ra, %call36(memcpy)
	jirl	$ra, $ra, 0
.LBB30_6:                               # %_ZNSt7__cxx1112basic_stringIcSt11char_traitsIcESaIcEEC2ERKS4_.exit
	ld.d	$a0, $sp, 0
	st.d	$a0, $fp, 8
	ld.d	$s0, $sp, 8                     # 8-byte Folded Reload
	ld.d	$fp, $sp, 16                    # 8-byte Folded Reload
	ld.d	$ra, $sp, 24                    # 8-byte Folded Reload
	addi.d	$sp, $sp, 32
	ret
.Lfunc_end30:
	.size	_ZN9benchmark18GetBenchmarkFilterB5cxx11Ev, .Lfunc_end30-_ZN9benchmark18GetBenchmarkFilterB5cxx11Ev
	.cfi_endproc
                                        # -- End function
	.hidden	_ZN9benchmark18SetBenchmarkFilterENSt7__cxx1112basic_stringIcSt11char_traitsIcESaIcEEE # -- Begin function _ZN9benchmark18SetBenchmarkFilterENSt7__cxx1112basic_stringIcSt11char_traitsIcESaIcEEE
	.globl	_ZN9benchmark18SetBenchmarkFilterENSt7__cxx1112basic_stringIcSt11char_traitsIcESaIcEEE
	.p2align	5
	.type	_ZN9benchmark18SetBenchmarkFilterENSt7__cxx1112basic_stringIcSt11char_traitsIcESaIcEEE,@function
_ZN9benchmark18SetBenchmarkFilterENSt7__cxx1112basic_stringIcSt11char_traitsIcESaIcEEE: # @_ZN9benchmark18SetBenchmarkFilterENSt7__cxx1112basic_stringIcSt11char_traitsIcESaIcEEE
	.cfi_startproc
# %bb.0:                                # %entry
	addi.d	$sp, $sp, -32
	.cfi_def_cfa_offset 32
	st.d	$ra, $sp, 24                    # 8-byte Folded Spill
	st.d	$fp, $sp, 16                    # 8-byte Folded Spill
	st.d	$s0, $sp, 8                     # 8-byte Folded Spill
	.cfi_offset 1, -8
	.cfi_offset 22, -16
	.cfi_offset 23, -24
	pcalau12i	$a1, %pc_hi20(_ZN9benchmark22FLAGS_benchmark_filterB5cxx11E)
	addi.d	$fp, $a1, %pc_lo12(_ZN9benchmark22FLAGS_benchmark_filterB5cxx11E)
	ld.d	$a3, $fp, 0
	addi.d	$a1, $fp, 16
	beq	$a3, $a1, .LBB31_3
# %bb.1:                                # %invoke.cont.thread.i
	ld.d	$a1, $a0, 0
	addi.d	$a2, $a0, 16
	beq	$a1, $a2, .LBB31_7
# %bb.2:                                # %if.then21.i
	ld.d	$a4, $fp, 16
	b	.LBB31_5
.LBB31_3:                               # %invoke.cont.i
	ld.d	$a1, $a0, 0
	addi.d	$a2, $a0, 16
	beq	$a1, $a2, .LBB31_7
# %bb.4:
	move	$a3, $zero
                                        # implicit-def: $r8
.LBB31_5:                               # %if.end23.i
	ld.d	$a5, $a0, 8
	ld.d	$a6, $a0, 16
	st.d	$a1, $fp, 0
	st.d	$a5, $fp, 8
	st.d	$a6, $fp, 16
	beqz	$a3, .LBB31_11
# %bb.6:                                # %if.then27.i
	st.d	$a3, $a0, 0
	st.d	$a4, $a0, 16
	b	.LBB31_14
.LBB31_7:                               # %if.then8.i
	beq	$a0, $fp, .LBB31_15
# %bb.8:                                # %if.then9.i
	ld.d	$a2, $a0, 8
	beqz	$a2, .LBB31_13
# %bb.9:                                # %if.then9.i
	ori	$a4, $zero, 1
	bne	$a2, $a4, .LBB31_12
# %bb.10:                               # %if.then.i25.i
	ld.b	$a1, $a1, 0
	st.b	$a1, $a3, 0
	b	.LBB31_13
.LBB31_11:                              # %if.else28.i
	st.d	$a2, $a0, 0
	move	$a3, $a2
	b	.LBB31_14
.LBB31_12:                              # %if.end.i.i.i
	move	$s0, $a0
	move	$a0, $a3
	pcaddu18i	$ra, %call36(memcpy)
	jirl	$ra, $ra, 0
	move	$a0, $s0
.LBB31_13:                              # %if.end16.i
	ld.d	$a1, $a0, 8
	ld.d	$a2, $fp, 0
	st.d	$a1, $fp, 8
	stx.b	$zero, $a2, $a1
	ld.d	$a3, $a0, 0
.LBB31_14:                              # %_ZNSt7__cxx1112basic_stringIcSt11char_traitsIcESaIcEEaSEOS4_.exit
	st.d	$zero, $a0, 8
	st.b	$zero, $a3, 0
	ld.d	$s0, $sp, 8                     # 8-byte Folded Reload
	ld.d	$fp, $sp, 16                    # 8-byte Folded Reload
	ld.d	$ra, $sp, 24                    # 8-byte Folded Reload
	addi.d	$sp, $sp, 32
	ret
.LBB31_15:
	move	$a3, $a1
	b	.LBB31_14
.Lfunc_end31:
	.size	_ZN9benchmark18SetBenchmarkFilterENSt7__cxx1112basic_stringIcSt11char_traitsIcESaIcEEE, .Lfunc_end31-_ZN9benchmark18SetBenchmarkFilterENSt7__cxx1112basic_stringIcSt11char_traitsIcESaIcEEE
	.cfi_endproc
                                        # -- End function
	.hidden	_ZN9benchmark21GetBenchmarkVerbosityEv # -- Begin function _ZN9benchmark21GetBenchmarkVerbosityEv
	.globl	_ZN9benchmark21GetBenchmarkVerbosityEv
	.p2align	5
	.type	_ZN9benchmark21GetBenchmarkVerbosityEv,@function
_ZN9benchmark21GetBenchmarkVerbosityEv: # @_ZN9benchmark21GetBenchmarkVerbosityEv
# %bb.0:                                # %entry
	pcalau12i	$a0, %pc_hi20(_ZN9benchmark7FLAGS_vE)
	ld.w	$a0, $a0, %pc_lo12(_ZN9benchmark7FLAGS_vE)
	ret
.Lfunc_end32:
	.size	_ZN9benchmark21GetBenchmarkVerbosityEv, .Lfunc_end32-_ZN9benchmark21GetBenchmarkVerbosityEv
                                        # -- End function
	.hidden	_ZN9benchmark21RegisterMemoryManagerEPNS_13MemoryManagerE # -- Begin function _ZN9benchmark21RegisterMemoryManagerEPNS_13MemoryManagerE
	.globl	_ZN9benchmark21RegisterMemoryManagerEPNS_13MemoryManagerE
	.p2align	5
	.type	_ZN9benchmark21RegisterMemoryManagerEPNS_13MemoryManagerE,@function
_ZN9benchmark21RegisterMemoryManagerEPNS_13MemoryManagerE: # @_ZN9benchmark21RegisterMemoryManagerEPNS_13MemoryManagerE
# %bb.0:                                # %entry
	pcalau12i	$a1, %got_pc_hi20(_ZN9benchmark8internal14memory_managerE)
	ld.d	$a1, $a1, %got_pc_lo12(_ZN9benchmark8internal14memory_managerE)
	st.d	$a0, $a1, 0
	ret
.Lfunc_end33:
	.size	_ZN9benchmark21RegisterMemoryManagerEPNS_13MemoryManagerE, .Lfunc_end33-_ZN9benchmark21RegisterMemoryManagerEPNS_13MemoryManagerE
                                        # -- End function
	.hidden	_ZN9benchmark23RegisterProfilerManagerEPNS_15ProfilerManagerE # -- Begin function _ZN9benchmark23RegisterProfilerManagerEPNS_15ProfilerManagerE
	.globl	_ZN9benchmark23RegisterProfilerManagerEPNS_15ProfilerManagerE
	.p2align	5
	.type	_ZN9benchmark23RegisterProfilerManagerEPNS_15ProfilerManagerE,@function
_ZN9benchmark23RegisterProfilerManagerEPNS_15ProfilerManagerE: # @_ZN9benchmark23RegisterProfilerManagerEPNS_15ProfilerManagerE
	.cfi_startproc
# %bb.0:                                # %entry
	addi.d	$sp, $sp, -16
	.cfi_def_cfa_offset 16
	st.d	$ra, $sp, 8                     # 8-byte Folded Spill
	st.d	$fp, $sp, 0                     # 8-byte Folded Spill
	.cfi_offset 1, -8
	.cfi_offset 22, -16
	beqz	$a0, .LBB34_2
# %bb.1:                                # %if.then
	pcalau12i	$a1, %pc_hi20(_ZGVZN9benchmark8internal18GetNullLogInstanceEvE8null_log)
	ld.b	$a1, $a1, %pc_lo12(_ZGVZN9benchmark8internal18GetNullLogInstanceEvE8null_log)
	dbar	20
	beqz	$a1, .LBB34_3
.LBB34_2:                               # %if.end
	pcalau12i	$a1, %got_pc_hi20(_ZN9benchmark8internal16profiler_managerE)
	ld.d	$a1, $a1, %got_pc_lo12(_ZN9benchmark8internal16profiler_managerE)
	st.d	$a0, $a1, 0
	ld.d	$fp, $sp, 0                     # 8-byte Folded Reload
	ld.d	$ra, $sp, 8                     # 8-byte Folded Reload
	addi.d	$sp, $sp, 16
	ret
.LBB34_3:                               # %init.check.i
	pcalau12i	$a1, %pc_hi20(_ZGVZN9benchmark8internal18GetNullLogInstanceEvE8null_log)
	addi.d	$a1, $a1, %pc_lo12(_ZGVZN9benchmark8internal18GetNullLogInstanceEvE8null_log)
	move	$fp, $a0
	move	$a0, $a1
	pcaddu18i	$ra, %call36(__cxa_guard_acquire)
	jirl	$ra, $ra, 0
	move	$a1, $a0
	move	$a0, $fp
	addi.w	$a1, $a1, 0
	beqz	$a1, .LBB34_2
# %bb.4:                                # %init.i
	pcalau12i	$a0, %pc_hi20(_ZZN9benchmark8internal18GetNullLogInstanceEvE8null_log)
	st.d	$zero, $a0, %pc_lo12(_ZZN9benchmark8internal18GetNullLogInstanceEvE8null_log)
	pcalau12i	$a0, %pc_hi20(_ZGVZN9benchmark8internal18GetNullLogInstanceEvE8null_log)
	addi.d	$a0, $a0, %pc_lo12(_ZGVZN9benchmark8internal18GetNullLogInstanceEvE8null_log)
	pcaddu18i	$ra, %call36(__cxa_guard_release)
	jirl	$ra, $ra, 0
	move	$a0, $fp
	b	.LBB34_2
.Lfunc_end34:
	.size	_ZN9benchmark23RegisterProfilerManagerEPNS_15ProfilerManagerE, .Lfunc_end34-_ZN9benchmark23RegisterProfilerManagerEPNS_15ProfilerManagerE
	.cfi_endproc
                                        # -- End function
	.hidden	_ZN9benchmark16AddCustomContextERKNSt7__cxx1112basic_stringIcSt11char_traitsIcESaIcEEES7_ # -- Begin function _ZN9benchmark16AddCustomContextERKNSt7__cxx1112basic_stringIcSt11char_traitsIcESaIcEEES7_
	.globl	_ZN9benchmark16AddCustomContextERKNSt7__cxx1112basic_stringIcSt11char_traitsIcESaIcEEES7_
	.p2align	5
	.type	_ZN9benchmark16AddCustomContextERKNSt7__cxx1112basic_stringIcSt11char_traitsIcESaIcEEES7_,@function
_ZN9benchmark16AddCustomContextERKNSt7__cxx1112basic_stringIcSt11char_traitsIcESaIcEEES7_: # @_ZN9benchmark16AddCustomContextERKNSt7__cxx1112basic_stringIcSt11char_traitsIcESaIcEEES7_
	.cfi_startproc
# %bb.0:                                # %entry
	addi.d	$sp, $sp, -32
	.cfi_def_cfa_offset 32
	st.d	$ra, $sp, 24                    # 8-byte Folded Spill
	st.d	$fp, $sp, 16                    # 8-byte Folded Spill
	st.d	$s0, $sp, 8                     # 8-byte Folded Spill
	st.d	$s1, $sp, 0                     # 8-byte Folded Spill
	.cfi_offset 1, -8
	.cfi_offset 22, -16
	.cfi_offset 23, -24
	.cfi_offset 24, -32
	pcalau12i	$s1, %pc_hi20(_ZN9benchmark8internal14global_contextB5cxx11E)
	ld.d	$a2, $s1, %pc_lo12(_ZN9benchmark8internal14global_contextB5cxx11E)
	move	$fp, $a1
	move	$s0, $a0
	move	$a0, $a2
	bnez	$a2, .LBB35_2
# %bb.1:                                # %if.then
	ori	$a0, $zero, 48
	pcaddu18i	$ra, %call36(_Znwm)
	jirl	$ra, $ra, 0
	addi.d	$a1, $a0, 8
	st.d	$zero, $a0, 0
	vrepli.b	$vr0, 0
	vst	$vr0, $a0, 8
	st.d	$a1, $a0, 24
	st.d	$a1, $a0, 32
	st.d	$zero, $a0, 40
	st.d	$a0, $s1, %pc_lo12(_ZN9benchmark8internal14global_contextB5cxx11E)
.LBB35_2:                               # %if.end
	move	$a1, $s0
	move	$a2, $fp
	pcaddu18i	$ra, %call36(_ZNSt3mapINSt7__cxx1112basic_stringIcSt11char_traitsIcESaIcEEES5_St4lessIS5_ESaISt4pairIKS5_S5_EEE7emplaceIJRS9_SE_EEES8_ISt17_Rb_tree_iteratorISA_EbEDpOT_)
	jirl	$ra, $ra, 0
	andi	$a0, $a1, 1
	beqz	$a0, .LBB35_4
# %bb.3:                                # %if.end9
	ld.d	$s1, $sp, 0                     # 8-byte Folded Reload
	ld.d	$s0, $sp, 8                     # 8-byte Folded Reload
	ld.d	$fp, $sp, 16                    # 8-byte Folded Reload
	ld.d	$ra, $sp, 24                    # 8-byte Folded Reload
	addi.d	$sp, $sp, 32
	ret
.LBB35_4:                               # %if.then2
	pcalau12i	$a0, %got_pc_hi20(_ZSt4cerr)
	ld.d	$s1, $a0, %got_pc_lo12(_ZSt4cerr)
	pcalau12i	$a0, %pc_hi20(.L.str.50)
	addi.d	$a1, $a0, %pc_lo12(.L.str.50)
	ori	$a2, $zero, 30
	move	$a0, $s1
	pcaddu18i	$ra, %call36(_ZSt16__ostream_insertIcSt11char_traitsIcEERSt13basic_ostreamIT_T0_ES6_PKS3_l)
	jirl	$ra, $ra, 0
	ld.d	$a1, $s0, 0
	ld.d	$a2, $s0, 8
	move	$a0, $s1
	pcaddu18i	$ra, %call36(_ZSt16__ostream_insertIcSt11char_traitsIcEERSt13basic_ostreamIT_T0_ES6_PKS3_l)
	jirl	$ra, $ra, 0
	move	$s0, $a0
	pcalau12i	$a0, %pc_hi20(.L.str.51)
	addi.d	$a1, $a0, %pc_lo12(.L.str.51)
	ori	$a2, $zero, 16
	move	$a0, $s0
	pcaddu18i	$ra, %call36(_ZSt16__ostream_insertIcSt11char_traitsIcEERSt13basic_ostreamIT_T0_ES6_PKS3_l)
	jirl	$ra, $ra, 0
	pcalau12i	$a0, %pc_hi20(.L.str.52)
	addi.d	$a1, $a0, %pc_lo12(.L.str.52)
	ori	$a2, $zero, 19
	move	$a0, $s0
	pcaddu18i	$ra, %call36(_ZSt16__ostream_insertIcSt11char_traitsIcEERSt13basic_ostreamIT_T0_ES6_PKS3_l)
	jirl	$ra, $ra, 0
	ld.d	$a1, $fp, 0
	ld.d	$a2, $fp, 8
	move	$a0, $s0
	pcaddu18i	$ra, %call36(_ZSt16__ostream_insertIcSt11char_traitsIcEERSt13basic_ostreamIT_T0_ES6_PKS3_l)
	jirl	$ra, $ra, 0
	pcalau12i	$a1, %pc_hi20(.L.str.53)
	addi.d	$a1, $a1, %pc_lo12(.L.str.53)
	ori	$a2, $zero, 2
	ld.d	$s1, $sp, 0                     # 8-byte Folded Reload
	ld.d	$s0, $sp, 8                     # 8-byte Folded Reload
	ld.d	$fp, $sp, 16                    # 8-byte Folded Reload
	ld.d	$ra, $sp, 24                    # 8-byte Folded Reload
	addi.d	$sp, $sp, 32
	pcaddu18i	$t8, %call36(_ZSt16__ostream_insertIcSt11char_traitsIcEERSt13basic_ostreamIT_T0_ES6_PKS3_l)
	jr	$t8
.Lfunc_end35:
	.size	_ZN9benchmark16AddCustomContextERKNSt7__cxx1112basic_stringIcSt11char_traitsIcESaIcEEES7_, .Lfunc_end35-_ZN9benchmark16AddCustomContextERKNSt7__cxx1112basic_stringIcSt11char_traitsIcESaIcEEES7_
	.cfi_endproc
                                        # -- End function
	.section	.text._ZNSt3mapINSt7__cxx1112basic_stringIcSt11char_traitsIcESaIcEEES5_St4lessIS5_ESaISt4pairIKS5_S5_EEE7emplaceIJRS9_SE_EEES8_ISt17_Rb_tree_iteratorISA_EbEDpOT_,"axG",@progbits,_ZNSt3mapINSt7__cxx1112basic_stringIcSt11char_traitsIcESaIcEEES5_St4lessIS5_ESaISt4pairIKS5_S5_EEE7emplaceIJRS9_SE_EEES8_ISt17_Rb_tree_iteratorISA_EbEDpOT_,comdat
	.hidden	_ZNSt3mapINSt7__cxx1112basic_stringIcSt11char_traitsIcESaIcEEES5_St4lessIS5_ESaISt4pairIKS5_S5_EEE7emplaceIJRS9_SE_EEES8_ISt17_Rb_tree_iteratorISA_EbEDpOT_ # -- Begin function _ZNSt3mapINSt7__cxx1112basic_stringIcSt11char_traitsIcESaIcEEES5_St4lessIS5_ESaISt4pairIKS5_S5_EEE7emplaceIJRS9_SE_EEES8_ISt17_Rb_tree_iteratorISA_EbEDpOT_
	.weak	_ZNSt3mapINSt7__cxx1112basic_stringIcSt11char_traitsIcESaIcEEES5_St4lessIS5_ESaISt4pairIKS5_S5_EEE7emplaceIJRS9_SE_EEES8_ISt17_Rb_tree_iteratorISA_EbEDpOT_
	.p2align	2
	.type	_ZNSt3mapINSt7__cxx1112basic_stringIcSt11char_traitsIcESaIcEEES5_St4lessIS5_ESaISt4pairIKS5_S5_EEE7emplaceIJRS9_SE_EEES8_ISt17_Rb_tree_iteratorISA_EbEDpOT_,@function
_ZNSt3mapINSt7__cxx1112basic_stringIcSt11char_traitsIcESaIcEEES5_St4lessIS5_ESaISt4pairIKS5_S5_EEE7emplaceIJRS9_SE_EEES8_ISt17_Rb_tree_iteratorISA_EbEDpOT_: # @_ZNSt3mapINSt7__cxx1112basic_stringIcSt11char_traitsIcESaIcEEES5_St4lessIS5_ESaISt4pairIKS5_S5_EEE7emplaceIJRS9_SE_EEES8_ISt17_Rb_tree_iteratorISA_EbEDpOT_
	.cfi_startproc
# %bb.0:                                # %entry
	addi.d	$sp, $sp, -128
	.cfi_def_cfa_offset 128
	st.d	$ra, $sp, 120                   # 8-byte Folded Spill
	st.d	$fp, $sp, 112                   # 8-byte Folded Spill
	st.d	$s0, $sp, 104                   # 8-byte Folded Spill
	st.d	$s1, $sp, 96                    # 8-byte Folded Spill
	st.d	$s2, $sp, 88                    # 8-byte Folded Spill
	st.d	$s3, $sp, 80                    # 8-byte Folded Spill
	st.d	$s4, $sp, 72                    # 8-byte Folded Spill
	st.d	$s5, $sp, 64                    # 8-byte Folded Spill
	st.d	$s6, $sp, 56                    # 8-byte Folded Spill
	st.d	$s7, $sp, 48                    # 8-byte Folded Spill
	st.d	$s8, $sp, 40                    # 8-byte Folded Spill
	.cfi_offset 1, -8
	.cfi_offset 22, -16
	.cfi_offset 23, -24
	.cfi_offset 24, -32
	.cfi_offset 25, -40
	.cfi_offset 26, -48
	.cfi_offset 27, -56
	.cfi_offset 28, -64
	.cfi_offset 29, -72
	.cfi_offset 30, -80
	.cfi_offset 31, -88
	ld.d	$s8, $a0, 16
	move	$a3, $a2
	move	$a2, $a1
	addi.d	$s7, $a0, 8
	beqz	$s8, .LBB36_11
# %bb.1:                                # %while.body.lr.ph.i.i.i
	st.d	$a0, $sp, 16                    # 8-byte Folded Spill
	st.d	$a3, $sp, 24                    # 8-byte Folded Spill
	ld.d	$s6, $a2, 8
	st.d	$a2, $sp, 32                    # 8-byte Folded Spill
	ld.d	$s3, $a2, 0
	lu12i.w	$s5, -524288
	lu12i.w	$a0, 524287
	ori	$s4, $a0, 4095
	ori	$fp, $zero, 16
	ori	$s1, $zero, 24
	move	$s2, $s7
	b	.LBB36_4
	.p2align	4, , 16
.LBB36_2:                               # %if.then.i.i.i.i.i.i
                                        #   in Loop: Header=BB36_4 Depth=1
	sub.d	$a0, $s0, $s6
	slt	$a1, $s5, $a0
	maskeqz	$a0, $a0, $a1
	masknez	$a1, $s5, $a1
	or	$a0, $a0, $a1
	slt	$a1, $a0, $s4
	maskeqz	$a0, $a0, $a1
	masknez	$a1, $s4, $a1
	or	$a0, $a0, $a1
.LBB36_3:                               # %_ZNKSt4lessINSt7__cxx1112basic_stringIcSt11char_traitsIcESaIcEEEEclERKS5_S8_.exit.i.i.i
                                        #   in Loop: Header=BB36_4 Depth=1
	addi.w	$a0, $a0, 0
	slti	$a0, $a0, 0
	masknez	$a1, $s8, $a0
	masknez	$a2, $fp, $a0
	maskeqz	$a3, $s1, $a0
	or	$a2, $a3, $a2
	ldx.d	$s8, $s8, $a2
	maskeqz	$a0, $s2, $a0
	or	$s2, $a0, $a1
	beqz	$s8, .LBB36_6
.LBB36_4:                               # %while.body.i.i.i
                                        # =>This Inner Loop Header: Depth=1
	ld.d	$s0, $s8, 40
	sltu	$a0, $s6, $s0
	masknez	$a1, $s0, $a0
	maskeqz	$a0, $s6, $a0
	or	$a2, $a0, $a1
	beqz	$a2, .LBB36_2
# %bb.5:                                # %_ZNSt11char_traitsIcE7compareEPKcS2_m.exit.i.i.i.i.i.i
                                        #   in Loop: Header=BB36_4 Depth=1
	ld.d	$a0, $s8, 32
	move	$a1, $s3
	pcaddu18i	$ra, %call36(memcmp)
	jirl	$ra, $ra, 0
	bnez	$a0, .LBB36_3
	b	.LBB36_2
.LBB36_6:                               # %_ZNSt3mapINSt7__cxx1112basic_stringIcSt11char_traitsIcESaIcEEES5_St4lessIS5_ESaISt4pairIKS5_S5_EEE11lower_boundERS9_.exit
	beq	$s2, $s7, .LBB36_14
# %bb.7:                                # %lor.rhs
	ld.d	$fp, $s2, 40
	sltu	$a0, $fp, $s6
	masknez	$a1, $s6, $a0
	maskeqz	$a0, $fp, $a0
	or	$a2, $a0, $a1
	beqz	$a2, .LBB36_12
# %bb.8:                                # %_ZNSt11char_traitsIcE7compareEPKcS2_m.exit.i.i.i
	ld.d	$a1, $s2, 32
	move	$a0, $s3
	pcaddu18i	$ra, %call36(memcmp)
	jirl	$ra, $ra, 0
	beqz	$a0, .LBB36_12
# %bb.9:                                # %_ZNKSt4lessINSt7__cxx1112basic_stringIcSt11char_traitsIcESaIcEEEEclERKS5_S8_.exit
	addi.w	$a0, $a0, 0
	addi.w	$a1, $zero, -1
	ld.d	$a2, $sp, 32                    # 8-byte Folded Reload
	bge	$a1, $a0, .LBB36_13
.LBB36_10:
	move	$a1, $zero
	b	.LBB36_16
.LBB36_11:                              # %_ZNSt3mapINSt7__cxx1112basic_stringIcSt11char_traitsIcESaIcEEES5_St4lessIS5_ESaISt4pairIKS5_S5_EEE11lower_boundERS9_.exit.thread
	move	$s2, $s7
	b	.LBB36_15
.LBB36_12:                              # %if.then.i.i.i
	sub.d	$a0, $s6, $fp
	slt	$a1, $s5, $a0
	maskeqz	$a0, $a0, $a1
	masknez	$a1, $s5, $a1
	or	$a0, $a0, $a1
	slt	$a1, $a0, $s4
	maskeqz	$a0, $a0, $a1
	masknez	$a1, $s4, $a1
	or	$a0, $a0, $a1
	addi.w	$a0, $a0, 0
	addi.w	$a1, $zero, -1
	ld.d	$a2, $sp, 32                    # 8-byte Folded Reload
	blt	$a1, $a0, .LBB36_10
.LBB36_13:
	ld.d	$a3, $sp, 24                    # 8-byte Folded Reload
	ld.d	$a0, $sp, 16                    # 8-byte Folded Reload
	b	.LBB36_15
.LBB36_14:
	ld.d	$a3, $sp, 24                    # 8-byte Folded Reload
	ld.d	$a0, $sp, 16                    # 8-byte Folded Reload
	ld.d	$a2, $sp, 32                    # 8-byte Folded Reload
.LBB36_15:                              # %if.then
	move	$a1, $s2
	pcaddu18i	$ra, %call36(_ZNSt8_Rb_treeINSt7__cxx1112basic_stringIcSt11char_traitsIcESaIcEEESt4pairIKS5_S5_ESt10_Select1stIS8_ESt4lessIS5_ESaIS8_EE22_M_emplace_hint_uniqueIJRS7_SG_EEESt17_Rb_tree_iteratorIS8_ESt23_Rb_tree_const_iteratorIS8_EDpOT_)
	jirl	$ra, $ra, 0
	move	$s2, $a0
	ori	$a1, $zero, 1
.LBB36_16:                              # %cleanup
	move	$a0, $s2
	ld.d	$s8, $sp, 40                    # 8-byte Folded Reload
	ld.d	$s7, $sp, 48                    # 8-byte Folded Reload
	ld.d	$s6, $sp, 56                    # 8-byte Folded Reload
	ld.d	$s5, $sp, 64                    # 8-byte Folded Reload
	ld.d	$s4, $sp, 72                    # 8-byte Folded Reload
	ld.d	$s3, $sp, 80                    # 8-byte Folded Reload
	ld.d	$s2, $sp, 88                    # 8-byte Folded Reload
	ld.d	$s1, $sp, 96                    # 8-byte Folded Reload
	ld.d	$s0, $sp, 104                   # 8-byte Folded Reload
