	.file	"benchmark_runner.cc"
                                        # Start of file scope inline assembly
	.globl	_ZSt21ios_base_library_initv

                                        # End of file scope inline assembly
	.text
	.hidden	_ZN9benchmark8internal17ParseBenchMinTimeERKNSt7__cxx1112basic_stringIcSt11char_traitsIcESaIcEEE # -- Begin function _ZN9benchmark8internal17ParseBenchMinTimeERKNSt7__cxx1112basic_stringIcSt11char_traitsIcESaIcEEE
	.globl	_ZN9benchmark8internal17ParseBenchMinTimeERKNSt7__cxx1112basic_stringIcSt11char_traitsIcESaIcEEE
	.p2align	5
	.type	_ZN9benchmark8internal17ParseBenchMinTimeERKNSt7__cxx1112basic_stringIcSt11char_traitsIcESaIcEEE,@function
_ZN9benchmark8internal17ParseBenchMinTimeERKNSt7__cxx1112basic_stringIcSt11char_traitsIcESaIcEEE: # @_ZN9benchmark8internal17ParseBenchMinTimeERKNSt7__cxx1112basic_stringIcSt11char_traitsIcESaIcEEE
	.cfi_startproc
# %bb.0:                                # %entry
	addi.d	$sp, $sp, -64
	.cfi_def_cfa_offset 64
	st.d	$ra, $sp, 56                    # 8-byte Folded Spill
	st.d	$fp, $sp, 48                    # 8-byte Folded Spill
	st.d	$s0, $sp, 40                    # 8-byte Folded Spill
	st.d	$s1, $sp, 32                    # 8-byte Folded Spill
	st.d	$s2, $sp, 24                    # 8-byte Folded Spill
	fst.d	$fs0, $sp, 16                   # 8-byte Folded Spill
	.cfi_offset 1, -8
	.cfi_offset 22, -16
	.cfi_offset 23, -24
	.cfi_offset 24, -32
	.cfi_offset 25, -40
	.cfi_offset 56, -48
	move	$fp, $a0
	ld.d	$a0, $a0, 8
	ori	$s0, $zero, 1
	beqz	$a0, .LBB0_9
# %bb.1:                                # %if.end
	ld.d	$s1, $fp, 0
	add.d	$a0, $s1, $a0
	ld.bu	$a0, $a0, -1
	ori	$a1, $zero, 115
	beq	$a0, $a1, .LBB0_20
# %bb.2:                                # %if.end
	ori	$a1, $zero, 120
	bne	$a0, $a1, .LBB0_10
# %bb.3:                                # %if.then2
	pcaddu18i	$ra, %call36(__errno_location)
	jirl	$ra, $ra, 0
	st.w	$zero, $a0, 0
	addi.d	$a1, $sp, 8
	ori	$a2, $zero, 10
	move	$a0, $s1
	pcaddu18i	$ra, %call36(__isoc23_strtol)
	jirl	$ra, $ra, 0
	pcalau12i	$a1, %pc_hi20(_ZGVZN9benchmark8internal18GetNullLogInstanceEvE8null_log)
	ld.b	$a1, $a1, %pc_lo12(_ZGVZN9benchmark8internal18GetNullLogInstanceEvE8null_log)
	move	$s1, $a0
	dbar	20
	beqz	$a1, .LBB0_29
.LBB0_4:                                # %_ZN9benchmark8internal18GetNullLogInstanceEv.exit
	pcalau12i	$s0, %pc_hi20(_ZZN9benchmark8internal18GetNullLogInstanceEvE8null_log)
	ld.d	$a0, $s0, %pc_lo12(_ZZN9benchmark8internal18GetNullLogInstanceEvE8null_log)
	beqz	$a0, .LBB0_8
# %bb.5:                                # %_ZN9benchmark8internallsIA56_cEERNS0_7LogTypeES4_RKT_.exit
	pcalau12i	$a1, %pc_hi20(.L.str)
	addi.d	$a1, $a1, %pc_lo12(.L.str)
	ori	$a2, $zero, 55
	pcaddu18i	$ra, %call36(_ZSt16__ostream_insertIcSt11char_traitsIcEERSt13basic_ostreamIT_T0_ES6_PKS3_l)
	jirl	$ra, $ra, 0
	ld.d	$a0, $s0, %pc_lo12(_ZZN9benchmark8internal18GetNullLogInstanceEvE8null_log)
	beqz	$a0, .LBB0_8
# %bb.6:                                # %_ZN9benchmark8internallsINSt7__cxx1112basic_stringIcSt11char_traitsIcESaIcEEEEERNS0_7LogTypeES9_RKT_.exit
	ld.d	$a1, $fp, 0
	ld.d	$a2, $fp, 8
	pcaddu18i	$ra, %call36(_ZSt16__ostream_insertIcSt11char_traitsIcEERSt13basic_ostreamIT_T0_ES6_PKS3_l)
	jirl	$ra, $ra, 0
	ld.d	$a0, $s0, %pc_lo12(_ZZN9benchmark8internal18GetNullLogInstanceEvE8null_log)
	beqz	$a0, .LBB0_8
# %bb.7:                                # %if.then.i12
	pcalau12i	$a1, %pc_hi20(.L.str.2)
	addi.d	$a1, $a1, %pc_lo12(.L.str.2)
	ori	$a2, $zero, 44
	pcaddu18i	$ra, %call36(_ZSt16__ostream_insertIcSt11char_traitsIcEERSt13basic_ostreamIT_T0_ES6_PKS3_l)
	jirl	$ra, $ra, 0
.LBB0_8:                                # %_ZN9benchmark8internallsIA45_cEERNS0_7LogTypeES4_RKT_.exit
	move	$s0, $zero
	move	$a1, $s1
	b	.LBB0_26
.LBB0_9:
	move	$a1, $zero
	b	.LBB0_26
.LBB0_10:                               # %if.then15
	pcalau12i	$a0, %pc_hi20(_ZZN9benchmark8internal8LogLevelEvE9log_level)
	ld.w	$a0, $a0, %pc_lo12(_ZZN9benchmark8internal8LogLevelEvE9log_level)
	bltz	$a0, .LBB0_14
# %bb.11:                               # %if.then.i18
	pcalau12i	$a0, %pc_hi20(_ZGVZN9benchmark8internal19GetErrorLogInstanceEvE9error_log)
	ld.b	$a0, $a0, %pc_lo12(_ZGVZN9benchmark8internal19GetErrorLogInstanceEvE9error_log)
	dbar	20
	pcalau12i	$a1, %pc_hi20(_ZZN9benchmark8internal19GetErrorLogInstanceEvE9error_log)
	addi.d	$s2, $a1, %pc_lo12(_ZZN9benchmark8internal19GetErrorLogInstanceEvE9error_log)
	bnez	$a0, .LBB0_15
# %bb.12:                               # %init.check.i.i
	pcalau12i	$a0, %pc_hi20(_ZGVZN9benchmark8internal19GetErrorLogInstanceEvE9error_log)
	addi.d	$s1, $a0, %pc_lo12(_ZGVZN9benchmark8internal19GetErrorLogInstanceEvE9error_log)
	move	$a0, $s1
	pcaddu18i	$ra, %call36(__cxa_guard_acquire)
	jirl	$ra, $ra, 0
	addi.w	$a0, $a0, 0
	beqz	$a0, .LBB0_15
# %bb.13:                               # %init.i.i
	pcalau12i	$a0, %pc_hi20(_ZZN9benchmark8internal19GetErrorLogInstanceEvE9error_log)
	addi.d	$s2, $a0, %pc_lo12(_ZZN9benchmark8internal19GetErrorLogInstanceEvE9error_log)
	pcalau12i	$a0, %got_pc_hi20(_ZSt4clog)
	ld.d	$a0, $a0, %got_pc_lo12(_ZSt4clog)
	st.d	$a0, $s2, 0
	b	.LBB0_33
.LBB0_14:                               # %if.end.i
	pcalau12i	$a0, %pc_hi20(_ZGVZN9benchmark8internal18GetNullLogInstanceEvE8null_log)
	ld.b	$a0, $a0, %pc_lo12(_ZGVZN9benchmark8internal18GetNullLogInstanceEvE8null_log)
	dbar	20
	pcalau12i	$a1, %pc_hi20(_ZZN9benchmark8internal18GetNullLogInstanceEvE8null_log)
	addi.d	$s2, $a1, %pc_lo12(_ZZN9benchmark8internal18GetNullLogInstanceEvE8null_log)
	beqz	$a0, .LBB0_31
.LBB0_15:                               # %_ZN9benchmark8internal22GetLogInstanceForLevelEi.exit
	ld.d	$a0, $s2, 0
	beqz	$a0, .LBB0_20
# %bb.16:                               # %_ZN9benchmark8internallsIA8_cEERNS0_7LogTypeES4_RKT_.exit
	pcalau12i	$a1, %pc_hi20(.L.str.3)
	addi.d	$a1, $a1, %pc_lo12(.L.str.3)
	ori	$a2, $zero, 7
	pcaddu18i	$ra, %call36(_ZSt16__ostream_insertIcSt11char_traitsIcEERSt13basic_ostreamIT_T0_ES6_PKS3_l)
	jirl	$ra, $ra, 0
	ld.d	$a0, $s2, 0
	beqz	$a0, .LBB0_20
# %bb.17:                               # %_ZN9benchmark8internallsIiEERNS0_7LogTypeES3_RKT_.exit
	move	$a1, $zero
	pcaddu18i	$ra, %call36(_ZNSolsEi)
	jirl	$ra, $ra, 0
	ld.d	$a0, $s2, 0
	beqz	$a0, .LBB0_20
# %bb.18:                               # %_ZN9benchmark8internallsIA4_cEERNS0_7LogTypeES4_RKT_.exit
	pcalau12i	$a1, %pc_hi20(.L.str.4)
	addi.d	$a1, $a1, %pc_lo12(.L.str.4)
	ori	$a2, $zero, 3
	pcaddu18i	$ra, %call36(_ZSt16__ostream_insertIcSt11char_traitsIcEERSt13basic_ostreamIT_T0_ES6_PKS3_l)
	jirl	$ra, $ra, 0
	ld.d	$a0, $s2, 0
	beqz	$a0, .LBB0_20
# %bb.19:                               # %if.then.i33
	pcalau12i	$a1, %pc_hi20(.L.str.5)
	addi.d	$a1, $a1, %pc_lo12(.L.str.5)
	ori	$a2, $zero, 85
	pcaddu18i	$ra, %call36(_ZSt16__ostream_insertIcSt11char_traitsIcEERSt13basic_ostreamIT_T0_ES6_PKS3_l)
	jirl	$ra, $ra, 0
.LBB0_20:                               # %if.end21
	pcaddu18i	$ra, %call36(__errno_location)
	jirl	$ra, $ra, 0
	st.w	$zero, $a0, 0
	ld.d	$a0, $fp, 0
	addi.d	$a1, $sp, 8
	pcaddu18i	$ra, %call36(strtod)
	jirl	$ra, $ra, 0
	pcalau12i	$a0, %pc_hi20(_ZGVZN9benchmark8internal18GetNullLogInstanceEvE8null_log)
	ld.b	$a0, $a0, %pc_lo12(_ZGVZN9benchmark8internal18GetNullLogInstanceEvE8null_log)
	fmov.d	$fs0, $fa0
	dbar	20
	beqz	$a0, .LBB0_27
.LBB0_21:                               # %_ZN9benchmark8internal18GetNullLogInstanceEv.exit41
	pcalau12i	$s1, %pc_hi20(_ZZN9benchmark8internal18GetNullLogInstanceEvE8null_log)
	ld.d	$a0, $s1, %pc_lo12(_ZZN9benchmark8internal18GetNullLogInstanceEvE8null_log)
	beqz	$a0, .LBB0_25
# %bb.22:                               # %_ZN9benchmark8internallsIA58_cEERNS0_7LogTypeES4_RKT_.exit
	pcalau12i	$a1, %pc_hi20(.L.str.6)
	addi.d	$a1, $a1, %pc_lo12(.L.str.6)
	ori	$a2, $zero, 57
	pcaddu18i	$ra, %call36(_ZSt16__ostream_insertIcSt11char_traitsIcEERSt13basic_ostreamIT_T0_ES6_PKS3_l)
	jirl	$ra, $ra, 0
	ld.d	$a0, $s1, %pc_lo12(_ZZN9benchmark8internal18GetNullLogInstanceEvE8null_log)
	beqz	$a0, .LBB0_25
# %bb.23:                               # %_ZN9benchmark8internallsINSt7__cxx1112basic_stringIcSt11char_traitsIcESaIcEEEEERNS0_7LogTypeES9_RKT_.exit53
	ld.d	$a1, $fp, 0
	ld.d	$a2, $fp, 8
	pcaddu18i	$ra, %call36(_ZSt16__ostream_insertIcSt11char_traitsIcEERSt13basic_ostreamIT_T0_ES6_PKS3_l)
	jirl	$ra, $ra, 0
	ld.d	$a0, $s1, %pc_lo12(_ZZN9benchmark8internal18GetNullLogInstanceEvE8null_log)
	beqz	$a0, .LBB0_25
# %bb.24:                               # %if.then.i55
	pcalau12i	$a1, %pc_hi20(.L.str.7)
	addi.d	$a1, $a1, %pc_lo12(.L.str.7)
	ori	$a2, $zero, 42
	pcaddu18i	$ra, %call36(_ZSt16__ostream_insertIcSt11char_traitsIcEERSt13basic_ostreamIT_T0_ES6_PKS3_l)
	jirl	$ra, $ra, 0
.LBB0_25:                               # %_ZN9benchmark8internallsIA43_cEERNS0_7LogTypeES4_RKT_.exit
	movfr2gr.d	$a1, $fs0
.LBB0_26:                               # %return
	move	$a0, $s0
	fld.d	$fs0, $sp, 16                   # 8-byte Folded Reload
	ld.d	$s2, $sp, 24                    # 8-byte Folded Reload
	ld.d	$s1, $sp, 32                    # 8-byte Folded Reload
	ld.d	$s0, $sp, 40                    # 8-byte Folded Reload
	ld.d	$fp, $sp, 48                    # 8-byte Folded Reload
	ld.d	$ra, $sp, 56                    # 8-byte Folded Reload
	addi.d	$sp, $sp, 64
	ret
.LBB0_27:                               # %init.check.i38
	pcalau12i	$a0, %pc_hi20(_ZGVZN9benchmark8internal18GetNullLogInstanceEvE8null_log)
	addi.d	$a0, $a0, %pc_lo12(_ZGVZN9benchmark8internal18GetNullLogInstanceEvE8null_log)
	pcaddu18i	$ra, %call36(__cxa_guard_acquire)
	jirl	$ra, $ra, 0
	addi.w	$a0, $a0, 0
	beqz	$a0, .LBB0_21
# %bb.28:                               # %init.i40
	pcalau12i	$a0, %pc_hi20(_ZZN9benchmark8internal18GetNullLogInstanceEvE8null_log)
	st.d	$zero, $a0, %pc_lo12(_ZZN9benchmark8internal18GetNullLogInstanceEvE8null_log)
	pcalau12i	$a0, %pc_hi20(_ZGVZN9benchmark8internal18GetNullLogInstanceEvE8null_log)
	addi.d	$a0, $a0, %pc_lo12(_ZGVZN9benchmark8internal18GetNullLogInstanceEvE8null_log)
	pcaddu18i	$ra, %call36(__cxa_guard_release)
	jirl	$ra, $ra, 0
	b	.LBB0_21
.LBB0_29:                               # %init.check.i
	pcalau12i	$a0, %pc_hi20(_ZGVZN9benchmark8internal18GetNullLogInstanceEvE8null_log)
	addi.d	$a0, $a0, %pc_lo12(_ZGVZN9benchmark8internal18GetNullLogInstanceEvE8null_log)
	pcaddu18i	$ra, %call36(__cxa_guard_acquire)
	jirl	$ra, $ra, 0
	addi.w	$a0, $a0, 0
	beqz	$a0, .LBB0_4
# %bb.30:                               # %init.i
	pcalau12i	$a0, %pc_hi20(_ZZN9benchmark8internal18GetNullLogInstanceEvE8null_log)
	st.d	$zero, $a0, %pc_lo12(_ZZN9benchmark8internal18GetNullLogInstanceEvE8null_log)
	pcalau12i	$a0, %pc_hi20(_ZGVZN9benchmark8internal18GetNullLogInstanceEvE8null_log)
	addi.d	$a0, $a0, %pc_lo12(_ZGVZN9benchmark8internal18GetNullLogInstanceEvE8null_log)
	pcaddu18i	$ra, %call36(__cxa_guard_release)
	jirl	$ra, $ra, 0
	b	.LBB0_4
.LBB0_31:                               # %init.check.i2.i
	pcalau12i	$a0, %pc_hi20(_ZGVZN9benchmark8internal18GetNullLogInstanceEvE8null_log)
	addi.d	$s1, $a0, %pc_lo12(_ZGVZN9benchmark8internal18GetNullLogInstanceEvE8null_log)
	move	$a0, $s1
	pcaddu18i	$ra, %call36(__cxa_guard_acquire)
	jirl	$ra, $ra, 0
	addi.w	$a0, $a0, 0
	beqz	$a0, .LBB0_15
# %bb.32:                               # %init.i4.i
	pcalau12i	$a0, %pc_hi20(_ZZN9benchmark8internal18GetNullLogInstanceEvE8null_log)
	addi.d	$s2, $a0, %pc_lo12(_ZZN9benchmark8internal18GetNullLogInstanceEvE8null_log)
	st.d	$zero, $s2, 0
.LBB0_33:                               # %return.sink.split.i
	move	$a0, $s1
	pcaddu18i	$ra, %call36(__cxa_guard_release)
	jirl	$ra, $ra, 0
	b	.LBB0_15
.Lfunc_end0:
	.size	_ZN9benchmark8internal17ParseBenchMinTimeERKNSt7__cxx1112basic_stringIcSt11char_traitsIcESaIcEEE, .Lfunc_end0-_ZN9benchmark8internal17ParseBenchMinTimeERKNSt7__cxx1112basic_stringIcSt11char_traitsIcESaIcEEE
	.cfi_endproc
                                        # -- End function
	.hidden	_ZN9benchmark8internal15BenchmarkRunnerC2ERKNS0_17BenchmarkInstanceEPNS0_23PerfCountersMeasurementEPNS_17BenchmarkReporter19PerFamilyRunReportsE # -- Begin function _ZN9benchmark8internal15BenchmarkRunnerC2ERKNS0_17BenchmarkInstanceEPNS0_23PerfCountersMeasurementEPNS_17BenchmarkReporter19PerFamilyRunReportsE
	.globl	_ZN9benchmark8internal15BenchmarkRunnerC2ERKNS0_17BenchmarkInstanceEPNS0_23PerfCountersMeasurementEPNS_17BenchmarkReporter19PerFamilyRunReportsE
	.p2align	5
	.type	_ZN9benchmark8internal15BenchmarkRunnerC2ERKNS0_17BenchmarkInstanceEPNS0_23PerfCountersMeasurementEPNS_17BenchmarkReporter19PerFamilyRunReportsE,@function
_ZN9benchmark8internal15BenchmarkRunnerC2ERKNS0_17BenchmarkInstanceEPNS0_23PerfCountersMeasurementEPNS_17BenchmarkReporter19PerFamilyRunReportsE: # @_ZN9benchmark8internal15BenchmarkRunnerC2ERKNS0_17BenchmarkInstanceEPNS0_23PerfCountersMeasurementEPNS_17BenchmarkReporter19PerFamilyRunReportsE
.Lfunc_begin0:
	.cfi_startproc
	.cfi_personality 155, DW.ref.__gxx_personality_v0
	.cfi_lsda 27, .Lexception0
# %bb.0:                                # %entry
	addi.d	$sp, $sp, -128
	.cfi_def_cfa_offset 128
	st.d	$ra, $sp, 120                   # 8-byte Folded Spill
	st.d	$fp, $sp, 112                   # 8-byte Folded Spill
	st.d	$s0, $sp, 104                   # 8-byte Folded Spill
	st.d	$s1, $sp, 96                    # 8-byte Folded Spill
	st.d	$s2, $sp, 88                    # 8-byte Folded Spill
	st.d	$s3, $sp, 80                    # 8-byte Folded Spill
	st.d	$s4, $sp, 72                    # 8-byte Folded Spill
	st.d	$s5, $sp, 64                    # 8-byte Folded Spill
	st.d	$s6, $sp, 56                    # 8-byte Folded Spill
	st.d	$s7, $sp, 48                    # 8-byte Folded Spill
	st.d	$s8, $sp, 40                    # 8-byte Folded Spill
	.cfi_offset 1, -8
	.cfi_offset 22, -16
	.cfi_offset 23, -24
	.cfi_offset 24, -32
	.cfi_offset 25, -40
	.cfi_offset 26, -48
	.cfi_offset 27, -56
	.cfi_offset 28, -64
	.cfi_offset 29, -72
	.cfi_offset 30, -80
	.cfi_offset 31, -88
	move	$s0, $a2
	move	$s1, $a1
	move	$fp, $a0
	st.h	$zero, $a0, 48
	vrepli.b	$vr0, 0
	vst	$vr0, $a0, 32
	vst	$vr0, $a0, 16
	vst	$vr0, $sp, 16                   # 16-byte Folded Spill
	vst	$vr0, $a0, 0
	st.d	$a1, $a0, 56
	st.d	$a3, $a0, 64
.Ltmp0:                                 # EH_LABEL
	pcalau12i	$a0, %got_pc_hi20(_ZN9benchmark24FLAGS_benchmark_min_timeB5cxx11E)
	ld.d	$a0, $a0, %got_pc_lo12(_ZN9benchmark24FLAGS_benchmark_min_timeB5cxx11E)
	pcaddu18i	$ra, %call36(_ZN9benchmark8internal17ParseBenchMinTimeERKNSt7__cxx1112basic_stringIcSt11char_traitsIcESaIcEEE)
	jirl	$ra, $ra, 0
.Ltmp1:                                 # EH_LABEL
# %bb.1:                                # %invoke.cont
	st.d	$a0, $fp, 72
	st.d	$a1, $fp, 80
	pcalau12i	$a0, %got_pc_hi20(_ZN9benchmark23FLAGS_benchmark_dry_runE)
	ld.d	$s2, $a0, %got_pc_lo12(_ZN9benchmark23FLAGS_benchmark_dry_runE)
	ld.bu	$a0, $s2, 0
	beqz	$a0, .LBB1_3
# %bb.2:                                # %cond.end.thread
	ld.d	$s5, $fp, 56
	st.d	$zero, $fp, 88
	movgr2fr.d	$fa0, $zero
	b	.LBB1_10
.LBB1_3:                                # %cond.false
	fld.d	$fa0, $s1, 376
.Ltmp2:                                 # EH_LABEL
	pcaddu18i	$ra, %call36(_ZN9benchmark8internal6IsZeroEd)
	jirl	$ra, $ra, 0
.Ltmp3:                                 # EH_LABEL
# %bb.4:                                # %cond.end
	ld.w	$a1, $fp, 72
	sltui	$a1, $a1, 1
	pcalau12i	$a2, %pc_hi20(_ZN9benchmark8internal12_GLOBAL__N_115kDefaultMinTimeE)
	addi.d	$a2, $a2, %pc_lo12(_ZN9benchmark8internal12_GLOBAL__N_115kDefaultMinTimeE)
	addi.d	$a3, $fp, 80
	masknez	$a3, $a3, $a1
	maskeqz	$a1, $a2, $a1
	or	$a1, $a1, $a3
	addi.d	$a2, $s1, 376
	maskeqz	$a1, $a1, $a0
	masknez	$a0, $a2, $a0
	or	$a0, $a1, $a0
	fld.d	$fa0, $a0, 0
	ld.bu	$a0, $s2, 0
	ld.d	$s5, $fp, 56
	fst.d	$fa0, $fp, 88
	beqz	$a0, .LBB1_6
# %bb.5:
	movgr2fr.d	$fa0, $zero
	b	.LBB1_10
.LBB1_6:                                # %cond.false7
	fld.d	$fa0, $s5, 376
.Ltmp4:                                 # EH_LABEL
	pcaddu18i	$ra, %call36(_ZN9benchmark8internal6IsZeroEd)
	jirl	$ra, $ra, 0
.Ltmp5:                                 # EH_LABEL
# %bb.7:                                # %invoke.cont11
	ld.d	$s5, $fp, 56
	bnez	$a0, .LBB1_9
# %bb.8:                                # %land.lhs.true
	fld.d	$fa0, $s5, 384
	movgr2fr.d	$fa1, $zero
	fcmp.clt.d	$fcc0, $fa1, $fa0
	bcnez	$fcc0, .LBB1_10
.LBB1_9:                                # %cond.false20
	pcalau12i	$a0, %got_pc_hi20(_ZN9benchmark31FLAGS_benchmark_min_warmup_timeE)
	ld.d	$a0, $a0, %got_pc_lo12(_ZN9benchmark31FLAGS_benchmark_min_warmup_timeE)
	fld.d	$fa0, $a0, 0
.LBB1_10:                               # %cond.end23
	ld.bu	$s6, $s2, 0
	movgr2fr.d	$fa1, $zero
	fcmp.cule.d	$fcc0, $fa0, $fa1
	fst.d	$fa0, $fp, 96
	movcf2gr	$a0, $fcc0
	or	$a0, $s6, $a0
	st.b	$a0, $fp, 104
	ori	$a0, $zero, 1
	bnez	$s6, .LBB1_12
# %bb.11:                               # %cond.false34
	ld.w	$a0, $s5, 368
	sltui	$a1, $a0, 1
	pcalau12i	$a2, %got_pc_hi20(_ZN9benchmark27FLAGS_benchmark_repetitionsE)
	ld.d	$a2, $a2, %got_pc_lo12(_ZN9benchmark27FLAGS_benchmark_repetitionsE)
	ld.w	$a2, $a2, 0
	masknez	$a0, $a0, $a1
	maskeqz	$a1, $a2, $a1
	or	$a0, $a1, $a0
.LBB1_12:                               # %cond.end46
	ld.d	$a1, $s5, 392
	ld.w	$a2, $fp, 72
	st.w	$a0, $fp, 108
	sltu	$a1, $zero, $a1
	ld.w	$a0, $s5, 400
	sltui	$a2, $a2, 1
	or	$s7, $a1, $a2
	st.b	$s7, $fp, 112
	st.w	$zero, $fp, 116
	vld	$vr0, $sp, 16                   # 16-byte Folded Reload
	blez	$a0, .LBB1_26
# %bb.13:                               # %_ZNSt6vectorISt6threadSaIS0_EE17_S_check_init_lenEmRKS1_.exit.i
	addi.d	$s2, $fp, 120
	addi.w	$s8, $a0, -1
	st.d	$zero, $s2, 16
	vst	$vr0, $s2, 0
	beqz	$s8, .LBB1_16
# %bb.14:                               # %for.body.preheader.i.i.i.i.i
	slli.d	$s3, $s8, 3
.Ltmp7:                                 # EH_LABEL
	move	$a0, $s3
	pcaddu18i	$ra, %call36(_Znwm)
	jirl	$ra, $ra, 0
.Ltmp8:                                 # EH_LABEL
# %bb.15:                               # %call5.i.i.i2.i.i.noexc
	move	$s4, $a0
	st.d	$a0, $s2, 0
	alsl.d	$s8, $s8, $a0, 3
	move	$a1, $zero
	move	$a2, $s3
	pcaddu18i	$ra, %call36(memset)
	jirl	$ra, $ra, 0
	add.d	$a0, $s4, $s3
	vld	$vr0, $sp, 16                   # 16-byte Folded Reload
	b	.LBB1_17
.LBB1_16:                               # %_ZNSt12_Vector_baseISt6threadSaIS0_EEC2EmRKS1_.exit.thread.i
	move	$s8, $zero
	move	$a0, $zero
	vst	$vr0, $s2, 0
.LBB1_17:                               # %invoke.cont59
	st.d	$s8, $fp, 136
	st.d	$a0, $fp, 128
	st.d	$zero, $fp, 144
	vst	$vr0, $fp, 152
	xori	$a0, $s6, 1
	and	$a1, $a0, $s7
	ori	$a0, $zero, 1
	beqz	$a1, .LBB1_21
# %bb.18:                               # %cond.true65
	ld.d	$a0, $s1, 392
	bnez	$a0, .LBB1_21
# %bb.19:                               # %if.end.i
	pcalau12i	$a0, %pc_hi20(_ZGVZN9benchmark8internal18GetNullLogInstanceEvE8null_log)
	ld.b	$a0, $a0, %pc_lo12(_ZGVZN9benchmark8internal18GetNullLogInstanceEvE8null_log)
	dbar	20
	beqz	$a0, .LBB1_30
.LBB1_20:                               # %_ZN9benchmark8internal18GetNullLogInstanceEv.exit.i
	ld.d	$a0, $fp, 80
	ld.d	$s5, $fp, 56
.LBB1_21:                               # %cond.end73
	st.d	$a0, $fp, 168
	st.d	$s0, $fp, 176
	pcalau12i	$a0, %got_pc_hi20(_ZN9benchmark38FLAGS_benchmark_report_aggregates_onlyE)
	ld.d	$a0, $a0, %got_pc_lo12(_ZN9benchmark38FLAGS_benchmark_report_aggregates_onlyE)
	ld.b	$a1, $a0, 0
	pcalau12i	$a0, %got_pc_hi20(_ZN9benchmark39FLAGS_benchmark_display_aggregates_onlyE)
	ld.d	$a0, $a0, %got_pc_lo12(_ZN9benchmark39FLAGS_benchmark_display_aggregates_onlyE)
	ld.b	$a2, $a0, 0
	ld.w	$a0, $s5, 272
	or	$a2, $a1, $a2
	andi	$a2, $a2, 1
	st.b	$a2, $fp, 48
	st.b	$a1, $fp, 49
	beqz	$a0, .LBB1_25
# %bb.22:                               # %if.then
	bstrpick.d	$a1, $a0, 2, 2
	st.b	$a1, $fp, 48
	bstrpick.d	$a0, $a0, 1, 1
	st.b	$a0, $fp, 49
	pcalau12i	$a0, %pc_hi20(_ZGVZN9benchmark8internal18GetNullLogInstanceEvE8null_log)
	ld.b	$a0, $a0, %pc_lo12(_ZGVZN9benchmark8internal18GetNullLogInstanceEvE8null_log)
	dbar	20
	pcalau12i	$s0, %pc_hi20(_ZZN9benchmark8internal18GetNullLogInstanceEvE8null_log)
	beqz	$a0, .LBB1_28
.LBB1_23:                               # %invoke.cont102
	ld.d	$a0, $s0, %pc_lo12(_ZZN9benchmark8internal18GetNullLogInstanceEvE8null_log)
	beqz	$a0, .LBB1_25
# %bb.24:                               # %if.then.i
.Ltmp9:                                 # EH_LABEL
	addi.d	$s0, $fp, 144
	pcalau12i	$a1, %pc_hi20(.L.str.8)
	addi.d	$a1, $a1, %pc_lo12(.L.str.8)
	ori	$a2, $zero, 53
	pcaddu18i	$ra, %call36(_ZSt16__ostream_insertIcSt11char_traitsIcEERSt13basic_ostreamIT_T0_ES6_PKS3_l)
	jirl	$ra, $ra, 0
.Ltmp10:                                # EH_LABEL
.LBB1_25:                               # %if.end
	ld.d	$s8, $sp, 40                    # 8-byte Folded Reload
	ld.d	$s7, $sp, 48                    # 8-byte Folded Reload
	ld.d	$s6, $sp, 56                    # 8-byte Folded Reload
	ld.d	$s5, $sp, 64                    # 8-byte Folded Reload
	ld.d	$s4, $sp, 72                    # 8-byte Folded Reload
	ld.d	$s3, $sp, 80                    # 8-byte Folded Reload
	ld.d	$s2, $sp, 88                    # 8-byte Folded Reload
	ld.d	$s1, $sp, 96                    # 8-byte Folded Reload
	ld.d	$s0, $sp, 104                   # 8-byte Folded Reload
	ld.d	$fp, $sp, 112                   # 8-byte Folded Reload
	ld.d	$ra, $sp, 120                   # 8-byte Folded Reload
	addi.d	$sp, $sp, 128
	ret
.LBB1_26:                               # %if.then.i.i
.Ltmp12:                                # EH_LABEL
	pcalau12i	$a0, %pc_hi20(.L.str.17)
	addi.d	$a0, $a0, %pc_lo12(.L.str.17)
	pcaddu18i	$ra, %call36(_ZSt20__throw_length_errorPKc)
	jirl	$ra, $ra, 0
.Ltmp13:                                # EH_LABEL
# %bb.27:                               # %.noexc
.LBB1_28:                               # %init.check.i
	pcalau12i	$a0, %pc_hi20(_ZGVZN9benchmark8internal18GetNullLogInstanceEvE8null_log)
	addi.d	$a0, $a0, %pc_lo12(_ZGVZN9benchmark8internal18GetNullLogInstanceEvE8null_log)
	pcaddu18i	$ra, %call36(__cxa_guard_acquire)
	jirl	$ra, $ra, 0
	addi.w	$a0, $a0, 0
	beqz	$a0, .LBB1_23
# %bb.29:                               # %init.i
	st.d	$zero, $s0, %pc_lo12(_ZZN9benchmark8internal18GetNullLogInstanceEvE8null_log)
	pcalau12i	$a0, %pc_hi20(_ZGVZN9benchmark8internal18GetNullLogInstanceEvE8null_log)
	addi.d	$a0, $a0, %pc_lo12(_ZGVZN9benchmark8internal18GetNullLogInstanceEvE8null_log)
	pcaddu18i	$ra, %call36(__cxa_guard_release)
	jirl	$ra, $ra, 0
	b	.LBB1_23
.LBB1_30:                               # %init.check.i.i
	pcalau12i	$a0, %pc_hi20(_ZGVZN9benchmark8internal18GetNullLogInstanceEvE8null_log)
	addi.d	$a0, $a0, %pc_lo12(_ZGVZN9benchmark8internal18GetNullLogInstanceEvE8null_log)
	pcaddu18i	$ra, %call36(__cxa_guard_acquire)
	jirl	$ra, $ra, 0
	addi.w	$a0, $a0, 0
	beqz	$a0, .LBB1_20
# %bb.31:                               # %init.i.i
	pcalau12i	$a0, %pc_hi20(_ZZN9benchmark8internal18GetNullLogInstanceEvE8null_log)
	st.d	$zero, $a0, %pc_lo12(_ZZN9benchmark8internal18GetNullLogInstanceEvE8null_log)
	pcalau12i	$a0, %pc_hi20(_ZGVZN9benchmark8internal18GetNullLogInstanceEvE8null_log)
	addi.d	$a0, $a0, %pc_lo12(_ZGVZN9benchmark8internal18GetNullLogInstanceEvE8null_log)
	pcaddu18i	$ra, %call36(__cxa_guard_release)
	jirl	$ra, $ra, 0
	b	.LBB1_20
.LBB1_32:                               # %lpad67
.Ltmp11:                                # EH_LABEL
	ld.d	$a2, $s0, 0
	move	$s0, $a0
	beqz	$a2, .LBB1_34
# %bb.33:                               # %if.then.i.i.i
	ld.d	$a0, $fp, 160
	sub.d	$a1, $a0, $a2
	move	$a0, $a2
	pcaddu18i	$ra, %call36(_ZdlPvm)
	jirl	$ra, $ra, 0
.LBB1_34:                               # %_ZNSt6vectorIN9benchmark13MemoryManager6ResultESaIS2_EED2Ev.exit
	move	$a0, $s2
	pcaddu18i	$ra, %call36(_ZNSt6vectorISt6threadSaIS0_EED2Ev)
	jirl	$ra, $ra, 0
	b	.LBB1_38
.LBB1_35:                               # %lpad58
.Ltmp14:                                # EH_LABEL
	b	.LBB1_37
.LBB1_36:                               # %lpad
.Ltmp6:                                 # EH_LABEL
.LBB1_37:                               # %ehcleanup
	move	$s0, $a0
.LBB1_38:                               # %ehcleanup
	addi.d	$a0, $fp, 24
	pcaddu18i	$ra, %call36(_ZNSt6vectorIN9benchmark17BenchmarkReporter3RunESaIS2_EED2Ev)
	jirl	$ra, $ra, 0
	move	$a0, $fp
	pcaddu18i	$ra, %call36(_ZNSt6vectorIN9benchmark17BenchmarkReporter3RunESaIS2_EED2Ev)
	jirl	$ra, $ra, 0
	move	$a0, $s0
	pcaddu18i	$ra, %call36(_Unwind_Resume)
	jirl	$ra, $ra, 0
.Lfunc_end1:
	.size	_ZN9benchmark8internal15BenchmarkRunnerC2ERKNS0_17BenchmarkInstanceEPNS0_23PerfCountersMeasurementEPNS_17BenchmarkReporter19PerFamilyRunReportsE, .Lfunc_end1-_ZN9benchmark8internal15BenchmarkRunnerC2ERKNS0_17BenchmarkInstanceEPNS0_23PerfCountersMeasurementEPNS_17BenchmarkReporter19PerFamilyRunReportsE
	.cfi_endproc
	.section	.gcc_except_table,"a",@progbits
	.p2align	2, 0x0
GCC_except_table1:
.Lexception0:
	.byte	255                             # @LPStart Encoding = omit
	.byte	255                             # @TType Encoding = omit
	.byte	1                               # Call site Encoding = uleb128
	.uleb128 .Lcst_end0-.Lcst_begin0
.Lcst_begin0:
	.uleb128 .Ltmp0-.Lfunc_begin0           # >> Call Site 1 <<
	.uleb128 .Ltmp5-.Ltmp0                  #   Call between .Ltmp0 and .Ltmp5
	.uleb128 .Ltmp6-.Lfunc_begin0           #     jumps to .Ltmp6
	.byte	0                               #   On action: cleanup
	.uleb128 .Ltmp7-.Lfunc_begin0           # >> Call Site 2 <<
	.uleb128 .Ltmp8-.Ltmp7                  #   Call between .Ltmp7 and .Ltmp8
	.uleb128 .Ltmp14-.Lfunc_begin0          #     jumps to .Ltmp14
	.byte	0                               #   On action: cleanup
	.uleb128 .Ltmp8-.Lfunc_begin0           # >> Call Site 3 <<
	.uleb128 .Ltmp9-.Ltmp8                  #   Call between .Ltmp8 and .Ltmp9
	.byte	0                               #     has no landing pad
	.byte	0                               #   On action: cleanup
	.uleb128 .Ltmp9-.Lfunc_begin0           # >> Call Site 4 <<
	.uleb128 .Ltmp10-.Ltmp9                 #   Call between .Ltmp9 and .Ltmp10
	.uleb128 .Ltmp11-.Lfunc_begin0          #     jumps to .Ltmp11
	.byte	0                               #   On action: cleanup
	.uleb128 .Ltmp12-.Lfunc_begin0          # >> Call Site 5 <<
	.uleb128 .Ltmp13-.Ltmp12                #   Call between .Ltmp12 and .Ltmp13
	.uleb128 .Ltmp14-.Lfunc_begin0          #     jumps to .Ltmp14
	.byte	0                               #   On action: cleanup
	.uleb128 .Ltmp13-.Lfunc_begin0          # >> Call Site 6 <<
	.uleb128 .Lfunc_end1-.Ltmp13            #   Call between .Ltmp13 and .Lfunc_end1
	.byte	0                               #     has no landing pad
	.byte	0                               #   On action: cleanup
.Lcst_end0:
	.p2align	2, 0x0
                                        # -- End function
	.section	.text._ZNSt6vectorISt6threadSaIS0_EED2Ev,"axG",@progbits,_ZNSt6vectorISt6threadSaIS0_EED2Ev,comdat
	.hidden	_ZNSt6vectorISt6threadSaIS0_EED2Ev # -- Begin function _ZNSt6vectorISt6threadSaIS0_EED2Ev
	.weak	_ZNSt6vectorISt6threadSaIS0_EED2Ev
	.p2align	5
	.type	_ZNSt6vectorISt6threadSaIS0_EED2Ev,@function
_ZNSt6vectorISt6threadSaIS0_EED2Ev:     # @_ZNSt6vectorISt6threadSaIS0_EED2Ev
	.cfi_startproc
# %bb.0:                                # %entry
	addi.d	$sp, $sp, -16
	.cfi_def_cfa_offset 16
	st.d	$ra, $sp, 8                     # 8-byte Folded Spill
	.cfi_offset 1, -8
	move	$a1, $a0
	ld.d	$a0, $a0, 0
	ld.d	$a2, $a1, 8
	beq	$a0, $a2, .LBB2_4
# %bb.1:
	move	$a3, $a0
	.p2align	4, , 16
.LBB2_2:                                # %for.body.i
                                        # =>This Inner Loop Header: Depth=1
	ld.d	$a4, $a3, 0
	bnez	$a4, .LBB2_7
# %bb.3:                                # %for.cond.i
                                        #   in Loop: Header=BB2_2 Depth=1
	addi.d	$a3, $a3, 8
	bne	$a3, $a2, .LBB2_2
.LBB2_4:                                # %invoke.cont
	beqz	$a0, .LBB2_6
# %bb.5:                                # %if.then.i.i
	ld.d	$a1, $a1, 16
	sub.d	$a1, $a1, $a0
	ld.d	$ra, $sp, 8                     # 8-byte Folded Reload
	addi.d	$sp, $sp, 16
	pcaddu18i	$t8, %call36(_ZdlPvm)
	jr	$t8
.LBB2_6:                                # %_ZNSt12_Vector_baseISt6threadSaIS0_EED2Ev.exit
	ld.d	$ra, $sp, 8                     # 8-byte Folded Reload
	addi.d	$sp, $sp, 16
	ret
.LBB2_7:                                # %if.then.i.i.i
	pcaddu18i	$ra, %call36(_ZSt9terminatev)
	jirl	$ra, $ra, 0
.Lfunc_end2:
	.size	_ZNSt6vectorISt6threadSaIS0_EED2Ev, .Lfunc_end2-_ZNSt6vectorISt6threadSaIS0_EED2Ev
	.cfi_endproc
                                        # -- End function
	.text
	.hidden	_ZN9benchmark8internal15BenchmarkRunner13DoNIterationsEv # -- Begin function _ZN9benchmark8internal15BenchmarkRunner13DoNIterationsEv
	.globl	_ZN9benchmark8internal15BenchmarkRunner13DoNIterationsEv
	.p2align	5
	.type	_ZN9benchmark8internal15BenchmarkRunner13DoNIterationsEv,@function
_ZN9benchmark8internal15BenchmarkRunner13DoNIterationsEv: # @_ZN9benchmark8internal15BenchmarkRunner13DoNIterationsEv
.Lfunc_begin1:
	.cfi_startproc
	.cfi_personality 155, DW.ref.__gxx_personality_v0
	.cfi_lsda 27, .Lexception1
# %bb.0:                                # %entry
	addi.d	$sp, $sp, -176
	.cfi_def_cfa_offset 176
	st.d	$ra, $sp, 168                   # 8-byte Folded Spill
	st.d	$fp, $sp, 160                   # 8-byte Folded Spill
	st.d	$s0, $sp, 152                   # 8-byte Folded Spill
	st.d	$s1, $sp, 144                   # 8-byte Folded Spill
	st.d	$s2, $sp, 136                   # 8-byte Folded Spill
	st.d	$s3, $sp, 128                   # 8-byte Folded Spill
	st.d	$s4, $sp, 120                   # 8-byte Folded Spill
	st.d	$s5, $sp, 112                   # 8-byte Folded Spill
	st.d	$s6, $sp, 104                   # 8-byte Folded Spill
	st.d	$s7, $sp, 96                    # 8-byte Folded Spill
	st.d	$s8, $sp, 88                    # 8-byte Folded Spill
	.cfi_offset 1, -8
	.cfi_offset 22, -16
	.cfi_offset 23, -24
	.cfi_offset 24, -32
	.cfi_offset 25, -40
	.cfi_offset 26, -48
	.cfi_offset 27, -56
	.cfi_offset 28, -64
	.cfi_offset 29, -72
	.cfi_offset 30, -80
	.cfi_offset 31, -88
	pcalau12i	$a4, %pc_hi20(_ZZN9benchmark8internal8LogLevelEvE9log_level)
	ld.w	$a2, $a4, %pc_lo12(_ZZN9benchmark8internal8LogLevelEvE9log_level)
	ori	$a3, $zero, 2
	move	$s0, $a1
	move	$fp, $a0
	st.d	$a4, $sp, 8                     # 8-byte Folded Spill
	bge	$a2, $a3, .LBB3_4
# %bb.1:                                # %if.end.i
	pcalau12i	$a0, %pc_hi20(_ZGVZN9benchmark8internal18GetNullLogInstanceEvE8null_log)
	ld.b	$a0, $a0, %pc_lo12(_ZGVZN9benchmark8internal18GetNullLogInstanceEvE8null_log)
	dbar	20
	pcalau12i	$a1, %pc_hi20(_ZZN9benchmark8internal18GetNullLogInstanceEvE8null_log)
	addi.d	$s3, $a1, %pc_lo12(_ZZN9benchmark8internal18GetNullLogInstanceEvE8null_log)
	bnez	$a0, .LBB3_5
# %bb.2:                                # %init.check.i2.i
	pcalau12i	$a0, %pc_hi20(_ZGVZN9benchmark8internal18GetNullLogInstanceEvE8null_log)
	addi.d	$s1, $a0, %pc_lo12(_ZGVZN9benchmark8internal18GetNullLogInstanceEvE8null_log)
	move	$a0, $s1
	pcaddu18i	$ra, %call36(__cxa_guard_acquire)
	jirl	$ra, $ra, 0
	addi.w	$a0, $a0, 0
	beqz	$a0, .LBB3_5
# %bb.3:                                # %init.i4.i
	pcalau12i	$a0, %pc_hi20(_ZZN9benchmark8internal18GetNullLogInstanceEvE8null_log)
	addi.d	$s3, $a0, %pc_lo12(_ZZN9benchmark8internal18GetNullLogInstanceEvE8null_log)
	st.d	$zero, $s3, 0
	b	.LBB3_76
.LBB3_4:                                # %if.then.i
	pcalau12i	$a0, %pc_hi20(_ZGVZN9benchmark8internal19GetErrorLogInstanceEvE9error_log)
	ld.b	$a0, $a0, %pc_lo12(_ZGVZN9benchmark8internal19GetErrorLogInstanceEvE9error_log)
	dbar	20
	pcalau12i	$a1, %pc_hi20(_ZZN9benchmark8internal19GetErrorLogInstanceEvE9error_log)
	addi.d	$s3, $a1, %pc_lo12(_ZZN9benchmark8internal19GetErrorLogInstanceEvE9error_log)
	beqz	$a0, .LBB3_74
.LBB3_5:                                # %_ZN9benchmark8internal22GetLogInstanceForLevelEi.exit
	ld.d	$a0, $s3, 0
	beqz	$a0, .LBB3_10
# %bb.6:                                # %_ZN9benchmark8internallsIA8_cEERNS0_7LogTypeES4_RKT_.exit
	pcalau12i	$a1, %pc_hi20(.L.str.3)
	addi.d	$a1, $a1, %pc_lo12(.L.str.3)
	ori	$a2, $zero, 7
	pcaddu18i	$ra, %call36(_ZSt16__ostream_insertIcSt11char_traitsIcEERSt13basic_ostreamIT_T0_ES6_PKS3_l)
	jirl	$ra, $ra, 0
	ld.d	$a0, $s3, 0
	beqz	$a0, .LBB3_10
# %bb.7:                                # %_ZN9benchmark8internallsIiEERNS0_7LogTypeES3_RKT_.exit
	ori	$a1, $zero, 2
	pcaddu18i	$ra, %call36(_ZNSolsEi)
	jirl	$ra, $ra, 0
	ld.d	$a0, $s3, 0
	beqz	$a0, .LBB3_10
# %bb.8:                                # %_ZN9benchmark8internallsIA4_cEERNS0_7LogTypeES4_RKT_.exit
	pcalau12i	$a1, %pc_hi20(.L.str.4)
	addi.d	$a1, $a1, %pc_lo12(.L.str.4)
	ori	$a2, $zero, 3
	pcaddu18i	$ra, %call36(_ZSt16__ostream_insertIcSt11char_traitsIcEERSt13basic_ostreamIT_T0_ES6_PKS3_l)
	jirl	$ra, $ra, 0
	ld.d	$a0, $s3, 0
	beqz	$a0, .LBB3_10
# %bb.9:                                # %if.then.i22
	pcalau12i	$a1, %pc_hi20(.L.str.9)
	addi.d	$a1, $a1, %pc_lo12(.L.str.9)
	ori	$a2, $zero, 8
	pcaddu18i	$ra, %call36(_ZSt16__ostream_insertIcSt11char_traitsIcEERSt13basic_ostreamIT_T0_ES6_PKS3_l)
	jirl	$ra, $ra, 0
.LBB3_10:                               # %_ZN9benchmark8internallsIA9_cEERNS0_7LogTypeES4_RKT_.exit
	ld.d	$a1, $s0, 56
	addi.d	$a0, $sp, 56
	pcaddu18i	$ra, %call36(_ZNK9benchmark13BenchmarkName3strB5cxx11Ev)
	jirl	$ra, $ra, 0
	ld.d	$a0, $s3, 0
	beqz	$a0, .LBB3_18
# %bb.11:                               # %if.then.i27
	ld.d	$a1, $sp, 56
	ld.d	$a2, $sp, 64
.Ltmp15:                                # EH_LABEL
	pcaddu18i	$ra, %call36(_ZSt16__ostream_insertIcSt11char_traitsIcEERSt13basic_ostreamIT_T0_ES6_PKS3_l)
	jirl	$ra, $ra, 0
.Ltmp16:                                # EH_LABEL
# %bb.12:                               # %invoke.cont
	ld.d	$a0, $s3, 0
	beqz	$a0, .LBB3_18
# %bb.13:                               # %if.then.i31
.Ltmp17:                                # EH_LABEL
	pcalau12i	$a1, %pc_hi20(.L.str.10)
	addi.d	$a1, $a1, %pc_lo12(.L.str.10)
	ori	$a2, $zero, 5
	pcaddu18i	$ra, %call36(_ZSt16__ostream_insertIcSt11char_traitsIcEERSt13basic_ostreamIT_T0_ES6_PKS3_l)
	jirl	$ra, $ra, 0
.Ltmp18:                                # EH_LABEL
# %bb.14:                               # %invoke.cont9
	ld.d	$a0, $s3, 0
	beqz	$a0, .LBB3_18
# %bb.15:                               # %if.then.i37
	ld.d	$a1, $s0, 168
.Ltmp19:                                # EH_LABEL
	pcaddu18i	$ra, %call36(_ZNSo9_M_insertIlEERSoT_)
	jirl	$ra, $ra, 0
.Ltmp20:                                # EH_LABEL
# %bb.16:                               # %invoke.cont11
	ld.d	$a0, $s3, 0
	beqz	$a0, .LBB3_18
# %bb.17:                               # %if.then.i41
.Ltmp21:                                # EH_LABEL
	pcalau12i	$a1, %pc_hi20(.L.str.11)
	addi.d	$a1, $a1, %pc_lo12(.L.str.11)
	ori	$a2, $zero, 1
	pcaddu18i	$ra, %call36(_ZSt16__ostream_insertIcSt11char_traitsIcEERSt13basic_ostreamIT_T0_ES6_PKS3_l)
	jirl	$ra, $ra, 0
.Ltmp22:                                # EH_LABEL
.LBB3_18:                               # %invoke.cont13
	ld.d	$a0, $sp, 56
	addi.d	$a1, $sp, 72
	beq	$a0, $a1, .LBB3_20
# %bb.19:                               # %if.then.i.i
	ld.d	$a1, $sp, 72
	addi.d	$a1, $a1, 1
	pcaddu18i	$ra, %call36(_ZdlPvm)
	jirl	$ra, $ra, 0
.LBB3_20:                               # %_ZNSt7__cxx1112basic_stringIcSt11char_traitsIcESaIcEED2Ev.exit
	st.d	$zero, $sp, 48
.Ltmp24:                                # EH_LABEL
	ori	$a0, $zero, 400
	pcaddu18i	$ra, %call36(_Znwm)
	jirl	$ra, $ra, 0
.Ltmp25:                                # EH_LABEL
# %bb.21:                               # %invoke.cont22
	move	$s1, $a0
	ld.d	$a0, $s0, 56
	ld.w	$s2, $a0, 400
	addi.d	$a0, $s1, 56
	st.d	$zero, $s1, 0
	vrepli.b	$vr0, 0
	vst	$vr0, $sp, 16                   # 16-byte Folded Spill
	vst	$vr0, $s1, 8
	vst	$vr0, $s1, 24
	st.d	$a0, $s1, 40
	st.d	$zero, $s1, 48
	st.b	$zero, $s1, 56
	addi.d	$a0, $s1, 88
	st.d	$a0, $s1, 72
	st.d	$zero, $s1, 80
	st.b	$zero, $s1, 88
	st.w	$zero, $s1, 104
	addi.d	$a0, $s1, 120
	st.w	$zero, $s1, 120
	st.d	$zero, $s1, 128
	st.d	$a0, $s1, 136
	st.d	$a0, $s1, 144
	vst	$vr0, $s1, 184
	vst	$vr0, $s1, 168
	vst	$vr0, $s1, 152
	st.w	$s2, $s1, 200
	st.d	$zero, $s1, 240
	vst	$vr0, $s1, 208
	vst	$vr0, $s1, 224
	addi.d	$a0, $s1, 248
	pcaddu18i	$ra, %call36(_ZNSt18condition_variableC1Ev)
	jirl	$ra, $ra, 0
	st.w	$s2, $s1, 296
	st.d	$zero, $s1, 300
	st.d	$zero, $s1, 312
	vld	$vr0, $sp, 16                   # 16-byte Folded Reload
	vst	$vr0, $s1, 320
	vst	$vr0, $s1, 336
	addi.d	$a0, $s1, 352
	pcaddu18i	$ra, %call36(_ZNSt18condition_variableC1Ev)
	jirl	$ra, $ra, 0
	ld.d	$a1, $sp, 48
	st.d	$s1, $sp, 48
	beqz	$a1, .LBB3_23
# %bb.22:                               # %if.then.i.i49
	addi.d	$a0, $sp, 48
	pcaddu18i	$ra, %call36(_ZNKSt14default_deleteIN9benchmark8internal13ThreadManagerEEclEPS2_)
	jirl	$ra, $ra, 0
.LBB3_23:                               # %_ZNSt10unique_ptrIN9benchmark8internal13ThreadManagerESt14default_deleteIS2_EE5resetEPS2_.exit
	ld.d	$a0, $s0, 128
	ld.d	$a1, $s0, 120
	beq	$a0, $a1, .LBB3_31
# %bb.24:                               # %for.body.lr.ph
	ori	$s3, $zero, 1
	pcalau12i	$a0, %pc_hi20(_ZTVNSt6thread11_State_implINS_8_InvokerISt5tupleIJPFvPKN9benchmark8internal17BenchmarkInstanceEliPNS4_13ThreadManagerEPNS4_23PerfCountersMeasurementEPNS3_15ProfilerManagerEES7_liS9_SB_DnEEEEEE+16)
	addi.d	$s4, $a0, %pc_lo12(_ZTVNSt6thread11_State_implINS_8_InvokerISt5tupleIJPFvPKN9benchmark8internal17BenchmarkInstanceEliPNS4_13ThreadManagerEPNS4_23PerfCountersMeasurementEPNS3_15ProfilerManagerEES7_liS9_SB_DnEEEEEE+16)
	pcalau12i	$a0, %pc_hi20(_ZN9benchmark8internal12_GLOBAL__N_111RunInThreadEPKNS0_17BenchmarkInstanceEliPNS0_13ThreadManagerEPNS0_23PerfCountersMeasurementEPNS_15ProfilerManagerE)
	addi.d	$s5, $a0, %pc_lo12(_ZN9benchmark8internal12_GLOBAL__N_111RunInThreadEPKNS0_17BenchmarkInstanceEliPNS0_13ThreadManagerEPNS0_23PerfCountersMeasurementEPNS_15ProfilerManagerE)
	pcalau12i	$a0, %pc_hi20(_ZNSt6thread24_M_thread_deps_never_runEv)
	addi.d	$s1, $a0, %pc_lo12(_ZNSt6thread24_M_thread_deps_never_runEv)
	move	$s6, $zero
	move	$s7, $zero
	.p2align	4, , 16
.LBB3_25:                               # %for.body
                                        # =>This Inner Loop Header: Depth=1
	ld.d	$s8, $s0, 56
	ld.d	$s2, $sp, 48
	st.d	$zero, $sp, 40
.Ltmp26:                                # EH_LABEL
	ori	$a0, $zero, 64
	pcaddu18i	$ra, %call36(_Znwm)
	jirl	$ra, $ra, 0
.Ltmp27:                                # EH_LABEL
# %bb.26:                               # %call.i58.noexc
                                        #   in Loop: Header=BB3_25 Depth=1
	ld.d	$a1, $s0, 176
	st.d	$s4, $a0, 0
	st.d	$zero, $a0, 8
	ld.d	$a2, $s0, 168
	st.d	$a1, $a0, 16
	st.d	$s2, $a0, 24
	st.w	$s3, $a0, 32
	st.d	$a2, $a0, 40
	st.d	$s8, $a0, 48
	st.d	$s5, $a0, 56
	st.d	$a0, $sp, 56
.Ltmp29:                                # EH_LABEL
	addi.d	$a0, $sp, 40
	addi.d	$a1, $sp, 56
	move	$a2, $s1
	pcaddu18i	$ra, %call36(_ZNSt6thread15_M_start_threadESt10unique_ptrINS_6_StateESt14default_deleteIS1_EEPFvvE)
	jirl	$ra, $ra, 0
.Ltmp30:                                # EH_LABEL
# %bb.27:                               # %invoke.cont13.i
                                        #   in Loop: Header=BB3_25 Depth=1
	ld.d	$a0, $sp, 56
	beqz	$a0, .LBB3_29
# %bb.28:                               # %_ZNKSt14default_deleteINSt6thread6_StateEEclEPS1_.exit.i.i
                                        #   in Loop: Header=BB3_25 Depth=1
	ld.d	$a1, $a0, 0
	ld.d	$a1, $a1, 8
	jirl	$ra, $a1, 0
.LBB3_29:                               # %invoke.cont34
                                        #   in Loop: Header=BB3_25 Depth=1
	ld.d	$a0, $s0, 120
	ldx.d	$a1, $a0, $s6
	bnez	$a1, .LBB3_71
# %bb.30:                               # %_ZNSt6threadD2Ev.exit
                                        #   in Loop: Header=BB3_25 Depth=1
	ld.d	$a1, $sp, 40
	stx.d	$a1, $a0, $s6
	ld.d	$a1, $s0, 128
	addi.d	$s7, $s7, 1
	sub.d	$a0, $a1, $a0
	srai.d	$a0, $a0, 3
	addi.d	$s3, $s3, 1
	addi.d	$s6, $s6, 8
	bltu	$s7, $a0, .LBB3_25
.LBB3_31:                               # %for.cond.cleanup
	ld.d	$a0, $s0, 56
	ld.d	$a1, $s0, 168
	ld.d	$a3, $sp, 48
	ld.d	$a4, $s0, 176
.Ltmp32:                                # EH_LABEL
	move	$a2, $zero
	move	$a5, $zero
	pcaddu18i	$ra, %call36(_ZN9benchmark8internal12_GLOBAL__N_111RunInThreadEPKNS0_17BenchmarkInstanceEliPNS0_13ThreadManagerEPNS0_23PerfCountersMeasurementEPNS_15ProfilerManagerE)
	jirl	$ra, $ra, 0
.Ltmp33:                                # EH_LABEL
# %bb.32:                               # %invoke.cont42
	ld.d	$a0, $sp, 48
.Ltmp34:                                # EH_LABEL
	pcaddu18i	$ra, %call36(_ZN9benchmark8internal13ThreadManager17WaitForAllThreadsEv)
	jirl	$ra, $ra, 0
.Ltmp35:                                # EH_LABEL
# %bb.33:                               # %invoke.cont44
	ld.d	$s1, $s0, 120
	ld.d	$s2, $s0, 128
	beq	$s1, $s2, .LBB3_36
	.p2align	4, , 16
.LBB3_34:                               # %for.body53
                                        # =>This Inner Loop Header: Depth=1
.Ltmp37:                                # EH_LABEL
	move	$a0, $s1
	pcaddu18i	$ra, %call36(_ZNSt6thread4joinEv)
	jirl	$ra, $ra, 0
.Ltmp38:                                # EH_LABEL
# %bb.35:                               # %invoke.cont56
                                        #   in Loop: Header=BB3_34 Depth=1
	addi.d	$s1, $s1, 8
	bne	$s1, $s2, .LBB3_34
.LBB3_36:                               # %for.cond.cleanup52
	addi.d	$a0, $fp, 56
	st.d	$zero, $fp, 32
	vld	$vr0, $sp, 16                   # 16-byte Folded Reload
	vst	$vr0, $fp, 16
	vst	$vr0, $fp, 0
	st.d	$a0, $fp, 40
	st.d	$zero, $fp, 48
	st.b	$zero, $fp, 56
	addi.d	$a0, $fp, 88
	st.d	$a0, $fp, 72
	st.d	$zero, $fp, 80
	st.b	$zero, $fp, 88
	st.w	$zero, $fp, 104
	addi.d	$a0, $fp, 120
	st.d	$a0, $fp, 136
	st.d	$a0, $fp, 144
	ld.d	$a0, $sp, 48
	st.w	$zero, $fp, 120
	st.d	$zero, $fp, 128
	st.d	$zero, $fp, 152
	addi.d	$s1, $a0, 160
	move	$a0, $s1
	pcaddu18i	$ra, %call36(pthread_mutex_lock)
	jirl	$ra, $ra, 0
	bnez	$a0, .LBB3_72
# %bb.37:                               # %invoke.cont64
	ld.d	$s3, $sp, 48
	ld.d	$a0, $s3, 0
	st.d	$a0, $fp, 0
	vld	$vr0, $s3, 8
	vst	$vr0, $fp, 8
	vld	$vr0, $s3, 24
	addi.d	$a0, $fp, 40
	vst	$vr0, $fp, 24
	addi.d	$a1, $s3, 40
.Ltmp43:                                # EH_LABEL
	pcaddu18i	$ra, %call36(_ZNSt7__cxx1112basic_stringIcSt11char_traitsIcESaIcEE9_M_assignERKS4_)
	jirl	$ra, $ra, 0
.Ltmp44:                                # EH_LABEL
# %bb.38:                               # %.noexc77
	addi.d	$a0, $fp, 72
	addi.d	$a1, $s3, 72
.Ltmp45:                                # EH_LABEL
	pcaddu18i	$ra, %call36(_ZNSt7__cxx1112basic_stringIcSt11char_traitsIcESaIcEE9_M_assignERKS4_)
	jirl	$ra, $ra, 0
.Ltmp46:                                # EH_LABEL
# %bb.39:                               # %.noexc78
	ld.w	$a0, $s3, 104
	st.w	$a0, $fp, 104
	addi.d	$a0, $fp, 112
	addi.d	$a1, $s3, 112
.Ltmp47:                                # EH_LABEL
	pcaddu18i	$ra, %call36(_ZNSt8_Rb_treeINSt7__cxx1112basic_stringIcSt11char_traitsIcESaIcEEESt4pairIKS5_N9benchmark7CounterEESt10_Select1stISA_ESt4lessIS5_ESaISA_EEaSERKSG_)
	jirl	$ra, $ra, 0
.Ltmp48:                                # EH_LABEL
# %bb.40:                               # %_ZN9benchmark9MutexLockD2Ev.exit
	move	$a0, $s1
	pcaddu18i	$ra, %call36(pthread_mutex_unlock)
	jirl	$ra, $ra, 0
	ld.d	$a1, $sp, 48
	st.d	$zero, $sp, 48
	beqz	$a1, .LBB3_42
# %bb.41:                               # %if.then.i.i84
	addi.d	$a0, $sp, 48
	pcaddu18i	$ra, %call36(_ZNKSt14default_deleteIN9benchmark8internal13ThreadManagerEEclEPS2_)
	jirl	$ra, $ra, 0
.LBB3_42:                               # %_ZNSt10unique_ptrIN9benchmark8internal13ThreadManagerESt14default_deleteIS2_EE5resetEPS2_.exit85
	ld.d	$a0, $sp, 8                     # 8-byte Folded Reload
	ld.w	$a0, $a0, %pc_lo12(_ZZN9benchmark8internal8LogLevelEvE9log_level)
	ori	$a1, $zero, 2
	bge	$a0, $a1, .LBB3_46
# %bb.43:                               # %if.end.i96
	pcalau12i	$a0, %pc_hi20(_ZGVZN9benchmark8internal18GetNullLogInstanceEvE8null_log)
	ld.b	$a0, $a0, %pc_lo12(_ZGVZN9benchmark8internal18GetNullLogInstanceEvE8null_log)
	dbar	20
	pcalau12i	$a1, %pc_hi20(_ZZN9benchmark8internal18GetNullLogInstanceEvE8null_log)
	addi.d	$s2, $a1, %pc_lo12(_ZZN9benchmark8internal18GetNullLogInstanceEvE8null_log)
	bnez	$a0, .LBB3_47
# %bb.44:                               # %init.check.i2.i98
	pcalau12i	$a0, %pc_hi20(_ZGVZN9benchmark8internal18GetNullLogInstanceEvE8null_log)
	addi.d	$s1, $a0, %pc_lo12(_ZGVZN9benchmark8internal18GetNullLogInstanceEvE8null_log)
	move	$a0, $s1
	pcaddu18i	$ra, %call36(__cxa_guard_acquire)
	jirl	$ra, $ra, 0
	addi.w	$a0, $a0, 0
	beqz	$a0, .LBB3_47
# %bb.45:                               # %init.i4.i100
	pcalau12i	$a0, %pc_hi20(_ZZN9benchmark8internal18GetNullLogInstanceEvE8null_log)
	addi.d	$s2, $a0, %pc_lo12(_ZZN9benchmark8internal18GetNullLogInstanceEvE8null_log)
	st.d	$zero, $s2, 0
	b	.LBB3_79
.LBB3_46:                               # %if.then.i87
	pcalau12i	$a0, %pc_hi20(_ZGVZN9benchmark8internal19GetErrorLogInstanceEvE9error_log)
	ld.b	$a0, $a0, %pc_lo12(_ZGVZN9benchmark8internal19GetErrorLogInstanceEvE9error_log)
	dbar	20
	pcalau12i	$a1, %pc_hi20(_ZZN9benchmark8internal19GetErrorLogInstanceEvE9error_log)
	addi.d	$s2, $a1, %pc_lo12(_ZZN9benchmark8internal19GetErrorLogInstanceEvE9error_log)
	beqz	$a0, .LBB3_77
.LBB3_47:                               # %invoke.cont71
	ld.d	$a0, $s2, 0
	beqz	$a0, .LBB3_63
# %bb.48:                               # %if.then.i103
.Ltmp50:                                # EH_LABEL
	pcalau12i	$a1, %pc_hi20(.L.str.3)
	addi.d	$a1, $a1, %pc_lo12(.L.str.3)
	ori	$a2, $zero, 7
	pcaddu18i	$ra, %call36(_ZSt16__ostream_insertIcSt11char_traitsIcEERSt13basic_ostreamIT_T0_ES6_PKS3_l)
	jirl	$ra, $ra, 0
.Ltmp51:                                # EH_LABEL
# %bb.49:                               # %invoke.cont73
	ld.d	$a0, $s2, 0
	beqz	$a0, .LBB3_63
# %bb.50:                               # %if.then.i110
.Ltmp53:                                # EH_LABEL
	ori	$a1, $zero, 2
	pcaddu18i	$ra, %call36(_ZNSolsEi)
	jirl	$ra, $ra, 0
.Ltmp54:                                # EH_LABEL
# %bb.51:                               # %invoke.cont77
	ld.d	$a0, $s2, 0
	beqz	$a0, .LBB3_63
# %bb.52:                               # %if.then.i116
.Ltmp55:                                # EH_LABEL
	pcalau12i	$a1, %pc_hi20(.L.str.4)
	addi.d	$a1, $a1, %pc_lo12(.L.str.4)
	ori	$a2, $zero, 3
	pcaddu18i	$ra, %call36(_ZSt16__ostream_insertIcSt11char_traitsIcEERSt13basic_ostreamIT_T0_ES6_PKS3_l)
	jirl	$ra, $ra, 0
.Ltmp56:                                # EH_LABEL
# %bb.53:                               # %invoke.cont79
	ld.d	$a0, $s2, 0
	beqz	$a0, .LBB3_63
# %bb.54:                               # %if.then.i123
.Ltmp57:                                # EH_LABEL
	pcalau12i	$a1, %pc_hi20(.L.str.12)
	addi.d	$a1, $a1, %pc_lo12(.L.str.12)
	ori	$a2, $zero, 7
	pcaddu18i	$ra, %call36(_ZSt16__ostream_insertIcSt11char_traitsIcEERSt13basic_ostreamIT_T0_ES6_PKS3_l)
	jirl	$ra, $ra, 0
.Ltmp58:                                # EH_LABEL
# %bb.55:                               # %invoke.cont81
	ld.d	$a0, $s2, 0
	beqz	$a0, .LBB3_63
# %bb.56:                               # %if.then.i130
	fld.d	$fa0, $fp, 16
.Ltmp59:                                # EH_LABEL
	pcaddu18i	$ra, %call36(_ZNSo9_M_insertIdEERSoT_)
	jirl	$ra, $ra, 0
.Ltmp60:                                # EH_LABEL
# %bb.57:                               # %invoke.cont84
	ld.d	$a0, $s2, 0
	beqz	$a0, .LBB3_63
# %bb.58:                               # %if.then.i135
.Ltmp61:                                # EH_LABEL
	pcalau12i	$a1, %pc_hi20(.L.str.13)
	addi.d	$a1, $a1, %pc_lo12(.L.str.13)
	ori	$a2, $zero, 1
	pcaddu18i	$ra, %call36(_ZSt16__ostream_insertIcSt11char_traitsIcEERSt13basic_ostreamIT_T0_ES6_PKS3_l)
	jirl	$ra, $ra, 0
.Ltmp62:                                # EH_LABEL
# %bb.59:                               # %invoke.cont86
	ld.d	$a0, $s2, 0
	addi.d	$s1, $fp, 8
	beqz	$a0, .LBB3_64
# %bb.60:                               # %if.then.i142
	fld.d	$fa0, $s1, 0
.Ltmp63:                                # EH_LABEL
	pcaddu18i	$ra, %call36(_ZNSo9_M_insertIdEERSoT_)
	jirl	$ra, $ra, 0
.Ltmp64:                                # EH_LABEL
# %bb.61:                               # %invoke.cont89
	ld.d	$a0, $s2, 0
	beqz	$a0, .LBB3_64
# %bb.62:                               # %if.then.i148
.Ltmp65:                                # EH_LABEL
	pcalau12i	$a1, %pc_hi20(.L.str.11)
	addi.d	$a1, $a1, %pc_lo12(.L.str.11)
	ori	$a2, $zero, 1
	pcaddu18i	$ra, %call36(_ZSt16__ostream_insertIcSt11char_traitsIcEERSt13basic_ostreamIT_T0_ES6_PKS3_l)
	jirl	$ra, $ra, 0
.Ltmp66:                                # EH_LABEL
	b	.LBB3_64
.LBB3_63:                               # %invoke.cont89.thread
	addi.d	$s1, $fp, 8
.LBB3_64:                               # %invoke.cont91
	ld.d	$a0, $s0, 56
	ld.d	$a1, $fp, 0
	ld.w	$a2, $a0, 400
	fld.d	$fa0, $fp, 16
	div.d	$a1, $a1, $a2
	st.d	$a1, $fp, 160
	fst.d	$fa0, $fp, 168
	ld.bu	$a1, $a0, 294
	beqz	$a1, .LBB3_66
# %bb.65:                               # %if.then
	addi.d	$s1, $fp, 24
	b	.LBB3_67
.LBB3_66:                               # %if.else
	ld.bu	$a0, $a0, 293
	beqz	$a0, .LBB3_68
.LBB3_67:                               # %nrvo.skipdtor.sink.split
	fld.d	$fa0, $s1, 0
	fst.d	$fa0, $fp, 168
.LBB3_68:                               # %nrvo.skipdtor
	ld.d	$a1, $sp, 48
	beqz	$a1, .LBB3_70
# %bb.69:                               # %if.then.i164
	addi.d	$a0, $sp, 48
	pcaddu18i	$ra, %call36(_ZNKSt14default_deleteIN9benchmark8internal13ThreadManagerEEclEPS2_)
	jirl	$ra, $ra, 0
.LBB3_70:                               # %_ZNSt10unique_ptrIN9benchmark8internal13ThreadManagerESt14default_deleteIS2_EED2Ev.exit
	ld.d	$s8, $sp, 88                    # 8-byte Folded Reload
	ld.d	$s7, $sp, 96                    # 8-byte Folded Reload
	ld.d	$s6, $sp, 104                   # 8-byte Folded Reload
	ld.d	$s5, $sp, 112                   # 8-byte Folded Reload
	ld.d	$s4, $sp, 120                   # 8-byte Folded Reload
	ld.d	$s3, $sp, 128                   # 8-byte Folded Reload
	ld.d	$s2, $sp, 136                   # 8-byte Folded Reload
	ld.d	$s1, $sp, 144                   # 8-byte Folded Reload
	ld.d	$s0, $sp, 152                   # 8-byte Folded Reload
	ld.d	$fp, $sp, 160                   # 8-byte Folded Reload
	ld.d	$ra, $sp, 168                   # 8-byte Folded Reload
	addi.d	$sp, $sp, 176
	ret
.LBB3_71:                               # %if.then.i60
	pcaddu18i	$ra, %call36(_ZSt9terminatev)
	jirl	$ra, $ra, 0
.LBB3_72:                               # %if.then.i.i.i.i
.Ltmp40:                                # EH_LABEL
	pcaddu18i	$ra, %call36(_ZSt20__throw_system_errori)
	jirl	$ra, $ra, 0
.Ltmp41:                                # EH_LABEL
# %bb.73:                               # %.noexc
.LBB3_74:                               # %init.check.i.i
	pcalau12i	$a0, %pc_hi20(_ZGVZN9benchmark8internal19GetErrorLogInstanceEvE9error_log)
	addi.d	$s1, $a0, %pc_lo12(_ZGVZN9benchmark8internal19GetErrorLogInstanceEvE9error_log)
	move	$a0, $s1
	pcaddu18i	$ra, %call36(__cxa_guard_acquire)
	jirl	$ra, $ra, 0
	addi.w	$a0, $a0, 0
	beqz	$a0, .LBB3_5
# %bb.75:                               # %init.i.i
	pcalau12i	$a0, %pc_hi20(_ZZN9benchmark8internal19GetErrorLogInstanceEvE9error_log)
	addi.d	$s3, $a0, %pc_lo12(_ZZN9benchmark8internal19GetErrorLogInstanceEvE9error_log)
	pcalau12i	$a0, %got_pc_hi20(_ZSt4clog)
	ld.d	$a0, $a0, %got_pc_lo12(_ZSt4clog)
	st.d	$a0, $s3, 0
.LBB3_76:                               # %return.sink.split.i
	move	$a0, $s1
	pcaddu18i	$ra, %call36(__cxa_guard_release)
	jirl	$ra, $ra, 0
	b	.LBB3_5
.LBB3_77:                               # %init.check.i.i90
	pcalau12i	$a0, %pc_hi20(_ZGVZN9benchmark8internal19GetErrorLogInstanceEvE9error_log)
	addi.d	$s1, $a0, %pc_lo12(_ZGVZN9benchmark8internal19GetErrorLogInstanceEvE9error_log)
	move	$a0, $s1
	pcaddu18i	$ra, %call36(__cxa_guard_acquire)
	jirl	$ra, $ra, 0
	addi.w	$a0, $a0, 0
	beqz	$a0, .LBB3_47
# %bb.78:                               # %init.i.i92
	pcalau12i	$a0, %pc_hi20(_ZZN9benchmark8internal19GetErrorLogInstanceEvE9error_log)
	addi.d	$s2, $a0, %pc_lo12(_ZZN9benchmark8internal19GetErrorLogInstanceEvE9error_log)
	pcalau12i	$a0, %got_pc_hi20(_ZSt4clog)
	ld.d	$a0, $a0, %got_pc_lo12(_ZSt4clog)
	st.d	$a0, $s2, 0
.LBB3_79:                               # %return.sink.split.i93
	move	$a0, $s1
	pcaddu18i	$ra, %call36(__cxa_guard_release)
	jirl	$ra, $ra, 0
	b	.LBB3_47
.LBB3_80:                               # %lpad70
.Ltmp52:                                # EH_LABEL
	b	.LBB3_83
.LBB3_81:                               # %lpad61
.Ltmp42:                                # EH_LABEL
	b	.LBB3_83
.LBB3_82:                               # %lpad76
.Ltmp67:                                # EH_LABEL
.LBB3_83:                               # %ehcleanup115
	move	$s0, $a0
	b	.LBB3_87
.LBB3_84:                               # %lpad
.Ltmp23:                                # EH_LABEL
	ld.d	$a2, $sp, 56
	addi.d	$a1, $sp, 72
	move	$s0, $a0
	beq	$a2, $a1, .LBB3_96
# %bb.85:                               # %if.then.i.i52
	ld.d	$a0, $sp, 72
	addi.d	$a1, $a0, 1
	move	$a0, $a2
	pcaddu18i	$ra, %call36(_ZdlPvm)
	jirl	$ra, $ra, 0
	move	$a0, $s0
	pcaddu18i	$ra, %call36(_Unwind_Resume)
	jirl	$ra, $ra, 0
.LBB3_86:                               # %_ZN9benchmark9MutexLockD2Ev.exit161
.Ltmp49:                                # EH_LABEL
	move	$s0, $a0
	move	$a0, $s1
	pcaddu18i	$ra, %call36(pthread_mutex_unlock)
	jirl	$ra, $ra, 0
.LBB3_87:                               # %ehcleanup115
	move	$a0, $fp
	pcaddu18i	$ra, %call36(_ZN9benchmark8internal15BenchmarkRunner16IterationResultsD2Ev)
	jirl	$ra, $ra, 0
	b	.LBB3_94
.LBB3_88:                               # %lpad15
.Ltmp36:                                # EH_LABEL
	b	.LBB3_93
.LBB3_89:                               # %lpad33
.Ltmp28:                                # EH_LABEL
	b	.LBB3_93
.LBB3_90:                               # %lpad12.i
.Ltmp31:                                # EH_LABEL
	ld.d	$a1, $sp, 56
	move	$s0, $a0
	beqz	$a1, .LBB3_94
# %bb.91:                               # %_ZNKSt14default_deleteINSt6thread6_StateEEclEPS1_.exit.i3.i
	ld.d	$a0, $a1, 0
	ld.d	$a2, $a0, 8
	move	$a0, $a1
	jirl	$ra, $a2, 0
	b	.LBB3_94
.LBB3_92:                               # %lpad55
.Ltmp39:                                # EH_LABEL
.LBB3_93:                               # %ehcleanup116
	move	$s0, $a0
.LBB3_94:                               # %ehcleanup116
	ld.d	$a1, $sp, 48
	beqz	$a1, .LBB3_96
# %bb.95:                               # %if.then.i167
	addi.d	$a0, $sp, 48
	pcaddu18i	$ra, %call36(_ZNKSt14default_deleteIN9benchmark8internal13ThreadManagerEEclEPS2_)
	jirl	$ra, $ra, 0
.LBB3_96:                               # %eh.resume
	move	$a0, $s0
	pcaddu18i	$ra, %call36(_Unwind_Resume)
	jirl	$ra, $ra, 0
.Lfunc_end3:
	.size	_ZN9benchmark8internal15BenchmarkRunner13DoNIterationsEv, .Lfunc_end3-_ZN9benchmark8internal15BenchmarkRunner13DoNIterationsEv
	.cfi_endproc
	.section	.gcc_except_table,"a",@progbits
	.p2align	2, 0x0
GCC_except_table3:
.Lexception1:
	.byte	255                             # @LPStart Encoding = omit
	.byte	255                             # @TType Encoding = omit
	.byte	1                               # Call site Encoding = uleb128
	.uleb128 .Lcst_end1-.Lcst_begin1
.Lcst_begin1:
	.uleb128 .Lfunc_begin1-.Lfunc_begin1    # >> Call Site 1 <<
	.uleb128 .Ltmp15-.Lfunc_begin1          #   Call between .Lfunc_begin1 and .Ltmp15
	.byte	0                               #     has no landing pad
	.byte	0                               #   On action: cleanup
	.uleb128 .Ltmp15-.Lfunc_begin1          # >> Call Site 2 <<
	.uleb128 .Ltmp22-.Ltmp15                #   Call between .Ltmp15 and .Ltmp22
	.uleb128 .Ltmp23-.Lfunc_begin1          #     jumps to .Ltmp23
	.byte	0                               #   On action: cleanup
	.uleb128 .Ltmp22-.Lfunc_begin1          # >> Call Site 3 <<
	.uleb128 .Ltmp24-.Ltmp22                #   Call between .Ltmp22 and .Ltmp24
	.byte	0                               #     has no landing pad
	.byte	0                               #   On action: cleanup
	.uleb128 .Ltmp24-.Lfunc_begin1          # >> Call Site 4 <<
	.uleb128 .Ltmp25-.Ltmp24                #   Call between .Ltmp24 and .Ltmp25
	.uleb128 .Ltmp36-.Lfunc_begin1          #     jumps to .Ltmp36
	.byte	0                               #   On action: cleanup
	.uleb128 .Ltmp25-.Lfunc_begin1          # >> Call Site 5 <<
	.uleb128 .Ltmp26-.Ltmp25                #   Call between .Ltmp25 and .Ltmp26
	.byte	0                               #     has no landing pad
	.byte	0                               #   On action: cleanup
	.uleb128 .Ltmp26-.Lfunc_begin1          # >> Call Site 6 <<
	.uleb128 .Ltmp27-.Ltmp26                #   Call between .Ltmp26 and .Ltmp27
	.uleb128 .Ltmp28-.Lfunc_begin1          #     jumps to .Ltmp28
	.byte	0                               #   On action: cleanup
	.uleb128 .Ltmp29-.Lfunc_begin1          # >> Call Site 7 <<
	.uleb128 .Ltmp30-.Ltmp29                #   Call between .Ltmp29 and .Ltmp30
	.uleb128 .Ltmp31-.Lfunc_begin1          #     jumps to .Ltmp31
	.byte	0                               #   On action: cleanup
	.uleb128 .Ltmp30-.Lfunc_begin1          # >> Call Site 8 <<
	.uleb128 .Ltmp32-.Ltmp30                #   Call between .Ltmp30 and .Ltmp32
	.byte	0                               #     has no landing pad
	.byte	0                               #   On action: cleanup
	.uleb128 .Ltmp32-.Lfunc_begin1          # >> Call Site 9 <<
	.uleb128 .Ltmp35-.Ltmp32                #   Call between .Ltmp32 and .Ltmp35
	.uleb128 .Ltmp36-.Lfunc_begin1          #     jumps to .Ltmp36
	.byte	0                               #   On action: cleanup
	.uleb128 .Ltmp37-.Lfunc_begin1          # >> Call Site 10 <<
	.uleb128 .Ltmp38-.Ltmp37                #   Call between .Ltmp37 and .Ltmp38
	.uleb128 .Ltmp39-.Lfunc_begin1          #     jumps to .Ltmp39
	.byte	0                               #   On action: cleanup
	.uleb128 .Ltmp38-.Lfunc_begin1          # >> Call Site 11 <<
	.uleb128 .Ltmp43-.Ltmp38                #   Call between .Ltmp38 and .Ltmp43
	.byte	0                               #     has no landing pad
	.byte	0                               #   On action: cleanup
	.uleb128 .Ltmp43-.Lfunc_begin1          # >> Call Site 12 <<
	.uleb128 .Ltmp48-.Ltmp43                #   Call between .Ltmp43 and .Ltmp48
	.uleb128 .Ltmp49-.Lfunc_begin1          #     jumps to .Ltmp49
	.byte	0                               #   On action: cleanup
	.uleb128 .Ltmp48-.Lfunc_begin1          # >> Call Site 13 <<
	.uleb128 .Ltmp50-.Ltmp48                #   Call between .Ltmp48 and .Ltmp50
	.byte	0                               #     has no landing pad
	.byte	0                               #   On action: cleanup
	.uleb128 .Ltmp50-.Lfunc_begin1          # >> Call Site 14 <<
	.uleb128 .Ltmp51-.Ltmp50                #   Call between .Ltmp50 and .Ltmp51
	.uleb128 .Ltmp52-.Lfunc_begin1          #     jumps to .Ltmp52
	.byte	0                               #   On action: cleanup
	.uleb128 .Ltmp53-.Lfunc_begin1          # >> Call Site 15 <<
	.uleb128 .Ltmp66-.Ltmp53                #   Call between .Ltmp53 and .Ltmp66
	.uleb128 .Ltmp67-.Lfunc_begin1          #     jumps to .Ltmp67
	.byte	0                               #   On action: cleanup
	.uleb128 .Ltmp66-.Lfunc_begin1          # >> Call Site 16 <<
	.uleb128 .Ltmp40-.Ltmp66                #   Call between .Ltmp66 and .Ltmp40
	.byte	0                               #     has no landing pad
	.byte	0                               #   On action: cleanup
	.uleb128 .Ltmp40-.Lfunc_begin1          # >> Call Site 17 <<
	.uleb128 .Ltmp41-.Ltmp40                #   Call between .Ltmp40 and .Ltmp41
	.uleb128 .Ltmp42-.Lfunc_begin1          #     jumps to .Ltmp42
	.byte	0                               #   On action: cleanup
	.uleb128 .Ltmp41-.Lfunc_begin1          # >> Call Site 18 <<
	.uleb128 .Lfunc_end3-.Ltmp41            #   Call between .Ltmp41 and .Lfunc_end3
	.byte	0                               #     has no landing pad
	.byte	0                               #   On action: cleanup
.Lcst_end1:
	.p2align	2, 0x0
                                        # -- End function
	.text
	.p2align	5                               # -- Begin function _ZN9benchmark8internal12_GLOBAL__N_111RunInThreadEPKNS0_17BenchmarkInstanceEliPNS0_13ThreadManagerEPNS0_23PerfCountersMeasurementEPNS_15ProfilerManagerE
	.type	_ZN9benchmark8internal12_GLOBAL__N_111RunInThreadEPKNS0_17BenchmarkInstanceEliPNS0_13ThreadManagerEPNS0_23PerfCountersMeasurementEPNS_15ProfilerManagerE,@function
_ZN9benchmark8internal12_GLOBAL__N_111RunInThreadEPKNS0_17BenchmarkInstanceEliPNS0_13ThreadManagerEPNS0_23PerfCountersMeasurementEPNS_15ProfilerManagerE: # @_ZN9benchmark8internal12_GLOBAL__N_111RunInThreadEPKNS0_17BenchmarkInstanceEliPNS0_13ThreadManagerEPNS0_23PerfCountersMeasurementEPNS_15ProfilerManagerE
.Lfunc_begin2:
	.cfi_startproc
	.cfi_personality 155, DW.ref.__gxx_personality_v0
	.cfi_lsda 27, .Lexception2
# %bb.0:                                # %entry
	addi.d	$sp, $sp, -384
	.cfi_def_cfa_offset 384
	st.d	$ra, $sp, 376                   # 8-byte Folded Spill
	st.d	$fp, $sp, 368                   # 8-byte Folded Spill
	st.d	$s0, $sp, 360                   # 8-byte Folded Spill
	st.d	$s1, $sp, 352                   # 8-byte Folded Spill
	st.d	$s2, $sp, 344                   # 8-byte Folded Spill
	st.d	$s3, $sp, 336                   # 8-byte Folded Spill
	.cfi_offset 1, -8
	.cfi_offset 22, -16
	.cfi_offset 23, -24
	.cfi_offset 24, -32
	.cfi_offset 25, -40
	.cfi_offset 26, -48
	addi.d	$fp, $sp, 384
	.cfi_def_cfa 22, 0
	bstrins.d	$sp, $zero, 5, 0
	move	$a7, $a5
	move	$a6, $a4
	move	$s0, $a3
	move	$a3, $a2
	move	$a2, $a1
	move	$a1, $a0
	ld.b	$a0, $a0, 292
	st.d	$zero, $sp, 296
	vrepli.b	$vr0, 0
	vst	$vr0, $sp, 304
	vst	$vr0, $sp, 320
	st.b	$a0, $sp, 288
	st.b	$zero, $sp, 289
	addi.d	$a0, $sp, 64
	addi.d	$a4, $sp, 288
	move	$a5, $s0
	pcaddu18i	$ra, %call36(_ZNK9benchmark8internal17BenchmarkInstance3RunEliPNS0_11ThreadTimerEPNS0_13ThreadManagerEPNS0_23PerfCountersMeasurementEPNS_15ProfilerManagerE)
	jirl	$ra, $ra, 0
	pcalau12i	$s3, %pc_hi20(_ZGVZN9benchmark8internal18GetNullLogInstanceEvE8null_log)
	ld.b	$a0, $s3, %pc_lo12(_ZGVZN9benchmark8internal18GetNullLogInstanceEvE8null_log)
	dbar	20
	pcalau12i	$s2, %pc_hi20(_ZZN9benchmark8internal18GetNullLogInstanceEvE8null_log)
	beqz	$a0, .LBB4_18
.LBB4_1:                                # %invoke.cont
	ld.d	$a0, $s2, %pc_lo12(_ZZN9benchmark8internal18GetNullLogInstanceEvE8null_log)
	beqz	$a0, .LBB4_3
# %bb.2:                                # %if.then.i
.Ltmp68:                                # EH_LABEL
	pcalau12i	$a1, %pc_hi20(.L.str.16)
	addi.d	$a1, $a1, %pc_lo12(.L.str.16)
	ori	$a2, $zero, 62
	pcaddu18i	$ra, %call36(_ZSt16__ostream_insertIcSt11char_traitsIcEERSt13basic_ostreamIT_T0_ES6_PKS3_l)
	jirl	$ra, $ra, 0
.Ltmp69:                                # EH_LABEL
.LBB4_3:                                # %invoke.cont2
	addi.d	$s1, $s0, 160
	move	$a0, $s1
	pcaddu18i	$ra, %call36(pthread_mutex_lock)
	jirl	$ra, $ra, 0
	bnez	$a0, .LBB4_20
# %bb.4:                                # %invoke.cont7
	ld.bu	$a0, $sp, 88
	beqz	$a0, .LBB4_17
# %bb.5:                                # %if.end.i
	ld.d	$a0, $sp, 80
	ld.d	$a1, $sp, 64
	ld.d	$a2, $sp, 72
	sub.d	$a0, $a0, $a1
	add.d	$a0, $a0, $a2
.LBB4_6:                                # %_ZNK9benchmark5State10iterationsEv.exit
	ld.d	$a1, $s0, 0
	add.d	$a0, $a1, $a0
	st.d	$a0, $s0, 0
	ld.b	$a0, $s3, %pc_lo12(_ZGVZN9benchmark8internal18GetNullLogInstanceEvE8null_log)
	dbar	20
	beqz	$a0, .LBB4_22
.LBB4_7:                                # %invoke.cont12
	fld.d	$fa0, $sp, 320
	fld.d	$fa1, $s0, 16
	fadd.d	$fa0, $fa0, $fa1
	fst.d	$fa0, $s0, 16
	ld.b	$a0, $s3, %pc_lo12(_ZGVZN9benchmark8internal18GetNullLogInstanceEvE8null_log)
	dbar	20
	beqz	$a0, .LBB4_24
.LBB4_8:                                # %invoke.cont15
	fld.d	$fa0, $sp, 312
	fld.d	$fa1, $s0, 8
	fadd.d	$fa0, $fa0, $fa1
	fst.d	$fa0, $s0, 8
	ld.b	$a0, $s3, %pc_lo12(_ZGVZN9benchmark8internal18GetNullLogInstanceEvE8null_log)
	dbar	20
	beqz	$a0, .LBB4_26
.LBB4_9:                                # %invoke.cont18
	fld.d	$fa0, $sp, 328
	fld.d	$fa1, $s0, 24
	ld.d	$a0, $sp, 120
	ld.d	$a1, $s0, 32
	fadd.d	$fa0, $fa0, $fa1
	fst.d	$fa0, $s0, 24
	add.d	$a0, $a1, $a0
	st.d	$a0, $s0, 32
	addi.d	$a0, $s0, 112
	addi.d	$s2, $sp, 128
.Ltmp73:                                # EH_LABEL
	move	$a1, $s2
	pcaddu18i	$ra, %call36(_ZN9benchmark8internal9IncrementEPSt3mapINSt7__cxx1112basic_stringIcSt11char_traitsIcESaIcEEENS_7CounterESt4lessIS7_ESaISt4pairIKS7_S8_EEERKSF_)
	jirl	$ra, $ra, 0
.Ltmp74:                                # EH_LABEL
# %bb.10:                               # %_ZN9benchmark9MutexLockD2Ev.exit
	move	$a0, $s1
	pcaddu18i	$ra, %call36(pthread_mutex_unlock)
	jirl	$ra, $ra, 0
.Ltmp76:                                # EH_LABEL
	move	$a0, $s0
	pcaddu18i	$ra, %call36(_ZN9benchmark8internal13ThreadManager20NotifyThreadCompleteEv)
	jirl	$ra, $ra, 0
.Ltmp77:                                # EH_LABEL
# %bb.11:                               # %invoke.cont26
	ld.d	$a0, $sp, 176
	addi.d	$a1, $sp, 192
	beq	$a0, $a1, .LBB4_13
# %bb.12:                               # %if.then.i.i.i
	ld.d	$a1, $sp, 192
	addi.d	$a1, $a1, 1
	pcaddu18i	$ra, %call36(_ZdlPvm)
	jirl	$ra, $ra, 0
.LBB4_13:                               # %_ZNSt7__cxx1112basic_stringIcSt11char_traitsIcESaIcEED2Ev.exit.i
	ld.d	$a1, $sp, 144
.Ltmp79:                                # EH_LABEL
	move	$a0, $s2
	pcaddu18i	$ra, %call36(_ZNSt8_Rb_treeINSt7__cxx1112basic_stringIcSt11char_traitsIcESaIcEEESt4pairIKS5_N9benchmark7CounterEESt10_Select1stISA_ESt4lessIS5_ESaISA_EE8_M_eraseEPSt13_Rb_tree_nodeISA_E)
	jirl	$ra, $ra, 0
.Ltmp80:                                # EH_LABEL
# %bb.14:                               # %_ZNSt3mapINSt7__cxx1112basic_stringIcSt11char_traitsIcESaIcEEEN9benchmark7CounterESt4lessIS5_ESaISt4pairIKS5_S7_EEED2Ev.exit.i
	ld.d	$a0, $sp, 96
	beqz	$a0, .LBB4_16
# %bb.15:                               # %if.then.i.i.i.i30
	ld.d	$a1, $sp, 112
	sub.d	$a1, $a1, $a0
	pcaddu18i	$ra, %call36(_ZdlPvm)
	jirl	$ra, $ra, 0
.LBB4_16:                               # %_ZN9benchmark5StateD2Ev.exit
	addi.d	$sp, $fp, -384
	ld.d	$s3, $sp, 336                   # 8-byte Folded Reload
	ld.d	$s2, $sp, 344                   # 8-byte Folded Reload
	ld.d	$s1, $sp, 352                   # 8-byte Folded Reload
	ld.d	$s0, $sp, 360                   # 8-byte Folded Reload
	ld.d	$fp, $sp, 368                   # 8-byte Folded Reload
	ld.d	$ra, $sp, 376                   # 8-byte Folded Reload
	addi.d	$sp, $sp, 384
	ret
.LBB4_17:
	move	$a0, $zero
	b	.LBB4_6
.LBB4_18:                               # %init.check.i
	pcalau12i	$a0, %pc_hi20(_ZGVZN9benchmark8internal18GetNullLogInstanceEvE8null_log)
	addi.d	$a0, $a0, %pc_lo12(_ZGVZN9benchmark8internal18GetNullLogInstanceEvE8null_log)
	pcaddu18i	$ra, %call36(__cxa_guard_acquire)
	jirl	$ra, $ra, 0
	addi.w	$a0, $a0, 0
	beqz	$a0, .LBB4_1
# %bb.19:                               # %init.i
	st.d	$zero, $s2, %pc_lo12(_ZZN9benchmark8internal18GetNullLogInstanceEvE8null_log)
	pcalau12i	$a0, %pc_hi20(_ZGVZN9benchmark8internal18GetNullLogInstanceEvE8null_log)
	addi.d	$a0, $a0, %pc_lo12(_ZGVZN9benchmark8internal18GetNullLogInstanceEvE8null_log)
	pcaddu18i	$ra, %call36(__cxa_guard_release)
	jirl	$ra, $ra, 0
	b	.LBB4_1
.LBB4_20:                               # %if.then.i.i.i.i
.Ltmp70:                                # EH_LABEL
	pcaddu18i	$ra, %call36(_ZSt20__throw_system_errori)
	jirl	$ra, $ra, 0
.Ltmp71:                                # EH_LABEL
# %bb.21:                               # %.noexc
.LBB4_22:                               # %init.check.i.i
	pcalau12i	$a0, %pc_hi20(_ZGVZN9benchmark8internal18GetNullLogInstanceEvE8null_log)
	addi.d	$a0, $a0, %pc_lo12(_ZGVZN9benchmark8internal18GetNullLogInstanceEvE8null_log)
	pcaddu18i	$ra, %call36(__cxa_guard_acquire)
	jirl	$ra, $ra, 0
	addi.w	$a0, $a0, 0
	beqz	$a0, .LBB4_7
# %bb.23:                               # %init.i.i
	st.d	$zero, $s2, %pc_lo12(_ZZN9benchmark8internal18GetNullLogInstanceEvE8null_log)
	pcalau12i	$a0, %pc_hi20(_ZGVZN9benchmark8internal18GetNullLogInstanceEvE8null_log)
	addi.d	$a0, $a0, %pc_lo12(_ZGVZN9benchmark8internal18GetNullLogInstanceEvE8null_log)
	pcaddu18i	$ra, %call36(__cxa_guard_release)
	jirl	$ra, $ra, 0
	b	.LBB4_7
.LBB4_24:                               # %init.check.i.i20
	pcalau12i	$a0, %pc_hi20(_ZGVZN9benchmark8internal18GetNullLogInstanceEvE8null_log)
	addi.d	$a0, $a0, %pc_lo12(_ZGVZN9benchmark8internal18GetNullLogInstanceEvE8null_log)
	pcaddu18i	$ra, %call36(__cxa_guard_acquire)
	jirl	$ra, $ra, 0
	addi.w	$a0, $a0, 0
	beqz	$a0, .LBB4_8
# %bb.25:                               # %init.i.i22
	st.d	$zero, $s2, %pc_lo12(_ZZN9benchmark8internal18GetNullLogInstanceEvE8null_log)
	pcalau12i	$a0, %pc_hi20(_ZGVZN9benchmark8internal18GetNullLogInstanceEvE8null_log)
	addi.d	$a0, $a0, %pc_lo12(_ZGVZN9benchmark8internal18GetNullLogInstanceEvE8null_log)
	pcaddu18i	$ra, %call36(__cxa_guard_release)
	jirl	$ra, $ra, 0
	b	.LBB4_8
.LBB4_26:                               # %init.check.i.i24
	pcalau12i	$a0, %pc_hi20(_ZGVZN9benchmark8internal18GetNullLogInstanceEvE8null_log)
	addi.d	$a0, $a0, %pc_lo12(_ZGVZN9benchmark8internal18GetNullLogInstanceEvE8null_log)
	pcaddu18i	$ra, %call36(__cxa_guard_acquire)
	jirl	$ra, $ra, 0
	addi.w	$a0, $a0, 0
	beqz	$a0, .LBB4_9
# %bb.27:                               # %init.i.i26
	st.d	$zero, $s2, %pc_lo12(_ZZN9benchmark8internal18GetNullLogInstanceEvE8null_log)
	pcalau12i	$a0, %pc_hi20(_ZGVZN9benchmark8internal18GetNullLogInstanceEvE8null_log)
	addi.d	$a0, $a0, %pc_lo12(_ZGVZN9benchmark8internal18GetNullLogInstanceEvE8null_log)
	pcaddu18i	$ra, %call36(__cxa_guard_release)
	jirl	$ra, $ra, 0
	b	.LBB4_9
.LBB4_28:                               # %terminate.lpad.i.i.i
.Ltmp81:                                # EH_LABEL
	pcaddu18i	$ra, %call36(__clang_call_terminate)
	jirl	$ra, $ra, 0
.LBB4_29:                               # %_ZN9benchmark9MutexLockD2Ev.exit37
.Ltmp75:                                # EH_LABEL
	move	$s0, $a0
	move	$a0, $s1
	pcaddu18i	$ra, %call36(pthread_mutex_unlock)
	jirl	$ra, $ra, 0
	addi.d	$a0, $sp, 64
	pcaddu18i	$ra, %call36(_ZN9benchmark5StateD2Ev)
	jirl	$ra, $ra, 0
	move	$a0, $s0
	pcaddu18i	$ra, %call36(_Unwind_Resume)
	jirl	$ra, $ra, 0
.LBB4_30:                               # %lpad4
.Ltmp72:                                # EH_LABEL
	b	.LBB4_32
.LBB4_31:                               # %lpad
.Ltmp78:                                # EH_LABEL
.LBB4_32:                               # %lpad
	move	$s0, $a0
	addi.d	$a0, $sp, 64
	pcaddu18i	$ra, %call36(_ZN9benchmark5StateD2Ev)
	jirl	$ra, $ra, 0
	move	$a0, $s0
	pcaddu18i	$ra, %call36(_Unwind_Resume)
	jirl	$ra, $ra, 0
.Lfunc_end4:
	.size	_ZN9benchmark8internal12_GLOBAL__N_111RunInThreadEPKNS0_17BenchmarkInstanceEliPNS0_13ThreadManagerEPNS0_23PerfCountersMeasurementEPNS_15ProfilerManagerE, .Lfunc_end4-_ZN9benchmark8internal12_GLOBAL__N_111RunInThreadEPKNS0_17BenchmarkInstanceEliPNS0_13ThreadManagerEPNS0_23PerfCountersMeasurementEPNS_15ProfilerManagerE
	.cfi_endproc
	.section	.gcc_except_table,"a",@progbits
	.p2align	2, 0x0
GCC_except_table4:
.Lexception2:
	.byte	255                             # @LPStart Encoding = omit
	.byte	155                             # @TType Encoding = indirect pcrel sdata4
	.uleb128 .Lttbase0-.Lttbaseref0
.Lttbaseref0:
	.byte	1                               # Call site Encoding = uleb128
	.uleb128 .Lcst_end2-.Lcst_begin2
.Lcst_begin2:
	.uleb128 .Lfunc_begin2-.Lfunc_begin2    # >> Call Site 1 <<
	.uleb128 .Ltmp68-.Lfunc_begin2          #   Call between .Lfunc_begin2 and .Ltmp68
	.byte	0                               #     has no landing pad
	.byte	0                               #   On action: cleanup
	.uleb128 .Ltmp68-.Lfunc_begin2          # >> Call Site 2 <<
	.uleb128 .Ltmp69-.Ltmp68                #   Call between .Ltmp68 and .Ltmp69
	.uleb128 .Ltmp78-.Lfunc_begin2          #     jumps to .Ltmp78
	.byte	0                               #   On action: cleanup
	.uleb128 .Ltmp69-.Lfunc_begin2          # >> Call Site 3 <<
	.uleb128 .Ltmp73-.Ltmp69                #   Call between .Ltmp69 and .Ltmp73
	.byte	0                               #     has no landing pad
	.byte	0                               #   On action: cleanup
	.uleb128 .Ltmp73-.Lfunc_begin2          # >> Call Site 4 <<
	.uleb128 .Ltmp74-.Ltmp73                #   Call between .Ltmp73 and .Ltmp74
	.uleb128 .Ltmp75-.Lfunc_begin2          #     jumps to .Ltmp75
	.byte	0                               #   On action: cleanup
	.uleb128 .Ltmp74-.Lfunc_begin2          # >> Call Site 5 <<
	.uleb128 .Ltmp76-.Ltmp74                #   Call between .Ltmp74 and .Ltmp76
	.byte	0                               #     has no landing pad
	.byte	0                               #   On action: cleanup
	.uleb128 .Ltmp76-.Lfunc_begin2          # >> Call Site 6 <<
	.uleb128 .Ltmp77-.Ltmp76                #   Call between .Ltmp76 and .Ltmp77
	.uleb128 .Ltmp78-.Lfunc_begin2          #     jumps to .Ltmp78
	.byte	0                               #   On action: cleanup
	.uleb128 .Ltmp77-.Lfunc_begin2          # >> Call Site 7 <<
	.uleb128 .Ltmp79-.Ltmp77                #   Call between .Ltmp77 and .Ltmp79
	.byte	0                               #     has no landing pad
	.byte	0                               #   On action: cleanup
	.uleb128 .Ltmp79-.Lfunc_begin2          # >> Call Site 8 <<
	.uleb128 .Ltmp80-.Ltmp79                #   Call between .Ltmp79 and .Ltmp80
	.uleb128 .Ltmp81-.Lfunc_begin2          #     jumps to .Ltmp81
	.byte	1                               #   On action: 1
	.uleb128 .Ltmp80-.Lfunc_begin2          # >> Call Site 9 <<
	.uleb128 .Ltmp70-.Ltmp80                #   Call between .Ltmp80 and .Ltmp70
	.byte	0                               #     has no landing pad
	.byte	0                               #   On action: cleanup
	.uleb128 .Ltmp70-.Lfunc_begin2          # >> Call Site 10 <<
	.uleb128 .Ltmp71-.Ltmp70                #   Call between .Ltmp70 and .Ltmp71
	.uleb128 .Ltmp72-.Lfunc_begin2          #     jumps to .Ltmp72
	.byte	0                               #   On action: cleanup
	.uleb128 .Ltmp71-.Lfunc_begin2          # >> Call Site 11 <<
	.uleb128 .Lfunc_end4-.Ltmp71            #   Call between .Ltmp71 and .Lfunc_end4
	.byte	0                               #     has no landing pad
	.byte	0                               #   On action: cleanup
.Lcst_end2:
	.byte	1                               # >> Action Record 1 <<
                                        #   Catch TypeInfo 1
	.byte	0                               #   No further actions
	.p2align	2, 0x0
                                        # >> Catch TypeInfos <<
	.word	0                               # TypeInfo 1
.Lttbase0:
	.p2align	2, 0x0
                                        # -- End function
	.section	.text._ZN9benchmark8internal13ThreadManager17WaitForAllThreadsEv,"axG",@progbits,_ZN9benchmark8internal13ThreadManager17WaitForAllThreadsEv,comdat
	.hidden	_ZN9benchmark8internal13ThreadManager17WaitForAllThreadsEv # -- Begin function _ZN9benchmark8internal13ThreadManager17WaitForAllThreadsEv
	.weak	_ZN9benchmark8internal13ThreadManager17WaitForAllThreadsEv
	.p2align	5
	.type	_ZN9benchmark8internal13ThreadManager17WaitForAllThreadsEv,@function
_ZN9benchmark8internal13ThreadManager17WaitForAllThreadsEv: # @_ZN9benchmark8internal13ThreadManager17WaitForAllThreadsEv
.Lfunc_begin3:
	.cfi_startproc
	.cfi_personality 155, DW.ref.__gxx_personality_v0
	.cfi_lsda 27, .Lexception3
# %bb.0:                                # %entry
	addi.d	$sp, $sp, -48
	.cfi_def_cfa_offset 48
	st.d	$ra, $sp, 40                    # 8-byte Folded Spill
	st.d	$fp, $sp, 32                    # 8-byte Folded Spill
	st.d	$s0, $sp, 24                    # 8-byte Folded Spill
	.cfi_offset 1, -8
	.cfi_offset 22, -16
	.cfi_offset 23, -24
	move	$fp, $a0
	addi.d	$a0, $a0, 312
	st.d	$a0, $sp, 8
	pcaddu18i	$ra, %call36(pthread_mutex_lock)
	jirl	$ra, $ra, 0
	bnez	$a0, .LBB5_9
# %bb.1:                                # %_ZN9benchmark9MutexLockC2ERNS_5MutexE.exit
	ori	$a0, $zero, 1
	st.b	$a0, $sp, 16
	ld.w	$a0, $fp, 200
	dbar	16
	beqz	$a0, .LBB5_5
# %bb.2:                                # %while.body.i.preheader
	addi.d	$s0, $fp, 352
	.p2align	4, , 16
.LBB5_3:                                # %while.body.i
                                        # =>This Inner Loop Header: Depth=1
.Ltmp82:                                # EH_LABEL
	addi.d	$a1, $sp, 8
	move	$a0, $s0
	pcaddu18i	$ra, %call36(_ZNSt18condition_variable4waitERSt11unique_lockISt5mutexE)
	jirl	$ra, $ra, 0
.Ltmp83:                                # EH_LABEL
# %bb.4:                                # %.noexc
                                        #   in Loop: Header=BB5_3 Depth=1
	ld.w	$a0, $fp, 200
	dbar	16
	bnez	$a0, .LBB5_3
.LBB5_5:                                # %invoke.cont2
	ld.bu	$a0, $sp, 16
	beqz	$a0, .LBB5_8
# %bb.6:                                # %if.else.i.i.i
	ld.d	$a0, $sp, 8
	beqz	$a0, .LBB5_8
# %bb.7:                                # %if.then2.i.i.i
	pcaddu18i	$ra, %call36(pthread_mutex_unlock)
	jirl	$ra, $ra, 0
.LBB5_8:                                # %_ZN9benchmark9MutexLockD2Ev.exit
	ld.d	$s0, $sp, 24                    # 8-byte Folded Reload
	ld.d	$fp, $sp, 32                    # 8-byte Folded Reload
	ld.d	$ra, $sp, 40                    # 8-byte Folded Reload
	addi.d	$sp, $sp, 48
	ret
.LBB5_9:                                # %if.then.i.i.i.i
	pcaddu18i	$ra, %call36(_ZSt20__throw_system_errori)
	jirl	$ra, $ra, 0
.LBB5_10:                               # %lpad
.Ltmp84:                                # EH_LABEL
	ld.bu	$a1, $sp, 16
	move	$fp, $a0
	beqz	$a1, .LBB5_13
# %bb.11:                               # %if.else.i.i.i5
	ld.d	$a0, $sp, 8
	beqz	$a0, .LBB5_13
# %bb.12:                               # %if.then2.i.i.i7
	pcaddu18i	$ra, %call36(pthread_mutex_unlock)
	jirl	$ra, $ra, 0
.LBB5_13:                               # %_ZN9benchmark9MutexLockD2Ev.exit9
	move	$a0, $fp
	pcaddu18i	$ra, %call36(_Unwind_Resume)
	jirl	$ra, $ra, 0
.Lfunc_end5:
	.size	_ZN9benchmark8internal13ThreadManager17WaitForAllThreadsEv, .Lfunc_end5-_ZN9benchmark8internal13ThreadManager17WaitForAllThreadsEv
	.cfi_endproc
	.section	.gcc_except_table._ZN9benchmark8internal13ThreadManager17WaitForAllThreadsEv,"aG",@progbits,_ZN9benchmark8internal13ThreadManager17WaitForAllThreadsEv,comdat
	.p2align	2, 0x0
GCC_except_table5:
.Lexception3:
	.byte	255                             # @LPStart Encoding = omit
	.byte	255                             # @TType Encoding = omit
	.byte	1                               # Call site Encoding = uleb128
	.uleb128 .Lcst_end3-.Lcst_begin3
.Lcst_begin3:
	.uleb128 .Lfunc_begin3-.Lfunc_begin3    # >> Call Site 1 <<
	.uleb128 .Ltmp82-.Lfunc_begin3          #   Call between .Lfunc_begin3 and .Ltmp82
	.byte	0                               #     has no landing pad
	.byte	0                               #   On action: cleanup
	.uleb128 .Ltmp82-.Lfunc_begin3          # >> Call Site 2 <<
	.uleb128 .Ltmp83-.Ltmp82                #   Call between .Ltmp82 and .Ltmp83
	.uleb128 .Ltmp84-.Lfunc_begin3          #     jumps to .Ltmp84
	.byte	0                               #   On action: cleanup
	.uleb128 .Ltmp83-.Lfunc_begin3          # >> Call Site 3 <<
	.uleb128 .Lfunc_end5-.Ltmp83            #   Call between .Ltmp83 and .Lfunc_end5
	.byte	0                               #     has no landing pad
	.byte	0                               #   On action: cleanup
.Lcst_end3:
	.p2align	2, 0x0
                                        # -- End function
	.section	.text._ZN9benchmark8internal15BenchmarkRunner16IterationResultsD2Ev,"axG",@progbits,_ZN9benchmark8internal15BenchmarkRunner16IterationResultsD2Ev,comdat
	.hidden	_ZN9benchmark8internal15BenchmarkRunner16IterationResultsD2Ev # -- Begin function _ZN9benchmark8internal15BenchmarkRunner16IterationResultsD2Ev
	.weak	_ZN9benchmark8internal15BenchmarkRunner16IterationResultsD2Ev
	.p2align	5
	.type	_ZN9benchmark8internal15BenchmarkRunner16IterationResultsD2Ev,@function
_ZN9benchmark8internal15BenchmarkRunner16IterationResultsD2Ev: # @_ZN9benchmark8internal15BenchmarkRunner16IterationResultsD2Ev
.Lfunc_begin4:
	.cfi_startproc
	.cfi_personality 155, DW.ref.__gxx_personality_v0
	.cfi_lsda 27, .Lexception4
# %bb.0:                                # %entry
	addi.d	$sp, $sp, -16
	.cfi_def_cfa_offset 16
	st.d	$ra, $sp, 8                     # 8-byte Folded Spill
	st.d	$fp, $sp, 0                     # 8-byte Folded Spill
	.cfi_offset 1, -8
	.cfi_offset 22, -16
	move	$fp, $a0
	ld.d	$a1, $a0, 128
	addi.d	$a0, $a0, 112
.Ltmp85:                                # EH_LABEL
	pcaddu18i	$ra, %call36(_ZNSt8_Rb_treeINSt7__cxx1112basic_stringIcSt11char_traitsIcESaIcEEESt4pairIKS5_N9benchmark7CounterEESt10_Select1stISA_ESt4lessIS5_ESaISA_EE8_M_eraseEPSt13_Rb_tree_nodeISA_E)
	jirl	$ra, $ra, 0
.Ltmp86:                                # EH_LABEL
# %bb.1:                                # %_ZNSt3mapINSt7__cxx1112basic_stringIcSt11char_traitsIcESaIcEEEN9benchmark7CounterESt4lessIS5_ESaISt4pairIKS5_S7_EEED2Ev.exit.i
	ld.d	$a0, $fp, 72
	addi.d	$a1, $fp, 88
	beq	$a0, $a1, .LBB6_3
# %bb.2:                                # %if.then.i.i.i
	ld.d	$a1, $a1, 0
	addi.d	$a1, $a1, 1
	pcaddu18i	$ra, %call36(_ZdlPvm)
	jirl	$ra, $ra, 0
.LBB6_3:                                # %_ZNSt7__cxx1112basic_stringIcSt11char_traitsIcESaIcEED2Ev.exit.i
	ld.d	$a0, $fp, 40
	addi.d	$a1, $fp, 56
	beq	$a0, $a1, .LBB6_5
# %bb.4:                                # %if.then.i.i2.i
	ld.d	$a1, $a1, 0
	addi.d	$a1, $a1, 1
	ld.d	$fp, $sp, 0                     # 8-byte Folded Reload
	ld.d	$ra, $sp, 8                     # 8-byte Folded Reload
	addi.d	$sp, $sp, 16
	pcaddu18i	$t8, %call36(_ZdlPvm)
	jr	$t8
.LBB6_5:                                # %_ZN9benchmark8internal13ThreadManager6ResultD2Ev.exit
	ld.d	$fp, $sp, 0                     # 8-byte Folded Reload
	ld.d	$ra, $sp, 8                     # 8-byte Folded Reload
	addi.d	$sp, $sp, 16
	ret
.LBB6_6:                                # %terminate.lpad.i.i.i
.Ltmp87:                                # EH_LABEL
	pcaddu18i	$ra, %call36(__clang_call_terminate)
	jirl	$ra, $ra, 0
.Lfunc_end6:
	.size	_ZN9benchmark8internal15BenchmarkRunner16IterationResultsD2Ev, .Lfunc_end6-_ZN9benchmark8internal15BenchmarkRunner16IterationResultsD2Ev
	.cfi_endproc
	.section	.gcc_except_table._ZN9benchmark8internal15BenchmarkRunner16IterationResultsD2Ev,"aG",@progbits,_ZN9benchmark8internal15BenchmarkRunner16IterationResultsD2Ev,comdat
	.p2align	2, 0x0
GCC_except_table6:
.Lexception4:
	.byte	255                             # @LPStart Encoding = omit
	.byte	155                             # @TType Encoding = indirect pcrel sdata4
	.uleb128 .Lttbase1-.Lttbaseref1
.Lttbaseref1:
	.byte	1                               # Call site Encoding = uleb128
	.uleb128 .Lcst_end4-.Lcst_begin4
.Lcst_begin4:
	.uleb128 .Ltmp85-.Lfunc_begin4          # >> Call Site 1 <<
	.uleb128 .Ltmp86-.Ltmp85                #   Call between .Ltmp85 and .Ltmp86
	.uleb128 .Ltmp87-.Lfunc_begin4          #     jumps to .Ltmp87
	.byte	1                               #   On action: 1
	.uleb128 .Ltmp86-.Lfunc_begin4          # >> Call Site 2 <<
	.uleb128 .Lfunc_end6-.Ltmp86            #   Call between .Ltmp86 and .Lfunc_end6
	.byte	0                               #     has no landing pad
	.byte	0                               #   On action: cleanup
.Lcst_end4:
	.byte	1                               # >> Action Record 1 <<
                                        #   Catch TypeInfo 1
	.byte	0                               #   No further actions
	.p2align	2, 0x0
                                        # >> Catch TypeInfos <<
	.word	0                               # TypeInfo 1
.Lttbase1:
	.p2align	2, 0x0
                                        # -- End function
	.section	.rodata.cst8,"aM",@progbits,8
	.p2align	3, 0x0                          # -- Begin function _ZNK9benchmark8internal15BenchmarkRunner21PredictNumItersNeededERKNS1_16IterationResultsE
.LCPI7_0:
	.dword	0x3ff6666666666666              # double 1.3999999999999999
.LCPI7_1:
	.dword	0x3e112e0be826d695              # double 1.0000000000000001E-9
.LCPI7_2:
	.dword	0x3fb999999999999a              # double 0.10000000000000001
	.text
	.hidden	_ZNK9benchmark8internal15BenchmarkRunner21PredictNumItersNeededERKNS1_16IterationResultsE
	.globl	_ZNK9benchmark8internal15BenchmarkRunner21PredictNumItersNeededERKNS1_16IterationResultsE
	.p2align	5
	.type	_ZNK9benchmark8internal15BenchmarkRunner21PredictNumItersNeededERKNS1_16IterationResultsE,@function
_ZNK9benchmark8internal15BenchmarkRunner21PredictNumItersNeededERKNS1_16IterationResultsE: # @_ZNK9benchmark8internal15BenchmarkRunner21PredictNumItersNeededERKNS1_16IterationResultsE
	.cfi_startproc
# %bb.0:                                # %entry
	addi.d	$sp, $sp, -48
	.cfi_def_cfa_offset 48
	st.d	$ra, $sp, 40                    # 8-byte Folded Spill
	st.d	$fp, $sp, 32                    # 8-byte Folded Spill
	st.d	$s0, $sp, 24                    # 8-byte Folded Spill
	st.d	$s1, $sp, 16                    # 8-byte Folded Spill
	st.d	$s2, $sp, 8                     # 8-byte Folded Spill
	fst.d	$fs0, $sp, 0                    # 8-byte Folded Spill
	.cfi_offset 1, -8
	.cfi_offset 22, -16
	.cfi_offset 23, -24
	.cfi_offset 24, -32
	.cfi_offset 25, -40
	.cfi_offset 56, -48
	ld.bu	$a2, $a0, 104
	ori	$a3, $zero, 96
	masknez	$a3, $a3, $a2
	ori	$a4, $zero, 88
	maskeqz	$a2, $a4, $a2
	or	$a2, $a2, $a3
	fldx.d	$fa0, $a0, $a2
	pcalau12i	$a0, %pc_hi20(.LCPI7_0)
	fld.d	$fa1, $a0, %pc_lo12(.LCPI7_0)
	fld.d	$fa2, $a1, 168
	pcalau12i	$a0, %pc_hi20(.LCPI7_1)
	fld.d	$fa3, $a0, %pc_lo12(.LCPI7_1)
	fmul.d	$fa1, $fa0, $fa1
	fcmp.clt.d	$fcc0, $fa2, $fa3
	fsel	$fa3, $fa2, $fa3, $fcc0
	pcalau12i	$a0, %pc_hi20(.LCPI7_2)
	fld.d	$fa4, $a0, %pc_lo12(.LCPI7_2)
	fdiv.d	$fa1, $fa1, $fa3
	fdiv.d	$fa0, $fa2, $fa0
	ld.d	$a0, $a1, 160
	fcmp.clt.d	$fcc0, $fa4, $fa0
	vldi	$vr0, -988
	fsel	$fs0, $fa0, $fa1, $fcc0
	movgr2fr.d	$fa0, $a0
	ffint.d.l	$fa0, $fa0
	fmul.d	$fa1, $fs0, $fa0
	vldi	$vr2, -912
	fadd.d	$fa0, $fa0, $fa2
	fcmp.clt.d	$fcc0, $fa1, $fa0
	fsel	$fa0, $fa1, $fa0, $fcc0
	pcaddu18i	$ra, %call36(llround)
	jirl	$ra, $ra, 0
	lu12i.w	$a1, -177583
	lu32i.d	$a1, 232
	pcalau12i	$a2, %pc_hi20(_ZZN9benchmark8internal8LogLevelEvE9log_level)
	ld.w	$a2, $a2, %pc_lo12(_ZZN9benchmark8internal8LogLevelEvE9log_level)
	slt	$a3, $a0, $a1
	maskeqz	$s1, $a0, $a3
	ori	$a0, $zero, 3
	masknez	$s2, $a1, $a3
	bge	$a2, $a0, .LBB7_4
# %bb.1:                                # %if.end.i
	pcalau12i	$a0, %pc_hi20(_ZGVZN9benchmark8internal18GetNullLogInstanceEvE8null_log)
	ld.b	$a0, $a0, %pc_lo12(_ZGVZN9benchmark8internal18GetNullLogInstanceEvE8null_log)
	dbar	20
	pcalau12i	$a1, %pc_hi20(_ZZN9benchmark8internal18GetNullLogInstanceEvE8null_log)
	addi.d	$s0, $a1, %pc_lo12(_ZZN9benchmark8internal18GetNullLogInstanceEvE8null_log)
	bnez	$a0, .LBB7_5
# %bb.2:                                # %init.check.i2.i
	pcalau12i	$a0, %pc_hi20(_ZGVZN9benchmark8internal18GetNullLogInstanceEvE8null_log)
	addi.d	$fp, $a0, %pc_lo12(_ZGVZN9benchmark8internal18GetNullLogInstanceEvE8null_log)
	move	$a0, $fp
	pcaddu18i	$ra, %call36(__cxa_guard_acquire)
	jirl	$ra, $ra, 0
	addi.w	$a0, $a0, 0
	beqz	$a0, .LBB7_5
# %bb.3:                                # %init.i4.i
	pcalau12i	$a0, %pc_hi20(_ZZN9benchmark8internal18GetNullLogInstanceEvE8null_log)
	addi.d	$s0, $a0, %pc_lo12(_ZZN9benchmark8internal18GetNullLogInstanceEvE8null_log)
	st.d	$zero, $s0, 0
	b	.LBB7_17
.LBB7_4:                                # %if.then.i
	pcalau12i	$a0, %pc_hi20(_ZGVZN9benchmark8internal19GetErrorLogInstanceEvE9error_log)
	ld.b	$a0, $a0, %pc_lo12(_ZGVZN9benchmark8internal19GetErrorLogInstanceEvE9error_log)
	dbar	20
	pcalau12i	$a1, %pc_hi20(_ZZN9benchmark8internal19GetErrorLogInstanceEvE9error_log)
	addi.d	$s0, $a1, %pc_lo12(_ZZN9benchmark8internal19GetErrorLogInstanceEvE9error_log)
	beqz	$a0, .LBB7_15
.LBB7_5:                                # %_ZN9benchmark8internal22GetLogInstanceForLevelEi.exit
	ld.d	$a0, $s0, 0
	or	$fp, $s1, $s2
	beqz	$a0, .LBB7_14
# %bb.6:                                # %_ZN9benchmark8internallsIA8_cEERNS0_7LogTypeES4_RKT_.exit
	pcalau12i	$a1, %pc_hi20(.L.str.3)
	addi.d	$a1, $a1, %pc_lo12(.L.str.3)
	ori	$a2, $zero, 7
	pcaddu18i	$ra, %call36(_ZSt16__ostream_insertIcSt11char_traitsIcEERSt13basic_ostreamIT_T0_ES6_PKS3_l)
	jirl	$ra, $ra, 0
	ld.d	$a0, $s0, 0
	beqz	$a0, .LBB7_14
# %bb.7:                                # %_ZN9benchmark8internallsIiEERNS0_7LogTypeES3_RKT_.exit
	ori	$a1, $zero, 3
	pcaddu18i	$ra, %call36(_ZNSolsEi)
	jirl	$ra, $ra, 0
	ld.d	$a0, $s0, 0
	beqz	$a0, .LBB7_14
# %bb.8:                                # %_ZN9benchmark8internallsIA4_cEERNS0_7LogTypeES4_RKT_.exit
	pcalau12i	$a1, %pc_hi20(.L.str.4)
	addi.d	$a1, $a1, %pc_lo12(.L.str.4)
	ori	$a2, $zero, 3
	pcaddu18i	$ra, %call36(_ZSt16__ostream_insertIcSt11char_traitsIcEERSt13basic_ostreamIT_T0_ES6_PKS3_l)
	jirl	$ra, $ra, 0
	ld.d	$a0, $s0, 0
	beqz	$a0, .LBB7_14
# %bb.9:                                # %_ZN9benchmark8internallsIA13_cEERNS0_7LogTypeES4_RKT_.exit
	pcalau12i	$a1, %pc_hi20(.L.str.14)
	addi.d	$a1, $a1, %pc_lo12(.L.str.14)
	ori	$a2, $zero, 12
	pcaddu18i	$ra, %call36(_ZSt16__ostream_insertIcSt11char_traitsIcEERSt13basic_ostreamIT_T0_ES6_PKS3_l)
	jirl	$ra, $ra, 0
	ld.d	$a0, $s0, 0
	beqz	$a0, .LBB7_14
# %bb.10:                               # %_ZN9benchmark8internallsIlEERNS0_7LogTypeES3_RKT_.exit
	move	$a1, $fp
	pcaddu18i	$ra, %call36(_ZNSo9_M_insertIlEERSoT_)
	jirl	$ra, $ra, 0
	ld.d	$a0, $s0, 0
	beqz	$a0, .LBB7_14
# %bb.11:                               # %_ZN9benchmark8internallsIA3_cEERNS0_7LogTypeES4_RKT_.exit
	pcalau12i	$a1, %pc_hi20(.L.str.15)
	addi.d	$a1, $a1, %pc_lo12(.L.str.15)
	ori	$a2, $zero, 2
	pcaddu18i	$ra, %call36(_ZSt16__ostream_insertIcSt11char_traitsIcEERSt13basic_ostreamIT_T0_ES6_PKS3_l)
	jirl	$ra, $ra, 0
	ld.d	$a0, $s0, 0
	beqz	$a0, .LBB7_14
# %bb.12:                               # %_ZN9benchmark8internallsIdEERNS0_7LogTypeES3_RKT_.exit
	fmov.d	$fa0, $fs0
	pcaddu18i	$ra, %call36(_ZNSo9_M_insertIdEERSoT_)
	jirl	$ra, $ra, 0
	ld.d	$a0, $s0, 0
	beqz	$a0, .LBB7_14
# %bb.13:                               # %if.then.i41
	pcalau12i	$a1, %pc_hi20(.L.str.11)
	addi.d	$a1, $a1, %pc_lo12(.L.str.11)
	ori	$a2, $zero, 1
	pcaddu18i	$ra, %call36(_ZSt16__ostream_insertIcSt11char_traitsIcEERSt13basic_ostreamIT_T0_ES6_PKS3_l)
	jirl	$ra, $ra, 0
.LBB7_14:                               # %_ZN9benchmark8internallsIA2_cEERNS0_7LogTypeES4_RKT_.exit
	move	$a0, $fp
	fld.d	$fs0, $sp, 0                    # 8-byte Folded Reload
	ld.d	$s2, $sp, 8                     # 8-byte Folded Reload
	ld.d	$s1, $sp, 16                    # 8-byte Folded Reload
	ld.d	$s0, $sp, 24                    # 8-byte Folded Reload
	ld.d	$fp, $sp, 32                    # 8-byte Folded Reload
	ld.d	$ra, $sp, 40                    # 8-byte Folded Reload
	addi.d	$sp, $sp, 48
	ret
.LBB7_15:                               # %init.check.i.i
	pcalau12i	$a0, %pc_hi20(_ZGVZN9benchmark8internal19GetErrorLogInstanceEvE9error_log)
	addi.d	$fp, $a0, %pc_lo12(_ZGVZN9benchmark8internal19GetErrorLogInstanceEvE9error_log)
	move	$a0, $fp
	pcaddu18i	$ra, %call36(__cxa_guard_acquire)
	jirl	$ra, $ra, 0
	addi.w	$a0, $a0, 0
	beqz	$a0, .LBB7_5
# %bb.16:                               # %init.i.i
	pcalau12i	$a0, %pc_hi20(_ZZN9benchmark8internal19GetErrorLogInstanceEvE9error_log)
	addi.d	$s0, $a0, %pc_lo12(_ZZN9benchmark8internal19GetErrorLogInstanceEvE9error_log)
	pcalau12i	$a0, %got_pc_hi20(_ZSt4clog)
	ld.d	$a0, $a0, %got_pc_lo12(_ZSt4clog)
	st.d	$a0, $s0, 0
.LBB7_17:                               # %return.sink.split.i
	move	$a0, $fp
	pcaddu18i	$ra, %call36(__cxa_guard_release)
	jirl	$ra, $ra, 0
	b	.LBB7_5
.Lfunc_end7:
	.size	_ZNK9benchmark8internal15BenchmarkRunner21PredictNumItersNeededERKNS1_16IterationResultsE, .Lfunc_end7-_ZNK9benchmark8internal15BenchmarkRunner21PredictNumItersNeededERKNS1_16IterationResultsE
	.cfi_endproc
                                        # -- End function
	.hidden	_ZNK9benchmark8internal15BenchmarkRunner17GetMinTimeToApplyEv # -- Begin function _ZNK9benchmark8internal15BenchmarkRunner17GetMinTimeToApplyEv
	.globl	_ZNK9benchmark8internal15BenchmarkRunner17GetMinTimeToApplyEv
	.p2align	5
	.type	_ZNK9benchmark8internal15BenchmarkRunner17GetMinTimeToApplyEv,@function
_ZNK9benchmark8internal15BenchmarkRunner17GetMinTimeToApplyEv: # @_ZNK9benchmark8internal15BenchmarkRunner17GetMinTimeToApplyEv
# %bb.0:                                # %entry
	ld.bu	$a1, $a0, 104
	ori	$a2, $zero, 96
	masknez	$a2, $a2, $a1
	ori	$a3, $zero, 88
	maskeqz	$a1, $a3, $a1
	or	$a1, $a1, $a2
	fldx.d	$fa0, $a0, $a1
	ret
.Lfunc_end8:
	.size	_ZNK9benchmark8internal15BenchmarkRunner17GetMinTimeToApplyEv, .Lfunc_end8-_ZNK9benchmark8internal15BenchmarkRunner17GetMinTimeToApplyEv
                                        # -- End function
	.hidden	_ZNK9benchmark8internal15BenchmarkRunner28ShouldReportIterationResultsERKNS1_16IterationResultsE # -- Begin function _ZNK9benchmark8internal15BenchmarkRunner28ShouldReportIterationResultsERKNS1_16IterationResultsE
	.globl	_ZNK9benchmark8internal15BenchmarkRunner28ShouldReportIterationResultsERKNS1_16IterationResultsE
	.p2align	5
	.type	_ZNK9benchmark8internal15BenchmarkRunner28ShouldReportIterationResultsERKNS1_16IterationResultsE,@function
_ZNK9benchmark8internal15BenchmarkRunner28ShouldReportIterationResultsERKNS1_16IterationResultsE: # @_ZNK9benchmark8internal15BenchmarkRunner28ShouldReportIterationResultsERKNS1_16IterationResultsE
# %bb.0:                                # %entry
	ld.w	$a3, $a1, 104
	ori	$a2, $zero, 1
	bnez	$a3, .LBB9_7
# %bb.1:                                # %entry
	pcalau12i	$a3, %got_pc_hi20(_ZN9benchmark23FLAGS_benchmark_dry_runE)
	ld.d	$a3, $a3, %got_pc_lo12(_ZN9benchmark23FLAGS_benchmark_dry_runE)
	ld.b	$a3, $a3, 0
	andi	$a3, $a3, 1
	bnez	$a3, .LBB9_7
# %bb.2:                                # %entry
	ld.d	$a3, $a1, 160
	lu12i.w	$a4, -177584
	ori	$a4, $a4, 4095
	lu32i.d	$a4, 232
	blt	$a4, $a3, .LBB9_7
# %bb.3:                                # %lor.lhs.false3
	ld.bu	$a3, $a0, 104
	fld.d	$fa1, $a1, 168
	ori	$a4, $zero, 96
	masknez	$a4, $a4, $a3
	ori	$a5, $zero, 88
	maskeqz	$a3, $a5, $a3
	or	$a3, $a3, $a4
	fldx.d	$fa0, $a0, $a3
	fcmp.cle.d	$fcc0, $fa0, $fa1
	bcnez	$fcc0, .LBB9_7
# %bb.4:                                # %lor.rhs
	fld.d	$fa1, $a1, 8
	vldi	$vr2, -1004
	fmul.d	$fa0, $fa0, $fa2
	fcmp.cult.d	$fcc0, $fa1, $fa0
	bceqz	$fcc0, .LBB9_6
# %bb.5:
	andi	$a0, $zero, 1
	ret
.LBB9_6:                                # %land.rhs
	ld.d	$a0, $a0, 56
	ld.b	$a0, $a0, 294
	xori	$a2, $a0, 1
.LBB9_7:                                # %lor.end
	andi	$a0, $a2, 1
	ret
.Lfunc_end9:
	.size	_ZNK9benchmark8internal15BenchmarkRunner28ShouldReportIterationResultsERKNS1_16IterationResultsE, .Lfunc_end9-_ZNK9benchmark8internal15BenchmarkRunner28ShouldReportIterationResultsERKNS1_16IterationResultsE
                                        # -- End function
	.hidden	_ZN9benchmark8internal15BenchmarkRunner12FinishWarmUpERKl # -- Begin function _ZN9benchmark8internal15BenchmarkRunner12FinishWarmUpERKl
	.globl	_ZN9benchmark8internal15BenchmarkRunner12FinishWarmUpERKl
	.p2align	5
	.type	_ZN9benchmark8internal15BenchmarkRunner12FinishWarmUpERKl,@function
_ZN9benchmark8internal15BenchmarkRunner12FinishWarmUpERKl: # @_ZN9benchmark8internal15BenchmarkRunner12FinishWarmUpERKl
# %bb.0:                                # %entry
	ld.d	$a1, $a1, 0
	ori	$a2, $zero, 1
	st.b	$a2, $a0, 104
	st.d	$a1, $a0, 168
	ret
.Lfunc_end10:
	.size	_ZN9benchmark8internal15BenchmarkRunner12FinishWarmUpERKl, .Lfunc_end10-_ZN9benchmark8internal15BenchmarkRunner12FinishWarmUpERKl
                                        # -- End function
	.hidden	_ZN9benchmark8internal15BenchmarkRunner9RunWarmUpEv # -- Begin function _ZN9benchmark8internal15BenchmarkRunner9RunWarmUpEv
	.globl	_ZN9benchmark8internal15BenchmarkRunner9RunWarmUpEv
	.p2align	5
	.type	_ZN9benchmark8internal15BenchmarkRunner9RunWarmUpEv,@function
_ZN9benchmark8internal15BenchmarkRunner9RunWarmUpEv: # @_ZN9benchmark8internal15BenchmarkRunner9RunWarmUpEv
.Lfunc_begin5:
	.cfi_startproc
	.cfi_personality 155, DW.ref.__gxx_personality_v0
	.cfi_lsda 27, .Lexception5
# %bb.0:                                # %entry
	addi.d	$sp, $sp, -464
	.cfi_def_cfa_offset 464
	st.d	$ra, $sp, 456                   # 8-byte Folded Spill
	st.d	$fp, $sp, 448                   # 8-byte Folded Spill
	st.d	$s0, $sp, 440                   # 8-byte Folded Spill
	st.d	$s1, $sp, 432                   # 8-byte Folded Spill
	st.d	$s2, $sp, 424                   # 8-byte Folded Spill
	st.d	$s3, $sp, 416                   # 8-byte Folded Spill
	st.d	$s4, $sp, 408                   # 8-byte Folded Spill
	st.d	$s5, $sp, 400                   # 8-byte Folded Spill
	st.d	$s6, $sp, 392                   # 8-byte Folded Spill
	st.d	$s7, $sp, 384                   # 8-byte Folded Spill
	st.d	$s8, $sp, 376                   # 8-byte Folded Spill
	.cfi_offset 1, -8
	.cfi_offset 22, -16
	.cfi_offset 23, -24
	.cfi_offset 24, -32
	.cfi_offset 25, -40
	.cfi_offset 26, -48
	.cfi_offset 27, -56
	.cfi_offset 28, -64
	.cfi_offset 29, -72
	.cfi_offset 30, -80
	.cfi_offset 31, -88
	move	$fp, $a0
	addi.d	$a0, $sp, 256
	st.d	$zero, $sp, 232
	vrepli.b	$vr0, 0
	vst	$vr0, $sp, 216
	vst	$vr0, $sp, 200
	st.d	$a0, $sp, 240
	st.d	$zero, $sp, 248
	st.b	$zero, $sp, 256
	addi.d	$a0, $sp, 288
	st.d	$a0, $sp, 272
	st.d	$zero, $sp, 280
	st.b	$zero, $sp, 288
	st.w	$zero, $sp, 304
	addi.d	$a0, $sp, 320
	st.w	$zero, $sp, 320
	st.d	$zero, $sp, 328
	st.d	$a0, $sp, 336
	st.d	$a0, $sp, 344
	st.d	$zero, $sp, 352
	ld.d	$a0, $fp, 168
	st.d	$a0, $sp, 16                    # 8-byte Folded Spill
	addi.d	$s4, $sp, 360
	addi.d	$s5, $sp, 184
	addi.d	$s0, $sp, 136
	addi.d	$s6, $sp, 112
	addi.d	$s7, $sp, 80
	pcalau12i	$a0, %got_pc_hi20(_ZN9benchmark23FLAGS_benchmark_dry_runE)
	ld.d	$s8, $a0, %got_pc_lo12(_ZN9benchmark23FLAGS_benchmark_dry_runE)
	lu12i.w	$a0, -177584
	ori	$s1, $a0, 4095
	lu32i.d	$s1, 232
	ori	$s2, $zero, 96
	ori	$s3, $zero, 88
	.p2align	4, , 16
.LBB11_1:                               # %for.cond
                                        # =>This Inner Loop Header: Depth=1
	ld.d	$a0, $fp, 56
.Ltmp88:                                # EH_LABEL
	pcaddu18i	$ra, %call36(_ZNK9benchmark8internal17BenchmarkInstance5SetupEv)
	jirl	$ra, $ra, 0
.Ltmp89:                                # EH_LABEL
# %bb.2:                                # %invoke.cont
                                        #   in Loop: Header=BB11_1 Depth=1
.Ltmp90:                                # EH_LABEL
	addi.d	$a0, $sp, 24
	move	$a1, $fp
	pcaddu18i	$ra, %call36(_ZN9benchmark8internal15BenchmarkRunner13DoNIterationsEv)
	jirl	$ra, $ra, 0
.Ltmp91:                                # EH_LABEL
# %bb.3:                                # %invoke.cont3
                                        #   in Loop: Header=BB11_1 Depth=1
	addi.d	$a0, $sp, 200
	addi.d	$a1, $sp, 24
	pcaddu18i	$ra, %call36(_ZN9benchmark8internal13ThreadManager6ResultaSEOS2_)
	jirl	$ra, $ra, 0
	vld	$vr0, $s5, 0
	ld.d	$a1, $sp, 152
	vst	$vr0, $s4, 0
.Ltmp93:                                # EH_LABEL
	move	$a0, $s0
	pcaddu18i	$ra, %call36(_ZNSt8_Rb_treeINSt7__cxx1112basic_stringIcSt11char_traitsIcESaIcEEESt4pairIKS5_N9benchmark7CounterEESt10_Select1stISA_ESt4lessIS5_ESaISA_EE8_M_eraseEPSt13_Rb_tree_nodeISA_E)
	jirl	$ra, $ra, 0
.Ltmp94:                                # EH_LABEL
# %bb.4:                                # %_ZNSt3mapINSt7__cxx1112basic_stringIcSt11char_traitsIcESaIcEEEN9benchmark7CounterESt4lessIS5_ESaISt4pairIKS5_S7_EEED2Ev.exit.i.i
                                        #   in Loop: Header=BB11_1 Depth=1
	ld.d	$a0, $sp, 96
	beq	$a0, $s6, .LBB11_6
# %bb.5:                                # %if.then.i.i.i.i
                                        #   in Loop: Header=BB11_1 Depth=1
	ld.d	$a1, $sp, 112
	addi.d	$a1, $a1, 1
	pcaddu18i	$ra, %call36(_ZdlPvm)
	jirl	$ra, $ra, 0
.LBB11_6:                               # %_ZNSt7__cxx1112basic_stringIcSt11char_traitsIcESaIcEED2Ev.exit.i.i
                                        #   in Loop: Header=BB11_1 Depth=1
	ld.d	$a0, $sp, 64
	beq	$a0, $s7, .LBB11_8
# %bb.7:                                # %if.then.i.i2.i.i
                                        #   in Loop: Header=BB11_1 Depth=1
	ld.d	$a1, $sp, 80
	addi.d	$a1, $a1, 1
	pcaddu18i	$ra, %call36(_ZdlPvm)
	jirl	$ra, $ra, 0
.LBB11_8:                               # %_ZN9benchmark8internal15BenchmarkRunner16IterationResultsD2Ev.exit
                                        #   in Loop: Header=BB11_1 Depth=1
	ld.d	$a0, $fp, 56
.Ltmp96:                                # EH_LABEL
	pcaddu18i	$ra, %call36(_ZNK9benchmark8internal17BenchmarkInstance8TeardownEv)
	jirl	$ra, $ra, 0
.Ltmp97:                                # EH_LABEL
# %bb.9:                                # %invoke.cont5
                                        #   in Loop: Header=BB11_1 Depth=1
	ld.w	$a0, $sp, 304
	bnez	$a0, .LBB11_17
# %bb.10:                               # %invoke.cont5
                                        #   in Loop: Header=BB11_1 Depth=1
	ld.b	$a0, $s8, 0
	andi	$a0, $a0, 1
	bnez	$a0, .LBB11_17
# %bb.11:                               # %invoke.cont5
                                        #   in Loop: Header=BB11_1 Depth=1
	ld.d	$a0, $sp, 360
	blt	$s1, $a0, .LBB11_17
# %bb.12:                               # %lor.lhs.false3.i
                                        #   in Loop: Header=BB11_1 Depth=1
	ld.bu	$a0, $fp, 104
	fld.d	$fa1, $sp, 368
	masknez	$a1, $s2, $a0
	maskeqz	$a0, $s3, $a0
	or	$a0, $a0, $a1
	fldx.d	$fa0, $fp, $a0
	fcmp.cle.d	$fcc0, $fa0, $fa1
	bcnez	$fcc0, .LBB11_17
# %bb.13:                               # %lor.rhs.i
                                        #   in Loop: Header=BB11_1 Depth=1
	fld.d	$fa1, $sp, 208
	vldi	$vr2, -1004
	fmul.d	$fa0, $fa0, $fa2
	fcmp.cult.d	$fcc0, $fa1, $fa0
	bcnez	$fcc0, .LBB11_15
# %bb.14:                               # %invoke.cont7
                                        #   in Loop: Header=BB11_1 Depth=1
	ld.d	$a0, $fp, 56
	ld.bu	$a0, $a0, 294
	beqz	$a0, .LBB11_17
.LBB11_15:                              # %if.end
                                        #   in Loop: Header=BB11_1 Depth=1
.Ltmp99:                                # EH_LABEL
	addi.d	$a1, $sp, 200
	move	$a0, $fp
	pcaddu18i	$ra, %call36(_ZNK9benchmark8internal15BenchmarkRunner21PredictNumItersNeededERKNS1_16IterationResultsE)
	jirl	$ra, $ra, 0
.Ltmp100:                               # EH_LABEL
# %bb.16:                               # %cleanup
                                        #   in Loop: Header=BB11_1 Depth=1
	st.d	$a0, $fp, 168
	b	.LBB11_1
.LBB11_17:                              # %for.end
	ori	$a0, $zero, 1
	ld.d	$a1, $sp, 328
	st.b	$a0, $fp, 104
	ld.d	$a0, $sp, 16                    # 8-byte Folded Reload
	st.d	$a0, $fp, 168
	addi.d	$a0, $sp, 312
.Ltmp102:                               # EH_LABEL
	pcaddu18i	$ra, %call36(_ZNSt8_Rb_treeINSt7__cxx1112basic_stringIcSt11char_traitsIcESaIcEEESt4pairIKS5_N9benchmark7CounterEESt10_Select1stISA_ESt4lessIS5_ESaISA_EE8_M_eraseEPSt13_Rb_tree_nodeISA_E)
	jirl	$ra, $ra, 0
.Ltmp103:                               # EH_LABEL
# %bb.18:                               # %_ZNSt3mapINSt7__cxx1112basic_stringIcSt11char_traitsIcESaIcEEEN9benchmark7CounterESt4lessIS5_ESaISt4pairIKS5_S7_EEED2Ev.exit.i.i10
	ld.d	$a0, $sp, 272
	addi.d	$a1, $sp, 288
	beq	$a0, $a1, .LBB11_20
# %bb.19:                               # %if.then.i.i.i.i13
	ld.d	$a1, $sp, 288
	addi.d	$a1, $a1, 1
	pcaddu18i	$ra, %call36(_ZdlPvm)
	jirl	$ra, $ra, 0
.LBB11_20:                              # %_ZNSt7__cxx1112basic_stringIcSt11char_traitsIcESaIcEED2Ev.exit.i.i15
	ld.d	$a0, $sp, 240
	addi.d	$a1, $sp, 256
	beq	$a0, $a1, .LBB11_22
# %bb.21:                               # %if.then.i.i2.i.i18
	ld.d	$a1, $sp, 256
	addi.d	$a1, $a1, 1
	pcaddu18i	$ra, %call36(_ZdlPvm)
	jirl	$ra, $ra, 0
.LBB11_22:                              # %_ZN9benchmark8internal15BenchmarkRunner16IterationResultsD2Ev.exit26
	ld.d	$s8, $sp, 376                   # 8-byte Folded Reload
	ld.d	$s7, $sp, 384                   # 8-byte Folded Reload
	ld.d	$s6, $sp, 392                   # 8-byte Folded Reload
	ld.d	$s5, $sp, 400                   # 8-byte Folded Reload
	ld.d	$s4, $sp, 408                   # 8-byte Folded Reload
	ld.d	$s3, $sp, 416                   # 8-byte Folded Reload
	ld.d	$s2, $sp, 424                   # 8-byte Folded Reload
	ld.d	$s1, $sp, 432                   # 8-byte Folded Reload
	ld.d	$s0, $sp, 440                   # 8-byte Folded Reload
	ld.d	$fp, $sp, 448                   # 8-byte Folded Reload
	ld.d	$ra, $sp, 456                   # 8-byte Folded Reload
	addi.d	$sp, $sp, 464
	ret
.LBB11_23:                              # %terminate.lpad.i.i.i.i9
.Ltmp104:                               # EH_LABEL
	pcaddu18i	$ra, %call36(__clang_call_terminate)
	jirl	$ra, $ra, 0
.LBB11_24:                              # %lpad6
.Ltmp101:                               # EH_LABEL
	b	.LBB11_28
.LBB11_25:                              # %terminate.lpad.i.i.i.i
.Ltmp95:                                # EH_LABEL
	pcaddu18i	$ra, %call36(__clang_call_terminate)
	jirl	$ra, $ra, 0
.LBB11_26:                              # %lpad2
.Ltmp92:                                # EH_LABEL
	b	.LBB11_28
.LBB11_27:                              # %lpad
.Ltmp98:                                # EH_LABEL
.LBB11_28:                              # %ehcleanup
	move	$fp, $a0
	addi.d	$a0, $sp, 200
	pcaddu18i	$ra, %call36(_ZN9benchmark8internal15BenchmarkRunner16IterationResultsD2Ev)
	jirl	$ra, $ra, 0
	move	$a0, $fp
	pcaddu18i	$ra, %call36(_Unwind_Resume)
	jirl	$ra, $ra, 0
.Lfunc_end11:
	.size	_ZN9benchmark8internal15BenchmarkRunner9RunWarmUpEv, .Lfunc_end11-_ZN9benchmark8internal15BenchmarkRunner9RunWarmUpEv
	.cfi_endproc
	.section	.gcc_except_table,"a",@progbits
	.p2align	2, 0x0
GCC_except_table11:
.Lexception5:
	.byte	255                             # @LPStart Encoding = omit
	.byte	155                             # @TType Encoding = indirect pcrel sdata4
	.uleb128 .Lttbase2-.Lttbaseref2
.Lttbaseref2:
	.byte	1                               # Call site Encoding = uleb128
	.uleb128 .Lcst_end5-.Lcst_begin5
.Lcst_begin5:
	.uleb128 .Ltmp88-.Lfunc_begin5          # >> Call Site 1 <<
	.uleb128 .Ltmp89-.Ltmp88                #   Call between .Ltmp88 and .Ltmp89
	.uleb128 .Ltmp98-.Lfunc_begin5          #     jumps to .Ltmp98
	.byte	0                               #   On action: cleanup
	.uleb128 .Ltmp90-.Lfunc_begin5          # >> Call Site 2 <<
	.uleb128 .Ltmp91-.Ltmp90                #   Call between .Ltmp90 and .Ltmp91
	.uleb128 .Ltmp92-.Lfunc_begin5          #     jumps to .Ltmp92
	.byte	0                               #   On action: cleanup
	.uleb128 .Ltmp91-.Lfunc_begin5          # >> Call Site 3 <<
	.uleb128 .Ltmp93-.Ltmp91                #   Call between .Ltmp91 and .Ltmp93
	.byte	0                               #     has no landing pad
	.byte	0                               #   On action: cleanup
	.uleb128 .Ltmp93-.Lfunc_begin5          # >> Call Site 4 <<
	.uleb128 .Ltmp94-.Ltmp93                #   Call between .Ltmp93 and .Ltmp94
	.uleb128 .Ltmp95-.Lfunc_begin5          #     jumps to .Ltmp95
	.byte	1                               #   On action: 1
	.uleb128 .Ltmp94-.Lfunc_begin5          # >> Call Site 5 <<
	.uleb128 .Ltmp96-.Ltmp94                #   Call between .Ltmp94 and .Ltmp96
	.byte	0                               #     has no landing pad
	.byte	0                               #   On action: cleanup
	.uleb128 .Ltmp96-.Lfunc_begin5          # >> Call Site 6 <<
	.uleb128 .Ltmp97-.Ltmp96                #   Call between .Ltmp96 and .Ltmp97
	.uleb128 .Ltmp98-.Lfunc_begin5          #     jumps to .Ltmp98
	.byte	0                               #   On action: cleanup
	.uleb128 .Ltmp99-.Lfunc_begin5          # >> Call Site 7 <<
	.uleb128 .Ltmp100-.Ltmp99               #   Call between .Ltmp99 and .Ltmp100
	.uleb128 .Ltmp101-.Lfunc_begin5         #     jumps to .Ltmp101
	.byte	0                               #   On action: cleanup
	.uleb128 .Ltmp102-.Lfunc_begin5         # >> Call Site 8 <<
	.uleb128 .Ltmp103-.Ltmp102              #   Call between .Ltmp102 and .Ltmp103
	.uleb128 .Ltmp104-.Lfunc_begin5         #     jumps to .Ltmp104
	.byte	1                               #   On action: 1
	.uleb128 .Ltmp103-.Lfunc_begin5         # >> Call Site 9 <<
	.uleb128 .Lfunc_end11-.Ltmp103          #   Call between .Ltmp103 and .Lfunc_end11
	.byte	0                               #     has no landing pad
	.byte	0                               #   On action: cleanup
.Lcst_end5:
	.byte	1                               # >> Action Record 1 <<
                                        #   Catch TypeInfo 1
	.byte	0                               #   No further actions
	.p2align	2, 0x0
                                        # >> Catch TypeInfos <<
	.word	0                               # TypeInfo 1
.Lttbase2:
	.p2align	2, 0x0
                                        # -- End function
	.text
	.hidden	_ZN9benchmark8internal15BenchmarkRunner16RunMemoryManagerEl # -- Begin function _ZN9benchmark8internal15BenchmarkRunner16RunMemoryManagerEl
	.globl	_ZN9benchmark8internal15BenchmarkRunner16RunMemoryManagerEl
	.p2align	5
	.type	_ZN9benchmark8internal15BenchmarkRunner16RunMemoryManagerEl,@function
_ZN9benchmark8internal15BenchmarkRunner16RunMemoryManagerEl: # @_ZN9benchmark8internal15BenchmarkRunner16RunMemoryManagerEl
.Lfunc_begin6:
	.cfi_startproc
	.cfi_personality 155, DW.ref.__gxx_personality_v0
	.cfi_lsda 27, .Lexception6
# %bb.0:                                # %entry
	addi.d	$sp, $sp, -128
	.cfi_def_cfa_offset 128
	st.d	$ra, $sp, 120                   # 8-byte Folded Spill
	st.d	$fp, $sp, 112                   # 8-byte Folded Spill
	st.d	$s0, $sp, 104                   # 8-byte Folded Spill
	st.d	$s1, $sp, 96                    # 8-byte Folded Spill
	st.d	$s2, $sp, 88                    # 8-byte Folded Spill
	st.d	$s3, $sp, 80                    # 8-byte Folded Spill
	st.d	$s4, $sp, 72                    # 8-byte Folded Spill
	st.d	$s5, $sp, 64                    # 8-byte Folded Spill
	st.d	$s6, $sp, 56                    # 8-byte Folded Spill
	st.d	$s7, $sp, 48                    # 8-byte Folded Spill
	.cfi_offset 1, -8
	.cfi_offset 22, -16
	.cfi_offset 23, -24
	.cfi_offset 24, -32
	.cfi_offset 25, -40
	.cfi_offset 26, -48
	.cfi_offset 27, -56
	.cfi_offset 28, -64
	.cfi_offset 29, -72
	.cfi_offset 30, -80
	move	$s1, $a1
	move	$fp, $a0
	pcalau12i	$a0, %got_pc_hi20(_ZN9benchmark13MemoryManager14TombstoneValueE)
	ld.d	$a0, $a0, %got_pc_lo12(_ZN9benchmark13MemoryManager14TombstoneValueE)
	ld.d	$s6, $fp, 152
	ld.d	$a1, $fp, 160
	ld.d	$s7, $a0, 0
	vrepli.b	$vr0, 0
	vst	$vr0, $sp, 16                   # 16-byte Folded Spill
	beq	$s6, $a1, .LBB12_2
# %bb.1:                                # %if.then.i.i
	vst	$vr0, $s6, 0
	ld.d	$s0, $fp, 152
	st.d	$s7, $s6, 16
	st.d	$s7, $s6, 24
	addi.d	$a0, $s0, 32
	st.d	$a0, $fp, 152
	b	.LBB12_9
.LBB12_2:                               # %if.else.i.i
	ld.d	$s2, $fp, 144
	sub.d	$s3, $s6, $s2
	addi.w	$a0, $zero, -32
	lu52i.d	$a0, $a0, 2047
	beq	$s3, $a0, .LBB12_20
# %bb.3:                                # %_ZNKSt6vectorIN9benchmark13MemoryManager6ResultESaIS2_EE12_M_check_lenEmPKc.exit.i.i.i
	srai.d	$a0, $s3, 5
	ori	$a1, $zero, 1
	sltu	$a2, $a1, $a0
	masknez	$a1, $a1, $a2
	maskeqz	$a2, $a0, $a2
	or	$a1, $a2, $a1
	add.d	$a0, $a1, $a0
	addi.w	$a1, $zero, -1
	lu52i.d	$a1, $a1, 63
	sltu	$a2, $a0, $a1
	maskeqz	$a0, $a0, $a2
	masknez	$a1, $a1, $a2
	or	$a0, $a0, $a1
	slli.d	$s4, $a0, 5
	move	$a0, $s4
	pcaddu18i	$ra, %call36(_Znwm)
	jirl	$ra, $ra, 0
	move	$s5, $a0
	add.d	$a0, $a0, $s3
	vld	$vr0, $sp, 16                   # 16-byte Folded Reload
	vstx	$vr0, $s5, $s3
	st.d	$s7, $a0, 16
	st.d	$s7, $a0, 24
	move	$s0, $s5
	beq	$s2, $s6, .LBB12_6
# %bb.4:                                # %for.body.i.i.i.i.i.i.preheader
	move	$s0, $s5
	move	$a0, $s2
	.p2align	4, , 16
.LBB12_5:                               # %for.body.i.i.i.i.i.i
                                        # =>This Inner Loop Header: Depth=1
	vld	$vr0, $a0, 16
	vst	$vr0, $s0, 16
	vld	$vr0, $a0, 0
	vst	$vr0, $s0, 0
	addi.d	$a0, $a0, 32
	addi.d	$s0, $s0, 32
	bne	$a0, $s6, .LBB12_5
.LBB12_6:                               # %_ZNSt6vectorIN9benchmark13MemoryManager6ResultESaIS2_EE11_S_relocateEPS2_S5_S5_RS3_.exit.i.i.i
	beqz	$s2, .LBB12_8
# %bb.7:                                # %_ZNSt12_Vector_baseIN9benchmark13MemoryManager6ResultESaIS2_EE13_M_deallocateEPS2_m.exit.i.i.i.i
	move	$a0, $s2
	move	$a1, $s3
	pcaddu18i	$ra, %call36(_ZdlPvm)
	jirl	$ra, $ra, 0
.LBB12_8:                               # %_ZNSt6vectorIN9benchmark13MemoryManager6ResultESaIS2_EE17_M_realloc_appendIJS2_EEEvDpOT_.exit.i.i
	addi.d	$a0, $s0, 32
	st.d	$s5, $fp, 144
	st.d	$a0, $fp, 152
	add.d	$a0, $s5, $s4
	st.d	$a0, $fp, 160
.LBB12_9:                               # %_ZNSt6vectorIN9benchmark13MemoryManager6ResultESaIS2_EE9push_backEOS2_.exit
	pcalau12i	$s3, %pc_hi20(_ZN9benchmark8internal14memory_managerE)
	ld.d	$a0, $s3, %pc_lo12(_ZN9benchmark8internal14memory_managerE)
	ld.d	$a1, $a0, 0
	ld.d	$a1, $a1, 16
	jirl	$ra, $a1, 0
	st.d	$zero, $sp, 40
.Ltmp105:                               # EH_LABEL
	ori	$a0, $zero, 400
	pcaddu18i	$ra, %call36(_Znwm)
	jirl	$ra, $ra, 0
.Ltmp106:                               # EH_LABEL
# %bb.10:                               # %_ZNSt10unique_ptrIN9benchmark8internal13ThreadManagerESt14default_deleteIS2_EE5resetEPS2_.exit
	move	$s2, $a0
	addi.d	$a0, $a0, 56
	st.d	$zero, $s2, 32
	vld	$vr0, $sp, 16                   # 16-byte Folded Reload
	vst	$vr0, $s2, 16
	vst	$vr0, $s2, 0
	st.d	$a0, $s2, 40
	st.d	$zero, $s2, 48
	st.b	$zero, $s2, 56
	addi.d	$a0, $s2, 88
	st.d	$a0, $s2, 72
	st.d	$zero, $s2, 80
	st.b	$zero, $s2, 88
	st.w	$zero, $s2, 104
	addi.d	$a0, $s2, 120
	st.w	$zero, $s2, 120
	st.d	$zero, $s2, 128
	st.d	$a0, $s2, 136
	st.d	$a0, $s2, 144
	vst	$vr0, $s2, 152
	vst	$vr0, $s2, 168
	vst	$vr0, $s2, 184
	ori	$s4, $zero, 1
	st.w	$s4, $s2, 200
	st.d	$zero, $s2, 240
	vst	$vr0, $s2, 208
	vst	$vr0, $s2, 224
	addi.d	$a0, $s2, 248
	pcaddu18i	$ra, %call36(_ZNSt18condition_variableC1Ev)
	jirl	$ra, $ra, 0
	st.d	$s4, $s2, 296
	st.w	$zero, $s2, 304
	st.d	$zero, $s2, 312
	vld	$vr0, $sp, 16                   # 16-byte Folded Reload
	vst	$vr0, $s2, 320
	vst	$vr0, $s2, 336
	addi.d	$a0, $s2, 352
	pcaddu18i	$ra, %call36(_ZNSt18condition_variableC1Ev)
	jirl	$ra, $ra, 0
	ld.d	$a0, $fp, 56
	st.d	$s2, $sp, 40
.Ltmp107:                               # EH_LABEL
	pcaddu18i	$ra, %call36(_ZNK9benchmark8internal17BenchmarkInstance5SetupEv)
	jirl	$ra, $ra, 0
.Ltmp108:                               # EH_LABEL
# %bb.11:                               # %invoke.cont6
	ld.d	$a0, $fp, 56
	ld.d	$a3, $sp, 40
	ld.d	$a4, $fp, 176
.Ltmp109:                               # EH_LABEL
	move	$a1, $s1
	move	$a2, $zero
	move	$a5, $zero
	pcaddu18i	$ra, %call36(_ZN9benchmark8internal12_GLOBAL__N_111RunInThreadEPKNS0_17BenchmarkInstanceEliPNS0_13ThreadManagerEPNS0_23PerfCountersMeasurementEPNS_15ProfilerManagerE)
	jirl	$ra, $ra, 0
.Ltmp110:                               # EH_LABEL
# %bb.12:                               # %invoke.cont9
	ld.d	$a0, $sp, 40
.Ltmp111:                               # EH_LABEL
	pcaddu18i	$ra, %call36(_ZN9benchmark8internal13ThreadManager17WaitForAllThreadsEv)
	jirl	$ra, $ra, 0
.Ltmp112:                               # EH_LABEL
# %bb.13:                               # %invoke.cont11
	ld.d	$a1, $sp, 40
	st.d	$zero, $sp, 40
	beqz	$a1, .LBB12_15
# %bb.14:                               # %if.then.i.i6
	addi.d	$a0, $sp, 40
	pcaddu18i	$ra, %call36(_ZNKSt14default_deleteIN9benchmark8internal13ThreadManagerEEclEPS2_)
	jirl	$ra, $ra, 0
.LBB12_15:                              # %_ZNSt10unique_ptrIN9benchmark8internal13ThreadManagerESt14default_deleteIS2_EE5resetEPS2_.exit7
	ld.d	$a0, $fp, 56
.Ltmp113:                               # EH_LABEL
	pcaddu18i	$ra, %call36(_ZNK9benchmark8internal17BenchmarkInstance8TeardownEv)
	jirl	$ra, $ra, 0
.Ltmp114:                               # EH_LABEL
# %bb.16:                               # %invoke.cont13
	ld.d	$a0, $s3, %pc_lo12(_ZN9benchmark8internal14memory_managerE)
	ld.d	$a1, $a0, 0
	ld.d	$a2, $a1, 24
.Ltmp115:                               # EH_LABEL
	move	$a1, $s0
	jirl	$ra, $a2, 0
.Ltmp116:                               # EH_LABEL
# %bb.17:                               # %invoke.cont16
	ld.d	$a1, $sp, 40
	beqz	$a1, .LBB12_19
# %bb.18:                               # %if.then.i
	addi.d	$a0, $sp, 40
	pcaddu18i	$ra, %call36(_ZNKSt14default_deleteIN9benchmark8internal13ThreadManagerEEclEPS2_)
	jirl	$ra, $ra, 0
.LBB12_19:                              # %_ZNSt10unique_ptrIN9benchmark8internal13ThreadManagerESt14default_deleteIS2_EED2Ev.exit
	move	$a0, $s0
	ld.d	$s7, $sp, 48                    # 8-byte Folded Reload
	ld.d	$s6, $sp, 56                    # 8-byte Folded Reload
	ld.d	$s5, $sp, 64                    # 8-byte Folded Reload
	ld.d	$s4, $sp, 72                    # 8-byte Folded Reload
	ld.d	$s3, $sp, 80                    # 8-byte Folded Reload
	ld.d	$s2, $sp, 88                    # 8-byte Folded Reload
	ld.d	$s1, $sp, 96                    # 8-byte Folded Reload
	ld.d	$s0, $sp, 104                   # 8-byte Folded Reload
	ld.d	$fp, $sp, 112                   # 8-byte Folded Reload
	ld.d	$ra, $sp, 120                   # 8-byte Folded Reload
	addi.d	$sp, $sp, 128
	ret
.LBB12_20:                              # %if.then.i.i.i.i
	pcalau12i	$a0, %pc_hi20(.L.str.18)
	addi.d	$a0, $a0, %pc_lo12(.L.str.18)
	pcaddu18i	$ra, %call36(_ZSt20__throw_length_errorPKc)
	jirl	$ra, $ra, 0
.LBB12_21:                              # %lpad
.Ltmp117:                               # EH_LABEL
	ld.d	$a1, $sp, 40
	move	$fp, $a0
	beqz	$a1, .LBB12_23
# %bb.22:                               # %if.then.i9
	addi.d	$a0, $sp, 40
	pcaddu18i	$ra, %call36(_ZNKSt14default_deleteIN9benchmark8internal13ThreadManagerEEclEPS2_)
	jirl	$ra, $ra, 0
.LBB12_23:                              # %_ZNSt10unique_ptrIN9benchmark8internal13ThreadManagerESt14default_deleteIS2_EED2Ev.exit10
	move	$a0, $fp
	pcaddu18i	$ra, %call36(_Unwind_Resume)
	jirl	$ra, $ra, 0
.Lfunc_end12:
	.size	_ZN9benchmark8internal15BenchmarkRunner16RunMemoryManagerEl, .Lfunc_end12-_ZN9benchmark8internal15BenchmarkRunner16RunMemoryManagerEl
	.cfi_endproc
	.section	.gcc_except_table,"a",@progbits
	.p2align	2, 0x0
GCC_except_table12:
.Lexception6:
	.byte	255                             # @LPStart Encoding = omit
	.byte	255                             # @TType Encoding = omit
	.byte	1                               # Call site Encoding = uleb128
	.uleb128 .Lcst_end6-.Lcst_begin6
.Lcst_begin6:
	.uleb128 .Lfunc_begin6-.Lfunc_begin6    # >> Call Site 1 <<
	.uleb128 .Ltmp105-.Lfunc_begin6         #   Call between .Lfunc_begin6 and .Ltmp105
	.byte	0                               #     has no landing pad
	.byte	0                               #   On action: cleanup
	.uleb128 .Ltmp105-.Lfunc_begin6         # >> Call Site 2 <<
	.uleb128 .Ltmp106-.Ltmp105              #   Call between .Ltmp105 and .Ltmp106
	.uleb128 .Ltmp117-.Lfunc_begin6         #     jumps to .Ltmp117
	.byte	0                               #   On action: cleanup
	.uleb128 .Ltmp106-.Lfunc_begin6         # >> Call Site 3 <<
	.uleb128 .Ltmp107-.Ltmp106              #   Call between .Ltmp106 and .Ltmp107
	.byte	0                               #     has no landing pad
	.byte	0                               #   On action: cleanup
	.uleb128 .Ltmp107-.Lfunc_begin6         # >> Call Site 4 <<
	.uleb128 .Ltmp112-.Ltmp107              #   Call between .Ltmp107 and .Ltmp112
	.uleb128 .Ltmp117-.Lfunc_begin6         #     jumps to .Ltmp117
	.byte	0                               #   On action: cleanup
	.uleb128 .Ltmp112-.Lfunc_begin6         # >> Call Site 5 <<
	.uleb128 .Ltmp113-.Ltmp112              #   Call between .Ltmp112 and .Ltmp113
	.byte	0                               #     has no landing pad
	.byte	0                               #   On action: cleanup
	.uleb128 .Ltmp113-.Lfunc_begin6         # >> Call Site 6 <<
	.uleb128 .Ltmp116-.Ltmp113              #   Call between .Ltmp113 and .Ltmp116
	.uleb128 .Ltmp117-.Lfunc_begin6         #     jumps to .Ltmp117
	.byte	0                               #   On action: cleanup
	.uleb128 .Ltmp116-.Lfunc_begin6         # >> Call Site 7 <<
	.uleb128 .Lfunc_end12-.Ltmp116          #   Call between .Ltmp116 and .Lfunc_end12
	.byte	0                               #     has no landing pad
	.byte	0                               #   On action: cleanup
.Lcst_end6:
	.p2align	2, 0x0
                                        # -- End function
	.text
	.hidden	_ZN9benchmark8internal15BenchmarkRunner18RunProfilerManagerEv # -- Begin function _ZN9benchmark8internal15BenchmarkRunner18RunProfilerManagerEv
	.globl	_ZN9benchmark8internal15BenchmarkRunner18RunProfilerManagerEv
	.p2align	5
	.type	_ZN9benchmark8internal15BenchmarkRunner18RunProfilerManagerEv,@function
_ZN9benchmark8internal15BenchmarkRunner18RunProfilerManagerEv: # @_ZN9benchmark8internal15BenchmarkRunner18RunProfilerManagerEv
.Lfunc_begin7:
	.cfi_startproc
	.cfi_personality 155, DW.ref.__gxx_personality_v0
	.cfi_lsda 27, .Lexception7
# %bb.0:                                # %entry
	addi.d	$sp, $sp, -80
	.cfi_def_cfa_offset 80
	st.d	$ra, $sp, 72                    # 8-byte Folded Spill
	st.d	$fp, $sp, 64                    # 8-byte Folded Spill
	st.d	$s0, $sp, 56                    # 8-byte Folded Spill
	st.d	$s1, $sp, 48                    # 8-byte Folded Spill
	.cfi_offset 1, -8
	.cfi_offset 22, -16
	.cfi_offset 23, -24
	.cfi_offset 24, -32
	move	$fp, $a0
	st.d	$zero, $sp, 40
.Ltmp118:                               # EH_LABEL
	ori	$a0, $zero, 400
	pcaddu18i	$ra, %call36(_Znwm)
	jirl	$ra, $ra, 0
.Ltmp119:                               # EH_LABEL
# %bb.1:                                # %_ZNSt10unique_ptrIN9benchmark8internal13ThreadManagerESt14default_deleteIS2_EE5resetEPS2_.exit
	move	$s0, $a0
	addi.d	$a0, $a0, 56
	st.d	$zero, $s0, 32
	vrepli.b	$vr0, 0
	vst	$vr0, $sp, 16                   # 16-byte Folded Spill
	vst	$vr0, $s0, 16
	vst	$vr0, $s0, 0
	st.d	$a0, $s0, 40
	st.d	$zero, $s0, 48
	st.b	$zero, $s0, 56
	addi.d	$a0, $s0, 88
	st.d	$a0, $s0, 72
	st.d	$zero, $s0, 80
	st.b	$zero, $s0, 88
	st.w	$zero, $s0, 104
	addi.d	$a0, $s0, 120
	st.w	$zero, $s0, 120
	st.d	$zero, $s0, 128
	st.d	$a0, $s0, 136
	st.d	$a0, $s0, 144
	vst	$vr0, $s0, 152
	vst	$vr0, $s0, 168
	vst	$vr0, $s0, 184
	ori	$s1, $zero, 1
	st.w	$s1, $s0, 200
	st.d	$zero, $s0, 240
	vst	$vr0, $s0, 208
	vst	$vr0, $s0, 224
	addi.d	$a0, $s0, 248
	pcaddu18i	$ra, %call36(_ZNSt18condition_variableC1Ev)
	jirl	$ra, $ra, 0
	st.d	$s1, $s0, 296
	st.w	$zero, $s0, 304
	st.d	$zero, $s0, 312
	vld	$vr0, $sp, 16                   # 16-byte Folded Reload
	vst	$vr0, $s0, 320
	vst	$vr0, $s0, 336
	addi.d	$a0, $s0, 352
	pcaddu18i	$ra, %call36(_ZNSt18condition_variableC1Ev)
	jirl	$ra, $ra, 0
	ld.d	$a0, $fp, 56
	st.d	$s0, $sp, 40
.Ltmp120:                               # EH_LABEL
	pcaddu18i	$ra, %call36(_ZNK9benchmark8internal17BenchmarkInstance5SetupEv)
	jirl	$ra, $ra, 0
.Ltmp121:                               # EH_LABEL
# %bb.2:                                # %invoke.cont4
	ld.d	$a0, $fp, 56
	ld.d	$a3, $sp, 40
	pcalau12i	$a1, %pc_hi20(_ZN9benchmark8internal16profiler_managerE)
	ld.d	$a5, $a1, %pc_lo12(_ZN9benchmark8internal16profiler_managerE)
.Ltmp122:                               # EH_LABEL
	ori	$a1, $zero, 1
	move	$a2, $zero
	move	$a4, $zero
	pcaddu18i	$ra, %call36(_ZN9benchmark8internal12_GLOBAL__N_111RunInThreadEPKNS0_17BenchmarkInstanceEliPNS0_13ThreadManagerEPNS0_23PerfCountersMeasurementEPNS_15ProfilerManagerE)
	jirl	$ra, $ra, 0
.Ltmp123:                               # EH_LABEL
# %bb.3:                                # %invoke.cont7
	ld.d	$a0, $sp, 40
.Ltmp124:                               # EH_LABEL
	pcaddu18i	$ra, %call36(_ZN9benchmark8internal13ThreadManager17WaitForAllThreadsEv)
	jirl	$ra, $ra, 0
.Ltmp125:                               # EH_LABEL
# %bb.4:                                # %invoke.cont9
	ld.d	$a1, $sp, 40
	st.d	$zero, $sp, 40
	beqz	$a1, .LBB13_6
# %bb.5:                                # %if.then.i.i3
	addi.d	$a0, $sp, 40
	pcaddu18i	$ra, %call36(_ZNKSt14default_deleteIN9benchmark8internal13ThreadManagerEEclEPS2_)
	jirl	$ra, $ra, 0
.LBB13_6:                               # %_ZNSt10unique_ptrIN9benchmark8internal13ThreadManagerESt14default_deleteIS2_EE5resetEPS2_.exit4
	ld.d	$a0, $fp, 56
.Ltmp126:                               # EH_LABEL
	pcaddu18i	$ra, %call36(_ZNK9benchmark8internal17BenchmarkInstance8TeardownEv)
	jirl	$ra, $ra, 0
.Ltmp127:                               # EH_LABEL
# %bb.7:                                # %invoke.cont11
	ld.d	$a1, $sp, 40
	beqz	$a1, .LBB13_9
# %bb.8:                                # %if.then.i
	addi.d	$a0, $sp, 40
	pcaddu18i	$ra, %call36(_ZNKSt14default_deleteIN9benchmark8internal13ThreadManagerEEclEPS2_)
	jirl	$ra, $ra, 0
.LBB13_9:                               # %_ZNSt10unique_ptrIN9benchmark8internal13ThreadManagerESt14default_deleteIS2_EED2Ev.exit
	ld.d	$s1, $sp, 48                    # 8-byte Folded Reload
	ld.d	$s0, $sp, 56                    # 8-byte Folded Reload
	ld.d	$fp, $sp, 64                    # 8-byte Folded Reload
	ld.d	$ra, $sp, 72                    # 8-byte Folded Reload
	addi.d	$sp, $sp, 80
	ret
.LBB13_10:                              # %lpad
.Ltmp128:                               # EH_LABEL
	ld.d	$a1, $sp, 40
	move	$fp, $a0
	beqz	$a1, .LBB13_12
# %bb.11:                               # %if.then.i6
	addi.d	$a0, $sp, 40
	pcaddu18i	$ra, %call36(_ZNKSt14default_deleteIN9benchmark8internal13ThreadManagerEEclEPS2_)
	jirl	$ra, $ra, 0
.LBB13_12:                              # %_ZNSt10unique_ptrIN9benchmark8internal13ThreadManagerESt14default_deleteIS2_EED2Ev.exit7
	move	$a0, $fp
	pcaddu18i	$ra, %call36(_Unwind_Resume)
	jirl	$ra, $ra, 0
.Lfunc_end13:
	.size	_ZN9benchmark8internal15BenchmarkRunner18RunProfilerManagerEv, .Lfunc_end13-_ZN9benchmark8internal15BenchmarkRunner18RunProfilerManagerEv
	.cfi_endproc
	.section	.gcc_except_table,"a",@progbits
	.p2align	2, 0x0
GCC_except_table13:
.Lexception7:
	.byte	255                             # @LPStart Encoding = omit
	.byte	255                             # @TType Encoding = omit
	.byte	1                               # Call site Encoding = uleb128
	.uleb128 .Lcst_end7-.Lcst_begin7
.Lcst_begin7:
	.uleb128 .Ltmp118-.Lfunc_begin7         # >> Call Site 1 <<
	.uleb128 .Ltmp119-.Ltmp118              #   Call between .Ltmp118 and .Ltmp119
	.uleb128 .Ltmp128-.Lfunc_begin7         #     jumps to .Ltmp128
	.byte	0                               #   On action: cleanup
	.uleb128 .Ltmp119-.Lfunc_begin7         # >> Call Site 2 <<
	.uleb128 .Ltmp120-.Ltmp119              #   Call between .Ltmp119 and .Ltmp120
	.byte	0                               #     has no landing pad
	.byte	0                               #   On action: cleanup
	.uleb128 .Ltmp120-.Lfunc_begin7         # >> Call Site 3 <<
	.uleb128 .Ltmp125-.Ltmp120              #   Call between .Ltmp120 and .Ltmp125
	.uleb128 .Ltmp128-.Lfunc_begin7         #     jumps to .Ltmp128
	.byte	0                               #   On action: cleanup
	.uleb128 .Ltmp125-.Lfunc_begin7         # >> Call Site 4 <<
	.uleb128 .Ltmp126-.Ltmp125              #   Call between .Ltmp125 and .Ltmp126
	.byte	0                               #     has no landing pad
	.byte	0                               #   On action: cleanup
	.uleb128 .Ltmp126-.Lfunc_begin7         # >> Call Site 5 <<
	.uleb128 .Ltmp127-.Ltmp126              #   Call between .Ltmp126 and .Ltmp127
	.uleb128 .Ltmp128-.Lfunc_begin7         #     jumps to .Ltmp128
	.byte	0                               #   On action: cleanup
	.uleb128 .Ltmp127-.Lfunc_begin7         # >> Call Site 6 <<
	.uleb128 .Lfunc_end13-.Ltmp127          #   Call between .Ltmp127 and .Lfunc_end13
	.byte	0                               #     has no landing pad
	.byte	0                               #   On action: cleanup
.Lcst_end7:
	.p2align	2, 0x0
                                        # -- End function
	.text
	.hidden	_ZN9benchmark8internal15BenchmarkRunner15DoOneRepetitionEv # -- Begin function _ZN9benchmark8internal15BenchmarkRunner15DoOneRepetitionEv
	.globl	_ZN9benchmark8internal15BenchmarkRunner15DoOneRepetitionEv
	.p2align	5
	.type	_ZN9benchmark8internal15BenchmarkRunner15DoOneRepetitionEv,@function
_ZN9benchmark8internal15BenchmarkRunner15DoOneRepetitionEv: # @_ZN9benchmark8internal15BenchmarkRunner15DoOneRepetitionEv
.Lfunc_begin8:
	.cfi_startproc
	.cfi_personality 155, DW.ref.__gxx_personality_v0
	.cfi_lsda 27, .Lexception8
# %bb.0:                                # %entry
	addi.d	$sp, $sp, -848
	.cfi_def_cfa_offset 848
	st.d	$ra, $sp, 840                   # 8-byte Folded Spill
	st.d	$fp, $sp, 832                   # 8-byte Folded Spill
	st.d	$s0, $sp, 824                   # 8-byte Folded Spill
	st.d	$s1, $sp, 816                   # 8-byte Folded Spill
	st.d	$s2, $sp, 808                   # 8-byte Folded Spill
	st.d	$s3, $sp, 800                   # 8-byte Folded Spill
	st.d	$s4, $sp, 792                   # 8-byte Folded Spill
	st.d	$s5, $sp, 784                   # 8-byte Folded Spill
	st.d	$s6, $sp, 776                   # 8-byte Folded Spill
	st.d	$s7, $sp, 768                   # 8-byte Folded Spill
	st.d	$s8, $sp, 760                   # 8-byte Folded Spill
	fst.d	$fs0, $sp, 752                  # 8-byte Folded Spill
	.cfi_offset 1, -8
	.cfi_offset 22, -16
	.cfi_offset 23, -24
	.cfi_offset 24, -32
	.cfi_offset 25, -40
	.cfi_offset 26, -48
	.cfi_offset 27, -56
	.cfi_offset 28, -64
	.cfi_offset 29, -72
	.cfi_offset 30, -80
	.cfi_offset 31, -88
	.cfi_offset 56, -96
	move	$fp, $a0
	ld.bu	$a0, $a0, 104
	ld.w	$s4, $fp, 116
	bnez	$a0, .LBB14_2
# %bb.1:                                # %if.then
	move	$a0, $fp
	pcaddu18i	$ra, %call36(_ZN9benchmark8internal15BenchmarkRunner9RunWarmUpEv)
	jirl	$ra, $ra, 0
.LBB14_2:                               # %if.end
	addi.d	$a0, $sp, 632
	st.d	$zero, $sp, 608
	vrepli.b	$vr0, 0
	vst	$vr0, $sp, 592
	vst	$vr0, $sp, 576
	st.d	$a0, $sp, 616
	st.d	$zero, $sp, 624
	st.b	$zero, $sp, 632
	addi.d	$a0, $sp, 664
	st.d	$a0, $sp, 648
	st.d	$zero, $sp, 656
	st.b	$zero, $sp, 664
	st.w	$zero, $sp, 680
	addi.d	$a0, $sp, 696
	st.w	$zero, $sp, 696
	st.d	$zero, $sp, 704
	st.d	$a0, $sp, 712
	st.d	$a0, $sp, 720
	st.d	$zero, $sp, 728
	addi.d	$s3, $sp, 736
	addi.d	$s6, $sp, 176
	addi.d	$s0, $sp, 128
	addi.d	$s2, $sp, 104
	addi.d	$s1, $sp, 72
	beqz	$s4, .LBB14_14
# %bb.3:                                # %for.cond.us
	ld.d	$a0, $fp, 56
.Ltmp129:                               # EH_LABEL
	pcaddu18i	$ra, %call36(_ZNK9benchmark8internal17BenchmarkInstance5SetupEv)
	jirl	$ra, $ra, 0
.Ltmp130:                               # EH_LABEL
# %bb.4:                                # %invoke.cont.us
.Ltmp131:                               # EH_LABEL
	addi.d	$a0, $sp, 16
	move	$a1, $fp
	pcaddu18i	$ra, %call36(_ZN9benchmark8internal15BenchmarkRunner13DoNIterationsEv)
	jirl	$ra, $ra, 0
.Ltmp132:                               # EH_LABEL
# %bb.5:                                # %invoke.cont3.us
	addi.d	$a0, $sp, 576
	addi.d	$a1, $sp, 16
	pcaddu18i	$ra, %call36(_ZN9benchmark8internal13ThreadManager6ResultaSEOS2_)
	jirl	$ra, $ra, 0
	vld	$vr0, $s6, 0
	ld.d	$a1, $sp, 144
	vst	$vr0, $s3, 0
.Ltmp134:                               # EH_LABEL
	move	$a0, $s0
	pcaddu18i	$ra, %call36(_ZNSt8_Rb_treeINSt7__cxx1112basic_stringIcSt11char_traitsIcESaIcEEESt4pairIKS5_N9benchmark7CounterEESt10_Select1stISA_ESt4lessIS5_ESaISA_EE8_M_eraseEPSt13_Rb_tree_nodeISA_E)
	jirl	$ra, $ra, 0
.Ltmp135:                               # EH_LABEL
# %bb.6:                                # %_ZNSt3mapINSt7__cxx1112basic_stringIcSt11char_traitsIcESaIcEEEN9benchmark7CounterESt4lessIS5_ESaISt4pairIKS5_S7_EEED2Ev.exit.i.i.us
	ld.d	$a0, $sp, 88
	beq	$a0, $s2, .LBB14_8
# %bb.7:                                # %if.then.i.i.i.i.us
	ld.d	$a1, $sp, 104
	addi.d	$a1, $a1, 1
	pcaddu18i	$ra, %call36(_ZdlPvm)
	jirl	$ra, $ra, 0
.LBB14_8:                               # %_ZNSt7__cxx1112basic_stringIcSt11char_traitsIcESaIcEED2Ev.exit.i.i.us
	ld.d	$a0, $sp, 56
	beq	$a0, $s1, .LBB14_10
# %bb.9:                                # %if.then.i.i2.i.i.us
	ld.d	$a1, $sp, 72
	addi.d	$a1, $a1, 1
	pcaddu18i	$ra, %call36(_ZdlPvm)
	jirl	$ra, $ra, 0
.LBB14_10:                              # %_ZN9benchmark8internal15BenchmarkRunner16IterationResultsD2Ev.exit.us
	ld.d	$a0, $fp, 56
.Ltmp137:                               # EH_LABEL
	pcaddu18i	$ra, %call36(_ZNK9benchmark8internal17BenchmarkInstance8TeardownEv)
	jirl	$ra, $ra, 0
.Ltmp138:                               # EH_LABEL
.LBB14_11:                              # %for.end
	pcalau12i	$a0, %pc_hi20(_ZN9benchmark8internal14memory_managerE)
	ld.d	$a0, $a0, %pc_lo12(_ZN9benchmark8internal14memory_managerE)
	beqz	$a0, .LBB14_32
# %bb.12:                               # %if.then18
	ld.d	$a0, $fp, 168
	slti	$a1, $a0, 16
	ori	$a2, $zero, 16
	masknez	$a2, $a2, $a1
	maskeqz	$a0, $a0, $a1
	or	$s0, $a0, $a2
.Ltmp154:                               # EH_LABEL
	move	$a0, $fp
	move	$a1, $s0
	pcaddu18i	$ra, %call36(_ZN9benchmark8internal15BenchmarkRunner16RunMemoryManagerEl)
	jirl	$ra, $ra, 0
.Ltmp155:                               # EH_LABEL
# %bb.13:
	move	$s1, $a0
	pcalau12i	$a0, %pc_hi20(_ZN9benchmark8internal16profiler_managerE)
	ld.d	$a0, $a0, %pc_lo12(_ZN9benchmark8internal16profiler_managerE)
	bnez	$a0, .LBB14_33
	b	.LBB14_34
.LBB14_14:
	pcalau12i	$a0, %got_pc_hi20(_ZN9benchmark23FLAGS_benchmark_dry_runE)
	ld.d	$s7, $a0, %got_pc_lo12(_ZN9benchmark23FLAGS_benchmark_dry_runE)
	lu12i.w	$a0, -177584
	ori	$s8, $a0, 4095
	lu32i.d	$s8, 232
	ori	$s4, $zero, 96
	ori	$s5, $zero, 88
	.p2align	4, , 16
.LBB14_15:                              # %for.cond
                                        # =>This Inner Loop Header: Depth=1
	ld.d	$a0, $fp, 56
.Ltmp140:                               # EH_LABEL
	pcaddu18i	$ra, %call36(_ZNK9benchmark8internal17BenchmarkInstance5SetupEv)
	jirl	$ra, $ra, 0
.Ltmp141:                               # EH_LABEL
# %bb.16:                               # %invoke.cont
                                        #   in Loop: Header=BB14_15 Depth=1
.Ltmp142:                               # EH_LABEL
	addi.d	$a0, $sp, 16
	move	$a1, $fp
	pcaddu18i	$ra, %call36(_ZN9benchmark8internal15BenchmarkRunner13DoNIterationsEv)
	jirl	$ra, $ra, 0
.Ltmp143:                               # EH_LABEL
# %bb.17:                               # %invoke.cont3
                                        #   in Loop: Header=BB14_15 Depth=1
	addi.d	$a0, $sp, 576
	addi.d	$a1, $sp, 16
	pcaddu18i	$ra, %call36(_ZN9benchmark8internal13ThreadManager6ResultaSEOS2_)
	jirl	$ra, $ra, 0
	vld	$vr0, $s6, 0
	ld.d	$a1, $sp, 144
	vst	$vr0, $s3, 0
.Ltmp145:                               # EH_LABEL
	move	$a0, $s0
	pcaddu18i	$ra, %call36(_ZNSt8_Rb_treeINSt7__cxx1112basic_stringIcSt11char_traitsIcESaIcEEESt4pairIKS5_N9benchmark7CounterEESt10_Select1stISA_ESt4lessIS5_ESaISA_EE8_M_eraseEPSt13_Rb_tree_nodeISA_E)
	jirl	$ra, $ra, 0
.Ltmp146:                               # EH_LABEL
# %bb.18:                               # %_ZNSt3mapINSt7__cxx1112basic_stringIcSt11char_traitsIcESaIcEEEN9benchmark7CounterESt4lessIS5_ESaISt4pairIKS5_S7_EEED2Ev.exit.i.i
                                        #   in Loop: Header=BB14_15 Depth=1
	ld.d	$a0, $sp, 88
	beq	$a0, $s2, .LBB14_20
# %bb.19:                               # %if.then.i.i.i.i
                                        #   in Loop: Header=BB14_15 Depth=1
	ld.d	$a1, $sp, 104
	addi.d	$a1, $a1, 1
	pcaddu18i	$ra, %call36(_ZdlPvm)
	jirl	$ra, $ra, 0
.LBB14_20:                              # %_ZNSt7__cxx1112basic_stringIcSt11char_traitsIcESaIcEED2Ev.exit.i.i
                                        #   in Loop: Header=BB14_15 Depth=1
	ld.d	$a0, $sp, 56
	beq	$a0, $s1, .LBB14_22
# %bb.21:                               # %if.then.i.i2.i.i
                                        #   in Loop: Header=BB14_15 Depth=1
	ld.d	$a1, $sp, 72
	addi.d	$a1, $a1, 1
	pcaddu18i	$ra, %call36(_ZdlPvm)
	jirl	$ra, $ra, 0
.LBB14_22:                              # %_ZN9benchmark8internal15BenchmarkRunner16IterationResultsD2Ev.exit
                                        #   in Loop: Header=BB14_15 Depth=1
	ld.d	$a0, $fp, 56
.Ltmp148:                               # EH_LABEL
	pcaddu18i	$ra, %call36(_ZNK9benchmark8internal17BenchmarkInstance8TeardownEv)
	jirl	$ra, $ra, 0
.Ltmp149:                               # EH_LABEL
# %bb.23:                               # %invoke.cont5
                                        #   in Loop: Header=BB14_15 Depth=1
	ld.bu	$a0, $fp, 112
	bnez	$a0, .LBB14_11
# %bb.24:                               # %lor.rhs
                                        #   in Loop: Header=BB14_15 Depth=1
	ld.w	$a0, $sp, 680
	bnez	$a0, .LBB14_11
# %bb.25:                               # %lor.rhs
                                        #   in Loop: Header=BB14_15 Depth=1
	ld.b	$a0, $s7, 0
	andi	$a0, $a0, 1
	bnez	$a0, .LBB14_11
# %bb.26:                               # %lor.rhs
                                        #   in Loop: Header=BB14_15 Depth=1
	ld.d	$a0, $sp, 736
	blt	$s8, $a0, .LBB14_11
# %bb.27:                               # %lor.lhs.false3.i
                                        #   in Loop: Header=BB14_15 Depth=1
	ld.bu	$a0, $fp, 104
	fld.d	$fa1, $sp, 744
	masknez	$a1, $s4, $a0
	maskeqz	$a0, $s5, $a0
	or	$a0, $a0, $a1
	fldx.d	$fa0, $fp, $a0
	fcmp.cle.d	$fcc0, $fa0, $fa1
	bcnez	$fcc0, .LBB14_11
# %bb.28:                               # %lor.rhs.i
                                        #   in Loop: Header=BB14_15 Depth=1
	fld.d	$fa1, $sp, 584
	vldi	$vr2, -1004
	fmul.d	$fa0, $fa0, $fa2
	fcmp.cult.d	$fcc0, $fa1, $fa0
	bcnez	$fcc0, .LBB14_30
# %bb.29:                               # %lor.end
                                        #   in Loop: Header=BB14_15 Depth=1
	ld.d	$a0, $fp, 56
	ld.bu	$a0, $a0, 294
	beqz	$a0, .LBB14_11
.LBB14_30:                              # %if.end14
                                        #   in Loop: Header=BB14_15 Depth=1
.Ltmp151:                               # EH_LABEL
	addi.d	$a1, $sp, 576
	move	$a0, $fp
	pcaddu18i	$ra, %call36(_ZNK9benchmark8internal15BenchmarkRunner21PredictNumItersNeededERKNS1_16IterationResultsE)
	jirl	$ra, $ra, 0
.Ltmp152:                               # EH_LABEL
# %bb.31:                               # %cleanup
                                        #   in Loop: Header=BB14_15 Depth=1
	st.d	$a0, $fp, 168
	b	.LBB14_15
.LBB14_32:
	move	$s1, $zero
	move	$s0, $zero
	pcalau12i	$a0, %pc_hi20(_ZN9benchmark8internal16profiler_managerE)
	ld.d	$a0, $a0, %pc_lo12(_ZN9benchmark8internal16profiler_managerE)
	beqz	$a0, .LBB14_34
.LBB14_33:                              # %if.then29
.Ltmp156:                               # EH_LABEL
	move	$a0, $fp
	pcaddu18i	$ra, %call36(_ZN9benchmark8internal15BenchmarkRunner18RunProfilerManagerEv)
	jirl	$ra, $ra, 0
.Ltmp157:                               # EH_LABEL
.LBB14_34:                              # %if.end31
	ld.d	$s2, $fp, 56
	fld.d	$fs0, $sp, 744
	ld.w	$s3, $fp, 116
	ld.w	$s6, $fp, 108
.Ltmp159:                               # EH_LABEL
	addi.d	$a0, $sp, 16
	pcaddu18i	$ra, %call36(_ZN9benchmark17BenchmarkReporter3RunC2Ev)
	jirl	$ra, $ra, 0
.Ltmp160:                               # EH_LABEL
# %bb.35:                               # %.noexc
.Ltmp162:                               # EH_LABEL
	addi.d	$a0, $sp, 16
	move	$a1, $s2
	pcaddu18i	$ra, %call36(_ZNSt7__cxx1112basic_stringIcSt11char_traitsIcESaIcEE9_M_assignERKS4_)
	jirl	$ra, $ra, 0
.Ltmp163:                               # EH_LABEL
# %bb.36:                               # %.noexc.i
	addi.d	$a0, $sp, 48
	addi.d	$a1, $s2, 32
.Ltmp164:                               # EH_LABEL
	pcaddu18i	$ra, %call36(_ZNSt7__cxx1112basic_stringIcSt11char_traitsIcESaIcEE9_M_assignERKS4_)
	jirl	$ra, $ra, 0
.Ltmp165:                               # EH_LABEL
# %bb.37:                               # %.noexc23.i
	addi.d	$a0, $sp, 80
	addi.d	$a1, $s2, 64
.Ltmp166:                               # EH_LABEL
	pcaddu18i	$ra, %call36(_ZNSt7__cxx1112basic_stringIcSt11char_traitsIcESaIcEE9_M_assignERKS4_)
	jirl	$ra, $ra, 0
.Ltmp167:                               # EH_LABEL
# %bb.38:                               # %.noexc24.i
	addi.d	$a0, $sp, 112
	addi.d	$a1, $s2, 96
.Ltmp168:                               # EH_LABEL
	pcaddu18i	$ra, %call36(_ZNSt7__cxx1112basic_stringIcSt11char_traitsIcESaIcEE9_M_assignERKS4_)
	jirl	$ra, $ra, 0
.Ltmp169:                               # EH_LABEL
# %bb.39:                               # %.noexc25.i
	addi.d	$a0, $sp, 144
	addi.d	$a1, $s2, 128
.Ltmp170:                               # EH_LABEL
	pcaddu18i	$ra, %call36(_ZNSt7__cxx1112basic_stringIcSt11char_traitsIcESaIcEE9_M_assignERKS4_)
	jirl	$ra, $ra, 0
.Ltmp171:                               # EH_LABEL
# %bb.40:                               # %.noexc26.i
	addi.d	$a0, $sp, 176
	addi.d	$a1, $s2, 160
.Ltmp172:                               # EH_LABEL
	pcaddu18i	$ra, %call36(_ZNSt7__cxx1112basic_stringIcSt11char_traitsIcESaIcEE9_M_assignERKS4_)
	jirl	$ra, $ra, 0
.Ltmp173:                               # EH_LABEL
# %bb.41:                               # %.noexc27.i
	addi.d	$a0, $sp, 208
	addi.d	$a1, $s2, 192
.Ltmp174:                               # EH_LABEL
	pcaddu18i	$ra, %call36(_ZNSt7__cxx1112basic_stringIcSt11char_traitsIcESaIcEE9_M_assignERKS4_)
	jirl	$ra, $ra, 0
.Ltmp175:                               # EH_LABEL
# %bb.42:                               # %.noexc28.i
	addi.d	$a0, $sp, 240
	addi.d	$a1, $s2, 224
.Ltmp176:                               # EH_LABEL
	pcaddu18i	$ra, %call36(_ZNSt7__cxx1112basic_stringIcSt11char_traitsIcESaIcEE9_M_assignERKS4_)
	jirl	$ra, $ra, 0
.Ltmp177:                               # EH_LABEL
# %bb.43:                               # %invoke.cont.i
	ld.w	$a0, $s2, 264
	ld.w	$a2, $s2, 268
	ld.w	$a3, $sp, 680
	addi.d	$a1, $sp, 648
	st.d	$a0, $sp, 272
	st.d	$a2, $sp, 280
	st.w	$a3, $sp, 368
	addi.d	$a0, $sp, 376
.Ltmp178:                               # EH_LABEL
	pcaddu18i	$ra, %call36(_ZNSt7__cxx1112basic_stringIcSt11char_traitsIcESaIcEE9_M_assignERKS4_)
	jirl	$ra, $ra, 0
.Ltmp179:                               # EH_LABEL
# %bb.44:                               # %invoke.cont7.i
	addi.d	$a1, $sp, 616
	addi.d	$a0, $sp, 336
.Ltmp180:                               # EH_LABEL
	pcaddu18i	$ra, %call36(_ZNSt7__cxx1112basic_stringIcSt11char_traitsIcESaIcEE9_M_assignERKS4_)
	jirl	$ra, $ra, 0
.Ltmp181:                               # EH_LABEL
# %bb.45:                               # %invoke.cont9.i
	ld.d	$a0, $sp, 576
	st.d	$a0, $sp, 408
	ld.w	$a0, $s2, 288
	st.w	$a0, $sp, 440
	ld.w	$a0, $s2, 400
	ld.w	$a1, $sp, 368
	st.d	$a0, $sp, 416
	st.d	$s3, $sp, 424
	st.d	$s6, $sp, 432
	bnez	$a1, .LBB14_50
# %bb.46:                               # %if.then.i
	ld.bu	$a0, $s2, 294
	ori	$a1, $zero, 8
	masknez	$a1, $a1, $a0
	ori	$a2, $zero, 24
	maskeqz	$a2, $a2, $a0
	or	$a1, $a2, $a1
	addi.d	$a2, $sp, 576
	fldx.d	$fa0, $a1, $a2
	fld.d	$fa1, $sp, 592
	ld.d	$a1, $sp, 608
	fst.d	$fa0, $sp, 448
	st.b	$a0, $sp, 472
	fst.d	$fa1, $sp, 456
	st.d	$a1, $sp, 488
	ld.w	$a0, $s2, 296
	st.w	$a0, $sp, 476
	ld.d	$a0, $s2, 304
	st.d	$a0, $sp, 480
	ld.d	$a0, $s2, 360
	st.d	$a0, $sp, 496
	addi.d	$a1, $sp, 688
	addi.d	$s3, $sp, 512
.Ltmp182:                               # EH_LABEL
	move	$a0, $s3
	pcaddu18i	$ra, %call36(_ZNSt8_Rb_treeINSt7__cxx1112basic_stringIcSt11char_traitsIcESaIcEEESt4pairIKS5_N9benchmark7CounterEESt10_Select1stISA_ESt4lessIS5_ESaISA_EEaSERKSG_)
	jirl	$ra, $ra, 0
.Ltmp183:                               # EH_LABEL
# %bb.47:                               # %invoke.cont30.i
	blez	$s0, .LBB14_49
# %bb.48:                               # %if.then32.i
	st.d	$s1, $sp, 560
	ld.d	$a0, $s1, 0
	movgr2fr.d	$fa0, $a0
	ffint.d.l	$fa0, $fa0
	movgr2fr.d	$fa1, $s0
	ffint.d.l	$fa1, $fa1
	fdiv.d	$fa0, $fa0, $fa1
	fst.d	$fa0, $sp, 568
.LBB14_49:                              # %if.end37.i
	ld.w	$a0, $s2, 400
	ld.d	$a1, $sp, 576
	movgr2fr.w	$fa0, $a0
	ffint.d.w	$fa1, $fa0
.Ltmp184:                               # EH_LABEL
	move	$a0, $s3
	fmov.d	$fa0, $fs0
	pcaddu18i	$ra, %call36(_ZN9benchmark8internal6FinishEPSt3mapINSt7__cxx1112basic_stringIcSt11char_traitsIcESaIcEEENS_7CounterESt4lessIS7_ESaISt4pairIKS7_S8_EEEldd)
	jirl	$ra, $ra, 0
.Ltmp185:                               # EH_LABEL
.LBB14_50:                              # %invoke.cont36
	ld.d	$s0, $fp, 64
	beqz	$s0, .LBB14_56
# %bb.51:                               # %if.then37
	ld.w	$a0, $s0, 4
	addi.d	$a0, $a0, 1
	st.w	$a0, $s0, 4
	ld.w	$a0, $sp, 368
	bnez	$a0, .LBB14_56
# %bb.52:                               # %if.then40
	ld.d	$a0, $s0, 16
	ld.d	$a1, $s0, 24
	beq	$a0, $a1, .LBB14_55
# %bb.53:                               # %if.then.i15
.Ltmp187:                               # EH_LABEL
	addi.d	$a1, $sp, 16
	pcaddu18i	$ra, %call36(_ZN9benchmark17BenchmarkReporter3RunC2ERKS1_)
	jirl	$ra, $ra, 0
.Ltmp188:                               # EH_LABEL
# %bb.54:                               # %.noexc16
	ld.d	$a0, $s0, 16
	addi.d	$a0, $a0, 560
	st.d	$a0, $s0, 16
	b	.LBB14_56
.LBB14_55:                              # %if.else.i
	addi.d	$a0, $s0, 8
.Ltmp189:                               # EH_LABEL
	addi.d	$a1, $sp, 16
	pcaddu18i	$ra, %call36(_ZNSt6vectorIN9benchmark17BenchmarkReporter3RunESaIS2_EE17_M_realloc_appendIJRKS2_EEEvDpOT_)
	jirl	$ra, $ra, 0
.Ltmp190:                               # EH_LABEL
.LBB14_56:                              # %if.end45
	ld.d	$a0, $fp, 8
	ld.d	$a1, $fp, 16
	beq	$a0, $a1, .LBB14_59
# %bb.57:                               # %if.then.i21
.Ltmp191:                               # EH_LABEL
	addi.d	$a1, $sp, 16
	pcaddu18i	$ra, %call36(_ZN9benchmark17BenchmarkReporter3RunC2ERKS1_)
	jirl	$ra, $ra, 0
.Ltmp192:                               # EH_LABEL
# %bb.58:                               # %.noexc24
	ld.d	$a0, $fp, 8
	addi.d	$a0, $a0, 560
	st.d	$a0, $fp, 8
	b	.LBB14_60
.LBB14_59:                              # %if.else.i23
.Ltmp193:                               # EH_LABEL
	addi.d	$a1, $sp, 16
	move	$a0, $fp
	pcaddu18i	$ra, %call36(_ZNSt6vectorIN9benchmark17BenchmarkReporter3RunESaIS2_EE17_M_realloc_appendIJRKS2_EEEvDpOT_)
	jirl	$ra, $ra, 0
.Ltmp194:                               # EH_LABEL
.LBB14_60:                              # %invoke.cont46
	ld.w	$a0, $fp, 116
	ld.d	$a1, $sp, 528
	addi.d	$a0, $a0, 1
	st.w	$a0, $fp, 116
	addi.d	$a0, $sp, 512
.Ltmp196:                               # EH_LABEL
	pcaddu18i	$ra, %call36(_ZNSt8_Rb_treeINSt7__cxx1112basic_stringIcSt11char_traitsIcESaIcEEESt4pairIKS5_N9benchmark7CounterEESt10_Select1stISA_ESt4lessIS5_ESaISA_EE8_M_eraseEPSt13_Rb_tree_nodeISA_E)
	jirl	$ra, $ra, 0
.Ltmp197:                               # EH_LABEL
# %bb.61:                               # %_ZNSt3mapINSt7__cxx1112basic_stringIcSt11char_traitsIcESaIcEEEN9benchmark7CounterESt4lessIS5_ESaISt4pairIKS5_S7_EEED2Ev.exit.i
	ld.d	$a0, $sp, 376
	addi.d	$a1, $sp, 392
	beq	$a0, $a1, .LBB14_63
# %bb.62:                               # %if.then.i.i.i
	ld.d	$a1, $sp, 392
	addi.d	$a1, $a1, 1
	pcaddu18i	$ra, %call36(_ZdlPvm)
	jirl	$ra, $ra, 0
.LBB14_63:                              # %_ZNSt7__cxx1112basic_stringIcSt11char_traitsIcESaIcEED2Ev.exit.i
	ld.d	$a0, $sp, 336
	addi.d	$a1, $sp, 352
	beq	$a0, $a1, .LBB14_65
# %bb.64:                               # %if.then.i.i2.i
	ld.d	$a1, $sp, 352
	addi.d	$a1, $a1, 1
	pcaddu18i	$ra, %call36(_ZdlPvm)
	jirl	$ra, $ra, 0
.LBB14_65:                              # %_ZNSt7__cxx1112basic_stringIcSt11char_traitsIcESaIcEED2Ev.exit7.i
	ld.d	$a0, $sp, 296
	addi.d	$a1, $sp, 312
	beq	$a0, $a1, .LBB14_67
# %bb.66:                               # %if.then.i.i9.i
	ld.d	$a1, $sp, 312
	addi.d	$a1, $a1, 1
	pcaddu18i	$ra, %call36(_ZdlPvm)
	jirl	$ra, $ra, 0
.LBB14_67:                              # %_ZN9benchmark17BenchmarkReporter3RunD2Ev.exit
	addi.d	$a0, $sp, 16
	pcaddu18i	$ra, %call36(_ZN9benchmark13BenchmarkNameD2Ev)
	jirl	$ra, $ra, 0
	ld.d	$a1, $sp, 704
	addi.d	$a0, $sp, 688
.Ltmp199:                               # EH_LABEL
	pcaddu18i	$ra, %call36(_ZNSt8_Rb_treeINSt7__cxx1112basic_stringIcSt11char_traitsIcESaIcEEESt4pairIKS5_N9benchmark7CounterEESt10_Select1stISA_ESt4lessIS5_ESaISA_EE8_M_eraseEPSt13_Rb_tree_nodeISA_E)
	jirl	$ra, $ra, 0
.Ltmp200:                               # EH_LABEL
# %bb.68:                               # %_ZNSt3mapINSt7__cxx1112basic_stringIcSt11char_traitsIcESaIcEEEN9benchmark7CounterESt4lessIS5_ESaISt4pairIKS5_S7_EEED2Ev.exit.i.i33
	ld.d	$a0, $sp, 648
	addi.d	$a1, $sp, 664
	beq	$a0, $a1, .LBB14_70
# %bb.69:                               # %if.then.i.i.i.i36
	ld.d	$a1, $sp, 664
	addi.d	$a1, $a1, 1
	pcaddu18i	$ra, %call36(_ZdlPvm)
	jirl	$ra, $ra, 0
.LBB14_70:                              # %_ZNSt7__cxx1112basic_stringIcSt11char_traitsIcESaIcEED2Ev.exit.i.i38
	ld.d	$a0, $sp, 616
	addi.d	$a1, $sp, 632
	beq	$a0, $a1, .LBB14_72
# %bb.71:                               # %if.then.i.i2.i.i41
	ld.d	$a1, $sp, 632
	addi.d	$a1, $a1, 1
	pcaddu18i	$ra, %call36(_ZdlPvm)
	jirl	$ra, $ra, 0
.LBB14_72:                              # %_ZN9benchmark8internal15BenchmarkRunner16IterationResultsD2Ev.exit49
	fld.d	$fs0, $sp, 752                  # 8-byte Folded Reload
	ld.d	$s8, $sp, 760                   # 8-byte Folded Reload
	ld.d	$s7, $sp, 768                   # 8-byte Folded Reload
	ld.d	$s6, $sp, 776                   # 8-byte Folded Reload
	ld.d	$s5, $sp, 784                   # 8-byte Folded Reload
	ld.d	$s4, $sp, 792                   # 8-byte Folded Reload
	ld.d	$s3, $sp, 800                   # 8-byte Folded Reload
	ld.d	$s2, $sp, 808                   # 8-byte Folded Reload
	ld.d	$s1, $sp, 816                   # 8-byte Folded Reload
	ld.d	$s0, $sp, 824                   # 8-byte Folded Reload
	ld.d	$fp, $sp, 832                   # 8-byte Folded Reload
	ld.d	$ra, $sp, 840                   # 8-byte Folded Reload
	addi.d	$sp, $sp, 848
	ret
.LBB14_73:                              # %terminate.lpad.i.i.i.i.split.us
.Ltmp136:                               # EH_LABEL
	pcaddu18i	$ra, %call36(__clang_call_terminate)
	jirl	$ra, $ra, 0
.LBB14_74:                              # %lpad2.split.us
.Ltmp133:                               # EH_LABEL
	b	.LBB14_85
.LBB14_75:                              # %terminate.lpad.i.i.i.i32
.Ltmp201:                               # EH_LABEL
	pcaddu18i	$ra, %call36(__clang_call_terminate)
	jirl	$ra, $ra, 0
.LBB14_76:                              # %terminate.lpad.i.i.i
.Ltmp198:                               # EH_LABEL
	pcaddu18i	$ra, %call36(__clang_call_terminate)
	jirl	$ra, $ra, 0
.LBB14_77:                              # %lpad35
.Ltmp161:                               # EH_LABEL
	b	.LBB14_85
.LBB14_78:                              # %lpad42
.Ltmp195:                               # EH_LABEL
	b	.LBB14_87
.LBB14_79:                              # %lpad24
.Ltmp158:                               # EH_LABEL
	b	.LBB14_85
.LBB14_80:                              # %lpad.split.us
.Ltmp139:                               # EH_LABEL
	b	.LBB14_85
.LBB14_81:                              # %lpad8
.Ltmp153:                               # EH_LABEL
	b	.LBB14_85
.LBB14_82:                              # %terminate.lpad.i.i.i.i.split
.Ltmp147:                               # EH_LABEL
	pcaddu18i	$ra, %call36(__clang_call_terminate)
	jirl	$ra, $ra, 0
.LBB14_83:                              # %lpad2.split
.Ltmp144:                               # EH_LABEL
	b	.LBB14_85
.LBB14_84:                              # %lpad.split
.Ltmp150:                               # EH_LABEL
.LBB14_85:                              # %ehcleanup51
	move	$fp, $a0
	addi.d	$a0, $sp, 576
	pcaddu18i	$ra, %call36(_ZN9benchmark8internal15BenchmarkRunner16IterationResultsD2Ev)
	jirl	$ra, $ra, 0
	move	$a0, $fp
	pcaddu18i	$ra, %call36(_Unwind_Resume)
	jirl	$ra, $ra, 0
.LBB14_86:                              # %lpad.i
.Ltmp186:                               # EH_LABEL
.LBB14_87:                              # %ehcleanup
	move	$fp, $a0
	addi.d	$a0, $sp, 16
	pcaddu18i	$ra, %call36(_ZN9benchmark17BenchmarkReporter3RunD2Ev)
	jirl	$ra, $ra, 0
	addi.d	$a0, $sp, 576
	pcaddu18i	$ra, %call36(_ZN9benchmark8internal15BenchmarkRunner16IterationResultsD2Ev)
	jirl	$ra, $ra, 0
	move	$a0, $fp
	pcaddu18i	$ra, %call36(_Unwind_Resume)
	jirl	$ra, $ra, 0
.Lfunc_end14:
	.size	_ZN9benchmark8internal15BenchmarkRunner15DoOneRepetitionEv, .Lfunc_end14-_ZN9benchmark8internal15BenchmarkRunner15DoOneRepetitionEv
	.cfi_endproc
	.section	.gcc_except_table,"a",@progbits
	.p2align	2, 0x0
GCC_except_table14:
.Lexception8:
	.byte	255                             # @LPStart Encoding = omit
	.byte	155                             # @TType Encoding = indirect pcrel sdata4
	.uleb128 .Lttbase3-.Lttbaseref3
.Lttbaseref3:
	.byte	1                               # Call site Encoding = uleb128
	.uleb128 .Lcst_end8-.Lcst_begin8
.Lcst_begin8:
	.uleb128 .Lfunc_begin8-.Lfunc_begin8    # >> Call Site 1 <<
	.uleb128 .Ltmp129-.Lfunc_begin8         #   Call between .Lfunc_begin8 and .Ltmp129
	.byte	0                               #     has no landing pad
	.byte	0                               #   On action: cleanup
	.uleb128 .Ltmp129-.Lfunc_begin8         # >> Call Site 2 <<
	.uleb128 .Ltmp130-.Ltmp129              #   Call between .Ltmp129 and .Ltmp130
	.uleb128 .Ltmp139-.Lfunc_begin8         #     jumps to .Ltmp139
	.byte	0                               #   On action: cleanup
	.uleb128 .Ltmp131-.Lfunc_begin8         # >> Call Site 3 <<
	.uleb128 .Ltmp132-.Ltmp131              #   Call between .Ltmp131 and .Ltmp132
	.uleb128 .Ltmp133-.Lfunc_begin8         #     jumps to .Ltmp133
	.byte	0                               #   On action: cleanup
	.uleb128 .Ltmp132-.Lfunc_begin8         # >> Call Site 4 <<
	.uleb128 .Ltmp134-.Ltmp132              #   Call between .Ltmp132 and .Ltmp134
	.byte	0                               #     has no landing pad
	.byte	0                               #   On action: cleanup
	.uleb128 .Ltmp134-.Lfunc_begin8         # >> Call Site 5 <<
	.uleb128 .Ltmp135-.Ltmp134              #   Call between .Ltmp134 and .Ltmp135
	.uleb128 .Ltmp136-.Lfunc_begin8         #     jumps to .Ltmp136
	.byte	1                               #   On action: 1
	.uleb128 .Ltmp135-.Lfunc_begin8         # >> Call Site 6 <<
	.uleb128 .Ltmp137-.Ltmp135              #   Call between .Ltmp135 and .Ltmp137
	.byte	0                               #     has no landing pad
	.byte	0                               #   On action: cleanup
	.uleb128 .Ltmp137-.Lfunc_begin8         # >> Call Site 7 <<
	.uleb128 .Ltmp138-.Ltmp137              #   Call between .Ltmp137 and .Ltmp138
	.uleb128 .Ltmp139-.Lfunc_begin8         #     jumps to .Ltmp139
	.byte	0                               #   On action: cleanup
	.uleb128 .Ltmp154-.Lfunc_begin8         # >> Call Site 8 <<
	.uleb128 .Ltmp155-.Ltmp154              #   Call between .Ltmp154 and .Ltmp155
	.uleb128 .Ltmp158-.Lfunc_begin8         #     jumps to .Ltmp158
	.byte	0                               #   On action: cleanup
	.uleb128 .Ltmp140-.Lfunc_begin8         # >> Call Site 9 <<
	.uleb128 .Ltmp141-.Ltmp140              #   Call between .Ltmp140 and .Ltmp141
	.uleb128 .Ltmp150-.Lfunc_begin8         #     jumps to .Ltmp150
	.byte	0                               #   On action: cleanup
	.uleb128 .Ltmp142-.Lfunc_begin8         # >> Call Site 10 <<
	.uleb128 .Ltmp143-.Ltmp142              #   Call between .Ltmp142 and .Ltmp143
	.uleb128 .Ltmp144-.Lfunc_begin8         #     jumps to .Ltmp144
	.byte	0                               #   On action: cleanup
	.uleb128 .Ltmp143-.Lfunc_begin8         # >> Call Site 11 <<
	.uleb128 .Ltmp145-.Ltmp143              #   Call between .Ltmp143 and .Ltmp145
	.byte	0                               #     has no landing pad
	.byte	0                               #   On action: cleanup
	.uleb128 .Ltmp145-.Lfunc_begin8         # >> Call Site 12 <<
	.uleb128 .Ltmp146-.Ltmp145              #   Call between .Ltmp145 and .Ltmp146
	.uleb128 .Ltmp147-.Lfunc_begin8         #     jumps to .Ltmp147
	.byte	1                               #   On action: 1
	.uleb128 .Ltmp146-.Lfunc_begin8         # >> Call Site 13 <<
	.uleb128 .Ltmp148-.Ltmp146              #   Call between .Ltmp146 and .Ltmp148
	.byte	0                               #     has no landing pad
	.byte	0                               #   On action: cleanup
	.uleb128 .Ltmp148-.Lfunc_begin8         # >> Call Site 14 <<
	.uleb128 .Ltmp149-.Ltmp148              #   Call between .Ltmp148 and .Ltmp149
	.uleb128 .Ltmp150-.Lfunc_begin8         #     jumps to .Ltmp150
	.byte	0                               #   On action: cleanup
	.uleb128 .Ltmp151-.Lfunc_begin8         # >> Call Site 15 <<
	.uleb128 .Ltmp152-.Ltmp151              #   Call between .Ltmp151 and .Ltmp152
	.uleb128 .Ltmp153-.Lfunc_begin8         #     jumps to .Ltmp153
	.byte	0                               #   On action: cleanup
	.uleb128 .Ltmp156-.Lfunc_begin8         # >> Call Site 16 <<
	.uleb128 .Ltmp157-.Ltmp156              #   Call between .Ltmp156 and .Ltmp157
	.uleb128 .Ltmp158-.Lfunc_begin8         #     jumps to .Ltmp158
	.byte	0                               #   On action: cleanup
	.uleb128 .Ltmp159-.Lfunc_begin8         # >> Call Site 17 <<
	.uleb128 .Ltmp160-.Ltmp159              #   Call between .Ltmp159 and .Ltmp160
	.uleb128 .Ltmp161-.Lfunc_begin8         #     jumps to .Ltmp161
	.byte	0                               #   On action: cleanup
	.uleb128 .Ltmp162-.Lfunc_begin8         # >> Call Site 18 <<
	.uleb128 .Ltmp185-.Ltmp162              #   Call between .Ltmp162 and .Ltmp185
	.uleb128 .Ltmp186-.Lfunc_begin8         #     jumps to .Ltmp186
	.byte	0                               #   On action: cleanup
	.uleb128 .Ltmp187-.Lfunc_begin8         # >> Call Site 19 <<
	.uleb128 .Ltmp194-.Ltmp187              #   Call between .Ltmp187 and .Ltmp194
	.uleb128 .Ltmp195-.Lfunc_begin8         #     jumps to .Ltmp195
	.byte	0                               #   On action: cleanup
	.uleb128 .Ltmp196-.Lfunc_begin8         # >> Call Site 20 <<
	.uleb128 .Ltmp197-.Ltmp196              #   Call between .Ltmp196 and .Ltmp197
	.uleb128 .Ltmp198-.Lfunc_begin8         #     jumps to .Ltmp198
	.byte	1                               #   On action: 1
	.uleb128 .Ltmp197-.Lfunc_begin8         # >> Call Site 21 <<
	.uleb128 .Ltmp199-.Ltmp197              #   Call between .Ltmp197 and .Ltmp199
	.byte	0                               #     has no landing pad
	.byte	0                               #   On action: cleanup
	.uleb128 .Ltmp199-.Lfunc_begin8         # >> Call Site 22 <<
	.uleb128 .Ltmp200-.Ltmp199              #   Call between .Ltmp199 and .Ltmp200
	.uleb128 .Ltmp201-.Lfunc_begin8         #     jumps to .Ltmp201
	.byte	1                               #   On action: 1
	.uleb128 .Ltmp200-.Lfunc_begin8         # >> Call Site 23 <<
	.uleb128 .Lfunc_end14-.Ltmp200          #   Call between .Ltmp200 and .Lfunc_end14
	.byte	0                               #     has no landing pad
	.byte	0                               #   On action: cleanup
.Lcst_end8:
	.byte	1                               # >> Action Record 1 <<
                                        #   Catch TypeInfo 1
	.byte	0                               #   No further actions
	.p2align	2, 0x0
                                        # >> Catch TypeInfos <<
	.word	0                               # TypeInfo 1
.Lttbase3:
	.p2align	2, 0x0
                                        # -- End function
	.section	.text._ZN9benchmark17BenchmarkReporter3RunD2Ev,"axG",@progbits,_ZN9benchmark17BenchmarkReporter3RunD2Ev,comdat
	.hidden	_ZN9benchmark17BenchmarkReporter3RunD2Ev # -- Begin function _ZN9benchmark17BenchmarkReporter3RunD2Ev
	.weak	_ZN9benchmark17BenchmarkReporter3RunD2Ev
	.p2align	5
	.type	_ZN9benchmark17BenchmarkReporter3RunD2Ev,@function
_ZN9benchmark17BenchmarkReporter3RunD2Ev: # @_ZN9benchmark17BenchmarkReporter3RunD2Ev
.Lfunc_begin9:
	.cfi_startproc
	.cfi_personality 155, DW.ref.__gxx_personality_v0
	.cfi_lsda 27, .Lexception9
# %bb.0:                                # %entry
	addi.d	$sp, $sp, -16
	.cfi_def_cfa_offset 16
	st.d	$ra, $sp, 8                     # 8-byte Folded Spill
	st.d	$fp, $sp, 0                     # 8-byte Folded Spill
	.cfi_offset 1, -8
	.cfi_offset 22, -16
	move	$fp, $a0
	ld.d	$a1, $a0, 512
	addi.d	$a0, $a0, 496
.Ltmp202:                               # EH_LABEL
	pcaddu18i	$ra, %call36(_ZNSt8_Rb_treeINSt7__cxx1112basic_stringIcSt11char_traitsIcESaIcEEESt4pairIKS5_N9benchmark7CounterEESt10_Select1stISA_ESt4lessIS5_ESaISA_EE8_M_eraseEPSt13_Rb_tree_nodeISA_E)
	jirl	$ra, $ra, 0
.Ltmp203:                               # EH_LABEL
# %bb.1:                                # %_ZNSt3mapINSt7__cxx1112basic_stringIcSt11char_traitsIcESaIcEEEN9benchmark7CounterESt4lessIS5_ESaISt4pairIKS5_S7_EEED2Ev.exit
	ld.d	$a0, $fp, 360
	addi.d	$a1, $fp, 376
	beq	$a0, $a1, .LBB15_3
# %bb.2:                                # %if.then.i.i
	ld.d	$a1, $a1, 0
	addi.d	$a1, $a1, 1
	pcaddu18i	$ra, %call36(_ZdlPvm)
	jirl	$ra, $ra, 0
.LBB15_3:                               # %_ZNSt7__cxx1112basic_stringIcSt11char_traitsIcESaIcEED2Ev.exit
	ld.d	$a0, $fp, 320
	addi.d	$a1, $fp, 336
	beq	$a0, $a1, .LBB15_5
# %bb.4:                                # %if.then.i.i2
	ld.d	$a1, $a1, 0
	addi.d	$a1, $a1, 1
	pcaddu18i	$ra, %call36(_ZdlPvm)
	jirl	$ra, $ra, 0
.LBB15_5:                               # %_ZNSt7__cxx1112basic_stringIcSt11char_traitsIcESaIcEED2Ev.exit7
	ld.d	$a0, $fp, 280
	addi.d	$a1, $fp, 296
	beq	$a0, $a1, .LBB15_7
# %bb.6:                                # %if.then.i.i9
	ld.d	$a1, $a1, 0
	addi.d	$a1, $a1, 1
	pcaddu18i	$ra, %call36(_ZdlPvm)
	jirl	$ra, $ra, 0
.LBB15_7:                               # %_ZNSt7__cxx1112basic_stringIcSt11char_traitsIcESaIcEED2Ev.exit14
	move	$a0, $fp
	ld.d	$fp, $sp, 0                     # 8-byte Folded Reload
	ld.d	$ra, $sp, 8                     # 8-byte Folded Reload
	addi.d	$sp, $sp, 16
	pcaddu18i	$t8, %call36(_ZN9benchmark13BenchmarkNameD2Ev)
	jr	$t8
.LBB15_8:                               # %terminate.lpad.i.i
.Ltmp204:                               # EH_LABEL
	pcaddu18i	$ra, %call36(__clang_call_terminate)
	jirl	$ra, $ra, 0
.Lfunc_end15:
	.size	_ZN9benchmark17BenchmarkReporter3RunD2Ev, .Lfunc_end15-_ZN9benchmark17BenchmarkReporter3RunD2Ev
	.cfi_endproc
	.section	.gcc_except_table._ZN9benchmark17BenchmarkReporter3RunD2Ev,"aG",@progbits,_ZN9benchmark17BenchmarkReporter3RunD2Ev,comdat
	.p2align	2, 0x0
GCC_except_table15:
.Lexception9:
	.byte	255                             # @LPStart Encoding = omit
	.byte	155                             # @TType Encoding = indirect pcrel sdata4
	.uleb128 .Lttbase4-.Lttbaseref4
.Lttbaseref4:
	.byte	1                               # Call site Encoding = uleb128
	.uleb128 .Lcst_end9-.Lcst_begin9
.Lcst_begin9:
	.uleb128 .Ltmp202-.Lfunc_begin9         # >> Call Site 1 <<
	.uleb128 .Ltmp203-.Ltmp202              #   Call between .Ltmp202 and .Ltmp203
	.uleb128 .Ltmp204-.Lfunc_begin9         #     jumps to .Ltmp204
	.byte	1                               #   On action: 1
	.uleb128 .Ltmp203-.Lfunc_begin9         # >> Call Site 2 <<
	.uleb128 .Lfunc_end15-.Ltmp203          #   Call between .Ltmp203 and .Lfunc_end15
	.byte	0                               #     has no landing pad
	.byte	0                               #   On action: cleanup
.Lcst_end9:
	.byte	1                               # >> Action Record 1 <<
                                        #   Catch TypeInfo 1
	.byte	0                               #   No further actions
	.p2align	2, 0x0
                                        # >> Catch TypeInfos <<
	.word	0                               # TypeInfo 1
.Lttbase4:
	.p2align	2, 0x0
                                        # -- End function
	.text
	.hidden	_ZN9benchmark8internal15BenchmarkRunner10GetResultsEv # -- Begin function _ZN9benchmark8internal15BenchmarkRunner10GetResultsEv
	.globl	_ZN9benchmark8internal15BenchmarkRunner10GetResultsEv
	.p2align	5
	.type	_ZN9benchmark8internal15BenchmarkRunner10GetResultsEv,@function
_ZN9benchmark8internal15BenchmarkRunner10GetResultsEv: # @_ZN9benchmark8internal15BenchmarkRunner10GetResultsEv
	.cfi_startproc
# %bb.0:                                # %entry
	addi.d	$sp, $sp, -96
	.cfi_def_cfa_offset 96
	st.d	$ra, $sp, 88                    # 8-byte Folded Spill
	st.d	$fp, $sp, 80                    # 8-byte Folded Spill
	.cfi_offset 1, -8
	.cfi_offset 22, -16
	move	$fp, $a0
	addi.d	$a0, $sp, 16
	move	$a1, $fp
	pcaddu18i	$ra, %call36(_ZN9benchmark12ComputeStatsERKSt6vectorINS_17BenchmarkReporter3RunESaIS2_EE)
	jirl	$ra, $ra, 0
	ld.d	$a0, $sp, 32
	vld	$vr0, $sp, 16
	vld	$vr1, $fp, 24
	ld.d	$a1, $fp, 40
	st.d	$a0, $fp, 40
	vst	$vr0, $fp, 24
	vst	$vr1, $sp, 48
	st.d	$a1, $sp, 64
	vrepli.b	$vr0, 0
	vst	$vr0, $sp, 16
	st.d	$zero, $sp, 32
	addi.d	$a0, $sp, 48
	pcaddu18i	$ra, %call36(_ZNSt6vectorIN9benchmark17BenchmarkReporter3RunESaIS2_EED2Ev)
	jirl	$ra, $ra, 0
	addi.d	$a0, $sp, 16
	pcaddu18i	$ra, %call36(_ZNSt6vectorIN9benchmark17BenchmarkReporter3RunESaIS2_EED2Ev)
	jirl	$ra, $ra, 0
	move	$a0, $fp
	ld.d	$fp, $sp, 80                    # 8-byte Folded Reload
	ld.d	$ra, $sp, 88                    # 8-byte Folded Reload
	addi.d	$sp, $sp, 96
	ret
.Lfunc_end16:
	.size	_ZN9benchmark8internal15BenchmarkRunner10GetResultsEv, .Lfunc_end16-_ZN9benchmark8internal15BenchmarkRunner10GetResultsEv
	.cfi_endproc
                                        # -- End function
	.section	.text._ZNSt6vectorIN9benchmark17BenchmarkReporter3RunESaIS2_EED2Ev,"axG",@progbits,_ZNSt6vectorIN9benchmark17BenchmarkReporter3RunESaIS2_EED2Ev,comdat
	.hidden	_ZNSt6vectorIN9benchmark17BenchmarkReporter3RunESaIS2_EED2Ev # -- Begin function _ZNSt6vectorIN9benchmark17BenchmarkReporter3RunESaIS2_EED2Ev
	.weak	_ZNSt6vectorIN9benchmark17BenchmarkReporter3RunESaIS2_EED2Ev
	.p2align	5
	.type	_ZNSt6vectorIN9benchmark17BenchmarkReporter3RunESaIS2_EED2Ev,@function
_ZNSt6vectorIN9benchmark17BenchmarkReporter3RunESaIS2_EED2Ev: # @_ZNSt6vectorIN9benchmark17BenchmarkReporter3RunESaIS2_EED2Ev
.Lfunc_begin10:
	.cfi_startproc
	.cfi_personality 155, DW.ref.__gxx_personality_v0
	.cfi_lsda 27, .Lexception10
# %bb.0:                                # %entry
	addi.d	$sp, $sp, -32
	.cfi_def_cfa_offset 32
	st.d	$ra, $sp, 24                    # 8-byte Folded Spill
	st.d	$fp, $sp, 16                    # 8-byte Folded Spill
	st.d	$s0, $sp, 8                     # 8-byte Folded Spill
	st.d	$s1, $sp, 0                     # 8-byte Folded Spill
	.cfi_offset 1, -8
	.cfi_offset 22, -16
	.cfi_offset 23, -24
	.cfi_offset 24, -32
	move	$fp, $a0
	ld.d	$s0, $a0, 0
	ld.d	$s1, $a0, 8
	bne	$s0, $s1, .LBB17_4
# %bb.1:                                # %invoke.cont
	beqz	$s0, .LBB17_12
.LBB17_2:                               # %if.then.i.i
	ld.d	$a0, $fp, 16
	sub.d	$a1, $a0, $s0
	move	$a0, $s0
	ld.d	$s1, $sp, 0                     # 8-byte Folded Reload
	ld.d	$s0, $sp, 8                     # 8-byte Folded Reload
	ld.d	$fp, $sp, 16                    # 8-byte Folded Reload
	ld.d	$ra, $sp, 24                    # 8-byte Folded Reload
	addi.d	$sp, $sp, 32
	pcaddu18i	$t8, %call36(_ZdlPvm)
	jr	$t8
	.p2align	4, , 16
.LBB17_3:                               # %_ZSt8_DestroyIN9benchmark17BenchmarkReporter3RunEEvPT_.exit.i
                                        #   in Loop: Header=BB17_4 Depth=1
	move	$a0, $s0
	pcaddu18i	$ra, %call36(_ZN9benchmark13BenchmarkNameD2Ev)
	jirl	$ra, $ra, 0
	addi.d	$s0, $s0, 560
	beq	$s0, $s1, .LBB17_11
.LBB17_4:                               # %for.body.i
                                        # =>This Inner Loop Header: Depth=1
	ld.d	$a1, $s0, 512
	addi.d	$a0, $s0, 496
.Ltmp205:                               # EH_LABEL
	pcaddu18i	$ra, %call36(_ZNSt8_Rb_treeINSt7__cxx1112basic_stringIcSt11char_traitsIcESaIcEEESt4pairIKS5_N9benchmark7CounterEESt10_Select1stISA_ESt4lessIS5_ESaISA_EE8_M_eraseEPSt13_Rb_tree_nodeISA_E)
	jirl	$ra, $ra, 0
.Ltmp206:                               # EH_LABEL
# %bb.5:                                # %_ZNSt3mapINSt7__cxx1112basic_stringIcSt11char_traitsIcESaIcEEEN9benchmark7CounterESt4lessIS5_ESaISt4pairIKS5_S7_EEED2Ev.exit.i.i.i
                                        #   in Loop: Header=BB17_4 Depth=1
	ld.d	$a0, $s0, 360
	addi.d	$a1, $s0, 376
	beq	$a1, $a0, .LBB17_7
# %bb.6:                                # %if.then.i.i.i.i.i
                                        #   in Loop: Header=BB17_4 Depth=1
	ld.d	$a1, $a1, 0
	addi.d	$a1, $a1, 1
	pcaddu18i	$ra, %call36(_ZdlPvm)
	jirl	$ra, $ra, 0
.LBB17_7:                               # %_ZNSt7__cxx1112basic_stringIcSt11char_traitsIcESaIcEED2Ev.exit.i.i.i
                                        #   in Loop: Header=BB17_4 Depth=1
	ld.d	$a0, $s0, 320
	addi.d	$a1, $s0, 336
	beq	$a1, $a0, .LBB17_9
# %bb.8:                                # %if.then.i.i2.i.i.i
                                        #   in Loop: Header=BB17_4 Depth=1
	ld.d	$a1, $a1, 0
	addi.d	$a1, $a1, 1
	pcaddu18i	$ra, %call36(_ZdlPvm)
	jirl	$ra, $ra, 0
.LBB17_9:                               # %_ZNSt7__cxx1112basic_stringIcSt11char_traitsIcESaIcEED2Ev.exit7.i.i.i
                                        #   in Loop: Header=BB17_4 Depth=1
	ld.d	$a0, $s0, 280
	addi.d	$a1, $s0, 296
	beq	$a1, $a0, .LBB17_3
# %bb.10:                               # %if.then.i.i9.i.i.i
                                        #   in Loop: Header=BB17_4 Depth=1
	ld.d	$a1, $a1, 0
	addi.d	$a1, $a1, 1
	pcaddu18i	$ra, %call36(_ZdlPvm)
	jirl	$ra, $ra, 0
	b	.LBB17_3
.LBB17_11:                              # %invoke.contthread-pre-split
	ld.d	$s0, $fp, 0
	bnez	$s0, .LBB17_2
.LBB17_12:                              # %_ZNSt12_Vector_baseIN9benchmark17BenchmarkReporter3RunESaIS2_EED2Ev.exit
	ld.d	$s1, $sp, 0                     # 8-byte Folded Reload
	ld.d	$s0, $sp, 8                     # 8-byte Folded Reload
	ld.d	$fp, $sp, 16                    # 8-byte Folded Reload
	ld.d	$ra, $sp, 24                    # 8-byte Folded Reload
	addi.d	$sp, $sp, 32
	ret
.LBB17_13:                              # %terminate.lpad.i.i.i.i.i
.Ltmp207:                               # EH_LABEL
	pcaddu18i	$ra, %call36(__clang_call_terminate)
	jirl	$ra, $ra, 0
.Lfunc_end17:
	.size	_ZNSt6vectorIN9benchmark17BenchmarkReporter3RunESaIS2_EED2Ev, .Lfunc_end17-_ZNSt6vectorIN9benchmark17BenchmarkReporter3RunESaIS2_EED2Ev
	.cfi_endproc
	.section	.gcc_except_table._ZNSt6vectorIN9benchmark17BenchmarkReporter3RunESaIS2_EED2Ev,"aG",@progbits,_ZNSt6vectorIN9benchmark17BenchmarkReporter3RunESaIS2_EED2Ev,comdat
	.p2align	2, 0x0
GCC_except_table17:
.Lexception10:
	.byte	255                             # @LPStart Encoding = omit
	.byte	155                             # @TType Encoding = indirect pcrel sdata4
	.uleb128 .Lttbase5-.Lttbaseref5
.Lttbaseref5:
	.byte	1                               # Call site Encoding = uleb128
	.uleb128 .Lcst_end10-.Lcst_begin10
.Lcst_begin10:
	.uleb128 .Lfunc_begin10-.Lfunc_begin10  # >> Call Site 1 <<
	.uleb128 .Ltmp205-.Lfunc_begin10        #   Call between .Lfunc_begin10 and .Ltmp205
	.byte	0                               #     has no landing pad
	.byte	0                               #   On action: cleanup
	.uleb128 .Ltmp205-.Lfunc_begin10        # >> Call Site 2 <<
	.uleb128 .Ltmp206-.Ltmp205              #   Call between .Ltmp205 and .Ltmp206
	.uleb128 .Ltmp207-.Lfunc_begin10        #     jumps to .Ltmp207
	.byte	1                               #   On action: 1
	.uleb128 .Ltmp206-.Lfunc_begin10        # >> Call Site 3 <<
	.uleb128 .Lfunc_end17-.Ltmp206          #   Call between .Ltmp206 and .Lfunc_end17
	.byte	0                               #     has no landing pad
	.byte	0                               #   On action: cleanup
.Lcst_end10:
	.byte	1                               # >> Action Record 1 <<
                                        #   Catch TypeInfo 1
	.byte	0                               #   No further actions
	.p2align	2, 0x0
                                        # >> Catch TypeInfos <<
	.word	0                               # TypeInfo 1
.Lttbase5:
	.p2align	2, 0x0
                                        # -- End function
	.section	.text.__clang_call_terminate,"axG",@progbits,__clang_call_terminate,comdat
	.hidden	__clang_call_terminate          # -- Begin function __clang_call_terminate
	.weak	__clang_call_terminate
	.p2align	5
	.type	__clang_call_terminate,@function
__clang_call_terminate:                 # @__clang_call_terminate
# %bb.0:
	addi.d	$sp, $sp, -16
	st.d	$ra, $sp, 8                     # 8-byte Folded Spill
	pcaddu18i	$ra, %call36(__cxa_begin_catch)
	jirl	$ra, $ra, 0
	pcaddu18i	$ra, %call36(_ZSt9terminatev)
	jirl	$ra, $ra, 0
.Lfunc_end18:
	.size	__clang_call_terminate, .Lfunc_end18-__clang_call_terminate
                                        # -- End function
	.section	.text._ZNSt8_Rb_treeINSt7__cxx1112basic_stringIcSt11char_traitsIcESaIcEEESt4pairIKS5_N9benchmark7CounterEESt10_Select1stISA_ESt4lessIS5_ESaISA_EE8_M_eraseEPSt13_Rb_tree_nodeISA_E,"axG",@progbits,_ZNSt8_Rb_treeINSt7__cxx1112basic_stringIcSt11char_traitsIcESaIcEEESt4pairIKS5_N9benchmark7CounterEESt10_Select1stISA_ESt4lessIS5_ESaISA_EE8_M_eraseEPSt13_Rb_tree_nodeISA_E,comdat
	.hidden	_ZNSt8_Rb_treeINSt7__cxx1112basic_stringIcSt11char_traitsIcESaIcEEESt4pairIKS5_N9benchmark7CounterEESt10_Select1stISA_ESt4lessIS5_ESaISA_EE8_M_eraseEPSt13_Rb_tree_nodeISA_E # -- Begin function _ZNSt8_Rb_treeINSt7__cxx1112basic_stringIcSt11char_traitsIcESaIcEEESt4pairIKS5_N9benchmark7CounterEESt10_Select1stISA_ESt4lessIS5_ESaISA_EE8_M_eraseEPSt13_Rb_tree_nodeISA_E
	.weak	_ZNSt8_Rb_treeINSt7__cxx1112basic_stringIcSt11char_traitsIcESaIcEEESt4pairIKS5_N9benchmark7CounterEESt10_Select1stISA_ESt4lessIS5_ESaISA_EE8_M_eraseEPSt13_Rb_tree_nodeISA_E
	.p2align	5
	.type	_ZNSt8_Rb_treeINSt7__cxx1112basic_stringIcSt11char_traitsIcESaIcEEESt4pairIKS5_N9benchmark7CounterEESt10_Select1stISA_ESt4lessIS5_ESaISA_EE8_M_eraseEPSt13_Rb_tree_nodeISA_E,@function
_ZNSt8_Rb_treeINSt7__cxx1112basic_stringIcSt11char_traitsIcESaIcEEESt4pairIKS5_N9benchmark7CounterEESt10_Select1stISA_ESt4lessIS5_ESaISA_EE8_M_eraseEPSt13_Rb_tree_nodeISA_E: # @_ZNSt8_Rb_treeINSt7__cxx1112basic_stringIcSt11char_traitsIcESaIcEEESt4pairIKS5_N9benchmark7CounterEESt10_Select1stISA_ESt4lessIS5_ESaISA_EE8_M_eraseEPSt13_Rb_tree_nodeISA_E
	.cfi_startproc
# %bb.0:                                # %entry
	beqz	$a1, .LBB19_6
# %bb.1:                                # %while.body.preheader
	addi.d	$sp, $sp, -32
	.cfi_def_cfa_offset 32
	st.d	$ra, $sp, 24                    # 8-byte Folded Spill
	st.d	$fp, $sp, 16                    # 8-byte Folded Spill
	st.d	$s0, $sp, 8                     # 8-byte Folded Spill
	st.d	$s1, $sp, 0                     # 8-byte Folded Spill
	.cfi_offset 1, -8
	.cfi_offset 22, -16
	.cfi_offset 23, -24
	.cfi_offset 24, -32
	move	$s0, $a1
	move	$fp, $a0
	b	.LBB19_3
	.p2align	4, , 16
.LBB19_2:                               # %_ZNSt8_Rb_treeINSt7__cxx1112basic_stringIcSt11char_traitsIcESaIcEEESt4pairIKS5_N9benchmark7CounterEESt10_Select1stISA_ESt4lessIS5_ESaISA_EE12_M_drop_nodeEPSt13_Rb_tree_nodeISA_E.exit
                                        #   in Loop: Header=BB19_3 Depth=1
	ori	$a1, $zero, 80
	move	$a0, $s0
	pcaddu18i	$ra, %call36(_ZdlPvm)
	jirl	$ra, $ra, 0
	move	$s0, $s1
	beqz	$s1, .LBB19_5
.LBB19_3:                               # %while.body
                                        # =>This Inner Loop Header: Depth=1
	ld.d	$a1, $s0, 24
	move	$a0, $fp
	pcaddu18i	$ra, %call36(_ZNSt8_Rb_treeINSt7__cxx1112basic_stringIcSt11char_traitsIcESaIcEEESt4pairIKS5_N9benchmark7CounterEESt10_Select1stISA_ESt4lessIS5_ESaISA_EE8_M_eraseEPSt13_Rb_tree_nodeISA_E)
	jirl	$ra, $ra, 0
	ld.d	$a0, $s0, 32
	ld.d	$s1, $s0, 16
	addi.d	$a1, $s0, 48
	beq	$a0, $a1, .LBB19_2
# %bb.4:                                # %if.then.i.i.i.i.i
                                        #   in Loop: Header=BB19_3 Depth=1
	ld.d	$a1, $a1, 0
	addi.d	$a1, $a1, 1
	pcaddu18i	$ra, %call36(_ZdlPvm)
	jirl	$ra, $ra, 0
	b	.LBB19_2
.LBB19_5:
	ld.d	$s1, $sp, 0                     # 8-byte Folded Reload
	ld.d	$s0, $sp, 8                     # 8-byte Folded Reload
	ld.d	$fp, $sp, 16                    # 8-byte Folded Reload
	ld.d	$ra, $sp, 24                    # 8-byte Folded Reload
	addi.d	$sp, $sp, 32
.LBB19_6:                               # %while.end
	ret
.Lfunc_end19:
	.size	_ZNSt8_Rb_treeINSt7__cxx1112basic_stringIcSt11char_traitsIcESaIcEEESt4pairIKS5_N9benchmark7CounterEESt10_Select1stISA_ESt4lessIS5_ESaISA_EE8_M_eraseEPSt13_Rb_tree_nodeISA_E, .Lfunc_end19-_ZNSt8_Rb_treeINSt7__cxx1112basic_stringIcSt11char_traitsIcESaIcEEESt4pairIKS5_N9benchmark7CounterEESt10_Select1stISA_ESt4lessIS5_ESaISA_EE8_M_eraseEPSt13_Rb_tree_nodeISA_E
	.cfi_endproc
                                        # -- End function
	.section	.text._ZN9benchmark8internal13ThreadManager20NotifyThreadCompleteEv,"axG",@progbits,_ZN9benchmark8internal13ThreadManager20NotifyThreadCompleteEv,comdat
	.hidden	_ZN9benchmark8internal13ThreadManager20NotifyThreadCompleteEv # -- Begin function _ZN9benchmark8internal13ThreadManager20NotifyThreadCompleteEv
	.weak	_ZN9benchmark8internal13ThreadManager20NotifyThreadCompleteEv
	.p2align	5
	.type	_ZN9benchmark8internal13ThreadManager20NotifyThreadCompleteEv,@function
_ZN9benchmark8internal13ThreadManager20NotifyThreadCompleteEv: # @_ZN9benchmark8internal13ThreadManager20NotifyThreadCompleteEv
	.cfi_startproc
# %bb.0:                                # %entry
	addi.d	$sp, $sp, -32
	.cfi_def_cfa_offset 32
	st.d	$ra, $sp, 24                    # 8-byte Folded Spill
	st.d	$fp, $sp, 16                    # 8-byte Folded Spill
	st.d	$s0, $sp, 8                     # 8-byte Folded Spill
	.cfi_offset 1, -8
	.cfi_offset 22, -16
	.cfi_offset 23, -24
	move	$fp, $a0
	addi.d	$s0, $a0, 208
	move	$a0, $s0
	pcaddu18i	$ra, %call36(pthread_mutex_lock)
	jirl	$ra, $ra, 0
	bnez	$a0, .LBB20_7
# %bb.1:                                # %_ZN9benchmark9MutexLockC2ERNS_5MutexE.exit.i
	ld.w	$a0, $fp, 296
	ld.w	$a1, $fp, 304
	addi.d	$a0, $a0, -1
	st.w	$a0, $fp, 296
	beqz	$a1, .LBB20_3
# %bb.2:                                # %if.then.i
	addi.d	$a0, $fp, 248
	pcaddu18i	$ra, %call36(_ZNSt18condition_variable10notify_allEv)
	jirl	$ra, $ra, 0
.LBB20_3:                               # %_ZN9benchmark7Barrier12removeThreadEv.exit
	move	$a0, $s0
	pcaddu18i	$ra, %call36(pthread_mutex_unlock)
	jirl	$ra, $ra, 0
	addi.d	$a0, $fp, 200
	ori	$a1, $zero, 1
	sub.w	$a2, $zero, $a1
	amadd_db.w	$a3, $a2, $a0
	bne	$a3, $a1, .LBB20_6
# %bb.4:                                # %if.then
	addi.d	$s0, $fp, 312
	move	$a0, $s0
	pcaddu18i	$ra, %call36(pthread_mutex_lock)
	jirl	$ra, $ra, 0
	bnez	$a0, .LBB20_7
# %bb.5:                                # %_ZN9benchmark9MutexLockD2Ev.exit
	addi.d	$a0, $fp, 352
	pcaddu18i	$ra, %call36(_ZNSt18condition_variable10notify_allEv)
	jirl	$ra, $ra, 0
	move	$a0, $s0
	ld.d	$s0, $sp, 8                     # 8-byte Folded Reload
	ld.d	$fp, $sp, 16                    # 8-byte Folded Reload
	ld.d	$ra, $sp, 24                    # 8-byte Folded Reload
	addi.d	$sp, $sp, 32
	pcaddu18i	$t8, %call36(pthread_mutex_unlock)
	jr	$t8
.LBB20_6:                               # %if.end
	ld.d	$s0, $sp, 8                     # 8-byte Folded Reload
	ld.d	$fp, $sp, 16                    # 8-byte Folded Reload
	ld.d	$ra, $sp, 24                    # 8-byte Folded Reload
	addi.d	$sp, $sp, 32
	ret
.LBB20_7:                               # %if.then.i.i.i.i.i
	pcaddu18i	$ra, %call36(_ZSt20__throw_system_errori)
	jirl	$ra, $ra, 0
.Lfunc_end20:
	.size	_ZN9benchmark8internal13ThreadManager20NotifyThreadCompleteEv, .Lfunc_end20-_ZN9benchmark8internal13ThreadManager20NotifyThreadCompleteEv
	.cfi_endproc
                                        # -- End function
	.section	.text._ZN9benchmark5StateD2Ev,"axG",@progbits,_ZN9benchmark5StateD2Ev,comdat
	.hidden	_ZN9benchmark5StateD2Ev         # -- Begin function _ZN9benchmark5StateD2Ev
	.weak	_ZN9benchmark5StateD2Ev
	.p2align	5
	.type	_ZN9benchmark5StateD2Ev,@function
_ZN9benchmark5StateD2Ev:                # @_ZN9benchmark5StateD2Ev
.Lfunc_begin11:
	.cfi_startproc
	.cfi_personality 155, DW.ref.__gxx_personality_v0
	.cfi_lsda 27, .Lexception11
# %bb.0:                                # %entry
	addi.d	$sp, $sp, -16
	.cfi_def_cfa_offset 16
	st.d	$ra, $sp, 8                     # 8-byte Folded Spill
	st.d	$fp, $sp, 0                     # 8-byte Folded Spill
	.cfi_offset 1, -8
	.cfi_offset 22, -16
	move	$fp, $a0
	ld.d	$a0, $a0, 112
	addi.d	$a1, $fp, 128
	beq	$a0, $a1, .LBB21_2
# %bb.1:                                # %if.then.i.i
	ld.d	$a1, $a1, 0
	addi.d	$a1, $a1, 1
	pcaddu18i	$ra, %call36(_ZdlPvm)
	jirl	$ra, $ra, 0
.LBB21_2:                               # %_ZNSt7__cxx1112basic_stringIcSt11char_traitsIcESaIcEED2Ev.exit
	ld.d	$a1, $fp, 80
	addi.d	$a0, $fp, 64
.Ltmp208:                               # EH_LABEL
	pcaddu18i	$ra, %call36(_ZNSt8_Rb_treeINSt7__cxx1112basic_stringIcSt11char_traitsIcESaIcEEESt4pairIKS5_N9benchmark7CounterEESt10_Select1stISA_ESt4lessIS5_ESaISA_EE8_M_eraseEPSt13_Rb_tree_nodeISA_E)
	jirl	$ra, $ra, 0
.Ltmp209:                               # EH_LABEL
# %bb.3:                                # %_ZNSt3mapINSt7__cxx1112basic_stringIcSt11char_traitsIcESaIcEEEN9benchmark7CounterESt4lessIS5_ESaISt4pairIKS5_S7_EEED2Ev.exit
	ld.d	$a0, $fp, 32
	beqz	$a0, .LBB21_5
# %bb.4:                                # %if.then.i.i.i
	ld.d	$a1, $fp, 48
	sub.d	$a1, $a1, $a0
	ld.d	$fp, $sp, 0                     # 8-byte Folded Reload
	ld.d	$ra, $sp, 8                     # 8-byte Folded Reload
	addi.d	$sp, $sp, 16
	pcaddu18i	$t8, %call36(_ZdlPvm)
	jr	$t8
.LBB21_5:                               # %_ZNSt6vectorIlSaIlEED2Ev.exit
	ld.d	$fp, $sp, 0                     # 8-byte Folded Reload
	ld.d	$ra, $sp, 8                     # 8-byte Folded Reload
	addi.d	$sp, $sp, 16
	ret
.LBB21_6:                               # %terminate.lpad.i.i
.Ltmp210:                               # EH_LABEL
	pcaddu18i	$ra, %call36(__clang_call_terminate)
	jirl	$ra, $ra, 0
.Lfunc_end21:
	.size	_ZN9benchmark5StateD2Ev, .Lfunc_end21-_ZN9benchmark5StateD2Ev
	.cfi_endproc
	.section	.gcc_except_table._ZN9benchmark5StateD2Ev,"aG",@progbits,_ZN9benchmark5StateD2Ev,comdat
	.p2align	2, 0x0
GCC_except_table21:
.Lexception11:
	.byte	255                             # @LPStart Encoding = omit
	.byte	155                             # @TType Encoding = indirect pcrel sdata4
	.uleb128 .Lttbase6-.Lttbaseref6
.Lttbaseref6:
	.byte	1                               # Call site Encoding = uleb128
	.uleb128 .Lcst_end11-.Lcst_begin11
.Lcst_begin11:
	.uleb128 .Lfunc_begin11-.Lfunc_begin11  # >> Call Site 1 <<
	.uleb128 .Ltmp208-.Lfunc_begin11        #   Call between .Lfunc_begin11 and .Ltmp208
	.byte	0                               #     has no landing pad
	.byte	0                               #   On action: cleanup
	.uleb128 .Ltmp208-.Lfunc_begin11        # >> Call Site 2 <<
	.uleb128 .Ltmp209-.Ltmp208              #   Call between .Ltmp208 and .Ltmp209
	.uleb128 .Ltmp210-.Lfunc_begin11        #     jumps to .Ltmp210
	.byte	1                               #   On action: 1
	.uleb128 .Ltmp209-.Lfunc_begin11        # >> Call Site 3 <<
	.uleb128 .Lfunc_end21-.Ltmp209          #   Call between .Ltmp209 and .Lfunc_end21
	.byte	0                               #     has no landing pad
	.byte	0                               #   On action: cleanup
.Lcst_end11:
	.byte	1                               # >> Action Record 1 <<
                                        #   Catch TypeInfo 1
	.byte	0                               #   No further actions
	.p2align	2, 0x0
                                        # >> Catch TypeInfos <<
	.word	0                               # TypeInfo 1
.Lttbase6:
	.p2align	2, 0x0
                                        # -- End function
	.section	.text._ZNSt8_Rb_treeINSt7__cxx1112basic_stringIcSt11char_traitsIcESaIcEEESt4pairIKS5_N9benchmark7CounterEESt10_Select1stISA_ESt4lessIS5_ESaISA_EEaSERKSG_,"axG",@progbits,_ZNSt8_Rb_treeINSt7__cxx1112basic_stringIcSt11char_traitsIcESaIcEEESt4pairIKS5_N9benchmark7CounterEESt10_Select1stISA_ESt4lessIS5_ESaISA_EEaSERKSG_,comdat
	.hidden	_ZNSt8_Rb_treeINSt7__cxx1112basic_stringIcSt11char_traitsIcESaIcEEESt4pairIKS5_N9benchmark7CounterEESt10_Select1stISA_ESt4lessIS5_ESaISA_EEaSERKSG_ # -- Begin function _ZNSt8_Rb_treeINSt7__cxx1112basic_stringIcSt11char_traitsIcESaIcEEESt4pairIKS5_N9benchmark7CounterEESt10_Select1stISA_ESt4lessIS5_ESaISA_EEaSERKSG_
	.weak	_ZNSt8_Rb_treeINSt7__cxx1112basic_stringIcSt11char_traitsIcESaIcEEESt4pairIKS5_N9benchmark7CounterEESt10_Select1stISA_ESt4lessIS5_ESaISA_EEaSERKSG_
	.p2align	5
	.type	_ZNSt8_Rb_treeINSt7__cxx1112basic_stringIcSt11char_traitsIcESaIcEEESt4pairIKS5_N9benchmark7CounterEESt10_Select1stISA_ESt4lessIS5_ESaISA_EEaSERKSG_,@function
_ZNSt8_Rb_treeINSt7__cxx1112basic_stringIcSt11char_traitsIcESaIcEEESt4pairIKS5_N9benchmark7CounterEESt10_Select1stISA_ESt4lessIS5_ESaISA_EEaSERKSG_: # @_ZNSt8_Rb_treeINSt7__cxx1112basic_stringIcSt11char_traitsIcESaIcEEESt4pairIKS5_N9benchmark7CounterEESt10_Select1stISA_ESt4lessIS5_ESaISA_EEaSERKSG_
.Lfunc_begin12:
	.cfi_startproc
	.cfi_personality 155, DW.ref.__gxx_personality_v0
	.cfi_lsda 27, .Lexception12
# %bb.0:                                # %entry
	addi.d	$sp, $sp, -48
	.cfi_def_cfa_offset 48
	st.d	$ra, $sp, 40                    # 8-byte Folded Spill
	st.d	$fp, $sp, 32                    # 8-byte Folded Spill
	st.d	$s0, $sp, 24                    # 8-byte Folded Spill
	.cfi_offset 1, -8
	.cfi_offset 22, -16
	.cfi_offset 23, -24
	move	$fp, $a0
	beq	$a0, $a1, .LBB22_14
# %bb.1:                                # %if.then
	move	$s0, $a1
	ld.d	$a1, $fp, 16
	ld.d	$a0, $fp, 32
	st.d	$a1, $sp, 0
	st.d	$a0, $sp, 8
	st.d	$fp, $sp, 16
	beqz	$a1, .LBB22_3
# %bb.2:                                # %if.then.i
	ld.d	$a0, $a0, 16
	st.d	$zero, $a1, 8
	bnez	$a0, .LBB22_4
	b	.LBB22_5
.LBB22_3:
	move	$a0, $zero
.LBB22_4:                               # %if.end12.sink.split.i
	st.d	$a0, $sp, 8
.LBB22_5:                               # %_ZNSt8_Rb_treeINSt7__cxx1112basic_stringIcSt11char_traitsIcESaIcEEESt4pairIKS5_N9benchmark7CounterEESt10_Select1stISA_ESt4lessIS5_ESaISA_EE20_Reuse_or_alloc_nodeC2ERSG_.exit
	st.d	$zero, $fp, 16
	ld.d	$a4, $s0, 16
	addi.d	$a2, $fp, 8
	st.d	$a2, $fp, 24
	st.d	$a2, $fp, 32
	st.d	$zero, $fp, 40
	beqz	$a4, .LBB22_12
# %bb.6:                                # %if.then4
.Ltmp211:                               # EH_LABEL
	addi.d	$a3, $sp, 0
	move	$a0, $fp
	move	$a1, $a4
	pcaddu18i	$ra, %call36(_ZNSt8_Rb_treeINSt7__cxx1112basic_stringIcSt11char_traitsIcESaIcEEESt4pairIKS5_N9benchmark7CounterEESt10_Select1stISA_ESt4lessIS5_ESaISA_EE7_M_copyILb0ENSG_20_Reuse_or_alloc_nodeEEEPSt18_Rb_tree_node_basePSt13_Rb_tree_nodeISA_ESK_RT0_)
	jirl	$ra, $ra, 0
.Ltmp212:                               # EH_LABEL
# %bb.7:                                # %while.cond.i.i.preheader
	move	$a2, $a0
	.p2align	4, , 16
.LBB22_8:                               # %while.cond.i.i
                                        # =>This Inner Loop Header: Depth=1
	move	$a1, $a2
	ld.d	$a2, $a2, 16
	bnez	$a2, .LBB22_8
# %bb.9:                                # %_ZNSt18_Rb_tree_node_base10_S_minimumEPS_.exit.i
	st.d	$a1, $fp, 24
	move	$a1, $a0
	.p2align	4, , 16
.LBB22_10:                              # %while.cond.i5.i
                                        # =>This Inner Loop Header: Depth=1
	move	$a2, $a1
	ld.d	$a1, $a1, 24
	bnez	$a1, .LBB22_10
# %bb.11:                               # %invoke.cont
	ld.d	$a3, $s0, 40
	ld.d	$a1, $sp, 0
	st.d	$a2, $fp, 32
	st.d	$a3, $fp, 40
	st.d	$a0, $fp, 16
.LBB22_12:                              # %if.end
	beqz	$a1, .LBB22_14
# %bb.13:                               # %if.then.i13
	ld.d	$a0, $sp, 16
.Ltmp214:                               # EH_LABEL
	pcaddu18i	$ra, %call36(_ZNSt8_Rb_treeINSt7__cxx1112basic_stringIcSt11char_traitsIcESaIcEEESt4pairIKS5_N9benchmark7CounterEESt10_Select1stISA_ESt4lessIS5_ESaISA_EE8_M_eraseEPSt13_Rb_tree_nodeISA_E)
	jirl	$ra, $ra, 0
.Ltmp215:                               # EH_LABEL
.LBB22_14:                              # %if.end7
	move	$a0, $fp
	ld.d	$s0, $sp, 24                    # 8-byte Folded Reload
	ld.d	$fp, $sp, 32                    # 8-byte Folded Reload
	ld.d	$ra, $sp, 40                    # 8-byte Folded Reload
	addi.d	$sp, $sp, 48
	ret
.LBB22_15:                              # %terminate.lpad.i
.Ltmp216:                               # EH_LABEL
	pcaddu18i	$ra, %call36(__clang_call_terminate)
	jirl	$ra, $ra, 0
.LBB22_16:                              # %lpad
.Ltmp213:                               # EH_LABEL
	move	$fp, $a0
	addi.d	$a0, $sp, 0
	pcaddu18i	$ra, %call36(_ZNSt8_Rb_treeINSt7__cxx1112basic_stringIcSt11char_traitsIcESaIcEEESt4pairIKS5_N9benchmark7CounterEESt10_Select1stISA_ESt4lessIS5_ESaISA_EE20_Reuse_or_alloc_nodeD2Ev)
	jirl	$ra, $ra, 0
	move	$a0, $fp
	pcaddu18i	$ra, %call36(_Unwind_Resume)
	jirl	$ra, $ra, 0
.Lfunc_end22:
	.size	_ZNSt8_Rb_treeINSt7__cxx1112basic_stringIcSt11char_traitsIcESaIcEEESt4pairIKS5_N9benchmark7CounterEESt10_Select1stISA_ESt4lessIS5_ESaISA_EEaSERKSG_, .Lfunc_end22-_ZNSt8_Rb_treeINSt7__cxx1112basic_stringIcSt11char_traitsIcESaIcEEESt4pairIKS5_N9benchmark7CounterEESt10_Select1stISA_ESt4lessIS5_ESaISA_EEaSERKSG_
	.cfi_endproc
	.section	.gcc_except_table._ZNSt8_Rb_treeINSt7__cxx1112basic_stringIcSt11char_traitsIcESaIcEEESt4pairIKS5_N9benchmark7CounterEESt10_Select1stISA_ESt4lessIS5_ESaISA_EEaSERKSG_,"aG",@progbits,_ZNSt8_Rb_treeINSt7__cxx1112basic_stringIcSt11char_traitsIcESaIcEEESt4pairIKS5_N9benchmark7CounterEESt10_Select1stISA_ESt4lessIS5_ESaISA_EEaSERKSG_,comdat
	.p2align	2, 0x0
GCC_except_table22:
.Lexception12:
	.byte	255                             # @LPStart Encoding = omit
	.byte	155                             # @TType Encoding = indirect pcrel sdata4
	.uleb128 .Lttbase7-.Lttbaseref7
.Lttbaseref7:
	.byte	1                               # Call site Encoding = uleb128
	.uleb128 .Lcst_end12-.Lcst_begin12
.Lcst_begin12:
	.uleb128 .Ltmp211-.Lfunc_begin12        # >> Call Site 1 <<
	.uleb128 .Ltmp212-.Ltmp211              #   Call between .Ltmp211 and .Ltmp212
	.uleb128 .Ltmp213-.Lfunc_begin12        #     jumps to .Ltmp213
	.byte	0                               #   On action: cleanup
	.uleb128 .Ltmp214-.Lfunc_begin12        # >> Call Site 2 <<
	.uleb128 .Ltmp215-.Ltmp214              #   Call between .Ltmp214 and .Ltmp215
	.uleb128 .Ltmp216-.Lfunc_begin12        #     jumps to .Ltmp216
	.byte	1                               #   On action: 1
	.uleb128 .Ltmp215-.Lfunc_begin12        # >> Call Site 3 <<
	.uleb128 .Lfunc_end22-.Ltmp215          #   Call between .Ltmp215 and .Lfunc_end22
	.byte	0                               #     has no landing pad
	.byte	0                               #   On action: cleanup
.Lcst_end12:
	.byte	1                               # >> Action Record 1 <<
                                        #   Catch TypeInfo 1
	.byte	0                               #   No further actions
	.p2align	2, 0x0
                                        # >> Catch TypeInfos <<
	.word	0                               # TypeInfo 1
.Lttbase7:
	.p2align	2, 0x0
                                        # -- End function
	.section	.text._ZNSt8_Rb_treeINSt7__cxx1112basic_stringIcSt11char_traitsIcESaIcEEESt4pairIKS5_N9benchmark7CounterEESt10_Select1stISA_ESt4lessIS5_ESaISA_EE20_Reuse_or_alloc_nodeD2Ev,"axG",@progbits,_ZNSt8_Rb_treeINSt7__cxx1112basic_stringIcSt11char_traitsIcESaIcEEESt4pairIKS5_N9benchmark7CounterEESt10_Select1stISA_ESt4lessIS5_ESaISA_EE20_Reuse_or_alloc_nodeD2Ev,comdat
	.hidden	_ZNSt8_Rb_treeINSt7__cxx1112basic_stringIcSt11char_traitsIcESaIcEEESt4pairIKS5_N9benchmark7CounterEESt10_Select1stISA_ESt4lessIS5_ESaISA_EE20_Reuse_or_alloc_nodeD2Ev # -- Begin function _ZNSt8_Rb_treeINSt7__cxx1112basic_stringIcSt11char_traitsIcESaIcEEESt4pairIKS5_N9benchmark7CounterEESt10_Select1stISA_ESt4lessIS5_ESaISA_EE20_Reuse_or_alloc_nodeD2Ev
	.weak	_ZNSt8_Rb_treeINSt7__cxx1112basic_stringIcSt11char_traitsIcESaIcEEESt4pairIKS5_N9benchmark7CounterEESt10_Select1stISA_ESt4lessIS5_ESaISA_EE20_Reuse_or_alloc_nodeD2Ev
	.p2align	5
	.type	_ZNSt8_Rb_treeINSt7__cxx1112basic_stringIcSt11char_traitsIcESaIcEEESt4pairIKS5_N9benchmark7CounterEESt10_Select1stISA_ESt4lessIS5_ESaISA_EE20_Reuse_or_alloc_nodeD2Ev,@function
_ZNSt8_Rb_treeINSt7__cxx1112basic_stringIcSt11char_traitsIcESaIcEEESt4pairIKS5_N9benchmark7CounterEESt10_Select1stISA_ESt4lessIS5_ESaISA_EE20_Reuse_or_alloc_nodeD2Ev: # @_ZNSt8_Rb_treeINSt7__cxx1112basic_stringIcSt11char_traitsIcESaIcEEESt4pairIKS5_N9benchmark7CounterEESt10_Select1stISA_ESt4lessIS5_ESaISA_EE20_Reuse_or_alloc_nodeD2Ev
.Lfunc_begin13:
	.cfi_startproc
	.cfi_personality 155, DW.ref.__gxx_personality_v0
	.cfi_lsda 27, .Lexception13
# %bb.0:                                # %entry
	addi.d	$sp, $sp, -16
	.cfi_def_cfa_offset 16
	st.d	$ra, $sp, 8                     # 8-byte Folded Spill
	.cfi_offset 1, -8
	ld.d	$a1, $a0, 0
	beqz	$a1, .LBB23_2
# %bb.1:                                # %if.then
	ld.d	$a0, $a0, 16
.Ltmp217:                               # EH_LABEL
	pcaddu18i	$ra, %call36(_ZNSt8_Rb_treeINSt7__cxx1112basic_stringIcSt11char_traitsIcESaIcEEESt4pairIKS5_N9benchmark7CounterEESt10_Select1stISA_ESt4lessIS5_ESaISA_EE8_M_eraseEPSt13_Rb_tree_nodeISA_E)
	jirl	$ra, $ra, 0
.Ltmp218:                               # EH_LABEL
.LBB23_2:                               # %if.end
	ld.d	$ra, $sp, 8                     # 8-byte Folded Reload
	addi.d	$sp, $sp, 16
	ret
.LBB23_3:                               # %terminate.lpad
.Ltmp219:                               # EH_LABEL
	pcaddu18i	$ra, %call36(__clang_call_terminate)
	jirl	$ra, $ra, 0
.Lfunc_end23:
	.size	_ZNSt8_Rb_treeINSt7__cxx1112basic_stringIcSt11char_traitsIcESaIcEEESt4pairIKS5_N9benchmark7CounterEESt10_Select1stISA_ESt4lessIS5_ESaISA_EE20_Reuse_or_alloc_nodeD2Ev, .Lfunc_end23-_ZNSt8_Rb_treeINSt7__cxx1112basic_stringIcSt11char_traitsIcESaIcEEESt4pairIKS5_N9benchmark7CounterEESt10_Select1stISA_ESt4lessIS5_ESaISA_EE20_Reuse_or_alloc_nodeD2Ev
	.cfi_endproc
	.section	.gcc_except_table._ZNSt8_Rb_treeINSt7__cxx1112basic_stringIcSt11char_traitsIcESaIcEEESt4pairIKS5_N9benchmark7CounterEESt10_Select1stISA_ESt4lessIS5_ESaISA_EE20_Reuse_or_alloc_nodeD2Ev,"aG",@progbits,_ZNSt8_Rb_treeINSt7__cxx1112basic_stringIcSt11char_traitsIcESaIcEEESt4pairIKS5_N9benchmark7CounterEESt10_Select1stISA_ESt4lessIS5_ESaISA_EE20_Reuse_or_alloc_nodeD2Ev,comdat
	.p2align	2, 0x0
GCC_except_table23:
.Lexception13:
	.byte	255                             # @LPStart Encoding = omit
	.byte	155                             # @TType Encoding = indirect pcrel sdata4
	.uleb128 .Lttbase8-.Lttbaseref8
.Lttbaseref8:
	.byte	1                               # Call site Encoding = uleb128
	.uleb128 .Lcst_end13-.Lcst_begin13
.Lcst_begin13:
	.uleb128 .Ltmp217-.Lfunc_begin13        # >> Call Site 1 <<
	.uleb128 .Ltmp218-.Ltmp217              #   Call between .Ltmp217 and .Ltmp218
	.uleb128 .Ltmp219-.Lfunc_begin13        #     jumps to .Ltmp219
	.byte	1                               #   On action: 1
	.uleb128 .Ltmp218-.Lfunc_begin13        # >> Call Site 2 <<
	.uleb128 .Lfunc_end23-.Ltmp218          #   Call between .Ltmp218 and .Lfunc_end23
	.byte	0                               #     has no landing pad
	.byte	0                               #   On action: cleanup
.Lcst_end13:
	.byte	1                               # >> Action Record 1 <<
                                        #   Catch TypeInfo 1
	.byte	0                               #   No further actions
	.p2align	2, 0x0
                                        # >> Catch TypeInfos <<
	.word	0                               # TypeInfo 1
.Lttbase8:
	.p2align	2, 0x0
                                        # -- End function
	.section	.text._ZNSt8_Rb_treeINSt7__cxx1112basic_stringIcSt11char_traitsIcESaIcEEESt4pairIKS5_N9benchmark7CounterEESt10_Select1stISA_ESt4lessIS5_ESaISA_EE7_M_copyILb0ENSG_20_Reuse_or_alloc_nodeEEEPSt18_Rb_tree_node_basePSt13_Rb_tree_nodeISA_ESK_RT0_,"axG",@progbits,_ZNSt8_Rb_treeINSt7__cxx1112basic_stringIcSt11char_traitsIcESaIcEEESt4pairIKS5_N9benchmark7CounterEESt10_Select1stISA_ESt4lessIS5_ESaISA_EE7_M_copyILb0ENSG_20_Reuse_or_alloc_nodeEEEPSt18_Rb_tree_node_basePSt13_Rb_tree_nodeISA_ESK_RT0_,comdat
	.hidden	_ZNSt8_Rb_treeINSt7__cxx1112basic_stringIcSt11char_traitsIcESaIcEEESt4pairIKS5_N9benchmark7CounterEESt10_Select1stISA_ESt4lessIS5_ESaISA_EE7_M_copyILb0ENSG_20_Reuse_or_alloc_nodeEEEPSt18_Rb_tree_node_basePSt13_Rb_tree_nodeISA_ESK_RT0_ # -- Begin function _ZNSt8_Rb_treeINSt7__cxx1112basic_stringIcSt11char_traitsIcESaIcEEESt4pairIKS5_N9benchmark7CounterEESt10_Select1stISA_ESt4lessIS5_ESaISA_EE7_M_copyILb0ENSG_20_Reuse_or_alloc_nodeEEEPSt18_Rb_tree_node_basePSt13_Rb_tree_nodeISA_ESK_RT0_
	.weak	_ZNSt8_Rb_treeINSt7__cxx1112basic_stringIcSt11char_traitsIcESaIcEEESt4pairIKS5_N9benchmark7CounterEESt10_Select1stISA_ESt4lessIS5_ESaISA_EE7_M_copyILb0ENSG_20_Reuse_or_alloc_nodeEEEPSt18_Rb_tree_node_basePSt13_Rb_tree_nodeISA_ESK_RT0_
	.p2align	5
	.type	_ZNSt8_Rb_treeINSt7__cxx1112basic_stringIcSt11char_traitsIcESaIcEEESt4pairIKS5_N9benchmark7CounterEESt10_Select1stISA_ESt4lessIS5_ESaISA_EE7_M_copyILb0ENSG_20_Reuse_or_alloc_nodeEEEPSt18_Rb_tree_node_basePSt13_Rb_tree_nodeISA_ESK_RT0_,@function
_ZNSt8_Rb_treeINSt7__cxx1112basic_stringIcSt11char_traitsIcESaIcEEESt4pairIKS5_N9benchmark7CounterEESt10_Select1stISA_ESt4lessIS5_ESaISA_EE7_M_copyILb0ENSG_20_Reuse_or_alloc_nodeEEEPSt18_Rb_tree_node_basePSt13_Rb_tree_nodeISA_ESK_RT0_: # @_ZNSt8_Rb_treeINSt7__cxx1112basic_stringIcSt11char_traitsIcESaIcEEESt4pairIKS5_N9benchmark7CounterEESt10_Select1stISA_ESt4lessIS5_ESaISA_EE7_M_copyILb0ENSG_20_Reuse_or_alloc_nodeEEEPSt18_Rb_tree_node_basePSt13_Rb_tree_nodeISA_ESK_RT0_
.Lfunc_begin14:
	.cfi_startproc
	.cfi_personality 155, DW.ref.__gxx_personality_v0
	.cfi_lsda 27, .Lexception14
# %bb.0:                                # %entry
	addi.d	$sp, $sp, -96
	.cfi_def_cfa_offset 96
	st.d	$ra, $sp, 88                    # 8-byte Folded Spill
	st.d	$fp, $sp, 80                    # 8-byte Folded Spill
	st.d	$s0, $sp, 72                    # 8-byte Folded Spill
	st.d	$s1, $sp, 64                    # 8-byte Folded Spill
	st.d	$s2, $sp, 56                    # 8-byte Folded Spill
	st.d	$s3, $sp, 48                    # 8-byte Folded Spill
	st.d	$s4, $sp, 40                    # 8-byte Folded Spill
	.cfi_offset 1, -8
	.cfi_offset 22, -16
	.cfi_offset 23, -24
	.cfi_offset 24, -32
	.cfi_offset 25, -40
	.cfi_offset 26, -48
	.cfi_offset 27, -56
	move	$s1, $a3
	move	$s3, $a2
	move	$s2, $a1
	move	$fp, $a0
	addi.d	$a1, $a1, 32
	move	$a0, $a3
	pcaddu18i	$ra, %call36(_ZNSt8_Rb_treeINSt7__cxx1112basic_stringIcSt11char_traitsIcESaIcEEESt4pairIKS5_N9benchmark7CounterEESt10_Select1stISA_ESt4lessIS5_ESaISA_EE20_Reuse_or_alloc_nodeclIRKSA_EEPSt13_Rb_tree_nodeISA_EOT_)
	jirl	$ra, $ra, 0
	move	$s0, $a0
	ld.w	$a0, $s2, 0
	vrepli.b	$vr0, 0
	vst	$vr0, $sp, 16                   # 16-byte Folded Spill
	vst	$vr0, $s0, 16
	ld.d	$a1, $s2, 24
	st.w	$a0, $s0, 0
	st.d	$s3, $s0, 8
	beqz	$a1, .LBB24_3
# %bb.1:                                # %if.then
.Ltmp220:                               # EH_LABEL
	move	$a0, $fp
	move	$a2, $s0
	move	$a3, $s1
	pcaddu18i	$ra, %call36(_ZNSt8_Rb_treeINSt7__cxx1112basic_stringIcSt11char_traitsIcESaIcEEESt4pairIKS5_N9benchmark7CounterEESt10_Select1stISA_ESt4lessIS5_ESaISA_EE7_M_copyILb0ENSG_20_Reuse_or_alloc_nodeEEEPSt18_Rb_tree_node_basePSt13_Rb_tree_nodeISA_ESK_RT0_)
	jirl	$ra, $ra, 0
.Ltmp221:                               # EH_LABEL
# %bb.2:                                # %invoke.cont
	st.d	$a0, $s0, 24
.LBB24_3:                               # %if.end
	ld.d	$s3, $s2, 16
	beqz	$s3, .LBB24_10
# %bb.4:                                # %while.body.preheader
	move	$s4, $s0
	b	.LBB24_6
	.p2align	4, , 16
.LBB24_5:                               # %if.end20
                                        #   in Loop: Header=BB24_6 Depth=1
	ld.d	$s3, $s3, 16
	move	$s4, $s2
	beqz	$s3, .LBB24_10
.LBB24_6:                               # %while.body
                                        # =>This Inner Loop Header: Depth=1
	addi.d	$a1, $s3, 32
.Ltmp223:                               # EH_LABEL
	move	$a0, $s1
	pcaddu18i	$ra, %call36(_ZNSt8_Rb_treeINSt7__cxx1112basic_stringIcSt11char_traitsIcESaIcEEESt4pairIKS5_N9benchmark7CounterEESt10_Select1stISA_ESt4lessIS5_ESaISA_EE20_Reuse_or_alloc_nodeclIRKSA_EEPSt13_Rb_tree_nodeISA_EOT_)
	jirl	$ra, $ra, 0
.Ltmp224:                               # EH_LABEL
# %bb.7:                                # %invoke.cont9
                                        #   in Loop: Header=BB24_6 Depth=1
	move	$s2, $a0
	ld.w	$a0, $s3, 0
	vld	$vr0, $sp, 16                   # 16-byte Folded Reload
	vst	$vr0, $s2, 16
	ld.d	$a1, $s3, 24
	st.w	$a0, $s2, 0
	st.d	$s2, $s4, 16
	st.d	$s4, $s2, 8
	beqz	$a1, .LBB24_5
# %bb.8:                                # %if.then15
                                        #   in Loop: Header=BB24_6 Depth=1
.Ltmp225:                               # EH_LABEL
	move	$a0, $fp
	move	$a2, $s2
	move	$a3, $s1
	pcaddu18i	$ra, %call36(_ZNSt8_Rb_treeINSt7__cxx1112basic_stringIcSt11char_traitsIcESaIcEEESt4pairIKS5_N9benchmark7CounterEESt10_Select1stISA_ESt4lessIS5_ESaISA_EE7_M_copyILb0ENSG_20_Reuse_or_alloc_nodeEEEPSt18_Rb_tree_node_basePSt13_Rb_tree_nodeISA_ESK_RT0_)
	jirl	$ra, $ra, 0
.Ltmp226:                               # EH_LABEL
# %bb.9:                                # %invoke.cont17
                                        #   in Loop: Header=BB24_6 Depth=1
	st.d	$a0, $s2, 24
	b	.LBB24_5
.LBB24_10:                              # %try.cont
	move	$a0, $s0
	ld.d	$s4, $sp, 40                    # 8-byte Folded Reload
	ld.d	$s3, $sp, 48                    # 8-byte Folded Reload
	ld.d	$s2, $sp, 56                    # 8-byte Folded Reload
	ld.d	$s1, $sp, 64                    # 8-byte Folded Reload
	ld.d	$s0, $sp, 72                    # 8-byte Folded Reload
	ld.d	$fp, $sp, 80                    # 8-byte Folded Reload
	ld.d	$ra, $sp, 88                    # 8-byte Folded Reload
	addi.d	$sp, $sp, 96
	ret
.LBB24_11:                              # %lpad
.Ltmp222:                               # EH_LABEL
	b	.LBB24_13
.LBB24_12:                              # %lpad8
.Ltmp227:                               # EH_LABEL
.LBB24_13:                              # %catch
	pcaddu18i	$ra, %call36(__cxa_begin_catch)
	jirl	$ra, $ra, 0
.Ltmp228:                               # EH_LABEL
	move	$a0, $fp
	move	$a1, $s0
	pcaddu18i	$ra, %call36(_ZNSt8_Rb_treeINSt7__cxx1112basic_stringIcSt11char_traitsIcESaIcEEESt4pairIKS5_N9benchmark7CounterEESt10_Select1stISA_ESt4lessIS5_ESaISA_EE8_M_eraseEPSt13_Rb_tree_nodeISA_E)
	jirl	$ra, $ra, 0
.Ltmp229:                               # EH_LABEL
# %bb.14:                               # %invoke.cont23
.Ltmp230:                               # EH_LABEL
	pcaddu18i	$ra, %call36(__cxa_rethrow)
	jirl	$ra, $ra, 0
.Ltmp231:                               # EH_LABEL
# %bb.15:                               # %unreachable
.LBB24_16:                              # %lpad22
.Ltmp232:                               # EH_LABEL
	move	$fp, $a0
.Ltmp233:                               # EH_LABEL
	pcaddu18i	$ra, %call36(__cxa_end_catch)
	jirl	$ra, $ra, 0
.Ltmp234:                               # EH_LABEL
# %bb.17:                               # %invoke.cont24
	move	$a0, $fp
	pcaddu18i	$ra, %call36(_Unwind_Resume)
	jirl	$ra, $ra, 0
.LBB24_18:                              # %terminate.lpad
.Ltmp235:                               # EH_LABEL
	pcaddu18i	$ra, %call36(__clang_call_terminate)
	jirl	$ra, $ra, 0
.Lfunc_end24:
	.size	_ZNSt8_Rb_treeINSt7__cxx1112basic_stringIcSt11char_traitsIcESaIcEEESt4pairIKS5_N9benchmark7CounterEESt10_Select1stISA_ESt4lessIS5_ESaISA_EE7_M_copyILb0ENSG_20_Reuse_or_alloc_nodeEEEPSt18_Rb_tree_node_basePSt13_Rb_tree_nodeISA_ESK_RT0_, .Lfunc_end24-_ZNSt8_Rb_treeINSt7__cxx1112basic_stringIcSt11char_traitsIcESaIcEEESt4pairIKS5_N9benchmark7CounterEESt10_Select1stISA_ESt4lessIS5_ESaISA_EE7_M_copyILb0ENSG_20_Reuse_or_alloc_nodeEEEPSt18_Rb_tree_node_basePSt13_Rb_tree_nodeISA_ESK_RT0_
	.cfi_endproc
	.section	.gcc_except_table._ZNSt8_Rb_treeINSt7__cxx1112basic_stringIcSt11char_traitsIcESaIcEEESt4pairIKS5_N9benchmark7CounterEESt10_Select1stISA_ESt4lessIS5_ESaISA_EE7_M_copyILb0ENSG_20_Reuse_or_alloc_nodeEEEPSt18_Rb_tree_node_basePSt13_Rb_tree_nodeISA_ESK_RT0_,"aG",@progbits,_ZNSt8_Rb_treeINSt7__cxx1112basic_stringIcSt11char_traitsIcESaIcEEESt4pairIKS5_N9benchmark7CounterEESt10_Select1stISA_ESt4lessIS5_ESaISA_EE7_M_copyILb0ENSG_20_Reuse_or_alloc_nodeEEEPSt18_Rb_tree_node_basePSt13_Rb_tree_nodeISA_ESK_RT0_,comdat
	.p2align	2, 0x0
GCC_except_table24:
.Lexception14:
	.byte	255                             # @LPStart Encoding = omit
	.byte	155                             # @TType Encoding = indirect pcrel sdata4
	.uleb128 .Lttbase9-.Lttbaseref9
.Lttbaseref9:
	.byte	1                               # Call site Encoding = uleb128
	.uleb128 .Lcst_end14-.Lcst_begin14
.Lcst_begin14:
	.uleb128 .Lfunc_begin14-.Lfunc_begin14  # >> Call Site 1 <<
	.uleb128 .Ltmp220-.Lfunc_begin14        #   Call between .Lfunc_begin14 and .Ltmp220
	.byte	0                               #     has no landing pad
	.byte	0                               #   On action: cleanup
	.uleb128 .Ltmp220-.Lfunc_begin14        # >> Call Site 2 <<
	.uleb128 .Ltmp221-.Ltmp220              #   Call between .Ltmp220 and .Ltmp221
	.uleb128 .Ltmp222-.Lfunc_begin14        #     jumps to .Ltmp222
	.byte	1                               #   On action: 1
	.uleb128 .Ltmp223-.Lfunc_begin14        # >> Call Site 3 <<
	.uleb128 .Ltmp226-.Ltmp223              #   Call between .Ltmp223 and .Ltmp226
	.uleb128 .Ltmp227-.Lfunc_begin14        #     jumps to .Ltmp227
	.byte	1                               #   On action: 1
	.uleb128 .Ltmp226-.Lfunc_begin14        # >> Call Site 4 <<
	.uleb128 .Ltmp228-.Ltmp226              #   Call between .Ltmp226 and .Ltmp228
	.byte	0                               #     has no landing pad
	.byte	0                               #   On action: cleanup
	.uleb128 .Ltmp228-.Lfunc_begin14        # >> Call Site 5 <<
	.uleb128 .Ltmp231-.Ltmp228              #   Call between .Ltmp228 and .Ltmp231
	.uleb128 .Ltmp232-.Lfunc_begin14        #     jumps to .Ltmp232
	.byte	0                               #   On action: cleanup
	.uleb128 .Ltmp233-.Lfunc_begin14        # >> Call Site 6 <<
	.uleb128 .Ltmp234-.Ltmp233              #   Call between .Ltmp233 and .Ltmp234
	.uleb128 .Ltmp235-.Lfunc_begin14        #     jumps to .Ltmp235
	.byte	1                               #   On action: 1
	.uleb128 .Ltmp234-.Lfunc_begin14        # >> Call Site 7 <<
	.uleb128 .Lfunc_end24-.Ltmp234          #   Call between .Ltmp234 and .Lfunc_end24
	.byte	0                               #     has no landing pad
	.byte	0                               #   On action: cleanup
.Lcst_end14:
	.byte	1                               # >> Action Record 1 <<
                                        #   Catch TypeInfo 1
	.byte	0                               #   No further actions
	.p2align	2, 0x0
                                        # >> Catch TypeInfos <<
	.word	0                               # TypeInfo 1
.Lttbase9:
	.p2align	2, 0x0
                                        # -- End function
	.section	.text._ZNSt8_Rb_treeINSt7__cxx1112basic_stringIcSt11char_traitsIcESaIcEEESt4pairIKS5_N9benchmark7CounterEESt10_Select1stISA_ESt4lessIS5_ESaISA_EE20_Reuse_or_alloc_nodeclIRKSA_EEPSt13_Rb_tree_nodeISA_EOT_,"axG",@progbits,_ZNSt8_Rb_treeINSt7__cxx1112basic_stringIcSt11char_traitsIcESaIcEEESt4pairIKS5_N9benchmark7CounterEESt10_Select1stISA_ESt4lessIS5_ESaISA_EE20_Reuse_or_alloc_nodeclIRKSA_EEPSt13_Rb_tree_nodeISA_EOT_,comdat
	.hidden	_ZNSt8_Rb_treeINSt7__cxx1112basic_stringIcSt11char_traitsIcESaIcEEESt4pairIKS5_N9benchmark7CounterEESt10_Select1stISA_ESt4lessIS5_ESaISA_EE20_Reuse_or_alloc_nodeclIRKSA_EEPSt13_Rb_tree_nodeISA_EOT_ # -- Begin function _ZNSt8_Rb_treeINSt7__cxx1112basic_stringIcSt11char_traitsIcESaIcEEESt4pairIKS5_N9benchmark7CounterEESt10_Select1stISA_ESt4lessIS5_ESaISA_EE20_Reuse_or_alloc_nodeclIRKSA_EEPSt13_Rb_tree_nodeISA_EOT_
	.weak	_ZNSt8_Rb_treeINSt7__cxx1112basic_stringIcSt11char_traitsIcESaIcEEESt4pairIKS5_N9benchmark7CounterEESt10_Select1stISA_ESt4lessIS5_ESaISA_EE20_Reuse_or_alloc_nodeclIRKSA_EEPSt13_Rb_tree_nodeISA_EOT_
	.p2align	5
	.type	_ZNSt8_Rb_treeINSt7__cxx1112basic_stringIcSt11char_traitsIcESaIcEEESt4pairIKS5_N9benchmark7CounterEESt10_Select1stISA_ESt4lessIS5_ESaISA_EE20_Reuse_or_alloc_nodeclIRKSA_EEPSt13_Rb_tree_nodeISA_EOT_,@function
_ZNSt8_Rb_treeINSt7__cxx1112basic_stringIcSt11char_traitsIcESaIcEEESt4pairIKS5_N9benchmark7CounterEESt10_Select1stISA_ESt4lessIS5_ESaISA_EE20_Reuse_or_alloc_nodeclIRKSA_EEPSt13_Rb_tree_nodeISA_EOT_: # @_ZNSt8_Rb_treeINSt7__cxx1112basic_stringIcSt11char_traitsIcESaIcEEESt4pairIKS5_N9benchmark7CounterEESt10_Select1stISA_ESt4lessIS5_ESaISA_EE20_Reuse_or_alloc_nodeclIRKSA_EEPSt13_Rb_tree_nodeISA_EOT_
	.cfi_startproc
# %bb.0:                                # %entry
	addi.d	$sp, $sp, -32
	.cfi_def_cfa_offset 32
	st.d	$ra, $sp, 24                    # 8-byte Folded Spill
	st.d	$fp, $sp, 16                    # 8-byte Folded Spill
	st.d	$s0, $sp, 8                     # 8-byte Folded Spill
	st.d	$s1, $sp, 0                     # 8-byte Folded Spill
	.cfi_offset 1, -8
	.cfi_offset 22, -16
	.cfi_offset 23, -24
	.cfi_offset 24, -32
	move	$s1, $a0
	ld.d	$fp, $a0, 8
	move	$s0, $a1
	beqz	$fp, .LBB25_4
# %bb.1:                                # %if.end.i
	ld.d	$a0, $fp, 8
	st.d	$a0, $s1, 8
	beqz	$a0, .LBB25_5
# %bb.2:                                # %if.then8.i
	ld.d	$a1, $a0, 24
	beq	$a1, $fp, .LBB25_6
# %bb.3:                                # %if.else.i
	st.d	$zero, $a0, 16
	b	.LBB25_9
.LBB25_4:                               # %if.end
	ld.d	$s1, $s1, 16
	ori	$a0, $zero, 80
	pcaddu18i	$ra, %call36(_Znwm)
	jirl	$ra, $ra, 0
	move	$fp, $a0
	move	$a0, $s1
	b	.LBB25_12
.LBB25_5:                               # %if.else37.i
	st.d	$zero, $s1, 0
	b	.LBB25_9
.LBB25_6:                               # %if.then10.i
	ld.d	$a1, $a0, 16
	st.d	$zero, $a0, 24
	beqz	$a1, .LBB25_9
	.p2align	4, , 16
.LBB25_7:                               # %while.cond.i
                                        # =>This Inner Loop Header: Depth=1
	move	$a0, $a1
	ld.d	$a1, $a1, 24
	bnez	$a1, .LBB25_7
# %bb.8:                                # %while.end.i
	ld.d	$a1, $a0, 16
	sltui	$a2, $a1, 1
	masknez	$a1, $a1, $a2
	maskeqz	$a0, $a0, $a2
	or	$a0, $a0, $a1
	st.d	$a0, $s1, 8
.LBB25_9:                               # %if.then
	ld.d	$a0, $fp, 32
	addi.d	$a1, $fp, 48
	beq	$a0, $a1, .LBB25_11
# %bb.10:                               # %if.then.i.i.i.i
	ld.d	$a1, $a1, 0
	addi.d	$a1, $a1, 1
	pcaddu18i	$ra, %call36(_ZdlPvm)
	jirl	$ra, $ra, 0
.LBB25_11:                              # %_ZNSt8_Rb_treeINSt7__cxx1112basic_stringIcSt11char_traitsIcESaIcEEESt4pairIKS5_N9benchmark7CounterEESt10_Select1stISA_ESt4lessIS5_ESaISA_EE15_M_destroy_nodeEPSt13_Rb_tree_nodeISA_E.exit
	ld.d	$a0, $s1, 16
.LBB25_12:                              # %cleanup
	move	$a1, $fp
	move	$a2, $s0
	pcaddu18i	$ra, %call36(_ZNSt8_Rb_treeINSt7__cxx1112basic_stringIcSt11char_traitsIcESaIcEEESt4pairIKS5_N9benchmark7CounterEESt10_Select1stISA_ESt4lessIS5_ESaISA_EE17_M_construct_nodeIJRKSA_EEEvPSt13_Rb_tree_nodeISA_EDpOT_)
	jirl	$ra, $ra, 0
	move	$a0, $fp
	ld.d	$s1, $sp, 0                     # 8-byte Folded Reload
	ld.d	$s0, $sp, 8                     # 8-byte Folded Reload
	ld.d	$fp, $sp, 16                    # 8-byte Folded Reload
	ld.d	$ra, $sp, 24                    # 8-byte Folded Reload
	addi.d	$sp, $sp, 32
	ret
.Lfunc_end25:
	.size	_ZNSt8_Rb_treeINSt7__cxx1112basic_stringIcSt11char_traitsIcESaIcEEESt4pairIKS5_N9benchmark7CounterEESt10_Select1stISA_ESt4lessIS5_ESaISA_EE20_Reuse_or_alloc_nodeclIRKSA_EEPSt13_Rb_tree_nodeISA_EOT_, .Lfunc_end25-_ZNSt8_Rb_treeINSt7__cxx1112basic_stringIcSt11char_traitsIcESaIcEEESt4pairIKS5_N9benchmark7CounterEESt10_Select1stISA_ESt4lessIS5_ESaISA_EE20_Reuse_or_alloc_nodeclIRKSA_EEPSt13_Rb_tree_nodeISA_EOT_
	.cfi_endproc
                                        # -- End function
	.section	.text._ZNSt8_Rb_treeINSt7__cxx1112basic_stringIcSt11char_traitsIcESaIcEEESt4pairIKS5_N9benchmark7CounterEESt10_Select1stISA_ESt4lessIS5_ESaISA_EE17_M_construct_nodeIJRKSA_EEEvPSt13_Rb_tree_nodeISA_EDpOT_,"axG",@progbits,_ZNSt8_Rb_treeINSt7__cxx1112basic_stringIcSt11char_traitsIcESaIcEEESt4pairIKS5_N9benchmark7CounterEESt10_Select1stISA_ESt4lessIS5_ESaISA_EE17_M_construct_nodeIJRKSA_EEEvPSt13_Rb_tree_nodeISA_EDpOT_,comdat
	.hidden	_ZNSt8_Rb_treeINSt7__cxx1112basic_stringIcSt11char_traitsIcESaIcEEESt4pairIKS5_N9benchmark7CounterEESt10_Select1stISA_ESt4lessIS5_ESaISA_EE17_M_construct_nodeIJRKSA_EEEvPSt13_Rb_tree_nodeISA_EDpOT_ # -- Begin function _ZNSt8_Rb_treeINSt7__cxx1112basic_stringIcSt11char_traitsIcESaIcEEESt4pairIKS5_N9benchmark7CounterEESt10_Select1stISA_ESt4lessIS5_ESaISA_EE17_M_construct_nodeIJRKSA_EEEvPSt13_Rb_tree_nodeISA_EDpOT_
	.weak	_ZNSt8_Rb_treeINSt7__cxx1112basic_stringIcSt11char_traitsIcESaIcEEESt4pairIKS5_N9benchmark7CounterEESt10_Select1stISA_ESt4lessIS5_ESaISA_EE17_M_construct_nodeIJRKSA_EEEvPSt13_Rb_tree_nodeISA_EDpOT_
	.p2align	5
	.type	_ZNSt8_Rb_treeINSt7__cxx1112basic_stringIcSt11char_traitsIcESaIcEEESt4pairIKS5_N9benchmark7CounterEESt10_Select1stISA_ESt4lessIS5_ESaISA_EE17_M_construct_nodeIJRKSA_EEEvPSt13_Rb_tree_nodeISA_EDpOT_,@function
_ZNSt8_Rb_treeINSt7__cxx1112basic_stringIcSt11char_traitsIcESaIcEEESt4pairIKS5_N9benchmark7CounterEESt10_Select1stISA_ESt4lessIS5_ESaISA_EE17_M_construct_nodeIJRKSA_EEEvPSt13_Rb_tree_nodeISA_EDpOT_: # @_ZNSt8_Rb_treeINSt7__cxx1112basic_stringIcSt11char_traitsIcESaIcEEESt4pairIKS5_N9benchmark7CounterEESt10_Select1stISA_ESt4lessIS5_ESaISA_EE17_M_construct_nodeIJRKSA_EEEvPSt13_Rb_tree_nodeISA_EDpOT_
.Lfunc_begin15:
	.cfi_startproc
	.cfi_personality 155, DW.ref.__gxx_personality_v0
	.cfi_lsda 27, .Lexception15
# %bb.0:                                # %entry
	addi.d	$sp, $sp, -64
	.cfi_def_cfa_offset 64
	st.d	$ra, $sp, 56                    # 8-byte Folded Spill
	st.d	$fp, $sp, 48                    # 8-byte Folded Spill
	st.d	$s0, $sp, 40                    # 8-byte Folded Spill
	st.d	$s1, $sp, 32                    # 8-byte Folded Spill
	st.d	$s2, $sp, 24                    # 8-byte Folded Spill
	st.d	$s3, $sp, 16                    # 8-byte Folded Spill
	.cfi_offset 1, -8
	.cfi_offset 22, -16
	.cfi_offset 23, -24
	.cfi_offset 24, -32
	.cfi_offset 25, -40
	.cfi_offset 26, -48
	move	$s0, $a2
	move	$fp, $a1
	addi.d	$s1, $a1, 48
	st.d	$s1, $a1, 32
	ld.d	$a1, $a2, 8
	ld.d	$s2, $a2, 0
	ori	$a0, $zero, 16
	st.d	$a1, $sp, 8
	bltu	$a1, $a0, .LBB26_3
# %bb.1:                                # %if.then.i.i.i
.Ltmp236:                               # EH_LABEL
	addi.d	$s3, $fp, 32
	addi.d	$a1, $sp, 8
	move	$a0, $s3
	move	$a2, $zero
	pcaddu18i	$ra, %call36(_ZNSt7__cxx1112basic_stringIcSt11char_traitsIcESaIcEE9_M_createERmm)
	jirl	$ra, $ra, 0
.Ltmp237:                               # EH_LABEL
# %bb.2:                                # %call.i4.i.i.noexc
	ld.d	$a1, $sp, 8
	st.d	$a0, $s3, 0
	st.d	$a1, $s1, 0
	move	$s1, $a0
.LBB26_3:                               # %if.end.i.i.i
	addi.w	$a0, $zero, -1
	beq	$a1, $a0, .LBB26_7
# %bb.4:                                # %if.end.i.i.i
	bnez	$a1, .LBB26_6
# %bb.5:                                # %if.then.i.i.i.i
	ld.b	$a0, $s2, 0
	st.b	$a0, $s1, 0
	b	.LBB26_7
.LBB26_6:                               # %if.end.i.i.i.i.i
	addi.d	$a2, $a1, 1
	move	$a0, $s1
	move	$a1, $s2
	pcaddu18i	$ra, %call36(memcpy)
	jirl	$ra, $ra, 0
.LBB26_7:                               # %try.cont
	ld.d	$a0, $sp, 8
	st.d	$a0, $fp, 40
	vld	$vr0, $s0, 32
	vst	$vr0, $fp, 64
	ld.d	$s3, $sp, 16                    # 8-byte Folded Reload
	ld.d	$s2, $sp, 24                    # 8-byte Folded Reload
	ld.d	$s1, $sp, 32                    # 8-byte Folded Reload
	ld.d	$s0, $sp, 40                    # 8-byte Folded Reload
	ld.d	$fp, $sp, 48                    # 8-byte Folded Reload
	ld.d	$ra, $sp, 56                    # 8-byte Folded Reload
	addi.d	$sp, $sp, 64
	ret
.LBB26_8:                               # %lpad
.Ltmp238:                               # EH_LABEL
	pcaddu18i	$ra, %call36(__cxa_begin_catch)
	jirl	$ra, $ra, 0
	ori	$a1, $zero, 80
	move	$a0, $fp
	pcaddu18i	$ra, %call36(_ZdlPvm)
	jirl	$ra, $ra, 0
.Ltmp239:                               # EH_LABEL
	pcaddu18i	$ra, %call36(__cxa_rethrow)
	jirl	$ra, $ra, 0
.Ltmp240:                               # EH_LABEL
# %bb.9:                                # %unreachable
.LBB26_10:                              # %lpad3
.Ltmp241:                               # EH_LABEL
	move	$fp, $a0
.Ltmp242:                               # EH_LABEL
	pcaddu18i	$ra, %call36(__cxa_end_catch)
	jirl	$ra, $ra, 0
.Ltmp243:                               # EH_LABEL
# %bb.11:                               # %eh.resume
	move	$a0, $fp
	pcaddu18i	$ra, %call36(_Unwind_Resume)
	jirl	$ra, $ra, 0
.LBB26_12:                              # %terminate.lpad
.Ltmp244:                               # EH_LABEL
	pcaddu18i	$ra, %call36(__clang_call_terminate)
	jirl	$ra, $ra, 0
.Lfunc_end26:
	.size	_ZNSt8_Rb_treeINSt7__cxx1112basic_stringIcSt11char_traitsIcESaIcEEESt4pairIKS5_N9benchmark7CounterEESt10_Select1stISA_ESt4lessIS5_ESaISA_EE17_M_construct_nodeIJRKSA_EEEvPSt13_Rb_tree_nodeISA_EDpOT_, .Lfunc_end26-_ZNSt8_Rb_treeINSt7__cxx1112basic_stringIcSt11char_traitsIcESaIcEEESt4pairIKS5_N9benchmark7CounterEESt10_Select1stISA_ESt4lessIS5_ESaISA_EE17_M_construct_nodeIJRKSA_EEEvPSt13_Rb_tree_nodeISA_EDpOT_
	.cfi_endproc
	.section	.gcc_except_table._ZNSt8_Rb_treeINSt7__cxx1112basic_stringIcSt11char_traitsIcESaIcEEESt4pairIKS5_N9benchmark7CounterEESt10_Select1stISA_ESt4lessIS5_ESaISA_EE17_M_construct_nodeIJRKSA_EEEvPSt13_Rb_tree_nodeISA_EDpOT_,"aG",@progbits,_ZNSt8_Rb_treeINSt7__cxx1112basic_stringIcSt11char_traitsIcESaIcEEESt4pairIKS5_N9benchmark7CounterEESt10_Select1stISA_ESt4lessIS5_ESaISA_EE17_M_construct_nodeIJRKSA_EEEvPSt13_Rb_tree_nodeISA_EDpOT_,comdat
	.p2align	2, 0x0
GCC_except_table26:
.Lexception15:
	.byte	255                             # @LPStart Encoding = omit
	.byte	155                             # @TType Encoding = indirect pcrel sdata4
	.uleb128 .Lttbase10-.Lttbaseref10
.Lttbaseref10:
	.byte	1                               # Call site Encoding = uleb128
	.uleb128 .Lcst_end15-.Lcst_begin15
.Lcst_begin15:
	.uleb128 .Ltmp236-.Lfunc_begin15        # >> Call Site 1 <<
	.uleb128 .Ltmp237-.Ltmp236              #   Call between .Ltmp236 and .Ltmp237
	.uleb128 .Ltmp238-.Lfunc_begin15        #     jumps to .Ltmp238
	.byte	1                               #   On action: 1
	.uleb128 .Ltmp237-.Lfunc_begin15        # >> Call Site 2 <<
	.uleb128 .Ltmp239-.Ltmp237              #   Call between .Ltmp237 and .Ltmp239
	.byte	0                               #     has no landing pad
	.byte	0                               #   On action: cleanup
	.uleb128 .Ltmp239-.Lfunc_begin15        # >> Call Site 3 <<
	.uleb128 .Ltmp240-.Ltmp239              #   Call between .Ltmp239 and .Ltmp240
	.uleb128 .Ltmp241-.Lfunc_begin15        #     jumps to .Ltmp241
	.byte	0                               #   On action: cleanup
	.uleb128 .Ltmp242-.Lfunc_begin15        # >> Call Site 4 <<
	.uleb128 .Ltmp243-.Ltmp242              #   Call between .Ltmp242 and .Ltmp243
	.uleb128 .Ltmp244-.Lfunc_begin15        #     jumps to .Ltmp244
	.byte	1                               #   On action: 1
	.uleb128 .Ltmp243-.Lfunc_begin15        # >> Call Site 5 <<
	.uleb128 .Lfunc_end26-.Ltmp243          #   Call between .Ltmp243 and .Lfunc_end26
	.byte	0                               #     has no landing pad
	.byte	0                               #   On action: cleanup
.Lcst_end15:
	.byte	1                               # >> Action Record 1 <<
                                        #   Catch TypeInfo 1
	.byte	0                               #   No further actions
	.p2align	2, 0x0
                                        # >> Catch TypeInfos <<
	.word	0                               # TypeInfo 1
.Lttbase10:
	.p2align	2, 0x0
                                        # -- End function
	.section	.text._ZN9benchmark8internal13ThreadManager6ResultaSEOS2_,"axG",@progbits,_ZN9benchmark8internal13ThreadManager6ResultaSEOS2_,comdat
	.hidden	_ZN9benchmark8internal13ThreadManager6ResultaSEOS2_ # -- Begin function _ZN9benchmark8internal13ThreadManager6ResultaSEOS2_
	.weak	_ZN9benchmark8internal13ThreadManager6ResultaSEOS2_
	.p2align	5
	.type	_ZN9benchmark8internal13ThreadManager6ResultaSEOS2_,@function
_ZN9benchmark8internal13ThreadManager6ResultaSEOS2_: # @_ZN9benchmark8internal13ThreadManager6ResultaSEOS2_
.Lfunc_begin16:
	.cfi_startproc
	.cfi_personality 155, DW.ref.__gxx_personality_v0
	.cfi_lsda 27, .Lexception16
# %bb.0:                                # %entry
	addi.d	$sp, $sp, -32
	.cfi_def_cfa_offset 32
	st.d	$ra, $sp, 24                    # 8-byte Folded Spill
	st.d	$fp, $sp, 16                    # 8-byte Folded Spill
	st.d	$s0, $sp, 8                     # 8-byte Folded Spill
	.cfi_offset 1, -8
	.cfi_offset 22, -16
	.cfi_offset 23, -24
	move	$fp, $a1
	ld.d	$a1, $a1, 32
	move	$s0, $a0
	st.d	$a1, $a0, 32
	vld	$vr0, $fp, 16
	vst	$vr0, $a0, 16
	vld	$vr0, $fp, 0
	vst	$vr0, $a0, 0
	ld.d	$a0, $a0, 40
	ld.d	$a1, $fp, 40
	addi.d	$a3, $s0, 56
	addi.d	$a2, $fp, 56
	beq	$a0, $a3, .LBB27_3
# %bb.1:                                # %invoke.cont.thread.i
	beq	$a1, $a2, .LBB27_7
# %bb.2:                                # %if.then26.i
	ld.d	$a3, $a3, 0
	b	.LBB27_5
.LBB27_3:                               # %invoke.cont.i
	beq	$a1, $a2, .LBB27_7
# %bb.4:
	move	$a0, $zero
                                        # implicit-def: $r7
.LBB27_5:                               # %if.end28.i
	ld.d	$a4, $fp, 48
	st.d	$a1, $s0, 40
	st.d	$a4, $s0, 48
	ld.d	$a1, $fp, 56
	st.d	$a1, $s0, 56
	beqz	$a0, .LBB27_11
# %bb.6:                                # %if.then32.i
	st.d	$a0, $fp, 40
	st.d	$a3, $fp, 56
	b	.LBB27_14
.LBB27_7:                               # %if.then11.i
	beq	$fp, $s0, .LBB27_32
# %bb.8:                                # %if.then12.i
	ld.d	$a2, $fp, 48
	beqz	$a2, .LBB27_13
# %bb.9:                                # %if.then12.i
	ori	$a3, $zero, 1
	bne	$a2, $a3, .LBB27_12
# %bb.10:                               # %if.then.i25.i
	ld.b	$a1, $a1, 0
	st.b	$a1, $a0, 0
	b	.LBB27_13
.LBB27_11:                              # %if.else33.i
	st.d	$a2, $fp, 40
	move	$a0, $a2
	b	.LBB27_14
.LBB27_12:                              # %if.end.i.i.i
	pcaddu18i	$ra, %call36(memcpy)
	jirl	$ra, $ra, 0
.LBB27_13:                              # %if.end20.i
	ld.d	$a0, $fp, 48
	ld.d	$a1, $s0, 40
	st.d	$a0, $s0, 48
	stx.b	$zero, $a1, $a0
	ld.d	$a0, $fp, 40
.LBB27_14:                              # %_ZNSt7__cxx1112basic_stringIcSt11char_traitsIcESaIcEEaSEOS4_.exit
	st.d	$zero, $fp, 48
	st.b	$zero, $a0, 0
	ld.d	$a0, $s0, 72
	ld.d	$a1, $fp, 72
	addi.d	$a3, $s0, 88
	addi.d	$a2, $fp, 88
	beq	$a0, $a3, .LBB27_17
# %bb.15:                               # %invoke.cont.thread.i6
	beq	$a1, $a2, .LBB27_21
# %bb.16:                               # %if.then26.i8
	ld.d	$a3, $a3, 0
	b	.LBB27_19
.LBB27_17:                              # %invoke.cont.i31
	beq	$a1, $a2, .LBB27_21
# %bb.18:
	move	$a0, $zero
                                        # implicit-def: $r7
.LBB27_19:                              # %if.end28.i9
	ld.d	$a4, $fp, 80
	st.d	$a1, $s0, 72
	st.d	$a4, $s0, 80
	ld.d	$a1, $fp, 88
	st.d	$a1, $s0, 88
	beqz	$a0, .LBB27_25
# %bb.20:                               # %if.then32.i16
	st.d	$a0, $fp, 72
	st.d	$a3, $fp, 88
	b	.LBB27_28
.LBB27_21:                              # %if.then11.i19
	beq	$fp, $s0, .LBB27_33
# %bb.22:                               # %if.then12.i23
	ld.d	$a2, $fp, 80
	beqz	$a2, .LBB27_27
# %bb.23:                               # %if.then12.i23
	ori	$a3, $zero, 1
	bne	$a2, $a3, .LBB27_26
# %bb.24:                               # %if.then.i25.i24
	ld.b	$a1, $a1, 0
	st.b	$a1, $a0, 0
	b	.LBB27_27
.LBB27_25:                              # %if.else33.i18
	st.d	$a2, $fp, 72
	move	$a0, $a2
	b	.LBB27_28
.LBB27_26:                              # %if.end.i.i.i30
	pcaddu18i	$ra, %call36(memcpy)
	jirl	$ra, $ra, 0
.LBB27_27:                              # %if.end20.i25
	ld.d	$a0, $fp, 80
	ld.d	$a1, $s0, 72
	st.d	$a0, $s0, 80
	stx.b	$zero, $a1, $a0
	ld.d	$a0, $fp, 72
.LBB27_28:                              # %_ZNSt7__cxx1112basic_stringIcSt11char_traitsIcESaIcEEaSEOS4_.exit35
	st.d	$zero, $fp, 80
	st.b	$zero, $a0, 0
	ld.w	$a0, $fp, 104
	ld.d	$a1, $s0, 128
	st.w	$a0, $s0, 104
	addi.d	$a0, $s0, 112
.Ltmp245:                               # EH_LABEL
	pcaddu18i	$ra, %call36(_ZNSt8_Rb_treeINSt7__cxx1112basic_stringIcSt11char_traitsIcESaIcEEESt4pairIKS5_N9benchmark7CounterEESt10_Select1stISA_ESt4lessIS5_ESaISA_EE8_M_eraseEPSt13_Rb_tree_nodeISA_E)
	jirl	$ra, $ra, 0
.Ltmp246:                               # EH_LABEL
# %bb.29:                               # %_ZNSt8_Rb_treeINSt7__cxx1112basic_stringIcSt11char_traitsIcESaIcEEESt4pairIKS5_N9benchmark7CounterEESt10_Select1stISA_ESt4lessIS5_ESaISA_EE5clearEv.exit.i.i.i
	addi.d	$a0, $s0, 120
	st.d	$zero, $s0, 128
	st.d	$a0, $s0, 136
	st.d	$a0, $s0, 144
	ld.d	$a1, $fp, 128
	st.d	$zero, $s0, 152
	beqz	$a1, .LBB27_31
# %bb.30:                               # %if.then.i.i.i
	ld.w	$a2, $fp, 120
	st.d	$a1, $s0, 128
	vld	$vr0, $fp, 136
	addi.d	$a3, $fp, 120
	ld.d	$a4, $fp, 152
	st.w	$a2, $s0, 120
	vst	$vr0, $s0, 136
	st.d	$a0, $a1, 8
	st.d	$a4, $s0, 152
	st.d	$zero, $fp, 128
	st.d	$a3, $fp, 136
	st.d	$a3, $fp, 144
	st.d	$zero, $fp, 152
.LBB27_31:                              # %_ZNSt3mapINSt7__cxx1112basic_stringIcSt11char_traitsIcESaIcEEEN9benchmark7CounterESt4lessIS5_ESaISt4pairIKS5_S7_EEEaSEOSE_.exit
	move	$a0, $s0
	ld.d	$s0, $sp, 8                     # 8-byte Folded Reload
	ld.d	$fp, $sp, 16                    # 8-byte Folded Reload
	ld.d	$ra, $sp, 24                    # 8-byte Folded Reload
	addi.d	$sp, $sp, 32
	ret
.LBB27_32:
	move	$a0, $a1
	b	.LBB27_14
.LBB27_33:
	move	$a0, $a1
	b	.LBB27_28
.LBB27_34:                              # %terminate.lpad.i.i.i.i
.Ltmp247:                               # EH_LABEL
	pcaddu18i	$ra, %call36(__clang_call_terminate)
	jirl	$ra, $ra, 0
.Lfunc_end27:
	.size	_ZN9benchmark8internal13ThreadManager6ResultaSEOS2_, .Lfunc_end27-_ZN9benchmark8internal13ThreadManager6ResultaSEOS2_
	.cfi_endproc
	.section	.gcc_except_table._ZN9benchmark8internal13ThreadManager6ResultaSEOS2_,"aG",@progbits,_ZN9benchmark8internal13ThreadManager6ResultaSEOS2_,comdat
	.p2align	2, 0x0
GCC_except_table27:
.Lexception16:
	.byte	255                             # @LPStart Encoding = omit
	.byte	155                             # @TType Encoding = indirect pcrel sdata4
	.uleb128 .Lttbase11-.Lttbaseref11
.Lttbaseref11:
	.byte	1                               # Call site Encoding = uleb128
	.uleb128 .Lcst_end16-.Lcst_begin16
.Lcst_begin16:
	.uleb128 .Lfunc_begin16-.Lfunc_begin16  # >> Call Site 1 <<
	.uleb128 .Ltmp245-.Lfunc_begin16        #   Call between .Lfunc_begin16 and .Ltmp245
	.byte	0                               #     has no landing pad
	.byte	0                               #   On action: cleanup
	.uleb128 .Ltmp245-.Lfunc_begin16        # >> Call Site 2 <<
	.uleb128 .Ltmp246-.Ltmp245              #   Call between .Ltmp245 and .Ltmp246
	.uleb128 .Ltmp247-.Lfunc_begin16        #     jumps to .Ltmp247
	.byte	1                               #   On action: 1
	.uleb128 .Ltmp246-.Lfunc_begin16        # >> Call Site 3 <<
	.uleb128 .Lfunc_end27-.Ltmp246          #   Call between .Ltmp246 and .Lfunc_end27
	.byte	0                               #     has no landing pad
	.byte	0                               #   On action: cleanup
.Lcst_end16:
	.byte	1                               # >> Action Record 1 <<
                                        #   Catch TypeInfo 1
	.byte	0                               #   No further actions
	.p2align	2, 0x0
                                        # >> Catch TypeInfos <<
	.word	0                               # TypeInfo 1
.Lttbase11:
	.p2align	2, 0x0
                                        # -- End function
	.section	.text._ZN9benchmark17BenchmarkReporter3RunC2Ev,"axG",@progbits,_ZN9benchmark17BenchmarkReporter3RunC2Ev,comdat
	.hidden	_ZN9benchmark17BenchmarkReporter3RunC2Ev # -- Begin function _ZN9benchmark17BenchmarkReporter3RunC2Ev
	.weak	_ZN9benchmark17BenchmarkReporter3RunC2Ev
	.p2align	5
	.type	_ZN9benchmark17BenchmarkReporter3RunC2Ev,@function
_ZN9benchmark17BenchmarkReporter3RunC2Ev: # @_ZN9benchmark17BenchmarkReporter3RunC2Ev
.Lfunc_begin17:
	.cfi_startproc
	.cfi_personality 155, DW.ref.__gxx_personality_v0
	.cfi_lsda 27, .Lexception17
# %bb.0:                                # %entry
	addi.d	$sp, $sp, -48
	.cfi_def_cfa_offset 48
	st.d	$ra, $sp, 40                    # 8-byte Folded Spill
	st.d	$fp, $sp, 32                    # 8-byte Folded Spill
	st.d	$s0, $sp, 24                    # 8-byte Folded Spill
	st.d	$s1, $sp, 16                    # 8-byte Folded Spill
	st.d	$s2, $sp, 8                     # 8-byte Folded Spill
	st.d	$s3, $sp, 0                     # 8-byte Folded Spill
	.cfi_offset 1, -8
	.cfi_offset 22, -16
	.cfi_offset 23, -24
	.cfi_offset 24, -32
	.cfi_offset 25, -40
	.cfi_offset 26, -48
	move	$fp, $a0
	addi.d	$a0, $a0, 16
	st.d	$a0, $fp, 0
	st.d	$zero, $fp, 8
	st.b	$zero, $fp, 16
	addi.d	$a0, $fp, 48
	st.d	$a0, $fp, 32
	st.d	$zero, $fp, 40
	st.b	$zero, $fp, 48
	addi.d	$a0, $fp, 80
	st.d	$a0, $fp, 64
	st.d	$zero, $fp, 72
	st.b	$zero, $fp, 80
	addi.d	$a0, $fp, 112
	st.d	$a0, $fp, 96
	st.d	$zero, $fp, 104
	st.b	$zero, $fp, 112
	addi.d	$a0, $fp, 144
	st.d	$a0, $fp, 128
	st.d	$zero, $fp, 136
	st.b	$zero, $fp, 144
	addi.d	$a0, $fp, 176
	st.d	$a0, $fp, 160
	st.d	$zero, $fp, 168
	st.b	$zero, $fp, 176
	addi.d	$a0, $fp, 208
	st.d	$a0, $fp, 192
	st.d	$zero, $fp, 200
	st.b	$zero, $fp, 208
	addi.d	$a0, $fp, 240
	st.d	$a0, $fp, 224
	st.d	$zero, $fp, 232
	st.b	$zero, $fp, 240
	st.w	$zero, $fp, 272
	addi.d	$s1, $fp, 296
	st.d	$s1, $fp, 280
	st.d	$zero, $fp, 288
	st.b	$zero, $fp, 296
	st.w	$zero, $fp, 312
	addi.d	$s2, $fp, 336
	st.d	$s2, $fp, 320
	st.d	$zero, $fp, 328
	st.b	$zero, $fp, 336
	st.w	$zero, $fp, 352
	addi.d	$s3, $fp, 376
	st.d	$s3, $fp, 360
	st.d	$zero, $fp, 368
	st.b	$zero, $fp, 376
	vrepli.d	$vr0, 1
	vst	$vr0, $fp, 392
.Ltmp248:                               # EH_LABEL
	pcaddu18i	$ra, %call36(_ZN9benchmark18GetDefaultTimeUnitEv)
	jirl	$ra, $ra, 0
.Ltmp249:                               # EH_LABEL
# %bb.1:                                # %invoke.cont
	st.w	$a0, $fp, 424
	st.h	$zero, $fp, 488
	addi.d	$a0, $fp, 504
	st.w	$zero, $fp, 504
	st.d	$zero, $fp, 512
	st.d	$zero, $fp, 432
	vrepli.b	$vr0, 0
	vst	$vr0, $fp, 440
	st.b	$zero, $fp, 456
	vst	$vr0, $fp, 460
	st.w	$zero, $fp, 476
	st.d	$a0, $fp, 520
	st.d	$a0, $fp, 528
	st.d	$zero, $fp, 536
	vst	$vr0, $fp, 544
	ld.d	$s3, $sp, 0                     # 8-byte Folded Reload
	ld.d	$s2, $sp, 8                     # 8-byte Folded Reload
	ld.d	$s1, $sp, 16                    # 8-byte Folded Reload
	ld.d	$s0, $sp, 24                    # 8-byte Folded Reload
	ld.d	$fp, $sp, 32                    # 8-byte Folded Reload
	ld.d	$ra, $sp, 40                    # 8-byte Folded Reload
	addi.d	$sp, $sp, 48
	ret
.LBB28_2:                               # %lpad
.Ltmp250:                               # EH_LABEL
	ld.d	$a2, $fp, 360
	move	$s0, $a0
	bne	$a2, $s3, .LBB28_6
# %bb.3:                                # %_ZNSt7__cxx1112basic_stringIcSt11char_traitsIcESaIcEED2Ev.exit
	ld.d	$a0, $fp, 320
	bne	$a0, $s2, .LBB28_7
.LBB28_4:                               # %_ZNSt7__cxx1112basic_stringIcSt11char_traitsIcESaIcEED2Ev.exit10
	ld.d	$a0, $fp, 280
	bne	$a0, $s1, .LBB28_8
.LBB28_5:                               # %_ZNSt7__cxx1112basic_stringIcSt11char_traitsIcESaIcEED2Ev.exit17
	move	$a0, $fp
	pcaddu18i	$ra, %call36(_ZN9benchmark13BenchmarkNameD2Ev)
	jirl	$ra, $ra, 0
	move	$a0, $s0
	pcaddu18i	$ra, %call36(_Unwind_Resume)
	jirl	$ra, $ra, 0
.LBB28_6:                               # %if.then.i.i
	ld.d	$a0, $s3, 0
	addi.d	$a1, $a0, 1
	move	$a0, $a2
	pcaddu18i	$ra, %call36(_ZdlPvm)
	jirl	$ra, $ra, 0
	ld.d	$a0, $fp, 320
	beq	$a0, $s2, .LBB28_4
.LBB28_7:                               # %if.then.i.i5
	ld.d	$a1, $s2, 0
	addi.d	$a1, $a1, 1
	pcaddu18i	$ra, %call36(_ZdlPvm)
	jirl	$ra, $ra, 0
	ld.d	$a0, $fp, 280
	beq	$a0, $s1, .LBB28_5
.LBB28_8:                               # %if.then.i.i12
	ld.d	$a1, $s1, 0
	addi.d	$a1, $a1, 1
	pcaddu18i	$ra, %call36(_ZdlPvm)
	jirl	$ra, $ra, 0
	move	$a0, $fp
	pcaddu18i	$ra, %call36(_ZN9benchmark13BenchmarkNameD2Ev)
	jirl	$ra, $ra, 0
	move	$a0, $s0
	pcaddu18i	$ra, %call36(_Unwind_Resume)
	jirl	$ra, $ra, 0
.Lfunc_end28:
	.size	_ZN9benchmark17BenchmarkReporter3RunC2Ev, .Lfunc_end28-_ZN9benchmark17BenchmarkReporter3RunC2Ev
	.cfi_endproc
	.section	.gcc_except_table._ZN9benchmark17BenchmarkReporter3RunC2Ev,"aG",@progbits,_ZN9benchmark17BenchmarkReporter3RunC2Ev,comdat
	.p2align	2, 0x0
GCC_except_table28:
.Lexception17:
	.byte	255                             # @LPStart Encoding = omit
	.byte	255                             # @TType Encoding = omit
	.byte	1                               # Call site Encoding = uleb128
	.uleb128 .Lcst_end17-.Lcst_begin17
.Lcst_begin17:
	.uleb128 .Ltmp248-.Lfunc_begin17        # >> Call Site 1 <<
	.uleb128 .Ltmp249-.Ltmp248              #   Call between .Ltmp248 and .Ltmp249
	.uleb128 .Ltmp250-.Lfunc_begin17        #     jumps to .Ltmp250
	.byte	0                               #   On action: cleanup
	.uleb128 .Ltmp249-.Lfunc_begin17        # >> Call Site 2 <<
	.uleb128 .Lfunc_end28-.Ltmp249          #   Call between .Ltmp249 and .Lfunc_end28
	.byte	0                               #     has no landing pad
	.byte	0                               #   On action: cleanup
.Lcst_end17:
	.p2align	2, 0x0
                                        # -- End function
	.section	.text._ZN9benchmark13BenchmarkNameD2Ev,"axG",@progbits,_ZN9benchmark13BenchmarkNameD2Ev,comdat
	.hidden	_ZN9benchmark13BenchmarkNameD2Ev # -- Begin function _ZN9benchmark13BenchmarkNameD2Ev
	.weak	_ZN9benchmark13BenchmarkNameD2Ev
	.p2align	5
	.type	_ZN9benchmark13BenchmarkNameD2Ev,@function
_ZN9benchmark13BenchmarkNameD2Ev:       # @_ZN9benchmark13BenchmarkNameD2Ev
	.cfi_startproc
# %bb.0:                                # %entry
	addi.d	$sp, $sp, -16
	.cfi_def_cfa_offset 16
	st.d	$ra, $sp, 8                     # 8-byte Folded Spill
	st.d	$fp, $sp, 0                     # 8-byte Folded Spill
	.cfi_offset 1, -8
	.cfi_offset 22, -16
	move	$fp, $a0
	ld.d	$a0, $a0, 224
	addi.d	$a1, $fp, 240
	beq	$a0, $a1, .LBB29_2
# %bb.1:                                # %if.then.i.i
	ld.d	$a1, $a1, 0
	addi.d	$a1, $a1, 1
	pcaddu18i	$ra, %call36(_ZdlPvm)
	jirl	$ra, $ra, 0
.LBB29_2:                               # %_ZNSt7__cxx1112basic_stringIcSt11char_traitsIcESaIcEED2Ev.exit
	ld.d	$a0, $fp, 192
	addi.d	$a1, $fp, 208
	beq	$a0, $a1, .LBB29_4
# %bb.3:                                # %if.then.i.i2
	ld.d	$a1, $a1, 0
	addi.d	$a1, $a1, 1
	pcaddu18i	$ra, %call36(_ZdlPvm)
	jirl	$ra, $ra, 0
.LBB29_4:                               # %_ZNSt7__cxx1112basic_stringIcSt11char_traitsIcESaIcEED2Ev.exit7
	ld.d	$a0, $fp, 160
	addi.d	$a1, $fp, 176
	beq	$a0, $a1, .LBB29_6
# %bb.5:                                # %if.then.i.i9
	ld.d	$a1, $a1, 0
	addi.d	$a1, $a1, 1
	pcaddu18i	$ra, %call36(_ZdlPvm)
	jirl	$ra, $ra, 0
.LBB29_6:                               # %_ZNSt7__cxx1112basic_stringIcSt11char_traitsIcESaIcEED2Ev.exit14
	ld.d	$a0, $fp, 128
	addi.d	$a1, $fp, 144
	beq	$a0, $a1, .LBB29_8
# %bb.7:                                # %if.then.i.i16
	ld.d	$a1, $a1, 0
	addi.d	$a1, $a1, 1
	pcaddu18i	$ra, %call36(_ZdlPvm)
	jirl	$ra, $ra, 0
.LBB29_8:                               # %_ZNSt7__cxx1112basic_stringIcSt11char_traitsIcESaIcEED2Ev.exit21
	ld.d	$a0, $fp, 96
	addi.d	$a1, $fp, 112
	beq	$a0, $a1, .LBB29_10
# %bb.9:                                # %if.then.i.i23
	ld.d	$a1, $a1, 0
	addi.d	$a1, $a1, 1
	pcaddu18i	$ra, %call36(_ZdlPvm)
	jirl	$ra, $ra, 0
.LBB29_10:                              # %_ZNSt7__cxx1112basic_stringIcSt11char_traitsIcESaIcEED2Ev.exit28
	ld.d	$a0, $fp, 64
	addi.d	$a1, $fp, 80
	beq	$a0, $a1, .LBB29_12
# %bb.11:                               # %if.then.i.i30
	ld.d	$a1, $a1, 0
	addi.d	$a1, $a1, 1
	pcaddu18i	$ra, %call36(_ZdlPvm)
	jirl	$ra, $ra, 0
.LBB29_12:                              # %_ZNSt7__cxx1112basic_stringIcSt11char_traitsIcESaIcEED2Ev.exit35
	ld.d	$a0, $fp, 32
	addi.d	$a1, $fp, 48
	beq	$a0, $a1, .LBB29_14
# %bb.13:                               # %if.then.i.i37
	ld.d	$a1, $a1, 0
	addi.d	$a1, $a1, 1
	pcaddu18i	$ra, %call36(_ZdlPvm)
	jirl	$ra, $ra, 0
.LBB29_14:                              # %_ZNSt7__cxx1112basic_stringIcSt11char_traitsIcESaIcEED2Ev.exit42
	ld.d	$a0, $fp, 0
	addi.d	$a1, $fp, 16
	beq	$a0, $a1, .LBB29_16
# %bb.15:                               # %if.then.i.i44
	ld.d	$a1, $a1, 0
	addi.d	$a1, $a1, 1
	ld.d	$fp, $sp, 0                     # 8-byte Folded Reload
	ld.d	$ra, $sp, 8                     # 8-byte Folded Reload
	addi.d	$sp, $sp, 16
	pcaddu18i	$t8, %call36(_ZdlPvm)
	jr	$t8
.LBB29_16:                              # %_ZNSt7__cxx1112basic_stringIcSt11char_traitsIcESaIcEED2Ev.exit49
	ld.d	$fp, $sp, 0                     # 8-byte Folded Reload
	ld.d	$ra, $sp, 8                     # 8-byte Folded Reload
	addi.d	$sp, $sp, 16
	ret
.Lfunc_end29:
	.size	_ZN9benchmark13BenchmarkNameD2Ev, .Lfunc_end29-_ZN9benchmark13BenchmarkNameD2Ev
	.cfi_endproc
                                        # -- End function
	.section	.text._ZNKSt14default_deleteIN9benchmark8internal13ThreadManagerEEclEPS2_,"axG",@progbits,_ZNKSt14default_deleteIN9benchmark8internal13ThreadManagerEEclEPS2_,comdat
	.hidden	_ZNKSt14default_deleteIN9benchmark8internal13ThreadManagerEEclEPS2_ # -- Begin function _ZNKSt14default_deleteIN9benchmark8internal13ThreadManagerEEclEPS2_
	.weak	_ZNKSt14default_deleteIN9benchmark8internal13ThreadManagerEEclEPS2_
	.p2align	5
	.type	_ZNKSt14default_deleteIN9benchmark8internal13ThreadManagerEEclEPS2_,@function
_ZNKSt14default_deleteIN9benchmark8internal13ThreadManagerEEclEPS2_: # @_ZNKSt14default_deleteIN9benchmark8internal13ThreadManagerEEclEPS2_
.Lfunc_begin18:
	.cfi_startproc
	.cfi_personality 155, DW.ref.__gxx_personality_v0
	.cfi_lsda 27, .Lexception18
# %bb.0:                                # %entry
	addi.d	$sp, $sp, -16
	.cfi_def_cfa_offset 16
	st.d	$ra, $sp, 8                     # 8-byte Folded Spill
	st.d	$fp, $sp, 0                     # 8-byte Folded Spill
	.cfi_offset 1, -8
	.cfi_offset 22, -16
	beqz	$a1, .LBB30_7
# %bb.1:                                # %delete.notnull
	move	$fp, $a1
	addi.d	$a0, $a1, 352
	pcaddu18i	$ra, %call36(_ZNSt18condition_variableD1Ev)
	jirl	$ra, $ra, 0
	addi.d	$a0, $fp, 248
	pcaddu18i	$ra, %call36(_ZNSt18condition_variableD1Ev)
	jirl	$ra, $ra, 0
	ld.d	$a1, $fp, 128
	addi.d	$a0, $fp, 112
.Ltmp251:                               # EH_LABEL
	pcaddu18i	$ra, %call36(_ZNSt8_Rb_treeINSt7__cxx1112basic_stringIcSt11char_traitsIcESaIcEEESt4pairIKS5_N9benchmark7CounterEESt10_Select1stISA_ESt4lessIS5_ESaISA_EE8_M_eraseEPSt13_Rb_tree_nodeISA_E)
	jirl	$ra, $ra, 0
.Ltmp252:                               # EH_LABEL
# %bb.2:                                # %_ZNSt3mapINSt7__cxx1112basic_stringIcSt11char_traitsIcESaIcEEEN9benchmark7CounterESt4lessIS5_ESaISt4pairIKS5_S7_EEED2Ev.exit.i.i
	ld.d	$a0, $fp, 72
	addi.d	$a1, $fp, 88
	beq	$a0, $a1, .LBB30_4
# %bb.3:                                # %if.then.i.i.i.i
	ld.d	$a1, $a1, 0
	addi.d	$a1, $a1, 1
	pcaddu18i	$ra, %call36(_ZdlPvm)
	jirl	$ra, $ra, 0
.LBB30_4:                               # %_ZNSt7__cxx1112basic_stringIcSt11char_traitsIcESaIcEED2Ev.exit.i.i
	ld.d	$a0, $fp, 40
	addi.d	$a1, $fp, 56
	beq	$a0, $a1, .LBB30_6
# %bb.5:                                # %if.then.i.i2.i.i
	ld.d	$a1, $a1, 0
	addi.d	$a1, $a1, 1
	pcaddu18i	$ra, %call36(_ZdlPvm)
	jirl	$ra, $ra, 0
.LBB30_6:                               # %_ZN9benchmark8internal13ThreadManagerD2Ev.exit
	ori	$a1, $zero, 400
	move	$a0, $fp
	ld.d	$fp, $sp, 0                     # 8-byte Folded Reload
	ld.d	$ra, $sp, 8                     # 8-byte Folded Reload
	addi.d	$sp, $sp, 16
	pcaddu18i	$t8, %call36(_ZdlPvm)
	jr	$t8
.LBB30_7:                               # %delete.end
	ld.d	$fp, $sp, 0                     # 8-byte Folded Reload
	ld.d	$ra, $sp, 8                     # 8-byte Folded Reload
	addi.d	$sp, $sp, 16
	ret
.LBB30_8:                               # %terminate.lpad.i.i.i.i
.Ltmp253:                               # EH_LABEL
	pcaddu18i	$ra, %call36(__clang_call_terminate)
	jirl	$ra, $ra, 0
.Lfunc_end30:
	.size	_ZNKSt14default_deleteIN9benchmark8internal13ThreadManagerEEclEPS2_, .Lfunc_end30-_ZNKSt14default_deleteIN9benchmark8internal13ThreadManagerEEclEPS2_
	.cfi_endproc
	.section	.gcc_except_table._ZNKSt14default_deleteIN9benchmark8internal13ThreadManagerEEclEPS2_,"aG",@progbits,_ZNKSt14default_deleteIN9benchmark8internal13ThreadManagerEEclEPS2_,comdat
	.p2align	2, 0x0
GCC_except_table30:
.Lexception18:
	.byte	255                             # @LPStart Encoding = omit
	.byte	155                             # @TType Encoding = indirect pcrel sdata4
	.uleb128 .Lttbase12-.Lttbaseref12
.Lttbaseref12:
	.byte	1                               # Call site Encoding = uleb128
	.uleb128 .Lcst_end18-.Lcst_begin18
.Lcst_begin18:
	.uleb128 .Lfunc_begin18-.Lfunc_begin18  # >> Call Site 1 <<
	.uleb128 .Ltmp251-.Lfunc_begin18        #   Call between .Lfunc_begin18 and .Ltmp251
	.byte	0                               #     has no landing pad
	.byte	0                               #   On action: cleanup
	.uleb128 .Ltmp251-.Lfunc_begin18        # >> Call Site 2 <<
	.uleb128 .Ltmp252-.Ltmp251              #   Call between .Ltmp251 and .Ltmp252
	.uleb128 .Ltmp253-.Lfunc_begin18        #     jumps to .Ltmp253
	.byte	1                               #   On action: 1
	.uleb128 .Ltmp252-.Lfunc_begin18        # >> Call Site 3 <<
	.uleb128 .Lfunc_end30-.Ltmp252          #   Call between .Ltmp252 and .Lfunc_end30
	.byte	0                               #     has no landing pad
	.byte	0                               #   On action: cleanup
.Lcst_end18:
	.byte	1                               # >> Action Record 1 <<
                                        #   Catch TypeInfo 1
	.byte	0                               #   No further actions
	.p2align	2, 0x0
                                        # >> Catch TypeInfos <<
	.word	0                               # TypeInfo 1
.Lttbase12:
	.p2align	2, 0x0
                                        # -- End function
	.section	.text._ZNSt6thread24_M_thread_deps_never_runEv,"axG",@progbits,_ZNSt6thread24_M_thread_deps_never_runEv,comdat
	.hidden	_ZNSt6thread24_M_thread_deps_never_runEv # -- Begin function _ZNSt6thread24_M_thread_deps_never_runEv
	.weak	_ZNSt6thread24_M_thread_deps_never_runEv
	.p2align	5
	.type	_ZNSt6thread24_M_thread_deps_never_runEv,@function
_ZNSt6thread24_M_thread_deps_never_runEv: # @_ZNSt6thread24_M_thread_deps_never_runEv
# %bb.0:                                # %entry
	ret
.Lfunc_end31:
	.size	_ZNSt6thread24_M_thread_deps_never_runEv, .Lfunc_end31-_ZNSt6thread24_M_thread_deps_never_runEv
                                        # -- End function
	.section	.text._ZNSt6thread11_State_implINS_8_InvokerISt5tupleIJPFvPKN9benchmark8internal17BenchmarkInstanceEliPNS4_13ThreadManagerEPNS4_23PerfCountersMeasurementEPNS3_15ProfilerManagerEES7_liS9_SB_DnEEEEED0Ev,"axG",@progbits,_ZNSt6thread11_State_implINS_8_InvokerISt5tupleIJPFvPKN9benchmark8internal17BenchmarkInstanceEliPNS4_13ThreadManagerEPNS4_23PerfCountersMeasurementEPNS3_15ProfilerManagerEES7_liS9_SB_DnEEEEED0Ev,comdat
	.hidden	_ZNSt6thread11_State_implINS_8_InvokerISt5tupleIJPFvPKN9benchmark8internal17BenchmarkInstanceEliPNS4_13ThreadManagerEPNS4_23PerfCountersMeasurementEPNS3_15ProfilerManagerEES7_liS9_SB_DnEEEEED0Ev # -- Begin function _ZNSt6thread11_State_implINS_8_InvokerISt5tupleIJPFvPKN9benchmark8internal17BenchmarkInstanceEliPNS4_13ThreadManagerEPNS4_23PerfCountersMeasurementEPNS3_15ProfilerManagerEES7_liS9_SB_DnEEEEED0Ev
	.weak	_ZNSt6thread11_State_implINS_8_InvokerISt5tupleIJPFvPKN9benchmark8internal17BenchmarkInstanceEliPNS4_13ThreadManagerEPNS4_23PerfCountersMeasurementEPNS3_15ProfilerManagerEES7_liS9_SB_DnEEEEED0Ev
	.p2align	5
	.type	_ZNSt6thread11_State_implINS_8_InvokerISt5tupleIJPFvPKN9benchmark8internal17BenchmarkInstanceEliPNS4_13ThreadManagerEPNS4_23PerfCountersMeasurementEPNS3_15ProfilerManagerEES7_liS9_SB_DnEEEEED0Ev,@function
_ZNSt6thread11_State_implINS_8_InvokerISt5tupleIJPFvPKN9benchmark8internal17BenchmarkInstanceEliPNS4_13ThreadManagerEPNS4_23PerfCountersMeasurementEPNS3_15ProfilerManagerEES7_liS9_SB_DnEEEEED0Ev: # @_ZNSt6thread11_State_implINS_8_InvokerISt5tupleIJPFvPKN9benchmark8internal17BenchmarkInstanceEliPNS4_13ThreadManagerEPNS4_23PerfCountersMeasurementEPNS3_15ProfilerManagerEES7_liS9_SB_DnEEEEED0Ev
# %bb.0:                                # %entry
	addi.d	$sp, $sp, -16
	st.d	$ra, $sp, 8                     # 8-byte Folded Spill
	st.d	$fp, $sp, 0                     # 8-byte Folded Spill
	move	$fp, $a0
	pcaddu18i	$ra, %call36(_ZNSt6thread6_StateD2Ev)
	jirl	$ra, $ra, 0
	ori	$a1, $zero, 64
	move	$a0, $fp
	ld.d	$fp, $sp, 0                     # 8-byte Folded Reload
	ld.d	$ra, $sp, 8                     # 8-byte Folded Reload
	addi.d	$sp, $sp, 16
	pcaddu18i	$t8, %call36(_ZdlPvm)
	jr	$t8
.Lfunc_end32:
	.size	_ZNSt6thread11_State_implINS_8_InvokerISt5tupleIJPFvPKN9benchmark8internal17BenchmarkInstanceEliPNS4_13ThreadManagerEPNS4_23PerfCountersMeasurementEPNS3_15ProfilerManagerEES7_liS9_SB_DnEEEEED0Ev, .Lfunc_end32-_ZNSt6thread11_State_implINS_8_InvokerISt5tupleIJPFvPKN9benchmark8internal17BenchmarkInstanceEliPNS4_13ThreadManagerEPNS4_23PerfCountersMeasurementEPNS3_15ProfilerManagerEES7_liS9_SB_DnEEEEED0Ev
                                        # -- End function
	.section	.text._ZNSt6thread11_State_implINS_8_InvokerISt5tupleIJPFvPKN9benchmark8internal17BenchmarkInstanceEliPNS4_13ThreadManagerEPNS4_23PerfCountersMeasurementEPNS3_15ProfilerManagerEES7_liS9_SB_DnEEEEE6_M_runEv,"axG",@progbits,_ZNSt6thread11_State_implINS_8_InvokerISt5tupleIJPFvPKN9benchmark8internal17BenchmarkInstanceEliPNS4_13ThreadManagerEPNS4_23PerfCountersMeasurementEPNS3_15ProfilerManagerEES7_liS9_SB_DnEEEEE6_M_runEv,comdat
	.hidden	_ZNSt6thread11_State_implINS_8_InvokerISt5tupleIJPFvPKN9benchmark8internal17BenchmarkInstanceEliPNS4_13ThreadManagerEPNS4_23PerfCountersMeasurementEPNS3_15ProfilerManagerEES7_liS9_SB_DnEEEEE6_M_runEv # -- Begin function _ZNSt6thread11_State_implINS_8_InvokerISt5tupleIJPFvPKN9benchmark8internal17BenchmarkInstanceEliPNS4_13ThreadManagerEPNS4_23PerfCountersMeasurementEPNS3_15ProfilerManagerEES7_liS9_SB_DnEEEEE6_M_runEv
	.weak	_ZNSt6thread11_State_implINS_8_InvokerISt5tupleIJPFvPKN9benchmark8internal17BenchmarkInstanceEliPNS4_13ThreadManagerEPNS4_23PerfCountersMeasurementEPNS3_15ProfilerManagerEES7_liS9_SB_DnEEEEE6_M_runEv
	.p2align	5
	.type	_ZNSt6thread11_State_implINS_8_InvokerISt5tupleIJPFvPKN9benchmark8internal17BenchmarkInstanceEliPNS4_13ThreadManagerEPNS4_23PerfCountersMeasurementEPNS3_15ProfilerManagerEES7_liS9_SB_DnEEEEE6_M_runEv,@function
_ZNSt6thread11_State_implINS_8_InvokerISt5tupleIJPFvPKN9benchmark8internal17BenchmarkInstanceEliPNS4_13ThreadManagerEPNS4_23PerfCountersMeasurementEPNS3_15ProfilerManagerEES7_liS9_SB_DnEEEEE6_M_runEv: # @_ZNSt6thread11_State_implINS_8_InvokerISt5tupleIJPFvPKN9benchmark8internal17BenchmarkInstanceEliPNS4_13ThreadManagerEPNS4_23PerfCountersMeasurementEPNS3_15ProfilerManagerEES7_liS9_SB_DnEEEEE6_M_runEv
	.cfi_startproc
# %bb.0:                                # %entry
	ld.d	$a6, $a0, 56
	ld.d	$a5, $a0, 48
	ld.d	$a1, $a0, 40
	ld.w	$a2, $a0, 32
	ld.d	$a3, $a0, 24
	ld.d	$a4, $a0, 16
	move	$a0, $a5
	move	$a5, $zero
	jr	$a6
.Lfunc_end33:
	.size	_ZNSt6thread11_State_implINS_8_InvokerISt5tupleIJPFvPKN9benchmark8internal17BenchmarkInstanceEliPNS4_13ThreadManagerEPNS4_23PerfCountersMeasurementEPNS3_15ProfilerManagerEES7_liS9_SB_DnEEEEE6_M_runEv, .Lfunc_end33-_ZNSt6thread11_State_implINS_8_InvokerISt5tupleIJPFvPKN9benchmark8internal17BenchmarkInstanceEliPNS4_13ThreadManagerEPNS4_23PerfCountersMeasurementEPNS3_15ProfilerManagerEES7_liS9_SB_DnEEEEE6_M_runEv
	.cfi_endproc
                                        # -- End function
	.section	.text._ZNSt6vectorIN9benchmark17BenchmarkReporter3RunESaIS2_EE17_M_realloc_appendIJRKS2_EEEvDpOT_,"axG",@progbits,_ZNSt6vectorIN9benchmark17BenchmarkReporter3RunESaIS2_EE17_M_realloc_appendIJRKS2_EEEvDpOT_,comdat
	.hidden	_ZNSt6vectorIN9benchmark17BenchmarkReporter3RunESaIS2_EE17_M_realloc_appendIJRKS2_EEEvDpOT_ # -- Begin function _ZNSt6vectorIN9benchmark17BenchmarkReporter3RunESaIS2_EE17_M_realloc_appendIJRKS2_EEEvDpOT_
	.weak	_ZNSt6vectorIN9benchmark17BenchmarkReporter3RunESaIS2_EE17_M_realloc_appendIJRKS2_EEEvDpOT_
	.p2align	5
	.type	_ZNSt6vectorIN9benchmark17BenchmarkReporter3RunESaIS2_EE17_M_realloc_appendIJRKS2_EEEvDpOT_,@function
_ZNSt6vectorIN9benchmark17BenchmarkReporter3RunESaIS2_EE17_M_realloc_appendIJRKS2_EEEvDpOT_: # @_ZNSt6vectorIN9benchmark17BenchmarkReporter3RunESaIS2_EE17_M_realloc_appendIJRKS2_EEEvDpOT_
.Lfunc_begin19:
	.cfi_startproc
	.cfi_personality 155, DW.ref.__gxx_personality_v0
	.cfi_lsda 27, .Lexception19
# %bb.0:                                # %entry
	addi.d	$sp, $sp, -80
	.cfi_def_cfa_offset 80
	st.d	$ra, $sp, 72                    # 8-byte Folded Spill
	st.d	$fp, $sp, 64                    # 8-byte Folded Spill
	st.d	$s0, $sp, 56                    # 8-byte Folded Spill
	st.d	$s1, $sp, 48                    # 8-byte Folded Spill
	st.d	$s2, $sp, 40                    # 8-byte Folded Spill
	st.d	$s3, $sp, 32                    # 8-byte Folded Spill
