	.file	"benchmark_register.cc"
                                        # Start of file scope inline assembly
	.globl	_ZSt21ios_base_library_initv

                                        # End of file scope inline assembly
	.text
	.hidden	_ZN9benchmark8internal17BenchmarkFamilies11GetInstanceEv # -- Begin function _ZN9benchmark8internal17BenchmarkFamilies11GetInstanceEv
	.globl	_ZN9benchmark8internal17BenchmarkFamilies11GetInstanceEv
	.p2align	2
	.type	_ZN9benchmark8internal17BenchmarkFamilies11GetInstanceEv,@function
_ZN9benchmark8internal17BenchmarkFamilies11GetInstanceEv: # @_ZN9benchmark8internal17BenchmarkFamilies11GetInstanceEv
	.cfi_startproc
# %bb.0:                                # %entry
	pcalau12i	$a0, %pc_hi20(_ZGVZN9benchmark8internal17BenchmarkFamilies11GetInstanceEvE8instance)
	ld.b	$a0, $a0, %pc_lo12(_ZGVZN9benchmark8internal17BenchmarkFamilies11GetInstanceEvE8instance)
	dbar	20
	beqz	$a0, .LBB0_2
# %bb.1:                                # %init.end
	pcalau12i	$a0, %pc_hi20(_ZZN9benchmark8internal17BenchmarkFamilies11GetInstanceEvE8instance)
	addi.d	$a0, $a0, %pc_lo12(_ZZN9benchmark8internal17BenchmarkFamilies11GetInstanceEvE8instance)
	ret
.LBB0_2:                                # %init.check
	addi.d	$sp, $sp, -16
	.cfi_def_cfa_offset 16
	st.d	$ra, $sp, 8                     # 8-byte Folded Spill
	.cfi_offset 1, -8
	pcalau12i	$a0, %pc_hi20(_ZGVZN9benchmark8internal17BenchmarkFamilies11GetInstanceEvE8instance)
	addi.d	$a0, $a0, %pc_lo12(_ZGVZN9benchmark8internal17BenchmarkFamilies11GetInstanceEvE8instance)
	pcaddu18i	$ra, %call36(__cxa_guard_acquire)
	jirl	$ra, $ra, 0
	addi.w	$a0, $a0, 0
	beqz	$a0, .LBB0_4
# %bb.3:                                # %invoke.cont
	pcalau12i	$a0, %pc_hi20(_ZZN9benchmark8internal17BenchmarkFamilies11GetInstanceEvE8instance)
	addi.d	$a1, $a0, %pc_lo12(_ZZN9benchmark8internal17BenchmarkFamilies11GetInstanceEvE8instance)
	xvrepli.b	$xr0, 0
	xvst	$xr0, $a1, 32
	xvst	$xr0, $a1, 0
	pcalau12i	$a0, %pc_hi20(_ZN9benchmark8internal17BenchmarkFamiliesD2Ev)
	addi.d	$a0, $a0, %pc_lo12(_ZN9benchmark8internal17BenchmarkFamiliesD2Ev)
	pcalau12i	$a2, %pc_hi20(__dso_handle)
	addi.d	$a2, $a2, %pc_lo12(__dso_handle)
	pcaddu18i	$ra, %call36(__cxa_atexit)
	jirl	$ra, $ra, 0
	pcalau12i	$a0, %pc_hi20(_ZGVZN9benchmark8internal17BenchmarkFamilies11GetInstanceEvE8instance)
	addi.d	$a0, $a0, %pc_lo12(_ZGVZN9benchmark8internal17BenchmarkFamilies11GetInstanceEvE8instance)
	pcaddu18i	$ra, %call36(__cxa_guard_release)
	jirl	$ra, $ra, 0
.LBB0_4:
	ld.d	$ra, $sp, 8                     # 8-byte Folded Reload
	addi.d	$sp, $sp, 16
	pcalau12i	$a0, %pc_hi20(_ZZN9benchmark8internal17BenchmarkFamilies11GetInstanceEvE8instance)
	addi.d	$a0, $a0, %pc_lo12(_ZZN9benchmark8internal17BenchmarkFamilies11GetInstanceEvE8instance)
	ret
.Lfunc_end0:
	.size	_ZN9benchmark8internal17BenchmarkFamilies11GetInstanceEv, .Lfunc_end0-_ZN9benchmark8internal17BenchmarkFamilies11GetInstanceEv
	.cfi_endproc
                                        # -- End function
	.section	.text._ZN9benchmark8internal17BenchmarkFamiliesD2Ev,"axG",@progbits,_ZN9benchmark8internal17BenchmarkFamiliesD2Ev,comdat
	.hidden	_ZN9benchmark8internal17BenchmarkFamiliesD2Ev # -- Begin function _ZN9benchmark8internal17BenchmarkFamiliesD2Ev
	.weak	_ZN9benchmark8internal17BenchmarkFamiliesD2Ev
	.p2align	2
	.type	_ZN9benchmark8internal17BenchmarkFamiliesD2Ev,@function
_ZN9benchmark8internal17BenchmarkFamiliesD2Ev: # @_ZN9benchmark8internal17BenchmarkFamiliesD2Ev
	.cfi_startproc
# %bb.0:                                # %entry
	addi.d	$sp, $sp, -32
	.cfi_def_cfa_offset 32
	st.d	$ra, $sp, 24                    # 8-byte Folded Spill
	st.d	$fp, $sp, 16                    # 8-byte Folded Spill
	st.d	$s0, $sp, 8                     # 8-byte Folded Spill
	st.d	$s1, $sp, 0                     # 8-byte Folded Spill
	.cfi_offset 1, -8
	.cfi_offset 22, -16
	.cfi_offset 23, -24
	.cfi_offset 24, -32
	move	$fp, $a0
	ld.d	$s0, $a0, 0
	ld.d	$s1, $a0, 8
	bne	$s0, $s1, .LBB1_4
# %bb.1:                                # %invoke.cont.i
	beqz	$s0, .LBB1_7
.LBB1_2:                                # %if.then.i.i.i
	ld.d	$a0, $fp, 16
	sub.d	$a1, $a0, $s0
	move	$a0, $s0
	ld.d	$s1, $sp, 0                     # 8-byte Folded Reload
	ld.d	$s0, $sp, 8                     # 8-byte Folded Reload
	ld.d	$fp, $sp, 16                    # 8-byte Folded Reload
	ld.d	$ra, $sp, 24                    # 8-byte Folded Reload
	addi.d	$sp, $sp, 32
	pcaddu18i	$t8, %call36(_ZdlPvm)
	jr	$t8
	.p2align	4, , 16
.LBB1_3:                                # %_ZSt8_DestroyISt10unique_ptrIN9benchmark8internal9BenchmarkESt14default_deleteIS3_EEEvPT_.exit.i.i
                                        #   in Loop: Header=BB1_4 Depth=1
	st.d	$zero, $s0, 0
	addi.d	$s0, $s0, 8
	beq	$s0, $s1, .LBB1_6
.LBB1_4:                                # %for.body.i.i
                                        # =>This Inner Loop Header: Depth=1
	ld.d	$a0, $s0, 0
	beqz	$a0, .LBB1_3
# %bb.5:                                # %_ZNKSt14default_deleteIN9benchmark8internal9BenchmarkEEclEPS2_.exit.i.i.i.i
                                        #   in Loop: Header=BB1_4 Depth=1
	ld.d	$a1, $a0, 0
	ld.d	$a1, $a1, 8
	jirl	$ra, $a1, 0
	b	.LBB1_3
.LBB1_6:                                # %invoke.contthread-pre-split.i
	ld.d	$s0, $fp, 0
	bnez	$s0, .LBB1_2
.LBB1_7:                                # %_ZNSt6vectorISt10unique_ptrIN9benchmark8internal9BenchmarkESt14default_deleteIS3_EESaIS6_EED2Ev.exit
	ld.d	$s1, $sp, 0                     # 8-byte Folded Reload
	ld.d	$s0, $sp, 8                     # 8-byte Folded Reload
	ld.d	$fp, $sp, 16                    # 8-byte Folded Reload
	ld.d	$ra, $sp, 24                    # 8-byte Folded Reload
	addi.d	$sp, $sp, 32
	ret
.Lfunc_end1:
	.size	_ZN9benchmark8internal17BenchmarkFamiliesD2Ev, .Lfunc_end1-_ZN9benchmark8internal17BenchmarkFamiliesD2Ev
	.cfi_endproc
                                        # -- End function
	.text
	.hidden	_ZN9benchmark8internal17BenchmarkFamilies12AddBenchmarkESt10unique_ptrINS0_9BenchmarkESt14default_deleteIS3_EE # -- Begin function _ZN9benchmark8internal17BenchmarkFamilies12AddBenchmarkESt10unique_ptrINS0_9BenchmarkESt14default_deleteIS3_EE
	.globl	_ZN9benchmark8internal17BenchmarkFamilies12AddBenchmarkESt10unique_ptrINS0_9BenchmarkESt14default_deleteIS3_EE
	.p2align	2
	.type	_ZN9benchmark8internal17BenchmarkFamilies12AddBenchmarkESt10unique_ptrINS0_9BenchmarkESt14default_deleteIS3_EE,@function
_ZN9benchmark8internal17BenchmarkFamilies12AddBenchmarkESt10unique_ptrINS0_9BenchmarkESt14default_deleteIS3_EE: # @_ZN9benchmark8internal17BenchmarkFamilies12AddBenchmarkESt10unique_ptrINS0_9BenchmarkESt14default_deleteIS3_EE
.Lfunc_begin0:
	.cfi_startproc
	.cfi_personality 155, DW.ref.__gxx_personality_v0
	.cfi_lsda 27, .Lexception0
# %bb.0:                                # %entry
	addi.d	$sp, $sp, -96
	.cfi_def_cfa_offset 96
	st.d	$ra, $sp, 88                    # 8-byte Folded Spill
	st.d	$fp, $sp, 80                    # 8-byte Folded Spill
	st.d	$s0, $sp, 72                    # 8-byte Folded Spill
	st.d	$s1, $sp, 64                    # 8-byte Folded Spill
	st.d	$s2, $sp, 56                    # 8-byte Folded Spill
	st.d	$s3, $sp, 48                    # 8-byte Folded Spill
	st.d	$s4, $sp, 40                    # 8-byte Folded Spill
	st.d	$s5, $sp, 32                    # 8-byte Folded Spill
	st.d	$s6, $sp, 24                    # 8-byte Folded Spill
	st.d	$s7, $sp, 16                    # 8-byte Folded Spill
	st.d	$s8, $sp, 8                     # 8-byte Folded Spill
	.cfi_offset 1, -8
	.cfi_offset 22, -16
	.cfi_offset 23, -24
	.cfi_offset 24, -32
	.cfi_offset 25, -40
	.cfi_offset 26, -48
	.cfi_offset 27, -56
	.cfi_offset 28, -64
	.cfi_offset 29, -72
	.cfi_offset 30, -80
	.cfi_offset 31, -88
	move	$s5, $a1
	move	$s0, $a0
	addi.d	$fp, $a0, 24
	move	$a0, $fp
	pcaddu18i	$ra, %call36(pthread_mutex_lock)
	jirl	$ra, $ra, 0
	bnez	$a0, .LBB2_17
# %bb.1:                                # %_ZN9benchmark9MutexLockC2ERNS_5MutexE.exit
	ld.d	$s6, $s0, 8
	ld.d	$s2, $s0, 0
	ld.d	$a0, $s0, 16
	sub.d	$s3, $s6, $s2
	srai.d	$s1, $s3, 3
	beq	$s6, $a0, .LBB2_3
# %bb.2:                                # %if.then.i.i
	ld.d	$a0, $s5, 0
	st.d	$a0, $s6, 0
	st.d	$zero, $s5, 0
	addi.d	$a0, $s6, 8
	st.d	$a0, $s0, 8
	b	.LBB2_16
.LBB2_3:                                # %if.else.i.i
	addi.w	$s8, $zero, -8
	lu52i.d	$a0, $s8, 2047
	beq	$s3, $a0, .LBB2_18
# %bb.4:                                # %_ZNKSt6vectorISt10unique_ptrIN9benchmark8internal9BenchmarkESt14default_deleteIS3_EESaIS6_EE12_M_check_lenEmPKc.exit.i.i.i
	ori	$a0, $zero, 1
	sltu	$a1, $a0, $s1
	masknez	$a0, $a0, $a1
	maskeqz	$a1, $s1, $a1
	or	$a0, $a1, $a0
	add.d	$a0, $a0, $s1
	addi.w	$a1, $zero, -1
	lu52i.d	$a1, $a1, 255
	sltu	$a2, $a0, $a1
	maskeqz	$a0, $a0, $a2
	masknez	$a1, $a1, $a2
	or	$s7, $a0, $a1
	slli.d	$a0, $s7, 3
.Ltmp0:                                 # EH_LABEL
	pcaddu18i	$ra, %call36(_Znwm)
	jirl	$ra, $ra, 0
.Ltmp1:                                 # EH_LABEL
# %bb.5:                                # %call5.i.i.i.i.i.noexc
	move	$s4, $a0
	ld.d	$a0, $s5, 0
	stx.d	$a0, $s4, $s3
	st.d	$zero, $s5, 0
	move	$s5, $s4
	beq	$s2, $s6, .LBB2_13
# %bb.6:                                # %for.body.i.i.i.i.i.i.preheader
	addi.d	$a1, $s3, -8
	ori	$a2, $zero, 88
	move	$s5, $s4
	move	$a0, $s2
	bltu	$a1, $a2, .LBB2_12
# %bb.7:                                # %vector.memcheck
	and	$a0, $a1, $s8
	addi.d	$a0, $a0, 8
	add.d	$a2, $s2, $a0
	bgeu	$s4, $a2, .LBB2_9
# %bb.8:                                # %vector.memcheck
	add.d	$a2, $s4, $a0
	move	$s5, $s4
	move	$a0, $s2
	bltu	$s2, $a2, .LBB2_12
.LBB2_9:                                # %vector.ph
	srli.d	$a0, $a1, 3
	addi.d	$a1, $a0, 1
	bstrpick.d	$a0, $a1, 61, 3
	slli.d	$a2, $a0, 3
	slli.d	$a0, $a0, 6
	add.d	$s5, $s4, $a0
	add.d	$a0, $s2, $a0
	addi.d	$a3, $s2, 32
	addi.d	$a4, $s4, 32
	xvrepli.b	$xr0, 0
	move	$a5, $a2
	.p2align	4, , 16
.LBB2_10:                               # %vector.body
                                        # =>This Inner Loop Header: Depth=1
	xvld	$xr1, $a3, -32
	xvld	$xr2, $a3, 0
	xvst	$xr1, $a4, -32
	xvst	$xr2, $a4, 0
	xvst	$xr0, $a3, -32
	xvst	$xr0, $a3, 0
	addi.d	$a3, $a3, 64
	addi.d	$a5, $a5, -8
	addi.d	$a4, $a4, 64
	bnez	$a5, .LBB2_10
# %bb.11:                               # %middle.block
	beq	$a1, $a2, .LBB2_13
	.p2align	4, , 16
.LBB2_12:                               # %for.body.i.i.i.i.i.i
                                        # =>This Inner Loop Header: Depth=1
	ld.d	$a1, $a0, 0
	st.d	$a1, $s5, 0
	st.d	$zero, $a0, 0
	addi.d	$a0, $a0, 8
	addi.d	$s5, $s5, 8
	bne	$a0, $s6, .LBB2_12
.LBB2_13:                               # %_ZNSt6vectorISt10unique_ptrIN9benchmark8internal9BenchmarkESt14default_deleteIS3_EESaIS6_EE11_S_relocateEPS6_S9_S9_RS7_.exit.i.i.i
	beqz	$s2, .LBB2_15
# %bb.14:                               # %_ZNSt12_Vector_baseISt10unique_ptrIN9benchmark8internal9BenchmarkESt14default_deleteIS3_EESaIS6_EE13_M_deallocateEPS6_m.exit.i.i.i.i
	move	$a0, $s2
	move	$a1, $s3
	pcaddu18i	$ra, %call36(_ZdlPvm)
	jirl	$ra, $ra, 0
.LBB2_15:                               # %_ZNSt6vectorISt10unique_ptrIN9benchmark8internal9BenchmarkESt14default_deleteIS3_EESaIS6_EE17_M_realloc_appendIJS6_EEEvDpOT_.exit.i.i
	addi.d	$a0, $s5, 8
	st.d	$s4, $s0, 0
	st.d	$a0, $s0, 8
	alsl.d	$a0, $s7, $s4, 3
	st.d	$a0, $s0, 16
.LBB2_16:                               # %_ZN9benchmark9MutexLockD2Ev.exit
	move	$a0, $fp
	pcaddu18i	$ra, %call36(pthread_mutex_unlock)
	jirl	$ra, $ra, 0
	move	$a0, $s1
	ld.d	$s8, $sp, 8                     # 8-byte Folded Reload
	ld.d	$s7, $sp, 16                    # 8-byte Folded Reload
	ld.d	$s6, $sp, 24                    # 8-byte Folded Reload
	ld.d	$s5, $sp, 32                    # 8-byte Folded Reload
	ld.d	$s4, $sp, 40                    # 8-byte Folded Reload
	ld.d	$s3, $sp, 48                    # 8-byte Folded Reload
	ld.d	$s2, $sp, 56                    # 8-byte Folded Reload
	ld.d	$s1, $sp, 64                    # 8-byte Folded Reload
	ld.d	$s0, $sp, 72                    # 8-byte Folded Reload
	ld.d	$fp, $sp, 80                    # 8-byte Folded Reload
	ld.d	$ra, $sp, 88                    # 8-byte Folded Reload
	addi.d	$sp, $sp, 96
	ret
.LBB2_17:                               # %if.then.i.i.i.i
	pcaddu18i	$ra, %call36(_ZSt20__throw_system_errori)
	jirl	$ra, $ra, 0
.LBB2_18:                               # %if.then.i.i.i.i2
.Ltmp2:                                 # EH_LABEL
	pcalau12i	$a0, %pc_hi20(.L.str.23)
	addi.d	$a0, $a0, %pc_lo12(.L.str.23)
	pcaddu18i	$ra, %call36(_ZSt20__throw_length_errorPKc)
	jirl	$ra, $ra, 0
.Ltmp3:                                 # EH_LABEL
# %bb.19:                               # %.noexc
.LBB2_20:                               # %_ZN9benchmark9MutexLockD2Ev.exit12
.Ltmp4:                                 # EH_LABEL
	move	$s0, $a0
	move	$a0, $fp
	pcaddu18i	$ra, %call36(pthread_mutex_unlock)
	jirl	$ra, $ra, 0
	move	$a0, $s0
	pcaddu18i	$ra, %call36(_Unwind_Resume)
	jirl	$ra, $ra, 0
.Lfunc_end2:
	.size	_ZN9benchmark8internal17BenchmarkFamilies12AddBenchmarkESt10unique_ptrINS0_9BenchmarkESt14default_deleteIS3_EE, .Lfunc_end2-_ZN9benchmark8internal17BenchmarkFamilies12AddBenchmarkESt10unique_ptrINS0_9BenchmarkESt14default_deleteIS3_EE
	.cfi_endproc
	.section	.gcc_except_table,"a",@progbits
	.p2align	2, 0x0
GCC_except_table2:
.Lexception0:
	.byte	255                             # @LPStart Encoding = omit
	.byte	255                             # @TType Encoding = omit
	.byte	1                               # Call site Encoding = uleb128
	.uleb128 .Lcst_end0-.Lcst_begin0
.Lcst_begin0:
	.uleb128 .Lfunc_begin0-.Lfunc_begin0    # >> Call Site 1 <<
	.uleb128 .Ltmp0-.Lfunc_begin0           #   Call between .Lfunc_begin0 and .Ltmp0
	.byte	0                               #     has no landing pad
	.byte	0                               #   On action: cleanup
	.uleb128 .Ltmp0-.Lfunc_begin0           # >> Call Site 2 <<
	.uleb128 .Ltmp1-.Ltmp0                  #   Call between .Ltmp0 and .Ltmp1
	.uleb128 .Ltmp4-.Lfunc_begin0           #     jumps to .Ltmp4
	.byte	0                               #   On action: cleanup
	.uleb128 .Ltmp1-.Lfunc_begin0           # >> Call Site 3 <<
	.uleb128 .Ltmp2-.Ltmp1                  #   Call between .Ltmp1 and .Ltmp2
	.byte	0                               #     has no landing pad
	.byte	0                               #   On action: cleanup
	.uleb128 .Ltmp2-.Lfunc_begin0           # >> Call Site 4 <<
	.uleb128 .Ltmp3-.Ltmp2                  #   Call between .Ltmp2 and .Ltmp3
	.uleb128 .Ltmp4-.Lfunc_begin0           #     jumps to .Ltmp4
	.byte	0                               #   On action: cleanup
	.uleb128 .Ltmp3-.Lfunc_begin0           # >> Call Site 5 <<
	.uleb128 .Lfunc_end2-.Ltmp3             #   Call between .Ltmp3 and .Lfunc_end2
	.byte	0                               #     has no landing pad
	.byte	0                               #   On action: cleanup
.Lcst_end0:
	.p2align	2, 0x0
                                        # -- End function
	.text
	.hidden	_ZN9benchmark8internal17BenchmarkFamilies15ClearBenchmarksEv # -- Begin function _ZN9benchmark8internal17BenchmarkFamilies15ClearBenchmarksEv
	.globl	_ZN9benchmark8internal17BenchmarkFamilies15ClearBenchmarksEv
	.p2align	2
	.type	_ZN9benchmark8internal17BenchmarkFamilies15ClearBenchmarksEv,@function
_ZN9benchmark8internal17BenchmarkFamilies15ClearBenchmarksEv: # @_ZN9benchmark8internal17BenchmarkFamilies15ClearBenchmarksEv
	.cfi_startproc
# %bb.0:                                # %entry
	addi.d	$sp, $sp, -48
	.cfi_def_cfa_offset 48
	st.d	$ra, $sp, 40                    # 8-byte Folded Spill
	st.d	$fp, $sp, 32                    # 8-byte Folded Spill
	st.d	$s0, $sp, 24                    # 8-byte Folded Spill
	st.d	$s1, $sp, 16                    # 8-byte Folded Spill
	st.d	$s2, $sp, 8                     # 8-byte Folded Spill
	st.d	$s3, $sp, 0                     # 8-byte Folded Spill
	.cfi_offset 1, -8
	.cfi_offset 22, -16
	.cfi_offset 23, -24
	.cfi_offset 24, -32
	.cfi_offset 25, -40
	.cfi_offset 26, -48
	move	$s0, $a0
	addi.d	$fp, $a0, 24
	move	$a0, $fp
	pcaddu18i	$ra, %call36(pthread_mutex_lock)
	jirl	$ra, $ra, 0
	bnez	$a0, .LBB3_10
# %bb.1:                                # %_ZN9benchmark9MutexLockC2ERNS_5MutexE.exit
	ld.d	$s1, $s0, 0
	ld.d	$s2, $s0, 8
	move	$a0, $s1
	beq	$s2, $s1, .LBB3_7
# %bb.2:                                # %for.body.i.i.i.preheader
	move	$s3, $s1
	b	.LBB3_4
	.p2align	4, , 16
.LBB3_3:                                # %_ZSt8_DestroyISt10unique_ptrIN9benchmark8internal9BenchmarkESt14default_deleteIS3_EEEvPT_.exit.i.i.i
                                        #   in Loop: Header=BB3_4 Depth=1
	st.d	$zero, $s3, 0
	addi.d	$s3, $s3, 8
	beq	$s3, $s2, .LBB3_6
.LBB3_4:                                # %for.body.i.i.i
                                        # =>This Inner Loop Header: Depth=1
	ld.d	$a0, $s3, 0
	beqz	$a0, .LBB3_3
# %bb.5:                                # %_ZNKSt14default_deleteIN9benchmark8internal9BenchmarkEEclEPS2_.exit.i.i.i.i.i
                                        #   in Loop: Header=BB3_4 Depth=1
	ld.d	$a1, $a0, 0
	ld.d	$a1, $a1, 8
	jirl	$ra, $a1, 0
	b	.LBB3_3
.LBB3_6:                                # %invoke.cont.i.i
	ld.d	$a0, $s0, 0
	st.d	$s1, $s0, 8
.LBB3_7:                                # %_ZNSt6vectorISt10unique_ptrIN9benchmark8internal9BenchmarkESt14default_deleteIS3_EESaIS6_EE5clearEv.exit
	ld.d	$a1, $s0, 16
	sub.d	$a1, $a1, $a0
	srai.d	$a1, $a1, 3
	sub.d	$a0, $s1, $a0
	srai.d	$a0, $a0, 3
	beq	$a1, $a0, .LBB3_9
# %bb.8:                                # %if.end.i.i
	move	$a0, $s0
	pcaddu18i	$ra, %call36(_ZNSt19__shrink_to_fit_auxISt6vectorISt10unique_ptrIN9benchmark8internal9BenchmarkESt14default_deleteIS4_EESaIS7_EELb1EE8_S_do_itERS9_)
	jirl	$ra, $ra, 0
.LBB3_9:                                # %_ZN9benchmark9MutexLockD2Ev.exit
	move	$a0, $fp
	ld.d	$s3, $sp, 0                     # 8-byte Folded Reload
	ld.d	$s2, $sp, 8                     # 8-byte Folded Reload
	ld.d	$s1, $sp, 16                    # 8-byte Folded Reload
	ld.d	$s0, $sp, 24                    # 8-byte Folded Reload
	ld.d	$fp, $sp, 32                    # 8-byte Folded Reload
	ld.d	$ra, $sp, 40                    # 8-byte Folded Reload
	addi.d	$sp, $sp, 48
	pcaddu18i	$t8, %call36(pthread_mutex_unlock)
	jr	$t8
.LBB3_10:                               # %if.then.i.i.i.i
	pcaddu18i	$ra, %call36(_ZSt20__throw_system_errori)
	jirl	$ra, $ra, 0
.Lfunc_end3:
	.size	_ZN9benchmark8internal17BenchmarkFamilies15ClearBenchmarksEv, .Lfunc_end3-_ZN9benchmark8internal17BenchmarkFamilies15ClearBenchmarksEv
	.cfi_endproc
                                        # -- End function
	.hidden	_ZN9benchmark8internal17BenchmarkFamilies14FindBenchmarksENSt7__cxx1112basic_stringIcSt11char_traitsIcESaIcEEEPSt6vectorINS0_17BenchmarkInstanceESaIS9_EEPSo # -- Begin function _ZN9benchmark8internal17BenchmarkFamilies14FindBenchmarksENSt7__cxx1112basic_stringIcSt11char_traitsIcESaIcEEEPSt6vectorINS0_17BenchmarkInstanceESaIS9_EEPSo
	.globl	_ZN9benchmark8internal17BenchmarkFamilies14FindBenchmarksENSt7__cxx1112basic_stringIcSt11char_traitsIcESaIcEEEPSt6vectorINS0_17BenchmarkInstanceESaIS9_EEPSo
	.p2align	2
	.type	_ZN9benchmark8internal17BenchmarkFamilies14FindBenchmarksENSt7__cxx1112basic_stringIcSt11char_traitsIcESaIcEEEPSt6vectorINS0_17BenchmarkInstanceESaIS9_EEPSo,@function
_ZN9benchmark8internal17BenchmarkFamilies14FindBenchmarksENSt7__cxx1112basic_stringIcSt11char_traitsIcESaIcEEEPSt6vectorINS0_17BenchmarkInstanceESaIS9_EEPSo: # @_ZN9benchmark8internal17BenchmarkFamilies14FindBenchmarksENSt7__cxx1112basic_stringIcSt11char_traitsIcESaIcEEEPSt6vectorINS0_17BenchmarkInstanceESaIS9_EEPSo
.Lfunc_begin1:
	.cfi_startproc
	.cfi_personality 155, DW.ref.__gxx_personality_v0
	.cfi_lsda 27, .Lexception1
# %bb.0:                                # %entry
	addi.d	$sp, $sp, -896
	.cfi_def_cfa_offset 896
	st.d	$ra, $sp, 888                   # 8-byte Folded Spill
	st.d	$fp, $sp, 880                   # 8-byte Folded Spill
	st.d	$s0, $sp, 872                   # 8-byte Folded Spill
	st.d	$s1, $sp, 864                   # 8-byte Folded Spill
	st.d	$s2, $sp, 856                   # 8-byte Folded Spill
	st.d	$s3, $sp, 848                   # 8-byte Folded Spill
	st.d	$s4, $sp, 840                   # 8-byte Folded Spill
	st.d	$s5, $sp, 832                   # 8-byte Folded Spill
	st.d	$s6, $sp, 824                   # 8-byte Folded Spill
	st.d	$s7, $sp, 816                   # 8-byte Folded Spill
	st.d	$s8, $sp, 808                   # 8-byte Folded Spill
	.cfi_offset 1, -8
	.cfi_offset 22, -16
	.cfi_offset 23, -24
	.cfi_offset 24, -32
	.cfi_offset 25, -40
	.cfi_offset 26, -48
	.cfi_offset 27, -56
	.cfi_offset 28, -64
	.cfi_offset 29, -72
	.cfi_offset 30, -80
	.cfi_offset 31, -88
	pcalau12i	$a4, %pc_hi20(_ZGVZN9benchmark8internal18GetNullLogInstanceEvE8null_log)
	addi.d	$a4, $a4, %pc_lo12(_ZGVZN9benchmark8internal18GetNullLogInstanceEvE8null_log)
	st.d	$a4, $sp, 40                    # 8-byte Folded Spill
	ld.b	$a4, $a4, 0
	st.d	$a3, $sp, 80                    # 8-byte Folded Spill
	move	$s5, $a2
	move	$s0, $a1
	move	$fp, $a0
	dbar	20
	beqz	$a4, .LBB4_168
.LBB4_1:                                # %_ZN9benchmark8internal18GetNullLogInstanceEv.exit
	addi.d	$a0, $sp, 760
	st.d	$a0, $sp, 744
	st.d	$zero, $sp, 752
	st.b	$zero, $sp, 760
	st.b	$zero, $sp, 704
	ori	$a0, $zero, 16
	st.w	$a0, $sp, 712
	addi.d	$a0, $sp, 720
	pcaddu18i	$ra, %call36(_ZNSt6localeC1Ev)
	jirl	$ra, $ra, 0
	ld.d	$a0, $s0, 0
	vrepli.b	$vr0, 0
	vst	$vr0, $sp, 64                   # 16-byte Folded Spill
	vst	$vr0, $sp, 728
	ld.bu	$s4, $a0, 0
	ori	$a0, $zero, 45
	bne	$s4, $a0, .LBB4_3
# %bb.2:                                # %if.then
	ld.d	$a0, $s0, 8
	sltu	$a2, $zero, $a0
.Ltmp5:                                 # EH_LABEL
	pcalau12i	$a0, %pc_hi20(.L.str)
	addi.d	$a3, $a0, %pc_lo12(.L.str)
	move	$a0, $s0
	move	$a1, $zero
	move	$a4, $zero
	pcaddu18i	$ra, %call36(_ZNSt7__cxx1112basic_stringIcSt11char_traitsIcESaIcEE10_M_replaceEmmPKcm)
	jirl	$ra, $ra, 0
.Ltmp6:                                 # EH_LABEL
.LBB4_3:                                # %if.end
.Ltmp7:                                 # EH_LABEL
	addi.d	$a0, $sp, 704
	addi.d	$a2, $sp, 744
	move	$a1, $s0
	pcaddu18i	$ra, %call36(_ZN9benchmark5Regex4InitERKNSt7__cxx1112basic_stringIcSt11char_traitsIcESaIcEEEPS6_)
	jirl	$ra, $ra, 0
	st.d	$a0, $sp, 32                    # 8-byte Folded Spill
.Ltmp8:                                 # EH_LABEL
# %bb.4:                                # %invoke.cont7
	ld.d	$a0, $sp, 32                    # 8-byte Folded Reload
	beqz	$a0, .LBB4_146
# %bb.5:                                # %if.end16
.Ltmp24:                                # EH_LABEL
	ori	$a0, $zero, 4
	pcaddu18i	$ra, %call36(_Znwm)
	jirl	$ra, $ra, 0
.Ltmp25:                                # EH_LABEL
# %bb.6:                                # %invoke.cont19
	st.d	$s0, $sp, 56                    # 8-byte Folded Spill
	ori	$a1, $zero, 1
	st.d	$a0, $sp, 136                   # 8-byte Folded Spill
	st.w	$a1, $a0, 0
	addi.d	$a0, $fp, 24
	st.d	$a0, $sp, 24                    # 8-byte Folded Spill
	pcaddu18i	$ra, %call36(pthread_mutex_lock)
	jirl	$ra, $ra, 0
	bnez	$a0, .LBB4_170
# %bb.7:                                # %invoke.cont21
	ld.d	$s8, $fp, 0
	ld.d	$a0, $fp, 8
	ld.d	$s7, $sp, 136                   # 8-byte Folded Reload
	st.d	$a0, $sp, 88                    # 8-byte Folded Spill
	beq	$s8, $a0, .LBB4_151
# %bb.8:                                # %for.body.lr.ph
	st.d	$zero, $sp, 240                 # 8-byte Folded Spill
	addi.d	$a0, $s7, 4
	st.d	$a0, $sp, 112                   # 8-byte Folded Spill
	addi.d	$s6, $sp, 264
	pcalau12i	$a0, %pc_hi20(_ZZN9benchmark8internal18GetNullLogInstanceEvE8null_log)
	st.d	$a0, $sp, 16                    # 8-byte Folded Spill
	lu12i.w	$a0, -349526
	ori	$a0, $a0, 2731
	lu32i.d	$a0, -349526
	lu52i.d	$a0, $a0, -1366
	st.d	$a0, $sp, 48                    # 8-byte Folded Spill
	lu12i.w	$a0, -474827
	ori	$a0, $a0, 541
	lu32i.d	$a0, -19785
	lu52i.d	$a0, $a0, 540
	st.d	$a0, $sp, 168                   # 8-byte Folded Spill
	xvrepli.b	$xr0, 0
	xvst	$xr0, $sp, 192                  # 32-byte Folded Spill
	lu12i.w	$a0, -79138
	ori	$a0, $a0, 772
	lu32i.d	$a0, -178061
	lu52i.d	$a0, $a0, 4
	st.d	$a0, $sp, 160                   # 8-byte Folded Spill
	st.d	$s4, $sp, 152                   # 8-byte Folded Spill
	b	.LBB4_11
	.p2align	4, , 16
.LBB4_9:                                #   in Loop: Header=BB4_11 Depth=1
	ld.d	$s2, $sp, 240                   # 8-byte Folded Reload
.LBB4_10:                               # %cleanup
                                        #   in Loop: Header=BB4_11 Depth=1
	addi.d	$s8, $s8, 8
	st.d	$s2, $sp, 240                   # 8-byte Folded Spill
	ld.d	$a0, $sp, 88                    # 8-byte Folded Reload
	beq	$s8, $a0, .LBB4_151
.LBB4_11:                               # %for.body
                                        # =>This Loop Header: Depth=1
                                        #     Child Loop BB4_43 Depth 2
                                        #       Child Loop BB4_47 Depth 3
                                        #         Child Loop BB4_100 Depth 4
	ld.d	$fp, $s8, 0
	beqz	$fp, .LBB4_9
# %bb.12:                               # %if.end30
                                        #   in Loop: Header=BB4_11 Depth=1
	ld.d	$a0, $fp, 72
	ld.d	$a1, $fp, 80
	beq	$a0, $a1, .LBB4_14
# %bb.13:                               # %if.end6.i
                                        #   in Loop: Header=BB4_11 Depth=1
	ld.d	$a2, $a0, 8
	ld.d	$a3, $a0, 0
	ori	$a4, $zero, 3
	ld.d	$s3, $sp, 56                    # 8-byte Folded Reload
	b	.LBB4_15
	.p2align	4, , 16
.LBB4_14:                               # %if.then.i
                                        #   in Loop: Header=BB4_11 Depth=1
	ld.d	$a3, $fp, 48
	ld.d	$a2, $fp, 56
	ori	$a4, $zero, 5
	ld.d	$s3, $sp, 56                    # 8-byte Folded Reload
	beq	$a3, $a2, .LBB4_16
.LBB4_15:                               # %_ZNK9benchmark8internal9Benchmark7ArgsCntEv.exit
                                        #   in Loop: Header=BB4_11 Depth=1
	sub.d	$a2, $a2, $a3
	sra.d	$a2, $a2, $a4
	addi.w	$a3, $zero, -1
	lu32i.d	$a3, 0
	and	$a2, $a2, $a3
	bne	$a2, $a3, .LBB4_29
.LBB4_16:                               # %if.then36
                                        #   in Loop: Header=BB4_11 Depth=1
	st.d	$zero, $sp, 296
	vld	$vr0, $sp, 64                   # 16-byte Folded Reload
	vst	$vr0, $sp, 280
	ld.d	$a0, $sp, 40                    # 8-byte Folded Reload
	ld.b	$a0, $a0, 0
	dbar	20
	beqz	$a0, .LBB4_144
.LBB4_17:                               # %_ZN9benchmark8internal18GetNullLogInstanceEv.exit.i
                                        #   in Loop: Header=BB4_11 Depth=1
	ld.d	$s2, $fp, 80
	ld.d	$a0, $fp, 88
	beq	$s2, $a0, .LBB4_21
# %bb.18:                               # %if.then.i.i
                                        #   in Loop: Header=BB4_11 Depth=1
	ld.d	$a0, $sp, 288
	ld.d	$a1, $sp, 280
	sub.d	$s1, $a0, $a1
	st.d	$zero, $s2, 16
	vld	$vr0, $sp, 64                   # 16-byte Folded Reload
	vst	$vr0, $s2, 0
	beq	$a0, $a1, .LBB4_23
# %bb.19:                               # %_ZNSt15__new_allocatorIlE8allocateEmPKv.exit.i.i.i.i.i.i
                                        #   in Loop: Header=BB4_11 Depth=1
.Ltmp30:                                # EH_LABEL
	move	$a0, $s1
	pcaddu18i	$ra, %call36(_Znwm)
	jirl	$ra, $ra, 0
.Ltmp31:                                # EH_LABEL
# %bb.20:                               #   in Loop: Header=BB4_11 Depth=1
	move	$s0, $a0
	move	$s7, $fp
	b	.LBB4_24
.LBB4_21:                               # %if.else.i.i
                                        #   in Loop: Header=BB4_11 Depth=1
.Ltmp32:                                # EH_LABEL
	addi.d	$a0, $fp, 72
	addi.d	$a1, $sp, 280
	pcaddu18i	$ra, %call36(_ZNSt6vectorIS_IlSaIlEESaIS1_EE17_M_realloc_appendIJRKS1_EEEvDpOT_)
	jirl	$ra, $ra, 0
.Ltmp33:                                # EH_LABEL
# %bb.22:                               # %if.else.i.i.invoke.cont40_crit_edge
                                        #   in Loop: Header=BB4_11 Depth=1
	ld.d	$fp, $sp, 280
	bnez	$fp, .LBB4_27
	b	.LBB4_28
.LBB4_23:                               #   in Loop: Header=BB4_11 Depth=1
	move	$s7, $fp
	move	$s0, $zero
.LBB4_24:                               # %invoke.cont.i.i.i
                                        #   in Loop: Header=BB4_11 Depth=1
	st.d	$s0, $s2, 0
	st.d	$s0, $s2, 8
	ld.d	$fp, $sp, 280
	ld.d	$a0, $sp, 288
	add.d	$a1, $s0, $s1
	sub.d	$s1, $a0, $fp
	st.d	$a1, $s2, 16
	ori	$a0, $zero, 1
	blt	$s1, $a0, .LBB4_26
# %bb.25:                               # %if.then.i.i.i.i.i
                                        #   in Loop: Header=BB4_11 Depth=1
	move	$a0, $s0
	move	$a1, $fp
	move	$a2, $s1
	pcaddu18i	$ra, %call36(memcpy)
	jirl	$ra, $ra, 0
	add.d	$s0, $s0, $s1
.LBB4_26:                               # %_ZNSt6vectorIlSaIlEEC2ERKS1_.exit.i.i
                                        #   in Loop: Header=BB4_11 Depth=1
	st.d	$s0, $s2, 8
	ld.d	$a0, $s7, 80
	addi.d	$a0, $a0, 24
	st.d	$a0, $s7, 80
	beqz	$fp, .LBB4_28
.LBB4_27:                               # %if.then.i.i.i64
                                        #   in Loop: Header=BB4_11 Depth=1
	ld.d	$a0, $sp, 296
	sub.d	$a1, $a0, $fp
	move	$a0, $fp
	pcaddu18i	$ra, %call36(_ZdlPvm)
	jirl	$ra, $ra, 0
.LBB4_28:                               # %_ZNSt6vectorIlSaIlEED2Ev.exit
                                        #   in Loop: Header=BB4_11 Depth=1
	ld.d	$fp, $s8, 0
	ld.d	$a1, $fp, 80
	ld.d	$a0, $fp, 72
.LBB4_29:                               # %if.end42
                                        #   in Loop: Header=BB4_11 Depth=1
	ld.d	$a4, $fp, 184
	st.d	$fp, $sp, 96                    # 8-byte Folded Spill
	ld.d	$a3, $fp, 192
	xor	$a2, $a4, $a3
	sltui	$a2, $a2, 1
	sub.d	$a0, $a1, $a0
	srli.d	$a0, $a0, 3
	st.d	$a3, $sp, 120                   # 8-byte Folded Spill
	masknez	$a1, $a3, $a2
	ld.d	$a3, $sp, 112                   # 8-byte Folded Reload
	maskeqz	$a3, $a3, $a2
	or	$a1, $a3, $a1
	st.d	$a4, $sp, 128                   # 8-byte Folded Spill
	masknez	$a3, $a4, $a2
	ld.d	$a4, $sp, 136                   # 8-byte Folded Reload
	maskeqz	$a2, $a4, $a2
	or	$a2, $a2, $a3
	sub.d	$a1, $a1, $a2
	srai.d	$a1, $a1, 2
	mul.d	$a0, $a0, $a1
	ld.d	$a1, $sp, 48                    # 8-byte Folded Reload
	mul.d	$fp, $a0, $a1
	ori	$a0, $zero, 101
	bltu	$fp, $a0, .LBB4_35
# %bb.30:                               # %if.then51
                                        #   in Loop: Header=BB4_11 Depth=1
.Ltmp35:                                # EH_LABEL
	pcalau12i	$a0, %pc_hi20(.L.str.2)
	addi.d	$a1, $a0, %pc_lo12(.L.str.2)
	ori	$a2, $zero, 36
	ld.d	$a0, $sp, 80                    # 8-byte Folded Reload
	pcaddu18i	$ra, %call36(_ZSt16__ostream_insertIcSt11char_traitsIcEERSt13basic_ostreamIT_T0_ES6_PKS3_l)
	jirl	$ra, $ra, 0
.Ltmp36:                                # EH_LABEL
# %bb.31:                               # %invoke.cont53
                                        #   in Loop: Header=BB4_11 Depth=1
	ld.d	$a0, $s8, 0
	ld.d	$a1, $a0, 8
	ld.d	$a2, $a0, 16
.Ltmp37:                                # EH_LABEL
	ld.d	$a0, $sp, 80                    # 8-byte Folded Reload
	pcaddu18i	$ra, %call36(_ZSt16__ostream_insertIcSt11char_traitsIcEERSt13basic_ostreamIT_T0_ES6_PKS3_l)
	jirl	$ra, $ra, 0
.Ltmp38:                                # EH_LABEL
# %bb.32:                               # %invoke.cont56
                                        #   in Loop: Header=BB4_11 Depth=1
.Ltmp39:                                # EH_LABEL
	move	$s0, $a0
	pcalau12i	$a0, %pc_hi20(.L.str.3)
	addi.d	$a1, $a0, %pc_lo12(.L.str.3)
	ori	$a2, $zero, 27
	move	$a0, $s0
	pcaddu18i	$ra, %call36(_ZSt16__ostream_insertIcSt11char_traitsIcEERSt13basic_ostreamIT_T0_ES6_PKS3_l)
	jirl	$ra, $ra, 0
.Ltmp40:                                # EH_LABEL
# %bb.33:                               # %invoke.cont58
                                        #   in Loop: Header=BB4_11 Depth=1
.Ltmp41:                                # EH_LABEL
	move	$a0, $s0
	move	$a1, $fp
	pcaddu18i	$ra, %call36(_ZNSo9_M_insertImEERSoT_)
	jirl	$ra, $ra, 0
.Ltmp42:                                # EH_LABEL
# %bb.34:                               # %invoke.cont60
                                        #   in Loop: Header=BB4_11 Depth=1
.Ltmp43:                                # EH_LABEL
	pcalau12i	$a1, %pc_hi20(.L.str.4)
	addi.d	$a1, $a1, %pc_lo12(.L.str.4)
	ori	$a2, $zero, 8
	pcaddu18i	$ra, %call36(_ZSt16__ostream_insertIcSt11char_traitsIcEERSt13basic_ostreamIT_T0_ES6_PKS3_l)
	jirl	$ra, $ra, 0
.Ltmp44:                                # EH_LABEL
.LBB4_35:                               # %if.end64
                                        #   in Loop: Header=BB4_11 Depth=1
	ld.d	$a0, $s3, 8
	ori	$a1, $zero, 1
	bne	$a0, $a1, .LBB4_38
# %bb.36:                               # %_ZSteqIcSt11char_traitsIcESaIcEEbRKNSt7__cxx1112basic_stringIT_T0_T1_EEPKS5_.exit
                                        #   in Loop: Header=BB4_11 Depth=1
	ld.d	$a0, $s3, 0
	ld.bu	$a0, $a0, 0
	ori	$a1, $zero, 46
	bne	$a0, $a1, .LBB4_38
# %bb.37:                               # %if.then67
                                        #   in Loop: Header=BB4_11 Depth=1
	ld.d	$a0, $s5, 8
	ld.d	$a1, $s5, 0
	sub.d	$a0, $a0, $a1
	srli.d	$a0, $a0, 3
	ld.d	$a1, $sp, 168                   # 8-byte Folded Reload
	mul.d	$a0, $a0, $a1
	add.d	$a1, $a0, $fp
.Ltmp45:                                # EH_LABEL
	move	$a0, $s5
	pcaddu18i	$ra, %call36(_ZNSt6vectorIN9benchmark8internal17BenchmarkInstanceESaIS2_EE7reserveEm)
	jirl	$ra, $ra, 0
.Ltmp46:                                # EH_LABEL
.LBB4_38:                               # %if.end70
                                        #   in Loop: Header=BB4_11 Depth=1
	ld.d	$a0, $s8, 0
	ld.d	$s3, $a0, 72
	ld.d	$a0, $a0, 80
	st.d	$a0, $sp, 104                   # 8-byte Folded Spill
	beq	$s3, $a0, .LBB4_143
# %bb.39:                               # %for.body82.lr.ph
                                        #   in Loop: Header=BB4_11 Depth=1
	ld.d	$a0, $sp, 128                   # 8-byte Folded Reload
	ld.d	$a1, $sp, 120                   # 8-byte Folded Reload
	beq	$a0, $a1, .LBB4_41
# %bb.40:                               # %for.body82.lr.ph.cont
                                        #   in Loop: Header=BB4_11 Depth=1
	ld.d	$a1, $sp, 96                    # 8-byte Folded Reload
	ld.d	$a0, $a1, 184
	ld.d	$a1, $a1, 192
	beq	$a0, $a1, .LBB4_143
.LBB4_41:                               # %for.body82.preheader
                                        #   in Loop: Header=BB4_11 Depth=1
	move	$fp, $zero
	ld.d	$s2, $sp, 240                   # 8-byte Folded Reload
	ld.d	$s7, $sp, 136                   # 8-byte Folded Reload
	st.d	$s8, $sp, 144                   # 8-byte Folded Spill
	b	.LBB4_43
	.p2align	4, , 16
.LBB4_42:                               # %for.cond.cleanup92
                                        #   in Loop: Header=BB4_43 Depth=2
	addi.d	$s3, $s3, 24
	ld.d	$s7, $sp, 136                   # 8-byte Folded Reload
	ld.d	$a0, $sp, 104                   # 8-byte Folded Reload
	beq	$s3, $a0, .LBB4_10
.LBB4_43:                               # %for.body82
                                        #   Parent Loop BB4_11 Depth=1
                                        # =>  This Loop Header: Depth=2
                                        #       Child Loop BB4_47 Depth 3
                                        #         Child Loop BB4_100 Depth 4
	ld.d	$s1, $sp, 112                   # 8-byte Folded Reload
	ld.d	$a0, $sp, 128                   # 8-byte Folded Reload
	ld.d	$a1, $sp, 120                   # 8-byte Folded Reload
	beq	$a0, $a1, .LBB4_45
# %bb.44:                               # %for.body82.cont
                                        #   in Loop: Header=BB4_43 Depth=2
	ld.d	$a0, $sp, 96                    # 8-byte Folded Reload
	ld.d	$s7, $a0, 184
	ld.d	$s1, $a0, 192
	beq	$s7, $s1, .LBB4_42
.LBB4_45:                               # %for.body93.preheader
                                        #   in Loop: Header=BB4_43 Depth=2
	st.d	$s3, $sp, 176                   # 8-byte Folded Spill
	st.d	$s1, $sp, 232                   # 8-byte Folded Spill
	b	.LBB4_47
	.p2align	4, , 16
.LBB4_46:                               # %_ZN9benchmark13BenchmarkNameD2Ev.exit
                                        #   in Loop: Header=BB4_47 Depth=3
	addi.d	$s7, $s7, 4
	beq	$s7, $s1, .LBB4_42
.LBB4_47:                               # %for.body93
                                        #   Parent Loop BB4_11 Depth=1
                                        #     Parent Loop BB4_43 Depth=2
                                        # =>    This Loop Header: Depth=3
                                        #         Child Loop BB4_100 Depth 4
	ld.w	$a5, $s7, 0
	ld.d	$a1, $s8, 0
.Ltmp48:                                # EH_LABEL
	addi.d	$a0, $sp, 280
	ld.d	$a2, $sp, 240                   # 8-byte Folded Reload
	move	$a3, $fp
	move	$a4, $s3
	pcaddu18i	$ra, %call36(_ZN9benchmark8internal17BenchmarkInstanceC1EPNS0_9BenchmarkEiiRKSt6vectorIlSaIlEEi)
	jirl	$ra, $ra, 0
.Ltmp49:                                # EH_LABEL
# %bb.48:                               # %invoke.cont97
                                        #   in Loop: Header=BB4_47 Depth=3
.Ltmp51:                                # EH_LABEL
	addi.d	$a0, $sp, 248
	addi.d	$a1, $sp, 280
	pcaddu18i	$ra, %call36(_ZNK9benchmark13BenchmarkName3strB5cxx11Ev)
	jirl	$ra, $ra, 0
.Ltmp52:                                # EH_LABEL
# %bb.49:                               # %invoke.cont101
                                        #   in Loop: Header=BB4_47 Depth=3
	pcalau12i	$a0, %pc_hi20(_ZN9benchmark12_GLOBAL__N_115kDisabledPrefixE)
	addi.d	$a1, $a0, %pc_lo12(_ZN9benchmark12_GLOBAL__N_115kDisabledPrefixE)
	addi.d	$a0, $sp, 248
	ori	$a3, $zero, 9
	move	$a2, $zero
	pcaddu18i	$ra, %call36(_ZNKSt7__cxx1112basic_stringIcSt11char_traitsIcESaIcEE5rfindEPKcmm)
	jirl	$ra, $ra, 0
	beqz	$a0, .LBB4_124
# %bb.50:                               # %land.lhs.true
                                        #   in Loop: Header=BB4_47 Depth=3
	ld.bu	$a1, $sp, 704
	ori	$a0, $zero, 1
	bne	$a1, $a0, .LBB4_61
# %bb.51:                               # %if.end.i
                                        #   in Loop: Header=BB4_47 Depth=3
	ld.d	$a0, $sp, 248
	ld.d	$a1, $sp, 256
	add.d	$a1, $a0, $a1
	xvld	$xr0, $sp, 192                  # 32-byte Folded Reload
	xvst	$xr0, $sp, 776
.Ltmp54:                                # EH_LABEL
	addi.d	$a2, $sp, 776
	addi.d	$a3, $sp, 712
	move	$a4, $zero
	move	$a5, $zero
	move	$a6, $zero
	pcaddu18i	$ra, %call36(_ZNSt8__detail17__regex_algo_implIN9__gnu_cxx17__normal_iteratorIPKcNSt7__cxx1112basic_stringIcSt11char_traitsIcESaIcEEEEESaINS5_9sub_matchISB_EEEcNS5_12regex_traitsIcEEEEbT_SH_RNS5_13match_resultsISH_T0_EERKNS5_11basic_regexIT1_T2_EENSt15regex_constants15match_flag_typeENS_20_RegexExecutorPolicyEb)
	jirl	$ra, $ra, 0
.Ltmp55:                                # EH_LABEL
# %bb.52:                               # %invoke.cont.i.i.i120
                                        #   in Loop: Header=BB4_47 Depth=3
	move	$s0, $a0
	ld.d	$a0, $sp, 776
	beqz	$a0, .LBB4_54
# %bb.53:                               # %if.then.i.i.i.i.i.i
                                        #   in Loop: Header=BB4_47 Depth=3
	ld.d	$a1, $sp, 792
	sub.d	$a1, $a1, $a0
	pcaddu18i	$ra, %call36(_ZdlPvm)
	jirl	$ra, $ra, 0
.LBB4_54:                               # %invoke.cont106
                                        #   in Loop: Header=BB4_47 Depth=3
	ori	$a0, $zero, 45
	beq	$s4, $a0, .LBB4_56
# %bb.55:                               # %invoke.cont106
                                        #   in Loop: Header=BB4_47 Depth=3
	xori	$a0, $s0, 1
	beqz	$a0, .LBB4_63
.LBB4_56:                               # %lor.lhs.false
                                        #   in Loop: Header=BB4_47 Depth=3
	ld.bu	$a1, $sp, 704
	ori	$a0, $zero, 1
	bne	$a1, $a0, .LBB4_61
# %bb.57:                               # %if.end.i126
                                        #   in Loop: Header=BB4_47 Depth=3
	ld.d	$a0, $sp, 248
	ld.d	$a1, $sp, 256
	add.d	$a1, $a0, $a1
	xvld	$xr0, $sp, 192                  # 32-byte Folded Reload
	xvst	$xr0, $sp, 776
.Ltmp57:                                # EH_LABEL
	addi.d	$a2, $sp, 776
	addi.d	$a3, $sp, 712
	move	$a4, $zero
	move	$a5, $zero
	move	$a6, $zero
	pcaddu18i	$ra, %call36(_ZNSt8__detail17__regex_algo_implIN9__gnu_cxx17__normal_iteratorIPKcNSt7__cxx1112basic_stringIcSt11char_traitsIcESaIcEEEEESaINS5_9sub_matchISB_EEEcNS5_12regex_traitsIcEEEEbT_SH_RNS5_13match_resultsISH_T0_EERKNS5_11basic_regexIT1_T2_EENSt15regex_constants15match_flag_typeENS_20_RegexExecutorPolicyEb)
	jirl	$ra, $ra, 0
.Ltmp58:                                # EH_LABEL
# %bb.58:                               # %invoke.cont.i.i.i142
                                        #   in Loop: Header=BB4_47 Depth=3
	move	$s0, $a0
	ld.d	$a0, $sp, 776
	beqz	$a0, .LBB4_60
# %bb.59:                               # %if.then.i.i.i.i.i.i144
                                        #   in Loop: Header=BB4_47 Depth=3
	ld.d	$a1, $sp, 792
	sub.d	$a1, $a1, $a0
	pcaddu18i	$ra, %call36(_ZdlPvm)
	jirl	$ra, $ra, 0
.LBB4_60:                               # %_ZSt12regex_searchISt11char_traitsIcESaIcEcNSt7__cxx1112regex_traitsIcEEEbRKNS3_12basic_stringIT1_T_T0_EERKNS3_11basic_regexIS7_T2_EENSt15regex_constants15match_flag_typeE.exit.i149
                                        #   in Loop: Header=BB4_47 Depth=3
	xori	$a0, $s0, 1
	.p2align	4, , 16
.LBB4_61:                               # %invoke.cont109
                                        #   in Loop: Header=BB4_47 Depth=3
	ori	$a1, $zero, 45
	bne	$s4, $a1, .LBB4_124
# %bb.62:                               # %invoke.cont109
                                        #   in Loop: Header=BB4_47 Depth=3
	beqz	$a0, .LBB4_124
.LBB4_63:                               # %if.then113
                                        #   in Loop: Header=BB4_47 Depth=3
	ld.d	$s6, $s5, 8
	ld.d	$a0, $s5, 16
	beq	$s6, $a0, .LBB4_66
# %bb.64:                               # %if.then.i.i156
                                        #   in Loop: Header=BB4_47 Depth=3
	addi.d	$a0, $s6, 16
	st.d	$a0, $s6, 0
	ld.d	$a1, $sp, 280
	addi.d	$s1, $sp, 296
	beq	$a1, $s1, .LBB4_70
# %bb.65:                               # %if.else.i.i252
                                        #   in Loop: Header=BB4_47 Depth=3
	st.d	$a1, $s6, 0
	ld.d	$a0, $sp, 296
	ld.d	$s0, $sp, 288
	st.d	$a0, $s6, 16
	b	.LBB4_71
.LBB4_66:                               # %if.else.i.i158
                                        #   in Loop: Header=BB4_47 Depth=3
	st.d	$s2, $sp, 184                   # 8-byte Folded Spill
	ld.d	$s2, $s5, 0
	sub.d	$s1, $s6, $s2
	addi.w	$a0, $zero, -352
	lu52i.d	$a0, $a0, 2047
	beq	$s1, $a0, .LBB4_166
# %bb.67:                               # %_ZNKSt6vectorIN9benchmark8internal17BenchmarkInstanceESaIS2_EE12_M_check_lenEmPKc.exit.i
                                        #   in Loop: Header=BB4_47 Depth=3
	srli.d	$a0, $s1, 3
	ld.d	$a1, $sp, 168                   # 8-byte Folded Reload
	mul.d	$a0, $a0, $a1
	ori	$a3, $zero, 1
	sltu	$a1, $a3, $a0
	maskeqz	$a2, $a0, $a1
	masknez	$a1, $a3, $a1
	or	$a1, $a2, $a1
	add.d	$a0, $a1, $a0
	ld.d	$a2, $sp, 160                   # 8-byte Folded Reload
	sltu	$a1, $a0, $a2
	maskeqz	$a0, $a0, $a1
	masknez	$a1, $a2, $a1
	or	$a0, $a0, $a1
	ori	$a1, $zero, 424
	mul.d	$s0, $a0, $a1
.Ltmp60:                                # EH_LABEL
	move	$a0, $s0
	pcaddu18i	$ra, %call36(_Znwm)
	jirl	$ra, $ra, 0
.Ltmp61:                                # EH_LABEL
# %bb.68:                               # %call5.i.i.i.noexc
                                        #   in Loop: Header=BB4_47 Depth=3
	move	$s4, $a0
	add.d	$s3, $a0, $s1
	addi.d	$a1, $sp, 280
	move	$a0, $s3
	pcaddu18i	$ra, %call36(_ZN9benchmark13BenchmarkNameC2EOS0_)
	jirl	$ra, $ra, 0
	addi.d	$a1, $sp, 536
	ld.d	$a0, $a1, 48
	vld	$vr0, $a1, 32
	xvld	$xr1, $a1, 0
	ld.d	$a2, $sp, 608
	st.d	$a0, $s3, 304
	vst	$vr0, $s3, 288
	xvst	$xr1, $s3, 256
	addi.d	$a1, $s3, 320
	beqz	$a2, .LBB4_96
# %bb.69:                               # %if.then.i.i.i.i.i.i239
                                        #   in Loop: Header=BB4_47 Depth=3
	ld.w	$a0, $sp, 600
	st.d	$a2, $s3, 328
	ld.d	$a4, $sp, 616
	ld.d	$a3, $sp, 624
	st.d	$a1, $a2, 8
	ld.d	$a2, $sp, 632
	st.d	$zero, $sp, 608
	addi.d	$a1, $sp, 600
	st.d	$a1, $sp, 616
	st.d	$a1, $sp, 624
	st.d	$zero, $sp, 632
	move	$a1, $a4
	b	.LBB4_97
.LBB4_70:                               # %_ZNSt11char_traitsIcE4copyEPcPKcm.exit.i.i
                                        #   in Loop: Header=BB4_47 Depth=3
	ld.d	$s0, $sp, 288
	addi.d	$a2, $s0, 1
	move	$a1, $s1
	pcaddu18i	$ra, %call36(memcpy)
	jirl	$ra, $ra, 0
.LBB4_71:                               # %_ZNSt7__cxx1112basic_stringIcSt11char_traitsIcESaIcEEC2EOS4_.exit.i
                                        #   in Loop: Header=BB4_47 Depth=3
	st.d	$s0, $s6, 8
	addi.d	$a0, $s6, 48
	st.d	$a0, $s6, 32
	ld.d	$a1, $sp, 312
	st.d	$s1, $sp, 280
	st.d	$zero, $sp, 288
	st.b	$zero, $sp, 296
	addi.d	$s1, $sp, 328
	beq	$a1, $s1, .LBB4_73
# %bb.72:                               # %if.else.i9.i
                                        #   in Loop: Header=BB4_47 Depth=3
	st.d	$a1, $s6, 32
	ld.d	$a0, $sp, 328
	ld.d	$s0, $sp, 320
	st.d	$a0, $s6, 48
	b	.LBB4_74
.LBB4_73:                               # %_ZNSt11char_traitsIcE4copyEPcPKcm.exit.i13.i
                                        #   in Loop: Header=BB4_47 Depth=3
	ld.d	$s0, $sp, 320
	addi.d	$a2, $s0, 1
	move	$a1, $s1
	pcaddu18i	$ra, %call36(memcpy)
	jirl	$ra, $ra, 0
.LBB4_74:                               # %_ZNSt7__cxx1112basic_stringIcSt11char_traitsIcESaIcEEC2EOS4_.exit17.i
                                        #   in Loop: Header=BB4_47 Depth=3
	st.d	$s0, $s6, 40
	addi.d	$a0, $s6, 80
	st.d	$a0, $s6, 64
	ld.d	$a1, $sp, 344
	st.d	$s1, $sp, 312
	st.d	$zero, $sp, 320
	st.b	$zero, $sp, 328
	addi.d	$s1, $sp, 360
	beq	$a1, $s1, .LBB4_76
# %bb.75:                               # %if.else.i19.i
                                        #   in Loop: Header=BB4_47 Depth=3
	st.d	$a1, $s6, 64
	ld.d	$a0, $sp, 360
	ld.d	$s0, $sp, 352
	st.d	$a0, $s6, 80
	b	.LBB4_77
.LBB4_76:                               # %_ZNSt11char_traitsIcE4copyEPcPKcm.exit.i23.i
                                        #   in Loop: Header=BB4_47 Depth=3
	ld.d	$s0, $sp, 352
	addi.d	$a2, $s0, 1
	move	$a1, $s1
	pcaddu18i	$ra, %call36(memcpy)
	jirl	$ra, $ra, 0
.LBB4_77:                               # %_ZNSt7__cxx1112basic_stringIcSt11char_traitsIcESaIcEEC2EOS4_.exit27.i
                                        #   in Loop: Header=BB4_47 Depth=3
	st.d	$s0, $s6, 72
	addi.d	$a0, $s6, 112
	st.d	$a0, $s6, 96
	ld.d	$a1, $sp, 376
	st.d	$s1, $sp, 344
	st.d	$zero, $sp, 352
	st.b	$zero, $sp, 360
	addi.d	$s1, $sp, 392
	beq	$a1, $s1, .LBB4_79
# %bb.78:                               # %if.else.i29.i
                                        #   in Loop: Header=BB4_47 Depth=3
	st.d	$a1, $s6, 96
	ld.d	$a0, $sp, 392
	ld.d	$s0, $sp, 384
	st.d	$a0, $s6, 112
	b	.LBB4_80
.LBB4_79:                               # %_ZNSt11char_traitsIcE4copyEPcPKcm.exit.i33.i
                                        #   in Loop: Header=BB4_47 Depth=3
	ld.d	$s0, $sp, 384
	addi.d	$a2, $s0, 1
	move	$a1, $s1
	pcaddu18i	$ra, %call36(memcpy)
	jirl	$ra, $ra, 0
.LBB4_80:                               # %_ZNSt7__cxx1112basic_stringIcSt11char_traitsIcESaIcEEC2EOS4_.exit37.i
                                        #   in Loop: Header=BB4_47 Depth=3
	st.d	$s0, $s6, 104
	addi.d	$a0, $s6, 144
	st.d	$a0, $s6, 128
	ld.d	$a1, $sp, 408
	st.d	$s1, $sp, 376
	st.d	$zero, $sp, 384
	st.b	$zero, $sp, 392
	addi.d	$s1, $sp, 424
	beq	$a1, $s1, .LBB4_82
# %bb.81:                               # %if.else.i39.i
                                        #   in Loop: Header=BB4_47 Depth=3
	st.d	$a1, $s6, 128
	ld.d	$a0, $sp, 424
	ld.d	$s0, $sp, 416
	st.d	$a0, $s6, 144
	b	.LBB4_83
.LBB4_82:                               # %_ZNSt11char_traitsIcE4copyEPcPKcm.exit.i43.i
                                        #   in Loop: Header=BB4_47 Depth=3
	ld.d	$s0, $sp, 416
	addi.d	$a2, $s0, 1
	move	$a1, $s1
	pcaddu18i	$ra, %call36(memcpy)
	jirl	$ra, $ra, 0
.LBB4_83:                               # %_ZNSt7__cxx1112basic_stringIcSt11char_traitsIcESaIcEEC2EOS4_.exit47.i
                                        #   in Loop: Header=BB4_47 Depth=3
	st.d	$s0, $s6, 136
	addi.d	$a0, $s6, 176
	st.d	$a0, $s6, 160
	ld.d	$a1, $sp, 440
	st.d	$s1, $sp, 408
	st.d	$zero, $sp, 416
	st.b	$zero, $sp, 424
	addi.d	$s1, $sp, 456
	beq	$a1, $s1, .LBB4_85
# %bb.84:                               # %if.else.i49.i
                                        #   in Loop: Header=BB4_47 Depth=3
	st.d	$a1, $s6, 160
	ld.d	$a0, $sp, 456
	ld.d	$s0, $sp, 448
	st.d	$a0, $s6, 176
	b	.LBB4_86
.LBB4_85:                               # %_ZNSt11char_traitsIcE4copyEPcPKcm.exit.i53.i
                                        #   in Loop: Header=BB4_47 Depth=3
	ld.d	$s0, $sp, 448
	addi.d	$a2, $s0, 1
	move	$a1, $s1
	pcaddu18i	$ra, %call36(memcpy)
	jirl	$ra, $ra, 0
.LBB4_86:                               # %_ZNSt7__cxx1112basic_stringIcSt11char_traitsIcESaIcEEC2EOS4_.exit57.i
                                        #   in Loop: Header=BB4_47 Depth=3
	st.d	$s0, $s6, 168
	addi.d	$a0, $s6, 208
	st.d	$a0, $s6, 192
	ld.d	$a1, $sp, 472
	st.d	$s1, $sp, 440
	st.d	$zero, $sp, 448
	st.b	$zero, $sp, 456
	addi.d	$s1, $sp, 488
	beq	$a1, $s1, .LBB4_88
# %bb.87:                               # %if.else.i59.i
                                        #   in Loop: Header=BB4_47 Depth=3
	st.d	$a1, $s6, 192
	ld.d	$a0, $sp, 488
	ld.d	$s0, $sp, 480
	st.d	$a0, $s6, 208
	b	.LBB4_89
.LBB4_88:                               # %_ZNSt11char_traitsIcE4copyEPcPKcm.exit.i63.i
                                        #   in Loop: Header=BB4_47 Depth=3
	ld.d	$s0, $sp, 480
	addi.d	$a2, $s0, 1
	move	$a1, $s1
	pcaddu18i	$ra, %call36(memcpy)
	jirl	$ra, $ra, 0
.LBB4_89:                               # %_ZNSt7__cxx1112basic_stringIcSt11char_traitsIcESaIcEEC2EOS4_.exit67.i
                                        #   in Loop: Header=BB4_47 Depth=3
	st.d	$s0, $s6, 200
	addi.d	$a0, $s6, 240
	st.d	$a0, $s6, 224
	ld.d	$a1, $sp, 504
	st.d	$s1, $sp, 472
	st.d	$zero, $sp, 480
	st.b	$zero, $sp, 488
	addi.d	$s1, $sp, 520
	beq	$a1, $s1, .LBB4_91
# %bb.90:                               # %if.else.i69.i
                                        #   in Loop: Header=BB4_47 Depth=3
	st.d	$a1, $s6, 224
	ld.d	$a0, $sp, 520
	ld.d	$s0, $sp, 512
	st.d	$a0, $s6, 240
	b	.LBB4_92
.LBB4_91:                               # %_ZNSt11char_traitsIcE4copyEPcPKcm.exit.i73.i
                                        #   in Loop: Header=BB4_47 Depth=3
	ld.d	$s0, $sp, 512
	addi.d	$a2, $s0, 1
	move	$a1, $s1
	pcaddu18i	$ra, %call36(memcpy)
	jirl	$ra, $ra, 0
.LBB4_92:                               # %_ZN9benchmark13BenchmarkNameC2EOS0_.exit
                                        #   in Loop: Header=BB4_47 Depth=3
	st.d	$s0, $s6, 232
	addi.d	$a0, $sp, 536
	xvld	$xr0, $a0, 24
	xvst	$xr0, $s6, 280
	vld	$vr0, $a0, 8
	vst	$vr0, $s6, 264
	ld.d	$a0, $a0, 0
	st.d	$a0, $s6, 256
	ld.d	$a2, $sp, 608
	st.d	$s1, $sp, 504
	st.d	$zero, $sp, 512
	st.b	$zero, $sp, 520
	addi.d	$a0, $s6, 320
	beqz	$a2, .LBB4_94
# %bb.93:                               # %if.then.i.i.i.i.i.i.i
                                        #   in Loop: Header=BB4_47 Depth=3
	st.d	$a2, $s6, 328
	vld	$vr0, $sp, 616
	ld.w	$a1, $sp, 600
	vst	$vr0, $s6, 336
	st.d	$a0, $a2, 8
	ld.d	$a0, $sp, 632
	st.d	$a0, $s6, 352
	st.d	$zero, $sp, 608
	addi.d	$a0, $sp, 600
	st.d	$a0, $sp, 616
	st.d	$a0, $sp, 624
	st.d	$zero, $sp, 632
	b	.LBB4_95
.LBB4_94:                               # %if.else.i.i.i.i.i.i.i
                                        #   in Loop: Header=BB4_47 Depth=3
	move	$a1, $zero
	st.d	$zero, $s6, 328
	st.d	$a0, $s6, 336
	st.d	$a0, $s6, 344
	st.d	$zero, $s6, 352
.LBB4_95:                               # %_ZN9benchmark8internal17BenchmarkInstanceC2EOS1_.exit.i.i
                                        #   in Loop: Header=BB4_47 Depth=3
	ld.d	$s1, $sp, 232                   # 8-byte Folded Reload
	st.w	$a1, $s6, 320
	addi.d	$a0, $sp, 640
	xvld	$xr0, $a0, 0
	xvst	$xr0, $s6, 360
	xvld	$xr0, $a0, 32
	xvst	$xr0, $s6, 392
	ld.d	$a0, $s5, 8
	addi.d	$a0, $a0, 424
	st.d	$a0, $s5, 8
	addi.d	$s6, $sp, 264
	b	.LBB4_123
.LBB4_96:                               # %if.else.i.i.i.i.i.i247
                                        #   in Loop: Header=BB4_47 Depth=3
	move	$a2, $zero
	move	$a0, $zero
	st.d	$zero, $s3, 328
	move	$a3, $a1
.LBB4_97:                               # %_ZN9benchmark8internal17BenchmarkInstanceC2EOS1_.exit.i
                                        #   in Loop: Header=BB4_47 Depth=3
	st.d	$a1, $s3, 336
	st.d	$a3, $s3, 344
	addi.d	$a1, $sp, 640
	xvld	$xr0, $a1, 0
	xvld	$xr1, $a1, 32
	st.d	$a2, $s3, 352
	st.w	$a0, $s3, 320
	xvst	$xr0, $s3, 360
	xvst	$xr1, $s3, 392
	move	$s1, $s4
	beq	$s2, $s6, .LBB4_120
# %bb.98:                               # %for.body.i.i.i.i.preheader
                                        #   in Loop: Header=BB4_47 Depth=3
	move	$s8, $zero
	b	.LBB4_100
	.p2align	4, , 16
.LBB4_99:                               # %_ZN9benchmark13BenchmarkNameD2Ev.exit328
                                        #   in Loop: Header=BB4_100 Depth=4
	addi.d	$s8, $s8, 424
	add.d	$a0, $s2, $s8
	beq	$a0, $s6, .LBB4_119
.LBB4_100:                              # %for.body.i.i.i.i
                                        #   Parent Loop BB4_11 Depth=1
                                        #     Parent Loop BB4_43 Depth=2
                                        #       Parent Loop BB4_47 Depth=3
                                        # =>      This Inner Loop Header: Depth=4
	add.d	$s1, $s4, $s8
	add.d	$s3, $s2, $s8
	move	$a0, $s1
	move	$a1, $s3
	pcaddu18i	$ra, %call36(_ZN9benchmark13BenchmarkNameC2EOS0_)
	jirl	$ra, $ra, 0
	ld.d	$a0, $s3, 304
	st.d	$a0, $s1, 304
	vld	$vr0, $s3, 288
	vst	$vr0, $s1, 288
	xvld	$xr0, $s3, 256
	xvst	$xr0, $s1, 256
	ld.d	$a2, $s3, 328
	addi.d	$a0, $s1, 320
	beqz	$a2, .LBB4_102
# %bb.101:                              # %if.then.i.i.i.i.i.i.i.i.i.i
                                        #   in Loop: Header=BB4_100 Depth=4
	addi.d	$a5, $s3, 320
	ld.w	$a1, $s3, 320
	st.d	$a2, $s1, 328
	ld.d	$a3, $s3, 336
	ld.d	$a4, $s3, 344
	st.d	$a0, $a2, 8
	ld.d	$a2, $s3, 352
	st.d	$zero, $s3, 328
	st.d	$a5, $s3, 336
	st.d	$a5, $s3, 344
	st.d	$zero, $s3, 352
	b	.LBB4_103
	.p2align	4, , 16
.LBB4_102:                              # %if.else.i.i.i.i.i.i.i.i.i.i
                                        #   in Loop: Header=BB4_100 Depth=4
	move	$a2, $zero
	move	$a1, $zero
	st.d	$zero, $s1, 328
	move	$a3, $a0
	move	$a4, $a0
.LBB4_103:                              # %_ZSt19__relocate_object_aIN9benchmark8internal17BenchmarkInstanceES2_SaIS2_EEvPT_PT0_RT1_.exit.i.i.i.i
                                        #   in Loop: Header=BB4_100 Depth=4
	st.d	$a3, $s1, 336
	st.d	$a4, $s1, 344
	st.d	$a2, $s1, 352
	st.w	$a1, $a0, 0
	xvld	$xr0, $s3, 392
	xvst	$xr0, $s1, 392
	xvld	$xr0, $s3, 360
	xvst	$xr0, $s1, 360
	ld.d	$a0, $s3, 224
	addi.d	$a1, $s3, 240
	beq	$a1, $a0, .LBB4_105
# %bb.104:                              # %if.then.i.i.i268
                                        #   in Loop: Header=BB4_100 Depth=4
	ld.d	$a1, $a1, 0
	addi.d	$a1, $a1, 1
	pcaddu18i	$ra, %call36(_ZdlPvm)
	jirl	$ra, $ra, 0
.LBB4_105:                              # %_ZNSt7__cxx1112basic_stringIcSt11char_traitsIcESaIcEED2Ev.exit.i270
                                        #   in Loop: Header=BB4_100 Depth=4
	ld.d	$a0, $s3, 192
	addi.d	$a1, $s3, 208
	beq	$a1, $a0, .LBB4_107
# %bb.106:                              # %if.then.i.i2.i273
                                        #   in Loop: Header=BB4_100 Depth=4
	ld.d	$a1, $a1, 0
	addi.d	$a1, $a1, 1
	pcaddu18i	$ra, %call36(_ZdlPvm)
	jirl	$ra, $ra, 0
.LBB4_107:                              # %_ZNSt7__cxx1112basic_stringIcSt11char_traitsIcESaIcEED2Ev.exit7.i275
                                        #   in Loop: Header=BB4_100 Depth=4
	ld.d	$a0, $s3, 160
	addi.d	$a1, $s3, 176
	beq	$a1, $a0, .LBB4_109
# %bb.108:                              # %if.then.i.i9.i278
                                        #   in Loop: Header=BB4_100 Depth=4
	ld.d	$a1, $a1, 0
	addi.d	$a1, $a1, 1
	pcaddu18i	$ra, %call36(_ZdlPvm)
	jirl	$ra, $ra, 0
.LBB4_109:                              # %_ZNSt7__cxx1112basic_stringIcSt11char_traitsIcESaIcEED2Ev.exit14.i280
                                        #   in Loop: Header=BB4_100 Depth=4
	ld.d	$a0, $s3, 128
	addi.d	$a1, $s3, 144
	beq	$a1, $a0, .LBB4_111
# %bb.110:                              # %if.then.i.i16.i283
                                        #   in Loop: Header=BB4_100 Depth=4
	ld.d	$a1, $a1, 0
	addi.d	$a1, $a1, 1
	pcaddu18i	$ra, %call36(_ZdlPvm)
	jirl	$ra, $ra, 0
.LBB4_111:                              # %_ZNSt7__cxx1112basic_stringIcSt11char_traitsIcESaIcEED2Ev.exit21.i285
                                        #   in Loop: Header=BB4_100 Depth=4
	ld.d	$a0, $s3, 96
	addi.d	$a1, $s3, 112
	beq	$a1, $a0, .LBB4_113
# %bb.112:                              # %if.then.i.i23.i288
                                        #   in Loop: Header=BB4_100 Depth=4
	ld.d	$a1, $a1, 0
	addi.d	$a1, $a1, 1
	pcaddu18i	$ra, %call36(_ZdlPvm)
	jirl	$ra, $ra, 0
.LBB4_113:                              # %_ZNSt7__cxx1112basic_stringIcSt11char_traitsIcESaIcEED2Ev.exit28.i290
                                        #   in Loop: Header=BB4_100 Depth=4
	ld.d	$a0, $s3, 64
	addi.d	$a1, $s3, 80
	beq	$a1, $a0, .LBB4_115
# %bb.114:                              # %if.then.i.i30.i293
                                        #   in Loop: Header=BB4_100 Depth=4
	ld.d	$a1, $a1, 0
	addi.d	$a1, $a1, 1
	pcaddu18i	$ra, %call36(_ZdlPvm)
	jirl	$ra, $ra, 0
.LBB4_115:                              # %_ZNSt7__cxx1112basic_stringIcSt11char_traitsIcESaIcEED2Ev.exit35.i295
                                        #   in Loop: Header=BB4_100 Depth=4
	ld.d	$a0, $s3, 32
	addi.d	$a1, $s3, 48
	beq	$a1, $a0, .LBB4_117
# %bb.116:                              # %if.then.i.i37.i298
                                        #   in Loop: Header=BB4_100 Depth=4
	ld.d	$a1, $a1, 0
	addi.d	$a1, $a1, 1
	pcaddu18i	$ra, %call36(_ZdlPvm)
	jirl	$ra, $ra, 0
.LBB4_117:                              # %_ZNSt7__cxx1112basic_stringIcSt11char_traitsIcESaIcEED2Ev.exit42.i300
                                        #   in Loop: Header=BB4_100 Depth=4
	ldx.d	$a0, $s2, $s8
	addi.d	$a1, $s3, 16
	beq	$a1, $a0, .LBB4_99
# %bb.118:                              # %if.then.i.i44.i302
                                        #   in Loop: Header=BB4_100 Depth=4
	ld.d	$a1, $a1, 0
	addi.d	$a1, $a1, 1
	pcaddu18i	$ra, %call36(_ZdlPvm)
	jirl	$ra, $ra, 0
	b	.LBB4_99
.LBB4_119:                              # %_ZNSt6vectorIN9benchmark8internal17BenchmarkInstanceESaIS2_EE11_S_relocateEPS2_S5_S5_RS3_.exit.i.loopexit
                                        #   in Loop: Header=BB4_47 Depth=3
	add.d	$s1, $s4, $s8
	ld.d	$s8, $sp, 144                   # 8-byte Folded Reload
.LBB4_120:                              # %_ZNSt6vectorIN9benchmark8internal17BenchmarkInstanceESaIS2_EE11_S_relocateEPS2_S5_S5_RS3_.exit.i
                                        #   in Loop: Header=BB4_47 Depth=3
	beqz	$s2, .LBB4_122
# %bb.121:                              # %_ZNSt12_Vector_baseIN9benchmark8internal17BenchmarkInstanceESaIS2_EE13_M_deallocateEPS2_m.exit.i.i
                                        #   in Loop: Header=BB4_47 Depth=3
	ld.d	$a0, $s5, 16
	sub.d	$a1, $a0, $s2
	move	$a0, $s2
	pcaddu18i	$ra, %call36(_ZdlPvm)
	jirl	$ra, $ra, 0
.LBB4_122:                              # %.noexc159
                                        #   in Loop: Header=BB4_47 Depth=3
	addi.d	$a0, $s1, 424
	st.d	$s4, $s5, 0
	st.d	$a0, $s5, 8
	add.d	$a0, $s4, $s0
	st.d	$a0, $s5, 16
	ld.d	$s4, $sp, 152                   # 8-byte Folded Reload
	addi.d	$s6, $sp, 264
	ld.d	$s3, $sp, 176                   # 8-byte Folded Reload
	ld.d	$s2, $sp, 184                   # 8-byte Folded Reload
	ld.d	$s1, $sp, 232                   # 8-byte Folded Reload
.LBB4_123:                              # %invoke.cont114
                                        #   in Loop: Header=BB4_47 Depth=3
	addi.w	$fp, $fp, 1
	ld.d	$a0, $sp, 240                   # 8-byte Folded Reload
	xor	$a0, $s2, $a0
	sltui	$a0, $a0, 1
	add.w	$s2, $s2, $a0
.LBB4_124:                              # %if.end119
                                        #   in Loop: Header=BB4_47 Depth=3
	ld.d	$a0, $sp, 248
	beq	$a0, $s6, .LBB4_126
# %bb.125:                              # %if.then.i.i164
                                        #   in Loop: Header=BB4_47 Depth=3
	ld.d	$a1, $sp, 264
	addi.d	$a1, $a1, 1
	pcaddu18i	$ra, %call36(_ZdlPvm)
	jirl	$ra, $ra, 0
.LBB4_126:                              # %_ZNSt7__cxx1112basic_stringIcSt11char_traitsIcESaIcEED2Ev.exit169
                                        #   in Loop: Header=BB4_47 Depth=3
	ld.d	$a1, $sp, 608
.Ltmp66:                                # EH_LABEL
	addi.d	$a0, $sp, 592
	pcaddu18i	$ra, %call36(_ZNSt8_Rb_treeINSt7__cxx1112basic_stringIcSt11char_traitsIcESaIcEEESt4pairIKS5_N9benchmark7CounterEESt10_Select1stISA_ESt4lessIS5_ESaISA_EE8_M_eraseEPSt13_Rb_tree_nodeISA_E)
	jirl	$ra, $ra, 0
.Ltmp67:                                # EH_LABEL
# %bb.127:                              # %_ZN9benchmark8internal17BenchmarkInstanceD2Ev.exit
                                        #   in Loop: Header=BB4_47 Depth=3
	ld.d	$a0, $sp, 504
	addi.d	$a1, $sp, 520
	beq	$a0, $a1, .LBB4_129
# %bb.128:                              # %if.then.i.i.i258
                                        #   in Loop: Header=BB4_47 Depth=3
	ld.d	$a1, $sp, 520
	addi.d	$a1, $a1, 1
	pcaddu18i	$ra, %call36(_ZdlPvm)
	jirl	$ra, $ra, 0
.LBB4_129:                              # %_ZNSt7__cxx1112basic_stringIcSt11char_traitsIcESaIcEED2Ev.exit.i
                                        #   in Loop: Header=BB4_47 Depth=3
	ld.d	$a0, $sp, 472
	addi.d	$a1, $sp, 488
	beq	$a0, $a1, .LBB4_131
# %bb.130:                              # %if.then.i.i2.i
                                        #   in Loop: Header=BB4_47 Depth=3
	ld.d	$a1, $sp, 488
	addi.d	$a1, $a1, 1
	pcaddu18i	$ra, %call36(_ZdlPvm)
	jirl	$ra, $ra, 0
.LBB4_131:                              # %_ZNSt7__cxx1112basic_stringIcSt11char_traitsIcESaIcEED2Ev.exit7.i
                                        #   in Loop: Header=BB4_47 Depth=3
	ld.d	$a0, $sp, 440
	addi.d	$a1, $sp, 456
	beq	$a0, $a1, .LBB4_133
# %bb.132:                              # %if.then.i.i9.i
                                        #   in Loop: Header=BB4_47 Depth=3
	ld.d	$a1, $sp, 456
	addi.d	$a1, $a1, 1
	pcaddu18i	$ra, %call36(_ZdlPvm)
	jirl	$ra, $ra, 0
.LBB4_133:                              # %_ZNSt7__cxx1112basic_stringIcSt11char_traitsIcESaIcEED2Ev.exit14.i
                                        #   in Loop: Header=BB4_47 Depth=3
	ld.d	$a0, $sp, 408
	addi.d	$a1, $sp, 424
	beq	$a0, $a1, .LBB4_135
# %bb.134:                              # %if.then.i.i16.i
                                        #   in Loop: Header=BB4_47 Depth=3
	ld.d	$a1, $sp, 424
	addi.d	$a1, $a1, 1
	pcaddu18i	$ra, %call36(_ZdlPvm)
	jirl	$ra, $ra, 0
.LBB4_135:                              # %_ZNSt7__cxx1112basic_stringIcSt11char_traitsIcESaIcEED2Ev.exit21.i
                                        #   in Loop: Header=BB4_47 Depth=3
	ld.d	$a0, $sp, 376
	addi.d	$a1, $sp, 392
	beq	$a0, $a1, .LBB4_137
# %bb.136:                              # %if.then.i.i23.i
                                        #   in Loop: Header=BB4_47 Depth=3
	ld.d	$a1, $sp, 392
	addi.d	$a1, $a1, 1
	pcaddu18i	$ra, %call36(_ZdlPvm)
	jirl	$ra, $ra, 0
.LBB4_137:                              # %_ZNSt7__cxx1112basic_stringIcSt11char_traitsIcESaIcEED2Ev.exit28.i
                                        #   in Loop: Header=BB4_47 Depth=3
	ld.d	$a0, $sp, 344
	addi.d	$a1, $sp, 360
	beq	$a0, $a1, .LBB4_139
# %bb.138:                              # %if.then.i.i30.i
                                        #   in Loop: Header=BB4_47 Depth=3
	ld.d	$a1, $sp, 360
	addi.d	$a1, $a1, 1
	pcaddu18i	$ra, %call36(_ZdlPvm)
	jirl	$ra, $ra, 0
.LBB4_139:                              # %_ZNSt7__cxx1112basic_stringIcSt11char_traitsIcESaIcEED2Ev.exit35.i
                                        #   in Loop: Header=BB4_47 Depth=3
	ld.d	$a0, $sp, 312
	addi.d	$a1, $sp, 328
	beq	$a0, $a1, .LBB4_141
# %bb.140:                              # %if.then.i.i37.i
                                        #   in Loop: Header=BB4_47 Depth=3
	ld.d	$a1, $sp, 328
	addi.d	$a1, $a1, 1
	pcaddu18i	$ra, %call36(_ZdlPvm)
	jirl	$ra, $ra, 0
.LBB4_141:                              # %_ZNSt7__cxx1112basic_stringIcSt11char_traitsIcESaIcEED2Ev.exit42.i
                                        #   in Loop: Header=BB4_47 Depth=3
	ld.d	$a0, $sp, 280
	addi.d	$a1, $sp, 296
	beq	$a0, $a1, .LBB4_46
# %bb.142:                              # %if.then.i.i44.i
                                        #   in Loop: Header=BB4_47 Depth=3
	ld.d	$a1, $sp, 296
	addi.d	$a1, $a1, 1
	pcaddu18i	$ra, %call36(_ZdlPvm)
	jirl	$ra, $ra, 0
	b	.LBB4_46
	.p2align	4, , 16
.LBB4_143:                              #   in Loop: Header=BB4_11 Depth=1
	ld.d	$s2, $sp, 240                   # 8-byte Folded Reload
	ld.d	$s7, $sp, 136                   # 8-byte Folded Reload
	b	.LBB4_10
.LBB4_144:                              # %init.check.i.i
                                        #   in Loop: Header=BB4_11 Depth=1
	ld.d	$a0, $sp, 40                    # 8-byte Folded Reload
	pcaddu18i	$ra, %call36(__cxa_guard_acquire)
	jirl	$ra, $ra, 0
	addi.w	$a0, $a0, 0
	beqz	$a0, .LBB4_17
# %bb.145:                              # %init.i.i
                                        #   in Loop: Header=BB4_11 Depth=1
	ld.d	$a0, $sp, 16                    # 8-byte Folded Reload
	st.d	$zero, $a0, %pc_lo12(_ZZN9benchmark8internal18GetNullLogInstanceEvE8null_log)
	ld.d	$a0, $sp, 40                    # 8-byte Folded Reload
	pcaddu18i	$ra, %call36(__cxa_guard_release)
	jirl	$ra, $ra, 0
	b	.LBB4_17
.LBB4_146:                              # %if.then9
.Ltmp9:                                 # EH_LABEL
	pcalau12i	$a0, %pc_hi20(.L.str.1)
	addi.d	$a1, $a0, %pc_lo12(.L.str.1)
	ori	$a2, $zero, 32
	ld.d	$a0, $sp, 80                    # 8-byte Folded Reload
	pcaddu18i	$ra, %call36(_ZSt16__ostream_insertIcSt11char_traitsIcEERSt13basic_ostreamIT_T0_ES6_PKS3_l)
	jirl	$ra, $ra, 0
.Ltmp10:                                # EH_LABEL
# %bb.147:                              # %invoke.cont10
	ld.d	$a1, $sp, 744
	ld.d	$a2, $sp, 752
.Ltmp11:                                # EH_LABEL
	ld.d	$a0, $sp, 80                    # 8-byte Folded Reload
	pcaddu18i	$ra, %call36(_ZSt16__ostream_insertIcSt11char_traitsIcEERSt13basic_ostreamIT_T0_ES6_PKS3_l)
	jirl	$ra, $ra, 0
.Ltmp12:                                # EH_LABEL
# %bb.148:                              # %invoke.cont12
	move	$fp, $a0
	ld.d	$a0, $a0, 0
	ld.d	$a0, $a0, -24
	add.d	$a0, $fp, $a0
	ld.d	$s0, $a0, 240
	beqz	$s0, .LBB4_172
# %bb.149:                              # %_ZSt13__check_facetISt5ctypeIcEERKT_PS3_.exit.i.i
	ld.bu	$a0, $s0, 56
	beqz	$a0, .LBB4_152
# %bb.150:                              # %if.then.i2.i.i
	ld.bu	$a0, $s0, 67
	b	.LBB4_154
.LBB4_151:                              # %_ZNSt6vectorIiSaIiEED2Ev.exit
	ld.d	$a0, $sp, 24                    # 8-byte Folded Reload
	pcaddu18i	$ra, %call36(pthread_mutex_unlock)
	jirl	$ra, $ra, 0
	ori	$a1, $zero, 4
	move	$a0, $s7
	pcaddu18i	$ra, %call36(_ZdlPvm)
	jirl	$ra, $ra, 0
	b	.LBB4_156
.LBB4_152:                              # %if.end.i.i.i
.Ltmp13:                                # EH_LABEL
	move	$a0, $s0
	pcaddu18i	$ra, %call36(_ZNKSt5ctypeIcE13_M_widen_initEv)
	jirl	$ra, $ra, 0
.Ltmp14:                                # EH_LABEL
# %bb.153:                              # %.noexc230
	ld.d	$a0, $s0, 0
	ld.d	$a2, $a0, 48
.Ltmp15:                                # EH_LABEL
	ori	$a1, $zero, 10
	move	$a0, $s0
	jirl	$ra, $a2, 0
.Ltmp16:                                # EH_LABEL
.LBB4_154:                              # %_ZNKSt9basic_iosIcSt11char_traitsIcEE5widenEc.exit.i
.Ltmp17:                                # EH_LABEL
	ext.w.b	$a1, $a0
	move	$a0, $fp
	pcaddu18i	$ra, %call36(_ZNSo3putEc)
	jirl	$ra, $ra, 0
.Ltmp18:                                # EH_LABEL
# %bb.155:                              # %call1.i.noexc
.Ltmp19:                                # EH_LABEL
	pcaddu18i	$ra, %call36(_ZNSo5flushEv)
	jirl	$ra, $ra, 0
.Ltmp20:                                # EH_LABEL
.LBB4_156:                              # %cleanup162
	ld.d	$fp, $sp, 736
	beqz	$fp, .LBB4_161
# %bb.157:                              # %if.then.i.i.i.i185
	ld.d	$a0, $fp, 8
	ori	$a1, $zero, 1
	lu32i.d	$a1, 1
	dbar	20
	bne	$a0, $a1, .LBB4_159
# %bb.158:                              # %if.then.i.i.i.i.i189
	ld.d	$a0, $fp, 0
	st.d	$zero, $fp, 8
	ld.d	$a1, $a0, 16
	move	$a0, $fp
	jirl	$ra, $a1, 0
	ld.d	$a0, $fp, 0
	ld.d	$a1, $a0, 24
	move	$a0, $fp
	jirl	$ra, $a1, 0
	b	.LBB4_161
.LBB4_159:                              # %if.end.i.i.i.i.i
	pcalau12i	$a1, %got_pc_hi20(__libc_single_threaded)
	ld.d	$a1, $a1, %got_pc_lo12(__libc_single_threaded)
	ld.bu	$a1, $a1, 0
	beqz	$a1, .LBB4_164
# %bb.160:                              # %if.then.i.i.i.i.i.i187
	addi.d	$a1, $a0, -1
	st.w	$a1, $fp, 8
	addi.w	$a0, $a0, 0
	ori	$a1, $zero, 1
	beq	$a0, $a1, .LBB4_165
.LBB4_161:                              # %_ZN9benchmark5RegexD2Ev.exit
	addi.d	$a0, $sp, 720
	pcaddu18i	$ra, %call36(_ZNSt6localeD1Ev)
	jirl	$ra, $ra, 0
	ld.d	$a0, $sp, 744
	addi.d	$a1, $sp, 760
	beq	$a0, $a1, .LBB4_163
# %bb.162:                              # %if.then.i.i191
	ld.d	$a1, $sp, 760
	addi.d	$a1, $a1, 1
	pcaddu18i	$ra, %call36(_ZdlPvm)
	jirl	$ra, $ra, 0
.LBB4_163:                              # %_ZNSt7__cxx1112basic_stringIcSt11char_traitsIcESaIcEED2Ev.exit196
	ld.d	$a0, $sp, 32                    # 8-byte Folded Reload
	ld.d	$s8, $sp, 808                   # 8-byte Folded Reload
	ld.d	$s7, $sp, 816                   # 8-byte Folded Reload
	ld.d	$s6, $sp, 824                   # 8-byte Folded Reload
	ld.d	$s5, $sp, 832                   # 8-byte Folded Reload
	ld.d	$s4, $sp, 840                   # 8-byte Folded Reload
	ld.d	$s3, $sp, 848                   # 8-byte Folded Reload
	ld.d	$s2, $sp, 856                   # 8-byte Folded Reload
	ld.d	$s1, $sp, 864                   # 8-byte Folded Reload
	ld.d	$s0, $sp, 872                   # 8-byte Folded Reload
	ld.d	$fp, $sp, 880                   # 8-byte Folded Reload
	ld.d	$ra, $sp, 888                   # 8-byte Folded Reload
	addi.d	$sp, $sp, 896
	ret
.LBB4_164:                              # %if.else.i.i.i.i.i.i
	addi.d	$a1, $fp, 8
	addi.w	$a2, $zero, -1
	amadd_db.w	$a0, $a2, $a1
	addi.w	$a0, $a0, 0
	ori	$a1, $zero, 1
	bne	$a0, $a1, .LBB4_161
.LBB4_165:                              # %if.then7.i.i.i.i.i
	move	$a0, $fp
	pcaddu18i	$ra, %call36(_ZNSt16_Sp_counted_baseILN9__gnu_cxx12_Lock_policyE2EE24_M_release_last_use_coldEv)
	jirl	$ra, $ra, 0
	b	.LBB4_161
.LBB4_166:                              # %if.then.i.i248
.Ltmp63:                                # EH_LABEL
	pcalau12i	$a0, %pc_hi20(.L.str.23)
	addi.d	$a0, $a0, %pc_lo12(.L.str.23)
	addi.d	$s6, $sp, 264
	pcaddu18i	$ra, %call36(_ZSt20__throw_length_errorPKc)
	jirl	$ra, $ra, 0
.Ltmp64:                                # EH_LABEL
# %bb.167:                              # %.noexc249
.LBB4_168:                              # %init.check.i
	pcalau12i	$a0, %pc_hi20(_ZGVZN9benchmark8internal18GetNullLogInstanceEvE8null_log)
	addi.d	$a0, $a0, %pc_lo12(_ZGVZN9benchmark8internal18GetNullLogInstanceEvE8null_log)
	pcaddu18i	$ra, %call36(__cxa_guard_acquire)
	jirl	$ra, $ra, 0
	addi.w	$a0, $a0, 0
	beqz	$a0, .LBB4_1
# %bb.169:                              # %init.i
	pcalau12i	$a0, %pc_hi20(_ZZN9benchmark8internal18GetNullLogInstanceEvE8null_log)
	st.d	$zero, $a0, %pc_lo12(_ZZN9benchmark8internal18GetNullLogInstanceEvE8null_log)
	pcalau12i	$a0, %pc_hi20(_ZGVZN9benchmark8internal18GetNullLogInstanceEvE8null_log)
	addi.d	$a0, $a0, %pc_lo12(_ZGVZN9benchmark8internal18GetNullLogInstanceEvE8null_log)
	pcaddu18i	$ra, %call36(__cxa_guard_release)
	jirl	$ra, $ra, 0
	b	.LBB4_1
.LBB4_170:                              # %if.then.i.i.i.i
.Ltmp27:                                # EH_LABEL
	pcaddu18i	$ra, %call36(_ZSt20__throw_system_errori)
	jirl	$ra, $ra, 0
.Ltmp28:                                # EH_LABEL
# %bb.171:                              # %.noexc
.LBB4_172:                              # %if.then.i.i.i228
.Ltmp21:                                # EH_LABEL
	pcaddu18i	$ra, %call36(_ZSt16__throw_bad_castv)
	jirl	$ra, $ra, 0
.Ltmp22:                                # EH_LABEL
# %bb.173:                              # %.noexc229
.LBB4_174:                              # %lpad20
.Ltmp29:                                # EH_LABEL
	move	$fp, $a0
	b	.LBB4_195
.LBB4_175:                              # %lpad18.body
.Ltmp26:                                # EH_LABEL
	b	.LBB4_179
.LBB4_176:                              # %lpad39
.Ltmp34:                                # EH_LABEL
	ld.d	$a2, $sp, 280
	move	$fp, $a0
	beqz	$a2, .LBB4_194
# %bb.177:                              # %if.then.i.i.i70
	ld.d	$a0, $sp, 296
	sub.d	$a1, $a0, $a2
	move	$a0, $a2
	pcaddu18i	$ra, %call36(_ZdlPvm)
	jirl	$ra, $ra, 0
	b	.LBB4_194
.LBB4_178:                              # %lpad2
.Ltmp23:                                # EH_LABEL
.LBB4_179:                              # %ehcleanup163
	move	$fp, $a0
	b	.LBB4_196
.LBB4_180:                              # %lpad52
.Ltmp47:                                # EH_LABEL
	b	.LBB4_191
.LBB4_181:                              # %lpad.i.i.i134
.Ltmp59:                                # EH_LABEL
	b	.LBB4_185
.LBB4_182:                              # %lpad102.loopexit
.Ltmp62:                                # EH_LABEL
	move	$fp, $a0
	addi.d	$s6, $sp, 264
	b	.LBB4_187
.LBB4_183:                              # %lpad102.loopexit.split-lp
.Ltmp65:                                # EH_LABEL
	move	$fp, $a0
	b	.LBB4_187
.LBB4_184:                              # %lpad.i.i.i
.Ltmp56:                                # EH_LABEL
.LBB4_185:                              # %lpad.i.i.i
	ld.d	$a2, $sp, 776
	move	$fp, $a0
	beqz	$a2, .LBB4_187
# %bb.186:                              # %if.then.i.i.i3.i.i.i
	ld.d	$a0, $sp, 792
	sub.d	$a1, $a0, $a2
	move	$a0, $a2
	pcaddu18i	$ra, %call36(_ZdlPvm)
	jirl	$ra, $ra, 0
.LBB4_187:                              # %lpad102.body
	ld.d	$a0, $sp, 248
	beq	$a0, $s6, .LBB4_193
# %bb.188:                              # %if.then.i.i161
	ld.d	$a1, $sp, 264
	addi.d	$a1, $a1, 1
	pcaddu18i	$ra, %call36(_ZdlPvm)
	jirl	$ra, $ra, 0
	b	.LBB4_193
.LBB4_189:                              # %terminate.lpad.i.i.i
.Ltmp68:                                # EH_LABEL
	pcaddu18i	$ra, %call36(__clang_call_terminate)
	jirl	$ra, $ra, 0
.LBB4_190:                              # %lpad96
.Ltmp50:                                # EH_LABEL
.LBB4_191:                              # %_ZN9benchmark9MutexLockD2Ev.exit176
	move	$fp, $a0
	b	.LBB4_194
.LBB4_192:                              # %lpad98
.Ltmp53:                                # EH_LABEL
	move	$fp, $a0
.LBB4_193:                              # %ehcleanup
	addi.d	$a0, $sp, 280
	pcaddu18i	$ra, %call36(_ZN9benchmark8internal17BenchmarkInstanceD2Ev)
	jirl	$ra, $ra, 0
.LBB4_194:                              # %_ZN9benchmark9MutexLockD2Ev.exit176
	ld.d	$a0, $sp, 24                    # 8-byte Folded Reload
	pcaddu18i	$ra, %call36(pthread_mutex_unlock)
	jirl	$ra, $ra, 0
.LBB4_195:                              # %if.then.i.i.i178
	ori	$a1, $zero, 4
	ld.d	$a0, $sp, 136                   # 8-byte Folded Reload
	pcaddu18i	$ra, %call36(_ZdlPvm)
	jirl	$ra, $ra, 0
.LBB4_196:                              # %ehcleanup163
	ld.d	$s0, $sp, 736
	beqz	$s0, .LBB4_203
# %bb.197:                              # %if.then.i.i.i.i199
	ld.d	$a0, $s0, 8
	ori	$a1, $zero, 1
	lu32i.d	$a1, 1
	dbar	20
	bne	$a0, $a1, .LBB4_199
# %bb.198:                              # %if.then.i.i.i.i.i212
	ld.d	$a0, $s0, 0
	st.d	$zero, $s0, 8
	ld.d	$a1, $a0, 16
	move	$a0, $s0
	jirl	$ra, $a1, 0
	ld.d	$a0, $s0, 0
	ld.d	$a1, $a0, 24
	move	$a0, $s0
	jirl	$ra, $a1, 0
	b	.LBB4_203
.LBB4_199:                              # %if.end.i.i.i.i.i202
	pcalau12i	$a1, %got_pc_hi20(__libc_single_threaded)
	ld.d	$a1, $a1, %got_pc_lo12(__libc_single_threaded)
	ld.bu	$a1, $a1, 0
	bnez	$a1, .LBB4_201
# %bb.200:                              # %if.else.i.i.i.i.i.i211
	addi.d	$a1, $s0, 8
	addi.w	$a2, $zero, -1
	amadd_db.w	$a0, $a2, $a1
	b	.LBB4_202
.LBB4_201:                              # %if.then.i.i.i.i.i.i204
	addi.d	$a1, $a0, -1
	st.w	$a1, $s0, 8
.LBB4_202:                              # %invoke.cont.i.i.i.i.i206
	addi.w	$a0, $a0, 0
	ori	$a1, $zero, 1
	beq	$a0, $a1, .LBB4_206
.LBB4_203:                              # %_ZN9benchmark5RegexD2Ev.exit218
	addi.d	$a0, $sp, 720
	pcaddu18i	$ra, %call36(_ZNSt6localeD1Ev)
	jirl	$ra, $ra, 0
	ld.d	$a0, $sp, 744
	addi.d	$a1, $sp, 760
	beq	$a0, $a1, .LBB4_205
# %bb.204:                              # %if.then.i.i220
	ld.d	$a1, $sp, 760
	addi.d	$a1, $a1, 1
	pcaddu18i	$ra, %call36(_ZdlPvm)
	jirl	$ra, $ra, 0
.LBB4_205:                              # %_ZNSt7__cxx1112basic_stringIcSt11char_traitsIcESaIcEED2Ev.exit225
	move	$a0, $fp
	pcaddu18i	$ra, %call36(_Unwind_Resume)
	jirl	$ra, $ra, 0
.LBB4_206:                              # %if.then7.i.i.i.i.i210
	move	$a0, $s0
	pcaddu18i	$ra, %call36(_ZNSt16_Sp_counted_baseILN9__gnu_cxx12_Lock_policyE2EE24_M_release_last_use_coldEv)
	jirl	$ra, $ra, 0
	b	.LBB4_203
.Lfunc_end4:
	.size	_ZN9benchmark8internal17BenchmarkFamilies14FindBenchmarksENSt7__cxx1112basic_stringIcSt11char_traitsIcESaIcEEEPSt6vectorINS0_17BenchmarkInstanceESaIS9_EEPSo, .Lfunc_end4-_ZN9benchmark8internal17BenchmarkFamilies14FindBenchmarksENSt7__cxx1112basic_stringIcSt11char_traitsIcESaIcEEEPSt6vectorINS0_17BenchmarkInstanceESaIS9_EEPSo
	.cfi_endproc
	.section	.gcc_except_table,"a",@progbits
	.p2align	2, 0x0
GCC_except_table4:
.Lexception1:
	.byte	255                             # @LPStart Encoding = omit
	.byte	155                             # @TType Encoding = indirect pcrel sdata4
	.uleb128 .Lttbase0-.Lttbaseref0
.Lttbaseref0:
	.byte	1                               # Call site Encoding = uleb128
	.uleb128 .Lcst_end1-.Lcst_begin1
.Lcst_begin1:
	.uleb128 .Lfunc_begin1-.Lfunc_begin1    # >> Call Site 1 <<
	.uleb128 .Ltmp5-.Lfunc_begin1           #   Call between .Lfunc_begin1 and .Ltmp5
	.byte	0                               #     has no landing pad
	.byte	0                               #   On action: cleanup
	.uleb128 .Ltmp5-.Lfunc_begin1           # >> Call Site 2 <<
	.uleb128 .Ltmp8-.Ltmp5                  #   Call between .Ltmp5 and .Ltmp8
	.uleb128 .Ltmp23-.Lfunc_begin1          #     jumps to .Ltmp23
	.byte	0                               #   On action: cleanup
	.uleb128 .Ltmp24-.Lfunc_begin1          # >> Call Site 3 <<
	.uleb128 .Ltmp25-.Ltmp24                #   Call between .Ltmp24 and .Ltmp25
	.uleb128 .Ltmp26-.Lfunc_begin1          #     jumps to .Ltmp26
	.byte	0                               #   On action: cleanup
	.uleb128 .Ltmp25-.Lfunc_begin1          # >> Call Site 4 <<
	.uleb128 .Ltmp30-.Ltmp25                #   Call between .Ltmp25 and .Ltmp30
	.byte	0                               #     has no landing pad
	.byte	0                               #   On action: cleanup
	.uleb128 .Ltmp30-.Lfunc_begin1          # >> Call Site 5 <<
	.uleb128 .Ltmp33-.Ltmp30                #   Call between .Ltmp30 and .Ltmp33
	.uleb128 .Ltmp34-.Lfunc_begin1          #     jumps to .Ltmp34
	.byte	0                               #   On action: cleanup
	.uleb128 .Ltmp33-.Lfunc_begin1          # >> Call Site 6 <<
	.uleb128 .Ltmp35-.Ltmp33                #   Call between .Ltmp33 and .Ltmp35
	.byte	0                               #     has no landing pad
	.byte	0                               #   On action: cleanup
	.uleb128 .Ltmp35-.Lfunc_begin1          # >> Call Site 7 <<
	.uleb128 .Ltmp46-.Ltmp35                #   Call between .Ltmp35 and .Ltmp46
	.uleb128 .Ltmp47-.Lfunc_begin1          #     jumps to .Ltmp47
	.byte	0                               #   On action: cleanup
	.uleb128 .Ltmp48-.Lfunc_begin1          # >> Call Site 8 <<
	.uleb128 .Ltmp49-.Ltmp48                #   Call between .Ltmp48 and .Ltmp49
	.uleb128 .Ltmp50-.Lfunc_begin1          #     jumps to .Ltmp50
	.byte	0                               #   On action: cleanup
	.uleb128 .Ltmp51-.Lfunc_begin1          # >> Call Site 9 <<
	.uleb128 .Ltmp52-.Ltmp51                #   Call between .Ltmp51 and .Ltmp52
	.uleb128 .Ltmp53-.Lfunc_begin1          #     jumps to .Ltmp53
	.byte	0                               #   On action: cleanup
	.uleb128 .Ltmp52-.Lfunc_begin1          # >> Call Site 10 <<
	.uleb128 .Ltmp54-.Ltmp52                #   Call between .Ltmp52 and .Ltmp54
	.byte	0                               #     has no landing pad
	.byte	0                               #   On action: cleanup
	.uleb128 .Ltmp54-.Lfunc_begin1          # >> Call Site 11 <<
	.uleb128 .Ltmp55-.Ltmp54                #   Call between .Ltmp54 and .Ltmp55
	.uleb128 .Ltmp56-.Lfunc_begin1          #     jumps to .Ltmp56
	.byte	0                               #   On action: cleanup
	.uleb128 .Ltmp55-.Lfunc_begin1          # >> Call Site 12 <<
	.uleb128 .Ltmp57-.Ltmp55                #   Call between .Ltmp55 and .Ltmp57
	.byte	0                               #     has no landing pad
	.byte	0                               #   On action: cleanup
	.uleb128 .Ltmp57-.Lfunc_begin1          # >> Call Site 13 <<
	.uleb128 .Ltmp58-.Ltmp57                #   Call between .Ltmp57 and .Ltmp58
	.uleb128 .Ltmp59-.Lfunc_begin1          #     jumps to .Ltmp59
	.byte	0                               #   On action: cleanup
	.uleb128 .Ltmp58-.Lfunc_begin1          # >> Call Site 14 <<
	.uleb128 .Ltmp60-.Ltmp58                #   Call between .Ltmp58 and .Ltmp60
	.byte	0                               #     has no landing pad
	.byte	0                               #   On action: cleanup
	.uleb128 .Ltmp60-.Lfunc_begin1          # >> Call Site 15 <<
	.uleb128 .Ltmp61-.Ltmp60                #   Call between .Ltmp60 and .Ltmp61
	.uleb128 .Ltmp62-.Lfunc_begin1          #     jumps to .Ltmp62
	.byte	0                               #   On action: cleanup
	.uleb128 .Ltmp61-.Lfunc_begin1          # >> Call Site 16 <<
	.uleb128 .Ltmp66-.Ltmp61                #   Call between .Ltmp61 and .Ltmp66
	.byte	0                               #     has no landing pad
	.byte	0                               #   On action: cleanup
	.uleb128 .Ltmp66-.Lfunc_begin1          # >> Call Site 17 <<
	.uleb128 .Ltmp67-.Ltmp66                #   Call between .Ltmp66 and .Ltmp67
	.uleb128 .Ltmp68-.Lfunc_begin1          #     jumps to .Ltmp68
	.byte	1                               #   On action: 1
	.uleb128 .Ltmp67-.Lfunc_begin1          # >> Call Site 18 <<
	.uleb128 .Ltmp9-.Ltmp67                 #   Call between .Ltmp67 and .Ltmp9
	.byte	0                               #     has no landing pad
	.byte	0                               #   On action: cleanup
	.uleb128 .Ltmp9-.Lfunc_begin1           # >> Call Site 19 <<
	.uleb128 .Ltmp12-.Ltmp9                 #   Call between .Ltmp9 and .Ltmp12
	.uleb128 .Ltmp23-.Lfunc_begin1          #     jumps to .Ltmp23
	.byte	0                               #   On action: cleanup
	.uleb128 .Ltmp12-.Lfunc_begin1          # >> Call Site 20 <<
	.uleb128 .Ltmp13-.Ltmp12                #   Call between .Ltmp12 and .Ltmp13
	.byte	0                               #     has no landing pad
	.byte	0                               #   On action: cleanup
	.uleb128 .Ltmp13-.Lfunc_begin1          # >> Call Site 21 <<
	.uleb128 .Ltmp20-.Ltmp13                #   Call between .Ltmp13 and .Ltmp20
	.uleb128 .Ltmp23-.Lfunc_begin1          #     jumps to .Ltmp23
	.byte	0                               #   On action: cleanup
	.uleb128 .Ltmp20-.Lfunc_begin1          # >> Call Site 22 <<
	.uleb128 .Ltmp63-.Ltmp20                #   Call between .Ltmp20 and .Ltmp63
	.byte	0                               #     has no landing pad
	.byte	0                               #   On action: cleanup
	.uleb128 .Ltmp63-.Lfunc_begin1          # >> Call Site 23 <<
	.uleb128 .Ltmp64-.Ltmp63                #   Call between .Ltmp63 and .Ltmp64
	.uleb128 .Ltmp65-.Lfunc_begin1          #     jumps to .Ltmp65
	.byte	0                               #   On action: cleanup
	.uleb128 .Ltmp64-.Lfunc_begin1          # >> Call Site 24 <<
	.uleb128 .Ltmp27-.Ltmp64                #   Call between .Ltmp64 and .Ltmp27
	.byte	0                               #     has no landing pad
	.byte	0                               #   On action: cleanup
	.uleb128 .Ltmp27-.Lfunc_begin1          # >> Call Site 25 <<
	.uleb128 .Ltmp28-.Ltmp27                #   Call between .Ltmp27 and .Ltmp28
	.uleb128 .Ltmp29-.Lfunc_begin1          #     jumps to .Ltmp29
	.byte	0                               #   On action: cleanup
	.uleb128 .Ltmp21-.Lfunc_begin1          # >> Call Site 26 <<
	.uleb128 .Ltmp22-.Ltmp21                #   Call between .Ltmp21 and .Ltmp22
	.uleb128 .Ltmp23-.Lfunc_begin1          #     jumps to .Ltmp23
	.byte	0                               #   On action: cleanup
	.uleb128 .Ltmp22-.Lfunc_begin1          # >> Call Site 27 <<
	.uleb128 .Lfunc_end4-.Ltmp22            #   Call between .Ltmp22 and .Lfunc_end4
	.byte	0                               #     has no landing pad
	.byte	0                               #   On action: cleanup
.Lcst_end1:
	.byte	1                               # >> Action Record 1 <<
                                        #   Catch TypeInfo 1
	.byte	0                               #   No further actions
	.p2align	2, 0x0
                                        # >> Catch TypeInfos <<
	.word	0                               # TypeInfo 1
.Lttbase0:
	.p2align	2, 0x0
                                        # -- End function
	.section	.text._ZN9benchmark5Regex4InitERKNSt7__cxx1112basic_stringIcSt11char_traitsIcESaIcEEEPS6_,"axG",@progbits,_ZN9benchmark5Regex4InitERKNSt7__cxx1112basic_stringIcSt11char_traitsIcESaIcEEEPS6_,comdat
	.hidden	_ZN9benchmark5Regex4InitERKNSt7__cxx1112basic_stringIcSt11char_traitsIcESaIcEEEPS6_ # -- Begin function _ZN9benchmark5Regex4InitERKNSt7__cxx1112basic_stringIcSt11char_traitsIcESaIcEEEPS6_
	.weak	_ZN9benchmark5Regex4InitERKNSt7__cxx1112basic_stringIcSt11char_traitsIcESaIcEEEPS6_
	.p2align	2
	.type	_ZN9benchmark5Regex4InitERKNSt7__cxx1112basic_stringIcSt11char_traitsIcESaIcEEEPS6_,@function
_ZN9benchmark5Regex4InitERKNSt7__cxx1112basic_stringIcSt11char_traitsIcESaIcEEEPS6_: # @_ZN9benchmark5Regex4InitERKNSt7__cxx1112basic_stringIcSt11char_traitsIcESaIcEEEPS6_
.Lfunc_begin2:
	.cfi_startproc
	.cfi_personality 155, DW.ref.__gxx_personality_v0
	.cfi_lsda 27, .Lexception2
# %bb.0:                                # %entry
	addi.d	$sp, $sp, -80
	.cfi_def_cfa_offset 80
	st.d	$ra, $sp, 72                    # 8-byte Folded Spill
	st.d	$fp, $sp, 64                    # 8-byte Folded Spill
	st.d	$s0, $sp, 56                    # 8-byte Folded Spill
	st.d	$s1, $sp, 48                    # 8-byte Folded Spill
	.cfi_offset 1, -8
	.cfi_offset 22, -16
	.cfi_offset 23, -24
	.cfi_offset 24, -32
	move	$s0, $a2
	move	$fp, $a0
.Ltmp69:                                # EH_LABEL
	addi.d	$a0, $sp, 16
	ori	$a2, $zero, 64
	pcaddu18i	$ra, %call36(_ZNSt7__cxx1111basic_regexIcNS_12regex_traitsIcEEEC2ISt11char_traitsIcESaIcEEERKNS_12basic_stringIcT_T0_EENSt15regex_constants18syntax_option_typeE)
	jirl	$ra, $ra, 0
.Ltmp70:                                # EH_LABEL
# %bb.1:                                # %invoke.cont
	ld.w	$a0, $sp, 16
	st.w	$a0, $fp, 8
	addi.d	$a0, $fp, 16
	addi.d	$s0, $sp, 24
	move	$a1, $s0
	pcaddu18i	$ra, %call36(_ZNSt6localeaSERKS_)
	jirl	$ra, $ra, 0
	vld	$vr0, $sp, 32
	ld.d	$s1, $fp, 32
	vrepli.b	$vr1, 0
	vst	$vr1, $sp, 32
	vst	$vr0, $fp, 24
	beqz	$s1, .LBB5_6
# %bb.2:                                # %if.then.i.i.i.i.i
	ld.d	$a0, $s1, 8
	ori	$a1, $zero, 1
	lu32i.d	$a1, 1
	dbar	20
	bne	$a0, $a1, .LBB5_4
# %bb.3:                                # %if.then.i.i.i.i.i.i
	ld.d	$a0, $s1, 0
	st.d	$zero, $s1, 8
	ld.d	$a1, $a0, 16
	move	$a0, $s1
	jirl	$ra, $a1, 0
	ld.d	$a0, $s1, 0
	ld.d	$a1, $a0, 24
	move	$a0, $s1
	jirl	$ra, $a1, 0
	ld.d	$s1, $sp, 40
	bnez	$s1, .LBB5_7
	b	.LBB5_14
.LBB5_4:                                # %if.end.i.i.i.i.i.i
	pcalau12i	$a1, %got_pc_hi20(__libc_single_threaded)
	ld.d	$a1, $a1, %got_pc_lo12(__libc_single_threaded)
	ld.bu	$a1, $a1, 0
	beqz	$a1, .LBB5_11
# %bb.5:                                # %if.then.i.i.i.i.i.i.i
	addi.d	$a1, $a0, -1
	st.w	$a1, $s1, 8
	addi.w	$a0, $a0, 0
	ori	$a1, $zero, 1
	beq	$a0, $a1, .LBB5_12
.LBB5_6:                                # %_ZNSt7__cxx1111basic_regexIcNS_12regex_traitsIcEEEaSEOS3_.exit
	ld.d	$s1, $sp, 40
	beqz	$s1, .LBB5_14
.LBB5_7:                                # %if.then.i.i.i
	ld.d	$a0, $s1, 8
	ori	$a1, $zero, 1
	lu32i.d	$a1, 1
	dbar	20
	bne	$a0, $a1, .LBB5_9
# %bb.8:                                # %if.then.i.i.i.i
	ld.d	$a0, $s1, 0
	st.d	$zero, $s1, 8
	ld.d	$a1, $a0, 16
	move	$a0, $s1
	jirl	$ra, $a1, 0
	ld.d	$a0, $s1, 0
	ld.d	$a1, $a0, 24
	move	$a0, $s1
	jirl	$ra, $a1, 0
	b	.LBB5_14
.LBB5_9:                                # %if.end.i.i.i.i
	pcalau12i	$a1, %got_pc_hi20(__libc_single_threaded)
	ld.d	$a1, $a1, %got_pc_lo12(__libc_single_threaded)
	ld.bu	$a1, $a1, 0
	beqz	$a1, .LBB5_13
# %bb.10:                               # %if.then.i.i.i.i.i3
	addi.d	$a1, $a0, -1
	st.w	$a1, $s1, 8
	addi.w	$a0, $a0, 0
	ori	$a1, $zero, 1
	bne	$a0, $a1, .LBB5_14
	b	.LBB5_16
.LBB5_11:                               # %if.else.i.i.i.i.i.i.i
	addi.d	$a1, $s1, 8
	addi.w	$a2, $zero, -1
	amadd_db.w	$a0, $a2, $a1
	addi.w	$a0, $a0, 0
	ori	$a1, $zero, 1
	bne	$a0, $a1, .LBB5_6
.LBB5_12:                               # %if.then7.i.i.i.i.i.i
	move	$a0, $s1
	pcaddu18i	$ra, %call36(_ZNSt16_Sp_counted_baseILN9__gnu_cxx12_Lock_policyE2EE24_M_release_last_use_coldEv)
	jirl	$ra, $ra, 0
	ld.d	$s1, $sp, 40
	bnez	$s1, .LBB5_7
	b	.LBB5_14
.LBB5_13:                               # %if.else.i.i.i.i.i
	addi.d	$a1, $s1, 8
	addi.w	$a2, $zero, -1
	amadd_db.w	$a0, $a2, $a1
	addi.w	$a0, $a0, 0
	ori	$a1, $zero, 1
	beq	$a0, $a1, .LBB5_16
.LBB5_14:                               # %_ZNSt7__cxx1111basic_regexIcNS_12regex_traitsIcEEED2Ev.exit
	move	$a0, $s0
	pcaddu18i	$ra, %call36(_ZNSt6localeD1Ev)
	jirl	$ra, $ra, 0
	ori	$a0, $zero, 1
	st.b	$a0, $fp, 0
.LBB5_15:                               # %try.cont
	andi	$a0, $a0, 1
	ld.d	$s1, $sp, 48                    # 8-byte Folded Reload
	ld.d	$s0, $sp, 56                    # 8-byte Folded Reload
	ld.d	$fp, $sp, 64                    # 8-byte Folded Reload
	ld.d	$ra, $sp, 72                    # 8-byte Folded Reload
	addi.d	$sp, $sp, 80
	ret
.LBB5_16:                               # %if.then7.i.i.i.i
	move	$a0, $s1
	pcaddu18i	$ra, %call36(_ZNSt16_Sp_counted_baseILN9__gnu_cxx12_Lock_policyE2EE24_M_release_last_use_coldEv)
	jirl	$ra, $ra, 0
	b	.LBB5_14
.LBB5_17:                               # %lpad
.Ltmp71:                                # EH_LABEL
	addi.w	$a1, $a1, 0
	ori	$a2, $zero, 1
	move	$s1, $a0
	bne	$a1, $a2, .LBB5_22
# %bb.18:                               # %catch
	move	$a0, $s1
	pcaddu18i	$ra, %call36(__cxa_begin_catch)
	jirl	$ra, $ra, 0
	beqz	$s0, .LBB5_20
# %bb.19:                               # %if.then
	ld.d	$a1, $a0, 0
	ld.d	$a1, $a1, 16
	jirl	$ra, $a1, 0
	move	$a1, $a0
.Ltmp72:                                # EH_LABEL
	move	$a0, $s0
	pcaddu18i	$ra, %call36(_ZNSt7__cxx1112basic_stringIcSt11char_traitsIcESaIcEEaSEPKc)
	jirl	$ra, $ra, 0
.Ltmp73:                                # EH_LABEL
.LBB5_20:                               # %if.end
	pcaddu18i	$ra, %call36(__cxa_end_catch)
	jirl	$ra, $ra, 0
	ld.b	$a0, $fp, 0
	b	.LBB5_15
.LBB5_21:                               # %lpad3
.Ltmp74:                                # EH_LABEL
	move	$s1, $a0
.Ltmp75:                                # EH_LABEL
	pcaddu18i	$ra, %call36(__cxa_end_catch)
	jirl	$ra, $ra, 0
.Ltmp76:                                # EH_LABEL
.LBB5_22:                               # %eh.resume
	move	$a0, $s1
	pcaddu18i	$ra, %call36(_Unwind_Resume)
	jirl	$ra, $ra, 0
.LBB5_23:                               # %terminate.lpad
.Ltmp77:                                # EH_LABEL
	pcaddu18i	$ra, %call36(__clang_call_terminate)
	jirl	$ra, $ra, 0
.Lfunc_end5:
	.size	_ZN9benchmark5Regex4InitERKNSt7__cxx1112basic_stringIcSt11char_traitsIcESaIcEEEPS6_, .Lfunc_end5-_ZN9benchmark5Regex4InitERKNSt7__cxx1112basic_stringIcSt11char_traitsIcESaIcEEEPS6_
	.cfi_endproc
	.section	.gcc_except_table._ZN9benchmark5Regex4InitERKNSt7__cxx1112basic_stringIcSt11char_traitsIcESaIcEEEPS6_,"aG",@progbits,_ZN9benchmark5Regex4InitERKNSt7__cxx1112basic_stringIcSt11char_traitsIcESaIcEEEPS6_,comdat
	.p2align	2, 0x0
GCC_except_table5:
.Lexception2:
	.byte	255                             # @LPStart Encoding = omit
	.byte	155                             # @TType Encoding = indirect pcrel sdata4
	.uleb128 .Lttbase1-.Lttbaseref1
.Lttbaseref1:
	.byte	1                               # Call site Encoding = uleb128
	.uleb128 .Lcst_end2-.Lcst_begin2
.Lcst_begin2:
	.uleb128 .Ltmp69-.Lfunc_begin2          # >> Call Site 1 <<
	.uleb128 .Ltmp70-.Ltmp69                #   Call between .Ltmp69 and .Ltmp70
	.uleb128 .Ltmp71-.Lfunc_begin2          #     jumps to .Ltmp71
	.byte	3                               #   On action: 2
	.uleb128 .Ltmp70-.Lfunc_begin2          # >> Call Site 2 <<
	.uleb128 .Ltmp72-.Ltmp70                #   Call between .Ltmp70 and .Ltmp72
	.byte	0                               #     has no landing pad
	.byte	0                               #   On action: cleanup
	.uleb128 .Ltmp72-.Lfunc_begin2          # >> Call Site 3 <<
	.uleb128 .Ltmp73-.Ltmp72                #   Call between .Ltmp72 and .Ltmp73
	.uleb128 .Ltmp74-.Lfunc_begin2          #     jumps to .Ltmp74
	.byte	0                               #   On action: cleanup
	.uleb128 .Ltmp73-.Lfunc_begin2          # >> Call Site 4 <<
	.uleb128 .Ltmp75-.Ltmp73                #   Call between .Ltmp73 and .Ltmp75
	.byte	0                               #     has no landing pad
	.byte	0                               #   On action: cleanup
	.uleb128 .Ltmp75-.Lfunc_begin2          # >> Call Site 5 <<
	.uleb128 .Ltmp76-.Ltmp75                #   Call between .Ltmp75 and .Ltmp76
	.uleb128 .Ltmp77-.Lfunc_begin2          #     jumps to .Ltmp77
	.byte	5                               #   On action: 3
	.uleb128 .Ltmp76-.Lfunc_begin2          # >> Call Site 6 <<
	.uleb128 .Lfunc_end5-.Ltmp76            #   Call between .Ltmp76 and .Lfunc_end5
	.byte	0                               #     has no landing pad
	.byte	0                               #   On action: cleanup
.Lcst_end2:
	.byte	0                               # >> Action Record 1 <<
                                        #   Cleanup
	.byte	0                               #   No further actions
	.byte	1                               # >> Action Record 2 <<
                                        #   Catch TypeInfo 1
	.byte	125                             #   Continue to action 1
	.byte	2                               # >> Action Record 3 <<
                                        #   Catch TypeInfo 2
	.byte	0                               #   No further actions
	.p2align	2, 0x0
                                        # >> Catch TypeInfos <<
	.word	0                               # TypeInfo 2
.Ltmp78:                                # TypeInfo 1
	.word	.L_ZTISt11regex_error.DW.stub-.Ltmp78
.Lttbase1:
	.p2align	2, 0x0
                                        # -- End function
	.text
	.hidden	_ZNK9benchmark8internal9Benchmark7ArgsCntEv # -- Begin function _ZNK9benchmark8internal9Benchmark7ArgsCntEv
	.globl	_ZNK9benchmark8internal9Benchmark7ArgsCntEv
	.p2align	2
	.type	_ZNK9benchmark8internal9Benchmark7ArgsCntEv,@function
_ZNK9benchmark8internal9Benchmark7ArgsCntEv: # @_ZNK9benchmark8internal9Benchmark7ArgsCntEv
# %bb.0:                                # %entry
	ld.d	$a1, $a0, 72
	ld.d	$a2, $a0, 80
	beq	$a1, $a2, .LBB6_2
# %bb.1:                                # %if.end6
	ld.d	$a0, $a1, 8
	ld.d	$a1, $a1, 0
	ori	$a2, $zero, 3
	sub.d	$a0, $a0, $a1
	sra.d	$a0, $a0, $a2
	addi.w	$a0, $a0, 0
	ret
.LBB6_2:                                # %if.then
	ld.d	$a1, $a0, 48
	ld.d	$a0, $a0, 56
	ori	$a2, $zero, 5
	beq	$a1, $a0, .LBB6_4
# %bb.3:                                # %return.sink.split
	sub.d	$a0, $a0, $a1
	sra.d	$a0, $a0, $a2
	addi.w	$a0, $a0, 0
	ret
.LBB6_4:
	addi.d	$a0, $zero, -1
	addi.w	$a0, $a0, 0
	ret
.Lfunc_end6:
	.size	_ZNK9benchmark8internal9Benchmark7ArgsCntEv, .Lfunc_end6-_ZNK9benchmark8internal9Benchmark7ArgsCntEv
                                        # -- End function
	.hidden	_ZN9benchmark8internal9Benchmark4ArgsERKSt6vectorIlSaIlEE # -- Begin function _ZN9benchmark8internal9Benchmark4ArgsERKSt6vectorIlSaIlEE
	.globl	_ZN9benchmark8internal9Benchmark4ArgsERKSt6vectorIlSaIlEE
	.p2align	2
	.type	_ZN9benchmark8internal9Benchmark4ArgsERKSt6vectorIlSaIlEE,@function
_ZN9benchmark8internal9Benchmark4ArgsERKSt6vectorIlSaIlEE: # @_ZN9benchmark8internal9Benchmark4ArgsERKSt6vectorIlSaIlEE
	.cfi_startproc
# %bb.0:                                # %entry
	addi.d	$sp, $sp, -48
	.cfi_def_cfa_offset 48
	st.d	$ra, $sp, 40                    # 8-byte Folded Spill
	st.d	$fp, $sp, 32                    # 8-byte Folded Spill
	st.d	$s0, $sp, 24                    # 8-byte Folded Spill
	st.d	$s1, $sp, 16                    # 8-byte Folded Spill
	st.d	$s2, $sp, 8                     # 8-byte Folded Spill
	.cfi_offset 1, -8
	.cfi_offset 22, -16
	.cfi_offset 23, -24
	.cfi_offset 24, -32
	.cfi_offset 25, -40
	pcalau12i	$a2, %pc_hi20(_ZGVZN9benchmark8internal18GetNullLogInstanceEvE8null_log)
	ld.b	$a2, $a2, %pc_lo12(_ZGVZN9benchmark8internal18GetNullLogInstanceEvE8null_log)
	move	$fp, $a0
	dbar	20
	beqz	$a2, .LBB7_10
.LBB7_1:                                # %_ZN9benchmark8internal18GetNullLogInstanceEv.exit
	ld.d	$s2, $fp, 80
	ld.d	$a0, $fp, 88
	beq	$s2, $a0, .LBB7_4
# %bb.2:                                # %if.then.i
	ld.d	$a0, $a1, 8
	ld.d	$a2, $a1, 0
	sub.d	$s1, $a0, $a2
	st.d	$zero, $s2, 16
	vrepli.b	$vr0, 0
	vst	$vr0, $s2, 0
	beq	$a0, $a2, .LBB7_5
# %bb.3:                                # %_ZNSt15__new_allocatorIlE8allocateEmPKv.exit.i.i.i.i.i
	move	$a0, $s1
	move	$s0, $a1
	pcaddu18i	$ra, %call36(_Znwm)
	jirl	$ra, $ra, 0
	move	$a1, $s0
	move	$s0, $a0
	b	.LBB7_6
.LBB7_4:                                # %if.else.i
	addi.d	$a0, $fp, 72
	pcaddu18i	$ra, %call36(_ZNSt6vectorIS_IlSaIlEESaIS1_EE17_M_realloc_appendIJRKS1_EEEvDpOT_)
	jirl	$ra, $ra, 0
	b	.LBB7_9
.LBB7_5:
	move	$s0, $zero
.LBB7_6:                                # %invoke.cont.i.i
	st.d	$s0, $s2, 0
	st.d	$s0, $s2, 8
	add.d	$a0, $s0, $s1
	st.d	$a0, $s2, 16
	ld.d	$a2, $a1, 0
	ld.d	$a0, $a1, 8
	sub.d	$s1, $a0, $a2
	ori	$a0, $zero, 1
	blt	$s1, $a0, .LBB7_8
# %bb.7:                                # %if.then.i.i.i.i
	move	$a0, $s0
	move	$a1, $a2
	move	$a2, $s1
	pcaddu18i	$ra, %call36(memcpy)
	jirl	$ra, $ra, 0
	add.d	$s0, $s0, $s1
.LBB7_8:                                # %_ZNSt6vectorIlSaIlEEC2ERKS1_.exit.i
	ld.d	$a0, $fp, 80
	st.d	$s0, $s2, 8
	addi.d	$a0, $a0, 24
	st.d	$a0, $fp, 80
.LBB7_9:                                # %_ZNSt6vectorIS_IlSaIlEESaIS1_EE9push_backERKS1_.exit
	move	$a0, $fp
	ld.d	$s2, $sp, 8                     # 8-byte Folded Reload
	ld.d	$s1, $sp, 16                    # 8-byte Folded Reload
	ld.d	$s0, $sp, 24                    # 8-byte Folded Reload
	ld.d	$fp, $sp, 32                    # 8-byte Folded Reload
	ld.d	$ra, $sp, 40                    # 8-byte Folded Reload
	addi.d	$sp, $sp, 48
	ret
.LBB7_10:                               # %init.check.i
	pcalau12i	$a0, %pc_hi20(_ZGVZN9benchmark8internal18GetNullLogInstanceEvE8null_log)
	addi.d	$a0, $a0, %pc_lo12(_ZGVZN9benchmark8internal18GetNullLogInstanceEvE8null_log)
	move	$s0, $a1
	pcaddu18i	$ra, %call36(__cxa_guard_acquire)
	jirl	$ra, $ra, 0
	move	$a1, $s0
	addi.w	$a0, $a0, 0
	beqz	$a0, .LBB7_1
# %bb.11:                               # %init.i
	pcalau12i	$a0, %pc_hi20(_ZZN9benchmark8internal18GetNullLogInstanceEvE8null_log)
	st.d	$zero, $a0, %pc_lo12(_ZZN9benchmark8internal18GetNullLogInstanceEvE8null_log)
	pcalau12i	$a0, %pc_hi20(_ZGVZN9benchmark8internal18GetNullLogInstanceEvE8null_log)
	addi.d	$a0, $a0, %pc_lo12(_ZGVZN9benchmark8internal18GetNullLogInstanceEvE8null_log)
	pcaddu18i	$ra, %call36(__cxa_guard_release)
	jirl	$ra, $ra, 0
	move	$a1, $s0
	b	.LBB7_1
.Lfunc_end7:
	.size	_ZN9benchmark8internal9Benchmark4ArgsERKSt6vectorIlSaIlEE, .Lfunc_end7-_ZN9benchmark8internal9Benchmark4ArgsERKSt6vectorIlSaIlEE
	.cfi_endproc
                                        # -- End function
	.section	.text._ZNSt6vectorIN9benchmark8internal17BenchmarkInstanceESaIS2_EE7reserveEm,"axG",@progbits,_ZNSt6vectorIN9benchmark8internal17BenchmarkInstanceESaIS2_EE7reserveEm,comdat
	.hidden	_ZNSt6vectorIN9benchmark8internal17BenchmarkInstanceESaIS2_EE7reserveEm # -- Begin function _ZNSt6vectorIN9benchmark8internal17BenchmarkInstanceESaIS2_EE7reserveEm
	.weak	_ZNSt6vectorIN9benchmark8internal17BenchmarkInstanceESaIS2_EE7reserveEm
	.p2align	2
	.type	_ZNSt6vectorIN9benchmark8internal17BenchmarkInstanceESaIS2_EE7reserveEm,@function
_ZNSt6vectorIN9benchmark8internal17BenchmarkInstanceESaIS2_EE7reserveEm: # @_ZNSt6vectorIN9benchmark8internal17BenchmarkInstanceESaIS2_EE7reserveEm
	.cfi_startproc
# %bb.0:                                # %entry
	addi.d	$sp, $sp, -80
	.cfi_def_cfa_offset 80
	st.d	$ra, $sp, 72                    # 8-byte Folded Spill
	st.d	$fp, $sp, 64                    # 8-byte Folded Spill
	st.d	$s0, $sp, 56                    # 8-byte Folded Spill
	st.d	$s1, $sp, 48                    # 8-byte Folded Spill
	st.d	$s2, $sp, 40                    # 8-byte Folded Spill
	st.d	$s3, $sp, 32                    # 8-byte Folded Spill
	st.d	$s4, $sp, 24                    # 8-byte Folded Spill
	st.d	$s5, $sp, 16                    # 8-byte Folded Spill
	st.d	$s6, $sp, 8                     # 8-byte Folded Spill
	.cfi_offset 1, -8
	.cfi_offset 22, -16
	.cfi_offset 23, -24
	.cfi_offset 24, -32
	.cfi_offset 25, -40
	.cfi_offset 26, -48
	.cfi_offset 27, -56
	.cfi_offset 28, -64
	.cfi_offset 29, -72
	lu12i.w	$a2, -79138
	ori	$a2, $a2, 773
	lu32i.d	$a2, -178061
	lu52i.d	$a2, $a2, 4
	bgeu	$a1, $a2, .LBB8_13
# %bb.1:                                # %if.end
	move	$s0, $a1
	move	$fp, $a0
	ld.d	$a0, $a0, 16
	ld.d	$s4, $fp, 0
	sub.d	$a0, $a0, $s4
	srli.d	$a0, $a0, 3
	lu12i.w	$a1, -474827
	ori	$a1, $a1, 541
	lu32i.d	$a1, -19785
	lu52i.d	$a1, $a1, 540
	mul.d	$a0, $a0, $a1
	bgeu	$a0, $s0, .LBB8_12
# %bb.2:                                # %_ZNSt12_Vector_baseIN9benchmark8internal17BenchmarkInstanceESaIS2_EE11_M_allocateEm.exit
	ld.d	$s5, $fp, 8
	ori	$a0, $zero, 424
	mul.d	$a0, $s0, $a0
	pcaddu18i	$ra, %call36(_Znwm)
	jirl	$ra, $ra, 0
	move	$s1, $a0
	move	$a0, $s4
	beq	$s5, $s4, .LBB8_9
# %bb.3:                                # %for.body.i.i.i.preheader
	move	$s6, $zero
	b	.LBB8_6
	.p2align	4, , 16
.LBB8_4:                                # %if.else.i.i.i.i.i.i.i.i.i
                                        #   in Loop: Header=BB8_6 Depth=1
	move	$a2, $zero
	move	$a1, $zero
	st.d	$zero, $s3, 328
	move	$a3, $a0
	move	$a4, $a0
.LBB8_5:                                # %_ZSt19__relocate_object_aIN9benchmark8internal17BenchmarkInstanceES2_SaIS2_EEvPT_PT0_RT1_.exit.i.i.i
                                        #   in Loop: Header=BB8_6 Depth=1
	st.d	$a3, $s3, 336
	st.d	$a4, $s3, 344
	st.d	$a2, $s3, 352
	st.w	$a1, $a0, 0
	xvld	$xr0, $s2, 360
	xvst	$xr0, $s3, 360
	xvld	$xr0, $s2, 392
	xvst	$xr0, $s3, 392
	move	$a0, $s2
	pcaddu18i	$ra, %call36(_ZN9benchmark13BenchmarkNameD2Ev)
	jirl	$ra, $ra, 0
	addi.d	$s6, $s6, 424
	add.d	$a0, $s4, $s6
	beq	$a0, $s5, .LBB8_8
.LBB8_6:                                # %for.body.i.i.i
                                        # =>This Inner Loop Header: Depth=1
	add.d	$s3, $s1, $s6
	add.d	$s2, $s4, $s6
	move	$a0, $s3
	move	$a1, $s2
	pcaddu18i	$ra, %call36(_ZN9benchmark13BenchmarkNameC2EOS0_)
	jirl	$ra, $ra, 0
	ld.d	$a0, $s2, 304
	st.d	$a0, $s3, 304
	vld	$vr0, $s2, 288
	vst	$vr0, $s3, 288
	xvld	$xr0, $s2, 256
	xvst	$xr0, $s3, 256
	ld.d	$a2, $s2, 328
	addi.d	$a0, $s3, 320
	beqz	$a2, .LBB8_4
# %bb.7:                                # %if.then.i.i.i.i.i.i.i.i.i
                                        #   in Loop: Header=BB8_6 Depth=1
	addi.d	$a5, $s2, 320
	ld.w	$a1, $s2, 320
	st.d	$a2, $s3, 328
	ld.d	$a3, $s2, 336
	ld.d	$a4, $s2, 344
	st.d	$a0, $a2, 8
	ld.d	$a2, $s2, 352
	st.d	$zero, $s2, 328
	st.d	$a5, $s2, 336
	st.d	$a5, $s2, 344
	st.d	$zero, $s2, 352
	b	.LBB8_5
.LBB8_8:                                # %_ZNSt6vectorIN9benchmark8internal17BenchmarkInstanceESaIS2_EE11_S_relocateEPS2_S5_S5_RS3_.exit.loopexit
	ld.d	$a0, $fp, 0
.LBB8_9:                                # %_ZNSt6vectorIN9benchmark8internal17BenchmarkInstanceESaIS2_EE11_S_relocateEPS2_S5_S5_RS3_.exit
	sub.d	$s2, $s5, $s4
	beqz	$a0, .LBB8_11
# %bb.10:                               # %if.then.i
	ld.d	$a1, $fp, 16
	sub.d	$a1, $a1, $a0
	pcaddu18i	$ra, %call36(_ZdlPvm)
	jirl	$ra, $ra, 0
.LBB8_11:                               # %_ZNSt12_Vector_baseIN9benchmark8internal17BenchmarkInstanceESaIS2_EE13_M_deallocateEPS2_m.exit
	st.d	$s1, $fp, 0
	add.d	$a0, $s1, $s2
	st.d	$a0, $fp, 8
	ori	$a0, $zero, 424
	mul.d	$a0, $s0, $a0
	add.d	$a0, $s1, $a0
	st.d	$a0, $fp, 16
.LBB8_12:                               # %if.end24
	ld.d	$s6, $sp, 8                     # 8-byte Folded Reload
	ld.d	$s5, $sp, 16                    # 8-byte Folded Reload
	ld.d	$s4, $sp, 24                    # 8-byte Folded Reload
	ld.d	$s3, $sp, 32                    # 8-byte Folded Reload
	ld.d	$s2, $sp, 40                    # 8-byte Folded Reload
	ld.d	$s1, $sp, 48                    # 8-byte Folded Reload
	ld.d	$s0, $sp, 56                    # 8-byte Folded Reload
	ld.d	$fp, $sp, 64                    # 8-byte Folded Reload
	ld.d	$ra, $sp, 72                    # 8-byte Folded Reload
	addi.d	$sp, $sp, 80
	ret
.LBB8_13:                               # %if.then
	pcalau12i	$a0, %pc_hi20(.L.str.181)
	addi.d	$a0, $a0, %pc_lo12(.L.str.181)
	pcaddu18i	$ra, %call36(_ZSt20__throw_length_errorPKc)
	jirl	$ra, $ra, 0
.Lfunc_end8:
	.size	_ZNSt6vectorIN9benchmark8internal17BenchmarkInstanceESaIS2_EE7reserveEm, .Lfunc_end8-_ZNSt6vectorIN9benchmark8internal17BenchmarkInstanceESaIS2_EE7reserveEm
	.cfi_endproc
                                        # -- End function
	.section	.text._ZN9benchmark8internal17BenchmarkInstanceD2Ev,"axG",@progbits,_ZN9benchmark8internal17BenchmarkInstanceD2Ev,comdat
	.hidden	_ZN9benchmark8internal17BenchmarkInstanceD2Ev # -- Begin function _ZN9benchmark8internal17BenchmarkInstanceD2Ev
	.weak	_ZN9benchmark8internal17BenchmarkInstanceD2Ev
	.p2align	2
	.type	_ZN9benchmark8internal17BenchmarkInstanceD2Ev,@function
_ZN9benchmark8internal17BenchmarkInstanceD2Ev: # @_ZN9benchmark8internal17BenchmarkInstanceD2Ev
.Lfunc_begin3:
	.cfi_startproc
	.cfi_personality 155, DW.ref.__gxx_personality_v0
	.cfi_lsda 27, .Lexception3
# %bb.0:                                # %entry
	addi.d	$sp, $sp, -16
	.cfi_def_cfa_offset 16
	st.d	$ra, $sp, 8                     # 8-byte Folded Spill
	st.d	$fp, $sp, 0                     # 8-byte Folded Spill
	.cfi_offset 1, -8
	.cfi_offset 22, -16
	move	$fp, $a0
	ld.d	$a1, $a0, 328
	addi.d	$a0, $a0, 312
.Ltmp79:                                # EH_LABEL
	pcaddu18i	$ra, %call36(_ZNSt8_Rb_treeINSt7__cxx1112basic_stringIcSt11char_traitsIcESaIcEEESt4pairIKS5_N9benchmark7CounterEESt10_Select1stISA_ESt4lessIS5_ESaISA_EE8_M_eraseEPSt13_Rb_tree_nodeISA_E)
	jirl	$ra, $ra, 0
.Ltmp80:                                # EH_LABEL
# %bb.1:                                # %_ZNSt3mapINSt7__cxx1112basic_stringIcSt11char_traitsIcESaIcEEEN9benchmark7CounterESt4lessIS5_ESaISt4pairIKS5_S7_EEED2Ev.exit
	move	$a0, $fp
	ld.d	$fp, $sp, 0                     # 8-byte Folded Reload
	ld.d	$ra, $sp, 8                     # 8-byte Folded Reload
	addi.d	$sp, $sp, 16
	pcaddu18i	$t8, %call36(_ZN9benchmark13BenchmarkNameD2Ev)
	jr	$t8
.LBB9_2:                                # %terminate.lpad.i.i
.Ltmp81:                                # EH_LABEL
	pcaddu18i	$ra, %call36(__clang_call_terminate)
	jirl	$ra, $ra, 0
.Lfunc_end9:
	.size	_ZN9benchmark8internal17BenchmarkInstanceD2Ev, .Lfunc_end9-_ZN9benchmark8internal17BenchmarkInstanceD2Ev
	.cfi_endproc
	.section	.gcc_except_table._ZN9benchmark8internal17BenchmarkInstanceD2Ev,"aG",@progbits,_ZN9benchmark8internal17BenchmarkInstanceD2Ev,comdat
	.p2align	2, 0x0
GCC_except_table9:
.Lexception3:
	.byte	255                             # @LPStart Encoding = omit
	.byte	155                             # @TType Encoding = indirect pcrel sdata4
	.uleb128 .Lttbase2-.Lttbaseref2
.Lttbaseref2:
	.byte	1                               # Call site Encoding = uleb128
	.uleb128 .Lcst_end3-.Lcst_begin3
.Lcst_begin3:
	.uleb128 .Ltmp79-.Lfunc_begin3          # >> Call Site 1 <<
	.uleb128 .Ltmp80-.Ltmp79                #   Call between .Ltmp79 and .Ltmp80
	.uleb128 .Ltmp81-.Lfunc_begin3          #     jumps to .Ltmp81
	.byte	1                               #   On action: 1
	.uleb128 .Ltmp80-.Lfunc_begin3          # >> Call Site 2 <<
	.uleb128 .Lfunc_end9-.Ltmp80            #   Call between .Ltmp80 and .Lfunc_end9
	.byte	0                               #     has no landing pad
	.byte	0                               #   On action: cleanup
.Lcst_end3:
	.byte	1                               # >> Action Record 1 <<
                                        #   Catch TypeInfo 1
	.byte	0                               #   No further actions
	.p2align	2, 0x0
                                        # >> Catch TypeInfos <<
	.word	0                               # TypeInfo 1
.Lttbase2:
	.p2align	2, 0x0
                                        # -- End function
	.text
	.hidden	_ZN9benchmark8internal25RegisterBenchmarkInternalEPNS0_9BenchmarkE # -- Begin function _ZN9benchmark8internal25RegisterBenchmarkInternalEPNS0_9BenchmarkE
	.globl	_ZN9benchmark8internal25RegisterBenchmarkInternalEPNS0_9BenchmarkE
	.p2align	5
	.type	_ZN9benchmark8internal25RegisterBenchmarkInternalEPNS0_9BenchmarkE,@function
_ZN9benchmark8internal25RegisterBenchmarkInternalEPNS0_9BenchmarkE: # @_ZN9benchmark8internal25RegisterBenchmarkInternalEPNS0_9BenchmarkE
.Lfunc_begin4:
	.cfi_startproc
	.cfi_personality 155, DW.ref.__gxx_personality_v0
	.cfi_lsda 27, .Lexception4
# %bb.0:                                # %entry
	addi.d	$sp, $sp, -32
	.cfi_def_cfa_offset 32
	st.d	$ra, $sp, 24                    # 8-byte Folded Spill
	st.d	$fp, $sp, 16                    # 8-byte Folded Spill
	.cfi_offset 1, -8
	.cfi_offset 22, -16
	pcalau12i	$a1, %pc_hi20(_ZGVZN9benchmark8internal17BenchmarkFamilies11GetInstanceEvE8instance)
	ld.b	$a1, $a1, %pc_lo12(_ZGVZN9benchmark8internal17BenchmarkFamilies11GetInstanceEvE8instance)
	move	$fp, $a0
	dbar	20
	beqz	$a1, .LBB10_5
.LBB10_1:                               # %invoke.cont
	st.d	$fp, $sp, 8
.Ltmp82:                                # EH_LABEL
	pcalau12i	$a0, %pc_hi20(_ZZN9benchmark8internal17BenchmarkFamilies11GetInstanceEvE8instance)
	addi.d	$a0, $a0, %pc_lo12(_ZZN9benchmark8internal17BenchmarkFamilies11GetInstanceEvE8instance)
	addi.d	$a1, $sp, 8
	pcaddu18i	$ra, %call36(_ZN9benchmark8internal17BenchmarkFamilies12AddBenchmarkESt10unique_ptrINS0_9BenchmarkESt14default_deleteIS3_EE)
	jirl	$ra, $ra, 0
.Ltmp83:                                # EH_LABEL
# %bb.2:                                # %invoke.cont2
	ld.d	$a0, $sp, 8
	beqz	$a0, .LBB10_4
# %bb.3:                                # %_ZNKSt14default_deleteIN9benchmark8internal9BenchmarkEEclEPS2_.exit.i
	ld.d	$a1, $a0, 0
	ld.d	$a1, $a1, 8
	jirl	$ra, $a1, 0
.LBB10_4:                               # %_ZNSt10unique_ptrIN9benchmark8internal9BenchmarkESt14default_deleteIS2_EED2Ev.exit7
	move	$a0, $fp
	ld.d	$fp, $sp, 16                    # 8-byte Folded Reload
	ld.d	$ra, $sp, 24                    # 8-byte Folded Reload
	addi.d	$sp, $sp, 32
	ret
.LBB10_5:                               # %init.check.i
	pcalau12i	$a0, %pc_hi20(_ZGVZN9benchmark8internal17BenchmarkFamilies11GetInstanceEvE8instance)
	addi.d	$a0, $a0, %pc_lo12(_ZGVZN9benchmark8internal17BenchmarkFamilies11GetInstanceEvE8instance)
	pcaddu18i	$ra, %call36(__cxa_guard_acquire)
	jirl	$ra, $ra, 0
	addi.w	$a0, $a0, 0
	beqz	$a0, .LBB10_1
# %bb.6:                                # %invoke.cont.i
	pcalau12i	$a0, %pc_hi20(_ZZN9benchmark8internal17BenchmarkFamilies11GetInstanceEvE8instance)
	addi.d	$a1, $a0, %pc_lo12(_ZZN9benchmark8internal17BenchmarkFamilies11GetInstanceEvE8instance)
	xvrepli.b	$xr0, 0
	xvst	$xr0, $a1, 32
	xvst	$xr0, $a1, 0
	pcalau12i	$a0, %pc_hi20(_ZN9benchmark8internal17BenchmarkFamiliesD2Ev)
	addi.d	$a0, $a0, %pc_lo12(_ZN9benchmark8internal17BenchmarkFamiliesD2Ev)
	pcalau12i	$a2, %pc_hi20(__dso_handle)
	addi.d	$a2, $a2, %pc_lo12(__dso_handle)
	pcaddu18i	$ra, %call36(__cxa_atexit)
	jirl	$ra, $ra, 0
	pcalau12i	$a0, %pc_hi20(_ZGVZN9benchmark8internal17BenchmarkFamilies11GetInstanceEvE8instance)
	addi.d	$a0, $a0, %pc_lo12(_ZGVZN9benchmark8internal17BenchmarkFamilies11GetInstanceEvE8instance)
	pcaddu18i	$ra, %call36(__cxa_guard_release)
	jirl	$ra, $ra, 0
	b	.LBB10_1
.LBB10_7:                               # %lpad1
.Ltmp84:                                # EH_LABEL
	ld.d	$a1, $sp, 8
	move	$fp, $a0
	beqz	$a1, .LBB10_9
# %bb.8:                                # %_ZNKSt14default_deleteIN9benchmark8internal9BenchmarkEEclEPS2_.exit.i9
	ld.d	$a0, $a1, 0
	ld.d	$a2, $a0, 8
	move	$a0, $a1
	jirl	$ra, $a2, 0
.LBB10_9:                               # %_ZNSt10unique_ptrIN9benchmark8internal9BenchmarkESt14default_deleteIS2_EED2Ev.exit12
	move	$a0, $fp
	pcaddu18i	$ra, %call36(_Unwind_Resume)
	jirl	$ra, $ra, 0
.Lfunc_end10:
	.size	_ZN9benchmark8internal25RegisterBenchmarkInternalEPNS0_9BenchmarkE, .Lfunc_end10-_ZN9benchmark8internal25RegisterBenchmarkInternalEPNS0_9BenchmarkE
	.cfi_endproc
	.section	.gcc_except_table,"a",@progbits
	.p2align	2, 0x0
GCC_except_table10:
.Lexception4:
	.byte	255                             # @LPStart Encoding = omit
	.byte	255                             # @TType Encoding = omit
	.byte	1                               # Call site Encoding = uleb128
	.uleb128 .Lcst_end4-.Lcst_begin4
.Lcst_begin4:
	.uleb128 .Ltmp82-.Lfunc_begin4          # >> Call Site 1 <<
	.uleb128 .Ltmp83-.Ltmp82                #   Call between .Ltmp82 and .Ltmp83
	.uleb128 .Ltmp84-.Lfunc_begin4          #     jumps to .Ltmp84
	.byte	0                               #   On action: cleanup
	.uleb128 .Ltmp83-.Lfunc_begin4          # >> Call Site 2 <<
	.uleb128 .Lfunc_end10-.Ltmp83           #   Call between .Ltmp83 and .Lfunc_end10
	.byte	0                               #     has no landing pad
	.byte	0                               #   On action: cleanup
.Lcst_end4:
	.p2align	2, 0x0
                                        # -- End function
	.text
	.hidden	_ZN9benchmark8internal22FindBenchmarksInternalERKNSt7__cxx1112basic_stringIcSt11char_traitsIcESaIcEEEPSt6vectorINS0_17BenchmarkInstanceESaISA_EEPSo # -- Begin function _ZN9benchmark8internal22FindBenchmarksInternalERKNSt7__cxx1112basic_stringIcSt11char_traitsIcESaIcEEEPSt6vectorINS0_17BenchmarkInstanceESaISA_EEPSo
	.globl	_ZN9benchmark8internal22FindBenchmarksInternalERKNSt7__cxx1112basic_stringIcSt11char_traitsIcESaIcEEEPSt6vectorINS0_17BenchmarkInstanceESaISA_EEPSo
	.p2align	5
	.type	_ZN9benchmark8internal22FindBenchmarksInternalERKNSt7__cxx1112basic_stringIcSt11char_traitsIcESaIcEEEPSt6vectorINS0_17BenchmarkInstanceESaISA_EEPSo,@function
_ZN9benchmark8internal22FindBenchmarksInternalERKNSt7__cxx1112basic_stringIcSt11char_traitsIcESaIcEEEPSt6vectorINS0_17BenchmarkInstanceESaISA_EEPSo: # @_ZN9benchmark8internal22FindBenchmarksInternalERKNSt7__cxx1112basic_stringIcSt11char_traitsIcESaIcEEEPSt6vectorINS0_17BenchmarkInstanceESaISA_EEPSo
.Lfunc_begin5:
	.cfi_startproc
	.cfi_personality 155, DW.ref.__gxx_personality_v0
	.cfi_lsda 27, .Lexception5
# %bb.0:                                # %entry
	addi.d	$sp, $sp, -96
	.cfi_def_cfa_offset 96
	st.d	$ra, $sp, 88                    # 8-byte Folded Spill
	st.d	$fp, $sp, 80                    # 8-byte Folded Spill
	st.d	$s0, $sp, 72                    # 8-byte Folded Spill
	st.d	$s1, $sp, 64                    # 8-byte Folded Spill
	st.d	$s2, $sp, 56                    # 8-byte Folded Spill
	.cfi_offset 1, -8
	.cfi_offset 22, -16
	.cfi_offset 23, -24
	.cfi_offset 24, -32
	.cfi_offset 25, -40
	pcalau12i	$a3, %pc_hi20(_ZGVZN9benchmark8internal17BenchmarkFamilies11GetInstanceEvE8instance)
	ld.b	$a3, $a3, %pc_lo12(_ZGVZN9benchmark8internal17BenchmarkFamilies11GetInstanceEvE8instance)
	move	$fp, $a2
	move	$s0, $a1
	dbar	20
	beqz	$a3, .LBB11_11
.LBB11_1:                               # %_ZN9benchmark8internal17BenchmarkFamilies11GetInstanceEv.exit
	addi.d	$s2, $sp, 32
	ld.d	$a1, $a0, 8
	ld.d	$s1, $a0, 0
	st.d	$s2, $sp, 16
	ori	$a2, $zero, 16
	st.d	$a1, $sp, 48
	move	$a0, $s2
	bltu	$a1, $a2, .LBB11_3
# %bb.2:                                # %if.then.i.i
	addi.d	$a0, $sp, 16
	addi.d	$a1, $sp, 48
	move	$a2, $zero
	pcaddu18i	$ra, %call36(_ZNSt7__cxx1112basic_stringIcSt11char_traitsIcESaIcEE9_M_createERmm)
	jirl	$ra, $ra, 0
	ld.d	$a1, $sp, 48
	st.d	$a0, $sp, 16
	st.d	$a1, $sp, 32
.LBB11_3:                               # %if.end.i.i
	addi.w	$a2, $zero, -1
	beq	$a1, $a2, .LBB11_7
# %bb.4:                                # %if.end.i.i
	bnez	$a1, .LBB11_6
# %bb.5:                                # %if.then.i.i.i
	ld.b	$a1, $s1, 0
	st.b	$a1, $a0, 0
	b	.LBB11_7
.LBB11_6:                               # %if.end.i.i.i.i
	addi.d	$a2, $a1, 1
	move	$a1, $s1
	pcaddu18i	$ra, %call36(memcpy)
	jirl	$ra, $ra, 0
.LBB11_7:                               # %_ZNSt7__cxx1112basic_stringIcSt11char_traitsIcESaIcEEC2ERKS4_.exit
	ld.d	$a0, $sp, 48
	st.d	$a0, $sp, 24
.Ltmp85:                                # EH_LABEL
	pcalau12i	$a0, %pc_hi20(_ZZN9benchmark8internal17BenchmarkFamilies11GetInstanceEvE8instance)
	addi.d	$a0, $a0, %pc_lo12(_ZZN9benchmark8internal17BenchmarkFamilies11GetInstanceEvE8instance)
	addi.d	$a1, $sp, 16
	move	$a2, $s0
	move	$a3, $fp
	pcaddu18i	$ra, %call36(_ZN9benchmark8internal17BenchmarkFamilies14FindBenchmarksENSt7__cxx1112basic_stringIcSt11char_traitsIcESaIcEEEPSt6vectorINS0_17BenchmarkInstanceESaIS9_EEPSo)
	jirl	$ra, $ra, 0
.Ltmp86:                                # EH_LABEL
# %bb.8:                                # %invoke.cont
	ld.d	$a2, $sp, 16
	beq	$a2, $s2, .LBB11_10
# %bb.9:                                # %if.then.i.i2
	ld.d	$a1, $sp, 32
	addi.d	$a1, $a1, 1
	move	$fp, $a0
	move	$a0, $a2
	pcaddu18i	$ra, %call36(_ZdlPvm)
	jirl	$ra, $ra, 0
	move	$a0, $fp
.LBB11_10:                              # %_ZNSt7__cxx1112basic_stringIcSt11char_traitsIcESaIcEED2Ev.exit
	ld.d	$s2, $sp, 56                    # 8-byte Folded Reload
	ld.d	$s1, $sp, 64                    # 8-byte Folded Reload
	ld.d	$s0, $sp, 72                    # 8-byte Folded Reload
	ld.d	$fp, $sp, 80                    # 8-byte Folded Reload
	ld.d	$ra, $sp, 88                    # 8-byte Folded Reload
	addi.d	$sp, $sp, 96
	ret
.LBB11_11:                              # %init.check.i
	pcalau12i	$a1, %pc_hi20(_ZGVZN9benchmark8internal17BenchmarkFamilies11GetInstanceEvE8instance)
	addi.d	$a1, $a1, %pc_lo12(_ZGVZN9benchmark8internal17BenchmarkFamilies11GetInstanceEvE8instance)
	move	$s1, $a0
	move	$a0, $a1
	pcaddu18i	$ra, %call36(__cxa_guard_acquire)
	jirl	$ra, $ra, 0
	move	$a1, $a0
	move	$a0, $s1
	addi.w	$a1, $a1, 0
	beqz	$a1, .LBB11_1
# %bb.12:                               # %invoke.cont.i
	pcalau12i	$a0, %pc_hi20(_ZZN9benchmark8internal17BenchmarkFamilies11GetInstanceEvE8instance)
	addi.d	$a1, $a0, %pc_lo12(_ZZN9benchmark8internal17BenchmarkFamilies11GetInstanceEvE8instance)
	xvrepli.b	$xr0, 0
	xvst	$xr0, $a1, 32
	xvst	$xr0, $a1, 0
	pcalau12i	$a0, %pc_hi20(_ZN9benchmark8internal17BenchmarkFamiliesD2Ev)
	addi.d	$a0, $a0, %pc_lo12(_ZN9benchmark8internal17BenchmarkFamiliesD2Ev)
	pcalau12i	$a2, %pc_hi20(__dso_handle)
	addi.d	$a2, $a2, %pc_lo12(__dso_handle)
	pcaddu18i	$ra, %call36(__cxa_atexit)
	jirl	$ra, $ra, 0
	pcalau12i	$a0, %pc_hi20(_ZGVZN9benchmark8internal17BenchmarkFamilies11GetInstanceEvE8instance)
	addi.d	$a0, $a0, %pc_lo12(_ZGVZN9benchmark8internal17BenchmarkFamilies11GetInstanceEvE8instance)
	pcaddu18i	$ra, %call36(__cxa_guard_release)
	jirl	$ra, $ra, 0
	move	$a0, $s1
	b	.LBB11_1
.LBB11_13:                              # %lpad
.Ltmp87:                                # EH_LABEL
	ld.d	$a2, $sp, 16
	move	$fp, $a0
	beq	$a2, $s2, .LBB11_15
# %bb.14:                               # %if.then.i.i6
	ld.d	$a0, $sp, 32
	addi.d	$a1, $a0, 1
	move	$a0, $a2
	pcaddu18i	$ra, %call36(_ZdlPvm)
	jirl	$ra, $ra, 0
.LBB11_15:                              # %_ZNSt7__cxx1112basic_stringIcSt11char_traitsIcESaIcEED2Ev.exit12
	move	$a0, $fp
	pcaddu18i	$ra, %call36(_Unwind_Resume)
	jirl	$ra, $ra, 0
.Lfunc_end11:
	.size	_ZN9benchmark8internal22FindBenchmarksInternalERKNSt7__cxx1112basic_stringIcSt11char_traitsIcESaIcEEEPSt6vectorINS0_17BenchmarkInstanceESaISA_EEPSo, .Lfunc_end11-_ZN9benchmark8internal22FindBenchmarksInternalERKNSt7__cxx1112basic_stringIcSt11char_traitsIcESaIcEEEPSt6vectorINS0_17BenchmarkInstanceESaISA_EEPSo
	.cfi_endproc
	.section	.gcc_except_table,"a",@progbits
	.p2align	2, 0x0
GCC_except_table11:
.Lexception5:
	.byte	255                             # @LPStart Encoding = omit
	.byte	255                             # @TType Encoding = omit
	.byte	1                               # Call site Encoding = uleb128
	.uleb128 .Lcst_end5-.Lcst_begin5
.Lcst_begin5:
	.uleb128 .Lfunc_begin5-.Lfunc_begin5    # >> Call Site 1 <<
	.uleb128 .Ltmp85-.Lfunc_begin5          #   Call between .Lfunc_begin5 and .Ltmp85
	.byte	0                               #     has no landing pad
	.byte	0                               #   On action: cleanup
	.uleb128 .Ltmp85-.Lfunc_begin5          # >> Call Site 2 <<
	.uleb128 .Ltmp86-.Ltmp85                #   Call between .Ltmp85 and .Ltmp86
	.uleb128 .Ltmp87-.Lfunc_begin5          #     jumps to .Ltmp87
	.byte	0                               #   On action: cleanup
	.uleb128 .Ltmp86-.Lfunc_begin5          # >> Call Site 3 <<
	.uleb128 .Lfunc_end11-.Ltmp86           #   Call between .Ltmp86 and .Lfunc_end11
	.byte	0                               #     has no landing pad
	.byte	0                               #   On action: cleanup
.Lcst_end5:
	.p2align	2, 0x0
                                        # -- End function
	.text
	.hidden	_ZN9benchmark8internal9BenchmarkC2ERKNSt7__cxx1112basic_stringIcSt11char_traitsIcESaIcEEE # -- Begin function _ZN9benchmark8internal9BenchmarkC2ERKNSt7__cxx1112basic_stringIcSt11char_traitsIcESaIcEEE
	.globl	_ZN9benchmark8internal9BenchmarkC2ERKNSt7__cxx1112basic_stringIcSt11char_traitsIcESaIcEEE
	.p2align	2
	.type	_ZN9benchmark8internal9BenchmarkC2ERKNSt7__cxx1112basic_stringIcSt11char_traitsIcESaIcEEE,@function
_ZN9benchmark8internal9BenchmarkC2ERKNSt7__cxx1112basic_stringIcSt11char_traitsIcESaIcEEE: # @_ZN9benchmark8internal9BenchmarkC2ERKNSt7__cxx1112basic_stringIcSt11char_traitsIcESaIcEEE
.Lfunc_begin6:
	.cfi_startproc
	.cfi_personality 155, DW.ref.__gxx_personality_v0
	.cfi_lsda 27, .Lexception6
# %bb.0:                                # %entry
	addi.d	$sp, $sp, -144
	.cfi_def_cfa_offset 144
	st.d	$ra, $sp, 136                   # 8-byte Folded Spill
	st.d	$fp, $sp, 128                   # 8-byte Folded Spill
	st.d	$s0, $sp, 120                   # 8-byte Folded Spill
	st.d	$s1, $sp, 112                   # 8-byte Folded Spill
	st.d	$s2, $sp, 104                   # 8-byte Folded Spill
	st.d	$s3, $sp, 96                    # 8-byte Folded Spill
	st.d	$s4, $sp, 88                    # 8-byte Folded Spill
	.cfi_offset 1, -8
	.cfi_offset 22, -16
	.cfi_offset 23, -24
	.cfi_offset 24, -32
	.cfi_offset 25, -40
	.cfi_offset 26, -48
	.cfi_offset 27, -56
	move	$fp, $a0
	pcalau12i	$a0, %pc_hi20(_ZTVN9benchmark8internal9BenchmarkE+16)
	addi.d	$a0, $a0, %pc_lo12(_ZTVN9benchmark8internal9BenchmarkE+16)
	st.d	$a0, $fp, 0
	addi.d	$s3, $fp, 24
	st.d	$s3, $fp, 8
	ld.d	$a2, $a1, 8
	ld.d	$s1, $a1, 0
	addi.d	$s0, $fp, 8
	ori	$a1, $zero, 16
	st.d	$a2, $sp, 40
	move	$a0, $s3
	bltu	$a2, $a1, .LBB12_2
# %bb.1:                                # %if.then.i.i
	addi.d	$a1, $sp, 40
	move	$a0, $s0
	move	$a2, $zero
	pcaddu18i	$ra, %call36(_ZNSt7__cxx1112basic_stringIcSt11char_traitsIcESaIcEE9_M_createERmm)
	jirl	$ra, $ra, 0
	ld.d	$a2, $sp, 40
	st.d	$a0, $s0, 0
	st.d	$a2, $s3, 0
.LBB12_2:                               # %if.end.i.i
	addi.w	$a1, $zero, -1
	beq	$a2, $a1, .LBB12_6
# %bb.3:                                # %if.end.i.i
	bnez	$a2, .LBB12_5
# %bb.4:                                # %if.then.i.i.i
	ld.b	$a1, $s1, 0
	st.b	$a1, $a0, 0
	b	.LBB12_6
.LBB12_5:                               # %if.end.i.i.i.i
	addi.d	$a2, $a2, 1
	move	$a1, $s1
	pcaddu18i	$ra, %call36(memcpy)
	jirl	$ra, $ra, 0
.LBB12_6:                               # %_ZNSt7__cxx1112basic_stringIcSt11char_traitsIcESaIcEEC2ERKS4_.exit
	ld.d	$a0, $sp, 40
	st.d	$a0, $fp, 16
	st.w	$zero, $fp, 40
	vrepli.b	$vr0, 0
	vst	$vr0, $sp, 16                   # 16-byte Folded Spill
	vst	$vr0, $fp, 48
	xvrepli.b	$xr0, 0
	xvst	$xr0, $fp, 64
.Ltmp88:                                # EH_LABEL
	pcaddu18i	$ra, %call36(_ZN9benchmark18GetDefaultTimeUnitEv)
	jirl	$ra, $ra, 0
.Ltmp89:                                # EH_LABEL
# %bb.7:                                # %if.else.i.i
	st.w	$a0, $fp, 96
	ori	$a0, $zero, 1
	st.b	$a0, $fp, 100
	ori	$a0, $zero, 8
	st.w	$a0, $fp, 104
	st.w	$zero, $fp, 144
	addi.d	$a0, $fp, 152
	addi.d	$s1, $fp, 160
	st.d	$zero, $fp, 112
	vld	$vr0, $sp, 16                   # 16-byte Folded Reload
	vst	$vr0, $fp, 120
	st.d	$zero, $fp, 135
	ori	$a2, $zero, 72
	move	$a1, $zero
	pcaddu18i	$ra, %call36(memset)
	jirl	$ra, $ra, 0
	addi.d	$s4, $sp, 56
	st.d	$s4, $sp, 40
	lu12i.w	$a0, 452118
	ori	$a0, $a0, 1389
	st.w	$a0, $sp, 56
	pcalau12i	$a0, %got_pc_hi20(_ZN9benchmark14StatisticsMeanERKSt6vectorIdSaIdEE)
	ld.d	$a0, $a0, %got_pc_lo12(_ZN9benchmark14StatisticsMeanERKSt6vectorIdSaIdEE)
	ori	$a1, $zero, 4
	st.d	$a1, $sp, 48
	st.b	$zero, $sp, 60
	st.d	$a0, $sp, 80
	st.w	$zero, $sp, 76
.Ltmp91:                                # EH_LABEL
	addi.d	$a1, $sp, 40
	addi.d	$a2, $sp, 80
	addi.d	$a3, $sp, 76
	move	$a0, $s1
	pcaddu18i	$ra, %call36(_ZNSt6vectorIN9benchmark8internal10StatisticsESaIS2_EE17_M_realloc_appendIJRKNSt7__cxx1112basic_stringIcSt11char_traitsIcESaIcEEERPFdRKS_IdSaIdEEERNS0_13StatisticUnitEEEEvDpOT_)
	jirl	$ra, $ra, 0
.Ltmp92:                                # EH_LABEL
# %bb.8:                                # %invoke.cont6
	ld.d	$a0, $sp, 40
	beq	$a0, $s4, .LBB12_10
# %bb.9:                                # %if.then.i.i18
	ld.d	$a1, $sp, 56
	addi.d	$a1, $a1, 1
	pcaddu18i	$ra, %call36(_ZdlPvm)
	jirl	$ra, $ra, 0
.LBB12_10:                              # %_ZNSt7__cxx1112basic_stringIcSt11char_traitsIcESaIcEED2Ev.exit
	pcalau12i	$a0, %pc_hi20(.L.str.7)
	addi.d	$a0, $a0, %pc_lo12(.L.str.7)
	ld.w	$a1, $a0, 0
	ld.h	$a0, $a0, 4
	st.d	$s4, $sp, 40
	st.w	$a1, $sp, 56
	st.h	$a0, $sp, 60
	ori	$a1, $zero, 6
	pcalau12i	$a0, %got_pc_hi20(_ZN9benchmark16StatisticsMedianERKSt6vectorIdSaIdEE)
	ld.d	$a2, $a0, %got_pc_lo12(_ZN9benchmark16StatisticsMedianERKSt6vectorIdSaIdEE)
	ld.d	$a3, $fp, 168
	ld.d	$a0, $fp, 176
	st.d	$a1, $sp, 48
	st.b	$zero, $sp, 62
	st.d	$a2, $sp, 80
	st.w	$zero, $sp, 76
	beq	$a3, $a0, .LBB12_20
# %bb.11:                               # %_ZN9benchmark8internal10StatisticsC2ERKNSt7__cxx1112basic_stringIcSt11char_traitsIcESaIcEEEPFdRKSt6vectorIdSaIdEEENS_13StatisticUnitE.exit.i.i43
	addi.d	$a0, $a3, 16
	st.d	$a0, $a3, 0
	ld.d	$a0, $sp, 40
	ld.w	$a4, $a0, 0
	st.w	$a4, $a3, 16
	ld.w	$a4, $a0, 3
	st.w	$a4, $a3, 19
	st.d	$a1, $a3, 8
	st.d	$a2, $a3, 32
	st.w	$zero, $a3, 40
	ld.d	$a1, $fp, 168
	addi.d	$a1, $a1, 48
	st.d	$a1, $fp, 168
	beq	$a0, $s4, .LBB12_13
.LBB12_12:                              # %if.then.i.i59
	ld.d	$a1, $sp, 56
	addi.d	$a1, $a1, 1
	pcaddu18i	$ra, %call36(_ZdlPvm)
	jirl	$ra, $ra, 0
.LBB12_13:                              # %_ZNSt7__cxx1112basic_stringIcSt11char_traitsIcESaIcEED2Ev.exit64
	pcalau12i	$a0, %pc_hi20(.L.str.8)
	addi.d	$a0, $a0, %pc_lo12(.L.str.8)
	ld.w	$a1, $a0, 0
	ld.h	$a0, $a0, 4
	st.d	$s4, $sp, 40
	st.w	$a1, $sp, 56
	st.h	$a0, $sp, 60
	ori	$a1, $zero, 6
	pcalau12i	$a0, %got_pc_hi20(_ZN9benchmark16StatisticsStdDevERKSt6vectorIdSaIdEE)
	ld.d	$a2, $a0, %got_pc_lo12(_ZN9benchmark16StatisticsStdDevERKSt6vectorIdSaIdEE)
	ld.d	$a3, $fp, 168
	ld.d	$a0, $fp, 176
	st.d	$a1, $sp, 48
	st.b	$zero, $sp, 62
	st.d	$a2, $sp, 80
	st.w	$zero, $sp, 76
	beq	$a3, $a0, .LBB12_22
# %bb.14:                               # %_ZN9benchmark8internal10StatisticsC2ERKNSt7__cxx1112basic_stringIcSt11char_traitsIcESaIcEEEPFdRKSt6vectorIdSaIdEEENS_13StatisticUnitE.exit.i.i88
	addi.d	$a0, $a3, 16
	st.d	$a0, $a3, 0
	ld.d	$a0, $sp, 40
	ld.w	$a4, $a0, 0
	st.w	$a4, $a3, 16
	ld.w	$a4, $a0, 3
	st.w	$a4, $a3, 19
	st.d	$a1, $a3, 8
	st.d	$a2, $a3, 32
	st.w	$zero, $a3, 40
	ld.d	$a1, $fp, 168
	addi.d	$a1, $a1, 48
	st.d	$a1, $fp, 168
	beq	$a0, $s4, .LBB12_16
.LBB12_15:                              # %if.then.i.i104
	ld.d	$a1, $sp, 56
	addi.d	$a1, $a1, 1
	pcaddu18i	$ra, %call36(_ZdlPvm)
	jirl	$ra, $ra, 0
.LBB12_16:                              # %_ZNSt7__cxx1112basic_stringIcSt11char_traitsIcESaIcEED2Ev.exit109
	st.d	$s4, $sp, 40
	lu12i.w	$a0, 7
	ori	$a0, $a0, 1635
	st.h	$a0, $sp, 56
	ori	$a1, $zero, 2
	st.d	$a1, $sp, 48
	pcalau12i	$a0, %got_pc_hi20(_ZN9benchmark12StatisticsCVERKSt6vectorIdSaIdEE)
	ld.d	$a2, $a0, %got_pc_lo12(_ZN9benchmark12StatisticsCVERKSt6vectorIdSaIdEE)
	ld.d	$a3, $fp, 168
	ld.d	$a0, $fp, 176
	st.b	$zero, $sp, 58
	st.d	$a2, $sp, 80
	ori	$a4, $zero, 1
	st.w	$a4, $sp, 76
	beq	$a3, $a0, .LBB12_24
# %bb.17:                               # %_ZN9benchmark8internal10StatisticsC2ERKNSt7__cxx1112basic_stringIcSt11char_traitsIcESaIcEEEPFdRKSt6vectorIdSaIdEEENS_13StatisticUnitE.exit.i.i133
	addi.d	$a0, $a3, 16
	st.d	$a0, $a3, 0
	ld.d	$a0, $sp, 40
	ld.h	$a5, $a0, 0
	st.h	$a5, $a3, 16
	ld.b	$a5, $a0, 2
	st.b	$a5, $a3, 18
	st.d	$a1, $a3, 8
	st.d	$a2, $a3, 32
	st.w	$a4, $a3, 40
	ld.d	$a1, $fp, 168
	addi.d	$a1, $a1, 48
	st.d	$a1, $fp, 168
	beq	$a0, $s4, .LBB12_19
.LBB12_18:                              # %if.then.i.i149
	ld.d	$a1, $sp, 56
	addi.d	$a1, $a1, 1
	pcaddu18i	$ra, %call36(_ZdlPvm)
	jirl	$ra, $ra, 0
.LBB12_19:                              # %_ZNSt7__cxx1112basic_stringIcSt11char_traitsIcESaIcEED2Ev.exit154
	ld.d	$s4, $sp, 88                    # 8-byte Folded Reload
	ld.d	$s3, $sp, 96                    # 8-byte Folded Reload
	ld.d	$s2, $sp, 104                   # 8-byte Folded Reload
	ld.d	$s1, $sp, 112                   # 8-byte Folded Reload
	ld.d	$s0, $sp, 120                   # 8-byte Folded Reload
	ld.d	$fp, $sp, 128                   # 8-byte Folded Reload
	ld.d	$ra, $sp, 136                   # 8-byte Folded Reload
	addi.d	$sp, $sp, 144
	ret
.LBB12_20:                              # %if.else.i.i52
.Ltmp94:                                # EH_LABEL
	addi.d	$a1, $sp, 40
	addi.d	$a2, $sp, 80
	addi.d	$a3, $sp, 76
	move	$a0, $s1
	pcaddu18i	$ra, %call36(_ZNSt6vectorIN9benchmark8internal10StatisticsESaIS2_EE17_M_realloc_appendIJRKNSt7__cxx1112basic_stringIcSt11char_traitsIcESaIcEEERPFdRKS_IdSaIdEEERNS0_13StatisticUnitEEEEvDpOT_)
	jirl	$ra, $ra, 0
.Ltmp95:                                # EH_LABEL
# %bb.21:                               # %if.else.i.i52.invoke.cont15_crit_edge
	ld.d	$a0, $sp, 40
	bne	$a0, $s4, .LBB12_12
	b	.LBB12_13
.LBB12_22:                              # %if.else.i.i97
.Ltmp97:                                # EH_LABEL
	addi.d	$a1, $sp, 40
	addi.d	$a2, $sp, 80
	addi.d	$a3, $sp, 76
	move	$a0, $s1
	pcaddu18i	$ra, %call36(_ZNSt6vectorIN9benchmark8internal10StatisticsESaIS2_EE17_M_realloc_appendIJRKNSt7__cxx1112basic_stringIcSt11char_traitsIcESaIcEEERPFdRKS_IdSaIdEEERNS0_13StatisticUnitEEEEvDpOT_)
	jirl	$ra, $ra, 0
.Ltmp98:                                # EH_LABEL
# %bb.23:                               # %if.else.i.i97.invoke.cont26_crit_edge
	ld.d	$a0, $sp, 40
	bne	$a0, $s4, .LBB12_15
	b	.LBB12_16
.LBB12_24:                              # %if.else.i.i142
.Ltmp100:                               # EH_LABEL
	addi.d	$a1, $sp, 40
	addi.d	$a2, $sp, 80
	addi.d	$a3, $sp, 76
	move	$a0, $s1
	pcaddu18i	$ra, %call36(_ZNSt6vectorIN9benchmark8internal10StatisticsESaIS2_EE17_M_realloc_appendIJRKNSt7__cxx1112basic_stringIcSt11char_traitsIcESaIcEEERPFdRKS_IdSaIdEEERNS0_13StatisticUnitEEEEvDpOT_)
	jirl	$ra, $ra, 0
.Ltmp101:                               # EH_LABEL
# %bb.25:                               # %if.else.i.i142.invoke.cont37_crit_edge
	ld.d	$a0, $sp, 40
	bne	$a0, $s4, .LBB12_18
	b	.LBB12_19
.LBB12_26:                              # %lpad36
.Ltmp102:                               # EH_LABEL
	b	.LBB12_30
.LBB12_27:                              # %lpad25
.Ltmp99:                                # EH_LABEL
	b	.LBB12_30
.LBB12_28:                              # %lpad14
.Ltmp96:                                # EH_LABEL
	b	.LBB12_30
.LBB12_29:                              # %lpad5
.Ltmp93:                                # EH_LABEL
.LBB12_30:                              # %lpad36
	ld.d	$a2, $sp, 40
	move	$s2, $a0
	beq	$a2, $s4, .LBB12_32
# %bb.31:                               # %if.then.i.i177
	ld.d	$a0, $sp, 56
	addi.d	$a1, $a0, 1
	move	$a0, $a2
	pcaddu18i	$ra, %call36(_ZdlPvm)
	jirl	$ra, $ra, 0
.LBB12_32:                              # %ehcleanup43
	ld.d	$a0, $fp, 184
	beqz	$a0, .LBB12_34
# %bb.33:                               # %if.then.i.i.i183
	ld.d	$a1, $fp, 200
	sub.d	$a1, $a1, $a0
	pcaddu18i	$ra, %call36(_ZdlPvm)
	jirl	$ra, $ra, 0
.LBB12_34:                              # %_ZNSt6vectorIiSaIiEED2Ev.exit
	move	$a0, $s1
	pcaddu18i	$ra, %call36(_ZNSt6vectorIN9benchmark8internal10StatisticsESaIS2_EED2Ev)
	jirl	$ra, $ra, 0
	b	.LBB12_36
.LBB12_35:                              # %lpad
.Ltmp90:                                # EH_LABEL
	move	$s2, $a0
.LBB12_36:                              # %ehcleanup45
	addi.d	$s1, $fp, 48
	addi.d	$a0, $fp, 72
	pcaddu18i	$ra, %call36(_ZNSt6vectorIS_IlSaIlEESaIS1_EED2Ev)
	jirl	$ra, $ra, 0
	move	$a0, $s1
	pcaddu18i	$ra, %call36(_ZNSt6vectorINSt7__cxx1112basic_stringIcSt11char_traitsIcESaIcEEESaIS5_EED2Ev)
	jirl	$ra, $ra, 0
	ld.d	$a0, $s0, 0
	beq	$a0, $s3, .LBB12_38
# %bb.37:                               # %if.then.i.i186
	ld.d	$a1, $s3, 0
	addi.d	$a1, $a1, 1
	pcaddu18i	$ra, %call36(_ZdlPvm)
	jirl	$ra, $ra, 0
.LBB12_38:                              # %_ZNSt7__cxx1112basic_stringIcSt11char_traitsIcESaIcEED2Ev.exit191
	move	$a0, $s2
	pcaddu18i	$ra, %call36(_Unwind_Resume)
	jirl	$ra, $ra, 0
.Lfunc_end12:
	.size	_ZN9benchmark8internal9BenchmarkC2ERKNSt7__cxx1112basic_stringIcSt11char_traitsIcESaIcEEE, .Lfunc_end12-_ZN9benchmark8internal9BenchmarkC2ERKNSt7__cxx1112basic_stringIcSt11char_traitsIcESaIcEEE
	.cfi_endproc
	.section	.gcc_except_table,"a",@progbits
	.p2align	2, 0x0
GCC_except_table12:
.Lexception6:
	.byte	255                             # @LPStart Encoding = omit
	.byte	255                             # @TType Encoding = omit
	.byte	1                               # Call site Encoding = uleb128
	.uleb128 .Lcst_end6-.Lcst_begin6
.Lcst_begin6:
	.uleb128 .Lfunc_begin6-.Lfunc_begin6    # >> Call Site 1 <<
	.uleb128 .Ltmp88-.Lfunc_begin6          #   Call between .Lfunc_begin6 and .Ltmp88
	.byte	0                               #     has no landing pad
	.byte	0                               #   On action: cleanup
	.uleb128 .Ltmp88-.Lfunc_begin6          # >> Call Site 2 <<
	.uleb128 .Ltmp89-.Ltmp88                #   Call between .Ltmp88 and .Ltmp89
	.uleb128 .Ltmp90-.Lfunc_begin6          #     jumps to .Ltmp90
	.byte	0                               #   On action: cleanup
	.uleb128 .Ltmp89-.Lfunc_begin6          # >> Call Site 3 <<
	.uleb128 .Ltmp91-.Ltmp89                #   Call between .Ltmp89 and .Ltmp91
	.byte	0                               #     has no landing pad
	.byte	0                               #   On action: cleanup
	.uleb128 .Ltmp91-.Lfunc_begin6          # >> Call Site 4 <<
	.uleb128 .Ltmp92-.Ltmp91                #   Call between .Ltmp91 and .Ltmp92
	.uleb128 .Ltmp93-.Lfunc_begin6          #     jumps to .Ltmp93
	.byte	0                               #   On action: cleanup
	.uleb128 .Ltmp92-.Lfunc_begin6          # >> Call Site 5 <<
	.uleb128 .Ltmp94-.Ltmp92                #   Call between .Ltmp92 and .Ltmp94
	.byte	0                               #     has no landing pad
	.byte	0                               #   On action: cleanup
	.uleb128 .Ltmp94-.Lfunc_begin6          # >> Call Site 6 <<
	.uleb128 .Ltmp95-.Ltmp94                #   Call between .Ltmp94 and .Ltmp95
	.uleb128 .Ltmp96-.Lfunc_begin6          #     jumps to .Ltmp96
	.byte	0                               #   On action: cleanup
	.uleb128 .Ltmp97-.Lfunc_begin6          # >> Call Site 7 <<
	.uleb128 .Ltmp98-.Ltmp97                #   Call between .Ltmp97 and .Ltmp98
	.uleb128 .Ltmp99-.Lfunc_begin6          #     jumps to .Ltmp99
	.byte	0                               #   On action: cleanup
	.uleb128 .Ltmp100-.Lfunc_begin6         # >> Call Site 8 <<
	.uleb128 .Ltmp101-.Ltmp100              #   Call between .Ltmp100 and .Ltmp101
	.uleb128 .Ltmp102-.Lfunc_begin6         #     jumps to .Ltmp102
	.byte	0                               #   On action: cleanup
	.uleb128 .Ltmp101-.Lfunc_begin6         # >> Call Site 9 <<
	.uleb128 .Lfunc_end12-.Ltmp101          #   Call between .Ltmp101 and .Lfunc_end12
	.byte	0                               #     has no landing pad
	.byte	0                               #   On action: cleanup
.Lcst_end6:
	.p2align	2, 0x0
                                        # -- End function
	.text
	.hidden	_ZN9benchmark8internal9Benchmark17ComputeStatisticsERKNSt7__cxx1112basic_stringIcSt11char_traitsIcESaIcEEEPFdRKSt6vectorIdSaIdEEENS_13StatisticUnitE # -- Begin function _ZN9benchmark8internal9Benchmark17ComputeStatisticsERKNSt7__cxx1112basic_stringIcSt11char_traitsIcESaIcEEEPFdRKSt6vectorIdSaIdEEENS_13StatisticUnitE
	.globl	_ZN9benchmark8internal9Benchmark17ComputeStatisticsERKNSt7__cxx1112basic_stringIcSt11char_traitsIcESaIcEEEPFdRKSt6vectorIdSaIdEEENS_13StatisticUnitE
	.p2align	2
	.type	_ZN9benchmark8internal9Benchmark17ComputeStatisticsERKNSt7__cxx1112basic_stringIcSt11char_traitsIcESaIcEEEPFdRKSt6vectorIdSaIdEEENS_13StatisticUnitE,@function
_ZN9benchmark8internal9Benchmark17ComputeStatisticsERKNSt7__cxx1112basic_stringIcSt11char_traitsIcESaIcEEEPFdRKSt6vectorIdSaIdEEENS_13StatisticUnitE: # @_ZN9benchmark8internal9Benchmark17ComputeStatisticsERKNSt7__cxx1112basic_stringIcSt11char_traitsIcESaIcEEEPFdRKSt6vectorIdSaIdEEENS_13StatisticUnitE
	.cfi_startproc
# %bb.0:                                # %entry
	addi.d	$sp, $sp, -80
	.cfi_def_cfa_offset 80
	st.d	$ra, $sp, 72                    # 8-byte Folded Spill
	st.d	$fp, $sp, 64                    # 8-byte Folded Spill
	st.d	$s0, $sp, 56                    # 8-byte Folded Spill
	st.d	$s1, $sp, 48                    # 8-byte Folded Spill
	st.d	$s2, $sp, 40                    # 8-byte Folded Spill
	st.d	$s3, $sp, 32                    # 8-byte Folded Spill
	.cfi_offset 1, -8
	.cfi_offset 22, -16
	.cfi_offset 23, -24
	.cfi_offset 24, -32
	.cfi_offset 25, -40
	.cfi_offset 26, -48
	move	$fp, $a0
	ld.d	$s0, $a0, 168
	ld.d	$a0, $a0, 176
	st.d	$a2, $sp, 16
	st.w	$a3, $sp, 12
	beq	$s0, $a0, .LBB13_6
# %bb.1:                                # %if.then.i
	move	$s1, $a3
	move	$s2, $a2
	addi.d	$a0, $s0, 16
	st.d	$a0, $s0, 0
	ld.d	$a2, $a1, 8
	ld.d	$s3, $a1, 0
	ori	$a1, $zero, 16
	st.d	$a2, $sp, 24
	bltu	$a2, $a1, .LBB13_3
# %bb.2:                                # %if.then.i.i.i.i
	addi.d	$a1, $sp, 24
	move	$a0, $s0
	move	$a2, $zero
	pcaddu18i	$ra, %call36(_ZNSt7__cxx1112basic_stringIcSt11char_traitsIcESaIcEE9_M_createERmm)
	jirl	$ra, $ra, 0
	ld.d	$a2, $sp, 24
	st.d	$a0, $s0, 0
	st.d	$a2, $s0, 16
.LBB13_3:                               # %if.end.i.i.i.i
	addi.w	$a1, $zero, -1
	beq	$a2, $a1, .LBB13_8
# %bb.4:                                # %if.end.i.i.i.i
	bnez	$a2, .LBB13_7
# %bb.5:                                # %if.then.i.i.i.i.i
	ld.b	$a1, $s3, 0
	st.b	$a1, $a0, 0
	b	.LBB13_8
.LBB13_6:                               # %if.else.i
	addi.d	$a0, $fp, 160
	addi.d	$a2, $sp, 16
	addi.d	$a3, $sp, 12
	pcaddu18i	$ra, %call36(_ZNSt6vectorIN9benchmark8internal10StatisticsESaIS2_EE17_M_realloc_appendIJRKNSt7__cxx1112basic_stringIcSt11char_traitsIcESaIcEEERPFdRKS_IdSaIdEEERNS0_13StatisticUnitEEEEvDpOT_)
	jirl	$ra, $ra, 0
	b	.LBB13_9
.LBB13_7:                               # %if.end.i.i.i.i.i.i
	addi.d	$a2, $a2, 1
	move	$a1, $s3
	pcaddu18i	$ra, %call36(memcpy)
	jirl	$ra, $ra, 0
.LBB13_8:                               # %_ZN9benchmark8internal10StatisticsC2ERKNSt7__cxx1112basic_stringIcSt11char_traitsIcESaIcEEEPFdRKSt6vectorIdSaIdEEENS_13StatisticUnitE.exit.i
	ld.d	$a0, $sp, 24
	ld.d	$a1, $fp, 168
	st.d	$a0, $s0, 8
	st.d	$s2, $s0, 32
	st.w	$s1, $s0, 40
	addi.d	$a0, $a1, 48
	st.d	$a0, $fp, 168
.LBB13_9:                               # %_ZNSt6vectorIN9benchmark8internal10StatisticsESaIS2_EE12emplace_backIJRKNSt7__cxx1112basic_stringIcSt11char_traitsIcESaIcEEERPFdRKS_IdSaIdEEERNS0_13StatisticUnitEEEERS2_DpOT_.exit
	move	$a0, $fp
	ld.d	$s3, $sp, 32                    # 8-byte Folded Reload
	ld.d	$s2, $sp, 40                    # 8-byte Folded Reload
	ld.d	$s1, $sp, 48                    # 8-byte Folded Reload
	ld.d	$s0, $sp, 56                    # 8-byte Folded Reload
	ld.d	$fp, $sp, 64                    # 8-byte Folded Reload
	ld.d	$ra, $sp, 72                    # 8-byte Folded Reload
	addi.d	$sp, $sp, 80
	ret
.Lfunc_end13:
	.size	_ZN9benchmark8internal9Benchmark17ComputeStatisticsERKNSt7__cxx1112basic_stringIcSt11char_traitsIcESaIcEEEPFdRKSt6vectorIdSaIdEEENS_13StatisticUnitE, .Lfunc_end13-_ZN9benchmark8internal9Benchmark17ComputeStatisticsERKNSt7__cxx1112basic_stringIcSt11char_traitsIcESaIcEEEPFdRKSt6vectorIdSaIdEEENS_13StatisticUnitE
	.cfi_endproc
                                        # -- End function
	.section	.text._ZNSt6vectorIN9benchmark8internal10StatisticsESaIS2_EED2Ev,"axG",@progbits,_ZNSt6vectorIN9benchmark8internal10StatisticsESaIS2_EED2Ev,comdat
	.hidden	_ZNSt6vectorIN9benchmark8internal10StatisticsESaIS2_EED2Ev # -- Begin function _ZNSt6vectorIN9benchmark8internal10StatisticsESaIS2_EED2Ev
	.weak	_ZNSt6vectorIN9benchmark8internal10StatisticsESaIS2_EED2Ev
	.p2align	2
	.type	_ZNSt6vectorIN9benchmark8internal10StatisticsESaIS2_EED2Ev,@function
_ZNSt6vectorIN9benchmark8internal10StatisticsESaIS2_EED2Ev: # @_ZNSt6vectorIN9benchmark8internal10StatisticsESaIS2_EED2Ev
	.cfi_startproc
# %bb.0:                                # %entry
	addi.d	$sp, $sp, -32
	.cfi_def_cfa_offset 32
	st.d	$ra, $sp, 24                    # 8-byte Folded Spill
	st.d	$fp, $sp, 16                    # 8-byte Folded Spill
	st.d	$s0, $sp, 8                     # 8-byte Folded Spill
	st.d	$s1, $sp, 0                     # 8-byte Folded Spill
	.cfi_offset 1, -8
	.cfi_offset 22, -16
	.cfi_offset 23, -24
	.cfi_offset 24, -32
	move	$fp, $a0
	ld.d	$a0, $a0, 0
	ld.d	$s0, $fp, 8
	beq	$a0, $s0, .LBB14_6
# %bb.1:                                # %for.body.i.preheader
	addi.d	$s1, $a0, 16
	b	.LBB14_3
	.p2align	4, , 16
.LBB14_2:                               # %_ZSt8_DestroyIN9benchmark8internal10StatisticsEEvPT_.exit.i
                                        #   in Loop: Header=BB14_3 Depth=1
	addi.d	$a0, $s1, 32
	addi.d	$s1, $s1, 48
	beq	$a0, $s0, .LBB14_5
.LBB14_3:                               # %for.body.i
                                        # =>This Inner Loop Header: Depth=1
	ld.d	$a0, $s1, -16
	beq	$s1, $a0, .LBB14_2
# %bb.4:                                # %if.then.i.i.i.i.i
                                        #   in Loop: Header=BB14_3 Depth=1
	ld.d	$a1, $s1, 0
	addi.d	$a1, $a1, 1
	pcaddu18i	$ra, %call36(_ZdlPvm)
	jirl	$ra, $ra, 0
	b	.LBB14_2
.LBB14_5:                               # %invoke.contthread-pre-split
	ld.d	$a0, $fp, 0
.LBB14_6:                               # %invoke.cont
	beqz	$a0, .LBB14_8
# %bb.7:                                # %if.then.i.i
	ld.d	$a1, $fp, 16
	sub.d	$a1, $a1, $a0
	ld.d	$s1, $sp, 0                     # 8-byte Folded Reload
	ld.d	$s0, $sp, 8                     # 8-byte Folded Reload
	ld.d	$fp, $sp, 16                    # 8-byte Folded Reload
	ld.d	$ra, $sp, 24                    # 8-byte Folded Reload
	addi.d	$sp, $sp, 32
	pcaddu18i	$t8, %call36(_ZdlPvm)
	jr	$t8
.LBB14_8:                               # %_ZNSt12_Vector_baseIN9benchmark8internal10StatisticsESaIS2_EED2Ev.exit
	ld.d	$s1, $sp, 0                     # 8-byte Folded Reload
	ld.d	$s0, $sp, 8                     # 8-byte Folded Reload
	ld.d	$fp, $sp, 16                    # 8-byte Folded Reload
	ld.d	$ra, $sp, 24                    # 8-byte Folded Reload
	addi.d	$sp, $sp, 32
	ret
.Lfunc_end14:
	.size	_ZNSt6vectorIN9benchmark8internal10StatisticsESaIS2_EED2Ev, .Lfunc_end14-_ZNSt6vectorIN9benchmark8internal10StatisticsESaIS2_EED2Ev
	.cfi_endproc
                                        # -- End function
	.section	.text._ZNSt6vectorIS_IlSaIlEESaIS1_EED2Ev,"axG",@progbits,_ZNSt6vectorIS_IlSaIlEESaIS1_EED2Ev,comdat
	.hidden	_ZNSt6vectorIS_IlSaIlEESaIS1_EED2Ev # -- Begin function _ZNSt6vectorIS_IlSaIlEESaIS1_EED2Ev
	.weak	_ZNSt6vectorIS_IlSaIlEESaIS1_EED2Ev
	.p2align	2
	.type	_ZNSt6vectorIS_IlSaIlEESaIS1_EED2Ev,@function
_ZNSt6vectorIS_IlSaIlEESaIS1_EED2Ev:    # @_ZNSt6vectorIS_IlSaIlEESaIS1_EED2Ev
	.cfi_startproc
# %bb.0:                                # %entry
	addi.d	$sp, $sp, -32
	.cfi_def_cfa_offset 32
	st.d	$ra, $sp, 24                    # 8-byte Folded Spill
	st.d	$fp, $sp, 16                    # 8-byte Folded Spill
	st.d	$s0, $sp, 8                     # 8-byte Folded Spill
	st.d	$s1, $sp, 0                     # 8-byte Folded Spill
	.cfi_offset 1, -8
	.cfi_offset 22, -16
	.cfi_offset 23, -24
	.cfi_offset 24, -32
	move	$fp, $a0
	ld.d	$s0, $a0, 0
	ld.d	$s1, $a0, 8
	bne	$s0, $s1, .LBB15_4
# %bb.1:                                # %invoke.cont
	beqz	$s0, .LBB15_7
.LBB15_2:                               # %if.then.i.i
	ld.d	$a0, $fp, 16
	sub.d	$a1, $a0, $s0
	move	$a0, $s0
	ld.d	$s1, $sp, 0                     # 8-byte Folded Reload
	ld.d	$s0, $sp, 8                     # 8-byte Folded Reload
	ld.d	$fp, $sp, 16                    # 8-byte Folded Reload
	ld.d	$ra, $sp, 24                    # 8-byte Folded Reload
	addi.d	$sp, $sp, 32
	pcaddu18i	$t8, %call36(_ZdlPvm)
	jr	$t8
	.p2align	4, , 16
.LBB15_3:                               # %_ZSt8_DestroyISt6vectorIlSaIlEEEvPT_.exit.i
                                        #   in Loop: Header=BB15_4 Depth=1
	addi.d	$s0, $s0, 24
	beq	$s0, $s1, .LBB15_6
.LBB15_4:                               # %for.body.i
                                        # =>This Inner Loop Header: Depth=1
	ld.d	$a0, $s0, 0
	beqz	$a0, .LBB15_3
# %bb.5:                                # %if.then.i.i.i.i.i
                                        #   in Loop: Header=BB15_4 Depth=1
	ld.d	$a1, $s0, 16
	sub.d	$a1, $a1, $a0
	pcaddu18i	$ra, %call36(_ZdlPvm)
	jirl	$ra, $ra, 0
	b	.LBB15_3
.LBB15_6:                               # %invoke.contthread-pre-split
	ld.d	$s0, $fp, 0
	bnez	$s0, .LBB15_2
.LBB15_7:                               # %_ZNSt12_Vector_baseISt6vectorIlSaIlEESaIS2_EED2Ev.exit
	ld.d	$s1, $sp, 0                     # 8-byte Folded Reload
	ld.d	$s0, $sp, 8                     # 8-byte Folded Reload
	ld.d	$fp, $sp, 16                    # 8-byte Folded Reload
	ld.d	$ra, $sp, 24                    # 8-byte Folded Reload
	addi.d	$sp, $sp, 32
	ret
.Lfunc_end15:
	.size	_ZNSt6vectorIS_IlSaIlEESaIS1_EED2Ev, .Lfunc_end15-_ZNSt6vectorIS_IlSaIlEESaIS1_EED2Ev
	.cfi_endproc
                                        # -- End function
	.section	.text._ZNSt6vectorINSt7__cxx1112basic_stringIcSt11char_traitsIcESaIcEEESaIS5_EED2Ev,"axG",@progbits,_ZNSt6vectorINSt7__cxx1112basic_stringIcSt11char_traitsIcESaIcEEESaIS5_EED2Ev,comdat
	.hidden	_ZNSt6vectorINSt7__cxx1112basic_stringIcSt11char_traitsIcESaIcEEESaIS5_EED2Ev # -- Begin function _ZNSt6vectorINSt7__cxx1112basic_stringIcSt11char_traitsIcESaIcEEESaIS5_EED2Ev
	.weak	_ZNSt6vectorINSt7__cxx1112basic_stringIcSt11char_traitsIcESaIcEEESaIS5_EED2Ev
	.p2align	2
	.type	_ZNSt6vectorINSt7__cxx1112basic_stringIcSt11char_traitsIcESaIcEEESaIS5_EED2Ev,@function
_ZNSt6vectorINSt7__cxx1112basic_stringIcSt11char_traitsIcESaIcEEESaIS5_EED2Ev: # @_ZNSt6vectorINSt7__cxx1112basic_stringIcSt11char_traitsIcESaIcEEESaIS5_EED2Ev
	.cfi_startproc
# %bb.0:                                # %entry
	addi.d	$sp, $sp, -32
	.cfi_def_cfa_offset 32
	st.d	$ra, $sp, 24                    # 8-byte Folded Spill
	st.d	$fp, $sp, 16                    # 8-byte Folded Spill
	st.d	$s0, $sp, 8                     # 8-byte Folded Spill
	st.d	$s1, $sp, 0                     # 8-byte Folded Spill
	.cfi_offset 1, -8
	.cfi_offset 22, -16
	.cfi_offset 23, -24
	.cfi_offset 24, -32
	move	$fp, $a0
	ld.d	$a0, $a0, 0
	ld.d	$s0, $fp, 8
	beq	$a0, $s0, .LBB16_6
# %bb.1:                                # %for.body.i.preheader
	addi.d	$s1, $a0, 16
	b	.LBB16_3
	.p2align	4, , 16
.LBB16_2:                               # %_ZSt8_DestroyINSt7__cxx1112basic_stringIcSt11char_traitsIcESaIcEEEEvPT_.exit.i
                                        #   in Loop: Header=BB16_3 Depth=1
	addi.d	$a0, $s1, 16
	addi.d	$s1, $s1, 32
	beq	$a0, $s0, .LBB16_5
.LBB16_3:                               # %for.body.i
                                        # =>This Inner Loop Header: Depth=1
	ld.d	$a0, $s1, -16
	beq	$s1, $a0, .LBB16_2
# %bb.4:                                # %if.then.i.i.i.i
                                        #   in Loop: Header=BB16_3 Depth=1
	ld.d	$a1, $s1, 0
	addi.d	$a1, $a1, 1
	pcaddu18i	$ra, %call36(_ZdlPvm)
	jirl	$ra, $ra, 0
	b	.LBB16_2
.LBB16_5:                               # %invoke.contthread-pre-split
	ld.d	$a0, $fp, 0
.LBB16_6:                               # %invoke.cont
	beqz	$a0, .LBB16_8
# %bb.7:                                # %if.then.i.i
	ld.d	$a1, $fp, 16
	sub.d	$a1, $a1, $a0
	ld.d	$s1, $sp, 0                     # 8-byte Folded Reload
	ld.d	$s0, $sp, 8                     # 8-byte Folded Reload
	ld.d	$fp, $sp, 16                    # 8-byte Folded Reload
	ld.d	$ra, $sp, 24                    # 8-byte Folded Reload
	addi.d	$sp, $sp, 32
	pcaddu18i	$t8, %call36(_ZdlPvm)
	jr	$t8
.LBB16_8:                               # %_ZNSt12_Vector_baseINSt7__cxx1112basic_stringIcSt11char_traitsIcESaIcEEESaIS5_EED2Ev.exit
	ld.d	$s1, $sp, 0                     # 8-byte Folded Reload
	ld.d	$s0, $sp, 8                     # 8-byte Folded Reload
	ld.d	$fp, $sp, 16                    # 8-byte Folded Reload
	ld.d	$ra, $sp, 24                    # 8-byte Folded Reload
	addi.d	$sp, $sp, 32
	ret
.Lfunc_end16:
	.size	_ZNSt6vectorINSt7__cxx1112basic_stringIcSt11char_traitsIcESaIcEEESaIS5_EED2Ev, .Lfunc_end16-_ZNSt6vectorINSt7__cxx1112basic_stringIcSt11char_traitsIcESaIcEEESaIS5_EED2Ev
	.cfi_endproc
                                        # -- End function
	.section	.text.unlikely.,"ax",@progbits
	.hidden	_ZN9benchmark8internal9BenchmarkD0Ev # -- Begin function _ZN9benchmark8internal9BenchmarkD0Ev
	.globl	_ZN9benchmark8internal9BenchmarkD0Ev
	.p2align	2
	.type	_ZN9benchmark8internal9BenchmarkD0Ev,@function
_ZN9benchmark8internal9BenchmarkD0Ev:   # @_ZN9benchmark8internal9BenchmarkD0Ev
# %bb.0:                                # %entry
	amswap.w	$zero, $ra, $zero
.Lfunc_end17:
	.size	_ZN9benchmark8internal9BenchmarkD0Ev, .Lfunc_end17-_ZN9benchmark8internal9BenchmarkD0Ev
                                        # -- End function
	.text
	.hidden	_ZN9benchmark8internal9Benchmark4NameERKNSt7__cxx1112basic_stringIcSt11char_traitsIcESaIcEEE # -- Begin function _ZN9benchmark8internal9Benchmark4NameERKNSt7__cxx1112basic_stringIcSt11char_traitsIcESaIcEEE
	.globl	_ZN9benchmark8internal9Benchmark4NameERKNSt7__cxx1112basic_stringIcSt11char_traitsIcESaIcEEE
	.p2align	2
	.type	_ZN9benchmark8internal9Benchmark4NameERKNSt7__cxx1112basic_stringIcSt11char_traitsIcESaIcEEE,@function
_ZN9benchmark8internal9Benchmark4NameERKNSt7__cxx1112basic_stringIcSt11char_traitsIcESaIcEEE: # @_ZN9benchmark8internal9Benchmark4NameERKNSt7__cxx1112basic_stringIcSt11char_traitsIcESaIcEEE
	.cfi_startproc
# %bb.0:                                # %entry
	addi.d	$sp, $sp, -16
	.cfi_def_cfa_offset 16
	st.d	$ra, $sp, 8                     # 8-byte Folded Spill
	st.d	$fp, $sp, 0                     # 8-byte Folded Spill
	.cfi_offset 1, -8
	.cfi_offset 22, -16
	move	$fp, $a0
	addi.d	$a0, $a0, 8
	pcaddu18i	$ra, %call36(_ZNSt7__cxx1112basic_stringIcSt11char_traitsIcESaIcEE9_M_assignERKS4_)
	jirl	$ra, $ra, 0
	move	$a0, $fp
	ld.d	$fp, $sp, 0                     # 8-byte Folded Reload
	ld.d	$ra, $sp, 8                     # 8-byte Folded Reload
	addi.d	$sp, $sp, 16
	ret
.Lfunc_end18:
	.size	_ZN9benchmark8internal9Benchmark4NameERKNSt7__cxx1112basic_stringIcSt11char_traitsIcESaIcEEE, .Lfunc_end18-_ZN9benchmark8internal9Benchmark4NameERKNSt7__cxx1112basic_stringIcSt11char_traitsIcESaIcEEE
	.cfi_endproc
                                        # -- End function
	.hidden	_ZN9benchmark8internal9Benchmark7SetNameERKNSt7__cxx1112basic_stringIcSt11char_traitsIcESaIcEEE # -- Begin function _ZN9benchmark8internal9Benchmark7SetNameERKNSt7__cxx1112basic_stringIcSt11char_traitsIcESaIcEEE
	.globl	_ZN9benchmark8internal9Benchmark7SetNameERKNSt7__cxx1112basic_stringIcSt11char_traitsIcESaIcEEE
	.p2align	2
	.type	_ZN9benchmark8internal9Benchmark7SetNameERKNSt7__cxx1112basic_stringIcSt11char_traitsIcESaIcEEE,@function
_ZN9benchmark8internal9Benchmark7SetNameERKNSt7__cxx1112basic_stringIcSt11char_traitsIcESaIcEEE: # @_ZN9benchmark8internal9Benchmark7SetNameERKNSt7__cxx1112basic_stringIcSt11char_traitsIcESaIcEEE
	.cfi_startproc
# %bb.0:                                # %entry
	addi.d	$a0, $a0, 8
	pcaddu18i	$t8, %call36(_ZNSt7__cxx1112basic_stringIcSt11char_traitsIcESaIcEE9_M_assignERKS4_)
	jr	$t8
.Lfunc_end19:
	.size	_ZN9benchmark8internal9Benchmark7SetNameERKNSt7__cxx1112basic_stringIcSt11char_traitsIcESaIcEEE, .Lfunc_end19-_ZN9benchmark8internal9Benchmark7SetNameERKNSt7__cxx1112basic_stringIcSt11char_traitsIcESaIcEEE
	.cfi_endproc
                                        # -- End function
	.hidden	_ZN9benchmark8internal9Benchmark3ArgEl # -- Begin function _ZN9benchmark8internal9Benchmark3ArgEl
	.globl	_ZN9benchmark8internal9Benchmark3ArgEl
	.p2align	2
	.type	_ZN9benchmark8internal9Benchmark3ArgEl,@function
_ZN9benchmark8internal9Benchmark3ArgEl: # @_ZN9benchmark8internal9Benchmark3ArgEl
.Lfunc_begin7:
	.cfi_startproc
	.cfi_personality 155, DW.ref.__gxx_personality_v0
	.cfi_lsda 27, .Lexception7
# %bb.0:                                # %entry
	addi.d	$sp, $sp, -80
	.cfi_def_cfa_offset 80
	st.d	$ra, $sp, 72                    # 8-byte Folded Spill
	st.d	$fp, $sp, 64                    # 8-byte Folded Spill
	st.d	$s0, $sp, 56                    # 8-byte Folded Spill
	st.d	$s1, $sp, 48                    # 8-byte Folded Spill
	st.d	$s2, $sp, 40                    # 8-byte Folded Spill
	st.d	$s3, $sp, 32                    # 8-byte Folded Spill
	st.d	$s4, $sp, 24                    # 8-byte Folded Spill
	st.d	$s5, $sp, 16                    # 8-byte Folded Spill
	st.d	$s6, $sp, 8                     # 8-byte Folded Spill
	.cfi_offset 1, -8
	.cfi_offset 22, -16
	.cfi_offset 23, -24
	.cfi_offset 24, -32
	.cfi_offset 25, -40
	.cfi_offset 26, -48
	.cfi_offset 27, -56
	.cfi_offset 28, -64
	.cfi_offset 29, -72
	pcalau12i	$a2, %pc_hi20(_ZGVZN9benchmark8internal18GetNullLogInstanceEvE8null_log)
	ld.b	$a2, $a2, %pc_lo12(_ZGVZN9benchmark8internal18GetNullLogInstanceEvE8null_log)
	move	$s0, $a1
	move	$fp, $a0
	dbar	20
	beqz	$a2, .LBB20_12
.LBB20_1:                               # %_ZN9benchmark8internal18GetNullLogInstanceEv.exit
	ori	$a0, $zero, 8
	pcaddu18i	$ra, %call36(_Znwm)
	jirl	$ra, $ra, 0
	ld.d	$s3, $fp, 80
	ld.d	$a1, $fp, 88
	move	$s1, $a0
	addi.d	$s5, $a0, 8
	st.d	$s0, $a0, 0
	beq	$s3, $a1, .LBB20_3
# %bb.2:                                # %if.then.i.i
	st.d	$s1, $s3, 0
	st.d	$s5, $s3, 8
	st.d	$s5, $s3, 16
	addi.d	$a0, $s3, 24
	st.d	$a0, $fp, 80
	b	.LBB20_11
.LBB20_3:                               # %if.else.i.i
	ld.d	$s0, $fp, 72
	sub.d	$s6, $s3, $s0
	addi.w	$a0, $zero, -8
	lu52i.d	$a0, $a0, 2047
	beq	$s6, $a0, .LBB20_14
# %bb.4:                                # %_ZNKSt6vectorIS_IlSaIlEESaIS1_EE12_M_check_lenEmPKc.exit.i
	srli.d	$a0, $s6, 3
	lu12i.w	$a1, -349526
	ori	$a1, $a1, 2731
	lu32i.d	$a1, -349526
	lu52i.d	$a1, $a1, -1366
	mul.d	$a0, $a0, $a1
	ori	$a1, $zero, 1
	sltu	$a2, $a1, $a0
	maskeqz	$a3, $a0, $a2
	masknez	$a1, $a1, $a2
	or	$a1, $a3, $a1
	add.d	$a0, $a1, $a0
	lu12i.w	$a1, 349525
	ori	$a1, $a1, 1365
	bstrins.d	$a1, $a1, 58, 32
	sltu	$a2, $a0, $a1
	maskeqz	$a0, $a0, $a2
	masknez	$a1, $a1, $a2
	or	$s4, $a0, $a1
	slli.d	$a0, $s4, 4
	alsl.d	$a0, $s4, $a0, 3
.Ltmp103:                               # EH_LABEL
	pcaddu18i	$ra, %call36(_Znwm)
	jirl	$ra, $ra, 0
.Ltmp104:                               # EH_LABEL
# %bb.5:                                # %call5.i.i.i.noexc
	move	$s2, $a0
	add.d	$a0, $a0, $s6
	stx.d	$s1, $s2, $s6
	st.d	$s5, $a0, 8
	st.d	$s5, $a0, 16
	move	$s1, $s2
	beq	$s0, $s3, .LBB20_8
# %bb.6:                                # %for.body.i.i.i.i.preheader
	vrepli.b	$vr0, 0
	move	$s1, $s2
	move	$a0, $s0
	.p2align	4, , 16
.LBB20_7:                               # %for.body.i.i.i.i
                                        # =>This Inner Loop Header: Depth=1
	vld	$vr1, $a0, 0
	ld.d	$a1, $a0, 16
	vst	$vr1, $s1, 0
	st.d	$a1, $s1, 16
	st.d	$zero, $a0, 16
	vst	$vr0, $a0, 0
	addi.d	$a0, $a0, 24
	addi.d	$s1, $s1, 24
	bne	$a0, $s3, .LBB20_7
.LBB20_8:                               # %_ZNSt6vectorIS_IlSaIlEESaIS1_EE11_S_relocateEPS1_S4_S4_RS2_.exit.i
	beqz	$s0, .LBB20_10
# %bb.9:                                # %_ZNSt12_Vector_baseISt6vectorIlSaIlEESaIS2_EE13_M_deallocateEPS2_m.exit.i.i
	ld.d	$a0, $fp, 88
	sub.d	$a1, $a0, $s0
	move	$a0, $s0
	pcaddu18i	$ra, %call36(_ZdlPvm)
	jirl	$ra, $ra, 0
.LBB20_10:                              # %.noexc
	addi.d	$a0, $s1, 24
	st.d	$s2, $fp, 72
	st.d	$a0, $fp, 80
	ori	$a0, $zero, 24
	mul.d	$a0, $s4, $a0
	add.d	$a0, $s2, $a0
	st.d	$a0, $fp, 88
.LBB20_11:                              # %_ZNSt6vectorIlSaIlEED2Ev.exit
	move	$a0, $fp
	ld.d	$s6, $sp, 8                     # 8-byte Folded Reload
	ld.d	$s5, $sp, 16                    # 8-byte Folded Reload
	ld.d	$s4, $sp, 24                    # 8-byte Folded Reload
	ld.d	$s3, $sp, 32                    # 8-byte Folded Reload
	ld.d	$s2, $sp, 40                    # 8-byte Folded Reload
	ld.d	$s1, $sp, 48                    # 8-byte Folded Reload
	ld.d	$s0, $sp, 56                    # 8-byte Folded Reload
	ld.d	$fp, $sp, 64                    # 8-byte Folded Reload
	ld.d	$ra, $sp, 72                    # 8-byte Folded Reload
	addi.d	$sp, $sp, 80
	ret
.LBB20_12:                              # %init.check.i
	pcalau12i	$a0, %pc_hi20(_ZGVZN9benchmark8internal18GetNullLogInstanceEvE8null_log)
	addi.d	$a0, $a0, %pc_lo12(_ZGVZN9benchmark8internal18GetNullLogInstanceEvE8null_log)
	pcaddu18i	$ra, %call36(__cxa_guard_acquire)
	jirl	$ra, $ra, 0
	addi.w	$a0, $a0, 0
	beqz	$a0, .LBB20_1
# %bb.13:                               # %init.i
	pcalau12i	$a0, %pc_hi20(_ZZN9benchmark8internal18GetNullLogInstanceEvE8null_log)
	st.d	$zero, $a0, %pc_lo12(_ZZN9benchmark8internal18GetNullLogInstanceEvE8null_log)
	pcalau12i	$a0, %pc_hi20(_ZGVZN9benchmark8internal18GetNullLogInstanceEvE8null_log)
	addi.d	$a0, $a0, %pc_lo12(_ZGVZN9benchmark8internal18GetNullLogInstanceEvE8null_log)
	pcaddu18i	$ra, %call36(__cxa_guard_release)
	jirl	$ra, $ra, 0
	b	.LBB20_1
.LBB20_14:                              # %if.then.i.i18
.Ltmp105:                               # EH_LABEL
	pcalau12i	$a0, %pc_hi20(.L.str.23)
	addi.d	$a0, $a0, %pc_lo12(.L.str.23)
	pcaddu18i	$ra, %call36(_ZSt20__throw_length_errorPKc)
	jirl	$ra, $ra, 0
.Ltmp106:                               # EH_LABEL
# %bb.15:                               # %.noexc19
.LBB20_16:                              # %_ZNSt6vectorIlSaIlEED2Ev.exit17
.Ltmp107:                               # EH_LABEL
	move	$fp, $a0
	ori	$a1, $zero, 8
	move	$a0, $s1
	pcaddu18i	$ra, %call36(_ZdlPvm)
	jirl	$ra, $ra, 0
	move	$a0, $fp
	pcaddu18i	$ra, %call36(_Unwind_Resume)
	jirl	$ra, $ra, 0
.Lfunc_end20:
	.size	_ZN9benchmark8internal9Benchmark3ArgEl, .Lfunc_end20-_ZN9benchmark8internal9Benchmark3ArgEl
	.cfi_endproc
	.section	.gcc_except_table,"a",@progbits
	.p2align	2, 0x0
GCC_except_table20:
.Lexception7:
	.byte	255                             # @LPStart Encoding = omit
	.byte	255                             # @TType Encoding = omit
	.byte	1                               # Call site Encoding = uleb128
	.uleb128 .Lcst_end7-.Lcst_begin7
.Lcst_begin7:
	.uleb128 .Lfunc_begin7-.Lfunc_begin7    # >> Call Site 1 <<
	.uleb128 .Ltmp103-.Lfunc_begin7         #   Call between .Lfunc_begin7 and .Ltmp103
	.byte	0                               #     has no landing pad
	.byte	0                               #   On action: cleanup
	.uleb128 .Ltmp103-.Lfunc_begin7         # >> Call Site 2 <<
	.uleb128 .Ltmp104-.Ltmp103              #   Call between .Ltmp103 and .Ltmp104
	.uleb128 .Ltmp107-.Lfunc_begin7         #     jumps to .Ltmp107
	.byte	0                               #   On action: cleanup
	.uleb128 .Ltmp104-.Lfunc_begin7         # >> Call Site 3 <<
	.uleb128 .Ltmp105-.Ltmp104              #   Call between .Ltmp104 and .Ltmp105
	.byte	0                               #     has no landing pad
	.byte	0                               #   On action: cleanup
	.uleb128 .Ltmp105-.Lfunc_begin7         # >> Call Site 4 <<
	.uleb128 .Ltmp106-.Ltmp105              #   Call between .Ltmp105 and .Ltmp106
	.uleb128 .Ltmp107-.Lfunc_begin7         #     jumps to .Ltmp107
	.byte	0                               #   On action: cleanup
	.uleb128 .Ltmp106-.Lfunc_begin7         # >> Call Site 5 <<
	.uleb128 .Lfunc_end20-.Ltmp106          #   Call between .Ltmp106 and .Lfunc_end20
	.byte	0                               #     has no landing pad
	.byte	0                               #   On action: cleanup
.Lcst_end7:
	.p2align	2, 0x0
                                        # -- End function
	.text
	.hidden	_ZN9benchmark8internal9Benchmark4UnitENS_8TimeUnitE # -- Begin function _ZN9benchmark8internal9Benchmark4UnitENS_8TimeUnitE
	.globl	_ZN9benchmark8internal9Benchmark4UnitENS_8TimeUnitE
	.p2align	2
	.type	_ZN9benchmark8internal9Benchmark4UnitENS_8TimeUnitE,@function
_ZN9benchmark8internal9Benchmark4UnitENS_8TimeUnitE: # @_ZN9benchmark8internal9Benchmark4UnitENS_8TimeUnitE
# %bb.0:                                # %entry
	st.w	$a1, $a0, 96
	st.b	$zero, $a0, 100
	ret
.Lfunc_end21:
	.size	_ZN9benchmark8internal9Benchmark4UnitENS_8TimeUnitE, .Lfunc_end21-_ZN9benchmark8internal9Benchmark4UnitENS_8TimeUnitE
                                        # -- End function
	.hidden	_ZN9benchmark8internal9Benchmark5RangeEll # -- Begin function _ZN9benchmark8internal9Benchmark5RangeEll
	.globl	_ZN9benchmark8internal9Benchmark5RangeEll
	.p2align	2
	.type	_ZN9benchmark8internal9Benchmark5RangeEll,@function
_ZN9benchmark8internal9Benchmark5RangeEll: # @_ZN9benchmark8internal9Benchmark5RangeEll
.Lfunc_begin8:
	.cfi_startproc
	.cfi_personality 155, DW.ref.__gxx_personality_v0
	.cfi_lsda 27, .Lexception8
# %bb.0:                                # %entry
	addi.d	$sp, $sp, -160
	.cfi_def_cfa_offset 160
	st.d	$ra, $sp, 152                   # 8-byte Folded Spill
	st.d	$fp, $sp, 144                   # 8-byte Folded Spill
	st.d	$s0, $sp, 136                   # 8-byte Folded Spill
	st.d	$s1, $sp, 128                   # 8-byte Folded Spill
	st.d	$s2, $sp, 120                   # 8-byte Folded Spill
	st.d	$s3, $sp, 112                   # 8-byte Folded Spill
	st.d	$s4, $sp, 104                   # 8-byte Folded Spill
	st.d	$s5, $sp, 96                    # 8-byte Folded Spill
	st.d	$s6, $sp, 88                    # 8-byte Folded Spill
	st.d	$s7, $sp, 80                    # 8-byte Folded Spill
	st.d	$s8, $sp, 72                    # 8-byte Folded Spill
	.cfi_offset 1, -8
	.cfi_offset 22, -16
	.cfi_offset 23, -24
	.cfi_offset 24, -32
	.cfi_offset 25, -40
	.cfi_offset 26, -48
	.cfi_offset 27, -56
	.cfi_offset 28, -64
	.cfi_offset 29, -72
	.cfi_offset 30, -80
	.cfi_offset 31, -88
	pcalau12i	$a3, %pc_hi20(_ZGVZN9benchmark8internal18GetNullLogInstanceEvE8null_log)
	ld.b	$a3, $a3, %pc_lo12(_ZGVZN9benchmark8internal18GetNullLogInstanceEvE8null_log)
	move	$fp, $a0
	dbar	20
	beqz	$a3, .LBB22_21
.LBB22_1:                               # %_ZN9benchmark8internal18GetNullLogInstanceEv.exit
	ld.w	$a3, $fp, 104
	st.d	$zero, $sp, 64
	vrepli.b	$vr0, 0
	vst	$vr0, $sp, 32                   # 16-byte Folded Spill
	vst	$vr0, $sp, 48
.Ltmp108:                               # EH_LABEL
	addi.d	$a0, $sp, 48
	pcaddu18i	$ra, %call36(_ZN9benchmark8internal8AddRangeIlEEvPSt6vectorIT_SaIS3_EES3_S3_i)
	jirl	$ra, $ra, 0
.Ltmp109:                               # EH_LABEL
# %bb.2:                                # %invoke.cont
	ld.d	$s0, $sp, 48
	ld.d	$s4, $sp, 56
	beq	$s0, $s4, .LBB22_16
# %bb.3:
	addi.w	$a0, $zero, -8
	lu52i.d	$a0, $a0, 2047
	st.d	$a0, $sp, 24                    # 8-byte Folded Spill
	lu12i.w	$a0, -349526
	ori	$a0, $a0, 2731
	lu32i.d	$a0, -349526
	lu52i.d	$a0, $a0, -1366
	st.d	$a0, $sp, 16                    # 8-byte Folded Spill
	lu12i.w	$a0, 349525
	ori	$a0, $a0, 1365
	bstrins.d	$a0, $a0, 58, 32
	st.d	$a0, $sp, 8                     # 8-byte Folded Spill
	b	.LBB22_5
	.p2align	4, , 16
.LBB22_4:                               # %if.then.i.i
                                        #   in Loop: Header=BB22_5 Depth=1
	st.d	$s1, $s5, 0
	st.d	$s6, $s5, 8
	st.d	$s6, $s5, 16
	addi.d	$a0, $s5, 24
	st.d	$a0, $fp, 80
	addi.d	$s0, $s0, 8
	beq	$s0, $s4, .LBB22_15
.LBB22_5:                               # %for.body
                                        # =>This Loop Header: Depth=1
                                        #     Child Loop BB22_11 Depth 2
	ld.d	$s2, $s0, 0
.Ltmp111:                               # EH_LABEL
	ori	$a0, $zero, 8
	pcaddu18i	$ra, %call36(_Znwm)
	jirl	$ra, $ra, 0
.Ltmp112:                               # EH_LABEL
# %bb.6:                                # %invoke.cont11
                                        #   in Loop: Header=BB22_5 Depth=1
	move	$s1, $a0
	ld.d	$s5, $fp, 80
	ld.d	$a0, $fp, 88
	addi.d	$s6, $s1, 8
	st.d	$s2, $s1, 0
	bne	$s5, $a0, .LBB22_4
# %bb.7:                                # %if.else.i.i
                                        #   in Loop: Header=BB22_5 Depth=1
	ld.d	$s2, $fp, 72
	sub.d	$s8, $s5, $s2
	ld.d	$a0, $sp, 24                    # 8-byte Folded Reload
	beq	$s8, $a0, .LBB22_19
# %bb.8:                                # %_ZNKSt6vectorIS_IlSaIlEESaIS1_EE12_M_check_lenEmPKc.exit.i
                                        #   in Loop: Header=BB22_5 Depth=1
	srli.d	$a0, $s8, 3
	ld.d	$a1, $sp, 16                    # 8-byte Folded Reload
	mul.d	$a0, $a0, $a1
	ori	$a3, $zero, 1
	sltu	$a1, $a3, $a0
	maskeqz	$a2, $a0, $a1
	masknez	$a1, $a3, $a1
	or	$a1, $a2, $a1
	add.d	$a0, $a1, $a0
	ld.d	$a2, $sp, 8                     # 8-byte Folded Reload
	sltu	$a1, $a0, $a2
	maskeqz	$a0, $a0, $a1
	masknez	$a1, $a2, $a1
	or	$s7, $a0, $a1
	slli.d	$a0, $s7, 4
	alsl.d	$a0, $s7, $a0, 3
.Ltmp114:                               # EH_LABEL
	pcaddu18i	$ra, %call36(_Znwm)
	jirl	$ra, $ra, 0
.Ltmp115:                               # EH_LABEL
# %bb.9:                                # %call5.i.i.i.noexc
                                        #   in Loop: Header=BB22_5 Depth=1
	move	$s3, $a0
	add.d	$a0, $a0, $s8
	stx.d	$s1, $s3, $s8
	st.d	$s6, $a0, 8
	st.d	$s6, $a0, 16
	move	$s1, $s3
	vld	$vr1, $sp, 32                   # 16-byte Folded Reload
	beq	$s2, $s5, .LBB22_12
# %bb.10:                               # %for.body.i.i.i.i.preheader
                                        #   in Loop: Header=BB22_5 Depth=1
	move	$s1, $s3
	move	$a0, $s2
	.p2align	4, , 16
.LBB22_11:                              # %for.body.i.i.i.i
                                        #   Parent Loop BB22_5 Depth=1
                                        # =>  This Inner Loop Header: Depth=2
	vld	$vr0, $a0, 0
	ld.d	$a1, $a0, 16
	vst	$vr0, $s1, 0
	st.d	$a1, $s1, 16
	st.d	$zero, $a0, 16
	vst	$vr1, $a0, 0
	addi.d	$a0, $a0, 24
	addi.d	$s1, $s1, 24
	bne	$a0, $s5, .LBB22_11
.LBB22_12:                              # %_ZNSt6vectorIS_IlSaIlEESaIS1_EE11_S_relocateEPS1_S4_S4_RS2_.exit.i
                                        #   in Loop: Header=BB22_5 Depth=1
	beqz	$s2, .LBB22_14
# %bb.13:                               # %_ZNSt12_Vector_baseISt6vectorIlSaIlEESaIS2_EE13_M_deallocateEPS2_m.exit.i.i
                                        #   in Loop: Header=BB22_5 Depth=1
	ld.d	$a0, $fp, 88
	sub.d	$a1, $a0, $s2
	move	$a0, $s2
	pcaddu18i	$ra, %call36(_ZdlPvm)
	jirl	$ra, $ra, 0
.LBB22_14:                              # %.noexc
                                        #   in Loop: Header=BB22_5 Depth=1
	addi.d	$a0, $s1, 24
	st.d	$s3, $fp, 72
	st.d	$a0, $fp, 80
	ori	$a0, $zero, 24
	mul.d	$a0, $s7, $a0
	add.d	$a0, $s3, $a0
	st.d	$a0, $fp, 88
	addi.d	$s0, $s0, 8
	bne	$s0, $s4, .LBB22_5
.LBB22_15:                              # %for.cond.cleanup.loopexit
	ld.d	$s0, $sp, 48
.LBB22_16:                              # %for.cond.cleanup
	beqz	$s0, .LBB22_18
# %bb.17:                               # %if.then.i.i.i
	ld.d	$a0, $sp, 64
	sub.d	$a1, $a0, $s0
	move	$a0, $s0
	pcaddu18i	$ra, %call36(_ZdlPvm)
	jirl	$ra, $ra, 0
.LBB22_18:                              # %_ZNSt6vectorIlSaIlEED2Ev.exit
	move	$a0, $fp
	ld.d	$s8, $sp, 72                    # 8-byte Folded Reload
	ld.d	$s7, $sp, 80                    # 8-byte Folded Reload
	ld.d	$s6, $sp, 88                    # 8-byte Folded Reload
	ld.d	$s5, $sp, 96                    # 8-byte Folded Reload
	ld.d	$s4, $sp, 104                   # 8-byte Folded Reload
	ld.d	$s3, $sp, 112                   # 8-byte Folded Reload
	ld.d	$s2, $sp, 120                   # 8-byte Folded Reload
	ld.d	$s1, $sp, 128                   # 8-byte Folded Reload
	ld.d	$s0, $sp, 136                   # 8-byte Folded Reload
	ld.d	$fp, $sp, 144                   # 8-byte Folded Reload
	ld.d	$ra, $sp, 152                   # 8-byte Folded Reload
	addi.d	$sp, $sp, 160
	ret
.LBB22_19:                              # %if.then.i.i38
.Ltmp117:                               # EH_LABEL
	pcalau12i	$a0, %pc_hi20(.L.str.23)
	addi.d	$a0, $a0, %pc_lo12(.L.str.23)
	pcaddu18i	$ra, %call36(_ZSt20__throw_length_errorPKc)
	jirl	$ra, $ra, 0
.Ltmp118:                               # EH_LABEL
# %bb.20:                               # %.noexc39
.LBB22_21:                              # %init.check.i
	pcalau12i	$a0, %pc_hi20(_ZGVZN9benchmark8internal18GetNullLogInstanceEvE8null_log)
	addi.d	$a0, $a0, %pc_lo12(_ZGVZN9benchmark8internal18GetNullLogInstanceEvE8null_log)
	move	$s0, $a2
	move	$s1, $a1
	pcaddu18i	$ra, %call36(__cxa_guard_acquire)
	jirl	$ra, $ra, 0
	move	$a1, $s1
	move	$a2, $s0
	addi.w	$a0, $a0, 0
	beqz	$a0, .LBB22_1
# %bb.22:                               # %init.i
	pcalau12i	$a0, %pc_hi20(_ZZN9benchmark8internal18GetNullLogInstanceEvE8null_log)
	st.d	$zero, $a0, %pc_lo12(_ZZN9benchmark8internal18GetNullLogInstanceEvE8null_log)
	pcalau12i	$a0, %pc_hi20(_ZGVZN9benchmark8internal18GetNullLogInstanceEvE8null_log)
	addi.d	$a0, $a0, %pc_lo12(_ZGVZN9benchmark8internal18GetNullLogInstanceEvE8null_log)
	pcaddu18i	$ra, %call36(__cxa_guard_release)
	jirl	$ra, $ra, 0
	move	$a1, $s1
	move	$a2, $s0
	b	.LBB22_1
.LBB22_23:                              # %lpad
.Ltmp110:                               # EH_LABEL
	b	.LBB22_28
.LBB22_24:                              # %_ZNSt6vectorIlSaIlEED2Ev.exit28.loopexit
.Ltmp116:                               # EH_LABEL
	b	.LBB22_26
.LBB22_25:                              # %_ZNSt6vectorIlSaIlEED2Ev.exit28.loopexit.split-lp
.Ltmp119:                               # EH_LABEL
.LBB22_26:                              # %_ZNSt6vectorIlSaIlEED2Ev.exit28
	move	$fp, $a0
	ori	$a1, $zero, 8
	move	$a0, $s1
	pcaddu18i	$ra, %call36(_ZdlPvm)
	jirl	$ra, $ra, 0
	b	.LBB22_29
.LBB22_27:                              # %_ZNSt12_Vector_baseIlSaIlEED2Ev.exit.i
.Ltmp113:                               # EH_LABEL
.LBB22_28:                              # %ehcleanup22
	move	$fp, $a0
.LBB22_29:                              # %ehcleanup22
	ld.d	$a0, $sp, 48
	beqz	$a0, .LBB22_31
# %bb.30:                               # %if.then.i.i.i30
	ld.d	$a1, $sp, 64
	sub.d	$a1, $a1, $a0
	pcaddu18i	$ra, %call36(_ZdlPvm)
	jirl	$ra, $ra, 0
.LBB22_31:                              # %_ZNSt6vectorIlSaIlEED2Ev.exit36
	move	$a0, $fp
	pcaddu18i	$ra, %call36(_Unwind_Resume)
	jirl	$ra, $ra, 0
.Lfunc_end22:
	.size	_ZN9benchmark8internal9Benchmark5RangeEll, .Lfunc_end22-_ZN9benchmark8internal9Benchmark5RangeEll
	.cfi_endproc
	.section	.gcc_except_table,"a",@progbits
	.p2align	2, 0x0
GCC_except_table22:
.Lexception8:
	.byte	255                             # @LPStart Encoding = omit
	.byte	255                             # @TType Encoding = omit
	.byte	1                               # Call site Encoding = uleb128
	.uleb128 .Lcst_end8-.Lcst_begin8
.Lcst_begin8:
	.uleb128 .Ltmp108-.Lfunc_begin8         # >> Call Site 1 <<
	.uleb128 .Ltmp109-.Ltmp108              #   Call between .Ltmp108 and .Ltmp109
	.uleb128 .Ltmp110-.Lfunc_begin8         #     jumps to .Ltmp110
	.byte	0                               #   On action: cleanup
	.uleb128 .Ltmp111-.Lfunc_begin8         # >> Call Site 2 <<
	.uleb128 .Ltmp112-.Ltmp111              #   Call between .Ltmp111 and .Ltmp112
	.uleb128 .Ltmp113-.Lfunc_begin8         #     jumps to .Ltmp113
	.byte	0                               #   On action: cleanup
	.uleb128 .Ltmp114-.Lfunc_begin8         # >> Call Site 3 <<
	.uleb128 .Ltmp115-.Ltmp114              #   Call between .Ltmp114 and .Ltmp115
	.uleb128 .Ltmp116-.Lfunc_begin8         #     jumps to .Ltmp116
	.byte	0                               #   On action: cleanup
	.uleb128 .Ltmp115-.Lfunc_begin8         # >> Call Site 4 <<
	.uleb128 .Ltmp117-.Ltmp115              #   Call between .Ltmp115 and .Ltmp117
	.byte	0                               #     has no landing pad
	.byte	0                               #   On action: cleanup
	.uleb128 .Ltmp117-.Lfunc_begin8         # >> Call Site 5 <<
	.uleb128 .Ltmp118-.Ltmp117              #   Call between .Ltmp117 and .Ltmp118
	.uleb128 .Ltmp119-.Lfunc_begin8         #     jumps to .Ltmp119
	.byte	0                               #   On action: cleanup
	.uleb128 .Ltmp118-.Lfunc_begin8         # >> Call Site 6 <<
	.uleb128 .Lfunc_end22-.Ltmp118          #   Call between .Ltmp118 and .Lfunc_end22
	.byte	0                               #     has no landing pad
	.byte	0                               #   On action: cleanup
.Lcst_end8:
	.p2align	2, 0x0
                                        # -- End function
	.section	.text._ZN9benchmark8internal8AddRangeIlEEvPSt6vectorIT_SaIS3_EES3_S3_i,"axG",@progbits,_ZN9benchmark8internal8AddRangeIlEEvPSt6vectorIT_SaIS3_EES3_S3_i,comdat
	.hidden	_ZN9benchmark8internal8AddRangeIlEEvPSt6vectorIT_SaIS3_EES3_S3_i # -- Begin function _ZN9benchmark8internal8AddRangeIlEEvPSt6vectorIT_SaIS3_EES3_S3_i
	.weak	_ZN9benchmark8internal8AddRangeIlEEvPSt6vectorIT_SaIS3_EES3_S3_i
	.p2align	5
	.type	_ZN9benchmark8internal8AddRangeIlEEvPSt6vectorIT_SaIS3_EES3_S3_i,@function
_ZN9benchmark8internal8AddRangeIlEEvPSt6vectorIT_SaIS3_EES3_S3_i: # @_ZN9benchmark8internal8AddRangeIlEEvPSt6vectorIT_SaIS3_EES3_S3_i
	.cfi_startproc
# %bb.0:                                # %entry
	addi.d	$sp, $sp, -112
	.cfi_def_cfa_offset 112
	st.d	$ra, $sp, 104                   # 8-byte Folded Spill
	st.d	$fp, $sp, 96                    # 8-byte Folded Spill
	st.d	$s0, $sp, 88                    # 8-byte Folded Spill
	st.d	$s1, $sp, 80                    # 8-byte Folded Spill
	st.d	$s2, $sp, 72                    # 8-byte Folded Spill
	st.d	$s3, $sp, 64                    # 8-byte Folded Spill
	st.d	$s4, $sp, 56                    # 8-byte Folded Spill
	st.d	$s5, $sp, 48                    # 8-byte Folded Spill
	st.d	$s6, $sp, 40                    # 8-byte Folded Spill
	st.d	$s7, $sp, 32                    # 8-byte Folded Spill
	st.d	$s8, $sp, 24                    # 8-byte Folded Spill
	.cfi_offset 1, -8
	.cfi_offset 22, -16
	.cfi_offset 23, -24
	.cfi_offset 24, -32
	.cfi_offset 25, -40
	.cfi_offset 26, -48
	.cfi_offset 27, -56
	.cfi_offset 28, -64
	.cfi_offset 29, -72
	.cfi_offset 30, -80
	.cfi_offset 31, -88
	pcalau12i	$s3, %pc_hi20(_ZGVZN9benchmark8internal18GetNullLogInstanceEvE8null_log)
	ld.b	$a4, $s3, %pc_lo12(_ZGVZN9benchmark8internal18GetNullLogInstanceEvE8null_log)
	move	$s1, $a3
	move	$s0, $a2
	move	$s2, $a1
	move	$fp, $a0
	dbar	20
	beqz	$a4, .LBB23_40
.LBB23_1:                               # %_ZN9benchmark8internal18GetNullLogInstanceEv.exit
	ld.b	$a0, $s3, %pc_lo12(_ZGVZN9benchmark8internal18GetNullLogInstanceEvE8null_log)
	dbar	20
	beqz	$a0, .LBB23_42
.LBB23_2:                               # %_ZN9benchmark8internal18GetNullLogInstanceEv.exit14
	ld.d	$a1, $fp, 8
	ld.d	$a0, $fp, 16
	beq	$a1, $a0, .LBB23_4
# %bb.3:                                # %if.then.i
	st.d	$s2, $a1, 0
	addi.d	$a1, $a1, 8
	st.d	$a1, $fp, 8
	bne	$s2, $s0, .LBB23_10
	b	.LBB23_39
.LBB23_4:                               # %if.else.i
	ld.d	$s3, $fp, 0
	sub.d	$s4, $a1, $s3
	addi.w	$a0, $zero, -8
	lu52i.d	$a0, $a0, 2047
	beq	$s4, $a0, .LBB23_44
# %bb.5:                                # %_ZNKSt6vectorIlSaIlEE12_M_check_lenEmPKc.exit.i.i
	srai.d	$a0, $s4, 3
	ori	$s7, $zero, 1
	sltu	$a1, $s7, $a0
	masknez	$a2, $s7, $a1
	maskeqz	$a1, $a0, $a1
	or	$a1, $a1, $a2
	add.d	$a0, $a1, $a0
	addi.w	$a1, $zero, -1
	lu52i.d	$a1, $a1, 255
	sltu	$a2, $a0, $a1
	maskeqz	$a0, $a0, $a2
	masknez	$a1, $a1, $a2
	or	$s6, $a0, $a1
	slli.d	$a0, $s6, 3
	pcaddu18i	$ra, %call36(_Znwm)
	jirl	$ra, $ra, 0
	move	$s5, $a0
	stx.d	$s2, $a0, $s4
	blt	$s4, $s7, .LBB23_7
# %bb.6:                                # %if.then.i.i.i.i.i
	move	$a0, $s5
	move	$a1, $s3
	move	$a2, $s4
	pcaddu18i	$ra, %call36(memcpy)
	jirl	$ra, $ra, 0
.LBB23_7:                               # %_ZNSt6vectorIlSaIlEE11_S_relocateEPlS2_S2_RS0_.exit.i.i
	add.d	$s7, $s5, $s4
	beqz	$s3, .LBB23_9
# %bb.8:                                # %_ZNSt12_Vector_baseIlSaIlEE13_M_deallocateEPlm.exit.i.i.i
	move	$a0, $s3
	move	$a1, $s4
	pcaddu18i	$ra, %call36(_ZdlPvm)
	jirl	$ra, $ra, 0
.LBB23_9:                               # %_ZNSt6vectorIlSaIlEE17_M_realloc_appendIJRKlEEEvDpOT_.exit.i
	addi.d	$a1, $s7, 8
	st.d	$s5, $fp, 0
	st.d	$a1, $fp, 8
	alsl.d	$a0, $s6, $s5, 3
	st.d	$a0, $fp, 16
	beq	$s2, $s0, .LBB23_39
.LBB23_10:                              # %if.end
	addi.d	$s3, $s2, 1
	bne	$s3, $s0, .LBB23_13
# %bb.11:                               # %if.then3
	beq	$a1, $a0, .LBB23_24
# %bb.12:                               # %if.then.i18
	st.d	$s0, $a1, 0
	addi.d	$a0, $a1, 8
	st.d	$a0, $fp, 8
	b	.LBB23_39
.LBB23_13:                              # %if.end4
	addi.d	$s4, $s0, -1
	addi.w	$a0, $zero, -2
	addi.w	$s7, $zero, -1
	blt	$a0, $s2, .LBB23_15
# %bb.14:                               # %if.then7
	slti	$a0, $s4, -1
	masknez	$a1, $s7, $a0
	maskeqz	$a0, $s4, $a0
	or	$a2, $a0, $a1
	move	$a0, $fp
	move	$a1, $s3
	move	$a3, $s1
	pcaddu18i	$ra, %call36(_ZN9benchmark8internal16AddNegatedPowersIlEEvPSt6vectorIT_SaIS3_EES3_S3_i)
	jirl	$ra, $ra, 0
.LBB23_15:                              # %if.end9
	blt	$s7, $s2, .LBB23_19
# %bb.16:                               # %if.end9
	bltz	$s0, .LBB23_19
# %bb.17:                               # %if.then12
	ld.d	$a0, $fp, 8
	ld.d	$a1, $fp, 16
	beq	$a0, $a1, .LBB23_26
# %bb.18:                               # %if.then.i.i
	st.d	$zero, $a0, 0
	addi.d	$a0, $a0, 8
	st.d	$a0, $fp, 8
.LBB23_19:                              # %if.end14
	ori	$a0, $zero, 2
	blt	$s0, $a0, .LBB23_21
.LBB23_20:                              # %if.then16
	ori	$a0, $zero, 1
	slt	$a1, $a0, $s3
	masknez	$a0, $a0, $a1
	maskeqz	$a1, $s3, $a1
	or	$a1, $a1, $a0
	move	$a0, $fp
	move	$a2, $s4
	move	$a3, $s1
	pcaddu18i	$ra, %call36(_ZN9benchmark8internal9AddPowersIlEENSt6vectorIT_SaIS3_EE8iteratorEPS5_S3_S3_i)
	jirl	$ra, $ra, 0
.LBB23_21:                              # %if.end20
	ld.d	$a0, $fp, 8
	ld.d	$a1, $a0, -8
	beq	$s0, $a1, .LBB23_39
# %bb.22:                               # %if.then23
	ld.d	$a1, $fp, 16
	beq	$a0, $a1, .LBB23_32
# %bb.23:                               # %if.then.i54
	st.d	$s0, $a0, 0
	addi.d	$a0, $a0, 8
	st.d	$a0, $fp, 8
	b	.LBB23_39
.LBB23_24:                              # %if.else.i20
	ld.d	$s1, $fp, 0
	sub.d	$s2, $a0, $s1
	addi.w	$a0, $zero, -8
	lu52i.d	$a0, $a0, 2047
	beq	$s2, $a0, .LBB23_44
# %bb.25:                               # %_ZNKSt6vectorIlSaIlEE12_M_check_lenEmPKc.exit.i.i27
	srai.d	$a0, $s2, 3
	ori	$s5, $zero, 1
	sltu	$a1, $s5, $a0
	masknez	$a2, $s5, $a1
	maskeqz	$a1, $a0, $a1
	or	$a1, $a1, $a2
	add.d	$a0, $a1, $a0
	addi.w	$a1, $zero, -1
	lu52i.d	$a1, $a1, 255
	b	.LBB23_34
.LBB23_26:                              # %if.else.i.i
	ld.d	$s2, $fp, 0
	sub.d	$s5, $a0, $s2
	addi.w	$a0, $zero, -8
	lu52i.d	$a0, $a0, 2047
	beq	$s5, $a0, .LBB23_44
# %bb.27:                               # %_ZNKSt6vectorIlSaIlEE12_M_check_lenEmPKc.exit.i.i.i
	srai.d	$a0, $s5, 3
	ori	$s8, $zero, 1
	sltu	$a1, $s8, $a0
	masknez	$a2, $s8, $a1
	maskeqz	$a1, $a0, $a1
	or	$a1, $a1, $a2
	add.d	$a0, $a1, $a0
	lu52i.d	$a1, $s7, 255
	sltu	$a2, $a0, $a1
	maskeqz	$a0, $a0, $a2
	masknez	$a1, $a1, $a2
	or	$a0, $a0, $a1
	st.d	$a0, $sp, 16                    # 8-byte Folded Spill
	slli.d	$a0, $a0, 3
	pcaddu18i	$ra, %call36(_Znwm)
	jirl	$ra, $ra, 0
	move	$s6, $a0
	stx.d	$zero, $a0, $s5
	blt	$s5, $s8, .LBB23_29
# %bb.28:                               # %if.then.i.i.i.i.i.i
	move	$a0, $s6
	move	$a1, $s2
	move	$a2, $s5
	pcaddu18i	$ra, %call36(memcpy)
	jirl	$ra, $ra, 0
.LBB23_29:                              # %_ZNSt6vectorIlSaIlEE11_S_relocateEPlS2_S2_RS0_.exit.i.i.i
	add.d	$s8, $s6, $s5
	beqz	$s2, .LBB23_31
# %bb.30:                               # %_ZNSt12_Vector_baseIlSaIlEE13_M_deallocateEPlm.exit.i.i.i.i
	move	$a0, $s2
	move	$a1, $s5
	pcaddu18i	$ra, %call36(_ZdlPvm)
	jirl	$ra, $ra, 0
.LBB23_31:                              # %_ZNSt6vectorIlSaIlEE17_M_realloc_appendIJlEEEvDpOT_.exit.i.i
	addi.d	$a0, $s8, 8
	st.d	$s6, $fp, 0
	st.d	$a0, $fp, 8
	ld.d	$a0, $sp, 16                    # 8-byte Folded Reload
	alsl.d	$a0, $a0, $s6, 3
	st.d	$a0, $fp, 16
	ori	$a0, $zero, 2
	bge	$s0, $a0, .LBB23_20
	b	.LBB23_21
.LBB23_32:                              # %if.else.i56
	ld.d	$s1, $fp, 0
	sub.d	$s2, $a0, $s1
	addi.w	$a0, $zero, -8
	lu52i.d	$a0, $a0, 2047
	beq	$s2, $a0, .LBB23_44
# %bb.33:                               # %_ZNKSt6vectorIlSaIlEE12_M_check_lenEmPKc.exit.i.i63
	srai.d	$a0, $s2, 3
	ori	$s5, $zero, 1
	sltu	$a1, $s5, $a0
	masknez	$a2, $s5, $a1
	maskeqz	$a1, $a0, $a1
	or	$a1, $a1, $a2
	add.d	$a0, $a1, $a0
	lu52i.d	$a1, $s7, 255
.LBB23_34:                              # %_ZNKSt6vectorIlSaIlEE12_M_check_lenEmPKc.exit.i.i63
	sltu	$a2, $a0, $a1
	maskeqz	$a0, $a0, $a2
	masknez	$a1, $a1, $a2
	or	$s4, $a0, $a1
	slli.d	$a0, $s4, 3
	pcaddu18i	$ra, %call36(_Znwm)
	jirl	$ra, $ra, 0
	move	$s3, $a0
	stx.d	$s0, $a0, $s2
	blt	$s2, $s5, .LBB23_36
# %bb.35:                               # %if.then.i.i.i.i.i77
	move	$a0, $s3
	move	$a1, $s1
	move	$a2, $s2
	pcaddu18i	$ra, %call36(memcpy)
	jirl	$ra, $ra, 0
.LBB23_36:                              # %_ZNSt6vectorIlSaIlEE11_S_relocateEPlS2_S2_RS0_.exit.i.i71
	add.d	$s0, $s3, $s2
	beqz	$s1, .LBB23_38
# %bb.37:                               # %_ZNSt12_Vector_baseIlSaIlEE13_M_deallocateEPlm.exit.i.i.i73
	move	$a0, $s1
	move	$a1, $s2
	pcaddu18i	$ra, %call36(_ZdlPvm)
	jirl	$ra, $ra, 0
.LBB23_38:                              # %_ZNSt6vectorIlSaIlEE17_M_realloc_appendIJRKlEEEvDpOT_.exit.i74
	addi.d	$a0, $s0, 8
	st.d	$s3, $fp, 0
	st.d	$a0, $fp, 8
	alsl.d	$a0, $s4, $s3, 3
	st.d	$a0, $fp, 16
.LBB23_39:                              # %return
	ld.d	$s8, $sp, 24                    # 8-byte Folded Reload
	ld.d	$s7, $sp, 32                    # 8-byte Folded Reload
	ld.d	$s6, $sp, 40                    # 8-byte Folded Reload
	ld.d	$s5, $sp, 48                    # 8-byte Folded Reload
	ld.d	$s4, $sp, 56                    # 8-byte Folded Reload
	ld.d	$s3, $sp, 64                    # 8-byte Folded Reload
	ld.d	$s2, $sp, 72                    # 8-byte Folded Reload
	ld.d	$s1, $sp, 80                    # 8-byte Folded Reload
	ld.d	$s0, $sp, 88                    # 8-byte Folded Reload
	ld.d	$fp, $sp, 96                    # 8-byte Folded Reload
	ld.d	$ra, $sp, 104                   # 8-byte Folded Reload
	addi.d	$sp, $sp, 112
	ret
.LBB23_40:                              # %init.check.i
	pcalau12i	$a0, %pc_hi20(_ZGVZN9benchmark8internal18GetNullLogInstanceEvE8null_log)
	addi.d	$a0, $a0, %pc_lo12(_ZGVZN9benchmark8internal18GetNullLogInstanceEvE8null_log)
	pcaddu18i	$ra, %call36(__cxa_guard_acquire)
	jirl	$ra, $ra, 0
	addi.w	$a0, $a0, 0
	beqz	$a0, .LBB23_1
# %bb.41:                               # %init.i
	pcalau12i	$a0, %pc_hi20(_ZZN9benchmark8internal18GetNullLogInstanceEvE8null_log)
	st.d	$zero, $a0, %pc_lo12(_ZZN9benchmark8internal18GetNullLogInstanceEvE8null_log)
	pcalau12i	$a0, %pc_hi20(_ZGVZN9benchmark8internal18GetNullLogInstanceEvE8null_log)
	addi.d	$a0, $a0, %pc_lo12(_ZGVZN9benchmark8internal18GetNullLogInstanceEvE8null_log)
	pcaddu18i	$ra, %call36(__cxa_guard_release)
	jirl	$ra, $ra, 0
	b	.LBB23_1
.LBB23_42:                              # %init.check.i11
	pcalau12i	$a0, %pc_hi20(_ZGVZN9benchmark8internal18GetNullLogInstanceEvE8null_log)
	addi.d	$a0, $a0, %pc_lo12(_ZGVZN9benchmark8internal18GetNullLogInstanceEvE8null_log)
	pcaddu18i	$ra, %call36(__cxa_guard_acquire)
	jirl	$ra, $ra, 0
	addi.w	$a0, $a0, 0
	beqz	$a0, .LBB23_2
# %bb.43:                               # %init.i13
	pcalau12i	$a0, %pc_hi20(_ZZN9benchmark8internal18GetNullLogInstanceEvE8null_log)
	st.d	$zero, $a0, %pc_lo12(_ZZN9benchmark8internal18GetNullLogInstanceEvE8null_log)
	pcalau12i	$a0, %pc_hi20(_ZGVZN9benchmark8internal18GetNullLogInstanceEvE8null_log)
	addi.d	$a0, $a0, %pc_lo12(_ZGVZN9benchmark8internal18GetNullLogInstanceEvE8null_log)
	pcaddu18i	$ra, %call36(__cxa_guard_release)
	jirl	$ra, $ra, 0
	b	.LBB23_2
.LBB23_44:                              # %if.then.i.i.i
	pcalau12i	$a0, %pc_hi20(.L.str.23)
	addi.d	$a0, $a0, %pc_lo12(.L.str.23)
	pcaddu18i	$ra, %call36(_ZSt20__throw_length_errorPKc)
	jirl	$ra, $ra, 0
.Lfunc_end23:
	.size	_ZN9benchmark8internal8AddRangeIlEEvPSt6vectorIT_SaIS3_EES3_S3_i, .Lfunc_end23-_ZN9benchmark8internal8AddRangeIlEEvPSt6vectorIT_SaIS3_EES3_S3_i
	.cfi_endproc
                                        # -- End function
	.text
	.hidden	_ZN9benchmark8internal9Benchmark6RangesERKSt6vectorISt4pairIllESaIS4_EE # -- Begin function _ZN9benchmark8internal9Benchmark6RangesERKSt6vectorISt4pairIllESaIS4_EE
	.globl	_ZN9benchmark8internal9Benchmark6RangesERKSt6vectorISt4pairIllESaIS4_EE
	.p2align	2
	.type	_ZN9benchmark8internal9Benchmark6RangesERKSt6vectorISt4pairIllESaIS4_EE,@function
_ZN9benchmark8internal9Benchmark6RangesERKSt6vectorISt4pairIllESaIS4_EE: # @_ZN9benchmark8internal9Benchmark6RangesERKSt6vectorISt4pairIllESaIS4_EE
.Lfunc_begin9:
	.cfi_startproc
	.cfi_personality 155, DW.ref.__gxx_personality_v0
	.cfi_lsda 27, .Lexception9
# %bb.0:                                # %entry
	addi.d	$sp, $sp, -112
	.cfi_def_cfa_offset 112
	st.d	$ra, $sp, 104                   # 8-byte Folded Spill
	st.d	$fp, $sp, 96                    # 8-byte Folded Spill
	st.d	$s0, $sp, 88                    # 8-byte Folded Spill
	st.d	$s1, $sp, 80                    # 8-byte Folded Spill
	st.d	$s2, $sp, 72                    # 8-byte Folded Spill
	st.d	$s3, $sp, 64                    # 8-byte Folded Spill
	st.d	$s4, $sp, 56                    # 8-byte Folded Spill
	st.d	$s5, $sp, 48                    # 8-byte Folded Spill
	st.d	$s6, $sp, 40                    # 8-byte Folded Spill
	.cfi_offset 1, -8
	.cfi_offset 22, -16
	.cfi_offset 23, -24
	.cfi_offset 24, -32
	.cfi_offset 25, -40
	.cfi_offset 26, -48
	.cfi_offset 27, -56
	.cfi_offset 28, -64
	.cfi_offset 29, -72
	pcalau12i	$a2, %pc_hi20(_ZGVZN9benchmark8internal18GetNullLogInstanceEvE8null_log)
	ld.b	$a2, $a2, %pc_lo12(_ZGVZN9benchmark8internal18GetNullLogInstanceEvE8null_log)
	move	$s1, $a1
	move	$fp, $a0
	dbar	20
	beqz	$a2, .LBB24_17
.LBB24_1:                               # %_ZN9benchmark8internal18GetNullLogInstanceEv.exit
	ld.d	$a1, $s1, 8
	ld.d	$s4, $s1, 0
	sub.d	$a0, $a1, $s4
	srai.d	$a0, $a0, 4
	lu12i.w	$a2, 349525
	ori	$a2, $a2, 1366
	lu32i.d	$a2, 349525
	lu52i.d	$a2, $a2, 85
	bgeu	$a0, $a2, .LBB24_19
# %bb.2:                                # %_ZNSt6vectorIS_IlSaIlEESaIS1_EE17_S_check_init_lenEmRKS2_.exit.i
	beq	$a1, $s4, .LBB24_7
# %bb.3:                                # %for.body.lr.ph
	slli.d	$a1, $a0, 4
	alsl.d	$s2, $a0, $a1, 3
	move	$a0, $s2
	pcaddu18i	$ra, %call36(_Znwm)
	jirl	$ra, $ra, 0
	move	$s0, $a0
	st.d	$a0, $sp, 16
	add.d	$s3, $a0, $s2
	move	$a1, $zero
	move	$a2, $s2
	pcaddu18i	$ra, %call36(memset)
	jirl	$ra, $ra, 0
	move	$s5, $zero
	move	$s6, $zero
	st.d	$s3, $sp, 32
	st.d	$s3, $sp, 24
	move	$s2, $s0
	.p2align	4, , 16
.LBB24_4:                               # %for.body
                                        # =>This Inner Loop Header: Depth=1
	add.d	$a0, $s4, $s5
	ldx.d	$a1, $s4, $s5
	ld.d	$a2, $a0, 8
	ld.w	$a3, $fp, 104
.Ltmp120:                               # EH_LABEL
	move	$a0, $s2
	pcaddu18i	$ra, %call36(_ZN9benchmark8internal8AddRangeIlEEvPSt6vectorIT_SaIS3_EES3_S3_i)
	jirl	$ra, $ra, 0
.Ltmp121:                               # EH_LABEL
# %bb.5:                                # %for.inc
                                        #   in Loop: Header=BB24_4 Depth=1
	ld.d	$a0, $s1, 8
	ld.d	$s4, $s1, 0
	addi.d	$s6, $s6, 1
	sub.d	$a0, $a0, $s4
	srai.d	$a0, $a0, 4
	addi.d	$s2, $s2, 24
	addi.d	$s5, $s5, 16
	bltu	$s6, $a0, .LBB24_4
# %bb.6:                                # %for.cond.cleanup.loopexit
	move	$s1, $s3
	b	.LBB24_8
.LBB24_7:                               # %invoke.cont.thread
	move	$s3, $zero
	move	$s1, $zero
	move	$s0, $zero
	st.d	$zero, $sp, 32
	vrepli.b	$vr0, 0
	vst	$vr0, $sp, 16
.LBB24_8:                               # %for.cond.cleanup
.Ltmp123:                               # EH_LABEL
	addi.d	$a1, $sp, 16
	move	$a0, $fp
	pcaddu18i	$ra, %call36(_ZN9benchmark8internal9Benchmark11ArgsProductERKSt6vectorIS2_IlSaIlEESaIS4_EE)
	jirl	$ra, $ra, 0
.Ltmp124:                               # EH_LABEL
# %bb.9:                                # %invoke.cont10
	beq	$s0, $s3, .LBB24_14
# %bb.10:                               # %for.body.i.i.preheader
	move	$s2, $s0
	b	.LBB24_12
	.p2align	4, , 16
.LBB24_11:                              # %_ZSt8_DestroyISt6vectorIlSaIlEEEvPT_.exit.i.i
                                        #   in Loop: Header=BB24_12 Depth=1
	addi.d	$s2, $s2, 24
	beq	$s2, $s3, .LBB24_14
.LBB24_12:                              # %for.body.i.i
                                        # =>This Inner Loop Header: Depth=1
	ld.d	$a0, $s2, 0
	beqz	$a0, .LBB24_11
# %bb.13:                               # %if.then.i.i.i.i.i.i
                                        #   in Loop: Header=BB24_12 Depth=1
	ld.d	$a1, $s2, 16
	sub.d	$a1, $a1, $a0
	pcaddu18i	$ra, %call36(_ZdlPvm)
	jirl	$ra, $ra, 0
	b	.LBB24_11
.LBB24_14:                              # %invoke.cont.i
	beqz	$s0, .LBB24_16
# %bb.15:                               # %if.then.i.i.i
	sub.d	$a1, $s1, $s0
	move	$a0, $s0
	pcaddu18i	$ra, %call36(_ZdlPvm)
	jirl	$ra, $ra, 0
.LBB24_16:                              # %_ZNSt6vectorIS_IlSaIlEESaIS1_EED2Ev.exit
	move	$a0, $fp
	ld.d	$s6, $sp, 40                    # 8-byte Folded Reload
	ld.d	$s5, $sp, 48                    # 8-byte Folded Reload
	ld.d	$s4, $sp, 56                    # 8-byte Folded Reload
	ld.d	$s3, $sp, 64                    # 8-byte Folded Reload
	ld.d	$s2, $sp, 72                    # 8-byte Folded Reload
	ld.d	$s1, $sp, 80                    # 8-byte Folded Reload
	ld.d	$s0, $sp, 88                    # 8-byte Folded Reload
	ld.d	$fp, $sp, 96                    # 8-byte Folded Reload
	ld.d	$ra, $sp, 104                   # 8-byte Folded Reload
	addi.d	$sp, $sp, 112
	ret
.LBB24_17:                              # %init.check.i
	pcalau12i	$a0, %pc_hi20(_ZGVZN9benchmark8internal18GetNullLogInstanceEvE8null_log)
	addi.d	$a0, $a0, %pc_lo12(_ZGVZN9benchmark8internal18GetNullLogInstanceEvE8null_log)
	pcaddu18i	$ra, %call36(__cxa_guard_acquire)
	jirl	$ra, $ra, 0
	addi.w	$a0, $a0, 0
	beqz	$a0, .LBB24_1
# %bb.18:                               # %init.i
	pcalau12i	$a0, %pc_hi20(_ZZN9benchmark8internal18GetNullLogInstanceEvE8null_log)
	st.d	$zero, $a0, %pc_lo12(_ZZN9benchmark8internal18GetNullLogInstanceEvE8null_log)
	pcalau12i	$a0, %pc_hi20(_ZGVZN9benchmark8internal18GetNullLogInstanceEvE8null_log)
	addi.d	$a0, $a0, %pc_lo12(_ZGVZN9benchmark8internal18GetNullLogInstanceEvE8null_log)
	pcaddu18i	$ra, %call36(__cxa_guard_release)
	jirl	$ra, $ra, 0
	b	.LBB24_1
.LBB24_19:                              # %if.then.i.i
	pcalau12i	$a0, %pc_hi20(.L.str.178)
	addi.d	$a0, $a0, %pc_lo12(.L.str.178)
	pcaddu18i	$ra, %call36(_ZSt20__throw_length_errorPKc)
	jirl	$ra, $ra, 0
.LBB24_20:                              # %lpad9
.Ltmp125:                               # EH_LABEL
	b	.LBB24_22
.LBB24_21:                              # %lpad7
.Ltmp122:                               # EH_LABEL
.LBB24_22:                              # %ehcleanup
	move	$fp, $a0
	addi.d	$a0, $sp, 16
	pcaddu18i	$ra, %call36(_ZNSt6vectorIS_IlSaIlEESaIS1_EED2Ev)
	jirl	$ra, $ra, 0
	move	$a0, $fp
	pcaddu18i	$ra, %call36(_Unwind_Resume)
	jirl	$ra, $ra, 0
.Lfunc_end24:
	.size	_ZN9benchmark8internal9Benchmark6RangesERKSt6vectorISt4pairIllESaIS4_EE, .Lfunc_end24-_ZN9benchmark8internal9Benchmark6RangesERKSt6vectorISt4pairIllESaIS4_EE
	.cfi_endproc
	.section	.gcc_except_table,"a",@progbits
	.p2align	2, 0x0
GCC_except_table24:
.Lexception9:
	.byte	255                             # @LPStart Encoding = omit
	.byte	255                             # @TType Encoding = omit
	.byte	1                               # Call site Encoding = uleb128
	.uleb128 .Lcst_end9-.Lcst_begin9
.Lcst_begin9:
	.uleb128 .Lfunc_begin9-.Lfunc_begin9    # >> Call Site 1 <<
	.uleb128 .Ltmp120-.Lfunc_begin9         #   Call between .Lfunc_begin9 and .Ltmp120
	.byte	0                               #     has no landing pad
	.byte	0                               #   On action: cleanup
	.uleb128 .Ltmp120-.Lfunc_begin9         # >> Call Site 2 <<
	.uleb128 .Ltmp121-.Ltmp120              #   Call between .Ltmp120 and .Ltmp121
	.uleb128 .Ltmp122-.Lfunc_begin9         #     jumps to .Ltmp122
	.byte	0                               #   On action: cleanup
	.uleb128 .Ltmp123-.Lfunc_begin9         # >> Call Site 3 <<
	.uleb128 .Ltmp124-.Ltmp123              #   Call between .Ltmp123 and .Ltmp124
	.uleb128 .Ltmp125-.Lfunc_begin9         #     jumps to .Ltmp125
	.byte	0                               #   On action: cleanup
	.uleb128 .Ltmp124-.Lfunc_begin9         # >> Call Site 4 <<
	.uleb128 .Lfunc_end24-.Ltmp124          #   Call between .Ltmp124 and .Lfunc_end24
	.byte	0                               #     has no landing pad
	.byte	0                               #   On action: cleanup
.Lcst_end9:
	.p2align	2, 0x0
                                        # -- End function
	.section	.rodata.cst32,"aM",@progbits,32
	.p2align	5, 0x0                          # -- Begin function _ZN9benchmark8internal9Benchmark11ArgsProductERKSt6vectorIS2_IlSaIlEESaIS4_EE
.LCPI25_0:
	.dword	0                               # 0x0
	.dword	1                               # 0x1
	.dword	0                               # 0x0
	.dword	0                               # 0x0
	.text
	.hidden	_ZN9benchmark8internal9Benchmark11ArgsProductERKSt6vectorIS2_IlSaIlEESaIS4_EE
	.globl	_ZN9benchmark8internal9Benchmark11ArgsProductERKSt6vectorIS2_IlSaIlEESaIS4_EE
	.p2align	2
	.type	_ZN9benchmark8internal9Benchmark11ArgsProductERKSt6vectorIS2_IlSaIlEESaIS4_EE,@function
_ZN9benchmark8internal9Benchmark11ArgsProductERKSt6vectorIS2_IlSaIlEESaIS4_EE: # @_ZN9benchmark8internal9Benchmark11ArgsProductERKSt6vectorIS2_IlSaIlEESaIS4_EE
.Lfunc_begin10:
	.cfi_startproc
	.cfi_personality 155, DW.ref.__gxx_personality_v0
	.cfi_lsda 27, .Lexception10
# %bb.0:                                # %entry
	addi.d	$sp, $sp, -208
	.cfi_def_cfa_offset 208
	st.d	$ra, $sp, 200                   # 8-byte Folded Spill
	st.d	$fp, $sp, 192                   # 8-byte Folded Spill
	st.d	$s0, $sp, 184                   # 8-byte Folded Spill
	st.d	$s1, $sp, 176                   # 8-byte Folded Spill
	st.d	$s2, $sp, 168                   # 8-byte Folded Spill
	st.d	$s3, $sp, 160                   # 8-byte Folded Spill
	st.d	$s4, $sp, 152                   # 8-byte Folded Spill
	st.d	$s5, $sp, 144                   # 8-byte Folded Spill
	st.d	$s6, $sp, 136                   # 8-byte Folded Spill
	st.d	$s7, $sp, 128                   # 8-byte Folded Spill
	st.d	$s8, $sp, 120                   # 8-byte Folded Spill
	.cfi_offset 1, -8
	.cfi_offset 22, -16
	.cfi_offset 23, -24
	.cfi_offset 24, -32
	.cfi_offset 25, -40
	.cfi_offset 26, -48
	.cfi_offset 27, -56
	.cfi_offset 28, -64
	.cfi_offset 29, -72
	.cfi_offset 30, -80
	.cfi_offset 31, -88
	pcalau12i	$a2, %pc_hi20(_ZGVZN9benchmark8internal18GetNullLogInstanceEvE8null_log)
	ld.b	$a2, $a2, %pc_lo12(_ZGVZN9benchmark8internal18GetNullLogInstanceEvE8null_log)
	move	$s6, $a1
	st.d	$a0, $sp, 64                    # 8-byte Folded Spill
	dbar	20
	beqz	$a2, .LBB25_48
.LBB25_1:                               # %_ZN9benchmark8internal18GetNullLogInstanceEv.exit
	ld.d	$s5, $s6, 8
	ld.d	$s7, $s6, 0
	lu12i.w	$a0, -349526
	ori	$a0, $a0, 2731
	lu32i.d	$a0, -349526
	lu52i.d	$s0, $a0, -1366
	vrepli.b	$vr0, 0
	st.d	$s0, $sp, 88                    # 8-byte Folded Spill
	vst	$vr0, $sp, 32                   # 16-byte Folded Spill
	beq	$s5, $s7, .LBB25_11
# %bb.2:                                # %if.then.i.i.i.i3.i
	sub.d	$fp, $s5, $s7
	srli.d	$a0, $fp, 3
	mul.d	$s0, $a0, $s0
	slli.d	$s2, $s0, 3
	move	$a0, $s2
	pcaddu18i	$ra, %call36(_Znwm)
	jirl	$ra, $ra, 0
	ori	$a1, $zero, 24
	move	$s1, $a0
	st.d	$zero, $a0, 0
	beq	$fp, $a1, .LBB25_4
# %bb.3:                                # %if.end.i.i.i.i.i.i
	addi.d	$a0, $s1, 8
	addi.d	$a2, $s2, -8
	move	$a1, $zero
	pcaddu18i	$ra, %call36(memset)
	jirl	$ra, $ra, 0
.LBB25_4:                               # %for.body.i.preheader
	addi.d	$a1, $fp, -24
	ori	$a2, $zero, 168
	ori	$s8, $zero, 1
	move	$a0, $s7
	bltu	$a1, $a2, .LBB25_8
# %bb.5:                                # %vector.ph
	ld.d	$a0, $sp, 88                    # 8-byte Folded Reload
	mulh.du	$a0, $a1, $a0
	srli.d	$a0, $a0, 4
	addi.d	$a1, $a0, 1
	bstrpick.d	$a0, $a1, 60, 3
	slli.d	$a2, $a0, 3
	slli.d	$a3, $a0, 6
	slli.d	$a0, $a0, 7
	add.d	$a0, $a0, $a3
	add.d	$a0, $s7, $a0
	xvrepli.d	$xr0, 1
	addi.d	$a3, $s7, 96
	move	$a4, $a2
	xvori.b	$xr1, $xr0, 0
	.p2align	4, , 16
.LBB25_6:                               # %vector.body
                                        # =>This Inner Loop Header: Depth=1
	ld.d	$a5, $a3, -48
	ld.d	$a6, $a3, -24
	ld.d	$a7, $a3, -96
	ld.d	$t0, $a3, -72
	vinsgr2vr.d	$vr2, $a5, 0
	vinsgr2vr.d	$vr2, $a6, 1
	vinsgr2vr.d	$vr3, $a7, 0
	vinsgr2vr.d	$vr3, $t0, 1
	xvpermi.q	$xr3, $xr2, 2
	ld.d	$a5, $a3, 48
	ld.d	$a6, $a3, 72
	ld.d	$a7, $a3, 0
	ld.d	$t0, $a3, 24
	vinsgr2vr.d	$vr2, $a5, 0
	vinsgr2vr.d	$vr2, $a6, 1
	vinsgr2vr.d	$vr4, $a7, 0
	vinsgr2vr.d	$vr4, $t0, 1
	xvpermi.q	$xr4, $xr2, 2
	ld.d	$a5, $a3, -40
	ld.d	$a6, $a3, -16
	ld.d	$a7, $a3, -88
	ld.d	$t0, $a3, -64
	vinsgr2vr.d	$vr2, $a5, 0
	vinsgr2vr.d	$vr2, $a6, 1
	vinsgr2vr.d	$vr5, $a7, 0
	vinsgr2vr.d	$vr5, $t0, 1
	xvpermi.q	$xr5, $xr2, 2
	ld.d	$a5, $a3, 56
	ld.d	$a6, $a3, 80
	ld.d	$a7, $a3, 8
	ld.d	$t0, $a3, 32
	vinsgr2vr.d	$vr2, $a5, 0
	vinsgr2vr.d	$vr2, $a6, 1
	vinsgr2vr.d	$vr6, $a7, 0
	vinsgr2vr.d	$vr6, $t0, 1
	xvpermi.q	$xr6, $xr2, 2
	xvsub.d	$xr2, $xr5, $xr3
	xvsub.d	$xr3, $xr6, $xr4
	xvsrai.d	$xr2, $xr2, 3
	xvsrai.d	$xr3, $xr3, 3
	xvmul.d	$xr0, $xr2, $xr0
	xvmul.d	$xr1, $xr3, $xr1
	addi.d	$a4, $a4, -8
	addi.d	$a3, $a3, 192
	bnez	$a4, .LBB25_6
# %bb.7:                                # %middle.block
	pcalau12i	$a3, %pc_hi20(.LCPI25_0)
	xvld	$xr2, $a3, %pc_lo12(.LCPI25_0)
	xvmul.d	$xr0, $xr1, $xr0
	xvpermi.d	$xr1, $xr0, 78
	xvshuf.d	$xr2, $xr0, $xr1
	xvmul.d	$xr0, $xr0, $xr2
	xvpermi.d	$xr1, $xr0, 68
	xvrepl128vei.d	$xr1, $xr1, 1
	xvmul.d	$xr0, $xr0, $xr1
	xvpickve2gr.d	$s8, $xr0, 0
	beq	$a1, $a2, .LBB25_9
	.p2align	4, , 16
.LBB25_8:                               # %for.body.i
                                        # =>This Inner Loop Header: Depth=1
	ld.d	$a1, $a0, 0
	ld.d	$a2, $a0, 8
	sub.d	$a1, $a2, $a1
	srai.d	$a1, $a1, 3
	addi.d	$a0, $a0, 24
	mul.d	$s8, $a1, $s8
	bne	$a0, $s5, .LBB25_8
.LBB25_9:                               # %_ZNSt12_Vector_baseIlSaIlEE11_M_allocateEm.exit.i
	alsl.d	$a0, $s0, $s1, 3
	st.d	$a0, $sp, 16                    # 8-byte Folded Spill
	st.d	$zero, $sp, 112
	vld	$vr0, $sp, 32                   # 16-byte Folded Reload
	vst	$vr0, $sp, 96
.Ltmp126:                               # EH_LABEL
	move	$a0, $s2
	pcaddu18i	$ra, %call36(_Znwm)
	jirl	$ra, $ra, 0
.Ltmp127:                               # EH_LABEL
# %bb.10:                               # %_ZNSt6vectorIlSaIlEE7reserveEm.exit
	move	$s3, $a0
	st.d	$a0, $sp, 96
	st.d	$a0, $sp, 104
	alsl.d	$a0, $s0, $a0, 3
	st.d	$a0, $sp, 112
	ld.d	$s0, $sp, 88                    # 8-byte Folded Reload
	move	$fp, $s1
	bnez	$s8, .LBB25_12
	b	.LBB25_42
.LBB25_11:                              # %_ZNSt6vectorIlSaIlEE7reserveEm.exit.thread
	move	$s3, $zero
	move	$fp, $zero
	st.d	$zero, $sp, 16                  # 8-byte Folded Spill
	st.d	$zero, $sp, 112
	vst	$vr0, $sp, 96
	ori	$s8, $zero, 1
.LBB25_12:                              # %for.cond19.preheader.lr.ph
	move	$a1, $zero
	ld.d	$a0, $sp, 64                    # 8-byte Folded Reload
	addi.d	$a0, $a0, 72
	st.d	$a0, $sp, 24                    # 8-byte Folded Spill
	move	$a0, $s3
	st.d	$s6, $sp, 80                    # 8-byte Folded Spill
	st.d	$s8, $sp, 48                    # 8-byte Folded Spill
	st.d	$fp, $sp, 56                    # 8-byte Folded Spill
	ori	$s1, $zero, 1
	b	.LBB25_14
	.p2align	4, , 16
.LBB25_13:                              # %do.end
                                        #   in Loop: Header=BB25_14 Depth=1
	ld.d	$a1, $sp, 72                    # 8-byte Folded Reload
	addi.d	$a1, $a1, 1
	beq	$a1, $s8, .LBB25_41
.LBB25_14:                              # %for.cond19.preheader
                                        # =>This Loop Header: Depth=1
                                        #     Child Loop BB25_18 Depth 2
                                        #     Child Loop BB25_39 Depth 2
	st.d	$a1, $sp, 72                    # 8-byte Folded Spill
	beq	$s5, $s7, .LBB25_26
# %bb.15:                               # %for.body23.preheader
                                        #   in Loop: Header=BB25_14 Depth=1
	ld.d	$a1, $sp, 112
	move	$s8, $zero
	move	$s2, $zero
	ld.d	$fp, $sp, 56                    # 8-byte Folded Reload
	b	.LBB25_18
	.p2align	4, , 16
.LBB25_16:                              # %if.then.i61
                                        #   in Loop: Header=BB25_18 Depth=2
	ld.d	$a2, $s0, 0
	st.d	$a2, $a0, 0
	addi.d	$a0, $a0, 8
	st.d	$a0, $sp, 104
	move	$s4, $s3
.LBB25_17:                              # %for.inc
                                        #   in Loop: Header=BB25_18 Depth=2
	addi.d	$s2, $s2, 1
	sub.d	$a2, $s5, $s7
	srli.d	$a2, $a2, 3
	ld.d	$s0, $sp, 88                    # 8-byte Folded Reload
	mul.d	$a2, $a2, $s0
	addi.d	$s8, $s8, 24
	addi.d	$fp, $fp, 8
	bgeu	$s2, $a2, .LBB25_27
.LBB25_18:                              # %for.body23
                                        #   Parent Loop BB25_14 Depth=1
                                        # =>  This Inner Loop Header: Depth=2
	ld.d	$a2, $fp, 0
	ldx.d	$a3, $s7, $s8
	alsl.d	$s0, $a2, $a3, 3
	bne	$a0, $a1, .LBB25_16
# %bb.19:                               # %if.else.i63
                                        #   in Loop: Header=BB25_18 Depth=2
	sub.d	$s5, $a1, $s3
	addi.w	$a0, $zero, -8
	lu52i.d	$a0, $a0, 2047
	beq	$s5, $a0, .LBB25_46
# %bb.20:                               # %_ZNKSt6vectorIlSaIlEE12_M_check_lenEmPKc.exit.i.i
                                        #   in Loop: Header=BB25_18 Depth=2
	srai.d	$a0, $s5, 3
	sltu	$a1, $s1, $a0
	masknez	$a2, $s1, $a1
	maskeqz	$a1, $a0, $a1
	or	$a1, $a1, $a2
	add.d	$a0, $a1, $a0
	addi.w	$a1, $zero, -1
	lu52i.d	$a1, $a1, 255
	sltu	$a2, $a0, $a1
	maskeqz	$a0, $a0, $a2
	masknez	$a1, $a1, $a2
	or	$s6, $a0, $a1
	slli.d	$a0, $s6, 3
.Ltmp129:                               # EH_LABEL
	pcaddu18i	$ra, %call36(_Znwm)
	jirl	$ra, $ra, 0
.Ltmp130:                               # EH_LABEL
# %bb.21:                               # %call5.i.i.i.i.noexc
                                        #   in Loop: Header=BB25_18 Depth=2
	move	$s4, $a0
	ld.d	$a0, $s0, 0
	stx.d	$a0, $s4, $s5
	blt	$s5, $s1, .LBB25_23
# %bb.22:                               # %if.then.i.i.i.i.i
                                        #   in Loop: Header=BB25_18 Depth=2
	move	$a0, $s4
	move	$a1, $s3
	move	$a2, $s5
	pcaddu18i	$ra, %call36(memcpy)
	jirl	$ra, $ra, 0
.LBB25_23:                              # %_ZNSt6vectorIlSaIlEE11_S_relocateEPlS2_S2_RS0_.exit.i.i
                                        #   in Loop: Header=BB25_18 Depth=2
	ld.d	$s0, $sp, 80                    # 8-byte Folded Reload
	beqz	$s3, .LBB25_25
# %bb.24:                               # %_ZNSt12_Vector_baseIlSaIlEE13_M_deallocateEPlm.exit.i.i.i
                                        #   in Loop: Header=BB25_18 Depth=2
	move	$a0, $s3
	move	$a1, $s5
	pcaddu18i	$ra, %call36(_ZdlPvm)
	jirl	$ra, $ra, 0
	ld.d	$s7, $s0, 0
.LBB25_25:                              # %_ZNSt6vectorIlSaIlEE17_M_realloc_appendIJRKlEEEvDpOT_.exit.i
                                        #   in Loop: Header=BB25_18 Depth=2
	add.d	$a0, $s4, $s5
	addi.d	$a0, $a0, 8
	st.d	$s4, $sp, 96
	ld.d	$s5, $s0, 8
	st.d	$a0, $sp, 104
	alsl.d	$a1, $s6, $s4, 3
	st.d	$a1, $sp, 112
	move	$s3, $s4
	b	.LBB25_17
	.p2align	4, , 16
.LBB25_26:                              #   in Loop: Header=BB25_14 Depth=1
	move	$s4, $s3
.LBB25_27:                              # %for.cond.cleanup22
                                        #   in Loop: Header=BB25_14 Depth=1
	ld.d	$a1, $sp, 64                    # 8-byte Folded Reload
	ld.d	$fp, $a1, 80
	ld.d	$a1, $a1, 88
	beq	$fp, $a1, .LBB25_31
# %bb.28:                               # %if.then.i
                                        #   in Loop: Header=BB25_14 Depth=1
	sub.d	$s5, $a0, $s4
	st.d	$zero, $fp, 16
	vld	$vr0, $sp, 32                   # 16-byte Folded Reload
	vst	$vr0, $fp, 0
	ld.d	$s6, $sp, 80                    # 8-byte Folded Reload
	ld.d	$s8, $sp, 48                    # 8-byte Folded Reload
	ori	$s2, $zero, 1
	beq	$a0, $s4, .LBB25_33
# %bb.29:                               # %_ZNSt15__new_allocatorIlE8allocateEmPKv.exit.i.i.i.i.i
                                        #   in Loop: Header=BB25_14 Depth=1
.Ltmp135:                               # EH_LABEL
	move	$a0, $s5
	pcaddu18i	$ra, %call36(_Znwm)
	jirl	$ra, $ra, 0
.Ltmp136:                               # EH_LABEL
# %bb.30:                               #   in Loop: Header=BB25_14 Depth=1
	move	$s4, $a0
	b	.LBB25_34
	.p2align	4, , 16
.LBB25_31:                              # %if.else.i
                                        #   in Loop: Header=BB25_14 Depth=1
.Ltmp137:                               # EH_LABEL
	addi.d	$a1, $sp, 96
	ld.d	$a0, $sp, 24                    # 8-byte Folded Reload
	pcaddu18i	$ra, %call36(_ZNSt6vectorIS_IlSaIlEESaIS1_EE17_M_realloc_appendIJRKS1_EEEvDpOT_)
	jirl	$ra, $ra, 0
.Ltmp138:                               # EH_LABEL
	ld.d	$s6, $sp, 80                    # 8-byte Folded Reload
	ld.d	$s8, $sp, 48                    # 8-byte Folded Reload
	ori	$s2, $zero, 1
# %bb.32:                               # %if.else.i.invoke.cont30_crit_edge
                                        #   in Loop: Header=BB25_14 Depth=1
	ld.d	$s3, $sp, 96
	ld.d	$a0, $sp, 104
	bne	$a0, $s3, .LBB25_37
	b	.LBB25_38
	.p2align	4, , 16
.LBB25_33:                              #   in Loop: Header=BB25_14 Depth=1
	move	$s4, $zero
.LBB25_34:                              # %invoke.cont.i.i
                                        #   in Loop: Header=BB25_14 Depth=1
	st.d	$s4, $fp, 0
	st.d	$s4, $fp, 8
	ld.d	$s3, $sp, 96
	ld.d	$a0, $sp, 104
	add.d	$a1, $s4, $s5
	sub.d	$s5, $a0, $s3
	st.d	$a1, $fp, 16
	blt	$s5, $s2, .LBB25_36
# %bb.35:                               # %if.then.i.i.i.i53
                                        #   in Loop: Header=BB25_14 Depth=1
	move	$a0, $s4
	move	$a1, $s3
	move	$a2, $s5
	pcaddu18i	$ra, %call36(memcpy)
	jirl	$ra, $ra, 0
	add.d	$s4, $s4, $s5
.LBB25_36:                              # %_ZNSt6vectorIlSaIlEEC2ERKS1_.exit.i
                                        #   in Loop: Header=BB25_14 Depth=1
	ld.d	$a1, $sp, 64                    # 8-byte Folded Reload
	ld.d	$a0, $a1, 80
	st.d	$s4, $fp, 8
	addi.d	$a0, $a0, 24
	st.d	$a0, $a1, 80
	ld.d	$a0, $sp, 104
	beq	$a0, $s3, .LBB25_38
.LBB25_37:                              # %invoke.cont.i.i73
                                        #   in Loop: Header=BB25_14 Depth=1
	st.d	$s3, $sp, 104
	move	$a0, $s3
.LBB25_38:                              # %_ZNSt6vectorIlSaIlEE5clearEv.exit
                                        #   in Loop: Header=BB25_14 Depth=1
	ld.d	$s7, $s6, 0
	ld.d	$s5, $s6, 8
	move	$a1, $zero
	sub.d	$a2, $s5, $s7
	mulh.du	$a2, $a2, $s0
	srli.d	$a2, $a2, 4
	sltu	$a3, $s2, $a2
	maskeqz	$a2, $a2, $a3
	masknez	$a3, $s2, $a3
	or	$a3, $a2, $a3
	addi.d	$a2, $s7, 8
	slli.d	$a3, $a3, 3
	ld.d	$fp, $sp, 56                    # 8-byte Folded Reload
	.p2align	4, , 16
.LBB25_39:                              # %do.body
                                        #   Parent Loop BB25_14 Depth=1
                                        # =>  This Inner Loop Header: Depth=2
	ldx.d	$a4, $fp, $a1
	ld.d	$a5, $a2, 0
	ld.d	$a6, $a2, -8
	addi.d	$a4, $a4, 1
	sub.d	$a5, $a5, $a6
	srai.d	$a5, $a5, 3
	mod.du	$a4, $a4, $a5
	stx.d	$a4, $fp, $a1
	bnez	$a4, .LBB25_13
# %bb.40:                               # %land.rhs
                                        #   in Loop: Header=BB25_39 Depth=2
	addi.d	$a1, $a1, 8
	addi.d	$a2, $a2, 24
	bne	$a3, $a1, .LBB25_39
	b	.LBB25_13
.LBB25_41:                              # %for.cond.cleanup
	beqz	$s3, .LBB25_43
.LBB25_42:                              # %if.then.i.i.i
	ld.d	$a0, $sp, 112
	sub.d	$a1, $a0, $s3
	move	$a0, $s3
	pcaddu18i	$ra, %call36(_ZdlPvm)
	jirl	$ra, $ra, 0
.LBB25_43:                              # %_ZNSt6vectorIlSaIlEED2Ev.exit
	beqz	$fp, .LBB25_45
# %bb.44:                               # %if.then.i.i.i37
	ld.d	$a0, $sp, 16                    # 8-byte Folded Reload
	sub.d	$a1, $a0, $fp
	move	$a0, $fp
	pcaddu18i	$ra, %call36(_ZdlPvm)
	jirl	$ra, $ra, 0
.LBB25_45:                              # %_ZNSt6vectorImSaImEED2Ev.exit
	ld.d	$a0, $sp, 64                    # 8-byte Folded Reload
	ld.d	$s8, $sp, 120                   # 8-byte Folded Reload
	ld.d	$s7, $sp, 128                   # 8-byte Folded Reload
	ld.d	$s6, $sp, 136                   # 8-byte Folded Reload
	ld.d	$s5, $sp, 144                   # 8-byte Folded Reload
	ld.d	$s4, $sp, 152                   # 8-byte Folded Reload
	ld.d	$s3, $sp, 160                   # 8-byte Folded Reload
	ld.d	$s2, $sp, 168                   # 8-byte Folded Reload
	ld.d	$s1, $sp, 176                   # 8-byte Folded Reload
	ld.d	$s0, $sp, 184                   # 8-byte Folded Reload
	ld.d	$fp, $sp, 192                   # 8-byte Folded Reload
	ld.d	$ra, $sp, 200                   # 8-byte Folded Reload
	addi.d	$sp, $sp, 208
	ret
.LBB25_46:                              # %if.then.i.i.i68
.Ltmp132:                               # EH_LABEL
	pcalau12i	$a0, %pc_hi20(.L.str.23)
	addi.d	$a0, $a0, %pc_lo12(.L.str.23)
	ld.d	$fp, $sp, 56                    # 8-byte Folded Reload
	pcaddu18i	$ra, %call36(_ZSt20__throw_length_errorPKc)
	jirl	$ra, $ra, 0
.Ltmp133:                               # EH_LABEL
# %bb.47:                               # %.noexc69
.LBB25_48:                              # %init.check.i
	pcalau12i	$a0, %pc_hi20(_ZGVZN9benchmark8internal18GetNullLogInstanceEvE8null_log)
	addi.d	$a0, $a0, %pc_lo12(_ZGVZN9benchmark8internal18GetNullLogInstanceEvE8null_log)
	pcaddu18i	$ra, %call36(__cxa_guard_acquire)
	jirl	$ra, $ra, 0
	addi.w	$a0, $a0, 0
	beqz	$a0, .LBB25_1
# %bb.49:                               # %init.i
	pcalau12i	$a0, %pc_hi20(_ZZN9benchmark8internal18GetNullLogInstanceEvE8null_log)
	st.d	$zero, $a0, %pc_lo12(_ZZN9benchmark8internal18GetNullLogInstanceEvE8null_log)
	pcalau12i	$a0, %pc_hi20(_ZGVZN9benchmark8internal18GetNullLogInstanceEvE8null_log)
	addi.d	$a0, $a0, %pc_lo12(_ZGVZN9benchmark8internal18GetNullLogInstanceEvE8null_log)
	pcaddu18i	$ra, %call36(__cxa_guard_release)
	jirl	$ra, $ra, 0
	b	.LBB25_1
.LBB25_50:                              # %lpad17
.Ltmp128:                               # EH_LABEL
	move	$s0, $a0
	move	$a0, $zero
	move	$fp, $s1
	b	.LBB25_56
.LBB25_51:                              # %lpad29
.Ltmp139:                               # EH_LABEL
	b	.LBB25_53
.LBB25_52:                              # %lpad27.loopexit
.Ltmp131:                               # EH_LABEL
.LBB25_53:                              # %ehcleanup44thread-pre-split
	move	$s0, $a0
	ld.d	$fp, $sp, 56                    # 8-byte Folded Reload
	b	.LBB25_55
.LBB25_54:                              # %lpad27.loopexit.split-lp
.Ltmp134:                               # EH_LABEL
	move	$s0, $a0
.LBB25_55:                              # %ehcleanup44thread-pre-split
	ld.d	$a0, $sp, 96
.LBB25_56:                              # %ehcleanup44
	bnez	$a0, .LBB25_59
# %bb.57:                               # %_ZNSt6vectorIlSaIlEED2Ev.exit95
	bnez	$fp, .LBB25_60
.LBB25_58:                              # %ehcleanup48
	move	$a0, $s0
	pcaddu18i	$ra, %call36(_Unwind_Resume)
	jirl	$ra, $ra, 0
.LBB25_59:                              # %if.then.i.i.i90
	ld.d	$a1, $sp, 112
	sub.d	$a1, $a1, $a0
	pcaddu18i	$ra, %call36(_ZdlPvm)
	jirl	$ra, $ra, 0
	beqz	$fp, .LBB25_58
.LBB25_60:                              # %if.then.i.i.i97
	ld.d	$a0, $sp, 16                    # 8-byte Folded Reload
	sub.d	$a1, $a0, $fp
	move	$a0, $fp
	pcaddu18i	$ra, %call36(_ZdlPvm)
	jirl	$ra, $ra, 0
	move	$a0, $s0
	pcaddu18i	$ra, %call36(_Unwind_Resume)
	jirl	$ra, $ra, 0
.Lfunc_end25:
	.size	_ZN9benchmark8internal9Benchmark11ArgsProductERKSt6vectorIS2_IlSaIlEESaIS4_EE, .Lfunc_end25-_ZN9benchmark8internal9Benchmark11ArgsProductERKSt6vectorIS2_IlSaIlEESaIS4_EE
	.cfi_endproc
	.section	.gcc_except_table,"a",@progbits
	.p2align	2, 0x0
GCC_except_table25:
.Lexception10:
	.byte	255                             # @LPStart Encoding = omit
	.byte	255                             # @TType Encoding = omit
	.byte	1                               # Call site Encoding = uleb128
	.uleb128 .Lcst_end10-.Lcst_begin10
.Lcst_begin10:
	.uleb128 .Lfunc_begin10-.Lfunc_begin10  # >> Call Site 1 <<
	.uleb128 .Ltmp126-.Lfunc_begin10        #   Call between .Lfunc_begin10 and .Ltmp126
	.byte	0                               #     has no landing pad
	.byte	0                               #   On action: cleanup
	.uleb128 .Ltmp126-.Lfunc_begin10        # >> Call Site 2 <<
	.uleb128 .Ltmp127-.Ltmp126              #   Call between .Ltmp126 and .Ltmp127
	.uleb128 .Ltmp128-.Lfunc_begin10        #     jumps to .Ltmp128
	.byte	0                               #   On action: cleanup
	.uleb128 .Ltmp129-.Lfunc_begin10        # >> Call Site 3 <<
	.uleb128 .Ltmp130-.Ltmp129              #   Call between .Ltmp129 and .Ltmp130
	.uleb128 .Ltmp131-.Lfunc_begin10        #     jumps to .Ltmp131
	.byte	0                               #   On action: cleanup
	.uleb128 .Ltmp130-.Lfunc_begin10        # >> Call Site 4 <<
	.uleb128 .Ltmp135-.Ltmp130              #   Call between .Ltmp130 and .Ltmp135
	.byte	0                               #     has no landing pad
	.byte	0                               #   On action: cleanup
	.uleb128 .Ltmp135-.Lfunc_begin10        # >> Call Site 5 <<
	.uleb128 .Ltmp138-.Ltmp135              #   Call between .Ltmp135 and .Ltmp138
	.uleb128 .Ltmp139-.Lfunc_begin10        #     jumps to .Ltmp139
	.byte	0                               #   On action: cleanup
	.uleb128 .Ltmp138-.Lfunc_begin10        # >> Call Site 6 <<
	.uleb128 .Ltmp132-.Ltmp138              #   Call between .Ltmp138 and .Ltmp132
	.byte	0                               #     has no landing pad
	.byte	0                               #   On action: cleanup
	.uleb128 .Ltmp132-.Lfunc_begin10        # >> Call Site 7 <<
	.uleb128 .Ltmp133-.Ltmp132              #   Call between .Ltmp132 and .Ltmp133
	.uleb128 .Ltmp134-.Lfunc_begin10        #     jumps to .Ltmp134
	.byte	0                               #   On action: cleanup
	.uleb128 .Ltmp133-.Lfunc_begin10        # >> Call Site 8 <<
	.uleb128 .Lfunc_end25-.Ltmp133          #   Call between .Ltmp133 and .Lfunc_end25
	.byte	0                               #     has no landing pad
	.byte	0                               #   On action: cleanup
.Lcst_end10:
	.p2align	2, 0x0
                                        # -- End function
	.text
	.hidden	_ZN9benchmark8internal9Benchmark7ArgNameERKNSt7__cxx1112basic_stringIcSt11char_traitsIcESaIcEEE # -- Begin function _ZN9benchmark8internal9Benchmark7ArgNameERKNSt7__cxx1112basic_stringIcSt11char_traitsIcESaIcEEE
	.globl	_ZN9benchmark8internal9Benchmark7ArgNameERKNSt7__cxx1112basic_stringIcSt11char_traitsIcESaIcEEE
	.p2align	2
	.type	_ZN9benchmark8internal9Benchmark7ArgNameERKNSt7__cxx1112basic_stringIcSt11char_traitsIcESaIcEEE,@function
_ZN9benchmark8internal9Benchmark7ArgNameERKNSt7__cxx1112basic_stringIcSt11char_traitsIcESaIcEEE: # @_ZN9benchmark8internal9Benchmark7ArgNameERKNSt7__cxx1112basic_stringIcSt11char_traitsIcESaIcEEE
.Lfunc_begin11:
	.cfi_startproc
	.cfi_personality 155, DW.ref.__gxx_personality_v0
	.cfi_lsda 27, .Lexception11
# %bb.0:                                # %entry
	addi.d	$sp, $sp, -80
	.cfi_def_cfa_offset 80
	st.d	$ra, $sp, 72                    # 8-byte Folded Spill
	st.d	$fp, $sp, 64                    # 8-byte Folded Spill
	st.d	$s0, $sp, 56                    # 8-byte Folded Spill
	.cfi_offset 1, -8
	.cfi_offset 22, -16
	.cfi_offset 23, -24
	pcalau12i	$a2, %pc_hi20(_ZGVZN9benchmark8internal18GetNullLogInstanceEvE8null_log)
	ld.b	$a2, $a2, %pc_lo12(_ZGVZN9benchmark8internal18GetNullLogInstanceEvE8null_log)
	move	$fp, $a0
	dbar	20
	beqz	$a2, .LBB26_11
.LBB26_1:                               # %_ZN9benchmark8internal18GetNullLogInstanceEv.exit
	addi.d	$a0, $sp, 32
	ld.d	$a2, $a1, 8
	ld.d	$s0, $a1, 0
	st.d	$a0, $sp, 16
	ori	$a1, $zero, 16
	st.d	$a2, $sp, 48
	bltu	$a2, $a1, .LBB26_3
# %bb.2:                                # %if.then.i.i
	addi.d	$a0, $sp, 16
	addi.d	$a1, $sp, 48
	move	$a2, $zero
	pcaddu18i	$ra, %call36(_ZNSt7__cxx1112basic_stringIcSt11char_traitsIcESaIcEE9_M_createERmm)
	jirl	$ra, $ra, 0
	ld.d	$a2, $sp, 48
	st.d	$a0, $sp, 16
	st.d	$a2, $sp, 32
.LBB26_3:                               # %if.end.i.i
	addi.w	$a1, $zero, -1
	beq	$a2, $a1, .LBB26_7
# %bb.4:                                # %if.end.i.i
	bnez	$a2, .LBB26_6
# %bb.5:                                # %if.then.i.i.i
	ld.b	$a1, $s0, 0
	st.b	$a1, $a0, 0
	b	.LBB26_7
.LBB26_6:                               # %if.end.i.i.i.i
	addi.d	$a2, $a2, 1
	move	$a1, $s0
	pcaddu18i	$ra, %call36(memcpy)
	jirl	$ra, $ra, 0
.LBB26_7:                               # %_ZNSt7__cxx1112basic_stringIcSt11char_traitsIcESaIcEEC2ERKS4_.exit
	ld.d	$a0, $sp, 48
	st.d	$a0, $sp, 24
	addi.d	$a0, $fp, 48
	addi.d	$a2, $sp, 48
.Ltmp140:                               # EH_LABEL
	addi.d	$a1, $sp, 16
	move	$a3, $zero
	pcaddu18i	$ra, %call36(_ZNSt6vectorINSt7__cxx1112basic_stringIcSt11char_traitsIcESaIcEEESaIS5_EE13_M_assign_auxIPKS5_EEvT_SB_St20forward_iterator_tag)
	jirl	$ra, $ra, 0
.Ltmp141:                               # EH_LABEL
# %bb.8:                                # %arraydestroy.body6.preheader
	ld.d	$a0, $sp, 16
	addi.d	$a1, $sp, 32
	beq	$a0, $a1, .LBB26_10
# %bb.9:                                # %if.then.i.i3
	ld.d	$a1, $sp, 32
	addi.d	$a1, $a1, 1
	pcaddu18i	$ra, %call36(_ZdlPvm)
	jirl	$ra, $ra, 0
.LBB26_10:                              # %_ZNSt7__cxx1112basic_stringIcSt11char_traitsIcESaIcEED2Ev.exit
	move	$a0, $fp
	ld.d	$s0, $sp, 56                    # 8-byte Folded Reload
	ld.d	$fp, $sp, 64                    # 8-byte Folded Reload
	ld.d	$ra, $sp, 72                    # 8-byte Folded Reload
	addi.d	$sp, $sp, 80
	ret
.LBB26_11:                              # %init.check.i
	pcalau12i	$a0, %pc_hi20(_ZGVZN9benchmark8internal18GetNullLogInstanceEvE8null_log)
	addi.d	$a0, $a0, %pc_lo12(_ZGVZN9benchmark8internal18GetNullLogInstanceEvE8null_log)
	move	$s0, $a1
	pcaddu18i	$ra, %call36(__cxa_guard_acquire)
	jirl	$ra, $ra, 0
	move	$a1, $s0
	addi.w	$a0, $a0, 0
	beqz	$a0, .LBB26_1
# %bb.12:                               # %init.i
	pcalau12i	$a0, %pc_hi20(_ZZN9benchmark8internal18GetNullLogInstanceEvE8null_log)
	st.d	$zero, $a0, %pc_lo12(_ZZN9benchmark8internal18GetNullLogInstanceEvE8null_log)
	pcalau12i	$a0, %pc_hi20(_ZGVZN9benchmark8internal18GetNullLogInstanceEvE8null_log)
	addi.d	$a0, $a0, %pc_lo12(_ZGVZN9benchmark8internal18GetNullLogInstanceEvE8null_log)
	pcaddu18i	$ra, %call36(__cxa_guard_release)
	jirl	$ra, $ra, 0
	move	$a1, $s0
	b	.LBB26_1
.LBB26_13:                              # %lpad3
.Ltmp142:                               # EH_LABEL
	ld.d	$a2, $sp, 16
	addi.d	$a1, $sp, 32
	move	$fp, $a0
	beq	$a2, $a1, .LBB26_15
# %bb.14:                               # %if.then.i.i6
	ld.d	$a0, $sp, 32
	addi.d	$a1, $a0, 1
	move	$a0, $a2
	pcaddu18i	$ra, %call36(_ZdlPvm)
	jirl	$ra, $ra, 0
.LBB26_15:                              # %_ZNSt7__cxx1112basic_stringIcSt11char_traitsIcESaIcEED2Ev.exit11
	move	$a0, $fp
	pcaddu18i	$ra, %call36(_Unwind_Resume)
	jirl	$ra, $ra, 0
.Lfunc_end26:
	.size	_ZN9benchmark8internal9Benchmark7ArgNameERKNSt7__cxx1112basic_stringIcSt11char_traitsIcESaIcEEE, .Lfunc_end26-_ZN9benchmark8internal9Benchmark7ArgNameERKNSt7__cxx1112basic_stringIcSt11char_traitsIcESaIcEEE
	.cfi_endproc
	.section	.gcc_except_table,"a",@progbits
	.p2align	2, 0x0
GCC_except_table26:
.Lexception11:
	.byte	255                             # @LPStart Encoding = omit
	.byte	255                             # @TType Encoding = omit
	.byte	1                               # Call site Encoding = uleb128
	.uleb128 .Lcst_end11-.Lcst_begin11
.Lcst_begin11:
	.uleb128 .Lfunc_begin11-.Lfunc_begin11  # >> Call Site 1 <<
	.uleb128 .Ltmp140-.Lfunc_begin11        #   Call between .Lfunc_begin11 and .Ltmp140
	.byte	0                               #     has no landing pad
	.byte	0                               #   On action: cleanup
	.uleb128 .Ltmp140-.Lfunc_begin11        # >> Call Site 2 <<
	.uleb128 .Ltmp141-.Ltmp140              #   Call between .Ltmp140 and .Ltmp141
	.uleb128 .Ltmp142-.Lfunc_begin11        #     jumps to .Ltmp142
	.byte	0                               #   On action: cleanup
	.uleb128 .Ltmp141-.Lfunc_begin11        # >> Call Site 3 <<
	.uleb128 .Lfunc_end26-.Ltmp141          #   Call between .Ltmp141 and .Lfunc_end26
	.byte	0                               #     has no landing pad
	.byte	0                               #   On action: cleanup
.Lcst_end11:
	.p2align	2, 0x0
                                        # -- End function
	.text
	.hidden	_ZN9benchmark8internal9Benchmark8ArgNamesERKSt6vectorINSt7__cxx1112basic_stringIcSt11char_traitsIcESaIcEEESaIS8_EE # -- Begin function _ZN9benchmark8internal9Benchmark8ArgNamesERKSt6vectorINSt7__cxx1112basic_stringIcSt11char_traitsIcESaIcEEESaIS8_EE
	.globl	_ZN9benchmark8internal9Benchmark8ArgNamesERKSt6vectorINSt7__cxx1112basic_stringIcSt11char_traitsIcESaIcEEESaIS8_EE
	.p2align	2
	.type	_ZN9benchmark8internal9Benchmark8ArgNamesERKSt6vectorINSt7__cxx1112basic_stringIcSt11char_traitsIcESaIcEEESaIS8_EE,@function
_ZN9benchmark8internal9Benchmark8ArgNamesERKSt6vectorINSt7__cxx1112basic_stringIcSt11char_traitsIcESaIcEEESaIS8_EE: # @_ZN9benchmark8internal9Benchmark8ArgNamesERKSt6vectorINSt7__cxx1112basic_stringIcSt11char_traitsIcESaIcEEESaIS8_EE
	.cfi_startproc
# %bb.0:                                # %entry
	addi.d	$sp, $sp, -32
	.cfi_def_cfa_offset 32
	st.d	$ra, $sp, 24                    # 8-byte Folded Spill
	st.d	$fp, $sp, 16                    # 8-byte Folded Spill
	st.d	$s0, $sp, 8                     # 8-byte Folded Spill
	.cfi_offset 1, -8
	.cfi_offset 22, -16
	.cfi_offset 23, -24
	pcalau12i	$a2, %pc_hi20(_ZGVZN9benchmark8internal18GetNullLogInstanceEvE8null_log)
	ld.b	$a2, $a2, %pc_lo12(_ZGVZN9benchmark8internal18GetNullLogInstanceEvE8null_log)
	dbar	20
	beqz	$a2, .LBB27_2
.LBB27_1:                               # %_ZN9benchmark8internal18GetNullLogInstanceEv.exit
	addi.d	$a2, $a0, 48
	move	$fp, $a0
	move	$a0, $a2
	pcaddu18i	$ra, %call36(_ZNSt6vectorINSt7__cxx1112basic_stringIcSt11char_traitsIcESaIcEEESaIS5_EEaSERKS7_)
	jirl	$ra, $ra, 0
	move	$a0, $fp
	ld.d	$s0, $sp, 8                     # 8-byte Folded Reload
	ld.d	$fp, $sp, 16                    # 8-byte Folded Reload
	ld.d	$ra, $sp, 24                    # 8-byte Folded Reload
	addi.d	$sp, $sp, 32
	ret
.LBB27_2:                               # %init.check.i
	pcalau12i	$a2, %pc_hi20(_ZGVZN9benchmark8internal18GetNullLogInstanceEvE8null_log)
	addi.d	$a2, $a2, %pc_lo12(_ZGVZN9benchmark8internal18GetNullLogInstanceEvE8null_log)
	move	$fp, $a0
	move	$a0, $a2
	move	$s0, $a1
	pcaddu18i	$ra, %call36(__cxa_guard_acquire)
	jirl	$ra, $ra, 0
	move	$a1, $s0
	move	$a2, $a0
	move	$a0, $fp
	addi.w	$a2, $a2, 0
	beqz	$a2, .LBB27_1
# %bb.3:                                # %init.i
	pcalau12i	$a0, %pc_hi20(_ZZN9benchmark8internal18GetNullLogInstanceEvE8null_log)
	st.d	$zero, $a0, %pc_lo12(_ZZN9benchmark8internal18GetNullLogInstanceEvE8null_log)
	pcalau12i	$a0, %pc_hi20(_ZGVZN9benchmark8internal18GetNullLogInstanceEvE8null_log)
	addi.d	$a0, $a0, %pc_lo12(_ZGVZN9benchmark8internal18GetNullLogInstanceEvE8null_log)
	pcaddu18i	$ra, %call36(__cxa_guard_release)
	jirl	$ra, $ra, 0
	move	$a1, $s0
	move	$a0, $fp
	b	.LBB27_1
.Lfunc_end27:
	.size	_ZN9benchmark8internal9Benchmark8ArgNamesERKSt6vectorINSt7__cxx1112basic_stringIcSt11char_traitsIcESaIcEEESaIS8_EE, .Lfunc_end27-_ZN9benchmark8internal9Benchmark8ArgNamesERKSt6vectorINSt7__cxx1112basic_stringIcSt11char_traitsIcESaIcEEESaIS8_EE
	.cfi_endproc
                                        # -- End function
	.section	.text._ZNSt6vectorINSt7__cxx1112basic_stringIcSt11char_traitsIcESaIcEEESaIS5_EEaSERKS7_,"axG",@progbits,_ZNSt6vectorINSt7__cxx1112basic_stringIcSt11char_traitsIcESaIcEEESaIS5_EEaSERKS7_,comdat
	.weak	_ZNSt6vectorINSt7__cxx1112basic_stringIcSt11char_traitsIcESaIcEEESaIS5_EEaSERKS7_ # -- Begin function _ZNSt6vectorINSt7__cxx1112basic_stringIcSt11char_traitsIcESaIcEEESaIS5_EEaSERKS7_
	.p2align	2
	.type	_ZNSt6vectorINSt7__cxx1112basic_stringIcSt11char_traitsIcESaIcEEESaIS5_EEaSERKS7_,@function
_ZNSt6vectorINSt7__cxx1112basic_stringIcSt11char_traitsIcESaIcEEESaIS5_EEaSERKS7_: # @_ZNSt6vectorINSt7__cxx1112basic_stringIcSt11char_traitsIcESaIcEEESaIS5_EEaSERKS7_
.Lfunc_begin12:
	.cfi_startproc
	.cfi_personality 155, DW.ref.__gxx_personality_v0
	.cfi_lsda 27, .Lexception12
# %bb.0:                                # %entry
	addi.d	$sp, $sp, -112
	.cfi_def_cfa_offset 112
	st.d	$ra, $sp, 104                   # 8-byte Folded Spill
	st.d	$fp, $sp, 96                    # 8-byte Folded Spill
	st.d	$s0, $sp, 88                    # 8-byte Folded Spill
	st.d	$s1, $sp, 80                    # 8-byte Folded Spill
	st.d	$s2, $sp, 72                    # 8-byte Folded Spill
	st.d	$s3, $sp, 64                    # 8-byte Folded Spill
	st.d	$s4, $sp, 56                    # 8-byte Folded Spill
	st.d	$s5, $sp, 48                    # 8-byte Folded Spill
	st.d	$s6, $sp, 40                    # 8-byte Folded Spill
	.cfi_offset 1, -8
	.cfi_offset 22, -16
	.cfi_offset 23, -24
	.cfi_offset 24, -32
	.cfi_offset 25, -40
	.cfi_offset 26, -48
	.cfi_offset 27, -56
	.cfi_offset 28, -64
	.cfi_offset 29, -72
	move	$fp, $a0
	beq	$a1, $a0, .LBB28_17
# %bb.1:                                # %if.then
	ld.d	$s1, $a1, 8
	ld.d	$s2, $a1, 0
	ld.d	$a0, $fp, 16
	ld.d	$s3, $fp, 0
	sub.d	$s4, $s1, $s2
	srai.d	$a2, $s4, 5
	sub.d	$a0, $a0, $s3
	srai.d	$a0, $a0, 5
	bgeu	$a0, $a2, .LBB28_7
# %bb.2:                                # %if.then4
	move	$a0, $fp
	move	$a1, $a2
	move	$a2, $s2
	move	$a3, $s1
	pcaddu18i	$ra, %call36(_ZNSt6vectorINSt7__cxx1112basic_stringIcSt11char_traitsIcESaIcEEESaIS5_EE20_M_allocate_and_copyIN9__gnu_cxx17__normal_iteratorIPKS5_S7_EEEEPS5_mT_SF_)
	jirl	$ra, $ra, 0
	ld.d	$a2, $fp, 0
	ld.d	$s1, $fp, 8
	move	$s0, $a0
	beq	$a2, $s1, .LBB28_13
# %bb.3:                                # %for.body.i.preheader
	addi.d	$s2, $a2, 16
	b	.LBB28_5
	.p2align	4, , 16
.LBB28_4:                               # %_ZSt8_DestroyINSt7__cxx1112basic_stringIcSt11char_traitsIcESaIcEEEEvPT_.exit.i
                                        #   in Loop: Header=BB28_5 Depth=1
	addi.d	$a0, $s2, 16
	addi.d	$s2, $s2, 32
	beq	$a0, $s1, .LBB28_12
.LBB28_5:                               # %for.body.i
                                        # =>This Inner Loop Header: Depth=1
	ld.d	$a0, $s2, -16
	beq	$s2, $a0, .LBB28_4
# %bb.6:                                # %if.then.i.i.i.i
                                        #   in Loop: Header=BB28_5 Depth=1
	ld.d	$a1, $s2, 0
	addi.d	$a1, $a1, 1
	pcaddu18i	$ra, %call36(_ZdlPvm)
	jirl	$ra, $ra, 0
	b	.LBB28_4
.LBB28_7:                               # %if.else
	ld.d	$s0, $fp, 8
	sub.d	$s5, $s0, $s3
	srai.d	$a0, $s5, 5
	bgeu	$a0, $a2, .LBB28_18
# %bb.8:                                # %if.else61
	beq	$s0, $s3, .LBB28_22
# %bb.9:                                # %for.body.i.i49.preheader
	move	$s0, $a1
	.p2align	4, , 16
.LBB28_10:                              # %for.body.i.i49
                                        # =>This Inner Loop Header: Depth=1
	move	$a0, $s3
	move	$a1, $s2
	pcaddu18i	$ra, %call36(_ZNSt7__cxx1112basic_stringIcSt11char_traitsIcESaIcEE9_M_assignERKS4_)
	jirl	$ra, $ra, 0
	addi.d	$s3, $s3, 32
	addi.d	$s5, $s5, -32
	addi.d	$s2, $s2, 32
	bnez	$s5, .LBB28_10
# %bb.11:                               # %_ZSt4copyIPNSt7__cxx1112basic_stringIcSt11char_traitsIcESaIcEEES6_ET0_T_S8_S7_.exit.loopexit
	move	$a0, $s0
	ld.d	$s2, $s0, 0
	ld.d	$s0, $fp, 8
	ld.d	$a1, $fp, 0
	ld.d	$s1, $a0, 8
	sub.d	$a0, $s0, $a1
	b	.LBB28_23
.LBB28_12:                              # %_ZSt8_DestroyIPNSt7__cxx1112basic_stringIcSt11char_traitsIcESaIcEEEEvT_S7_.exitthread-pre-split
	ld.d	$a2, $fp, 0
.LBB28_13:                              # %_ZSt8_DestroyIPNSt7__cxx1112basic_stringIcSt11char_traitsIcESaIcEEEEvT_S7_.exit
	beqz	$a2, .LBB28_15
# %bb.14:                               # %if.then.i
	ld.d	$a0, $fp, 16
	sub.d	$a1, $a0, $a2
	move	$a0, $a2
	pcaddu18i	$ra, %call36(_ZdlPvm)
	jirl	$ra, $ra, 0
.LBB28_15:                              # %_ZNSt12_Vector_baseINSt7__cxx1112basic_stringIcSt11char_traitsIcESaIcEEESaIS5_EE13_M_deallocateEPS5_m.exit
	st.d	$s0, $fp, 0
	add.d	$a0, $s0, $s4
	st.d	$a0, $fp, 16
.LBB28_16:                              # %if.end81
	ld.d	$a0, $fp, 0
	add.d	$a0, $a0, $s4
	st.d	$a0, $fp, 8
.LBB28_17:                              # %if.end87
	move	$a0, $fp
	ld.d	$s6, $sp, 40                    # 8-byte Folded Reload
	ld.d	$s5, $sp, 48                    # 8-byte Folded Reload
	ld.d	$s4, $sp, 56                    # 8-byte Folded Reload
	ld.d	$s3, $sp, 64                    # 8-byte Folded Reload
	ld.d	$s2, $sp, 72                    # 8-byte Folded Reload
	ld.d	$s1, $sp, 80                    # 8-byte Folded Reload
	ld.d	$s0, $sp, 88                    # 8-byte Folded Reload
	ld.d	$fp, $sp, 96                    # 8-byte Folded Reload
	ld.d	$ra, $sp, 104                   # 8-byte Folded Reload
	addi.d	$sp, $sp, 112
	ret
.LBB28_18:                              # %if.then29
	beq	$s2, $s1, .LBB28_33
# %bb.19:                               # %for.body.i.i.preheader
	move	$s5, $s3
	.p2align	4, , 16
.LBB28_20:                              # %for.body.i.i
                                        # =>This Inner Loop Header: Depth=1
	move	$a0, $s3
	move	$a1, $s2
	pcaddu18i	$ra, %call36(_ZNSt7__cxx1112basic_stringIcSt11char_traitsIcESaIcEE9_M_assignERKS4_)
	jirl	$ra, $ra, 0
	addi.d	$s3, $s3, 32
	addi.d	$s2, $s2, 32
	addi.d	$s5, $s5, 32
	bne	$s2, $s1, .LBB28_20
# %bb.21:                               # %_ZSt14__copy_move_a2ILb0EPKNSt7__cxx1112basic_stringIcSt11char_traitsIcESaIcEEES7_PS5_ET2_T0_T1_S9_.exit.loopexit.i
	ld.d	$s0, $fp, 8
	beq	$s5, $s0, .LBB28_16
	b	.LBB28_34
.LBB28_22:
	move	$a0, $zero
.LBB28_23:                              # %_ZSt4copyIPNSt7__cxx1112basic_stringIcSt11char_traitsIcESaIcEEES6_ET0_T_S8_S7_.exit
	add.d	$s3, $s2, $a0
	st.d	$s0, $sp, 24
	st.d	$s0, $sp, 8
	addi.d	$a0, $sp, 24
	st.d	$a0, $sp, 16
	beq	$s3, $s1, .LBB28_16
# %bb.24:                               # %for.body.i.i.i.preheader
	ori	$s5, $zero, 16
	addi.w	$s6, $zero, -1
	b	.LBB28_27
	.p2align	4, , 16
.LBB28_25:                              # %if.then.i.i.i.i.i.i.i
                                        #   in Loop: Header=BB28_27 Depth=1
	ld.b	$a1, $s2, 0
	st.b	$a1, $a0, 0
.LBB28_26:                              # %for.inc.i.i.i
                                        #   in Loop: Header=BB28_27 Depth=1
	ld.d	$a0, $sp, 32
	ld.d	$a1, $sp, 24
	st.d	$a0, $s0, 8
	addi.d	$s3, $s3, 32
	addi.d	$s0, $a1, 32
	st.d	$s0, $sp, 24
	beq	$s3, $s1, .LBB28_16
.LBB28_27:                              # %for.body.i.i.i
                                        # =>This Inner Loop Header: Depth=1
	addi.d	$a0, $s0, 16
	st.d	$a0, $s0, 0
	ld.d	$a1, $s3, 8
	ld.d	$s2, $s3, 0
	st.d	$a1, $sp, 32
	bltu	$a1, $s5, .LBB28_30
# %bb.28:                               # %if.then.i.i.i.i.i.i
                                        #   in Loop: Header=BB28_27 Depth=1
.Ltmp143:                               # EH_LABEL
	addi.d	$a1, $sp, 32
	move	$a0, $s0
	move	$a2, $zero
	pcaddu18i	$ra, %call36(_ZNSt7__cxx1112basic_stringIcSt11char_traitsIcESaIcEE9_M_createERmm)
	jirl	$ra, $ra, 0
.Ltmp144:                               # EH_LABEL
# %bb.29:                               # %call.i4.i.i.noexc.i.i.i
                                        #   in Loop: Header=BB28_27 Depth=1
	ld.d	$a1, $sp, 32
	st.d	$a0, $s0, 0
	st.d	$a1, $s0, 16
.LBB28_30:                              # %if.end.i.i.i.i.i.i
                                        #   in Loop: Header=BB28_27 Depth=1
	beq	$a1, $s6, .LBB28_26
# %bb.31:                               # %if.end.i.i.i.i.i.i
                                        #   in Loop: Header=BB28_27 Depth=1
	beqz	$a1, .LBB28_25
# %bb.32:                               # %if.end.i.i.i.i.i.i.i.i
                                        #   in Loop: Header=BB28_27 Depth=1
	addi.d	$a2, $a1, 1
	move	$a1, $s2
	pcaddu18i	$ra, %call36(memcpy)
	jirl	$ra, $ra, 0
	b	.LBB28_26
.LBB28_33:
	move	$s5, $s3
	beq	$s5, $s0, .LBB28_16
.LBB28_34:                              # %for.body.preheader.i
	addi.d	$s1, $s5, 16
	b	.LBB28_36
	.p2align	4, , 16
.LBB28_35:                              # %_ZSt8_DestroyINSt7__cxx1112basic_stringIcSt11char_traitsIcESaIcEEEEvPT_.exit.i37
                                        #   in Loop: Header=BB28_36 Depth=1
	addi.d	$a0, $s1, 16
	addi.d	$s1, $s1, 32
	beq	$a0, $s0, .LBB28_16
.LBB28_36:                              # %for.body.i33
                                        # =>This Inner Loop Header: Depth=1
	ld.d	$a0, $s1, -16
	beq	$s1, $a0, .LBB28_35
# %bb.37:                               # %if.then.i.i.i.i35
                                        #   in Loop: Header=BB28_36 Depth=1
	ld.d	$a1, $s1, 0
	addi.d	$a1, $a1, 1
	pcaddu18i	$ra, %call36(_ZdlPvm)
	jirl	$ra, $ra, 0
	b	.LBB28_35
.LBB28_38:                              # %lpad.i.i.i
.Ltmp145:                               # EH_LABEL
	move	$fp, $a0
	addi.d	$a0, $sp, 8
	pcaddu18i	$ra, %call36(_ZNSt19_UninitDestroyGuardIPNSt7__cxx1112basic_stringIcSt11char_traitsIcESaIcEEEvED2Ev)
	jirl	$ra, $ra, 0
	move	$a0, $fp
	pcaddu18i	$ra, %call36(_Unwind_Resume)
	jirl	$ra, $ra, 0
.Lfunc_end28:
	.size	_ZNSt6vectorINSt7__cxx1112basic_stringIcSt11char_traitsIcESaIcEEESaIS5_EEaSERKS7_, .Lfunc_end28-_ZNSt6vectorINSt7__cxx1112basic_stringIcSt11char_traitsIcESaIcEEESaIS5_EEaSERKS7_
	.cfi_endproc
	.section	.gcc_except_table._ZNSt6vectorINSt7__cxx1112basic_stringIcSt11char_traitsIcESaIcEEESaIS5_EEaSERKS7_,"aG",@progbits,_ZNSt6vectorINSt7__cxx1112basic_stringIcSt11char_traitsIcESaIcEEESaIS5_EEaSERKS7_,comdat
	.p2align	2, 0x0
GCC_except_table28:
.Lexception12:
	.byte	255                             # @LPStart Encoding = omit
	.byte	255                             # @TType Encoding = omit
	.byte	1                               # Call site Encoding = uleb128
	.uleb128 .Lcst_end12-.Lcst_begin12
.Lcst_begin12:
	.uleb128 .Lfunc_begin12-.Lfunc_begin12  # >> Call Site 1 <<
	.uleb128 .Ltmp143-.Lfunc_begin12        #   Call between .Lfunc_begin12 and .Ltmp143
	.byte	0                               #     has no landing pad
	.byte	0                               #   On action: cleanup
	.uleb128 .Ltmp143-.Lfunc_begin12        # >> Call Site 2 <<
	.uleb128 .Ltmp144-.Ltmp143              #   Call between .Ltmp143 and .Ltmp144
	.uleb128 .Ltmp145-.Lfunc_begin12        #     jumps to .Ltmp145
	.byte	0                               #   On action: cleanup
	.uleb128 .Ltmp144-.Lfunc_begin12        # >> Call Site 3 <<
	.uleb128 .Lfunc_end28-.Ltmp144          #   Call between .Ltmp144 and .Lfunc_end28
	.byte	0                               #     has no landing pad
	.byte	0                               #   On action: cleanup
.Lcst_end12:
	.p2align	2, 0x0
                                        # -- End function
	.text
	.hidden	_ZN9benchmark8internal9Benchmark10DenseRangeElli # -- Begin function _ZN9benchmark8internal9Benchmark10DenseRangeElli
	.globl	_ZN9benchmark8internal9Benchmark10DenseRangeElli
	.p2align	2
	.type	_ZN9benchmark8internal9Benchmark10DenseRangeElli,@function
_ZN9benchmark8internal9Benchmark10DenseRangeElli: # @_ZN9benchmark8internal9Benchmark10DenseRangeElli
.Lfunc_begin13:
	.cfi_startproc
	.cfi_personality 155, DW.ref.__gxx_personality_v0
	.cfi_lsda 27, .Lexception13
# %bb.0:                                # %entry
	addi.d	$sp, $sp, -160
	.cfi_def_cfa_offset 160
	st.d	$ra, $sp, 152                   # 8-byte Folded Spill
	st.d	$fp, $sp, 144                   # 8-byte Folded Spill
	st.d	$s0, $sp, 136                   # 8-byte Folded Spill
	st.d	$s1, $sp, 128                   # 8-byte Folded Spill
	st.d	$s2, $sp, 120                   # 8-byte Folded Spill
	st.d	$s3, $sp, 112                   # 8-byte Folded Spill
	st.d	$s4, $sp, 104                   # 8-byte Folded Spill
	st.d	$s5, $sp, 96                    # 8-byte Folded Spill
	st.d	$s6, $sp, 88                    # 8-byte Folded Spill
	st.d	$s7, $sp, 80                    # 8-byte Folded Spill
	st.d	$s8, $sp, 72                    # 8-byte Folded Spill
	.cfi_offset 1, -8
	.cfi_offset 22, -16
	.cfi_offset 23, -24
	.cfi_offset 24, -32
	.cfi_offset 25, -40
	.cfi_offset 26, -48
	.cfi_offset 27, -56
	.cfi_offset 28, -64
	.cfi_offset 29, -72
	.cfi_offset 30, -80
	.cfi_offset 31, -88
	pcalau12i	$fp, %pc_hi20(_ZGVZN9benchmark8internal18GetNullLogInstanceEvE8null_log)
	ld.b	$a4, $fp, %pc_lo12(_ZGVZN9benchmark8internal18GetNullLogInstanceEvE8null_log)
	move	$s1, $a3
	move	$s5, $a2
	move	$s2, $a1
	move	$s6, $a0
	dbar	20
	beqz	$a4, .LBB29_17
.LBB29_1:                               # %_ZN9benchmark8internal18GetNullLogInstanceEv.exit
	ld.b	$a0, $fp, %pc_lo12(_ZGVZN9benchmark8internal18GetNullLogInstanceEvE8null_log)
	dbar	20
	beqz	$a0, .LBB29_19
.LBB29_2:                               # %_ZN9benchmark8internal18GetNullLogInstanceEv.exit8
	blt	$s5, $s2, .LBB29_14
# %bb.3:                                # %for.body.lr.ph
	ld.d	$s4, $s6, 80
	ld.d	$s8, $s6, 88
	addi.w	$a0, $zero, -8
	lu52i.d	$a0, $a0, 2047
	st.d	$a0, $sp, 64                    # 8-byte Folded Spill
	lu12i.w	$a0, -349526
	ori	$a0, $a0, 2731
	lu32i.d	$a0, -349526
	lu52i.d	$a0, $a0, -1366
	st.d	$a0, $sp, 56                    # 8-byte Folded Spill
	lu12i.w	$a0, 349525
	ori	$a0, $a0, 1365
	bstrins.d	$a0, $a0, 58, 32
	st.d	$a0, $sp, 48                    # 8-byte Folded Spill
	vrepli.b	$vr1, 0
	st.d	$s5, $sp, 40                    # 8-byte Folded Spill
	vst	$vr1, $sp, 16                   # 16-byte Folded Spill
	b	.LBB29_5
	.p2align	4, , 16
.LBB29_4:                               # %if.then.i.i
                                        #   in Loop: Header=BB29_5 Depth=1
	st.d	$s3, $s4, 0
	st.d	$fp, $s4, 8
	st.d	$fp, $s4, 16
	addi.d	$s4, $s4, 24
	st.d	$s4, $s6, 80
	add.d	$s2, $s2, $s1
	blt	$s5, $s2, .LBB29_14
.LBB29_5:                               # %for.body
                                        # =>This Loop Header: Depth=1
                                        #     Child Loop BB29_10 Depth 2
	ori	$a0, $zero, 8
	pcaddu18i	$ra, %call36(_Znwm)
	jirl	$ra, $ra, 0
	move	$s3, $a0
	addi.d	$fp, $a0, 8
	st.d	$s2, $a0, 0
	bne	$s4, $s8, .LBB29_4
# %bb.6:                                # %if.else.i.i
                                        #   in Loop: Header=BB29_5 Depth=1
	ld.d	$s4, $s6, 72
	sub.d	$s0, $s8, $s4
	ld.d	$a0, $sp, 64                    # 8-byte Folded Reload
	beq	$s0, $a0, .LBB29_15
# %bb.7:                                # %_ZNKSt6vectorIS_IlSaIlEESaIS1_EE12_M_check_lenEmPKc.exit.i
                                        #   in Loop: Header=BB29_5 Depth=1
	srli.d	$a0, $s0, 3
	ld.d	$a1, $sp, 56                    # 8-byte Folded Reload
	mul.d	$a0, $a0, $a1
	ori	$a3, $zero, 1
	sltu	$a1, $a3, $a0
	maskeqz	$a2, $a0, $a1
	masknez	$a1, $a3, $a1
	or	$a1, $a2, $a1
	add.d	$a0, $a1, $a0
	ld.d	$a2, $sp, 48                    # 8-byte Folded Reload
	sltu	$a1, $a0, $a2
	maskeqz	$a0, $a0, $a1
	masknez	$a1, $a2, $a1
	or	$s7, $a0, $a1
	slli.d	$a0, $s7, 4
	alsl.d	$a0, $s7, $a0, 3
.Ltmp146:                               # EH_LABEL
	pcaddu18i	$ra, %call36(_Znwm)
	jirl	$ra, $ra, 0
.Ltmp147:                               # EH_LABEL
# %bb.8:                                # %call5.i.i.i.noexc
                                        #   in Loop: Header=BB29_5 Depth=1
	move	$s5, $a0
	add.d	$a0, $a0, $s0
	stx.d	$s3, $s5, $s0
	st.d	$fp, $a0, 8
	st.d	$fp, $a0, 16
	move	$fp, $s5
	vld	$vr1, $sp, 16                   # 16-byte Folded Reload
	beq	$s4, $s8, .LBB29_11
# %bb.9:                                # %for.body.i.i.i.i.preheader
                                        #   in Loop: Header=BB29_5 Depth=1
	move	$fp, $s5
	move	$a0, $s4
	.p2align	4, , 16
.LBB29_10:                              # %for.body.i.i.i.i
                                        #   Parent Loop BB29_5 Depth=1
                                        # =>  This Inner Loop Header: Depth=2
	vld	$vr0, $a0, 0
	ld.d	$a1, $a0, 16
	vst	$vr0, $fp, 0
	st.d	$a1, $fp, 16
	st.d	$zero, $a0, 16
	vst	$vr1, $a0, 0
	addi.d	$a0, $a0, 24
	addi.d	$fp, $fp, 24
	bne	$a0, $s8, .LBB29_10
.LBB29_11:                              # %_ZNSt6vectorIS_IlSaIlEESaIS1_EE11_S_relocateEPS1_S4_S4_RS2_.exit.i
                                        #   in Loop: Header=BB29_5 Depth=1
	beqz	$s4, .LBB29_13
# %bb.12:                               # %_ZNSt12_Vector_baseISt6vectorIlSaIlEESaIS2_EE13_M_deallocateEPS2_m.exit.i.i
                                        #   in Loop: Header=BB29_5 Depth=1
	ld.d	$a0, $s6, 88
	sub.d	$a1, $a0, $s4
	move	$a0, $s4
	pcaddu18i	$ra, %call36(_ZdlPvm)
	jirl	$ra, $ra, 0
.LBB29_13:                              # %.noexc
                                        #   in Loop: Header=BB29_5 Depth=1
	addi.d	$s4, $fp, 24
	st.d	$s5, $s6, 72
	st.d	$s4, $s6, 80
	ori	$a0, $zero, 24
	mul.d	$a0, $s7, $a0
	add.d	$s8, $s5, $a0
	st.d	$s8, $s6, 88
	ld.d	$s5, $sp, 40                    # 8-byte Folded Reload
	add.d	$s2, $s2, $s1
	bge	$s5, $s2, .LBB29_5
.LBB29_14:                              # %for.cond.cleanup
	move	$a0, $s6
	ld.d	$s8, $sp, 72                    # 8-byte Folded Reload
	ld.d	$s7, $sp, 80                    # 8-byte Folded Reload
	ld.d	$s6, $sp, 88                    # 8-byte Folded Reload
	ld.d	$s5, $sp, 96                    # 8-byte Folded Reload
	ld.d	$s4, $sp, 104                   # 8-byte Folded Reload
	ld.d	$s3, $sp, 112                   # 8-byte Folded Reload
	ld.d	$s2, $sp, 120                   # 8-byte Folded Reload
	ld.d	$s1, $sp, 128                   # 8-byte Folded Reload
	ld.d	$s0, $sp, 136                   # 8-byte Folded Reload
	ld.d	$fp, $sp, 144                   # 8-byte Folded Reload
	ld.d	$ra, $sp, 152                   # 8-byte Folded Reload
	addi.d	$sp, $sp, 160
	ret
.LBB29_15:                              # %if.then.i.i25
.Ltmp149:                               # EH_LABEL
	pcalau12i	$a0, %pc_hi20(.L.str.23)
	addi.d	$a0, $a0, %pc_lo12(.L.str.23)
	pcaddu18i	$ra, %call36(_ZSt20__throw_length_errorPKc)
	jirl	$ra, $ra, 0
.Ltmp150:                               # EH_LABEL
# %bb.16:                               # %.noexc26
.LBB29_17:                              # %init.check.i
	pcalau12i	$a0, %pc_hi20(_ZGVZN9benchmark8internal18GetNullLogInstanceEvE8null_log)
	addi.d	$a0, $a0, %pc_lo12(_ZGVZN9benchmark8internal18GetNullLogInstanceEvE8null_log)
	pcaddu18i	$ra, %call36(__cxa_guard_acquire)
	jirl	$ra, $ra, 0
	addi.w	$a0, $a0, 0
	beqz	$a0, .LBB29_1
# %bb.18:                               # %init.i
	pcalau12i	$a0, %pc_hi20(_ZZN9benchmark8internal18GetNullLogInstanceEvE8null_log)
	st.d	$zero, $a0, %pc_lo12(_ZZN9benchmark8internal18GetNullLogInstanceEvE8null_log)
	pcalau12i	$a0, %pc_hi20(_ZGVZN9benchmark8internal18GetNullLogInstanceEvE8null_log)
	addi.d	$a0, $a0, %pc_lo12(_ZGVZN9benchmark8internal18GetNullLogInstanceEvE8null_log)
	pcaddu18i	$ra, %call36(__cxa_guard_release)
	jirl	$ra, $ra, 0
	b	.LBB29_1
.LBB29_19:                              # %init.check.i5
	pcalau12i	$a0, %pc_hi20(_ZGVZN9benchmark8internal18GetNullLogInstanceEvE8null_log)
	addi.d	$a0, $a0, %pc_lo12(_ZGVZN9benchmark8internal18GetNullLogInstanceEvE8null_log)
	pcaddu18i	$ra, %call36(__cxa_guard_acquire)
	jirl	$ra, $ra, 0
	addi.w	$a0, $a0, 0
	beqz	$a0, .LBB29_2
# %bb.20:                               # %init.i7
	pcalau12i	$a0, %pc_hi20(_ZZN9benchmark8internal18GetNullLogInstanceEvE8null_log)
	st.d	$zero, $a0, %pc_lo12(_ZZN9benchmark8internal18GetNullLogInstanceEvE8null_log)
	pcalau12i	$a0, %pc_hi20(_ZGVZN9benchmark8internal18GetNullLogInstanceEvE8null_log)
	addi.d	$a0, $a0, %pc_lo12(_ZGVZN9benchmark8internal18GetNullLogInstanceEvE8null_log)
	pcaddu18i	$ra, %call36(__cxa_guard_release)
	jirl	$ra, $ra, 0
	b	.LBB29_2
.LBB29_21:                              # %_ZNSt6vectorIlSaIlEED2Ev.exit24.loopexit
.Ltmp148:                               # EH_LABEL
	b	.LBB29_23
.LBB29_22:                              # %_ZNSt6vectorIlSaIlEED2Ev.exit24.loopexit.split-lp
.Ltmp151:                               # EH_LABEL
.LBB29_23:                              # %_ZNSt6vectorIlSaIlEED2Ev.exit24
	move	$fp, $a0
	ori	$a1, $zero, 8
	move	$a0, $s3
	pcaddu18i	$ra, %call36(_ZdlPvm)
	jirl	$ra, $ra, 0
	move	$a0, $fp
	pcaddu18i	$ra, %call36(_Unwind_Resume)
	jirl	$ra, $ra, 0
.Lfunc_end29:
	.size	_ZN9benchmark8internal9Benchmark10DenseRangeElli, .Lfunc_end29-_ZN9benchmark8internal9Benchmark10DenseRangeElli
	.cfi_endproc
	.section	.gcc_except_table,"a",@progbits
	.p2align	2, 0x0
GCC_except_table29:
.Lexception13:
	.byte	255                             # @LPStart Encoding = omit
	.byte	255                             # @TType Encoding = omit
	.byte	1                               # Call site Encoding = uleb128
	.uleb128 .Lcst_end13-.Lcst_begin13
.Lcst_begin13:
	.uleb128 .Lfunc_begin13-.Lfunc_begin13  # >> Call Site 1 <<
	.uleb128 .Ltmp146-.Lfunc_begin13        #   Call between .Lfunc_begin13 and .Ltmp146
	.byte	0                               #     has no landing pad
	.byte	0                               #   On action: cleanup
	.uleb128 .Ltmp146-.Lfunc_begin13        # >> Call Site 2 <<
	.uleb128 .Ltmp147-.Ltmp146              #   Call between .Ltmp146 and .Ltmp147
	.uleb128 .Ltmp148-.Lfunc_begin13        #     jumps to .Ltmp148
	.byte	0                               #   On action: cleanup
	.uleb128 .Ltmp147-.Lfunc_begin13        # >> Call Site 3 <<
	.uleb128 .Ltmp149-.Ltmp147              #   Call between .Ltmp147 and .Ltmp149
	.byte	0                               #     has no landing pad
	.byte	0                               #   On action: cleanup
	.uleb128 .Ltmp149-.Lfunc_begin13        # >> Call Site 4 <<
	.uleb128 .Ltmp150-.Ltmp149              #   Call between .Ltmp149 and .Ltmp150
	.uleb128 .Ltmp151-.Lfunc_begin13        #     jumps to .Ltmp151
	.byte	0                               #   On action: cleanup
	.uleb128 .Ltmp150-.Lfunc_begin13        # >> Call Site 5 <<
	.uleb128 .Lfunc_end29-.Ltmp150          #   Call between .Ltmp150 and .Lfunc_end29
	.byte	0                               #     has no landing pad
	.byte	0                               #   On action: cleanup
.Lcst_end13:
	.p2align	2, 0x0
                                        # -- End function
	.text
	.hidden	_ZN9benchmark8internal9Benchmark5ApplyEPFvPS1_E # -- Begin function _ZN9benchmark8internal9Benchmark5ApplyEPFvPS1_E
	.globl	_ZN9benchmark8internal9Benchmark5ApplyEPFvPS1_E
	.p2align	2
	.type	_ZN9benchmark8internal9Benchmark5ApplyEPFvPS1_E,@function
_ZN9benchmark8internal9Benchmark5ApplyEPFvPS1_E: # @_ZN9benchmark8internal9Benchmark5ApplyEPFvPS1_E
	.cfi_startproc
# %bb.0:                                # %entry
	addi.d	$sp, $sp, -16
	.cfi_def_cfa_offset 16
	st.d	$ra, $sp, 8                     # 8-byte Folded Spill
