	.file	"7zHandler.cpp"
	.text
	.globl	_ZN8NArchive3N7z8CHandlerC2Ev   # -- Begin function _ZN8NArchive3N7z8CHandlerC2Ev
	.p2align	2
	.type	_ZN8NArchive3N7z8CHandlerC2Ev,@function
_ZN8NArchive3N7z8CHandlerC2Ev:          # @_ZN8NArchive3N7z8CHandlerC2Ev
.Lfunc_begin0:
	.cfi_startproc
	.cfi_personality 155, DW.ref.__gxx_personality_v0
	.cfi_lsda 27, .Lexception0
# %bb.0:                                # %entry
	addi.d	$sp, $sp, -96
	.cfi_def_cfa_offset 96
	st.d	$ra, $sp, 88                    # 8-byte Folded Spill
	st.d	$fp, $sp, 80                    # 8-byte Folded Spill
	st.d	$s0, $sp, 72                    # 8-byte Folded Spill
	st.d	$s1, $sp, 64                    # 8-byte Folded Spill
	st.d	$s2, $sp, 56                    # 8-byte Folded Spill
	st.d	$s3, $sp, 48                    # 8-byte Folded Spill
	st.d	$s4, $sp, 40                    # 8-byte Folded Spill
	.cfi_offset 1, -8
	.cfi_offset 22, -16
	.cfi_offset 23, -24
	.cfi_offset 24, -32
	.cfi_offset 25, -40
	.cfi_offset 26, -48
	.cfi_offset 27, -56
	move	$s0, $a0
	addi.d	$fp, $a0, 8
	addi.d	$s1, $a0, 16
	vrepli.b	$vr0, 0
	vst	$vr0, $sp, 16                   # 16-byte Folded Spill
	vst	$vr0, $a0, 24
	ori	$s2, $zero, 8
	st.d	$s2, $a0, 40
	pcalau12i	$a0, %pc_hi20(_ZTV13CObjectVectorIN8NArchive14COneMethodInfoEE+16)
	addi.d	$a0, $a0, %pc_lo12(_ZTV13CObjectVectorIN8NArchive14COneMethodInfoEE+16)
	st.d	$a0, $s0, 16
.Ltmp0:                                 # EH_LABEL
	move	$a0, $fp
	pcaddu18i	$ra, %call36(_ZN8NArchive11COutHandler4InitEv)
	jirl	$ra, $ra, 0
.Ltmp1:                                 # EH_LABEL
# %bb.1:                                # %invoke.cont5
	st.w	$zero, $s0, 128
	pcalau12i	$a0, %pc_hi20(_ZTVN8NArchive3N7z8CHandlerE)
	addi.d	$a0, $a0, %pc_lo12(_ZTVN8NArchive3N7z8CHandlerE)
	addi.d	$a1, $a0, 16
	st.d	$a1, $s0, 0
	addi.d	$a1, $a0, 176
	st.d	$a1, $s0, 112
	addi.d	$a0, $a0, 240
	st.d	$a0, $s0, 120
	st.d	$zero, $s0, 136
	addi.d	$s1, $s0, 144
	vld	$vr0, $sp, 16                   # 16-byte Folded Reload
	vst	$vr0, $s0, 152
	st.d	$s2, $s0, 168
	pcalau12i	$a0, %pc_hi20(_ZTV13CRecordVectorIyE+16)
	addi.d	$a0, $a0, %pc_lo12(_ZTV13CRecordVectorIyE+16)
	st.d	$a0, $s0, 144
	vst	$vr0, $s0, 184
	ori	$a2, $zero, 1
	st.d	$a2, $s0, 200
	pcalau12i	$a1, %pc_hi20(_ZTV13CRecordVectorIbE+16)
	addi.d	$a3, $a1, %pc_lo12(_ZTV13CRecordVectorIbE+16)
	st.d	$a3, $s0, 176
	vst	$vr0, $s0, 216
	ori	$a1, $zero, 4
	st.d	$a1, $s0, 232
	pcalau12i	$a4, %pc_hi20(_ZTV13CRecordVectorIjE+16)
	addi.d	$a4, $a4, %pc_lo12(_ZTV13CRecordVectorIjE+16)
	st.d	$a4, $s0, 208
	vst	$vr0, $s0, 248
	st.d	$s2, $s0, 264
	pcalau12i	$a5, %pc_hi20(_ZTV13CObjectVectorIN8NArchive3N7z7CFolderEE+16)
	addi.d	$a5, $a5, %pc_lo12(_ZTV13CObjectVectorIN8NArchive3N7z7CFolderEE+16)
	st.d	$a5, $s0, 240
	vst	$vr0, $s0, 280
	st.d	$a1, $s0, 296
	st.d	$a4, $s0, 272
	vst	$vr0, $s0, 312
	st.d	$s2, $s0, 328
	pcalau12i	$a5, %pc_hi20(_ZTV13CObjectVectorIN8NArchive3N7z9CFileItemEE+16)
	addi.d	$a5, $a5, %pc_lo12(_ZTV13CObjectVectorIN8NArchive3N7z9CFileItemEE+16)
	st.d	$a5, $s0, 304
	vst	$vr0, $s0, 344
	st.d	$s2, $s0, 360
	st.d	$a0, $s0, 336
	vst	$vr0, $s0, 376
	st.d	$a2, $s0, 392
	st.d	$a3, $s0, 368
	vst	$vr0, $s0, 408
	st.d	$s2, $s0, 424
	st.d	$a0, $s0, 400
	vst	$vr0, $s0, 440
	st.d	$a2, $s0, 456
	st.d	$a3, $s0, 432
	vst	$vr0, $s0, 472
	st.d	$s2, $s0, 488
	st.d	$a0, $s0, 464
	vst	$vr0, $s0, 504
	st.d	$a2, $s0, 520
	st.d	$a3, $s0, 496
	vst	$vr0, $s0, 536
	st.d	$s2, $s0, 552
	st.d	$a0, $s0, 528
	vst	$vr0, $s0, 568
	st.d	$a2, $s0, 584
	st.d	$a3, $s0, 560
	vst	$vr0, $s0, 600
	st.d	$a2, $s0, 616
	st.d	$a3, $s0, 592
	vst	$vr0, $s0, 672
	st.d	$s2, $s0, 688
	st.d	$a0, $s0, 664
	vst	$vr0, $s0, 704
	st.d	$s2, $s0, 720
	st.d	$a0, $s0, 696
	vst	$vr0, $s0, 736
	st.d	$a1, $s0, 752
	st.d	$a4, $s0, 728
	vst	$vr0, $s0, 768
	st.d	$a1, $s0, 784
	st.d	$a4, $s0, 760
	vst	$vr0, $s0, 800
	st.d	$a1, $s0, 816
	st.d	$a4, $s0, 792
	addi.d	$s3, $s0, 848
	vst	$vr0, $s0, 856
	ori	$a2, $zero, 16
	st.d	$a2, $s0, 872
	pcalau12i	$a2, %pc_hi20(_ZTV13CRecordVectorIN8NArchive3N7z5CBindEE+16)
	addi.d	$a2, $a2, %pc_lo12(_ZTV13CRecordVectorIN8NArchive3N7z5CBindEE+16)
	st.d	$a2, $s0, 848
	addi.d	$s4, $s0, 880
	vst	$vr0, $s0, 888
	st.d	$s2, $s0, 904
	st.d	$a0, $s0, 880
	st.w	$a1, $s0, 12
	st.b	$zero, $s0, 840
.Ltmp3:                                 # EH_LABEL
	move	$a0, $fp
	pcaddu18i	$ra, %call36(_ZN8NArchive11COutHandler4InitEv)
	jirl	$ra, $ra, 0
.Ltmp4:                                 # EH_LABEL
# %bb.2:                                # %invoke.cont13
	ld.d	$s4, $sp, 40                    # 8-byte Folded Reload
	ld.d	$s3, $sp, 48                    # 8-byte Folded Reload
	ld.d	$s2, $sp, 56                    # 8-byte Folded Reload
	ld.d	$s1, $sp, 64                    # 8-byte Folded Reload
	ld.d	$s0, $sp, 72                    # 8-byte Folded Reload
	ld.d	$fp, $sp, 80                    # 8-byte Folded Reload
	ld.d	$ra, $sp, 88                    # 8-byte Folded Reload
	addi.d	$sp, $sp, 96
	ret
.LBB0_3:                                # %lpad12
.Ltmp5:                                 # EH_LABEL
	move	$s2, $a0
	move	$a0, $s4
	pcaddu18i	$ra, %call36(_ZN17CBaseRecordVectorD2Ev)
	jirl	$ra, $ra, 0
	move	$a0, $s3
	pcaddu18i	$ra, %call36(_ZN17CBaseRecordVectorD2Ev)
	jirl	$ra, $ra, 0
	move	$a0, $s1
	pcaddu18i	$ra, %call36(_ZN8NArchive3N7z18CArchiveDatabaseExD2Ev)
	jirl	$ra, $ra, 0
	ld.d	$a0, $s0, 136
	beqz	$a0, .LBB0_5
# %bb.4:                                # %if.then.i
	ld.d	$a1, $a0, 0
	ld.d	$a1, $a1, 16
.Ltmp6:                                 # EH_LABEL
	jirl	$ra, $a1, 0
.Ltmp7:                                 # EH_LABEL
.LBB0_5:                                # %_ZN9CMyComPtrI9IInStreamED2Ev.exit
	move	$a0, $fp
	pcaddu18i	$ra, %call36(_ZN8NArchive11COutHandlerD2Ev)
	jirl	$ra, $ra, 0
	move	$a0, $s2
	pcaddu18i	$ra, %call36(_Unwind_Resume)
	jirl	$ra, $ra, 0
.LBB0_6:                                # %terminate.lpad.i
.Ltmp8:                                 # EH_LABEL
	pcaddu18i	$ra, %call36(__clang_call_terminate)
	jirl	$ra, $ra, 0
.LBB0_7:                                # %lpad.i
.Ltmp2:                                 # EH_LABEL
	move	$s2, $a0
	move	$a0, $s1
	pcaddu18i	$ra, %call36(_ZN13CObjectVectorIN8NArchive14COneMethodInfoEED2Ev)
	jirl	$ra, $ra, 0
	move	$a0, $s2
	pcaddu18i	$ra, %call36(_Unwind_Resume)
	jirl	$ra, $ra, 0
.Lfunc_end0:
	.size	_ZN8NArchive3N7z8CHandlerC2Ev, .Lfunc_end0-_ZN8NArchive3N7z8CHandlerC2Ev
	.cfi_endproc
	.section	.gcc_except_table,"a",@progbits
	.p2align	2, 0x0
GCC_except_table0:
.Lexception0:
	.byte	255                             # @LPStart Encoding = omit
	.byte	155                             # @TType Encoding = indirect pcrel sdata4
	.uleb128 .Lttbase0-.Lttbaseref0
.Lttbaseref0:
	.byte	1                               # Call site Encoding = uleb128
	.uleb128 .Lcst_end0-.Lcst_begin0
.Lcst_begin0:
	.uleb128 .Ltmp0-.Lfunc_begin0           # >> Call Site 1 <<
	.uleb128 .Ltmp1-.Ltmp0                  #   Call between .Ltmp0 and .Ltmp1
	.uleb128 .Ltmp2-.Lfunc_begin0           #     jumps to .Ltmp2
	.byte	0                               #   On action: cleanup
	.uleb128 .Ltmp3-.Lfunc_begin0           # >> Call Site 2 <<
	.uleb128 .Ltmp4-.Ltmp3                  #   Call between .Ltmp3 and .Ltmp4
	.uleb128 .Ltmp5-.Lfunc_begin0           #     jumps to .Ltmp5
	.byte	0                               #   On action: cleanup
	.uleb128 .Ltmp4-.Lfunc_begin0           # >> Call Site 3 <<
	.uleb128 .Ltmp6-.Ltmp4                  #   Call between .Ltmp4 and .Ltmp6
	.byte	0                               #     has no landing pad
	.byte	0                               #   On action: cleanup
	.uleb128 .Ltmp6-.Lfunc_begin0           # >> Call Site 4 <<
	.uleb128 .Ltmp7-.Ltmp6                  #   Call between .Ltmp6 and .Ltmp7
	.uleb128 .Ltmp8-.Lfunc_begin0           #     jumps to .Ltmp8
	.byte	1                               #   On action: 1
	.uleb128 .Ltmp7-.Lfunc_begin0           # >> Call Site 5 <<
	.uleb128 .Lfunc_end0-.Ltmp7             #   Call between .Ltmp7 and .Lfunc_end0
	.byte	0                               #     has no landing pad
	.byte	0                               #   On action: cleanup
.Lcst_end0:
	.byte	1                               # >> Action Record 1 <<
                                        #   Catch TypeInfo 1
	.byte	0                               #   No further actions
	.p2align	2, 0x0
                                        # >> Catch TypeInfos <<
	.word	0                               # TypeInfo 1
.Lttbase0:
	.p2align	2, 0x0
                                        # -- End function
	.section	.text._ZN8NArchive3N7z18CArchiveDatabaseExD2Ev,"axG",@progbits,_ZN8NArchive3N7z18CArchiveDatabaseExD2Ev,comdat
	.weak	_ZN8NArchive3N7z18CArchiveDatabaseExD2Ev # -- Begin function _ZN8NArchive3N7z18CArchiveDatabaseExD2Ev
	.p2align	2
	.type	_ZN8NArchive3N7z18CArchiveDatabaseExD2Ev,@function
_ZN8NArchive3N7z18CArchiveDatabaseExD2Ev: # @_ZN8NArchive3N7z18CArchiveDatabaseExD2Ev
# %bb.0:                                # %entry
	addi.d	$sp, $sp, -16
	st.d	$ra, $sp, 8                     # 8-byte Folded Spill
	st.d	$fp, $sp, 0                     # 8-byte Folded Spill
	move	$fp, $a0
	addi.d	$a0, $a0, 648
	pcaddu18i	$ra, %call36(_ZN17CBaseRecordVectorD2Ev)
	jirl	$ra, $ra, 0
	addi.d	$a0, $fp, 616
	pcaddu18i	$ra, %call36(_ZN17CBaseRecordVectorD2Ev)
	jirl	$ra, $ra, 0
	addi.d	$a0, $fp, 584
	pcaddu18i	$ra, %call36(_ZN17CBaseRecordVectorD2Ev)
	jirl	$ra, $ra, 0
	addi.d	$a0, $fp, 552
	pcaddu18i	$ra, %call36(_ZN17CBaseRecordVectorD2Ev)
	jirl	$ra, $ra, 0
	addi.d	$a0, $fp, 520
	pcaddu18i	$ra, %call36(_ZN17CBaseRecordVectorD2Ev)
	jirl	$ra, $ra, 0
	move	$a0, $fp
	ld.d	$fp, $sp, 0                     # 8-byte Folded Reload
	ld.d	$ra, $sp, 8                     # 8-byte Folded Reload
	addi.d	$sp, $sp, 16
	pcaddu18i	$t8, %call36(_ZN8NArchive3N7z16CArchiveDatabaseD2Ev)
	jr	$t8
.Lfunc_end1:
	.size	_ZN8NArchive3N7z18CArchiveDatabaseExD2Ev, .Lfunc_end1-_ZN8NArchive3N7z18CArchiveDatabaseExD2Ev
                                        # -- End function
	.section	.text._ZN8NArchive11COutHandlerD2Ev,"axG",@progbits,_ZN8NArchive11COutHandlerD2Ev,comdat
	.weak	_ZN8NArchive11COutHandlerD2Ev   # -- Begin function _ZN8NArchive11COutHandlerD2Ev
	.p2align	2
	.type	_ZN8NArchive11COutHandlerD2Ev,@function
_ZN8NArchive11COutHandlerD2Ev:          # @_ZN8NArchive11COutHandlerD2Ev
.Lfunc_begin1:
	.cfi_startproc
	.cfi_personality 155, DW.ref.__gxx_personality_v0
	.cfi_lsda 27, .Lexception1
# %bb.0:                                # %entry
	addi.d	$sp, $sp, -16
	.cfi_def_cfa_offset 16
	st.d	$ra, $sp, 8                     # 8-byte Folded Spill
	st.d	$fp, $sp, 0                     # 8-byte Folded Spill
	.cfi_offset 1, -8
	.cfi_offset 22, -16
	addi.d	$fp, $a0, 8
	pcalau12i	$a1, %pc_hi20(_ZTV13CObjectVectorIN8NArchive14COneMethodInfoEE+16)
	addi.d	$a1, $a1, %pc_lo12(_ZTV13CObjectVectorIN8NArchive14COneMethodInfoEE+16)
	st.d	$a1, $a0, 8
.Ltmp9:                                 # EH_LABEL
	move	$a0, $fp
	pcaddu18i	$ra, %call36(_ZN17CBaseRecordVector5ClearEv)
	jirl	$ra, $ra, 0
.Ltmp10:                                # EH_LABEL
# %bb.1:                                # %_ZN13CObjectVectorIN8NArchive14COneMethodInfoEED2Ev.exit
	move	$a0, $fp
	ld.d	$fp, $sp, 0                     # 8-byte Folded Reload
	ld.d	$ra, $sp, 8                     # 8-byte Folded Reload
	addi.d	$sp, $sp, 16
	pcaddu18i	$t8, %call36(_ZN17CBaseRecordVectorD2Ev)
	jr	$t8
.LBB2_2:                                # %terminate.lpad.i
.Ltmp11:                                # EH_LABEL
	pcaddu18i	$ra, %call36(__clang_call_terminate)
	jirl	$ra, $ra, 0
.Lfunc_end2:
	.size	_ZN8NArchive11COutHandlerD2Ev, .Lfunc_end2-_ZN8NArchive11COutHandlerD2Ev
	.cfi_endproc
	.section	.gcc_except_table._ZN8NArchive11COutHandlerD2Ev,"aG",@progbits,_ZN8NArchive11COutHandlerD2Ev,comdat
	.p2align	2, 0x0
GCC_except_table2:
.Lexception1:
	.byte	255                             # @LPStart Encoding = omit
	.byte	155                             # @TType Encoding = indirect pcrel sdata4
	.uleb128 .Lttbase1-.Lttbaseref1
.Lttbaseref1:
	.byte	1                               # Call site Encoding = uleb128
	.uleb128 .Lcst_end1-.Lcst_begin1
.Lcst_begin1:
	.uleb128 .Ltmp9-.Lfunc_begin1           # >> Call Site 1 <<
	.uleb128 .Ltmp10-.Ltmp9                 #   Call between .Ltmp9 and .Ltmp10
	.uleb128 .Ltmp11-.Lfunc_begin1          #     jumps to .Ltmp11
	.byte	1                               #   On action: 1
	.uleb128 .Ltmp10-.Lfunc_begin1          # >> Call Site 2 <<
	.uleb128 .Lfunc_end2-.Ltmp10            #   Call between .Ltmp10 and .Lfunc_end2
	.byte	0                               #     has no landing pad
	.byte	0                               #   On action: cleanup
.Lcst_end1:
	.byte	1                               # >> Action Record 1 <<
                                        #   Catch TypeInfo 1
	.byte	0                               #   No further actions
	.p2align	2, 0x0
                                        # >> Catch TypeInfos <<
	.word	0                               # TypeInfo 1
.Lttbase1:
	.p2align	2, 0x0
                                        # -- End function
	.text
	.globl	_ZN8NArchive3N7z8CHandler16GetNumberOfItemsEPj # -- Begin function _ZN8NArchive3N7z8CHandler16GetNumberOfItemsEPj
	.p2align	2
	.type	_ZN8NArchive3N7z8CHandler16GetNumberOfItemsEPj,@function
_ZN8NArchive3N7z8CHandler16GetNumberOfItemsEPj: # @_ZN8NArchive3N7z8CHandler16GetNumberOfItemsEPj
# %bb.0:                                # %entry
	ld.w	$a0, $a0, 316
	st.w	$a0, $a1, 0
	move	$a0, $zero
	ret
.Lfunc_end3:
	.size	_ZN8NArchive3N7z8CHandler16GetNumberOfItemsEPj, .Lfunc_end3-_ZN8NArchive3N7z8CHandler16GetNumberOfItemsEPj
                                        # -- End function
	.globl	_ZN8NArchive3N7z8CHandler18GetArchivePropertyEjP14tagPROPVARIANT # -- Begin function _ZN8NArchive3N7z8CHandler18GetArchivePropertyEjP14tagPROPVARIANT
	.p2align	2
	.type	_ZN8NArchive3N7z8CHandler18GetArchivePropertyEjP14tagPROPVARIANT,@function
_ZN8NArchive3N7z8CHandler18GetArchivePropertyEjP14tagPROPVARIANT: # @_ZN8NArchive3N7z8CHandler18GetArchivePropertyEjP14tagPROPVARIANT
.Lfunc_begin2:
	.cfi_startproc
	.cfi_personality 155, DW.ref.__gxx_personality_v0
	.cfi_lsda 27, .Lexception2
# %bb.0:                                # %entry
	addi.d	$sp, $sp, -192
	.cfi_def_cfa_offset 192
	st.d	$ra, $sp, 184                   # 8-byte Folded Spill
	st.d	$fp, $sp, 176                   # 8-byte Folded Spill
	st.d	$s0, $sp, 168                   # 8-byte Folded Spill
	st.d	$s1, $sp, 160                   # 8-byte Folded Spill
	st.d	$s2, $sp, 152                   # 8-byte Folded Spill
	st.d	$s3, $sp, 144                   # 8-byte Folded Spill
	st.d	$s4, $sp, 136                   # 8-byte Folded Spill
	st.d	$s5, $sp, 128                   # 8-byte Folded Spill
	st.d	$s6, $sp, 120                   # 8-byte Folded Spill
	st.d	$s7, $sp, 112                   # 8-byte Folded Spill
	.cfi_offset 1, -8
	.cfi_offset 22, -16
	.cfi_offset 23, -24
	.cfi_offset 24, -32
	.cfi_offset 25, -40
	.cfi_offset 26, -48
	.cfi_offset 27, -56
	.cfi_offset 28, -64
	.cfi_offset 29, -72
	.cfi_offset 30, -80
	move	$fp, $a2
	move	$s0, $a0
	addi.d	$a0, $a1, -13
	ori	$a1, $zero, 32
	st.w	$zero, $sp, 96
	bltu	$a1, $a0, .LBB4_50
# %bb.1:                                # %entry
	slli.d	$a0, $a0, 2
	pcalau12i	$a1, %pc_hi20(.LJTI4_0)
	addi.d	$a1, $a1, %pc_lo12(.LJTI4_0)
	ldx.w	$a0, $a1, $a0
	add.d	$a0, $a1, $a0
	jr	$a0
.LBB4_2:                                # %sw.bb71
	ld.w	$a1, $s0, 284
	ori	$a0, $zero, 1
	blt	$a1, $a0, .LBB4_48
# %bb.3:                                # %for.body.lr.ph.i
	ld.d	$a2, $s0, 288
	addi.d	$a3, $a1, -1
	.p2align	4, , 16
.LBB4_4:                                # %for.body.i
                                        # =>This Inner Loop Header: Depth=1
	ld.w	$a5, $a2, 0
	sltu	$a1, $a0, $a5
	bltu	$a0, $a5, .LBB4_49
# %bb.5:                                # %for.body.i
                                        #   in Loop: Header=BB4_4 Depth=1
	move	$a4, $a3
	addi.d	$a3, $a3, -1
	addi.d	$a2, $a2, 4
	bnez	$a4, .LBB4_4
	b	.LBB4_49
.LBB4_6:                                # %sw.bb93
	ld.d	$a1, $s0, 632
	bnez	$a1, .LBB4_22
	b	.LBB4_50
.LBB4_7:                                # %sw.bb85
	ld.d	$a1, $s0, 824
	b	.LBB4_22
.LBB4_8:                                # %sw.bb
	st.d	$zero, $sp, 88
.Ltmp18:                                # EH_LABEL
	ori	$a0, $zero, 16
	pcaddu18i	$ra, %call36(_Znam)
	jirl	$ra, $ra, 0
.Ltmp19:                                # EH_LABEL
# %bb.9:                                # %invoke.cont3
	st.d	$a0, $sp, 80
	st.w	$zero, $a0, 0
	ori	$a0, $zero, 4
	st.w	$a0, $sp, 92
	vrepli.b	$vr0, 0
	vst	$vr0, $sp, 56
	ori	$a0, $zero, 8
	st.d	$a0, $sp, 72
	ld.w	$a0, $s0, 252
	pcalau12i	$a1, %pc_hi20(_ZTV13CRecordVectorIyE+16)
	addi.d	$a1, $a1, %pc_lo12(_ZTV13CRecordVectorIyE+16)
	ori	$s2, $zero, 1
	st.d	$a1, $sp, 48
	blt	$a0, $s2, .LBB4_45
# %bb.10:                               # %invoke.cont11.lr.ph
	move	$s3, $zero
	b	.LBB4_13
	.p2align	4, , 16
.LBB4_11:                               # %for.cond.cleanup.loopexit
                                        #   in Loop: Header=BB4_13 Depth=1
	ld.w	$a0, $s0, 252
.LBB4_12:                               # %for.cond.cleanup
                                        #   in Loop: Header=BB4_13 Depth=1
	addi.d	$s3, $s3, 1
	bge	$s3, $a0, .LBB4_23
.LBB4_13:                               # %invoke.cont11
                                        # =>This Loop Header: Depth=1
                                        #     Child Loop BB4_15 Depth 2
                                        #       Child Loop BB4_16 Depth 3
	ld.d	$a1, $s0, 256
	slli.d	$a2, $s3, 3
	ldx.d	$s4, $a1, $a2
	ld.w	$s5, $s4, 12
	bge	$s5, $s2, .LBB4_15
	b	.LBB4_12
	.p2align	4, , 16
.LBB4_14:                               # %_ZN13CRecordVectorIyE17AddToUniqueSortedERKy.exit
                                        #   in Loop: Header=BB4_15 Depth=2
	bge	$s2, $s6, .LBB4_11
.LBB4_15:                               # %invoke.cont20
                                        #   Parent Loop BB4_13 Depth=1
                                        # =>  This Loop Header: Depth=2
                                        #       Child Loop BB4_16 Depth 3
	ld.d	$a0, $s4, 16
	move	$s6, $s5
	addi.d	$s5, $s5, -1
	slli.d	$a1, $s5, 3
	ldx.d	$a2, $a0, $a1
	ld.w	$a1, $sp, 60
	ld.d	$a0, $sp, 64
	ld.d	$s7, $a2, 0
	move	$a2, $zero
	.p2align	4, , 16
.LBB4_16:                               # %while.cond.i
                                        #   Parent Loop BB4_13 Depth=1
                                        #     Parent Loop BB4_15 Depth=2
                                        # =>    This Inner Loop Header: Depth=3
	addi.w	$s1, $a1, 0
	addi.w	$a3, $a2, 0
	beq	$a3, $s1, .LBB4_18
# %bb.17:                               # %while.body.i
                                        #   in Loop: Header=BB4_16 Depth=3
	add.d	$a3, $a2, $a1
	bstrpick.d	$a4, $a3, 31, 31
	add.w	$a3, $a3, $a4
	srai.d	$a3, $a3, 1
	slli.d	$a4, $a3, 3
	ldx.d	$a4, $a0, $a4
	sltu	$a5, $s7, $a4
	addi.d	$a6, $a3, 1
	maskeqz	$a3, $a3, $a5
	masknez	$a1, $a1, $a5
	or	$a1, $a3, $a1
	masknez	$a3, $a6, $a5
	maskeqz	$a2, $a2, $a5
	or	$a2, $a2, $a3
	bne	$s7, $a4, .LBB4_16
	b	.LBB4_14
	.p2align	4, , 16
.LBB4_18:                               # %while.end.i
                                        #   in Loop: Header=BB4_15 Depth=2
.Ltmp21:                                # EH_LABEL
	addi.d	$a0, $sp, 48
	move	$a1, $s1
	pcaddu18i	$ra, %call36(_ZN17CBaseRecordVector13InsertOneItemEi)
	jirl	$ra, $ra, 0
.Ltmp22:                                # EH_LABEL
# %bb.19:                               # %.noexc
                                        #   in Loop: Header=BB4_15 Depth=2
	ld.d	$a0, $sp, 64
	slli.d	$a1, $s1, 3
	stx.d	$s7, $a0, $a1
	b	.LBB4_14
.LBB4_20:                               # %sw.bb78
	ld.w	$a1, $s0, 252
.Ltmp14:                                # EH_LABEL
	addi.d	$a0, $sp, 96
	pcaddu18i	$ra, %call36(_ZN8NWindows4NCOM12CPropVariantaSEj)
	jirl	$ra, $ra, 0
.Ltmp15:                                # EH_LABEL
	b	.LBB4_50
.LBB4_21:                               # %sw.bb89
	ld.d	$a1, $s0, 832
.LBB4_22:                               # %if.then96.invoke
.Ltmp12:                                # EH_LABEL
	addi.d	$a0, $sp, 96
	pcaddu18i	$ra, %call36(_ZN8NWindows4NCOM12CPropVariantaSEy)
	jirl	$ra, $ra, 0
.Ltmp13:                                # EH_LABEL
	b	.LBB4_50
.LBB4_23:                               # %for.cond26.preheader
	ld.w	$a0, $sp, 60
	ori	$s2, $zero, 1
	blt	$a0, $s2, .LBB4_45
# %bb.24:                               # %for.body30.lr.ph
	move	$s3, $zero
	ori	$s4, $zero, 4
	addi.w	$s5, $zero, -1
	b	.LBB4_26
	.p2align	4, , 16
.LBB4_25:                               # %_ZN11CStringBaseIwED2Ev.exit44
                                        #   in Loop: Header=BB4_26 Depth=1
	ld.w	$a0, $sp, 60
	addi.d	$s3, $s3, 1
	bge	$s3, $a0, .LBB4_45
.LBB4_26:                               # %for.body30
                                        # =>This Loop Header: Depth=1
                                        #     Child Loop BB4_37 Depth 2
	ld.d	$a0, $sp, 64
	slli.d	$a1, $s3, 3
	ldx.d	$s0, $a0, $a1
	st.d	$zero, $sp, 40
.Ltmp24:                                # EH_LABEL
	ori	$a0, $zero, 16
	pcaddu18i	$ra, %call36(_Znam)
	jirl	$ra, $ra, 0
.Ltmp25:                                # EH_LABEL
# %bb.27:                               # %invoke.cont35
                                        #   in Loop: Header=BB4_26 Depth=1
	st.d	$a0, $sp, 32
	st.w	$zero, $a0, 0
	st.w	$s4, $sp, 44
.Ltmp27:                                # EH_LABEL
	addi.d	$a1, $sp, 32
	move	$a0, $s0
	pcaddu18i	$ra, %call36(_Z10FindMethodyR11CStringBaseIwE)
	jirl	$ra, $ra, 0
.Ltmp28:                                # EH_LABEL
# %bb.28:                               # %invoke.cont37
                                        #   in Loop: Header=BB4_26 Depth=1
	ld.w	$a0, $sp, 40
	bnez	$a0, .LBB4_40
# %bb.29:                               # %if.then
                                        #   in Loop: Header=BB4_26 Depth=1
.Ltmp29:                                # EH_LABEL
	addi.d	$a0, $sp, 16
	move	$a1, $s0
	pcaddu18i	$ra, %call36(_Z23ConvertMethodIdToStringy)
	jirl	$ra, $ra, 0
.Ltmp30:                                # EH_LABEL
# %bb.30:                               # %invoke.cont42
                                        #   in Loop: Header=BB4_26 Depth=1
	ld.d	$s0, $sp, 32
	ld.w	$a0, $sp, 24
	ld.w	$s7, $sp, 44
	st.w	$zero, $sp, 40
	addi.w	$s6, $a0, 1
	st.w	$zero, $s0, 0
	beq	$s6, $s7, .LBB4_36
# %bb.31:                               # %if.end.i.i
                                        #   in Loop: Header=BB4_26 Depth=1
	slti	$a0, $a0, -1
	slli.d	$a1, $s6, 2
	masknez	$a1, $a1, $a0
	maskeqz	$a0, $s5, $a0
	or	$a0, $a0, $a1
.Ltmp32:                                # EH_LABEL
	pcaddu18i	$ra, %call36(_Znam)
	jirl	$ra, $ra, 0
.Ltmp33:                                # EH_LABEL
# %bb.32:                               # %call.i.i.noexc
                                        #   in Loop: Header=BB4_26 Depth=1
	move	$s1, $a0
	blt	$s7, $s2, .LBB4_34
# %bb.33:                               # %delete.notnull.i.i
                                        #   in Loop: Header=BB4_26 Depth=1
	move	$a0, $s0
	pcaddu18i	$ra, %call36(_ZdaPv)
	jirl	$ra, $ra, 0
	ld.w	$a0, $sp, 40
	b	.LBB4_35
.LBB4_34:                               #   in Loop: Header=BB4_26 Depth=1
	move	$a0, $zero
.LBB4_35:                               # %if.end9.i.i
                                        #   in Loop: Header=BB4_26 Depth=1
	st.d	$s1, $sp, 32
	slli.d	$a0, $a0, 2
	stx.w	$zero, $s1, $a0
	st.w	$s6, $sp, 44
	move	$s0, $s1
.LBB4_36:                               # %_ZN11CStringBaseIwE11SetCapacityEi.exit.i
                                        #   in Loop: Header=BB4_26 Depth=1
	ld.d	$a0, $sp, 16
	move	$a1, $zero
	.p2align	4, , 16
.LBB4_37:                               # %while.cond.i.i
                                        #   Parent Loop BB4_26 Depth=1
                                        # =>  This Inner Loop Header: Depth=2
	ldx.w	$a2, $a0, $a1
	stx.w	$a2, $s0, $a1
	addi.d	$a1, $a1, 4
	bnez	$a2, .LBB4_37
# %bb.38:                               # %invoke.cont44
                                        #   in Loop: Header=BB4_26 Depth=1
	ld.w	$a1, $sp, 24
	st.w	$a1, $sp, 40
	beqz	$a0, .LBB4_40
# %bb.39:                               # %delete.notnull.i
                                        #   in Loop: Header=BB4_26 Depth=1
	pcaddu18i	$ra, %call36(_ZdaPv)
	jirl	$ra, $ra, 0
.LBB4_40:                               # %if.end
                                        #   in Loop: Header=BB4_26 Depth=1
	ld.w	$a0, $sp, 88
	beqz	$a0, .LBB4_42
# %bb.41:                               # %if.then50
                                        #   in Loop: Header=BB4_26 Depth=1
.Ltmp35:                                # EH_LABEL
	addi.d	$a0, $sp, 80
	ori	$a1, $zero, 32
	pcaddu18i	$ra, %call36(_ZN11CStringBaseIwEpLEw)
	jirl	$ra, $ra, 0
.Ltmp36:                                # EH_LABEL
.LBB4_42:                               # %if.end53
                                        #   in Loop: Header=BB4_26 Depth=1
.Ltmp37:                                # EH_LABEL
	addi.d	$a0, $sp, 80
	addi.d	$a1, $sp, 32
	pcaddu18i	$ra, %call36(_ZN11CStringBaseIwEpLERKS0_)
	jirl	$ra, $ra, 0
.Ltmp38:                                # EH_LABEL
# %bb.43:                               # %invoke.cont54
                                        #   in Loop: Header=BB4_26 Depth=1
	ld.d	$a0, $sp, 32
	beqz	$a0, .LBB4_25
# %bb.44:                               # %delete.notnull.i43
                                        #   in Loop: Header=BB4_26 Depth=1
	pcaddu18i	$ra, %call36(_ZdaPv)
	jirl	$ra, $ra, 0
	b	.LBB4_25
.LBB4_45:                               # %for.end61
	ld.d	$a1, $sp, 80
.Ltmp40:                                # EH_LABEL
	addi.d	$a0, $sp, 96
	pcaddu18i	$ra, %call36(_ZN8NWindows4NCOM12CPropVariantaSEPKw)
	jirl	$ra, $ra, 0
.Ltmp41:                                # EH_LABEL
# %bb.46:                               # %invoke.cont64
	addi.d	$a0, $sp, 48
	pcaddu18i	$ra, %call36(_ZN17CBaseRecordVectorD2Ev)
	jirl	$ra, $ra, 0
	ld.d	$a0, $sp, 80
	beqz	$a0, .LBB4_50
# %bb.47:                               # %delete.notnull.i49
	pcaddu18i	$ra, %call36(_ZdaPv)
	jirl	$ra, $ra, 0
	b	.LBB4_50
.LBB4_48:
	move	$a1, $zero
.LBB4_49:                               # %invoke.cont74
.Ltmp16:                                # EH_LABEL
	addi.d	$a0, $sp, 96
	pcaddu18i	$ra, %call36(_ZN8NWindows4NCOM12CPropVariantaSEb)
	jirl	$ra, $ra, 0
.Ltmp17:                                # EH_LABEL
.LBB4_50:                               # %sw.epilog
.Ltmp43:                                # EH_LABEL
	addi.d	$a0, $sp, 96
	move	$a1, $fp
	pcaddu18i	$ra, %call36(_ZN8NWindows4NCOM12CPropVariant6DetachEP14tagPROPVARIANT)
	jirl	$ra, $ra, 0
.Ltmp44:                                # EH_LABEL
# %bb.51:                               # %invoke.cont103
.Ltmp52:                                # EH_LABEL
	addi.d	$a0, $sp, 96
	pcaddu18i	$ra, %call36(_ZN8NWindows4NCOM12CPropVariant5ClearEv)
	jirl	$ra, $ra, 0
.Ltmp53:                                # EH_LABEL
# %bb.52:                               # %_ZN8NWindows4NCOM12CPropVariantD2Ev.exit
	move	$a0, $zero
.LBB4_53:                               # %return
	ld.d	$s7, $sp, 112                   # 8-byte Folded Reload
	ld.d	$s6, $sp, 120                   # 8-byte Folded Reload
	ld.d	$s5, $sp, 128                   # 8-byte Folded Reload
	ld.d	$s4, $sp, 136                   # 8-byte Folded Reload
	ld.d	$s3, $sp, 144                   # 8-byte Folded Reload
	ld.d	$s2, $sp, 152                   # 8-byte Folded Reload
	ld.d	$s1, $sp, 160                   # 8-byte Folded Reload
	ld.d	$s0, $sp, 168                   # 8-byte Folded Reload
	ld.d	$fp, $sp, 176                   # 8-byte Folded Reload
	ld.d	$ra, $sp, 184                   # 8-byte Folded Reload
	addi.d	$sp, $sp, 192
	ret
.LBB4_54:                               # %lpad6
.Ltmp42:                                # EH_LABEL
	b	.LBB4_68
.LBB4_55:                               # %lpad2
.Ltmp20:                                # EH_LABEL
	b	.LBB4_61
.LBB4_56:                               # %lpad43
.Ltmp34:                                # EH_LABEL
	ld.d	$a2, $sp, 16
	move	$fp, $a1
	move	$s0, $a0
	beqz	$a2, .LBB4_65
# %bb.57:                               # %delete.notnull.i38
	move	$a0, $a2
	pcaddu18i	$ra, %call36(_ZdaPv)
	jirl	$ra, $ra, 0
	b	.LBB4_65
.LBB4_58:                               # %lpad41
.Ltmp31:                                # EH_LABEL
	b	.LBB4_64
.LBB4_59:                               # %terminate.lpad.i
.Ltmp54:                                # EH_LABEL
	pcaddu18i	$ra, %call36(__clang_call_terminate)
	jirl	$ra, $ra, 0
.LBB4_60:                               # %lpad73
.Ltmp45:                                # EH_LABEL
.LBB4_61:                               # %ehcleanup105
	move	$fp, $a1
	move	$s0, $a0
	b	.LBB4_71
.LBB4_62:                               # %lpad34
.Ltmp26:                                # EH_LABEL
	b	.LBB4_68
.LBB4_63:                               # %lpad36
.Ltmp39:                                # EH_LABEL
.LBB4_64:                               # %ehcleanup56
	move	$fp, $a1
	move	$s0, $a0
.LBB4_65:                               # %ehcleanup56
	ld.d	$a0, $sp, 32
	beqz	$a0, .LBB4_69
# %bb.66:                               # %delete.notnull.i46
	pcaddu18i	$ra, %call36(_ZdaPv)
	jirl	$ra, $ra, 0
	b	.LBB4_69
.LBB4_67:                               # %lpad13
.Ltmp23:                                # EH_LABEL
.LBB4_68:                               # %ehcleanup66
	move	$fp, $a1
	move	$s0, $a0
.LBB4_69:                               # %ehcleanup66
	addi.d	$a0, $sp, 48
	pcaddu18i	$ra, %call36(_ZN17CBaseRecordVectorD2Ev)
	jirl	$ra, $ra, 0
	ld.d	$a0, $sp, 80
	beqz	$a0, .LBB4_71
# %bb.70:                               # %delete.notnull.i52
	pcaddu18i	$ra, %call36(_ZdaPv)
	jirl	$ra, $ra, 0
.LBB4_71:                               # %ehcleanup105
.Ltmp46:                                # EH_LABEL
	addi.d	$a0, $sp, 96
	pcaddu18i	$ra, %call36(_ZN8NWindows4NCOM12CPropVariant5ClearEv)
	jirl	$ra, $ra, 0
.Ltmp47:                                # EH_LABEL
# %bb.72:                               # %_ZN8NWindows4NCOM12CPropVariantD2Ev.exit61
	addi.w	$s1, $fp, 0
	move	$a0, $s0
	pcaddu18i	$ra, %call36(__cxa_begin_catch)
	jirl	$ra, $ra, 0
	ori	$a1, $zero, 2
	beq	$s1, $a1, .LBB4_74
# %bb.73:                               # %catch
	pcaddu18i	$ra, %call36(__cxa_end_catch)
	jirl	$ra, $ra, 0
	lu12i.w	$a0, -524176
	ori	$a0, $a0, 14
	b	.LBB4_53
.LBB4_74:                               # %catch107
	move	$fp, $a0
	ori	$a0, $zero, 8
	pcaddu18i	$ra, %call36(__cxa_allocate_exception)
	jirl	$ra, $ra, 0
	st.d	$fp, $a0, 0
.Ltmp49:                                # EH_LABEL
	pcalau12i	$a1, %got_pc_hi20(_ZTIPKc)
	ld.d	$a1, $a1, %got_pc_lo12(_ZTIPKc)
	move	$a2, $zero
	pcaddu18i	$ra, %call36(__cxa_throw)
	jirl	$ra, $ra, 0
.Ltmp50:                                # EH_LABEL
# %bb.75:                               # %unreachable
.LBB4_76:                               # %lpad109
.Ltmp51:                                # EH_LABEL
	move	$fp, $a0
	pcaddu18i	$ra, %call36(__cxa_end_catch)
	jirl	$ra, $ra, 0
	move	$a0, $fp
	pcaddu18i	$ra, %call36(_Unwind_Resume)
	jirl	$ra, $ra, 0
.LBB4_77:                               # %terminate.lpad.i60
.Ltmp48:                                # EH_LABEL
	pcaddu18i	$ra, %call36(__clang_call_terminate)
	jirl	$ra, $ra, 0
.Lfunc_end4:
	.size	_ZN8NArchive3N7z8CHandler18GetArchivePropertyEjP14tagPROPVARIANT, .Lfunc_end4-_ZN8NArchive3N7z8CHandler18GetArchivePropertyEjP14tagPROPVARIANT
	.cfi_endproc
	.section	.rodata,"a",@progbits
	.p2align	2, 0x0
.LJTI4_0:
	.word	.LBB4_2-.LJTI4_0
	.word	.LBB4_50-.LJTI4_0
	.word	.LBB4_50-.LJTI4_0
	.word	.LBB4_50-.LJTI4_0
	.word	.LBB4_50-.LJTI4_0
	.word	.LBB4_50-.LJTI4_0
	.word	.LBB4_50-.LJTI4_0
	.word	.LBB4_50-.LJTI4_0
	.word	.LBB4_50-.LJTI4_0
	.word	.LBB4_8-.LJTI4_0
	.word	.LBB4_50-.LJTI4_0
	.word	.LBB4_50-.LJTI4_0
	.word	.LBB4_50-.LJTI4_0
	.word	.LBB4_50-.LJTI4_0
	.word	.LBB4_50-.LJTI4_0
	.word	.LBB4_50-.LJTI4_0
	.word	.LBB4_50-.LJTI4_0
	.word	.LBB4_50-.LJTI4_0
	.word	.LBB4_50-.LJTI4_0
	.word	.LBB4_50-.LJTI4_0
	.word	.LBB4_50-.LJTI4_0
	.word	.LBB4_50-.LJTI4_0
	.word	.LBB4_50-.LJTI4_0
	.word	.LBB4_6-.LJTI4_0
	.word	.LBB4_50-.LJTI4_0
	.word	.LBB4_20-.LJTI4_0
	.word	.LBB4_50-.LJTI4_0
	.word	.LBB4_50-.LJTI4_0
	.word	.LBB4_50-.LJTI4_0
	.word	.LBB4_50-.LJTI4_0
	.word	.LBB4_50-.LJTI4_0
	.word	.LBB4_21-.LJTI4_0
	.word	.LBB4_7-.LJTI4_0
	.section	.gcc_except_table,"a",@progbits
	.p2align	2, 0x0
GCC_except_table4:
.Lexception2:
	.byte	255                             # @LPStart Encoding = omit
	.byte	155                             # @TType Encoding = indirect pcrel sdata4
	.uleb128 .Lttbase2-.Lttbaseref2
.Lttbaseref2:
	.byte	1                               # Call site Encoding = uleb128
	.uleb128 .Lcst_end2-.Lcst_begin2
.Lcst_begin2:
	.uleb128 .Ltmp18-.Lfunc_begin2          # >> Call Site 1 <<
	.uleb128 .Ltmp19-.Ltmp18                #   Call between .Ltmp18 and .Ltmp19
	.uleb128 .Ltmp20-.Lfunc_begin2          #     jumps to .Ltmp20
	.byte	3                               #   On action: 2
	.uleb128 .Ltmp21-.Lfunc_begin2          # >> Call Site 2 <<
	.uleb128 .Ltmp22-.Ltmp21                #   Call between .Ltmp21 and .Ltmp22
	.uleb128 .Ltmp23-.Lfunc_begin2          #     jumps to .Ltmp23
	.byte	3                               #   On action: 2
	.uleb128 .Ltmp14-.Lfunc_begin2          # >> Call Site 3 <<
	.uleb128 .Ltmp13-.Ltmp14                #   Call between .Ltmp14 and .Ltmp13
	.uleb128 .Ltmp45-.Lfunc_begin2          #     jumps to .Ltmp45
	.byte	3                               #   On action: 2
	.uleb128 .Ltmp24-.Lfunc_begin2          # >> Call Site 4 <<
	.uleb128 .Ltmp25-.Ltmp24                #   Call between .Ltmp24 and .Ltmp25
	.uleb128 .Ltmp26-.Lfunc_begin2          #     jumps to .Ltmp26
	.byte	3                               #   On action: 2
	.uleb128 .Ltmp27-.Lfunc_begin2          # >> Call Site 5 <<
	.uleb128 .Ltmp28-.Ltmp27                #   Call between .Ltmp27 and .Ltmp28
	.uleb128 .Ltmp39-.Lfunc_begin2          #     jumps to .Ltmp39
	.byte	3                               #   On action: 2
	.uleb128 .Ltmp29-.Lfunc_begin2          # >> Call Site 6 <<
	.uleb128 .Ltmp30-.Ltmp29                #   Call between .Ltmp29 and .Ltmp30
	.uleb128 .Ltmp31-.Lfunc_begin2          #     jumps to .Ltmp31
	.byte	3                               #   On action: 2
	.uleb128 .Ltmp32-.Lfunc_begin2          # >> Call Site 7 <<
	.uleb128 .Ltmp33-.Ltmp32                #   Call between .Ltmp32 and .Ltmp33
	.uleb128 .Ltmp34-.Lfunc_begin2          #     jumps to .Ltmp34
	.byte	3                               #   On action: 2
	.uleb128 .Ltmp33-.Lfunc_begin2          # >> Call Site 8 <<
	.uleb128 .Ltmp35-.Ltmp33                #   Call between .Ltmp33 and .Ltmp35
	.byte	0                               #     has no landing pad
	.byte	0                               #   On action: cleanup
	.uleb128 .Ltmp35-.Lfunc_begin2          # >> Call Site 9 <<
	.uleb128 .Ltmp38-.Ltmp35                #   Call between .Ltmp35 and .Ltmp38
	.uleb128 .Ltmp39-.Lfunc_begin2          #     jumps to .Ltmp39
	.byte	3                               #   On action: 2
	.uleb128 .Ltmp38-.Lfunc_begin2          # >> Call Site 10 <<
	.uleb128 .Ltmp40-.Ltmp38                #   Call between .Ltmp38 and .Ltmp40
	.byte	0                               #     has no landing pad
	.byte	0                               #   On action: cleanup
	.uleb128 .Ltmp40-.Lfunc_begin2          # >> Call Site 11 <<
	.uleb128 .Ltmp41-.Ltmp40                #   Call between .Ltmp40 and .Ltmp41
	.uleb128 .Ltmp42-.Lfunc_begin2          #     jumps to .Ltmp42
	.byte	3                               #   On action: 2
	.uleb128 .Ltmp41-.Lfunc_begin2          # >> Call Site 12 <<
	.uleb128 .Ltmp16-.Ltmp41                #   Call between .Ltmp41 and .Ltmp16
	.byte	0                               #     has no landing pad
	.byte	0                               #   On action: cleanup
	.uleb128 .Ltmp16-.Lfunc_begin2          # >> Call Site 13 <<
	.uleb128 .Ltmp44-.Ltmp16                #   Call between .Ltmp16 and .Ltmp44
	.uleb128 .Ltmp45-.Lfunc_begin2          #     jumps to .Ltmp45
	.byte	3                               #   On action: 2
	.uleb128 .Ltmp52-.Lfunc_begin2          # >> Call Site 14 <<
	.uleb128 .Ltmp53-.Ltmp52                #   Call between .Ltmp52 and .Ltmp53
	.uleb128 .Ltmp54-.Lfunc_begin2          #     jumps to .Ltmp54
	.byte	1                               #   On action: 1
	.uleb128 .Ltmp53-.Lfunc_begin2          # >> Call Site 15 <<
	.uleb128 .Ltmp46-.Ltmp53                #   Call between .Ltmp53 and .Ltmp46
	.byte	0                               #     has no landing pad
	.byte	0                               #   On action: cleanup
	.uleb128 .Ltmp46-.Lfunc_begin2          # >> Call Site 16 <<
	.uleb128 .Ltmp47-.Ltmp46                #   Call between .Ltmp46 and .Ltmp47
	.uleb128 .Ltmp48-.Lfunc_begin2          #     jumps to .Ltmp48
	.byte	1                               #   On action: 1
	.uleb128 .Ltmp47-.Lfunc_begin2          # >> Call Site 17 <<
	.uleb128 .Ltmp49-.Ltmp47                #   Call between .Ltmp47 and .Ltmp49
	.byte	0                               #     has no landing pad
	.byte	0                               #   On action: cleanup
	.uleb128 .Ltmp49-.Lfunc_begin2          # >> Call Site 18 <<
	.uleb128 .Ltmp50-.Ltmp49                #   Call between .Ltmp49 and .Ltmp50
	.uleb128 .Ltmp51-.Lfunc_begin2          #     jumps to .Ltmp51
	.byte	0                               #   On action: cleanup
	.uleb128 .Ltmp50-.Lfunc_begin2          # >> Call Site 19 <<
	.uleb128 .Lfunc_end4-.Ltmp50            #   Call between .Ltmp50 and .Lfunc_end4
	.byte	0                               #     has no landing pad
	.byte	0                               #   On action: cleanup
.Lcst_end2:
	.byte	1                               # >> Action Record 1 <<
                                        #   Catch TypeInfo 1
	.byte	0                               #   No further actions
	.byte	2                               # >> Action Record 2 <<
                                        #   Catch TypeInfo 2
	.byte	125                             #   Continue to action 1
	.p2align	2, 0x0
                                        # >> Catch TypeInfos <<
.Ltmp55:                                # TypeInfo 2
	.word	.L_ZTIPKc.DW.stub-.Ltmp55
	.word	0                               # TypeInfo 1
.Lttbase2:
	.p2align	2, 0x0
                                        # -- End function
	.section	.text._ZN11CStringBaseIwEpLEw,"axG",@progbits,_ZN11CStringBaseIwEpLEw,comdat
	.weak	_ZN11CStringBaseIwEpLEw         # -- Begin function _ZN11CStringBaseIwEpLEw
	.p2align	2
	.type	_ZN11CStringBaseIwEpLEw,@function
_ZN11CStringBaseIwEpLEw:                # @_ZN11CStringBaseIwEpLEw
	.cfi_startproc
# %bb.0:                                # %entry
	addi.d	$sp, $sp, -80
	.cfi_def_cfa_offset 80
	st.d	$ra, $sp, 72                    # 8-byte Folded Spill
	st.d	$fp, $sp, 64                    # 8-byte Folded Spill
	st.d	$s0, $sp, 56                    # 8-byte Folded Spill
	st.d	$s1, $sp, 48                    # 8-byte Folded Spill
	st.d	$s2, $sp, 40                    # 8-byte Folded Spill
	st.d	$s3, $sp, 32                    # 8-byte Folded Spill
	st.d	$s4, $sp, 24                    # 8-byte Folded Spill
	st.d	$s5, $sp, 16                    # 8-byte Folded Spill
	.cfi_offset 1, -8
	.cfi_offset 22, -16
	.cfi_offset 23, -24
	.cfi_offset 24, -32
	.cfi_offset 25, -40
	.cfi_offset 26, -48
	.cfi_offset 27, -56
	.cfi_offset 28, -64
	ld.w	$s0, $a0, 8
	ld.w	$s4, $a0, 12
	nor	$a2, $s0, $zero
	add.w	$a2, $s4, $a2
	bgtz	$a2, .LBB5_21
# %bb.1:                                # %if.end.i
	ori	$a3, $zero, 64
	slt	$a3, $a3, $s4
	bstrpick.d	$a4, $s4, 31, 1
	ori	$a5, $zero, 8
	slt	$a5, $a5, $s4
	ori	$a6, $zero, 4
	masknez	$a6, $a6, $a5
	ori	$a7, $zero, 16
	maskeqz	$a5, $a7, $a5
	or	$a5, $a5, $a6
	masknez	$a5, $a5, $a3
	maskeqz	$a3, $a4, $a3
	or	$a3, $a3, $a5
	add.w	$a4, $a3, $a2
	slti	$a4, $a4, 1
	ori	$s5, $zero, 1
	sub.d	$a2, $s5, $a2
	masknez	$a3, $a3, $a4
	maskeqz	$a2, $a2, $a4
	or	$a2, $a2, $a3
	add.w	$a2, $a2, $s4
	addi.w	$s1, $a2, 1
	beq	$s1, $s4, .LBB5_21
# %bb.2:                                # %if.end.i.i
	move	$s2, $a1
	move	$s3, $a0
	slti	$a0, $a2, -1
	slli.d	$a1, $s1, 2
	masknez	$a1, $a1, $a0
	addi.w	$a2, $zero, -1
	maskeqz	$a0, $a2, $a0
	or	$a0, $a0, $a1
	pcaddu18i	$ra, %call36(_Znam)
	jirl	$ra, $ra, 0
	move	$fp, $a0
	blt	$s4, $s5, .LBB5_8
# %bb.3:                                # %for.cond.preheader.i.i
	ld.d	$a0, $s3, 0
	ori	$a1, $zero, 1
	blt	$s0, $a1, .LBB5_9
# %bb.4:                                # %iter.check
	ori	$a2, $zero, 4
	move	$a1, $zero
	bltu	$s0, $a2, .LBB5_17
# %bb.5:                                # %iter.check
	sub.d	$a2, $fp, $a0
	ori	$a3, $zero, 63
	bgeu	$a3, $a2, .LBB5_17
# %bb.6:                                # %vector.main.loop.iter.check
	ori	$a1, $zero, 16
	bgeu	$s0, $a1, .LBB5_10
# %bb.7:
	move	$a1, $zero
	b	.LBB5_14
.LBB5_8:
	move	$a2, $s3
	move	$a1, $s2
	b	.LBB5_20
.LBB5_9:                                # %for.cond.cleanup.i.i
	move	$a2, $s3
	move	$a1, $s2
	bnez	$a0, .LBB5_19
	b	.LBB5_20
.LBB5_10:                               # %vector.ph
	bstrpick.d	$a1, $s0, 30, 4
	slli.d	$a1, $a1, 4
	addi.d	$a2, $fp, 32
	addi.d	$a3, $a0, 32
	move	$a4, $a1
	.p2align	4, , 16
.LBB5_11:                               # %vector.body
                                        # =>This Inner Loop Header: Depth=1
	xvld	$xr0, $a3, -32
	xvld	$xr1, $a3, 0
	xvst	$xr0, $a2, -32
	xvst	$xr1, $a2, 0
	addi.d	$a4, $a4, -16
	addi.d	$a2, $a2, 64
	addi.d	$a3, $a3, 64
	bnez	$a4, .LBB5_11
# %bb.12:                               # %middle.block
	beq	$a1, $s0, .LBB5_19
# %bb.13:                               # %vec.epilog.iter.check
	andi	$a2, $s0, 12
	beqz	$a2, .LBB5_17
.LBB5_14:                               # %vec.epilog.ph
	move	$a4, $a1
	bstrpick.d	$a1, $s0, 30, 2
	slli.d	$a1, $a1, 2
	sub.d	$a2, $a4, $a1
	alsl.d	$a3, $a4, $fp, 2
	alsl.d	$a4, $a4, $a0, 2
	.p2align	4, , 16
.LBB5_15:                               # %vec.epilog.vector.body
                                        # =>This Inner Loop Header: Depth=1
	vld	$vr0, $a4, 0
	vst	$vr0, $a3, 0
	addi.d	$a2, $a2, 4
	addi.d	$a3, $a3, 16
	addi.d	$a4, $a4, 16
	bnez	$a2, .LBB5_15
# %bb.16:                               # %vec.epilog.middle.block
	beq	$a1, $s0, .LBB5_19
.LBB5_17:                               # %for.body.i.i.preheader
	sub.d	$a2, $s0, $a1
	alsl.d	$a3, $a1, $fp, 2
	alsl.d	$a1, $a1, $a0, 2
	.p2align	4, , 16
.LBB5_18:                               # %for.body.i.i
                                        # =>This Inner Loop Header: Depth=1
	ld.w	$a4, $a1, 0
	st.w	$a4, $a3, 0
	addi.d	$a2, $a2, -1
	addi.d	$a3, $a3, 4
	addi.d	$a1, $a1, 4
	bnez	$a2, .LBB5_18
.LBB5_19:                               # %delete.notnull.i.i
	pcaddu18i	$ra, %call36(_ZdaPv)
	jirl	$ra, $ra, 0
	move	$a1, $s2
	move	$a2, $s3
	ld.w	$s0, $s3, 8
.LBB5_20:                               # %if.end9.i.i
	move	$a0, $a2
	st.d	$fp, $a2, 0
	slli.d	$a2, $s0, 2
	stx.w	$zero, $fp, $a2
	st.w	$s1, $a0, 12
.LBB5_21:                               # %_ZN11CStringBaseIwE10GrowLengthEi.exit
	ld.d	$a2, $a0, 0
	slli.d	$a3, $s0, 2
	stx.w	$a1, $a2, $a3
	addi.w	$a1, $s0, 1
	st.w	$a1, $a0, 8
	slli.d	$a1, $a1, 2
	stx.w	$zero, $a2, $a1
	ld.d	$s5, $sp, 16                    # 8-byte Folded Reload
	ld.d	$s4, $sp, 24                    # 8-byte Folded Reload
	ld.d	$s3, $sp, 32                    # 8-byte Folded Reload
	ld.d	$s2, $sp, 40                    # 8-byte Folded Reload
	ld.d	$s1, $sp, 48                    # 8-byte Folded Reload
	ld.d	$s0, $sp, 56                    # 8-byte Folded Reload
	ld.d	$fp, $sp, 64                    # 8-byte Folded Reload
	ld.d	$ra, $sp, 72                    # 8-byte Folded Reload
	addi.d	$sp, $sp, 80
	ret
.Lfunc_end5:
	.size	_ZN11CStringBaseIwEpLEw, .Lfunc_end5-_ZN11CStringBaseIwEpLEw
	.cfi_endproc
                                        # -- End function
	.section	.text._ZN11CStringBaseIwEpLERKS0_,"axG",@progbits,_ZN11CStringBaseIwEpLERKS0_,comdat
	.weak	_ZN11CStringBaseIwEpLERKS0_     # -- Begin function _ZN11CStringBaseIwEpLERKS0_
	.p2align	2
	.type	_ZN11CStringBaseIwEpLERKS0_,@function
_ZN11CStringBaseIwEpLERKS0_:            # @_ZN11CStringBaseIwEpLERKS0_
	.cfi_startproc
# %bb.0:                                # %entry
	addi.d	$sp, $sp, -64
	.cfi_def_cfa_offset 64
	st.d	$ra, $sp, 56                    # 8-byte Folded Spill
	st.d	$fp, $sp, 48                    # 8-byte Folded Spill
	st.d	$s0, $sp, 40                    # 8-byte Folded Spill
	st.d	$s1, $sp, 32                    # 8-byte Folded Spill
	st.d	$s2, $sp, 24                    # 8-byte Folded Spill
	st.d	$s3, $sp, 16                    # 8-byte Folded Spill
	st.d	$s4, $sp, 8                     # 8-byte Folded Spill
	.cfi_offset 1, -8
	.cfi_offset 22, -16
	.cfi_offset 23, -24
	.cfi_offset 24, -32
	.cfi_offset 25, -40
	.cfi_offset 26, -48
	.cfi_offset 27, -56
	move	$fp, $a1
	ld.w	$s1, $a0, 8
	ld.w	$s4, $a0, 12
	ld.w	$a1, $a1, 8
	nor	$a2, $s1, $zero
	add.w	$a2, $s4, $a2
	bge	$a2, $a1, .LBB6_21
# %bb.1:                                # %if.end.i
	ori	$a3, $zero, 64
	slt	$a3, $a3, $s4
	bstrpick.d	$a4, $s4, 31, 1
	ori	$a5, $zero, 8
	slt	$a5, $a5, $s4
	ori	$a6, $zero, 4
	masknez	$a6, $a6, $a5
	ori	$a7, $zero, 16
	maskeqz	$a5, $a7, $a5
	or	$a5, $a5, $a6
	masknez	$a5, $a5, $a3
	maskeqz	$a3, $a4, $a3
	or	$a3, $a3, $a5
	add.w	$a4, $a3, $a2
	slt	$a4, $a4, $a1
	sub.d	$a1, $a1, $a2
	masknez	$a2, $a3, $a4
	maskeqz	$a1, $a1, $a4
	or	$a1, $a1, $a2
	add.w	$a1, $a1, $s4
	addi.w	$s2, $a1, 1
	beq	$s2, $s4, .LBB6_21
# %bb.2:                                # %if.end.i.i
	move	$s3, $a0
	slti	$a0, $a1, -1
	slli.d	$a1, $s2, 2
	masknez	$a1, $a1, $a0
	addi.w	$a2, $zero, -1
	maskeqz	$a0, $a2, $a0
	or	$a0, $a0, $a1
	pcaddu18i	$ra, %call36(_Znam)
	jirl	$ra, $ra, 0
	ori	$a2, $zero, 1
	move	$s0, $a0
	blt	$s4, $a2, .LBB6_8
# %bb.3:                                # %for.cond.preheader.i.i
	ld.d	$a0, $s3, 0
	blt	$s1, $a2, .LBB6_9
# %bb.4:                                # %iter.check
	ori	$a2, $zero, 4
	move	$a1, $zero
	bltu	$s1, $a2, .LBB6_17
# %bb.5:                                # %iter.check
	sub.d	$a2, $s0, $a0
	ori	$a3, $zero, 63
	bgeu	$a3, $a2, .LBB6_17
# %bb.6:                                # %vector.main.loop.iter.check
	ori	$a1, $zero, 16
	bgeu	$s1, $a1, .LBB6_10
# %bb.7:
	move	$a1, $zero
	b	.LBB6_14
.LBB6_8:
	move	$a1, $s3
	b	.LBB6_20
.LBB6_9:                                # %for.cond.cleanup.i.i
	move	$a1, $s3
	bnez	$a0, .LBB6_19
	b	.LBB6_20
.LBB6_10:                               # %vector.ph
	bstrpick.d	$a1, $s1, 30, 4
	slli.d	$a1, $a1, 4
	addi.d	$a2, $s0, 32
	addi.d	$a3, $a0, 32
	move	$a4, $a1
	.p2align	4, , 16
.LBB6_11:                               # %vector.body
                                        # =>This Inner Loop Header: Depth=1
	xvld	$xr0, $a3, -32
	xvld	$xr1, $a3, 0
	xvst	$xr0, $a2, -32
	xvst	$xr1, $a2, 0
	addi.d	$a4, $a4, -16
	addi.d	$a2, $a2, 64
	addi.d	$a3, $a3, 64
	bnez	$a4, .LBB6_11
# %bb.12:                               # %middle.block
	beq	$a1, $s1, .LBB6_19
# %bb.13:                               # %vec.epilog.iter.check
	andi	$a2, $s1, 12
	beqz	$a2, .LBB6_17
.LBB6_14:                               # %vec.epilog.ph
	move	$a4, $a1
	bstrpick.d	$a1, $s1, 30, 2
	slli.d	$a1, $a1, 2
	sub.d	$a2, $a4, $a1
	alsl.d	$a3, $a4, $s0, 2
	alsl.d	$a4, $a4, $a0, 2
	.p2align	4, , 16
.LBB6_15:                               # %vec.epilog.vector.body
                                        # =>This Inner Loop Header: Depth=1
	vld	$vr0, $a4, 0
	vst	$vr0, $a3, 0
	addi.d	$a2, $a2, 4
	addi.d	$a3, $a3, 16
	addi.d	$a4, $a4, 16
	bnez	$a2, .LBB6_15
# %bb.16:                               # %vec.epilog.middle.block
	beq	$a1, $s1, .LBB6_19
.LBB6_17:                               # %for.body.i.i.preheader
	sub.d	$a2, $s1, $a1
	alsl.d	$a3, $a1, $s0, 2
	alsl.d	$a1, $a1, $a0, 2
	.p2align	4, , 16
.LBB6_18:                               # %for.body.i.i
                                        # =>This Inner Loop Header: Depth=1
	ld.w	$a4, $a1, 0
	st.w	$a4, $a3, 0
	addi.d	$a2, $a2, -1
	addi.d	$a3, $a3, 4
	addi.d	$a1, $a1, 4
	bnez	$a2, .LBB6_18
.LBB6_19:                               # %delete.notnull.i.i
	pcaddu18i	$ra, %call36(_ZdaPv)
	jirl	$ra, $ra, 0
	move	$a1, $s3
	ld.w	$s1, $s3, 8
.LBB6_20:                               # %if.end9.i.i
	move	$a0, $a1
	st.d	$s0, $a1, 0
	slli.d	$a1, $s1, 2
	stx.w	$zero, $s0, $a1
	st.w	$s2, $a0, 12
.LBB6_21:                               # %_ZN11CStringBaseIwE10GrowLengthEi.exit
	ld.d	$a2, $a0, 0
	ld.d	$a1, $fp, 0
	alsl.d	$a2, $s1, $a2, 2
	.p2align	4, , 16
.LBB6_22:                               # %while.cond.i
                                        # =>This Inner Loop Header: Depth=1
	ld.w	$a3, $a1, 0
	addi.d	$a1, $a1, 4
	addi.d	$a4, $a2, 4
	st.w	$a3, $a2, 0
	move	$a2, $a4
	bnez	$a3, .LBB6_22
# %bb.23:                               # %_Z12MyStringCopyIwEPT_S1_PKS0_.exit
	ld.w	$a1, $fp, 8
	add.d	$a1, $a1, $s1
	st.w	$a1, $a0, 8
	ld.d	$s4, $sp, 8                     # 8-byte Folded Reload
	ld.d	$s3, $sp, 16                    # 8-byte Folded Reload
	ld.d	$s2, $sp, 24                    # 8-byte Folded Reload
	ld.d	$s1, $sp, 32                    # 8-byte Folded Reload
	ld.d	$s0, $sp, 40                    # 8-byte Folded Reload
	ld.d	$fp, $sp, 48                    # 8-byte Folded Reload
	ld.d	$ra, $sp, 56                    # 8-byte Folded Reload
	addi.d	$sp, $sp, 64
	ret
.Lfunc_end6:
	.size	_ZN11CStringBaseIwEpLERKS0_, .Lfunc_end6-_ZN11CStringBaseIwEpLERKS0_
	.cfi_endproc
                                        # -- End function
	.text
	.globl	_ZN8NArchive3N7z8CHandler28GetNumberOfArchivePropertiesEPj # -- Begin function _ZN8NArchive3N7z8CHandler28GetNumberOfArchivePropertiesEPj
	.p2align	2
	.type	_ZN8NArchive3N7z8CHandler28GetNumberOfArchivePropertiesEPj,@function
_ZN8NArchive3N7z8CHandler28GetNumberOfArchivePropertiesEPj: # @_ZN8NArchive3N7z8CHandler28GetNumberOfArchivePropertiesEPj
# %bb.0:                                # %entry
	ori	$a0, $zero, 6
	st.w	$a0, $a1, 0
	move	$a0, $zero
	ret
.Lfunc_end7:
	.size	_ZN8NArchive3N7z8CHandler28GetNumberOfArchivePropertiesEPj, .Lfunc_end7-_ZN8NArchive3N7z8CHandler28GetNumberOfArchivePropertiesEPj
                                        # -- End function
	.globl	_ZN8NArchive3N7z8CHandler22GetArchivePropertyInfoEjPPwPjPt # -- Begin function _ZN8NArchive3N7z8CHandler22GetArchivePropertyInfoEjPPwPjPt
	.p2align	2
	.type	_ZN8NArchive3N7z8CHandler22GetArchivePropertyInfoEjPPwPjPt,@function
_ZN8NArchive3N7z8CHandler22GetArchivePropertyInfoEjPPwPjPt: # @_ZN8NArchive3N7z8CHandler22GetArchivePropertyInfoEjPPwPjPt
# %bb.0:                                # %entry
	ori	$a0, $zero, 5
	bgeu	$a0, $a1, .LBB8_2
# %bb.1:
	lu12i.w	$a0, -524176
	ori	$a0, $a0, 87
	ret
.LBB8_2:                                # %if.end
	pcalau12i	$a0, %pc_hi20(_ZN8NArchive3N7z9kArcPropsE)
	addi.d	$a0, $a0, %pc_lo12(_ZN8NArchive3N7z9kArcPropsE)
	alsl.d	$a0, $a1, $a0, 4
	ld.w	$a1, $a0, 8
	ld.h	$a5, $a0, 12
	move	$a0, $zero
	st.w	$a1, $a3, 0
	st.h	$a5, $a4, 0
	st.d	$zero, $a2, 0
	ret
.Lfunc_end8:
	.size	_ZN8NArchive3N7z8CHandler22GetArchivePropertyInfoEjPPwPjPt, .Lfunc_end8-_ZN8NArchive3N7z8CHandler22GetArchivePropertyInfoEjPPwPjPt
                                        # -- End function
	.globl	_ZNK8NArchive3N7z8CHandler11IsEncryptedEj # -- Begin function _ZNK8NArchive3N7z8CHandler11IsEncryptedEj
	.p2align	2
	.type	_ZNK8NArchive3N7z8CHandler11IsEncryptedEj,@function
_ZNK8NArchive3N7z8CHandler11IsEncryptedEj: # @_ZNK8NArchive3N7z8CHandler11IsEncryptedEj
# %bb.0:                                # %entry
	ld.d	$a2, $a0, 808
	slli.d	$a1, $a1, 2
	ldx.w	$a1, $a2, $a1
	addi.w	$a2, $zero, -1
	beq	$a1, $a2, .LBB9_5
# %bb.1:                                # %if.then
	ld.d	$a0, $a0, 256
	slli.d	$a1, $a1, 3
	ldx.d	$a0, $a0, $a1
	ld.wu	$a1, $a0, 12
	ld.d	$a0, $a0, 16
	alsl.d	$a0, $a1, $a0, 3
	addi.d	$a2, $a0, -8
	addi.d	$a1, $a1, 1
	ori	$a3, $zero, 1
	lu12i.w	$a0, 28432
	ori	$a4, $a0, 1793
	.p2align	4, , 16
.LBB9_2:                                # %for.cond.i
                                        # =>This Inner Loop Header: Depth=1
	addi.w	$a1, $a1, -1
	slt	$a0, $zero, $a1
	blt	$a1, $a3, .LBB9_4
# %bb.3:                                # %for.body.i
                                        #   in Loop: Header=BB9_2 Depth=1
	ld.d	$a5, $a2, 0
	ld.d	$a5, $a5, 0
	addi.d	$a2, $a2, -8
	bne	$a5, $a4, .LBB9_2
.LBB9_4:                                # %cleanup
	ret
.LBB9_5:
	move	$a0, $zero
	ret
.Lfunc_end9:
	.size	_ZNK8NArchive3N7z8CHandler11IsEncryptedEj, .Lfunc_end9-_ZNK8NArchive3N7z8CHandler11IsEncryptedEj
                                        # -- End function
	.globl	_ZN8NArchive3N7z8CHandler11GetPropertyEjjP14tagPROPVARIANT # -- Begin function _ZN8NArchive3N7z8CHandler11GetPropertyEjjP14tagPROPVARIANT
	.p2align	2
	.type	_ZN8NArchive3N7z8CHandler11GetPropertyEjjP14tagPROPVARIANT,@function
_ZN8NArchive3N7z8CHandler11GetPropertyEjjP14tagPROPVARIANT: # @_ZN8NArchive3N7z8CHandler11GetPropertyEjjP14tagPROPVARIANT
.Lfunc_begin3:
	.cfi_startproc
	.cfi_personality 155, DW.ref.__gxx_personality_v0
	.cfi_lsda 27, .Lexception3
# %bb.0:                                # %entry
	addi.d	$sp, $sp, -368
	.cfi_def_cfa_offset 368
	st.d	$ra, $sp, 360                   # 8-byte Folded Spill
	st.d	$fp, $sp, 352                   # 8-byte Folded Spill
	st.d	$s0, $sp, 344                   # 8-byte Folded Spill
	st.d	$s1, $sp, 336                   # 8-byte Folded Spill
	st.d	$s2, $sp, 328                   # 8-byte Folded Spill
	st.d	$s3, $sp, 320                   # 8-byte Folded Spill
	st.d	$s4, $sp, 312                   # 8-byte Folded Spill
	st.d	$s5, $sp, 304                   # 8-byte Folded Spill
	st.d	$s6, $sp, 296                   # 8-byte Folded Spill
	st.d	$s7, $sp, 288                   # 8-byte Folded Spill
	st.d	$s8, $sp, 280                   # 8-byte Folded Spill
	.cfi_offset 1, -8
	.cfi_offset 22, -16
	.cfi_offset 23, -24
	.cfi_offset 24, -32
	.cfi_offset 25, -40
	.cfi_offset 26, -48
	.cfi_offset 27, -56
	.cfi_offset 28, -64
	.cfi_offset 29, -72
	.cfi_offset 30, -80
	.cfi_offset 31, -88
	move	$fp, $a3
	addi.d	$a3, $a2, -3
	ori	$a4, $zero, 26
	st.w	$zero, $sp, 136
	bltu	$a4, $a3, .LBB10_6
# %bb.1:                                # %entry
	ld.d	$a4, $a0, 320
	slli.d	$a2, $a3, 2
	pcalau12i	$a3, %pc_hi20(.LJTI10_0)
	addi.d	$a5, $a3, %pc_lo12(.LJTI10_0)
	ldx.w	$a6, $a5, $a2
	slli.d	$a2, $a1, 3
	ldx.d	$a3, $a4, $a2
	add.d	$a4, $a5, $a6
	jr	$a4
.LBB10_2:                               # %sw.bb
	ld.w	$a0, $a3, 24
	beqz	$a0, .LBB10_181
# %bb.3:                                # %if.then
	addi.d	$a1, $a3, 16
.Ltmp199:                               # EH_LABEL
	addi.d	$a0, $sp, 152
	pcaddu18i	$ra, %call36(_ZN8NArchive9NItemName9GetOSNameERK11CStringBaseIwE)
	jirl	$ra, $ra, 0
.Ltmp200:                               # EH_LABEL
# %bb.4:                                # %invoke.cont9
	ld.d	$a1, $sp, 152
.Ltmp202:                               # EH_LABEL
	addi.d	$a0, $sp, 136
	pcaddu18i	$ra, %call36(_ZN8NWindows4NCOM12CPropVariantaSEPKw)
	jirl	$ra, $ra, 0
.Ltmp203:                               # EH_LABEL
# %bb.5:                                # %invoke.cont13
	ld.d	$a0, $sp, 152
	bnez	$a0, .LBB10_178
	b	.LBB10_181
.LBB10_6:                               # %entry
	addu16i.d	$a2, $a2, -1
	ori	$a3, $zero, 5
	bgeu	$a2, $a3, .LBB10_181
# %bb.7:                                # %sw.bb405
	ld.d	$a3, $a0, 808
	slli.d	$a4, $a1, 2
	ldx.w	$a4, $a3, $a4
	addi.w	$a3, $zero, -1
	beq	$a4, $a3, .LBB10_13
# %bb.8:                                # %invoke.cont418
	ld.d	$a5, $a0, 776
	slli.d	$a3, $a4, 2
	ldx.w	$a5, $a5, $a3
	bne	$a5, $a1, .LBB10_11
# %bb.9:                                # %land.lhs.true425
	ld.d	$a1, $a0, 256
	slli.d	$a4, $a4, 3
	ldx.d	$a1, $a1, $a4
	ld.w	$a4, $a1, 76
	addi.w	$a1, $a2, 0
	bge	$a1, $a4, .LBB10_11
# %bb.10:                               # %invoke.cont433
	ld.d	$a2, $a0, 744
	ldx.w	$a2, $a2, $a3
	ld.d	$a0, $a0, 160
	add.w	$a1, $a2, $a1
	slli.d	$a1, $a1, 3
	ldx.d	$a1, $a0, $a1
	b	.LBB10_12
.LBB10_11:
	move	$a1, $zero
.LBB10_12:                              # %if.else437.invoke
.Ltmp56:                                # EH_LABEL
	addi.d	$a0, $sp, 136
	pcaddu18i	$ra, %call36(_ZN8NWindows4NCOM12CPropVariantaSEy)
	jirl	$ra, $ra, 0
.Ltmp57:                                # EH_LABEL
	b	.LBB10_181
.LBB10_13:                              # %if.else442
.Ltmp59:                                # EH_LABEL
	addi.d	$a0, $sp, 136
	move	$a1, $zero
	pcaddu18i	$ra, %call36(_ZN8NWindows4NCOM12CPropVariantaSEy)
	jirl	$ra, $ra, 0
.Ltmp60:                                # EH_LABEL
	b	.LBB10_181
.LBB10_14:                              # %sw.bb73
	ld.d	$a2, $a0, 808
	slli.d	$a1, $a1, 2
	ldx.w	$a1, $a2, $a1
	addi.w	$a2, $zero, -1
	beq	$a1, $a2, .LBB10_173
# %bb.15:                               # %if.then.i140
	ld.d	$a0, $a0, 256
	slli.d	$a1, $a1, 3
	ldx.d	$a0, $a0, $a1
	ld.wu	$a1, $a0, 12
	ld.d	$a0, $a0, 16
	alsl.d	$a0, $a1, $a0, 3
	addi.d	$a2, $a0, -8
	addi.d	$a1, $a1, 1
	ori	$a3, $zero, 1
	lu12i.w	$a0, 28432
	ori	$a4, $a0, 1793
	.p2align	4, , 16
.LBB10_16:                              # %for.cond.i.i
                                        # =>This Inner Loop Header: Depth=1
	addi.w	$a1, $a1, -1
	slt	$a0, $zero, $a1
	blt	$a1, $a3, .LBB10_174
# %bb.17:                               # %for.body.i.i
                                        #   in Loop: Header=BB10_16 Depth=1
	ld.d	$a5, $a2, 0
	ld.d	$a5, $a5, 0
	addi.d	$a2, $a2, -8
	bne	$a5, $a4, .LBB10_16
	b	.LBB10_174
.LBB10_18:                              # %sw.bb55
	ld.w	$a3, $a0, 444
	bge	$a1, $a3, .LBB10_181
# %bb.19:                               # %land.lhs.true.i.i112
	ld.d	$a3, $a0, 448
	ldx.bu	$a1, $a3, $a1
	ori	$a3, $zero, 1
	bne	$a1, $a3, .LBB10_181
# %bb.20:                               # %if.then.i117
	ld.d	$a0, $a0, 416
	ldx.d	$a0, $a0, $a2
	st.d	$a0, $sp, 152
.Ltmp183:                               # EH_LABEL
	addi.d	$a0, $sp, 136
	addi.d	$a1, $sp, 152
	pcaddu18i	$ra, %call36(_ZN8NWindows4NCOM12CPropVariantaSERK9_FILETIME)
	jirl	$ra, $ra, 0
.Ltmp184:                               # EH_LABEL
	b	.LBB10_181
.LBB10_21:                              # %sw.bb67
	ld.bu	$a1, $a3, 34
	ori	$a2, $zero, 1
	ori	$a0, $zero, 12
	beq	$a1, $a2, .LBB10_26
	b	.LBB10_181
.LBB10_22:                              # %sw.bb42
	ld.w	$a3, $a0, 572
	bge	$a1, $a3, .LBB10_181
# %bb.23:                               # %land.lhs.true.i
	ld.d	$a3, $a0, 576
	ldx.bu	$a1, $a3, $a1
	ori	$a3, $zero, 1
	bne	$a1, $a3, .LBB10_181
# %bb.24:                               # %if.then47
	ld.d	$a0, $a0, 544
	ldx.d	$a1, $a0, $a2
.Ltmp187:                               # EH_LABEL
	addi.d	$a0, $sp, 136
	pcaddu18i	$ra, %call36(_ZN8NWindows4NCOM12CPropVariantaSEy)
	jirl	$ra, $ra, 0
.Ltmp188:                               # EH_LABEL
	b	.LBB10_181
.LBB10_25:                              # %sw.bb61
	ld.bu	$a1, $a3, 35
	ori	$a0, $zero, 8
	beqz	$a1, .LBB10_181
.LBB10_26:                              # %if.then69.invoke
	ldx.w	$a1, $a3, $a0
.Ltmp179:                               # EH_LABEL
	addi.d	$a0, $sp, 136
	pcaddu18i	$ra, %call36(_ZN8NWindows4NCOM12CPropVariantaSEj)
	jirl	$ra, $ra, 0
.Ltmp180:                               # EH_LABEL
	b	.LBB10_181
.LBB10_27:                              # %sw.bb21
	ld.d	$a2, $a0, 808
	slli.d	$a3, $a1, 2
	ldx.w	$a2, $a2, $a3
	addi.w	$a3, $zero, -1
	beq	$a2, $a3, .LBB10_179
# %bb.28:                               # %if.then26
	ld.d	$a3, $a0, 776
	slli.d	$a4, $a2, 2
	ldx.w	$a3, $a3, $a4
	bne	$a3, $a1, .LBB10_181
# %bb.29:                               # %if.then31
.Ltmp190:                               # EH_LABEL
	addi.d	$a0, $a0, 144
	move	$a1, $a2
	pcaddu18i	$ra, %call36(_ZNK8NArchive3N7z18CArchiveDatabaseEx21GetFolderFullPackSizeEi)
	jirl	$ra, $ra, 0
	move	$a1, $a0
.Ltmp191:                               # EH_LABEL
	b	.LBB10_180
.LBB10_30:                              # %sw.bb15
	ld.b	$a0, $a3, 33
	b	.LBB10_174
.LBB10_31:                              # %sw.bb18
	ld.d	$a1, $a3, 0
.Ltmp195:                               # EH_LABEL
	addi.d	$a0, $sp, 136
	pcaddu18i	$ra, %call36(_ZN8NWindows4NCOM12CPropVariantaSEy)
	jirl	$ra, $ra, 0
.Ltmp196:                               # EH_LABEL
	b	.LBB10_181
.LBB10_32:                              # %sw.bb58
	ld.w	$a3, $a0, 508
	bge	$a1, $a3, .LBB10_181
# %bb.33:                               # %land.lhs.true.i.i126
	ld.d	$a3, $a0, 512
	ldx.bu	$a1, $a3, $a1
	ori	$a3, $zero, 1
	bne	$a1, $a3, .LBB10_181
# %bb.34:                               # %if.then.i131
	ld.d	$a0, $a0, 480
	ldx.d	$a0, $a0, $a2
	st.d	$a0, $sp, 152
.Ltmp181:                               # EH_LABEL
	addi.d	$a0, $sp, 136
	addi.d	$a1, $sp, 152
	pcaddu18i	$ra, %call36(_ZN8NWindows4NCOM12CPropVariantaSERK9_FILETIME)
	jirl	$ra, $ra, 0
.Ltmp182:                               # EH_LABEL
	b	.LBB10_181
.LBB10_35:                              # %sw.bb392
	ld.d	$a0, $a0, 808
	slli.d	$a1, $a1, 2
	ldx.w	$a1, $a0, $a1
	addi.w	$a0, $zero, -1
	beq	$a1, $a0, .LBB10_181
# %bb.36:                               # %if.then400
.Ltmp62:                                # EH_LABEL
	addi.d	$a0, $sp, 136
	pcaddu18i	$ra, %call36(_ZN8NWindows4NCOM12CPropVariantaSEj)
	jirl	$ra, $ra, 0
.Ltmp63:                                # EH_LABEL
	b	.LBB10_181
.LBB10_37:                              # %sw.bb52
	ld.w	$a3, $a0, 380
	bge	$a1, $a3, .LBB10_181
# %bb.38:                               # %land.lhs.true.i.i
	ld.d	$a3, $a0, 384
	ldx.bu	$a1, $a3, $a1
	ori	$a3, $zero, 1
	bne	$a1, $a3, .LBB10_181
# %bb.39:                               # %if.then.i107
	ld.d	$a0, $a0, 352
	ldx.d	$a0, $a0, $a2
	st.d	$a0, $sp, 152
.Ltmp185:                               # EH_LABEL
	addi.d	$a0, $sp, 136
	addi.d	$a1, $sp, 152
	pcaddu18i	$ra, %call36(_ZN8NWindows4NCOM12CPropVariantaSERK9_FILETIME)
	jirl	$ra, $ra, 0
.Ltmp186:                               # EH_LABEL
	b	.LBB10_181
.LBB10_40:                              # %sw.bb84
	ld.d	$a2, $a0, 808
	slli.d	$a1, $a1, 2
	ldx.w	$a1, $a2, $a1
	addi.w	$a2, $zero, -1
	st.d	$a2, $sp, 56                    # 8-byte Folded Spill
	beq	$a1, $a2, .LBB10_181
# %bb.41:                               # %invoke.cont95
	ld.d	$a0, $a0, 256
	slli.d	$a1, $a1, 3
	ldx.d	$s4, $a0, $a1
	st.d	$zero, $sp, 128
.Ltmp65:                                # EH_LABEL
	ori	$a0, $zero, 16
	pcaddu18i	$ra, %call36(_Znam)
	jirl	$ra, $ra, 0
	move	$a1, $a0
.Ltmp66:                                # EH_LABEL
# %bb.42:                               # %invoke.cont98
	st.w	$zero, $a1, 0
	ori	$s5, $zero, 4
	st.w	$s5, $sp, 132
	ld.w	$s8, $s4, 12
	ori	$s2, $zero, 1
	st.d	$a1, $sp, 120
	blt	$s8, $s2, .LBB10_176
# %bb.43:
	lu12i.w	$s0, 48
	ori	$a0, $s0, 256
	st.d	$a0, $sp, 64                    # 8-byte Folded Spill
	ori	$a0, $zero, 0
	lu32i.d	$a0, 1
	st.d	$a0, $sp, 40                    # 8-byte Folded Spill
	vrepli.b	$vr0, 0
	vst	$vr0, $sp, 16                   # 16-byte Folded Spill
	lu12i.w	$a0, 28432
	ori	$a0, $a0, 1793
	st.d	$a0, $sp, 48                    # 8-byte Folded Spill
	st.d	$s4, $sp, 32                    # 8-byte Folded Spill
	b	.LBB10_45
	.p2align	4, , 16
.LBB10_44:                              # %_ZN11CStringBaseIwED2Ev.exit379
                                        #   in Loop: Header=BB10_45 Depth=1
	bge	$s2, $s7, .LBB10_175
.LBB10_45:                              # %invoke.cont105
                                        # =>This Loop Header: Depth=1
                                        #     Child Loop BB10_93 Depth 2
                                        #     Child Loop BB10_109 Depth 2
                                        #     Child Loop BB10_143 Depth 2
                                        #     Child Loop BB10_153 Depth 2
                                        #     Child Loop BB10_157 Depth 2
                                        #     Child Loop BB10_101 Depth 2
                                        #     Child Loop BB10_162 Depth 2
                                        #     Child Loop BB10_134 Depth 2
	move	$s7, $s8
	ld.d	$a0, $s4, 16
	addi.d	$s8, $s8, -1
	slli.d	$a1, $s8, 3
	ld.w	$a2, $sp, 128
	ldx.d	$s6, $a0, $a1
	beqz	$a2, .LBB10_47
# %bb.46:                               # %if.then109
                                        #   in Loop: Header=BB10_45 Depth=1
.Ltmp68:                                # EH_LABEL
	addi.d	$a0, $sp, 120
	ori	$a1, $zero, 32
	pcaddu18i	$ra, %call36(_ZN11CStringBaseIwEpLEw)
	jirl	$ra, $ra, 0
.Ltmp69:                                # EH_LABEL
.LBB10_47:                              # %if.end112
                                        #   in Loop: Header=BB10_45 Depth=1
	st.d	$zero, $sp, 112
.Ltmp71:                                # EH_LABEL
	ori	$a0, $zero, 16
	pcaddu18i	$ra, %call36(_Znam)
	jirl	$ra, $ra, 0
.Ltmp72:                                # EH_LABEL
# %bb.48:                               # %invoke.cont114
                                        #   in Loop: Header=BB10_45 Depth=1
	st.d	$a0, $sp, 104
	st.w	$zero, $a0, 0
	st.w	$s5, $sp, 116
	st.d	$zero, $sp, 96
.Ltmp74:                                # EH_LABEL
	ori	$a0, $zero, 16
	pcaddu18i	$ra, %call36(_Znam)
	jirl	$ra, $ra, 0
.Ltmp75:                                # EH_LABEL
# %bb.49:                               # %invoke.cont116
                                        #   in Loop: Header=BB10_45 Depth=1
	st.d	$a0, $sp, 88
	st.w	$zero, $a0, 0
	st.w	$s5, $sp, 100
	ld.d	$a0, $s6, 0
.Ltmp77:                                # EH_LABEL
	addi.d	$a1, $sp, 104
	pcaddu18i	$ra, %call36(_Z10FindMethodyR11CStringBaseIwE)
	jirl	$ra, $ra, 0
.Ltmp78:                                # EH_LABEL
# %bb.50:                               # %invoke.cont118
                                        #   in Loop: Header=BB10_45 Depth=1
	beqz	$a0, .LBB10_60
# %bb.51:                               # %if.else131
                                        #   in Loop: Header=BB10_45 Depth=1
.Ltmp85:                                # EH_LABEL
	addi.d	$a0, $sp, 120
	addi.d	$a1, $sp, 104
	pcaddu18i	$ra, %call36(_ZN11CStringBaseIwEpLERKS0_)
	jirl	$ra, $ra, 0
.Ltmp86:                                # EH_LABEL
# %bb.52:                               # %invoke.cont132
                                        #   in Loop: Header=BB10_45 Depth=1
	ld.d	$a0, $s6, 0
	ld.d	$a1, $sp, 64                    # 8-byte Folded Reload
	bge	$a1, $a0, .LBB10_67
# %bb.53:                               # %invoke.cont132
                                        #   in Loop: Header=BB10_45 Depth=1
	ori	$a1, $s0, 257
	beq	$a0, $a1, .LBB10_75
# %bb.54:                               # %invoke.cont132
                                        #   in Loop: Header=BB10_45 Depth=1
	ori	$a1, $s0, 1025
	beq	$a0, $a1, .LBB10_81
# %bb.55:                               # %invoke.cont132
                                        #   in Loop: Header=BB10_45 Depth=1
	ld.d	$a1, $sp, 48                    # 8-byte Folded Reload
	bne	$a0, $a1, .LBB10_64
# %bb.56:                               # %land.lhs.true298
                                        #   in Loop: Header=BB10_45 Depth=1
	ld.d	$a0, $s6, 16
	beqz	$a0, .LBB10_64
# %bb.57:                               # %if.then303
                                        #   in Loop: Header=BB10_45 Depth=1
	ld.d	$a0, $s6, 24
	ld.bu	$a0, $a0, 0
	andi	$a0, $a0, 63
.Ltmp87:                                # EH_LABEL
	addi.d	$a1, $sp, 152
	pcaddu18i	$ra, %call36(_Z21ConvertUInt64ToStringyPw)
	jirl	$ra, $ra, 0
.Ltmp88:                                # EH_LABEL
	addi.d	$s2, $sp, 152
# %bb.58:                               # %.noexc328
                                        #   in Loop: Header=BB10_45 Depth=1
	addi.d	$a0, $sp, 152
	pcaddu18i	$ra, %call36(wcslen)
	jirl	$ra, $ra, 0
	move	$s0, $a0
	bstrpick.d	$a0, $a0, 31, 0
	addi.d	$s5, $a0, 1
	ld.d	$a0, $sp, 40                    # 8-byte Folded Reload
	and	$a0, $s5, $a0
	addi.w	$s3, $s5, 0
	beqz	$a0, .LBB10_90
# %bb.59:                               #   in Loop: Header=BB10_45 Depth=1
	move	$s1, $zero
	b	.LBB10_92
	.p2align	4, , 16
.LBB10_60:                              # %if.then121
                                        #   in Loop: Header=BB10_45 Depth=1
	ld.d	$a1, $s6, 0
.Ltmp79:                                # EH_LABEL
	addi.d	$a0, $sp, 152
	pcaddu18i	$ra, %call36(_Z23ConvertMethodIdToStringy)
	jirl	$ra, $ra, 0
.Ltmp80:                                # EH_LABEL
# %bb.61:                               # %invoke.cont125
                                        #   in Loop: Header=BB10_45 Depth=1
.Ltmp82:                                # EH_LABEL
	addi.d	$a0, $sp, 120
	addi.d	$a1, $sp, 152
	pcaddu18i	$ra, %call36(_ZN11CStringBaseIwEpLERKS0_)
	jirl	$ra, $ra, 0
.Ltmp83:                                # EH_LABEL
.LBB10_62:                              # %invoke.cont127
                                        #   in Loop: Header=BB10_45 Depth=1
	ld.d	$a0, $sp, 152
	beqz	$a0, .LBB10_64
.LBB10_63:                              # %delete.notnull.i172
                                        #   in Loop: Header=BB10_45 Depth=1
	pcaddu18i	$ra, %call36(_ZdaPv)
	jirl	$ra, $ra, 0
.LBB10_64:                              # %if.end326thread-pre-split
                                        #   in Loop: Header=BB10_45 Depth=1
	ld.w	$s0, $sp, 96
	addi.w	$a0, $s0, 0
	beqz	$a0, .LBB10_112
.LBB10_65:                              # %if.then329
                                        #   in Loop: Header=BB10_45 Depth=1
.Ltmp134:                               # EH_LABEL
	addi.d	$a0, $sp, 120
	ori	$a1, $zero, 58
	pcaddu18i	$ra, %call36(_ZN11CStringBaseIwEpLEw)
	jirl	$ra, $ra, 0
.Ltmp135:                               # EH_LABEL
	lu12i.w	$s0, 48
# %bb.66:                               # %invoke.cont330
                                        #   in Loop: Header=BB10_45 Depth=1
.Ltmp136:                               # EH_LABEL
	addi.d	$a0, $sp, 120
	addi.d	$a1, $sp, 88
	pcaddu18i	$ra, %call36(_ZN11CStringBaseIwEpLERKS0_)
	jirl	$ra, $ra, 0
.Ltmp137:                               # EH_LABEL
	b	.LBB10_167
.LBB10_67:                              # %invoke.cont132
                                        #   in Loop: Header=BB10_45 Depth=1
	ori	$a1, $zero, 3
	beq	$a0, $a1, .LBB10_86
# %bb.68:                               # %invoke.cont132
                                        #   in Loop: Header=BB10_45 Depth=1
	ori	$a1, $zero, 33
	bne	$a0, $a1, .LBB10_64
# %bb.69:                               # %land.lhs.true200
                                        #   in Loop: Header=BB10_45 Depth=1
	ld.d	$a0, $s6, 16
	bne	$a0, $s2, .LBB10_64
# %bb.70:                               # %if.then205
                                        #   in Loop: Header=BB10_45 Depth=1
	ld.d	$a0, $s6, 24
	ld.bu	$a0, $a0, 0
	srli.d	$a1, $a0, 1
	bstrins.d	$a0, $s2, 63, 1
	addi.d	$a1, $a1, 11
	sll.w	$a1, $a0, $a1
.Ltmp114:                               # EH_LABEL
	addi.d	$a0, $sp, 152
	pcaddu18i	$ra, %call36(_ZN8NArchive3N7zL21GetStringForSizeValueEj)
	jirl	$ra, $ra, 0
.Ltmp115:                               # EH_LABEL
# %bb.71:                               # %invoke.cont219
                                        #   in Loop: Header=BB10_45 Depth=1
	ld.d	$s0, $sp, 88
	st.w	$zero, $sp, 96
	st.w	$zero, $s0, 0
	ld.w	$a0, $sp, 160
	ld.w	$s3, $sp, 100
	addi.w	$s2, $a0, 1
	beq	$s2, $s3, .LBB10_156
# %bb.72:                               # %if.end.i.i235
                                        #   in Loop: Header=BB10_45 Depth=1
	slti	$a0, $a0, -1
	slli.d	$a1, $s2, 2
	masknez	$a1, $a1, $a0
	ld.d	$a2, $sp, 56                    # 8-byte Folded Reload
	maskeqz	$a0, $a2, $a0
	or	$a0, $a0, $a1
.Ltmp117:                               # EH_LABEL
	pcaddu18i	$ra, %call36(_Znam)
	jirl	$ra, $ra, 0
.Ltmp118:                               # EH_LABEL
# %bb.73:                               # %call.i.i.noexc250
                                        #   in Loop: Header=BB10_45 Depth=1
	move	$s1, $a0
	ori	$a0, $zero, 1
	blt	$s3, $a0, .LBB10_154
# %bb.74:                               # %delete.notnull.i.i248
                                        #   in Loop: Header=BB10_45 Depth=1
	move	$a0, $s0
	pcaddu18i	$ra, %call36(_ZdaPv)
	jirl	$ra, $ra, 0
	ld.w	$a0, $sp, 96
	b	.LBB10_155
.LBB10_75:                              # %land.lhs.true154
                                        #   in Loop: Header=BB10_45 Depth=1
	ld.d	$a0, $s6, 16
	ori	$a1, $zero, 5
	bne	$a0, $a1, .LBB10_64
# %bb.76:                               # %if.then159
                                        #   in Loop: Header=BB10_45 Depth=1
	ld.d	$a0, $s6, 24
	ld.w	$a1, $a0, 1
.Ltmp120:                               # EH_LABEL
	addi.d	$a0, $sp, 152
	pcaddu18i	$ra, %call36(_ZN8NArchive3N7zL21GetStringForSizeValueEj)
	jirl	$ra, $ra, 0
.Ltmp121:                               # EH_LABEL
# %bb.77:                               # %invoke.cont190
                                        #   in Loop: Header=BB10_45 Depth=1
	ld.d	$s0, $sp, 88
	st.w	$zero, $sp, 96
	st.w	$zero, $s0, 0
	ld.w	$a0, $sp, 160
	ld.w	$s3, $sp, 100
	addi.w	$s2, $a0, 1
	beq	$s2, $s3, .LBB10_152
# %bb.78:                               # %if.end.i.i203
                                        #   in Loop: Header=BB10_45 Depth=1
	slti	$a0, $a0, -1
	slli.d	$a1, $s2, 2
	masknez	$a1, $a1, $a0
	ld.d	$a2, $sp, 56                    # 8-byte Folded Reload
	maskeqz	$a0, $a2, $a0
	or	$a0, $a0, $a1
.Ltmp123:                               # EH_LABEL
	pcaddu18i	$ra, %call36(_Znam)
	jirl	$ra, $ra, 0
.Ltmp124:                               # EH_LABEL
# %bb.79:                               # %call.i.i.noexc218
                                        #   in Loop: Header=BB10_45 Depth=1
	move	$s1, $a0
	ori	$a0, $zero, 1
	blt	$s3, $a0, .LBB10_150
# %bb.80:                               # %delete.notnull.i.i216
                                        #   in Loop: Header=BB10_45 Depth=1
	move	$a0, $s0
	pcaddu18i	$ra, %call36(_ZdaPv)
	jirl	$ra, $ra, 0
	ld.w	$a0, $sp, 96
	b	.LBB10_151
.LBB10_81:                              # %land.lhs.true230
                                        #   in Loop: Header=BB10_45 Depth=1
	ld.d	$a0, $s6, 16
	ori	$a1, $zero, 5
	bne	$a0, $a1, .LBB10_64
# %bb.82:                               # %if.then235
                                        #   in Loop: Header=BB10_45 Depth=1
	ld.d	$a0, $s6, 24
	ld.d	$s2, $sp, 88
	ld.bu	$s0, $a0, 0
	st.w	$zero, $sp, 96
	st.w	$zero, $s2, 0
	ld.w	$s3, $sp, 100
	ori	$a0, $zero, 2
	beq	$s3, $a0, .LBB10_140
# %bb.83:                               # %if.end.i.i264
                                        #   in Loop: Header=BB10_45 Depth=1
.Ltmp95:                                # EH_LABEL
	ori	$a0, $zero, 8
	pcaddu18i	$ra, %call36(_Znam)
	jirl	$ra, $ra, 0
.Ltmp96:                                # EH_LABEL
# %bb.84:                               # %call.i.i.noexc272
                                        #   in Loop: Header=BB10_45 Depth=1
	move	$s1, $a0
	ori	$a0, $zero, 1
	blt	$s3, $a0, .LBB10_138
# %bb.85:                               # %delete.notnull.i.i270
                                        #   in Loop: Header=BB10_45 Depth=1
	move	$a0, $s2
	pcaddu18i	$ra, %call36(_ZdaPv)
	jirl	$ra, $ra, 0
	ld.w	$a0, $sp, 96
	b	.LBB10_139
.LBB10_86:                              # %land.lhs.true
                                        #   in Loop: Header=BB10_45 Depth=1
	ld.d	$a0, $s6, 16
	bne	$a0, $s2, .LBB10_64
# %bb.87:                               # %if.then139
                                        #   in Loop: Header=BB10_45 Depth=1
	ld.d	$a0, $s6, 24
	ld.bu	$a0, $a0, 0
	addi.d	$a0, $a0, 1
.Ltmp126:                               # EH_LABEL
	addi.d	$a1, $sp, 152
	pcaddu18i	$ra, %call36(_Z21ConvertUInt64ToStringyPw)
	jirl	$ra, $ra, 0
.Ltmp127:                               # EH_LABEL
	addi.d	$s2, $sp, 152
# %bb.88:                               # %.noexc
                                        #   in Loop: Header=BB10_45 Depth=1
	addi.d	$a0, $sp, 152
	pcaddu18i	$ra, %call36(wcslen)
	jirl	$ra, $ra, 0
	move	$s0, $a0
	bstrpick.d	$a0, $a0, 31, 0
	addi.d	$s5, $a0, 1
	ld.d	$a0, $sp, 40                    # 8-byte Folded Reload
	and	$a0, $s5, $a0
	addi.w	$s3, $s5, 0
	beqz	$a0, .LBB10_98
# %bb.89:                               #   in Loop: Header=BB10_45 Depth=1
	move	$s1, $zero
	b	.LBB10_100
.LBB10_90:                              # %if.end9.i.i.i317
                                        #   in Loop: Header=BB10_45 Depth=1
	addi.w	$a0, $s0, 0
	slti	$a0, $a0, -1
	slli.d	$a1, $s3, 2
	masknez	$a1, $a1, $a0
	ld.d	$a2, $sp, 56                    # 8-byte Folded Reload
	maskeqz	$a0, $a2, $a0
	or	$a0, $a0, $a1
.Ltmp89:                                # EH_LABEL
	pcaddu18i	$ra, %call36(_Znam)
	jirl	$ra, $ra, 0
.Ltmp90:                                # EH_LABEL
# %bb.91:                               # %call.i.i.i.noexc329
                                        #   in Loop: Header=BB10_45 Depth=1
	move	$s1, $a0
	st.w	$zero, $a0, 0
.LBB10_92:                              # %_ZN11CStringBaseIwE11SetCapacityEi.exit.i.i320
                                        #   in Loop: Header=BB10_45 Depth=1
	move	$a0, $zero
	.p2align	4, , 16
.LBB10_93:                              # %while.cond.i.i.i321
                                        #   Parent Loop BB10_45 Depth=1
                                        # =>  This Inner Loop Header: Depth=2
	ldx.w	$a1, $a0, $s2
	stx.w	$a1, $s1, $a0
	addi.d	$a0, $a0, 4
	bnez	$a1, .LBB10_93
# %bb.94:                               # %invoke.cont312
                                        #   in Loop: Header=BB10_45 Depth=1
	ld.d	$s2, $sp, 88
	st.w	$zero, $sp, 96
	st.w	$zero, $s2, 0
	ld.w	$s4, $sp, 100
	beq	$s3, $s4, .LBB10_108
# %bb.95:                               # %if.end.i.i338
                                        #   in Loop: Header=BB10_45 Depth=1
	addi.w	$a0, $s0, 0
	slti	$a0, $a0, -1
	slli.d	$a1, $s3, 2
	masknez	$a1, $a1, $a0
	ld.d	$a2, $sp, 56                    # 8-byte Folded Reload
	maskeqz	$a0, $a2, $a0
	or	$a0, $a0, $a1
.Ltmp92:                                # EH_LABEL
	pcaddu18i	$ra, %call36(_Znam)
	jirl	$ra, $ra, 0
.Ltmp93:                                # EH_LABEL
# %bb.96:                               # %call.i.i.noexc353
                                        #   in Loop: Header=BB10_45 Depth=1
	move	$s3, $a0
	ori	$a0, $zero, 1
	blt	$s4, $a0, .LBB10_106
# %bb.97:                               # %delete.notnull.i.i351
                                        #   in Loop: Header=BB10_45 Depth=1
	move	$a0, $s2
	pcaddu18i	$ra, %call36(_ZdaPv)
	jirl	$ra, $ra, 0
	ld.w	$a0, $sp, 96
	b	.LBB10_107
.LBB10_98:                              # %if.end9.i.i.i
                                        #   in Loop: Header=BB10_45 Depth=1
	addi.w	$a0, $s0, 0
	slti	$a0, $a0, -1
	slli.d	$a1, $s3, 2
	masknez	$a1, $a1, $a0
	ld.d	$a2, $sp, 56                    # 8-byte Folded Reload
	maskeqz	$a0, $a2, $a0
	or	$a0, $a0, $a1
.Ltmp128:                               # EH_LABEL
	pcaddu18i	$ra, %call36(_Znam)
	jirl	$ra, $ra, 0
.Ltmp129:                               # EH_LABEL
# %bb.99:                               # %call.i.i.i.noexc
                                        #   in Loop: Header=BB10_45 Depth=1
	move	$s1, $a0
	st.w	$zero, $a0, 0
.LBB10_100:                             # %_ZN11CStringBaseIwE11SetCapacityEi.exit.i.i
                                        #   in Loop: Header=BB10_45 Depth=1
	move	$a0, $zero
	.p2align	4, , 16
.LBB10_101:                             # %while.cond.i.i.i
                                        #   Parent Loop BB10_45 Depth=1
                                        # =>  This Inner Loop Header: Depth=2
	ldx.w	$a1, $a0, $s2
	stx.w	$a1, $s1, $a0
	addi.d	$a0, $a0, 4
	bnez	$a1, .LBB10_101
# %bb.102:                              # %invoke.cont145
                                        #   in Loop: Header=BB10_45 Depth=1
	ld.d	$s2, $sp, 88
	st.w	$zero, $sp, 96
	st.w	$zero, $s2, 0
	ld.w	$s4, $sp, 100
	beq	$s3, $s4, .LBB10_161
# %bb.103:                              # %if.end.i.i
                                        #   in Loop: Header=BB10_45 Depth=1
	addi.w	$a0, $s0, 0
	slti	$a0, $a0, -1
	slli.d	$a1, $s3, 2
	masknez	$a1, $a1, $a0
	ld.d	$a2, $sp, 56                    # 8-byte Folded Reload
	maskeqz	$a0, $a2, $a0
	or	$a0, $a0, $a1
.Ltmp131:                               # EH_LABEL
	pcaddu18i	$ra, %call36(_Znam)
	jirl	$ra, $ra, 0
.Ltmp132:                               # EH_LABEL
# %bb.104:                              # %call.i.i.noexc
                                        #   in Loop: Header=BB10_45 Depth=1
	move	$s3, $a0
	ori	$a0, $zero, 1
	blt	$s4, $a0, .LBB10_159
# %bb.105:                              # %delete.notnull.i.i
                                        #   in Loop: Header=BB10_45 Depth=1
	move	$a0, $s2
	pcaddu18i	$ra, %call36(_ZdaPv)
	jirl	$ra, $ra, 0
	ld.w	$a0, $sp, 96
	b	.LBB10_160
.LBB10_106:                             #   in Loop: Header=BB10_45 Depth=1
	move	$a0, $zero
.LBB10_107:                             # %if.end9.i.i341
                                        #   in Loop: Header=BB10_45 Depth=1
	st.d	$s3, $sp, 88
	slli.d	$a0, $a0, 2
	stx.w	$zero, $s3, $a0
	st.w	$s5, $sp, 100
	move	$s2, $s3
.LBB10_108:                             # %while.cond.i.i345.preheader
                                        #   in Loop: Header=BB10_45 Depth=1
	ld.d	$s4, $sp, 32                    # 8-byte Folded Reload
	move	$a0, $zero
	ori	$s5, $zero, 4
	.p2align	4, , 16
.LBB10_109:                             # %while.cond.i.i345
                                        #   Parent Loop BB10_45 Depth=1
                                        # =>  This Inner Loop Header: Depth=2
	ldx.w	$a1, $s1, $a0
	stx.w	$a1, $s2, $a0
	addi.d	$a0, $a0, 4
	bnez	$a1, .LBB10_109
# %bb.110:                              # %invoke.cont314
                                        #   in Loop: Header=BB10_45 Depth=1
	st.w	$s0, $sp, 96
	beqz	$s1, .LBB10_164
.LBB10_111:                             # %delete.notnull.i187
                                        #   in Loop: Header=BB10_45 Depth=1
	move	$a0, $s1
	pcaddu18i	$ra, %call36(_ZdaPv)
	jirl	$ra, $ra, 0
	ori	$s2, $zero, 1
	ld.w	$s0, $sp, 96
	addi.w	$a0, $s0, 0
	bnez	$a0, .LBB10_65
	.p2align	4, , 16
.LBB10_112:                             # %if.else334
                                        #   in Loop: Header=BB10_45 Depth=1
	ld.d	$a0, $s6, 16
	lu12i.w	$s0, 48
	beqz	$a0, .LBB10_167
# %bb.113:                              # %if.then339
                                        #   in Loop: Header=BB10_45 Depth=1
.Ltmp138:                               # EH_LABEL
	pcalau12i	$a0, %pc_hi20(.L.str.1)
	addi.d	$a1, $a0, %pc_lo12(.L.str.1)
	addi.d	$a0, $sp, 120
	pcaddu18i	$ra, %call36(_ZN11CStringBaseIwEpLEPKw)
	jirl	$ra, $ra, 0
.Ltmp139:                               # EH_LABEL
# %bb.114:                              # %for.cond342.preheader
                                        #   in Loop: Header=BB10_45 Depth=1
	ld.d	$a0, $s6, 16
	beqz	$a0, .LBB10_166
# %bb.115:                              # %if.else360.peel
                                        #   in Loop: Header=BB10_45 Depth=1
	ld.d	$a0, $s6, 24
	ld.bu	$s0, $a0, 0
	sltui	$a0, $s0, 160
	srli.d	$a1, $s0, 4
	addi.d	$a2, $a1, 48
	addi.d	$a1, $a1, 55
	masknez	$a1, $a1, $a0
	maskeqz	$a0, $a2, $a0
	or	$a1, $a0, $a1
.Ltmp140:                               # EH_LABEL
	addi.d	$a0, $sp, 120
	pcaddu18i	$ra, %call36(_ZN11CStringBaseIwEpLEw)
	jirl	$ra, $ra, 0
.Ltmp141:                               # EH_LABEL
# %bb.116:                              # %call2.i.noexc371.peel
                                        #   in Loop: Header=BB10_45 Depth=1
	andi	$a0, $s0, 15
	sltui	$a1, $a0, 10
	ori	$a2, $zero, 3
	bstrins.d	$s0, $a2, 63, 4
	addi.d	$a0, $a0, 55
	masknez	$a0, $a0, $a1
	maskeqz	$a1, $s0, $a1
	or	$a1, $a1, $a0
.Ltmp142:                               # EH_LABEL
	addi.d	$a0, $sp, 120
	pcaddu18i	$ra, %call36(_ZN11CStringBaseIwEpLEw)
	jirl	$ra, $ra, 0
.Ltmp143:                               # EH_LABEL
# %bb.117:                              # %for.inc.peel
                                        #   in Loop: Header=BB10_45 Depth=1
	ld.d	$a0, $s6, 16
	ori	$a1, $zero, 2
	bltu	$a0, $a1, .LBB10_166
# %bb.118:                              # %if.else360.peel436
                                        #   in Loop: Header=BB10_45 Depth=1
	ld.d	$a0, $s6, 24
	ld.bu	$s0, $a0, 1
	sltui	$a0, $s0, 160
	srli.d	$a1, $s0, 4
	addi.d	$a2, $a1, 48
	addi.d	$a1, $a1, 55
	masknez	$a1, $a1, $a0
	maskeqz	$a0, $a2, $a0
	or	$a1, $a0, $a1
.Ltmp144:                               # EH_LABEL
	addi.d	$a0, $sp, 120
	pcaddu18i	$ra, %call36(_ZN11CStringBaseIwEpLEw)
	jirl	$ra, $ra, 0
.Ltmp145:                               # EH_LABEL
# %bb.119:                              # %call2.i.noexc371.peel445
                                        #   in Loop: Header=BB10_45 Depth=1
	andi	$a0, $s0, 15
	sltui	$a1, $a0, 10
	ori	$a2, $zero, 3
	bstrins.d	$s0, $a2, 63, 4
	addi.d	$a0, $a0, 55
	masknez	$a0, $a0, $a1
	maskeqz	$a1, $s0, $a1
	or	$a1, $a1, $a0
.Ltmp146:                               # EH_LABEL
	addi.d	$a0, $sp, 120
	pcaddu18i	$ra, %call36(_ZN11CStringBaseIwEpLEw)
	jirl	$ra, $ra, 0
.Ltmp147:                               # EH_LABEL
# %bb.120:                              # %for.inc.peel452
                                        #   in Loop: Header=BB10_45 Depth=1
	ld.d	$a0, $s6, 16
	ori	$a1, $zero, 3
	bltu	$a0, $a1, .LBB10_166
# %bb.121:                              # %if.else360.peel461
                                        #   in Loop: Header=BB10_45 Depth=1
	ld.d	$a0, $s6, 24
	ld.bu	$s0, $a0, 2
	sltui	$a0, $s0, 160
	srli.d	$a1, $s0, 4
	addi.d	$a2, $a1, 48
	addi.d	$a1, $a1, 55
	masknez	$a1, $a1, $a0
	maskeqz	$a0, $a2, $a0
	or	$a1, $a0, $a1
.Ltmp148:                               # EH_LABEL
	addi.d	$a0, $sp, 120
	pcaddu18i	$ra, %call36(_ZN11CStringBaseIwEpLEw)
	jirl	$ra, $ra, 0
.Ltmp149:                               # EH_LABEL
# %bb.122:                              # %call2.i.noexc371.peel470
                                        #   in Loop: Header=BB10_45 Depth=1
	andi	$a0, $s0, 15
	sltui	$a1, $a0, 10
	ori	$a2, $zero, 3
	bstrins.d	$s0, $a2, 63, 4
	addi.d	$a0, $a0, 55
	masknez	$a0, $a0, $a1
	maskeqz	$a1, $s0, $a1
	or	$a1, $a1, $a0
.Ltmp150:                               # EH_LABEL
	addi.d	$a0, $sp, 120
	pcaddu18i	$ra, %call36(_ZN11CStringBaseIwEpLEw)
	jirl	$ra, $ra, 0
.Ltmp151:                               # EH_LABEL
# %bb.123:                              # %for.inc.peel477
                                        #   in Loop: Header=BB10_45 Depth=1
	ld.d	$a0, $s6, 16
	bltu	$a0, $s5, .LBB10_166
# %bb.124:                              # %if.else360.peel486
                                        #   in Loop: Header=BB10_45 Depth=1
	ld.d	$a0, $s6, 24
	ld.bu	$s0, $a0, 3
	sltui	$a0, $s0, 160
	srli.d	$a1, $s0, 4
	addi.d	$a2, $a1, 48
	addi.d	$a1, $a1, 55
	masknez	$a1, $a1, $a0
	maskeqz	$a0, $a2, $a0
	or	$a1, $a0, $a1
.Ltmp152:                               # EH_LABEL
	addi.d	$a0, $sp, 120
	pcaddu18i	$ra, %call36(_ZN11CStringBaseIwEpLEw)
	jirl	$ra, $ra, 0
.Ltmp153:                               # EH_LABEL
# %bb.125:                              # %call2.i.noexc371.peel495
                                        #   in Loop: Header=BB10_45 Depth=1
	andi	$a0, $s0, 15
	sltui	$a1, $a0, 10
	ori	$a2, $zero, 3
	bstrins.d	$s0, $a2, 63, 4
	addi.d	$a0, $a0, 55
	masknez	$a0, $a0, $a1
	maskeqz	$a1, $s0, $a1
	or	$a1, $a1, $a0
.Ltmp154:                               # EH_LABEL
	addi.d	$a0, $sp, 120
	pcaddu18i	$ra, %call36(_ZN11CStringBaseIwEpLEw)
	jirl	$ra, $ra, 0
.Ltmp155:                               # EH_LABEL
# %bb.126:                              # %for.inc.peel502
                                        #   in Loop: Header=BB10_45 Depth=1
	ld.d	$a0, $s6, 16
	ori	$a1, $zero, 5
	bltu	$a0, $a1, .LBB10_166
# %bb.127:                              # %if.else360.peel511
                                        #   in Loop: Header=BB10_45 Depth=1
	ld.d	$a0, $s6, 24
	ld.bu	$s0, $a0, 4
	sltui	$a0, $s0, 160
	srli.d	$a1, $s0, 4
	addi.d	$a2, $a1, 48
	addi.d	$a1, $a1, 55
	masknez	$a1, $a1, $a0
	maskeqz	$a0, $a2, $a0
	or	$a1, $a0, $a1
.Ltmp156:                               # EH_LABEL
	addi.d	$a0, $sp, 120
	pcaddu18i	$ra, %call36(_ZN11CStringBaseIwEpLEw)
	jirl	$ra, $ra, 0
.Ltmp157:                               # EH_LABEL
# %bb.128:                              # %call2.i.noexc371.peel520
                                        #   in Loop: Header=BB10_45 Depth=1
	andi	$a0, $s0, 15
	sltui	$a1, $a0, 10
	ori	$a2, $zero, 3
	bstrins.d	$s0, $a2, 63, 4
	addi.d	$a0, $a0, 55
	masknez	$a0, $a0, $a1
	maskeqz	$a1, $s0, $a1
	or	$a1, $a1, $a0
.Ltmp158:                               # EH_LABEL
	addi.d	$a0, $sp, 120
	pcaddu18i	$ra, %call36(_ZN11CStringBaseIwEpLEw)
	jirl	$ra, $ra, 0
.Ltmp159:                               # EH_LABEL
# %bb.129:                              # %for.inc.peel527
                                        #   in Loop: Header=BB10_45 Depth=1
	ld.d	$a0, $s6, 16
	ori	$a1, $zero, 6
	bltu	$a0, $a1, .LBB10_166
# %bb.130:                              # %if.else360.peel536
                                        #   in Loop: Header=BB10_45 Depth=1
	ld.d	$a0, $s6, 24
	ld.bu	$s0, $a0, 5
	sltui	$a0, $s0, 160
	srli.d	$a1, $s0, 4
	addi.d	$a2, $a1, 48
	addi.d	$a1, $a1, 55
	masknez	$a1, $a1, $a0
	maskeqz	$a0, $a2, $a0
	or	$a1, $a0, $a1
.Ltmp160:                               # EH_LABEL
	addi.d	$a0, $sp, 120
	pcaddu18i	$ra, %call36(_ZN11CStringBaseIwEpLEw)
	jirl	$ra, $ra, 0
.Ltmp161:                               # EH_LABEL
# %bb.131:                              # %call2.i.noexc371.peel545
                                        #   in Loop: Header=BB10_45 Depth=1
	andi	$a0, $s0, 15
	sltui	$a1, $a0, 10
	ori	$a2, $zero, 3
	bstrins.d	$s0, $a2, 63, 4
	addi.d	$a0, $a0, 55
	masknez	$a0, $a0, $a1
	maskeqz	$a1, $s0, $a1
	or	$a1, $a1, $a0
.Ltmp162:                               # EH_LABEL
	addi.d	$a0, $sp, 120
	pcaddu18i	$ra, %call36(_ZN11CStringBaseIwEpLEw)
	jirl	$ra, $ra, 0
.Ltmp163:                               # EH_LABEL
# %bb.132:                              # %for.inc.peel552
                                        #   in Loop: Header=BB10_45 Depth=1
	ld.d	$a0, $s6, 16
	ori	$a1, $zero, 7
	bltu	$a0, $a1, .LBB10_166
# %bb.133:                              # %for.body349.preheader
                                        #   in Loop: Header=BB10_45 Depth=1
	ori	$a1, $zero, 6
.LBB10_134:                             # %for.body349
                                        #   Parent Loop BB10_45 Depth=1
                                        # =>  This Inner Loop Header: Depth=2
	addi.d	$s0, $a1, 1
	bltu	$s0, $a0, .LBB10_165
# %bb.135:                              # %if.else360
                                        #   in Loop: Header=BB10_134 Depth=2
	ld.d	$a0, $s6, 24
	ldx.bu	$s1, $a0, $a1
	sltui	$a0, $s1, 160
	srli.d	$a1, $s1, 4
	addi.d	$a2, $a1, 48
	addi.d	$a1, $a1, 55
	masknez	$a1, $a1, $a0
	maskeqz	$a0, $a2, $a0
	or	$a1, $a0, $a1
.Ltmp165:                               # EH_LABEL
	addi.d	$a0, $sp, 120
	pcaddu18i	$ra, %call36(_ZN11CStringBaseIwEpLEw)
	jirl	$ra, $ra, 0
.Ltmp166:                               # EH_LABEL
# %bb.136:                              # %call2.i.noexc371
                                        #   in Loop: Header=BB10_134 Depth=2
	andi	$a0, $s1, 15
	sltui	$a1, $a0, 10
	ori	$a2, $zero, 3
	bstrins.d	$s1, $a2, 63, 4
	addi.d	$a0, $a0, 55
	masknez	$a0, $a0, $a1
	maskeqz	$a1, $s1, $a1
	or	$a1, $a1, $a0
.Ltmp167:                               # EH_LABEL
	addi.d	$a0, $sp, 120
	pcaddu18i	$ra, %call36(_ZN11CStringBaseIwEpLEw)
	jirl	$ra, $ra, 0
.Ltmp168:                               # EH_LABEL
# %bb.137:                              # %for.inc
                                        #   in Loop: Header=BB10_134 Depth=2
	ld.d	$a0, $s6, 16
	move	$a1, $s0
	bltu	$s0, $a0, .LBB10_134
	b	.LBB10_166
.LBB10_138:                             #   in Loop: Header=BB10_45 Depth=1
	move	$a0, $zero
.LBB10_139:                             # %if.end9.i.i266
                                        #   in Loop: Header=BB10_45 Depth=1
	st.d	$s1, $sp, 88
	slli.d	$a0, $a0, 2
	stx.w	$zero, $s1, $a0
	ori	$a0, $zero, 2
	st.w	$a0, $sp, 100
	move	$s2, $s1
.LBB10_140:                             # %invoke.cont240
                                        #   in Loop: Header=BB10_45 Depth=1
	ori	$a0, $zero, 111
	st.d	$a0, $s2, 0
	ori	$a0, $zero, 1
	st.w	$a0, $sp, 96
.Ltmp97:                                # EH_LABEL
	addi.d	$a1, $sp, 152
	move	$a0, $s0
	pcaddu18i	$ra, %call36(_Z21ConvertUInt64ToStringyPw)
	jirl	$ra, $ra, 0
.Ltmp98:                                # EH_LABEL
# %bb.141:                              # %.noexc290
                                        #   in Loop: Header=BB10_45 Depth=1
	vld	$vr0, $sp, 16                   # 16-byte Folded Reload
	vst	$vr0, $sp, 72
	addi.d	$a0, $sp, 152
	pcaddu18i	$ra, %call36(wcslen)
	jirl	$ra, $ra, 0
	move	$s0, $a0
	addi.w	$a0, $a0, 0
	addi.w	$s1, $s0, 1
	slti	$a0, $a0, -1
	slli.d	$a1, $s1, 2
	ld.d	$a2, $sp, 56                    # 8-byte Folded Reload
	maskeqz	$a2, $a2, $a0
	masknez	$a0, $a1, $a0
	or	$a0, $a2, $a0
.Ltmp99:                                # EH_LABEL
	pcaddu18i	$ra, %call36(_Znam)
	jirl	$ra, $ra, 0
.Ltmp100:                               # EH_LABEL
# %bb.142:                              # %call.i.i.i.noexc291
                                        #   in Loop: Header=BB10_45 Depth=1
	st.d	$a0, $sp, 72
	st.w	$zero, $a0, 0
	st.w	$s1, $sp, 84
	addi.d	$a1, $sp, 152
	.p2align	4, , 16
.LBB10_143:                             # %while.cond.i.i.i283
                                        #   Parent Loop BB10_45 Depth=1
                                        # =>  This Inner Loop Header: Depth=2
	ld.w	$a2, $a1, 0
	addi.d	$a1, $a1, 4
	addi.d	$a3, $a0, 4
	st.w	$a2, $a0, 0
	move	$a0, $a3
	bnez	$a2, .LBB10_143
# %bb.144:                              # %invoke.cont245
                                        #   in Loop: Header=BB10_45 Depth=1
	st.w	$s0, $sp, 80
.Ltmp102:                               # EH_LABEL
	addi.d	$a0, $sp, 88
	addi.d	$a1, $sp, 72
	pcaddu18i	$ra, %call36(_ZN11CStringBaseIwEpLERKS0_)
	jirl	$ra, $ra, 0
.Ltmp103:                               # EH_LABEL
# %bb.145:                              # %invoke.cont247
                                        #   in Loop: Header=BB10_45 Depth=1
	ld.d	$a0, $sp, 72
	beqz	$a0, .LBB10_147
# %bb.146:                              # %delete.notnull.i295
                                        #   in Loop: Header=BB10_45 Depth=1
	pcaddu18i	$ra, %call36(_ZdaPv)
	jirl	$ra, $ra, 0
.LBB10_147:                             # %_ZN11CStringBaseIwED2Ev.exit296
                                        #   in Loop: Header=BB10_45 Depth=1
.Ltmp105:                               # EH_LABEL
	pcalau12i	$a0, %pc_hi20(.L.str)
	addi.d	$a1, $a0, %pc_lo12(.L.str)
	addi.d	$a0, $sp, 88
	pcaddu18i	$ra, %call36(_ZN11CStringBaseIwEpLEPKw)
	jirl	$ra, $ra, 0
.Ltmp106:                               # EH_LABEL
# %bb.148:                              # %invoke.cont251
                                        #   in Loop: Header=BB10_45 Depth=1
	ld.d	$a0, $s6, 24
	ld.w	$a1, $a0, 1
.Ltmp108:                               # EH_LABEL
	addi.d	$a0, $sp, 152
	pcaddu18i	$ra, %call36(_ZN8NArchive3N7zL21GetStringForSizeValueEj)
	jirl	$ra, $ra, 0
.Ltmp109:                               # EH_LABEL
# %bb.149:                              # %invoke.cont287
                                        #   in Loop: Header=BB10_45 Depth=1
.Ltmp111:                               # EH_LABEL
	addi.d	$a0, $sp, 88
	addi.d	$a1, $sp, 152
	pcaddu18i	$ra, %call36(_ZN11CStringBaseIwEpLERKS0_)
	jirl	$ra, $ra, 0
.Ltmp112:                               # EH_LABEL
	ori	$s2, $zero, 1
	b	.LBB10_62
.LBB10_150:                             #   in Loop: Header=BB10_45 Depth=1
	move	$a0, $zero
.LBB10_151:                             # %if.end9.i.i206
                                        #   in Loop: Header=BB10_45 Depth=1
	st.d	$s1, $sp, 88
	slli.d	$a0, $a0, 2
	stx.w	$zero, $s1, $a0
	st.w	$s2, $sp, 100
	move	$s0, $s1
.LBB10_152:                             # %_ZN11CStringBaseIwE11SetCapacityEi.exit.i209
                                        #   in Loop: Header=BB10_45 Depth=1
	ld.d	$a0, $sp, 152
	move	$a1, $zero
	ori	$s2, $zero, 1
	.p2align	4, , 16
.LBB10_153:                             # %while.cond.i.i210
                                        #   Parent Loop BB10_45 Depth=1
                                        # =>  This Inner Loop Header: Depth=2
	ldx.w	$a2, $a0, $a1
	stx.w	$a2, $s0, $a1
	addi.d	$a1, $a1, 4
	bnez	$a2, .LBB10_153
	b	.LBB10_158
.LBB10_154:                             #   in Loop: Header=BB10_45 Depth=1
	move	$a0, $zero
.LBB10_155:                             # %if.end9.i.i238
                                        #   in Loop: Header=BB10_45 Depth=1
	st.d	$s1, $sp, 88
	slli.d	$a0, $a0, 2
	stx.w	$zero, $s1, $a0
	st.w	$s2, $sp, 100
	move	$s0, $s1
.LBB10_156:                             # %_ZN11CStringBaseIwE11SetCapacityEi.exit.i241
                                        #   in Loop: Header=BB10_45 Depth=1
	ld.d	$a0, $sp, 152
	move	$a1, $zero
	ori	$s2, $zero, 1
	.p2align	4, , 16
.LBB10_157:                             # %while.cond.i.i242
                                        #   Parent Loop BB10_45 Depth=1
                                        # =>  This Inner Loop Header: Depth=2
	ldx.w	$a2, $a0, $a1
	stx.w	$a2, $s0, $a1
	addi.d	$a1, $a1, 4
	bnez	$a2, .LBB10_157
.LBB10_158:                             # %invoke.cont192
                                        #   in Loop: Header=BB10_45 Depth=1
	ld.w	$a1, $sp, 160
	st.w	$a1, $sp, 96
	bnez	$a0, .LBB10_63
	b	.LBB10_64
.LBB10_159:                             #   in Loop: Header=BB10_45 Depth=1
	move	$a0, $zero
.LBB10_160:                             # %if.end9.i.i
                                        #   in Loop: Header=BB10_45 Depth=1
	st.d	$s3, $sp, 88
	slli.d	$a0, $a0, 2
	stx.w	$zero, $s3, $a0
	st.w	$s5, $sp, 100
	move	$s2, $s3
.LBB10_161:                             # %while.cond.i.i.preheader
                                        #   in Loop: Header=BB10_45 Depth=1
	ld.d	$s4, $sp, 32                    # 8-byte Folded Reload
	move	$a0, $zero
	ori	$s5, $zero, 4
	.p2align	4, , 16
.LBB10_162:                             # %while.cond.i.i
                                        #   Parent Loop BB10_45 Depth=1
                                        # =>  This Inner Loop Header: Depth=2
	ldx.w	$a1, $s1, $a0
	stx.w	$a1, $s2, $a0
	addi.d	$a0, $a0, 4
	bnez	$a1, .LBB10_162
# %bb.163:                              # %invoke.cont147
                                        #   in Loop: Header=BB10_45 Depth=1
	st.w	$s0, $sp, 96
	bnez	$s1, .LBB10_111
.LBB10_164:                             #   in Loop: Header=BB10_45 Depth=1
	ori	$s2, $zero, 1
	addi.w	$a0, $s0, 0
	bnez	$a0, .LBB10_65
	b	.LBB10_112
.LBB10_165:                             # %if.then357
                                        #   in Loop: Header=BB10_45 Depth=1
.Ltmp170:                               # EH_LABEL
	pcalau12i	$a0, %pc_hi20(.L.str.2)
	addi.d	$a1, $a0, %pc_lo12(.L.str.2)
	addi.d	$a0, $sp, 120
	pcaddu18i	$ra, %call36(_ZN11CStringBaseIwEpLEPKw)
	jirl	$ra, $ra, 0
.Ltmp171:                               # EH_LABEL
.LBB10_166:                             # %cleanup
                                        #   in Loop: Header=BB10_45 Depth=1
.Ltmp173:                               # EH_LABEL
	addi.d	$a0, $sp, 120
	ori	$a1, $zero, 93
	pcaddu18i	$ra, %call36(_ZN11CStringBaseIwEpLEw)
	jirl	$ra, $ra, 0
.Ltmp174:                               # EH_LABEL
	lu12i.w	$s0, 48
.LBB10_167:                             # %if.end371
                                        #   in Loop: Header=BB10_45 Depth=1
	ld.d	$a0, $sp, 88
	beqz	$a0, .LBB10_169
# %bb.168:                              # %delete.notnull.i375
                                        #   in Loop: Header=BB10_45 Depth=1
	pcaddu18i	$ra, %call36(_ZdaPv)
	jirl	$ra, $ra, 0
.LBB10_169:                             # %_ZN11CStringBaseIwED2Ev.exit376
                                        #   in Loop: Header=BB10_45 Depth=1
	ld.d	$a0, $sp, 104
	beqz	$a0, .LBB10_44
# %bb.170:                              # %delete.notnull.i378
                                        #   in Loop: Header=BB10_45 Depth=1
	pcaddu18i	$ra, %call36(_ZdaPv)
	jirl	$ra, $ra, 0
	b	.LBB10_44
.LBB10_171:                             # %sw.bb78
	ld.w	$a2, $a0, 604
	bge	$a1, $a2, .LBB10_173
# %bb.172:                              # %land.rhs.i
	ld.d	$a0, $a0, 608
	ldx.b	$a0, $a0, $a1
	b	.LBB10_174
.LBB10_173:
	move	$a0, $zero
.LBB10_174:                             # %_ZNK8NArchive3N7z16CArchiveDatabase10IsItemAntiEi.exit.invoke
.Ltmp197:                               # EH_LABEL
	andi	$a1, $a0, 1
	addi.d	$a0, $sp, 136
	pcaddu18i	$ra, %call36(_ZN8NWindows4NCOM12CPropVariantaSEb)
	jirl	$ra, $ra, 0
.Ltmp198:                               # EH_LABEL
	b	.LBB10_181
.LBB10_175:                             # %for.cond.cleanup.loopexit
	ld.d	$a1, $sp, 120
.LBB10_176:                             # %for.cond.cleanup
.Ltmp176:                               # EH_LABEL
	addi.d	$a0, $sp, 136
	pcaddu18i	$ra, %call36(_ZN8NWindows4NCOM12CPropVariantaSEPKw)
	jirl	$ra, $ra, 0
.Ltmp177:                               # EH_LABEL
# %bb.177:                              # %invoke.cont385
	ld.d	$a0, $sp, 120
	beqz	$a0, .LBB10_181
.LBB10_178:                             # %delete.notnull.i
	pcaddu18i	$ra, %call36(_ZdaPv)
	jirl	$ra, $ra, 0
	b	.LBB10_181
.LBB10_179:
	move	$a1, $zero
.LBB10_180:                             # %if.else.invoke
.Ltmp192:                               # EH_LABEL
	addi.d	$a0, $sp, 136
	pcaddu18i	$ra, %call36(_ZN8NWindows4NCOM12CPropVariantaSEy)
	jirl	$ra, $ra, 0
.Ltmp193:                               # EH_LABEL
.LBB10_181:                             # %sw.epilog
.Ltmp205:                               # EH_LABEL
	addi.d	$a0, $sp, 136
	move	$a1, $fp
	pcaddu18i	$ra, %call36(_ZN8NWindows4NCOM12CPropVariant6DetachEP14tagPROPVARIANT)
	jirl	$ra, $ra, 0
.Ltmp206:                               # EH_LABEL
# %bb.182:                              # %invoke.cont447
.Ltmp214:                               # EH_LABEL
	addi.d	$a0, $sp, 136
	pcaddu18i	$ra, %call36(_ZN8NWindows4NCOM12CPropVariant5ClearEv)
	jirl	$ra, $ra, 0
.Ltmp215:                               # EH_LABEL
# %bb.183:                              # %_ZN8NWindows4NCOM12CPropVariantD2Ev.exit
	move	$a0, $zero
.LBB10_184:                             # %return
	ld.d	$s8, $sp, 280                   # 8-byte Folded Reload
	ld.d	$s7, $sp, 288                   # 8-byte Folded Reload
	ld.d	$s6, $sp, 296                   # 8-byte Folded Reload
	ld.d	$s5, $sp, 304                   # 8-byte Folded Reload
	ld.d	$s4, $sp, 312                   # 8-byte Folded Reload
	ld.d	$s3, $sp, 320                   # 8-byte Folded Reload
	ld.d	$s2, $sp, 328                   # 8-byte Folded Reload
	ld.d	$s1, $sp, 336                   # 8-byte Folded Reload
	ld.d	$s0, $sp, 344                   # 8-byte Folded Reload
	ld.d	$fp, $sp, 352                   # 8-byte Folded Reload
	ld.d	$ra, $sp, 360                   # 8-byte Folded Reload
	addi.d	$sp, $sp, 368
	ret
.LBB10_185:                             # %lpad344.loopexit.split-lp
.Ltmp172:                               # EH_LABEL
	b	.LBB10_227
.LBB10_186:                             # %lpad44
.Ltmp189:                               # EH_LABEL
	b	.LBB10_225
.LBB10_187:                             # %lpad146
.Ltmp133:                               # EH_LABEL
	b	.LBB10_191
.LBB10_188:                             # %lpad220
.Ltmp119:                               # EH_LABEL
	b	.LBB10_213
.LBB10_189:                             # %lpad191
.Ltmp125:                               # EH_LABEL
	b	.LBB10_213
.LBB10_190:                             # %lpad313
.Ltmp94:                                # EH_LABEL
.LBB10_191:                             # %lpad146
	move	$fp, $a1
	move	$s0, $a0
	beqz	$s1, .LBB10_228
# %bb.192:                              # %delete.notnull.i190
	move	$a0, $s1
	b	.LBB10_216
.LBB10_193:                             # %lpad218
.Ltmp116:                               # EH_LABEL
	b	.LBB10_227
.LBB10_194:                             # %lpad189
.Ltmp122:                               # EH_LABEL
	b	.LBB10_227
.LBB10_195:                             # %lpad288
.Ltmp113:                               # EH_LABEL
	b	.LBB10_213
.LBB10_196:                             # %lpad286
.Ltmp110:                               # EH_LABEL
	b	.LBB10_227
.LBB10_197:                             # %lpad246
.Ltmp104:                               # EH_LABEL
	ld.d	$a2, $sp, 72
	b	.LBB10_214
.LBB10_198:                             # %lpad382
.Ltmp178:                               # EH_LABEL
	b	.LBB10_221
.LBB10_199:                             # %lpad10
.Ltmp204:                               # EH_LABEL
	ld.d	$a2, $sp, 152
	move	$fp, $a1
	move	$s0, $a0
	beqz	$a2, .LBB10_234
# %bb.200:                              # %delete.notnull.i98
	move	$a0, $a2
	b	.LBB10_233
.LBB10_201:                             # %lpad97
.Ltmp67:                                # EH_LABEL
	b	.LBB10_225
.LBB10_202:                             # %lpad396
.Ltmp64:                                # EH_LABEL
	b	.LBB10_225
.LBB10_203:                             # %lpad8
.Ltmp201:                               # EH_LABEL
	b	.LBB10_225
.LBB10_204:                             # %lpad142
.Ltmp130:                               # EH_LABEL
	b	.LBB10_227
.LBB10_205:                             # %lpad237
.Ltmp107:                               # EH_LABEL
	b	.LBB10_227
.LBB10_206:                             # %lpad344.loopexit.loopexit
.Ltmp169:                               # EH_LABEL
	b	.LBB10_227
.LBB10_207:                             # %lpad311
.Ltmp91:                                # EH_LABEL
	b	.LBB10_227
.LBB10_208:                             # %lpad23
.Ltmp194:                               # EH_LABEL
	b	.LBB10_225
.LBB10_209:                             # %lpad244
.Ltmp101:                               # EH_LABEL
	b	.LBB10_227
.LBB10_210:                             # %lpad409
.Ltmp61:                                # EH_LABEL
	b	.LBB10_225
.LBB10_211:                             # %lpad417
.Ltmp58:                                # EH_LABEL
	b	.LBB10_225
.LBB10_212:                             # %lpad126
.Ltmp84:                                # EH_LABEL
.LBB10_213:                             # %lpad126
	ld.d	$a2, $sp, 152
.LBB10_214:                             # %lpad126
	move	$fp, $a1
	move	$s0, $a0
	beqz	$a2, .LBB10_228
# %bb.215:                              # %delete.notnull.i175
	move	$a0, $a2
.LBB10_216:                             # %ehcleanup372
	pcaddu18i	$ra, %call36(_ZdaPv)
	jirl	$ra, $ra, 0
	b	.LBB10_228
.LBB10_217:                             # %lpad124
.Ltmp81:                                # EH_LABEL
	b	.LBB10_227
.LBB10_218:                             # %lpad344.loopexit.loopexit.split-lp
.Ltmp164:                               # EH_LABEL
	b	.LBB10_227
.LBB10_219:                             # %lpad104
.Ltmp70:                                # EH_LABEL
	b	.LBB10_221
.LBB10_220:                             # %lpad113
.Ltmp73:                                # EH_LABEL
.LBB10_221:                             # %ehcleanup387
	move	$fp, $a1
	move	$s0, $a0
	b	.LBB10_232
.LBB10_222:                             # %lpad115
.Ltmp76:                                # EH_LABEL
	move	$fp, $a1
	move	$s0, $a0
	b	.LBB10_230
.LBB10_223:                             # %terminate.lpad.i
.Ltmp216:                               # EH_LABEL
	pcaddu18i	$ra, %call36(__clang_call_terminate)
	jirl	$ra, $ra, 0
.LBB10_224:                             # %lpad4
.Ltmp207:                               # EH_LABEL
.LBB10_225:                             # %ehcleanup450
	move	$fp, $a1
	move	$s0, $a0
	b	.LBB10_234
.LBB10_226:                             # %lpad117
.Ltmp175:                               # EH_LABEL
.LBB10_227:                             # %ehcleanup372
	move	$fp, $a1
	move	$s0, $a0
.LBB10_228:                             # %ehcleanup372
	ld.d	$a0, $sp, 88
	beqz	$a0, .LBB10_230
# %bb.229:                              # %delete.notnull.i381
	pcaddu18i	$ra, %call36(_ZdaPv)
	jirl	$ra, $ra, 0
.LBB10_230:                             # %ehcleanup374
	ld.d	$a0, $sp, 104
	beqz	$a0, .LBB10_232
# %bb.231:                              # %delete.notnull.i384
	pcaddu18i	$ra, %call36(_ZdaPv)
	jirl	$ra, $ra, 0
.LBB10_232:                             # %ehcleanup387
	ld.d	$a0, $sp, 120
	beqz	$a0, .LBB10_234
.LBB10_233:                             # %delete.notnull.i390
	pcaddu18i	$ra, %call36(_ZdaPv)
	jirl	$ra, $ra, 0
.LBB10_234:                             # %ehcleanup450
.Ltmp208:                               # EH_LABEL
	addi.d	$a0, $sp, 136
	pcaddu18i	$ra, %call36(_ZN8NWindows4NCOM12CPropVariant5ClearEv)
	jirl	$ra, $ra, 0
.Ltmp209:                               # EH_LABEL
# %bb.235:                              # %_ZN8NWindows4NCOM12CPropVariantD2Ev.exit410
	addi.w	$s1, $fp, 0
	move	$a0, $s0
	pcaddu18i	$ra, %call36(__cxa_begin_catch)
	jirl	$ra, $ra, 0
	ori	$a1, $zero, 2
	beq	$s1, $a1, .LBB10_237
# %bb.236:                              # %catch
	pcaddu18i	$ra, %call36(__cxa_end_catch)
	jirl	$ra, $ra, 0
	lu12i.w	$a0, -524176
	ori	$a0, $a0, 14
	b	.LBB10_184
.LBB10_237:                             # %catch458
	move	$fp, $a0
	ori	$a0, $zero, 8
	pcaddu18i	$ra, %call36(__cxa_allocate_exception)
	jirl	$ra, $ra, 0
	st.d	$fp, $a0, 0
.Ltmp211:                               # EH_LABEL
	pcalau12i	$a1, %got_pc_hi20(_ZTIPKc)
	ld.d	$a1, $a1, %got_pc_lo12(_ZTIPKc)
	move	$a2, $zero
	pcaddu18i	$ra, %call36(__cxa_throw)
	jirl	$ra, $ra, 0
.Ltmp212:                               # EH_LABEL
# %bb.238:                              # %unreachable
.LBB10_239:                             # %lpad460
.Ltmp213:                               # EH_LABEL
	move	$fp, $a0
	pcaddu18i	$ra, %call36(__cxa_end_catch)
	jirl	$ra, $ra, 0
	move	$a0, $fp
	pcaddu18i	$ra, %call36(_Unwind_Resume)
	jirl	$ra, $ra, 0
.LBB10_240:                             # %terminate.lpad.i409
.Ltmp210:                               # EH_LABEL
	pcaddu18i	$ra, %call36(__clang_call_terminate)
	jirl	$ra, $ra, 0
.Lfunc_end10:
	.size	_ZN8NArchive3N7z8CHandler11GetPropertyEjjP14tagPROPVARIANT, .Lfunc_end10-_ZN8NArchive3N7z8CHandler11GetPropertyEjjP14tagPROPVARIANT
	.cfi_endproc
	.section	.rodata,"a",@progbits
	.p2align	2, 0x0
.LJTI10_0:
	.word	.LBB10_2-.LJTI10_0
	.word	.LBB10_181-.LJTI10_0
	.word	.LBB10_181-.LJTI10_0
	.word	.LBB10_30-.LJTI10_0
	.word	.LBB10_31-.LJTI10_0
	.word	.LBB10_27-.LJTI10_0
	.word	.LBB10_25-.LJTI10_0
	.word	.LBB10_37-.LJTI10_0
	.word	.LBB10_18-.LJTI10_0
	.word	.LBB10_32-.LJTI10_0
	.word	.LBB10_181-.LJTI10_0
	.word	.LBB10_181-.LJTI10_0
	.word	.LBB10_14-.LJTI10_0
	.word	.LBB10_181-.LJTI10_0
	.word	.LBB10_181-.LJTI10_0
	.word	.LBB10_181-.LJTI10_0
	.word	.LBB10_21-.LJTI10_0
	.word	.LBB10_181-.LJTI10_0
	.word	.LBB10_171-.LJTI10_0
	.word	.LBB10_40-.LJTI10_0
	.word	.LBB10_181-.LJTI10_0
	.word	.LBB10_181-.LJTI10_0
	.word	.LBB10_181-.LJTI10_0
	.word	.LBB10_181-.LJTI10_0
	.word	.LBB10_35-.LJTI10_0
	.word	.LBB10_181-.LJTI10_0
	.word	.LBB10_22-.LJTI10_0
	.section	.gcc_except_table,"a",@progbits
	.p2align	2, 0x0
GCC_except_table10:
.Lexception3:
	.byte	255                             # @LPStart Encoding = omit
	.byte	155                             # @TType Encoding = indirect pcrel sdata4
	.uleb128 .Lttbase3-.Lttbaseref3
.Lttbaseref3:
	.byte	1                               # Call site Encoding = uleb128
	.uleb128 .Lcst_end3-.Lcst_begin3
.Lcst_begin3:
	.uleb128 .Ltmp199-.Lfunc_begin3         # >> Call Site 1 <<
	.uleb128 .Ltmp200-.Ltmp199              #   Call between .Ltmp199 and .Ltmp200
	.uleb128 .Ltmp201-.Lfunc_begin3         #     jumps to .Ltmp201
	.byte	3                               #   On action: 2
	.uleb128 .Ltmp202-.Lfunc_begin3         # >> Call Site 2 <<
	.uleb128 .Ltmp203-.Ltmp202              #   Call between .Ltmp202 and .Ltmp203
	.uleb128 .Ltmp204-.Lfunc_begin3         #     jumps to .Ltmp204
	.byte	3                               #   On action: 2
	.uleb128 .Ltmp56-.Lfunc_begin3          # >> Call Site 3 <<
	.uleb128 .Ltmp57-.Ltmp56                #   Call between .Ltmp56 and .Ltmp57
	.uleb128 .Ltmp58-.Lfunc_begin3          #     jumps to .Ltmp58
	.byte	3                               #   On action: 2
	.uleb128 .Ltmp59-.Lfunc_begin3          # >> Call Site 4 <<
	.uleb128 .Ltmp60-.Ltmp59                #   Call between .Ltmp59 and .Ltmp60
	.uleb128 .Ltmp61-.Lfunc_begin3          #     jumps to .Ltmp61
	.byte	3                               #   On action: 2
	.uleb128 .Ltmp183-.Lfunc_begin3         # >> Call Site 5 <<
	.uleb128 .Ltmp184-.Ltmp183              #   Call between .Ltmp183 and .Ltmp184
	.uleb128 .Ltmp207-.Lfunc_begin3         #     jumps to .Ltmp207
	.byte	3                               #   On action: 2
	.uleb128 .Ltmp187-.Lfunc_begin3         # >> Call Site 6 <<
	.uleb128 .Ltmp188-.Ltmp187              #   Call between .Ltmp187 and .Ltmp188
	.uleb128 .Ltmp189-.Lfunc_begin3         #     jumps to .Ltmp189
	.byte	3                               #   On action: 2
	.uleb128 .Ltmp179-.Lfunc_begin3         # >> Call Site 7 <<
	.uleb128 .Ltmp180-.Ltmp179              #   Call between .Ltmp179 and .Ltmp180
	.uleb128 .Ltmp207-.Lfunc_begin3         #     jumps to .Ltmp207
	.byte	3                               #   On action: 2
	.uleb128 .Ltmp190-.Lfunc_begin3         # >> Call Site 8 <<
	.uleb128 .Ltmp191-.Ltmp190              #   Call between .Ltmp190 and .Ltmp191
	.uleb128 .Ltmp194-.Lfunc_begin3         #     jumps to .Ltmp194
	.byte	3                               #   On action: 2
	.uleb128 .Ltmp195-.Lfunc_begin3         # >> Call Site 9 <<
	.uleb128 .Ltmp182-.Ltmp195              #   Call between .Ltmp195 and .Ltmp182
	.uleb128 .Ltmp207-.Lfunc_begin3         #     jumps to .Ltmp207
	.byte	3                               #   On action: 2
	.uleb128 .Ltmp62-.Lfunc_begin3          # >> Call Site 10 <<
	.uleb128 .Ltmp63-.Ltmp62                #   Call between .Ltmp62 and .Ltmp63
	.uleb128 .Ltmp64-.Lfunc_begin3          #     jumps to .Ltmp64
	.byte	3                               #   On action: 2
	.uleb128 .Ltmp185-.Lfunc_begin3         # >> Call Site 11 <<
	.uleb128 .Ltmp186-.Ltmp185              #   Call between .Ltmp185 and .Ltmp186
	.uleb128 .Ltmp207-.Lfunc_begin3         #     jumps to .Ltmp207
	.byte	3                               #   On action: 2
	.uleb128 .Ltmp65-.Lfunc_begin3          # >> Call Site 12 <<
	.uleb128 .Ltmp66-.Ltmp65                #   Call between .Ltmp65 and .Ltmp66
	.uleb128 .Ltmp67-.Lfunc_begin3          #     jumps to .Ltmp67
	.byte	3                               #   On action: 2
	.uleb128 .Ltmp68-.Lfunc_begin3          # >> Call Site 13 <<
	.uleb128 .Ltmp69-.Ltmp68                #   Call between .Ltmp68 and .Ltmp69
	.uleb128 .Ltmp70-.Lfunc_begin3          #     jumps to .Ltmp70
	.byte	3                               #   On action: 2
	.uleb128 .Ltmp71-.Lfunc_begin3          # >> Call Site 14 <<
	.uleb128 .Ltmp72-.Ltmp71                #   Call between .Ltmp71 and .Ltmp72
	.uleb128 .Ltmp73-.Lfunc_begin3          #     jumps to .Ltmp73
	.byte	3                               #   On action: 2
	.uleb128 .Ltmp74-.Lfunc_begin3          # >> Call Site 15 <<
	.uleb128 .Ltmp75-.Ltmp74                #   Call between .Ltmp74 and .Ltmp75
	.uleb128 .Ltmp76-.Lfunc_begin3          #     jumps to .Ltmp76
	.byte	3                               #   On action: 2
	.uleb128 .Ltmp77-.Lfunc_begin3          # >> Call Site 16 <<
	.uleb128 .Ltmp86-.Ltmp77                #   Call between .Ltmp77 and .Ltmp86
	.uleb128 .Ltmp175-.Lfunc_begin3         #     jumps to .Ltmp175
	.byte	3                               #   On action: 2
	.uleb128 .Ltmp87-.Lfunc_begin3          # >> Call Site 17 <<
	.uleb128 .Ltmp88-.Ltmp87                #   Call between .Ltmp87 and .Ltmp88
	.uleb128 .Ltmp91-.Lfunc_begin3          #     jumps to .Ltmp91
	.byte	3                               #   On action: 2
	.uleb128 .Ltmp88-.Lfunc_begin3          # >> Call Site 18 <<
	.uleb128 .Ltmp79-.Ltmp88                #   Call between .Ltmp88 and .Ltmp79
	.byte	0                               #     has no landing pad
	.byte	0                               #   On action: cleanup
	.uleb128 .Ltmp79-.Lfunc_begin3          # >> Call Site 19 <<
	.uleb128 .Ltmp80-.Ltmp79                #   Call between .Ltmp79 and .Ltmp80
	.uleb128 .Ltmp81-.Lfunc_begin3          #     jumps to .Ltmp81
	.byte	3                               #   On action: 2
	.uleb128 .Ltmp82-.Lfunc_begin3          # >> Call Site 20 <<
	.uleb128 .Ltmp83-.Ltmp82                #   Call between .Ltmp82 and .Ltmp83
	.uleb128 .Ltmp84-.Lfunc_begin3          #     jumps to .Ltmp84
	.byte	3                               #   On action: 2
	.uleb128 .Ltmp83-.Lfunc_begin3          # >> Call Site 21 <<
	.uleb128 .Ltmp134-.Ltmp83               #   Call between .Ltmp83 and .Ltmp134
	.byte	0                               #     has no landing pad
	.byte	0                               #   On action: cleanup
	.uleb128 .Ltmp134-.Lfunc_begin3         # >> Call Site 22 <<
	.uleb128 .Ltmp137-.Ltmp134              #   Call between .Ltmp134 and .Ltmp137
	.uleb128 .Ltmp175-.Lfunc_begin3         #     jumps to .Ltmp175
	.byte	3                               #   On action: 2
	.uleb128 .Ltmp114-.Lfunc_begin3         # >> Call Site 23 <<
	.uleb128 .Ltmp115-.Ltmp114              #   Call between .Ltmp114 and .Ltmp115
	.uleb128 .Ltmp116-.Lfunc_begin3         #     jumps to .Ltmp116
	.byte	3                               #   On action: 2
	.uleb128 .Ltmp117-.Lfunc_begin3         # >> Call Site 24 <<
	.uleb128 .Ltmp118-.Ltmp117              #   Call between .Ltmp117 and .Ltmp118
	.uleb128 .Ltmp119-.Lfunc_begin3         #     jumps to .Ltmp119
	.byte	3                               #   On action: 2
	.uleb128 .Ltmp118-.Lfunc_begin3         # >> Call Site 25 <<
	.uleb128 .Ltmp120-.Ltmp118              #   Call between .Ltmp118 and .Ltmp120
	.byte	0                               #     has no landing pad
	.byte	0                               #   On action: cleanup
	.uleb128 .Ltmp120-.Lfunc_begin3         # >> Call Site 26 <<
	.uleb128 .Ltmp121-.Ltmp120              #   Call between .Ltmp120 and .Ltmp121
	.uleb128 .Ltmp122-.Lfunc_begin3         #     jumps to .Ltmp122
	.byte	3                               #   On action: 2
	.uleb128 .Ltmp123-.Lfunc_begin3         # >> Call Site 27 <<
	.uleb128 .Ltmp124-.Ltmp123              #   Call between .Ltmp123 and .Ltmp124
	.uleb128 .Ltmp125-.Lfunc_begin3         #     jumps to .Ltmp125
	.byte	3                               #   On action: 2
	.uleb128 .Ltmp124-.Lfunc_begin3         # >> Call Site 28 <<
	.uleb128 .Ltmp95-.Ltmp124               #   Call between .Ltmp124 and .Ltmp95
	.byte	0                               #     has no landing pad
	.byte	0                               #   On action: cleanup
	.uleb128 .Ltmp95-.Lfunc_begin3          # >> Call Site 29 <<
	.uleb128 .Ltmp96-.Ltmp95                #   Call between .Ltmp95 and .Ltmp96
	.uleb128 .Ltmp107-.Lfunc_begin3         #     jumps to .Ltmp107
	.byte	3                               #   On action: 2
	.uleb128 .Ltmp96-.Lfunc_begin3          # >> Call Site 30 <<
	.uleb128 .Ltmp126-.Ltmp96               #   Call between .Ltmp96 and .Ltmp126
	.byte	0                               #     has no landing pad
	.byte	0                               #   On action: cleanup
	.uleb128 .Ltmp126-.Lfunc_begin3         # >> Call Site 31 <<
	.uleb128 .Ltmp127-.Ltmp126              #   Call between .Ltmp126 and .Ltmp127
	.uleb128 .Ltmp130-.Lfunc_begin3         #     jumps to .Ltmp130
	.byte	3                               #   On action: 2
	.uleb128 .Ltmp127-.Lfunc_begin3         # >> Call Site 32 <<
	.uleb128 .Ltmp89-.Ltmp127               #   Call between .Ltmp127 and .Ltmp89
	.byte	0                               #     has no landing pad
	.byte	0                               #   On action: cleanup
	.uleb128 .Ltmp89-.Lfunc_begin3          # >> Call Site 33 <<
	.uleb128 .Ltmp90-.Ltmp89                #   Call between .Ltmp89 and .Ltmp90
	.uleb128 .Ltmp91-.Lfunc_begin3          #     jumps to .Ltmp91
	.byte	3                               #   On action: 2
	.uleb128 .Ltmp92-.Lfunc_begin3          # >> Call Site 34 <<
	.uleb128 .Ltmp93-.Ltmp92                #   Call between .Ltmp92 and .Ltmp93
	.uleb128 .Ltmp94-.Lfunc_begin3          #     jumps to .Ltmp94
	.byte	3                               #   On action: 2
	.uleb128 .Ltmp93-.Lfunc_begin3          # >> Call Site 35 <<
	.uleb128 .Ltmp128-.Ltmp93               #   Call between .Ltmp93 and .Ltmp128
	.byte	0                               #     has no landing pad
	.byte	0                               #   On action: cleanup
	.uleb128 .Ltmp128-.Lfunc_begin3         # >> Call Site 36 <<
	.uleb128 .Ltmp129-.Ltmp128              #   Call between .Ltmp128 and .Ltmp129
	.uleb128 .Ltmp130-.Lfunc_begin3         #     jumps to .Ltmp130
	.byte	3                               #   On action: 2
	.uleb128 .Ltmp131-.Lfunc_begin3         # >> Call Site 37 <<
	.uleb128 .Ltmp132-.Ltmp131              #   Call between .Ltmp131 and .Ltmp132
	.uleb128 .Ltmp133-.Lfunc_begin3         #     jumps to .Ltmp133
	.byte	3                               #   On action: 2
	.uleb128 .Ltmp132-.Lfunc_begin3         # >> Call Site 38 <<
	.uleb128 .Ltmp138-.Ltmp132              #   Call between .Ltmp132 and .Ltmp138
	.byte	0                               #     has no landing pad
	.byte	0                               #   On action: cleanup
	.uleb128 .Ltmp138-.Lfunc_begin3         # >> Call Site 39 <<
	.uleb128 .Ltmp139-.Ltmp138              #   Call between .Ltmp138 and .Ltmp139
	.uleb128 .Ltmp175-.Lfunc_begin3         #     jumps to .Ltmp175
	.byte	3                               #   On action: 2
	.uleb128 .Ltmp140-.Lfunc_begin3         # >> Call Site 40 <<
	.uleb128 .Ltmp163-.Ltmp140              #   Call between .Ltmp140 and .Ltmp163
	.uleb128 .Ltmp164-.Lfunc_begin3         #     jumps to .Ltmp164
	.byte	3                               #   On action: 2
	.uleb128 .Ltmp165-.Lfunc_begin3         # >> Call Site 41 <<
	.uleb128 .Ltmp168-.Ltmp165              #   Call between .Ltmp165 and .Ltmp168
	.uleb128 .Ltmp169-.Lfunc_begin3         #     jumps to .Ltmp169
	.byte	3                               #   On action: 2
	.uleb128 .Ltmp97-.Lfunc_begin3          # >> Call Site 42 <<
	.uleb128 .Ltmp98-.Ltmp97                #   Call between .Ltmp97 and .Ltmp98
	.uleb128 .Ltmp101-.Lfunc_begin3         #     jumps to .Ltmp101
	.byte	3                               #   On action: 2
	.uleb128 .Ltmp98-.Lfunc_begin3          # >> Call Site 43 <<
	.uleb128 .Ltmp99-.Ltmp98                #   Call between .Ltmp98 and .Ltmp99
	.byte	0                               #     has no landing pad
	.byte	0                               #   On action: cleanup
	.uleb128 .Ltmp99-.Lfunc_begin3          # >> Call Site 44 <<
	.uleb128 .Ltmp100-.Ltmp99               #   Call between .Ltmp99 and .Ltmp100
	.uleb128 .Ltmp101-.Lfunc_begin3         #     jumps to .Ltmp101
	.byte	3                               #   On action: 2
	.uleb128 .Ltmp102-.Lfunc_begin3         # >> Call Site 45 <<
	.uleb128 .Ltmp103-.Ltmp102              #   Call between .Ltmp102 and .Ltmp103
	.uleb128 .Ltmp104-.Lfunc_begin3         #     jumps to .Ltmp104
	.byte	3                               #   On action: 2
	.uleb128 .Ltmp103-.Lfunc_begin3         # >> Call Site 46 <<
	.uleb128 .Ltmp105-.Ltmp103              #   Call between .Ltmp103 and .Ltmp105
	.byte	0                               #     has no landing pad
	.byte	0                               #   On action: cleanup
	.uleb128 .Ltmp105-.Lfunc_begin3         # >> Call Site 47 <<
	.uleb128 .Ltmp106-.Ltmp105              #   Call between .Ltmp105 and .Ltmp106
	.uleb128 .Ltmp107-.Lfunc_begin3         #     jumps to .Ltmp107
	.byte	3                               #   On action: 2
	.uleb128 .Ltmp108-.Lfunc_begin3         # >> Call Site 48 <<
	.uleb128 .Ltmp109-.Ltmp108              #   Call between .Ltmp108 and .Ltmp109
	.uleb128 .Ltmp110-.Lfunc_begin3         #     jumps to .Ltmp110
	.byte	3                               #   On action: 2
	.uleb128 .Ltmp111-.Lfunc_begin3         # >> Call Site 49 <<
	.uleb128 .Ltmp112-.Ltmp111              #   Call between .Ltmp111 and .Ltmp112
	.uleb128 .Ltmp113-.Lfunc_begin3         #     jumps to .Ltmp113
	.byte	3                               #   On action: 2
	.uleb128 .Ltmp170-.Lfunc_begin3         # >> Call Site 50 <<
	.uleb128 .Ltmp171-.Ltmp170              #   Call between .Ltmp170 and .Ltmp171
	.uleb128 .Ltmp172-.Lfunc_begin3         #     jumps to .Ltmp172
	.byte	3                               #   On action: 2
	.uleb128 .Ltmp173-.Lfunc_begin3         # >> Call Site 51 <<
	.uleb128 .Ltmp174-.Ltmp173              #   Call between .Ltmp173 and .Ltmp174
	.uleb128 .Ltmp175-.Lfunc_begin3         #     jumps to .Ltmp175
	.byte	3                               #   On action: 2
	.uleb128 .Ltmp174-.Lfunc_begin3         # >> Call Site 52 <<
	.uleb128 .Ltmp197-.Ltmp174              #   Call between .Ltmp174 and .Ltmp197
	.byte	0                               #     has no landing pad
	.byte	0                               #   On action: cleanup
	.uleb128 .Ltmp197-.Lfunc_begin3         # >> Call Site 53 <<
	.uleb128 .Ltmp198-.Ltmp197              #   Call between .Ltmp197 and .Ltmp198
	.uleb128 .Ltmp207-.Lfunc_begin3         #     jumps to .Ltmp207
	.byte	3                               #   On action: 2
	.uleb128 .Ltmp176-.Lfunc_begin3         # >> Call Site 54 <<
	.uleb128 .Ltmp177-.Ltmp176              #   Call between .Ltmp176 and .Ltmp177
	.uleb128 .Ltmp178-.Lfunc_begin3         #     jumps to .Ltmp178
	.byte	3                               #   On action: 2
	.uleb128 .Ltmp177-.Lfunc_begin3         # >> Call Site 55 <<
	.uleb128 .Ltmp192-.Ltmp177              #   Call between .Ltmp177 and .Ltmp192
	.byte	0                               #     has no landing pad
	.byte	0                               #   On action: cleanup
	.uleb128 .Ltmp192-.Lfunc_begin3         # >> Call Site 56 <<
	.uleb128 .Ltmp193-.Ltmp192              #   Call between .Ltmp192 and .Ltmp193
	.uleb128 .Ltmp194-.Lfunc_begin3         #     jumps to .Ltmp194
	.byte	3                               #   On action: 2
	.uleb128 .Ltmp205-.Lfunc_begin3         # >> Call Site 57 <<
	.uleb128 .Ltmp206-.Ltmp205              #   Call between .Ltmp205 and .Ltmp206
	.uleb128 .Ltmp207-.Lfunc_begin3         #     jumps to .Ltmp207
	.byte	3                               #   On action: 2
	.uleb128 .Ltmp214-.Lfunc_begin3         # >> Call Site 58 <<
	.uleb128 .Ltmp215-.Ltmp214              #   Call between .Ltmp214 and .Ltmp215
	.uleb128 .Ltmp216-.Lfunc_begin3         #     jumps to .Ltmp216
	.byte	1                               #   On action: 1
	.uleb128 .Ltmp215-.Lfunc_begin3         # >> Call Site 59 <<
	.uleb128 .Ltmp208-.Ltmp215              #   Call between .Ltmp215 and .Ltmp208
	.byte	0                               #     has no landing pad
	.byte	0                               #   On action: cleanup
	.uleb128 .Ltmp208-.Lfunc_begin3         # >> Call Site 60 <<
	.uleb128 .Ltmp209-.Ltmp208              #   Call between .Ltmp208 and .Ltmp209
	.uleb128 .Ltmp210-.Lfunc_begin3         #     jumps to .Ltmp210
	.byte	1                               #   On action: 1
	.uleb128 .Ltmp209-.Lfunc_begin3         # >> Call Site 61 <<
	.uleb128 .Ltmp211-.Ltmp209              #   Call between .Ltmp209 and .Ltmp211
	.byte	0                               #     has no landing pad
	.byte	0                               #   On action: cleanup
	.uleb128 .Ltmp211-.Lfunc_begin3         # >> Call Site 62 <<
	.uleb128 .Ltmp212-.Ltmp211              #   Call between .Ltmp211 and .Ltmp212
	.uleb128 .Ltmp213-.Lfunc_begin3         #     jumps to .Ltmp213
	.byte	0                               #   On action: cleanup
	.uleb128 .Ltmp212-.Lfunc_begin3         # >> Call Site 63 <<
	.uleb128 .Lfunc_end10-.Ltmp212          #   Call between .Ltmp212 and .Lfunc_end10
	.byte	0                               #     has no landing pad
	.byte	0                               #   On action: cleanup
.Lcst_end3:
	.byte	1                               # >> Action Record 1 <<
                                        #   Catch TypeInfo 1
	.byte	0                               #   No further actions
	.byte	2                               # >> Action Record 2 <<
                                        #   Catch TypeInfo 2
	.byte	125                             #   Continue to action 1
	.p2align	2, 0x0
                                        # >> Catch TypeInfos <<
.Ltmp217:                               # TypeInfo 2
	.word	.L_ZTIPKc.DW.stub-.Ltmp217
	.word	0                               # TypeInfo 1
.Lttbase3:
	.p2align	2, 0x0
                                        # -- End function
	.section	.rodata.cst32,"aM",@progbits,32
	.p2align	5, 0x0                          # -- Begin function _ZNK8NArchive3N7z18CArchiveDatabaseEx21GetFolderFullPackSizeEi
.LCPI11_0:
	.dword	0                               # 0x0
	.dword	1                               # 0x1
	.dword	0                               # 0x0
	.dword	0                               # 0x0
	.section	.text._ZNK8NArchive3N7z18CArchiveDatabaseEx21GetFolderFullPackSizeEi,"axG",@progbits,_ZNK8NArchive3N7z18CArchiveDatabaseEx21GetFolderFullPackSizeEi,comdat
	.weak	_ZNK8NArchive3N7z18CArchiveDatabaseEx21GetFolderFullPackSizeEi
	.p2align	2
	.type	_ZNK8NArchive3N7z18CArchiveDatabaseEx21GetFolderFullPackSizeEi,@function
_ZNK8NArchive3N7z18CArchiveDatabaseEx21GetFolderFullPackSizeEi: # @_ZNK8NArchive3N7z18CArchiveDatabaseEx21GetFolderFullPackSizeEi
	.cfi_startproc
# %bb.0:                                # %entry
	ld.d	$a2, $a0, 112
	slli.d	$a3, $a1, 3
	ldx.d	$a2, $a2, $a3
	ld.w	$a2, $a2, 76
	ori	$a3, $zero, 1
	blt	$a2, $a3, .LBB11_6
# %bb.1:                                # %for.body.lr.ph
	ld.d	$a3, $a0, 600
	slli.d	$a1, $a1, 2
	ldx.w	$a3, $a3, $a1
	ld.d	$a1, $a0, 16
	ori	$a0, $zero, 8
	bgeu	$a2, $a0, .LBB11_7
# %bb.2:
	move	$a4, $zero
	move	$a0, $zero
.LBB11_3:                               # %for.body.preheader
	add.w	$a3, $a3, $a4
	sub.d	$a2, $a2, $a4
	.p2align	4, , 16
.LBB11_4:                               # %for.body
                                        # =>This Inner Loop Header: Depth=1
	slli.d	$a4, $a3, 3
	ldx.d	$a4, $a1, $a4
	add.d	$a0, $a4, $a0
	addi.d	$a2, $a2, -1
	addi.w	$a3, $a3, 1
	bnez	$a2, .LBB11_4
.LBB11_5:                               # %for.cond.cleanup
	ret
.LBB11_6:
	move	$a0, $zero
	ret
.LBB11_7:                               # %vector.scevcheck
	addi.d	$a0, $a2, -1
	add.w	$a5, $a3, $a0
	move	$a4, $zero
	blt	$a5, $a3, .LBB11_12
# %bb.8:                                # %vector.scevcheck
	srli.d	$a5, $a0, 32
	move	$a0, $a4
	bnez	$a5, .LBB11_3
# %bb.9:                                # %vector.ph
	bstrpick.d	$a0, $a2, 30, 3
	slli.d	$a4, $a0, 3
	xvrepli.b	$xr0, 0
	move	$a0, $a3
	move	$a5, $a4
	xvori.b	$xr1, $xr0, 0
	.p2align	4, , 16
.LBB11_10:                              # %vector.body
                                        # =>This Inner Loop Header: Depth=1
	alsl.d	$a6, $a0, $a1, 3
	slli.d	$a7, $a0, 3
	xvldx	$xr2, $a1, $a7
	xvld	$xr3, $a6, 32
	xvadd.d	$xr0, $xr2, $xr0
	xvadd.d	$xr1, $xr3, $xr1
	addi.d	$a5, $a5, -8
	addi.w	$a0, $a0, 8
	bnez	$a5, .LBB11_10
# %bb.11:                               # %middle.block
	pcalau12i	$a0, %pc_hi20(.LCPI11_0)
	xvld	$xr2, $a0, %pc_lo12(.LCPI11_0)
	xvadd.d	$xr0, $xr1, $xr0
	xvpermi.d	$xr1, $xr0, 78
	xvshuf.d	$xr2, $xr0, $xr1
	xvadd.d	$xr0, $xr0, $xr2
	xvpermi.d	$xr1, $xr0, 68
	xvrepl128vei.d	$xr1, $xr1, 1
	xvadd.d	$xr0, $xr0, $xr1
	xvpickve2gr.d	$a0, $xr0, 0
	bne	$a4, $a2, .LBB11_3
	b	.LBB11_5
.LBB11_12:
	move	$a0, $a4
	b	.LBB11_3
.Lfunc_end11:
	.size	_ZNK8NArchive3N7z18CArchiveDatabaseEx21GetFolderFullPackSizeEi, .Lfunc_end11-_ZNK8NArchive3N7z18CArchiveDatabaseEx21GetFolderFullPackSizeEi
	.cfi_endproc
                                        # -- End function
	.text
	.p2align	5                               # -- Begin function _ZN8NArchive3N7zL21GetStringForSizeValueEj
	.type	_ZN8NArchive3N7zL21GetStringForSizeValueEj,@function
_ZN8NArchive3N7zL21GetStringForSizeValueEj: # @_ZN8NArchive3N7zL21GetStringForSizeValueEj
.Lfunc_begin4:
	.cfi_startproc
	.cfi_personality 155, DW.ref.__gxx_personality_v0
	.cfi_lsda 27, .Lexception4
# %bb.0:                                # %entry
	addi.d	$sp, $sp, -192
	.cfi_def_cfa_offset 192
	st.d	$ra, $sp, 184                   # 8-byte Folded Spill
	st.d	$fp, $sp, 176                   # 8-byte Folded Spill
	st.d	$s0, $sp, 168                   # 8-byte Folded Spill
	st.d	$s1, $sp, 160                   # 8-byte Folded Spill
	st.d	$s2, $sp, 152                   # 8-byte Folded Spill
	.cfi_offset 1, -8
	.cfi_offset 22, -16
	.cfi_offset 23, -24
	.cfi_offset 24, -32
	.cfi_offset 25, -40
	lu12i.w	$a2, 7
	ori	$a2, $a2, 4095
	move	$fp, $a0
	blt	$a2, $a1, .LBB12_5
# %bb.1:                                # %entry
	ori	$a0, $zero, 127
	blt	$a0, $a1, .LBB12_11
# %bb.2:                                # %entry
	addi.d	$a0, $a1, -1
	ori	$a2, $zero, 63
	bltu	$a2, $a0, .LBB12_51
# %bb.3:                                # %entry
	slli.d	$a0, $a0, 2
	pcalau12i	$a2, %pc_hi20(.LJTI12_0)
	addi.d	$a2, $a2, %pc_lo12(.LJTI12_0)
	ldx.w	$a0, $a2, $a0
	add.d	$a0, $a2, $a0
	jr	$a0
.LBB12_4:                               # %if.then.fold.split128
	move	$a0, $zero
	b	.LBB12_80
.LBB12_5:                               # %entry
	lu12i.w	$a0, 2047
	ori	$a0, $a0, 4095
	blt	$a0, $a1, .LBB12_16
# %bb.6:                                # %entry
	lu12i.w	$a0, 127
	ori	$a0, $a0, 4095
	blt	$a0, $a1, .LBB12_21
# %bb.7:                                # %entry
	lu12i.w	$a0, 31
	ori	$a0, $a0, 4095
	blt	$a0, $a1, .LBB12_33
# %bb.8:                                # %entry
	lu12i.w	$a0, 8
	beq	$a1, $a0, .LBB12_68
# %bb.9:                                # %entry
	lu12i.w	$a0, 16
	bne	$a1, $a0, .LBB12_52
# %bb.10:                               # %if.then.fold.split112
	ori	$a0, $zero, 16
	b	.LBB12_80
.LBB12_11:                              # %entry
	ori	$a0, $zero, 2047
	blt	$a0, $a1, .LBB12_25
# %bb.12:                               # %entry
	ori	$a0, $zero, 511
	blt	$a0, $a1, .LBB12_36
# %bb.13:                               # %entry
	ori	$a0, $zero, 128
	beq	$a1, $a0, .LBB12_69
# %bb.14:                               # %entry
	ori	$a0, $zero, 256
	bne	$a1, $a0, .LBB12_52
# %bb.15:                               # %if.then.fold.split120
	ori	$a0, $zero, 8
	b	.LBB12_80
.LBB12_16:                              # %entry
	lu12i.w	$a0, 32767
	ori	$a0, $a0, 4095
	blt	$a0, $a1, .LBB12_29
# %bb.17:                               # %entry
	lu12i.w	$a0, 8191
	ori	$a0, $a0, 4095
	blt	$a0, $a1, .LBB12_39
# %bb.18:                               # %entry
	lu12i.w	$a0, 2048
	beq	$a1, $a0, .LBB12_70
# %bb.19:                               # %entry
	lu12i.w	$a0, 4096
	bne	$a1, $a0, .LBB12_52
# %bb.20:                               # %if.then.fold.split104
	ori	$a0, $zero, 24
	b	.LBB12_80
.LBB12_21:                              # %entry
	lu12i.w	$a0, 511
	ori	$a0, $a0, 4095
	blt	$a0, $a1, .LBB12_42
# %bb.22:                               # %entry
	lu12i.w	$a0, 128
	beq	$a1, $a0, .LBB12_71
# %bb.23:                               # %entry
	lu12i.w	$a0, 256
	bne	$a1, $a0, .LBB12_52
# %bb.24:                               # %if.then.fold.split108
	ori	$a0, $zero, 20
	b	.LBB12_80
.LBB12_25:                              # %entry
	lu12i.w	$a0, 1
	ori	$a2, $a0, 4095
	blt	$a2, $a1, .LBB12_45
# %bb.26:                               # %entry
	ori	$a2, $zero, 2048
	beq	$a1, $a2, .LBB12_72
# %bb.27:                               # %entry
	bne	$a1, $a0, .LBB12_52
# %bb.28:                               # %if.then.fold.split116
	ori	$a0, $zero, 12
	b	.LBB12_80
.LBB12_29:                              # %entry
	lu12i.w	$a0, 131071
	ori	$a0, $a0, 4095
	blt	$a0, $a1, .LBB12_48
# %bb.30:                               # %entry
	lu12i.w	$a0, 32768
	beq	$a1, $a0, .LBB12_73
# %bb.31:                               # %entry
	lu12i.w	$a0, 65536
	bne	$a1, $a0, .LBB12_52
# %bb.32:                               # %if.then.fold.split100
	ori	$a0, $zero, 28
	b	.LBB12_80
.LBB12_33:                              # %entry
	lu12i.w	$a0, 32
	beq	$a1, $a0, .LBB12_74
# %bb.34:                               # %entry
	lu12i.w	$a0, 64
	bne	$a1, $a0, .LBB12_52
# %bb.35:                               # %if.then.fold.split110
	ori	$a0, $zero, 18
	b	.LBB12_80
.LBB12_36:                              # %entry
	ori	$a0, $zero, 512
	beq	$a1, $a0, .LBB12_75
# %bb.37:                               # %entry
	ori	$a0, $zero, 1024
	bne	$a1, $a0, .LBB12_52
# %bb.38:                               # %if.then.fold.split118
	ori	$a0, $zero, 10
	b	.LBB12_80
.LBB12_39:                              # %entry
	lu12i.w	$a0, 8192
	beq	$a1, $a0, .LBB12_76
# %bb.40:                               # %entry
	lu12i.w	$a0, 16384
	bne	$a1, $a0, .LBB12_52
# %bb.41:                               # %if.then.fold.split102
	ori	$a0, $zero, 26
	b	.LBB12_80
.LBB12_42:                              # %entry
	lu12i.w	$a0, 512
	beq	$a1, $a0, .LBB12_77
# %bb.43:                               # %entry
	lu12i.w	$a0, 1024
	bne	$a1, $a0, .LBB12_52
# %bb.44:                               # %if.then.fold.split106
	ori	$a0, $zero, 22
	b	.LBB12_80
.LBB12_45:                              # %entry
	lu12i.w	$a0, 2
	beq	$a1, $a0, .LBB12_78
# %bb.46:                               # %entry
	lu12i.w	$a0, 4
	bne	$a1, $a0, .LBB12_52
# %bb.47:                               # %if.then.fold.split114
	ori	$a0, $zero, 14
	b	.LBB12_80
.LBB12_48:                              # %entry
	lu12i.w	$a0, 131072
	beq	$a1, $a0, .LBB12_79
# %bb.49:                               # %entry
	lu12i.w	$a0, 262144
	bne	$a1, $a0, .LBB12_52
# %bb.50:                               # %if.then.fold.split
	ori	$a0, $zero, 30
	b	.LBB12_80
.LBB12_51:                              # %entry
	lu12i.w	$a2, -524288
	ori	$a0, $zero, 31
	beq	$a1, $a2, .LBB12_80
.LBB12_52:                              # %for.inc.31
	st.d	$zero, $fp, 8
	ori	$a0, $zero, 16
	move	$s0, $a1
	pcaddu18i	$ra, %call36(_Znam)
	jirl	$ra, $ra, 0
	move	$a1, $s0
	st.d	$a0, $fp, 0
	st.w	$zero, $a0, 0
	ori	$a0, $zero, 4
	bstrpick.d	$a2, $s0, 19, 0
	st.w	$a0, $fp, 12
	beqz	$a2, .LBB12_84
# %bb.53:                               # %if.else
	andi	$a0, $a1, 1023
	beqz	$a0, .LBB12_92
# %bb.54:                               # %if.else23
	bstrpick.d	$a0, $a1, 31, 0
.Ltmp218:                               # EH_LABEL
	addi.d	$a1, $sp, 24
	pcaddu18i	$ra, %call36(_Z21ConvertUInt64ToStringyPw)
	jirl	$ra, $ra, 0
.Ltmp219:                               # EH_LABEL
# %bb.55:                               # %.noexc81
	vrepli.b	$vr0, 0
	vst	$vr0, $sp, 8
	addi.d	$a0, $sp, 24
	addi.d	$s1, $sp, 24
	pcaddu18i	$ra, %call36(wcslen)
	jirl	$ra, $ra, 0
	move	$s0, $a0
	addi.w	$a0, $a0, 0
	addi.w	$s2, $s0, 1
	slti	$a0, $a0, -1
	slli.d	$a1, $s2, 2
	addi.w	$a2, $zero, -1
	maskeqz	$a2, $a2, $a0
	masknez	$a0, $a1, $a0
	or	$a0, $a2, $a0
.Ltmp220:                               # EH_LABEL
	pcaddu18i	$ra, %call36(_Znam)
	jirl	$ra, $ra, 0
.Ltmp221:                               # EH_LABEL
# %bb.56:                               # %call.i.i.i72.noexc
	st.d	$a0, $sp, 8
	st.w	$zero, $a0, 0
	st.w	$s2, $sp, 20
	.p2align	4, , 16
.LBB12_57:                              # %while.cond.i.i.i74
                                        # =>This Inner Loop Header: Depth=1
	ld.w	$a1, $s1, 0
	addi.d	$s1, $s1, 4
	addi.d	$a2, $a0, 4
	st.w	$a1, $a0, 0
	move	$a0, $a2
	bnez	$a1, .LBB12_57
# %bb.58:                               # %invoke.cont26
	st.w	$s0, $sp, 16
.Ltmp223:                               # EH_LABEL
	addi.d	$a1, $sp, 8
	move	$a0, $fp
	pcaddu18i	$ra, %call36(_ZN11CStringBaseIwEpLERKS0_)
	jirl	$ra, $ra, 0
.Ltmp224:                               # EH_LABEL
# %bb.59:                               # %invoke.cont28
	ld.d	$a0, $sp, 8
	beqz	$a0, .LBB12_61
# %bb.60:                               # %delete.notnull.i85
	pcaddu18i	$ra, %call36(_ZdaPv)
	jirl	$ra, $ra, 0
.LBB12_61:                              # %_ZN11CStringBaseIwED2Ev.exit86
	pcalau12i	$a0, %pc_hi20(.L.str.5)
	addi.d	$a1, $a0, %pc_lo12(.L.str.5)
	b	.LBB12_100
.LBB12_62:                              # %if.then.fold.split126
	ori	$a0, $zero, 2
	b	.LBB12_80
.LBB12_63:                              # %if.then.fold.split125
	ori	$a0, $zero, 3
	b	.LBB12_80
.LBB12_64:                              # %if.then.fold.split123
	ori	$a0, $zero, 5
	b	.LBB12_80
.LBB12_65:                              # %if.then.fold.split124
	ori	$a0, $zero, 4
	b	.LBB12_80
.LBB12_66:                              # %if.then.fold.split127
	ori	$a0, $zero, 1
	b	.LBB12_80
.LBB12_67:                              # %if.then.fold.split122
	ori	$a0, $zero, 6
	b	.LBB12_80
.LBB12_68:                              # %if.then.fold.split113
	ori	$a0, $zero, 15
	b	.LBB12_80
.LBB12_69:                              # %if.then.fold.split121
	ori	$a0, $zero, 7
	b	.LBB12_80
.LBB12_70:                              # %if.then.fold.split105
	ori	$a0, $zero, 23
	b	.LBB12_80
.LBB12_71:                              # %if.then.fold.split109
	ori	$a0, $zero, 19
	b	.LBB12_80
.LBB12_72:                              # %if.then.fold.split117
	ori	$a0, $zero, 11
	b	.LBB12_80
.LBB12_73:                              # %if.then.fold.split101
	ori	$a0, $zero, 27
	b	.LBB12_80
.LBB12_74:                              # %if.then.fold.split111
	ori	$a0, $zero, 17
	b	.LBB12_80
.LBB12_75:                              # %if.then.fold.split119
	ori	$a0, $zero, 9
	b	.LBB12_80
.LBB12_76:                              # %if.then.fold.split103
	ori	$a0, $zero, 25
	b	.LBB12_80
.LBB12_77:                              # %if.then.fold.split107
	ori	$a0, $zero, 21
	b	.LBB12_80
.LBB12_78:                              # %if.then.fold.split115
	ori	$a0, $zero, 13
	b	.LBB12_80
.LBB12_79:                              # %if.then.fold.split99
	ori	$a0, $zero, 29
.LBB12_80:                              # %if.then
	addi.d	$a1, $sp, 24
	addi.d	$s1, $sp, 24
	pcaddu18i	$ra, %call36(_Z21ConvertUInt64ToStringyPw)
	jirl	$ra, $ra, 0
	vrepli.b	$vr0, 0
	vst	$vr0, $fp, 0
	addi.d	$a0, $sp, 24
	pcaddu18i	$ra, %call36(wcslen)
	jirl	$ra, $ra, 0
	move	$s0, $a0
	addi.w	$a0, $a0, 0
	addi.w	$s2, $s0, 1
	slti	$a0, $a0, -1
	slli.d	$a1, $s2, 2
	addi.w	$a2, $zero, -1
	maskeqz	$a2, $a2, $a0
	masknez	$a0, $a1, $a0
	or	$a0, $a2, $a0
	pcaddu18i	$ra, %call36(_Znam)
	jirl	$ra, $ra, 0
	st.d	$a0, $fp, 0
	st.w	$zero, $a0, 0
	st.w	$s2, $fp, 12
	.p2align	4, , 16
.LBB12_81:                              # %while.cond.i.i.i
                                        # =>This Inner Loop Header: Depth=1
	ld.w	$a1, $s1, 0
	addi.d	$s1, $s1, 4
	addi.d	$a2, $a0, 4
	st.w	$a1, $a0, 0
	move	$a0, $a2
	bnez	$a1, .LBB12_81
# %bb.82:                               # %cleanup
	st.w	$s0, $fp, 8
.LBB12_83:                              # %return
	ld.d	$s2, $sp, 152                   # 8-byte Folded Reload
	ld.d	$s1, $sp, 160                   # 8-byte Folded Reload
	ld.d	$s0, $sp, 168                   # 8-byte Folded Reload
	ld.d	$fp, $sp, 176                   # 8-byte Folded Reload
	ld.d	$ra, $sp, 184                   # 8-byte Folded Reload
	addi.d	$sp, $sp, 192
	ret
.LBB12_84:                              # %if.then3
	bstrpick.d	$a0, $a1, 31, 20
.Ltmp234:                               # EH_LABEL
	addi.d	$a1, $sp, 24
	pcaddu18i	$ra, %call36(_Z21ConvertUInt64ToStringyPw)
	jirl	$ra, $ra, 0
.Ltmp235:                               # EH_LABEL
# %bb.85:                               # %.noexc
	vrepli.b	$vr0, 0
	vst	$vr0, $sp, 8
	addi.d	$a0, $sp, 24
	addi.d	$s1, $sp, 24
	pcaddu18i	$ra, %call36(wcslen)
	jirl	$ra, $ra, 0
	move	$s0, $a0
	addi.w	$a0, $a0, 0
	addi.w	$s2, $s0, 1
	slti	$a0, $a0, -1
	slli.d	$a1, $s2, 2
	addi.w	$a2, $zero, -1
	maskeqz	$a2, $a2, $a0
	masknez	$a0, $a1, $a0
	or	$a0, $a2, $a0
.Ltmp236:                               # EH_LABEL
	pcaddu18i	$ra, %call36(_Znam)
	jirl	$ra, $ra, 0
.Ltmp237:                               # EH_LABEL
# %bb.86:                               # %call.i.i.i24.noexc
	st.d	$a0, $sp, 8
	st.w	$zero, $a0, 0
	st.w	$s2, $sp, 20
	.p2align	4, , 16
.LBB12_87:                              # %while.cond.i.i.i26
                                        # =>This Inner Loop Header: Depth=1
	ld.w	$a1, $s1, 0
	addi.d	$s1, $s1, 4
	addi.d	$a2, $a0, 4
	st.w	$a1, $a0, 0
	move	$a0, $a2
	bnez	$a1, .LBB12_87
# %bb.88:                               # %invoke.cont
	st.w	$s0, $sp, 16
.Ltmp239:                               # EH_LABEL
	addi.d	$a1, $sp, 8
	move	$a0, $fp
	pcaddu18i	$ra, %call36(_ZN11CStringBaseIwEpLERKS0_)
	jirl	$ra, $ra, 0
.Ltmp240:                               # EH_LABEL
# %bb.89:                               # %invoke.cont5
	ld.d	$a0, $sp, 8
	beqz	$a0, .LBB12_91
# %bb.90:                               # %delete.notnull.i
	pcaddu18i	$ra, %call36(_ZdaPv)
	jirl	$ra, $ra, 0
.LBB12_91:                              # %_ZN11CStringBaseIwED2Ev.exit
	pcalau12i	$a0, %pc_hi20(.L.str.3)
	addi.d	$a1, $a0, %pc_lo12(.L.str.3)
	b	.LBB12_100
.LBB12_92:                              # %if.then11
	bstrpick.d	$a0, $a1, 31, 10
.Ltmp226:                               # EH_LABEL
	addi.d	$a1, $sp, 24
	pcaddu18i	$ra, %call36(_Z21ConvertUInt64ToStringyPw)
	jirl	$ra, $ra, 0
.Ltmp227:                               # EH_LABEL
# %bb.93:                               # %.noexc55
	vrepli.b	$vr0, 0
	vst	$vr0, $sp, 8
	addi.d	$a0, $sp, 24
	addi.d	$s1, $sp, 24
	pcaddu18i	$ra, %call36(wcslen)
	jirl	$ra, $ra, 0
	move	$s0, $a0
	addi.w	$a0, $a0, 0
	addi.w	$s2, $s0, 1
	slti	$a0, $a0, -1
	slli.d	$a1, $s2, 2
	addi.w	$a2, $zero, -1
	maskeqz	$a2, $a2, $a0
	masknez	$a0, $a1, $a0
	or	$a0, $a2, $a0
.Ltmp228:                               # EH_LABEL
	pcaddu18i	$ra, %call36(_Znam)
	jirl	$ra, $ra, 0
.Ltmp229:                               # EH_LABEL
# %bb.94:                               # %call.i.i.i46.noexc
	st.d	$a0, $sp, 8
	st.w	$zero, $a0, 0
	st.w	$s2, $sp, 20
	.p2align	4, , 16
.LBB12_95:                              # %while.cond.i.i.i48
                                        # =>This Inner Loop Header: Depth=1
	ld.w	$a1, $s1, 0
	addi.d	$s1, $s1, 4
	addi.d	$a2, $a0, 4
	st.w	$a1, $a0, 0
	move	$a0, $a2
	bnez	$a1, .LBB12_95
# %bb.96:                               # %invoke.cont15
	st.w	$s0, $sp, 16
.Ltmp231:                               # EH_LABEL
	addi.d	$a1, $sp, 8
	move	$a0, $fp
	pcaddu18i	$ra, %call36(_ZN11CStringBaseIwEpLERKS0_)
	jirl	$ra, $ra, 0
.Ltmp232:                               # EH_LABEL
# %bb.97:                               # %invoke.cont17
	ld.d	$a0, $sp, 8
	beqz	$a0, .LBB12_99
# %bb.98:                               # %delete.notnull.i59
	pcaddu18i	$ra, %call36(_ZdaPv)
	jirl	$ra, $ra, 0
.LBB12_99:                              # %_ZN11CStringBaseIwED2Ev.exit60
	pcalau12i	$a0, %pc_hi20(.L.str.4)
	addi.d	$a1, $a0, %pc_lo12(.L.str.4)
.LBB12_100:                             # %_ZN11CStringBaseIwED2Ev.exit86.invoke
.Ltmp242:                               # EH_LABEL
	move	$a0, $fp
	pcaddu18i	$ra, %call36(_ZN11CStringBaseIwEpLEPKw)
	jirl	$ra, $ra, 0
.Ltmp243:                               # EH_LABEL
	b	.LBB12_83
.LBB12_101:                             # %lpad16
.Ltmp233:                               # EH_LABEL
	b	.LBB12_104
.LBB12_102:                             # %lpad4
.Ltmp241:                               # EH_LABEL
	b	.LBB12_104
.LBB12_103:                             # %lpad27
.Ltmp225:                               # EH_LABEL
.LBB12_104:                             # %lpad27
	ld.d	$a1, $sp, 8
	move	$s0, $a0
	bnez	$a1, .LBB12_107
# %bb.105:                              # %ehcleanup37
	ld.d	$a0, $fp, 0
	bnez	$a0, .LBB12_112
.LBB12_106:                             # %_ZN11CStringBaseIwED2Ev.exit92
	move	$a0, $s0
	pcaddu18i	$ra, %call36(_Unwind_Resume)
	jirl	$ra, $ra, 0
.LBB12_107:                             # %delete.notnull.i88
	move	$a0, $a1
	pcaddu18i	$ra, %call36(_ZdaPv)
	jirl	$ra, $ra, 0
	ld.d	$a0, $fp, 0
	beqz	$a0, .LBB12_106
	b	.LBB12_112
.LBB12_108:                             # %lpad14
.Ltmp230:                               # EH_LABEL
	move	$s0, $a0
	ld.d	$a0, $fp, 0
	beqz	$a0, .LBB12_106
	b	.LBB12_112
.LBB12_109:                             # %lpad
.Ltmp238:                               # EH_LABEL
	move	$s0, $a0
	ld.d	$a0, $fp, 0
	beqz	$a0, .LBB12_106
	b	.LBB12_112
.LBB12_110:                             # %lpad25
.Ltmp222:                               # EH_LABEL
	move	$s0, $a0
	ld.d	$a0, $fp, 0
	beqz	$a0, .LBB12_106
	b	.LBB12_112
.LBB12_111:                             # %lpad6
.Ltmp244:                               # EH_LABEL
	move	$s0, $a0
	ld.d	$a0, $fp, 0
	beqz	$a0, .LBB12_106
.LBB12_112:                             # %delete.notnull.i91
	pcaddu18i	$ra, %call36(_ZdaPv)
	jirl	$ra, $ra, 0
	move	$a0, $s0
	pcaddu18i	$ra, %call36(_Unwind_Resume)
	jirl	$ra, $ra, 0
.Lfunc_end12:
	.size	_ZN8NArchive3N7zL21GetStringForSizeValueEj, .Lfunc_end12-_ZN8NArchive3N7zL21GetStringForSizeValueEj
	.cfi_endproc
	.section	.rodata,"a",@progbits
	.p2align	2, 0x0
.LJTI12_0:
	.word	.LBB12_4-.LJTI12_0
	.word	.LBB12_66-.LJTI12_0
	.word	.LBB12_52-.LJTI12_0
	.word	.LBB12_62-.LJTI12_0
	.word	.LBB12_52-.LJTI12_0
	.word	.LBB12_52-.LJTI12_0
	.word	.LBB12_52-.LJTI12_0
	.word	.LBB12_63-.LJTI12_0
	.word	.LBB12_52-.LJTI12_0
	.word	.LBB12_52-.LJTI12_0
	.word	.LBB12_52-.LJTI12_0
	.word	.LBB12_52-.LJTI12_0
	.word	.LBB12_52-.LJTI12_0
	.word	.LBB12_52-.LJTI12_0
	.word	.LBB12_52-.LJTI12_0
	.word	.LBB12_65-.LJTI12_0
	.word	.LBB12_52-.LJTI12_0
	.word	.LBB12_52-.LJTI12_0
	.word	.LBB12_52-.LJTI12_0
	.word	.LBB12_52-.LJTI12_0
	.word	.LBB12_52-.LJTI12_0
	.word	.LBB12_52-.LJTI12_0
	.word	.LBB12_52-.LJTI12_0
	.word	.LBB12_52-.LJTI12_0
	.word	.LBB12_52-.LJTI12_0
	.word	.LBB12_52-.LJTI12_0
	.word	.LBB12_52-.LJTI12_0
	.word	.LBB12_52-.LJTI12_0
	.word	.LBB12_52-.LJTI12_0
	.word	.LBB12_52-.LJTI12_0
	.word	.LBB12_52-.LJTI12_0
	.word	.LBB12_64-.LJTI12_0
	.word	.LBB12_52-.LJTI12_0
	.word	.LBB12_52-.LJTI12_0
	.word	.LBB12_52-.LJTI12_0
	.word	.LBB12_52-.LJTI12_0
	.word	.LBB12_52-.LJTI12_0
	.word	.LBB12_52-.LJTI12_0
	.word	.LBB12_52-.LJTI12_0
	.word	.LBB12_52-.LJTI12_0
	.word	.LBB12_52-.LJTI12_0
	.word	.LBB12_52-.LJTI12_0
	.word	.LBB12_52-.LJTI12_0
	.word	.LBB12_52-.LJTI12_0
	.word	.LBB12_52-.LJTI12_0
	.word	.LBB12_52-.LJTI12_0
	.word	.LBB12_52-.LJTI12_0
	.word	.LBB12_52-.LJTI12_0
	.word	.LBB12_52-.LJTI12_0
	.word	.LBB12_52-.LJTI12_0
	.word	.LBB12_52-.LJTI12_0
	.word	.LBB12_52-.LJTI12_0
	.word	.LBB12_52-.LJTI12_0
	.word	.LBB12_52-.LJTI12_0
	.word	.LBB12_52-.LJTI12_0
	.word	.LBB12_52-.LJTI12_0
	.word	.LBB12_52-.LJTI12_0
	.word	.LBB12_52-.LJTI12_0
	.word	.LBB12_52-.LJTI12_0
	.word	.LBB12_52-.LJTI12_0
	.word	.LBB12_52-.LJTI12_0
	.word	.LBB12_52-.LJTI12_0
	.word	.LBB12_52-.LJTI12_0
	.word	.LBB12_67-.LJTI12_0
	.section	.gcc_except_table,"a",@progbits
	.p2align	2, 0x0
GCC_except_table12:
.Lexception4:
	.byte	255                             # @LPStart Encoding = omit
	.byte	255                             # @TType Encoding = omit
	.byte	1                               # Call site Encoding = uleb128
	.uleb128 .Lcst_end4-.Lcst_begin4
.Lcst_begin4:
	.uleb128 .Lfunc_begin4-.Lfunc_begin4    # >> Call Site 1 <<
	.uleb128 .Ltmp218-.Lfunc_begin4         #   Call between .Lfunc_begin4 and .Ltmp218
	.byte	0                               #     has no landing pad
	.byte	0                               #   On action: cleanup
	.uleb128 .Ltmp218-.Lfunc_begin4         # >> Call Site 2 <<
	.uleb128 .Ltmp219-.Ltmp218              #   Call between .Ltmp218 and .Ltmp219
	.uleb128 .Ltmp222-.Lfunc_begin4         #     jumps to .Ltmp222
	.byte	0                               #   On action: cleanup
	.uleb128 .Ltmp219-.Lfunc_begin4         # >> Call Site 3 <<
	.uleb128 .Ltmp220-.Ltmp219              #   Call between .Ltmp219 and .Ltmp220
	.byte	0                               #     has no landing pad
	.byte	0                               #   On action: cleanup
	.uleb128 .Ltmp220-.Lfunc_begin4         # >> Call Site 4 <<
	.uleb128 .Ltmp221-.Ltmp220              #   Call between .Ltmp220 and .Ltmp221
	.uleb128 .Ltmp222-.Lfunc_begin4         #     jumps to .Ltmp222
	.byte	0                               #   On action: cleanup
	.uleb128 .Ltmp223-.Lfunc_begin4         # >> Call Site 5 <<
	.uleb128 .Ltmp224-.Ltmp223              #   Call between .Ltmp223 and .Ltmp224
	.uleb128 .Ltmp225-.Lfunc_begin4         #     jumps to .Ltmp225
	.byte	0                               #   On action: cleanup
	.uleb128 .Ltmp224-.Lfunc_begin4         # >> Call Site 6 <<
	.uleb128 .Ltmp234-.Ltmp224              #   Call between .Ltmp224 and .Ltmp234
	.byte	0                               #     has no landing pad
	.byte	0                               #   On action: cleanup
	.uleb128 .Ltmp234-.Lfunc_begin4         # >> Call Site 7 <<
	.uleb128 .Ltmp235-.Ltmp234              #   Call between .Ltmp234 and .Ltmp235
	.uleb128 .Ltmp238-.Lfunc_begin4         #     jumps to .Ltmp238
	.byte	0                               #   On action: cleanup
	.uleb128 .Ltmp235-.Lfunc_begin4         # >> Call Site 8 <<
	.uleb128 .Ltmp236-.Ltmp235              #   Call between .Ltmp235 and .Ltmp236
	.byte	0                               #     has no landing pad
	.byte	0                               #   On action: cleanup
	.uleb128 .Ltmp236-.Lfunc_begin4         # >> Call Site 9 <<
	.uleb128 .Ltmp237-.Ltmp236              #   Call between .Ltmp236 and .Ltmp237
	.uleb128 .Ltmp238-.Lfunc_begin4         #     jumps to .Ltmp238
	.byte	0                               #   On action: cleanup
	.uleb128 .Ltmp239-.Lfunc_begin4         # >> Call Site 10 <<
	.uleb128 .Ltmp240-.Ltmp239              #   Call between .Ltmp239 and .Ltmp240
	.uleb128 .Ltmp241-.Lfunc_begin4         #     jumps to .Ltmp241
	.byte	0                               #   On action: cleanup
	.uleb128 .Ltmp240-.Lfunc_begin4         # >> Call Site 11 <<
	.uleb128 .Ltmp226-.Ltmp240              #   Call between .Ltmp240 and .Ltmp226
	.byte	0                               #     has no landing pad
	.byte	0                               #   On action: cleanup
	.uleb128 .Ltmp226-.Lfunc_begin4         # >> Call Site 12 <<
	.uleb128 .Ltmp227-.Ltmp226              #   Call between .Ltmp226 and .Ltmp227
	.uleb128 .Ltmp230-.Lfunc_begin4         #     jumps to .Ltmp230
	.byte	0                               #   On action: cleanup
	.uleb128 .Ltmp227-.Lfunc_begin4         # >> Call Site 13 <<
	.uleb128 .Ltmp228-.Ltmp227              #   Call between .Ltmp227 and .Ltmp228
	.byte	0                               #     has no landing pad
	.byte	0                               #   On action: cleanup
	.uleb128 .Ltmp228-.Lfunc_begin4         # >> Call Site 14 <<
	.uleb128 .Ltmp229-.Ltmp228              #   Call between .Ltmp228 and .Ltmp229
	.uleb128 .Ltmp230-.Lfunc_begin4         #     jumps to .Ltmp230
	.byte	0                               #   On action: cleanup
	.uleb128 .Ltmp231-.Lfunc_begin4         # >> Call Site 15 <<
	.uleb128 .Ltmp232-.Ltmp231              #   Call between .Ltmp231 and .Ltmp232
	.uleb128 .Ltmp233-.Lfunc_begin4         #     jumps to .Ltmp233
	.byte	0                               #   On action: cleanup
	.uleb128 .Ltmp232-.Lfunc_begin4         # >> Call Site 16 <<
	.uleb128 .Ltmp242-.Ltmp232              #   Call between .Ltmp232 and .Ltmp242
	.byte	0                               #     has no landing pad
	.byte	0                               #   On action: cleanup
	.uleb128 .Ltmp242-.Lfunc_begin4         # >> Call Site 17 <<
	.uleb128 .Ltmp243-.Ltmp242              #   Call between .Ltmp242 and .Ltmp243
	.uleb128 .Ltmp244-.Lfunc_begin4         #     jumps to .Ltmp244
	.byte	0                               #   On action: cleanup
	.uleb128 .Ltmp243-.Lfunc_begin4         # >> Call Site 18 <<
	.uleb128 .Lfunc_end12-.Ltmp243          #   Call between .Ltmp243 and .Lfunc_end12
	.byte	0                               #     has no landing pad
	.byte	0                               #   On action: cleanup
.Lcst_end4:
	.p2align	2, 0x0
                                        # -- End function
	.section	.text._ZN11CStringBaseIwEpLEPKw,"axG",@progbits,_ZN11CStringBaseIwEpLEPKw,comdat
	.weak	_ZN11CStringBaseIwEpLEPKw       # -- Begin function _ZN11CStringBaseIwEpLEPKw
	.p2align	2
	.type	_ZN11CStringBaseIwEpLEPKw,@function
_ZN11CStringBaseIwEpLEPKw:              # @_ZN11CStringBaseIwEpLEPKw
	.cfi_startproc
# %bb.0:                                # %entry
	addi.d	$sp, $sp, -80
	.cfi_def_cfa_offset 80
	st.d	$ra, $sp, 72                    # 8-byte Folded Spill
	st.d	$fp, $sp, 64                    # 8-byte Folded Spill
	st.d	$s0, $sp, 56                    # 8-byte Folded Spill
	st.d	$s1, $sp, 48                    # 8-byte Folded Spill
	st.d	$s2, $sp, 40                    # 8-byte Folded Spill
	st.d	$s3, $sp, 32                    # 8-byte Folded Spill
	st.d	$s4, $sp, 24                    # 8-byte Folded Spill
	st.d	$s5, $sp, 16                    # 8-byte Folded Spill
	.cfi_offset 1, -8
	.cfi_offset 22, -16
	.cfi_offset 23, -24
	.cfi_offset 24, -32
	.cfi_offset 25, -40
	.cfi_offset 26, -48
	.cfi_offset 27, -56
	.cfi_offset 28, -64
	move	$s0, $a1
	move	$fp, $a0
	move	$a0, $a1
	pcaddu18i	$ra, %call36(wcslen)
	jirl	$ra, $ra, 0
	ld.w	$s3, $fp, 8
	ld.w	$s5, $fp, 12
	move	$s1, $a0
	addi.w	$a0, $a0, 0
	nor	$a1, $s3, $zero
	add.w	$a1, $s5, $a1
	bge	$a1, $a0, .LBB13_20
# %bb.1:                                # %if.end.i
	ori	$a2, $zero, 64
	slt	$a2, $a2, $s5
	bstrpick.d	$a3, $s5, 31, 1
	ori	$a4, $zero, 8
	slt	$a4, $a4, $s5
	ori	$a5, $zero, 4
	masknez	$a5, $a5, $a4
	ori	$a6, $zero, 16
	maskeqz	$a4, $a6, $a4
	or	$a4, $a4, $a5
	masknez	$a4, $a4, $a2
	maskeqz	$a2, $a3, $a2
	or	$a2, $a2, $a4
	add.w	$a3, $a2, $a1
	slt	$a0, $a3, $a0
	sub.d	$a1, $s1, $a1
	masknez	$a2, $a2, $a0
	maskeqz	$a0, $a1, $a0
	or	$a0, $a0, $a2
	add.w	$a0, $a0, $s5
	addi.w	$s4, $a0, 1
	beq	$s4, $s5, .LBB13_20
# %bb.2:                                # %if.end.i.i
	slti	$a0, $a0, -1
	slli.d	$a1, $s4, 2
	masknez	$a1, $a1, $a0
	addi.w	$a2, $zero, -1
	maskeqz	$a0, $a2, $a0
	or	$a0, $a0, $a1
	pcaddu18i	$ra, %call36(_Znam)
	jirl	$ra, $ra, 0
	ori	$a1, $zero, 1
	move	$s2, $a0
	blt	$s5, $a1, .LBB13_19
# %bb.3:                                # %for.cond.preheader.i.i
	ld.d	$a0, $fp, 0
	blt	$s3, $a1, .LBB13_8
# %bb.4:                                # %iter.check
	ori	$a2, $zero, 4
	move	$a1, $zero
	bltu	$s3, $a2, .LBB13_16
# %bb.5:                                # %iter.check
	sub.d	$a2, $s2, $a0
	ori	$a3, $zero, 63
	bgeu	$a3, $a2, .LBB13_16
# %bb.6:                                # %vector.main.loop.iter.check
	ori	$a1, $zero, 16
	bgeu	$s3, $a1, .LBB13_9
# %bb.7:
	move	$a1, $zero
	b	.LBB13_13
.LBB13_8:                               # %for.cond.cleanup.i.i
	bnez	$a0, .LBB13_18
	b	.LBB13_19
.LBB13_9:                               # %vector.ph
	bstrpick.d	$a1, $s3, 30, 4
	slli.d	$a1, $a1, 4
	addi.d	$a2, $s2, 32
	addi.d	$a3, $a0, 32
	move	$a4, $a1
	.p2align	4, , 16
.LBB13_10:                              # %vector.body
                                        # =>This Inner Loop Header: Depth=1
	xvld	$xr0, $a3, -32
	xvld	$xr1, $a3, 0
	xvst	$xr0, $a2, -32
	xvst	$xr1, $a2, 0
	addi.d	$a4, $a4, -16
	addi.d	$a2, $a2, 64
	addi.d	$a3, $a3, 64
	bnez	$a4, .LBB13_10
# %bb.11:                               # %middle.block
	beq	$a1, $s3, .LBB13_18
# %bb.12:                               # %vec.epilog.iter.check
	andi	$a2, $s3, 12
	beqz	$a2, .LBB13_16
.LBB13_13:                              # %vec.epilog.ph
	move	$a4, $a1
	bstrpick.d	$a1, $s3, 30, 2
	slli.d	$a1, $a1, 2
	sub.d	$a2, $a4, $a1
	alsl.d	$a3, $a4, $s2, 2
	alsl.d	$a4, $a4, $a0, 2
	.p2align	4, , 16
.LBB13_14:                              # %vec.epilog.vector.body
                                        # =>This Inner Loop Header: Depth=1
	vld	$vr0, $a4, 0
	vst	$vr0, $a3, 0
	addi.d	$a2, $a2, 4
	addi.d	$a3, $a3, 16
	addi.d	$a4, $a4, 16
	bnez	$a2, .LBB13_14
# %bb.15:                               # %vec.epilog.middle.block
	beq	$a1, $s3, .LBB13_18
.LBB13_16:                              # %for.body.i.i.preheader
	sub.d	$a2, $s3, $a1
	alsl.d	$a3, $a1, $s2, 2
	alsl.d	$a1, $a1, $a0, 2
	.p2align	4, , 16
.LBB13_17:                              # %for.body.i.i
                                        # =>This Inner Loop Header: Depth=1
	ld.w	$a4, $a1, 0
	st.w	$a4, $a3, 0
	addi.d	$a2, $a2, -1
	addi.d	$a3, $a3, 4
	addi.d	$a1, $a1, 4
	bnez	$a2, .LBB13_17
.LBB13_18:                              # %delete.notnull.i.i
	pcaddu18i	$ra, %call36(_ZdaPv)
	jirl	$ra, $ra, 0
	ld.w	$s3, $fp, 8
.LBB13_19:                              # %if.end9.i.i
	st.d	$s2, $fp, 0
	slli.d	$a0, $s3, 2
	stx.w	$zero, $s2, $a0
	st.w	$s4, $fp, 12
.LBB13_20:                              # %_ZN11CStringBaseIwE10GrowLengthEi.exit
	ld.d	$a0, $fp, 0
	alsl.d	$a0, $s3, $a0, 2
	.p2align	4, , 16
.LBB13_21:                              # %while.cond.i
                                        # =>This Inner Loop Header: Depth=1
	ld.w	$a1, $s0, 0
	addi.d	$s0, $s0, 4
	addi.d	$a2, $a0, 4
	st.w	$a1, $a0, 0
	move	$a0, $a2
	bnez	$a1, .LBB13_21
# %bb.22:                               # %_Z12MyStringCopyIwEPT_S1_PKS0_.exit
	add.d	$a0, $s3, $s1
	st.w	$a0, $fp, 8
	move	$a0, $fp
	ld.d	$s5, $sp, 16                    # 8-byte Folded Reload
	ld.d	$s4, $sp, 24                    # 8-byte Folded Reload
	ld.d	$s3, $sp, 32                    # 8-byte Folded Reload
	ld.d	$s2, $sp, 40                    # 8-byte Folded Reload
	ld.d	$s1, $sp, 48                    # 8-byte Folded Reload
	ld.d	$s0, $sp, 56                    # 8-byte Folded Reload
	ld.d	$fp, $sp, 64                    # 8-byte Folded Reload
	ld.d	$ra, $sp, 72                    # 8-byte Folded Reload
	addi.d	$sp, $sp, 80
	ret
.Lfunc_end13:
	.size	_ZN11CStringBaseIwEpLEPKw, .Lfunc_end13-_ZN11CStringBaseIwEpLEPKw
	.cfi_endproc
                                        # -- End function
	.text
	.globl	_ZN8NArchive3N7z8CHandler4OpenEP9IInStreamPKyP20IArchiveOpenCallback # -- Begin function _ZN8NArchive3N7z8CHandler4OpenEP9IInStreamPKyP20IArchiveOpenCallback
	.p2align	2
	.type	_ZN8NArchive3N7z8CHandler4OpenEP9IInStreamPKyP20IArchiveOpenCallback,@function
_ZN8NArchive3N7z8CHandler4OpenEP9IInStreamPKyP20IArchiveOpenCallback: # @_ZN8NArchive3N7z8CHandler4OpenEP9IInStreamPKyP20IArchiveOpenCallback
.Lfunc_begin5:
	.cfi_startproc
	.cfi_personality 155, DW.ref.__gxx_personality_v0
	.cfi_lsda 27, .Lexception5
# %bb.0:                                # %entry
	addi.d	$sp, $sp, -176
	.cfi_def_cfa_offset 176
	st.d	$ra, $sp, 168                   # 8-byte Folded Spill
	st.d	$fp, $sp, 160                   # 8-byte Folded Spill
	st.d	$s0, $sp, 152                   # 8-byte Folded Spill
	st.d	$s1, $sp, 144                   # 8-byte Folded Spill
	st.d	$s2, $sp, 136                   # 8-byte Folded Spill
	st.d	$s3, $sp, 128                   # 8-byte Folded Spill
	st.d	$s4, $sp, 120                   # 8-byte Folded Spill
	.cfi_offset 1, -8
	.cfi_offset 22, -16
	.cfi_offset 23, -24
	.cfi_offset 24, -32
	.cfi_offset 25, -40
	.cfi_offset 26, -48
	.cfi_offset 27, -56
	move	$fp, $a0
	ld.d	$a0, $a0, 0
	ld.d	$a4, $a0, 48
	move	$s0, $a3
	move	$s2, $a2
	move	$s1, $a1
.Ltmp245:                               # EH_LABEL
	move	$a0, $fp
	jirl	$ra, $a4, 0
.Ltmp246:                               # EH_LABEL
# %bb.1:                                # %invoke.cont
	addi.d	$a0, $fp, 880
.Ltmp247:                               # EH_LABEL
	pcaddu18i	$ra, %call36(_ZN17CBaseRecordVector5ClearEv)
	jirl	$ra, $ra, 0
.Ltmp248:                               # EH_LABEL
# %bb.2:                                # %invoke.cont2
	beqz	$s0, .LBB14_5
# %bb.3:                                # %if.then.i
	ld.d	$a0, $s0, 0
	ld.d	$a1, $a0, 8
.Ltmp249:                               # EH_LABEL
	move	$a0, $s0
	jirl	$ra, $a1, 0
.Ltmp250:                               # EH_LABEL
# %bb.4:                                # %if.then
	ld.d	$a0, $s0, 0
	st.d	$zero, $sp, 112
	ld.d	$a3, $a0, 0
.Ltmp252:                               # EH_LABEL
	pcalau12i	$a0, %got_pc_hi20(IID_ICryptoGetTextPassword)
	ld.d	$a1, $a0, %got_pc_lo12(IID_ICryptoGetTextPassword)
	addi.d	$a2, $sp, 112
	move	$a0, $s0
	jirl	$ra, $a3, 0
.Ltmp253:                               # EH_LABEL
	b	.LBB14_6
.LBB14_5:                               # %invoke.cont4.thread
	st.d	$zero, $sp, 112
.LBB14_6:                               # %invoke.cont13
	st.d	$zero, $sp, 16
	vrepli.b	$vr0, 0
	vst	$vr0, $sp, 32
	ori	$a0, $zero, 8
	st.d	$a0, $sp, 48
	pcalau12i	$a0, %pc_hi20(_ZTV13CObjectVectorIN8NArchive3N7z8CInByte2EE+16)
	addi.d	$s4, $a0, %pc_lo12(_ZTV13CObjectVectorIN8NArchive3N7z8CInByte2EE+16)
	st.d	$s4, $sp, 24
.Ltmp255:                               # EH_LABEL
	addi.d	$a0, $sp, 16
	move	$a1, $s1
	move	$a2, $s2
	pcaddu18i	$ra, %call36(_ZN8NArchive3N7z10CInArchive4OpenEP9IInStreamPKy)
	jirl	$ra, $ra, 0
.Ltmp256:                               # EH_LABEL
# %bb.7:                                # %invoke.cont15
	move	$s2, $a0
	bnez	$a0, .LBB14_10
# %bb.8:                                # %cleanup.cont
	ld.d	$a2, $sp, 112
	addi.d	$a3, $fp, 840
	st.b	$zero, $fp, 840
	addi.d	$s3, $fp, 144
.Ltmp258:                               # EH_LABEL
	addi.d	$a0, $sp, 16
	move	$a1, $s3
	pcaddu18i	$ra, %call36(_ZN8NArchive3N7z10CInArchive12ReadDatabaseERNS0_18CArchiveDatabaseExEP22ICryptoGetTextPasswordRb)
	jirl	$ra, $ra, 0
.Ltmp259:                               # EH_LABEL
# %bb.9:                                # %invoke.cont25
	move	$s2, $a0
	beqz	$a0, .LBB14_22
.LBB14_10:
	move	$s3, $zero
.LBB14_11:                              # %cleanup41
	addi.d	$s1, $sp, 24
	st.d	$s4, $sp, 24
.Ltmp285:                               # EH_LABEL
	move	$a0, $s1
	pcaddu18i	$ra, %call36(_ZN17CBaseRecordVector5ClearEv)
	jirl	$ra, $ra, 0
.Ltmp286:                               # EH_LABEL
# %bb.12:                               # %_ZN13CObjectVectorIN8NArchive3N7z8CInByte2EED2Ev.exit.i
	move	$a0, $s1
	pcaddu18i	$ra, %call36(_ZN17CBaseRecordVectorD2Ev)
	jirl	$ra, $ra, 0
	ld.d	$a0, $sp, 16
	beqz	$a0, .LBB14_14
# %bb.13:                               # %if.then.i.i
	ld.d	$a1, $a0, 0
	ld.d	$a1, $a1, 16
.Ltmp288:                               # EH_LABEL
	jirl	$ra, $a1, 0
.Ltmp289:                               # EH_LABEL
.LBB14_14:                              # %_ZN8NArchive3N7z10CInArchiveD2Ev.exit
	ld.d	$a0, $sp, 112
	beqz	$a0, .LBB14_16
# %bb.15:                               # %if.then.i30
	ld.d	$a1, $a0, 0
	ld.d	$a1, $a1, 16
.Ltmp291:                               # EH_LABEL
	jirl	$ra, $a1, 0
.Ltmp292:                               # EH_LABEL
.LBB14_16:                              # %_ZN9CMyComPtrI22ICryptoGetTextPasswordED2Ev.exit
	beqz	$s0, .LBB14_18
# %bb.17:                               # %if.then.i35
	ld.d	$a0, $s0, 0
	ld.d	$a1, $a0, 16
.Ltmp294:                               # EH_LABEL
	move	$a0, $s0
	jirl	$ra, $a1, 0
.Ltmp295:                               # EH_LABEL
.LBB14_18:                              # %_ZN9CMyComPtrI20IArchiveOpenCallbackED2Ev.exit
	beqz	$s3, .LBB14_21
# %bb.19:                               # %try.cont
.Ltmp297:                               # EH_LABEL
	move	$a0, $fp
	pcaddu18i	$ra, %call36(_ZN8NArchive3N7z8CHandler10FillPopIDsEv)
	jirl	$ra, $ra, 0
.Ltmp298:                               # EH_LABEL
# %bb.20:
	move	$s2, $zero
.LBB14_21:                              # %return
	move	$a0, $s2
	ld.d	$s4, $sp, 120                   # 8-byte Folded Reload
	ld.d	$s3, $sp, 128                   # 8-byte Folded Reload
	ld.d	$s2, $sp, 136                   # 8-byte Folded Reload
	ld.d	$s1, $sp, 144                   # 8-byte Folded Reload
	ld.d	$s0, $sp, 152                   # 8-byte Folded Reload
	ld.d	$fp, $sp, 160                   # 8-byte Folded Reload
	ld.d	$ra, $sp, 168                   # 8-byte Folded Reload
	addi.d	$sp, $sp, 176
	ret
.LBB14_22:                              # %cleanup.cont33
.Ltmp260:                               # EH_LABEL
	move	$a0, $s3
	pcaddu18i	$ra, %call36(_ZN8NArchive3N7z18CArchiveDatabaseEx25FillFolderStartPackStreamEv)
	jirl	$ra, $ra, 0
.Ltmp261:                               # EH_LABEL
# %bb.23:                               # %.noexc
.Ltmp262:                               # EH_LABEL
	move	$a0, $s3
	pcaddu18i	$ra, %call36(_ZN8NArchive3N7z18CArchiveDatabaseEx12FillStartPosEv)
	jirl	$ra, $ra, 0
.Ltmp263:                               # EH_LABEL
# %bb.24:                               # %.noexc16
.Ltmp264:                               # EH_LABEL
	move	$a0, $s3
	pcaddu18i	$ra, %call36(_ZN8NArchive3N7z18CArchiveDatabaseEx24FillFolderStartFileIndexEv)
	jirl	$ra, $ra, 0
.Ltmp265:                               # EH_LABEL
# %bb.25:                               # %invoke.cont35
	beqz	$s1, .LBB14_27
# %bb.26:                               # %if.then.i19
	ld.d	$a0, $s1, 0
	ld.d	$a1, $a0, 8
.Ltmp266:                               # EH_LABEL
	move	$a0, $s1
	jirl	$ra, $a1, 0
.Ltmp267:                               # EH_LABEL
.LBB14_27:                              # %if.end.i
	ld.d	$a0, $fp, 136
	beqz	$a0, .LBB14_29
# %bb.28:                               # %if.then2.i
	ld.d	$a1, $a0, 0
	ld.d	$a1, $a1, 16
.Ltmp268:                               # EH_LABEL
	jirl	$ra, $a1, 0
.Ltmp269:                               # EH_LABEL
.LBB14_29:                              # %_ZN9CMyComPtrI9IInStreamEaSEPS0_.exit
	move	$s2, $zero
	st.d	$s1, $fp, 136
	ori	$s3, $zero, 1
	b	.LBB14_11
.LBB14_30:                              # %terminate.lpad.i39
.Ltmp296:                               # EH_LABEL
	pcaddu18i	$ra, %call36(__clang_call_terminate)
	jirl	$ra, $ra, 0
.LBB14_31:                              # %terminate.lpad.i
.Ltmp293:                               # EH_LABEL
	pcaddu18i	$ra, %call36(__clang_call_terminate)
	jirl	$ra, $ra, 0
.LBB14_32:                              # %terminate.lpad.i1.i
.Ltmp290:                               # EH_LABEL
	pcaddu18i	$ra, %call36(__clang_call_terminate)
	jirl	$ra, $ra, 0
.LBB14_33:                              # %lpad7
.Ltmp254:                               # EH_LABEL
	move	$s1, $a0
	b	.LBB14_39
.LBB14_34:                              # %lpad3
.Ltmp251:                               # EH_LABEL
	move	$s1, $a0
	b	.LBB14_43
.LBB14_35:                              # %_ZN11CStringBaseIwED2Ev.exit
.Ltmp270:                               # EH_LABEL
	b	.LBB14_38
.LBB14_36:                              # %terminate.lpad.i.i
.Ltmp287:                               # EH_LABEL
	pcaddu18i	$ra, %call36(__clang_call_terminate)
	jirl	$ra, $ra, 0
.LBB14_37:                              # %lpad14
.Ltmp257:                               # EH_LABEL
.LBB14_38:                              # %ehcleanup42
	move	$s1, $a0
	addi.d	$a0, $sp, 16
	pcaddu18i	$ra, %call36(_ZN8NArchive3N7z10CInArchiveD2Ev)
	jirl	$ra, $ra, 0
.LBB14_39:                              # %ehcleanup46
	ld.d	$a0, $sp, 112
	beqz	$a0, .LBB14_41
# %bb.40:                               # %if.then.i42
	ld.d	$a1, $a0, 0
	ld.d	$a1, $a1, 16
.Ltmp271:                               # EH_LABEL
	jirl	$ra, $a1, 0
.Ltmp272:                               # EH_LABEL
.LBB14_41:                              # %_ZN9CMyComPtrI22ICryptoGetTextPasswordED2Ev.exit48
	beqz	$s0, .LBB14_43
# %bb.42:                               # %if.then.i50
	ld.d	$a0, $s0, 0
	ld.d	$a1, $a0, 16
.Ltmp274:                               # EH_LABEL
	move	$a0, $s0
	jirl	$ra, $a1, 0
.Ltmp275:                               # EH_LABEL
.LBB14_43:                              # %ehcleanup54
	move	$a0, $s1
	pcaddu18i	$ra, %call36(__cxa_begin_catch)
	jirl	$ra, $ra, 0
	ld.d	$a0, $fp, 0
	ld.d	$a1, $a0, 48
.Ltmp277:                               # EH_LABEL
	move	$a0, $fp
	jirl	$ra, $a1, 0
.Ltmp278:                               # EH_LABEL
# %bb.44:                               # %invoke.cont58
	ori	$s2, $zero, 1
.Ltmp283:                               # EH_LABEL
	pcaddu18i	$ra, %call36(__cxa_end_catch)
	jirl	$ra, $ra, 0
.Ltmp284:                               # EH_LABEL
	b	.LBB14_21
.LBB14_45:                              # %terminate.lpad.i54
.Ltmp276:                               # EH_LABEL
	pcaddu18i	$ra, %call36(__clang_call_terminate)
	jirl	$ra, $ra, 0
.LBB14_46:                              # %terminate.lpad.i46
.Ltmp273:                               # EH_LABEL
	pcaddu18i	$ra, %call36(__clang_call_terminate)
	jirl	$ra, $ra, 0
.LBB14_47:                              # %lpad57
.Ltmp279:                               # EH_LABEL
	move	$s0, $a1
	move	$fp, $a0
.Ltmp280:                               # EH_LABEL
	pcaddu18i	$ra, %call36(__cxa_end_catch)
	jirl	$ra, $ra, 0
.Ltmp281:                               # EH_LABEL
	b	.LBB14_50
.LBB14_48:                              # %terminate.lpad
.Ltmp282:                               # EH_LABEL
	pcaddu18i	$ra, %call36(__clang_call_terminate)
	jirl	$ra, $ra, 0
.LBB14_49:                              # %lpad
.Ltmp299:                               # EH_LABEL
	move	$s0, $a1
	move	$fp, $a0
.LBB14_50:                              # %catch.dispatch
	addi.w	$s0, $s0, 0
	move	$a0, $fp
	pcaddu18i	$ra, %call36(__cxa_begin_catch)
	jirl	$ra, $ra, 0
	ori	$a1, $zero, 2
	beq	$s0, $a1, .LBB14_52
# %bb.51:                               # %catch65
	pcaddu18i	$ra, %call36(__cxa_end_catch)
	jirl	$ra, $ra, 0
	lu12i.w	$a0, -524176
	ori	$s2, $a0, 14
	b	.LBB14_21
.LBB14_52:                              # %catch68
	move	$fp, $a0
	ori	$a0, $zero, 8
	pcaddu18i	$ra, %call36(__cxa_allocate_exception)
	jirl	$ra, $ra, 0
	st.d	$fp, $a0, 0
.Ltmp300:                               # EH_LABEL
	pcalau12i	$a1, %got_pc_hi20(_ZTIPKc)
	ld.d	$a1, $a1, %got_pc_lo12(_ZTIPKc)
	move	$a2, $zero
	pcaddu18i	$ra, %call36(__cxa_throw)
	jirl	$ra, $ra, 0
.Ltmp301:                               # EH_LABEL
# %bb.53:                               # %unreachable
.LBB14_54:                              # %lpad70
.Ltmp302:                               # EH_LABEL
	move	$fp, $a0
	pcaddu18i	$ra, %call36(__cxa_end_catch)
	jirl	$ra, $ra, 0
	move	$a0, $fp
	pcaddu18i	$ra, %call36(_Unwind_Resume)
	jirl	$ra, $ra, 0
.Lfunc_end14:
	.size	_ZN8NArchive3N7z8CHandler4OpenEP9IInStreamPKyP20IArchiveOpenCallback, .Lfunc_end14-_ZN8NArchive3N7z8CHandler4OpenEP9IInStreamPKyP20IArchiveOpenCallback
	.cfi_endproc
	.section	.gcc_except_table,"a",@progbits
	.p2align	2, 0x0
GCC_except_table14:
.Lexception5:
	.byte	255                             # @LPStart Encoding = omit
	.byte	155                             # @TType Encoding = indirect pcrel sdata4
	.uleb128 .Lttbase4-.Lttbaseref4
.Lttbaseref4:
	.byte	1                               # Call site Encoding = uleb128
	.uleb128 .Lcst_end5-.Lcst_begin5
.Lcst_begin5:
	.uleb128 .Ltmp245-.Lfunc_begin5         # >> Call Site 1 <<
	.uleb128 .Ltmp248-.Ltmp245              #   Call between .Ltmp245 and .Ltmp248
	.uleb128 .Ltmp299-.Lfunc_begin5         #     jumps to .Ltmp299
	.byte	3                               #   On action: 2
	.uleb128 .Ltmp249-.Lfunc_begin5         # >> Call Site 2 <<
	.uleb128 .Ltmp250-.Ltmp249              #   Call between .Ltmp249 and .Ltmp250
	.uleb128 .Ltmp251-.Lfunc_begin5         #     jumps to .Ltmp251
	.byte	1                               #   On action: 1
	.uleb128 .Ltmp252-.Lfunc_begin5         # >> Call Site 3 <<
	.uleb128 .Ltmp253-.Ltmp252              #   Call between .Ltmp252 and .Ltmp253
	.uleb128 .Ltmp254-.Lfunc_begin5         #     jumps to .Ltmp254
	.byte	1                               #   On action: 1
	.uleb128 .Ltmp255-.Lfunc_begin5         # >> Call Site 4 <<
	.uleb128 .Ltmp256-.Ltmp255              #   Call between .Ltmp255 and .Ltmp256
	.uleb128 .Ltmp257-.Lfunc_begin5         #     jumps to .Ltmp257
	.byte	1                               #   On action: 1
	.uleb128 .Ltmp258-.Lfunc_begin5         # >> Call Site 5 <<
	.uleb128 .Ltmp259-.Ltmp258              #   Call between .Ltmp258 and .Ltmp259
	.uleb128 .Ltmp270-.Lfunc_begin5         #     jumps to .Ltmp270
	.byte	1                               #   On action: 1
	.uleb128 .Ltmp285-.Lfunc_begin5         # >> Call Site 6 <<
	.uleb128 .Ltmp286-.Ltmp285              #   Call between .Ltmp285 and .Ltmp286
	.uleb128 .Ltmp287-.Lfunc_begin5         #     jumps to .Ltmp287
	.byte	1                               #   On action: 1
	.uleb128 .Ltmp286-.Lfunc_begin5         # >> Call Site 7 <<
	.uleb128 .Ltmp288-.Ltmp286              #   Call between .Ltmp286 and .Ltmp288
	.byte	0                               #     has no landing pad
	.byte	0                               #   On action: cleanup
	.uleb128 .Ltmp288-.Lfunc_begin5         # >> Call Site 8 <<
	.uleb128 .Ltmp289-.Ltmp288              #   Call between .Ltmp288 and .Ltmp289
	.uleb128 .Ltmp290-.Lfunc_begin5         #     jumps to .Ltmp290
	.byte	1                               #   On action: 1
	.uleb128 .Ltmp291-.Lfunc_begin5         # >> Call Site 9 <<
	.uleb128 .Ltmp292-.Ltmp291              #   Call between .Ltmp291 and .Ltmp292
	.uleb128 .Ltmp293-.Lfunc_begin5         #     jumps to .Ltmp293
	.byte	1                               #   On action: 1
	.uleb128 .Ltmp294-.Lfunc_begin5         # >> Call Site 10 <<
	.uleb128 .Ltmp295-.Ltmp294              #   Call between .Ltmp294 and .Ltmp295
	.uleb128 .Ltmp296-.Lfunc_begin5         #     jumps to .Ltmp296
	.byte	1                               #   On action: 1
	.uleb128 .Ltmp297-.Lfunc_begin5         # >> Call Site 11 <<
	.uleb128 .Ltmp298-.Ltmp297              #   Call between .Ltmp297 and .Ltmp298
	.uleb128 .Ltmp299-.Lfunc_begin5         #     jumps to .Ltmp299
	.byte	3                               #   On action: 2
	.uleb128 .Ltmp260-.Lfunc_begin5         # >> Call Site 12 <<
	.uleb128 .Ltmp269-.Ltmp260              #   Call between .Ltmp260 and .Ltmp269
	.uleb128 .Ltmp270-.Lfunc_begin5         #     jumps to .Ltmp270
	.byte	1                               #   On action: 1
	.uleb128 .Ltmp269-.Lfunc_begin5         # >> Call Site 13 <<
	.uleb128 .Ltmp271-.Ltmp269              #   Call between .Ltmp269 and .Ltmp271
	.byte	0                               #     has no landing pad
	.byte	0                               #   On action: cleanup
	.uleb128 .Ltmp271-.Lfunc_begin5         # >> Call Site 14 <<
	.uleb128 .Ltmp272-.Ltmp271              #   Call between .Ltmp271 and .Ltmp272
	.uleb128 .Ltmp273-.Lfunc_begin5         #     jumps to .Ltmp273
	.byte	1                               #   On action: 1
	.uleb128 .Ltmp274-.Lfunc_begin5         # >> Call Site 15 <<
	.uleb128 .Ltmp275-.Ltmp274              #   Call between .Ltmp274 and .Ltmp275
	.uleb128 .Ltmp276-.Lfunc_begin5         #     jumps to .Ltmp276
	.byte	1                               #   On action: 1
	.uleb128 .Ltmp275-.Lfunc_begin5         # >> Call Site 16 <<
	.uleb128 .Ltmp277-.Ltmp275              #   Call between .Ltmp275 and .Ltmp277
	.byte	0                               #     has no landing pad
	.byte	0                               #   On action: cleanup
	.uleb128 .Ltmp277-.Lfunc_begin5         # >> Call Site 17 <<
	.uleb128 .Ltmp278-.Ltmp277              #   Call between .Ltmp277 and .Ltmp278
	.uleb128 .Ltmp279-.Lfunc_begin5         #     jumps to .Ltmp279
	.byte	3                               #   On action: 2
	.uleb128 .Ltmp283-.Lfunc_begin5         # >> Call Site 18 <<
	.uleb128 .Ltmp284-.Ltmp283              #   Call between .Ltmp283 and .Ltmp284
	.uleb128 .Ltmp299-.Lfunc_begin5         #     jumps to .Ltmp299
	.byte	3                               #   On action: 2
	.uleb128 .Ltmp284-.Lfunc_begin5         # >> Call Site 19 <<
	.uleb128 .Ltmp280-.Ltmp284              #   Call between .Ltmp284 and .Ltmp280
	.byte	0                               #     has no landing pad
	.byte	0                               #   On action: cleanup
	.uleb128 .Ltmp280-.Lfunc_begin5         # >> Call Site 20 <<
	.uleb128 .Ltmp281-.Ltmp280              #   Call between .Ltmp280 and .Ltmp281
	.uleb128 .Ltmp282-.Lfunc_begin5         #     jumps to .Ltmp282
	.byte	1                               #   On action: 1
	.uleb128 .Ltmp281-.Lfunc_begin5         # >> Call Site 21 <<
	.uleb128 .Ltmp300-.Ltmp281              #   Call between .Ltmp281 and .Ltmp300
	.byte	0                               #     has no landing pad
	.byte	0                               #   On action: cleanup
	.uleb128 .Ltmp300-.Lfunc_begin5         # >> Call Site 22 <<
	.uleb128 .Ltmp301-.Ltmp300              #   Call between .Ltmp300 and .Ltmp301
	.uleb128 .Ltmp302-.Lfunc_begin5         #     jumps to .Ltmp302
	.byte	0                               #   On action: cleanup
	.uleb128 .Ltmp301-.Lfunc_begin5         # >> Call Site 23 <<
	.uleb128 .Lfunc_end14-.Ltmp301          #   Call between .Ltmp301 and .Lfunc_end14
	.byte	0                               #     has no landing pad
	.byte	0                               #   On action: cleanup
.Lcst_end5:
	.byte	1                               # >> Action Record 1 <<
                                        #   Catch TypeInfo 1
	.byte	0                               #   No further actions
	.byte	2                               # >> Action Record 2 <<
                                        #   Catch TypeInfo 2
	.byte	125                             #   Continue to action 1
	.p2align	2, 0x0
                                        # >> Catch TypeInfos <<
.Ltmp303:                               # TypeInfo 2
	.word	.L_ZTIPKc.DW.stub-.Ltmp303
	.word	0                               # TypeInfo 1
.Lttbase4:
	.p2align	2, 0x0
                                        # -- End function
	.section	.text._ZN8NArchive3N7z10CInArchiveD2Ev,"axG",@progbits,_ZN8NArchive3N7z10CInArchiveD2Ev,comdat
	.weak	_ZN8NArchive3N7z10CInArchiveD2Ev # -- Begin function _ZN8NArchive3N7z10CInArchiveD2Ev
	.p2align	2
	.type	_ZN8NArchive3N7z10CInArchiveD2Ev,@function
_ZN8NArchive3N7z10CInArchiveD2Ev:       # @_ZN8NArchive3N7z10CInArchiveD2Ev
.Lfunc_begin6:
	.cfi_startproc
	.cfi_personality 155, DW.ref.__gxx_personality_v0
	.cfi_lsda 27, .Lexception6
# %bb.0:                                # %entry
	addi.d	$sp, $sp, -32
	.cfi_def_cfa_offset 32
	st.d	$ra, $sp, 24                    # 8-byte Folded Spill
	st.d	$fp, $sp, 16                    # 8-byte Folded Spill
	st.d	$s0, $sp, 8                     # 8-byte Folded Spill
	.cfi_offset 1, -8
	.cfi_offset 22, -16
	.cfi_offset 23, -24
	move	$fp, $a0
	addi.d	$s0, $a0, 8
	pcalau12i	$a0, %pc_hi20(_ZTV13CObjectVectorIN8NArchive3N7z8CInByte2EE+16)
	addi.d	$a0, $a0, %pc_lo12(_ZTV13CObjectVectorIN8NArchive3N7z8CInByte2EE+16)
	st.d	$a0, $fp, 8
.Ltmp304:                               # EH_LABEL
	move	$a0, $s0
	pcaddu18i	$ra, %call36(_ZN17CBaseRecordVector5ClearEv)
	jirl	$ra, $ra, 0
.Ltmp305:                               # EH_LABEL
# %bb.1:                                # %_ZN13CObjectVectorIN8NArchive3N7z8CInByte2EED2Ev.exit
	move	$a0, $s0
	pcaddu18i	$ra, %call36(_ZN17CBaseRecordVectorD2Ev)
	jirl	$ra, $ra, 0
	ld.d	$a0, $fp, 0
	beqz	$a0, .LBB15_3
# %bb.2:                                # %if.then.i
	ld.d	$a1, $a0, 0
	ld.d	$a1, $a1, 16
.Ltmp307:                               # EH_LABEL
	jirl	$ra, $a1, 0
.Ltmp308:                               # EH_LABEL
.LBB15_3:                               # %_ZN9CMyComPtrI9IInStreamED2Ev.exit
	ld.d	$s0, $sp, 8                     # 8-byte Folded Reload
	ld.d	$fp, $sp, 16                    # 8-byte Folded Reload
	ld.d	$ra, $sp, 24                    # 8-byte Folded Reload
	addi.d	$sp, $sp, 32
	ret
.LBB15_4:                               # %terminate.lpad.i1
.Ltmp309:                               # EH_LABEL
	pcaddu18i	$ra, %call36(__clang_call_terminate)
	jirl	$ra, $ra, 0
.LBB15_5:                               # %terminate.lpad.i
.Ltmp306:                               # EH_LABEL
	pcaddu18i	$ra, %call36(__clang_call_terminate)
	jirl	$ra, $ra, 0
.Lfunc_end15:
	.size	_ZN8NArchive3N7z10CInArchiveD2Ev, .Lfunc_end15-_ZN8NArchive3N7z10CInArchiveD2Ev
	.cfi_endproc
	.section	.gcc_except_table._ZN8NArchive3N7z10CInArchiveD2Ev,"aG",@progbits,_ZN8NArchive3N7z10CInArchiveD2Ev,comdat
	.p2align	2, 0x0
GCC_except_table15:
.Lexception6:
	.byte	255                             # @LPStart Encoding = omit
	.byte	155                             # @TType Encoding = indirect pcrel sdata4
	.uleb128 .Lttbase5-.Lttbaseref5
.Lttbaseref5:
	.byte	1                               # Call site Encoding = uleb128
	.uleb128 .Lcst_end6-.Lcst_begin6
.Lcst_begin6:
	.uleb128 .Ltmp304-.Lfunc_begin6         # >> Call Site 1 <<
	.uleb128 .Ltmp305-.Ltmp304              #   Call between .Ltmp304 and .Ltmp305
	.uleb128 .Ltmp306-.Lfunc_begin6         #     jumps to .Ltmp306
	.byte	1                               #   On action: 1
	.uleb128 .Ltmp305-.Lfunc_begin6         # >> Call Site 2 <<
	.uleb128 .Ltmp307-.Ltmp305              #   Call between .Ltmp305 and .Ltmp307
	.byte	0                               #     has no landing pad
	.byte	0                               #   On action: cleanup
	.uleb128 .Ltmp307-.Lfunc_begin6         # >> Call Site 3 <<
	.uleb128 .Ltmp308-.Ltmp307              #   Call between .Ltmp307 and .Ltmp308
	.uleb128 .Ltmp309-.Lfunc_begin6         #     jumps to .Ltmp309
	.byte	1                               #   On action: 1
	.uleb128 .Ltmp308-.Lfunc_begin6         # >> Call Site 4 <<
	.uleb128 .Lfunc_end15-.Ltmp308          #   Call between .Ltmp308 and .Lfunc_end15
	.byte	0                               #     has no landing pad
	.byte	0                               #   On action: cleanup
.Lcst_end6:
	.byte	1                               # >> Action Record 1 <<
                                        #   Catch TypeInfo 1
	.byte	0                               #   No further actions
	.p2align	2, 0x0
                                        # >> Catch TypeInfos <<
	.word	0                               # TypeInfo 1
.Lttbase5:
	.p2align	2, 0x0
                                        # -- End function
	.section	.text.__clang_call_terminate,"axG",@progbits,__clang_call_terminate,comdat
	.hidden	__clang_call_terminate          # -- Begin function __clang_call_terminate
	.weak	__clang_call_terminate
	.p2align	5
	.type	__clang_call_terminate,@function
__clang_call_terminate:                 # @__clang_call_terminate
# %bb.0:
	addi.d	$sp, $sp, -16
	st.d	$ra, $sp, 8                     # 8-byte Folded Spill
	pcaddu18i	$ra, %call36(__cxa_begin_catch)
	jirl	$ra, $ra, 0
	pcaddu18i	$ra, %call36(_ZSt9terminatev)
	jirl	$ra, $ra, 0
.Lfunc_end16:
	.size	__clang_call_terminate, .Lfunc_end16-__clang_call_terminate
                                        # -- End function
	.text
	.globl	_ZN8NArchive3N7z8CHandler5CloseEv # -- Begin function _ZN8NArchive3N7z8CHandler5CloseEv
	.p2align	2
	.type	_ZN8NArchive3N7z8CHandler5CloseEv,@function
_ZN8NArchive3N7z8CHandler5CloseEv:      # @_ZN8NArchive3N7z8CHandler5CloseEv
.Lfunc_begin7:
	.cfi_startproc
	.cfi_personality 155, DW.ref.__gxx_personality_v0
	.cfi_lsda 27, .Lexception7
# %bb.0:                                # %entry
	addi.d	$sp, $sp, -32
	.cfi_def_cfa_offset 32
	st.d	$ra, $sp, 24                    # 8-byte Folded Spill
	st.d	$fp, $sp, 16                    # 8-byte Folded Spill
	st.d	$s0, $sp, 8                     # 8-byte Folded Spill
	.cfi_offset 1, -8
	.cfi_offset 22, -16
	.cfi_offset 23, -24
	move	$fp, $a0
	ld.d	$a0, $a0, 136
	beqz	$a0, .LBB17_3
# %bb.1:                                # %if.then.i
	ld.d	$a1, $a0, 0
	ld.d	$a1, $a1, 16
.Ltmp310:                               # EH_LABEL
	jirl	$ra, $a1, 0
.Ltmp311:                               # EH_LABEL
# %bb.2:                                # %call.i.noexc
	st.d	$zero, $fp, 136
.LBB17_3:                               # %invoke.cont
	addi.d	$a0, $fp, 144
.Ltmp312:                               # EH_LABEL
	pcaddu18i	$ra, %call36(_ZN8NArchive3N7z16CArchiveDatabase5ClearEv)
	jirl	$ra, $ra, 0
.Ltmp313:                               # EH_LABEL
# %bb.4:                                # %.noexc
	addi.d	$a0, $fp, 664
.Ltmp314:                               # EH_LABEL
	pcaddu18i	$ra, %call36(_ZN17CBaseRecordVector5ClearEv)
	jirl	$ra, $ra, 0
.Ltmp315:                               # EH_LABEL
# %bb.5:                                # %.noexc3
	addi.d	$a0, $fp, 696
.Ltmp316:                               # EH_LABEL
	pcaddu18i	$ra, %call36(_ZN17CBaseRecordVector5ClearEv)
	jirl	$ra, $ra, 0
.Ltmp317:                               # EH_LABEL
# %bb.6:                                # %.noexc4
	addi.d	$a0, $fp, 728
.Ltmp318:                               # EH_LABEL
	pcaddu18i	$ra, %call36(_ZN17CBaseRecordVector5ClearEv)
	jirl	$ra, $ra, 0
.Ltmp319:                               # EH_LABEL
# %bb.7:                                # %.noexc5
	addi.d	$a0, $fp, 760
.Ltmp320:                               # EH_LABEL
	pcaddu18i	$ra, %call36(_ZN17CBaseRecordVector5ClearEv)
	jirl	$ra, $ra, 0
.Ltmp321:                               # EH_LABEL
# %bb.8:                                # %.noexc6
	addi.d	$a0, $fp, 792
.Ltmp322:                               # EH_LABEL
	pcaddu18i	$ra, %call36(_ZN17CBaseRecordVector5ClearEv)
	jirl	$ra, $ra, 0
.Ltmp323:                               # EH_LABEL
# %bb.9:                                # %_ZN8NArchive3N7z18CArchiveDatabaseEx5ClearEv.exit
	move	$a0, $zero
	vrepli.b	$vr0, 0
	vst	$vr0, $fp, 824
.LBB17_10:                              # %return
	ld.d	$s0, $sp, 8                     # 8-byte Folded Reload
	ld.d	$fp, $sp, 16                    # 8-byte Folded Reload
	ld.d	$ra, $sp, 24                    # 8-byte Folded Reload
	addi.d	$sp, $sp, 32
	ret
.LBB17_11:                              # %lpad
.Ltmp324:                               # EH_LABEL
	addi.w	$s0, $a1, 0
	pcaddu18i	$ra, %call36(__cxa_begin_catch)
	jirl	$ra, $ra, 0
	ori	$a1, $zero, 2
	beq	$s0, $a1, .LBB17_13
# %bb.12:                               # %catch
	pcaddu18i	$ra, %call36(__cxa_end_catch)
	jirl	$ra, $ra, 0
	lu12i.w	$a0, -524176
	ori	$a0, $a0, 14
	b	.LBB17_10
.LBB17_13:                              # %catch3
	move	$fp, $a0
	ori	$a0, $zero, 8
	pcaddu18i	$ra, %call36(__cxa_allocate_exception)
	jirl	$ra, $ra, 0
	st.d	$fp, $a0, 0
.Ltmp325:                               # EH_LABEL
	pcalau12i	$a1, %got_pc_hi20(_ZTIPKc)
	ld.d	$a1, $a1, %got_pc_lo12(_ZTIPKc)
	move	$a2, $zero
	pcaddu18i	$ra, %call36(__cxa_throw)
	jirl	$ra, $ra, 0
.Ltmp326:                               # EH_LABEL
# %bb.14:                               # %unreachable
.LBB17_15:                              # %lpad5
.Ltmp327:                               # EH_LABEL
	move	$fp, $a0
	pcaddu18i	$ra, %call36(__cxa_end_catch)
	jirl	$ra, $ra, 0
	move	$a0, $fp
	pcaddu18i	$ra, %call36(_Unwind_Resume)
	jirl	$ra, $ra, 0
.Lfunc_end17:
	.size	_ZN8NArchive3N7z8CHandler5CloseEv, .Lfunc_end17-_ZN8NArchive3N7z8CHandler5CloseEv
	.cfi_endproc
	.section	.gcc_except_table,"a",@progbits
	.p2align	2, 0x0
GCC_except_table17:
.Lexception7:
	.byte	255                             # @LPStart Encoding = omit
	.byte	155                             # @TType Encoding = indirect pcrel sdata4
	.uleb128 .Lttbase6-.Lttbaseref6
.Lttbaseref6:
	.byte	1                               # Call site Encoding = uleb128
	.uleb128 .Lcst_end7-.Lcst_begin7
.Lcst_begin7:
	.uleb128 .Ltmp310-.Lfunc_begin7         # >> Call Site 1 <<
	.uleb128 .Ltmp323-.Ltmp310              #   Call between .Ltmp310 and .Ltmp323
	.uleb128 .Ltmp324-.Lfunc_begin7         #     jumps to .Ltmp324
	.byte	3                               #   On action: 2
	.uleb128 .Ltmp323-.Lfunc_begin7         # >> Call Site 2 <<
	.uleb128 .Ltmp325-.Ltmp323              #   Call between .Ltmp323 and .Ltmp325
	.byte	0                               #     has no landing pad
	.byte	0                               #   On action: cleanup
	.uleb128 .Ltmp325-.Lfunc_begin7         # >> Call Site 3 <<
	.uleb128 .Ltmp326-.Ltmp325              #   Call between .Ltmp325 and .Ltmp326
	.uleb128 .Ltmp327-.Lfunc_begin7         #     jumps to .Ltmp327
	.byte	0                               #   On action: cleanup
	.uleb128 .Ltmp326-.Lfunc_begin7         # >> Call Site 4 <<
	.uleb128 .Lfunc_end17-.Ltmp326          #   Call between .Ltmp326 and .Lfunc_end17
	.byte	0                               #     has no landing pad
	.byte	0                               #   On action: cleanup
.Lcst_end7:
	.byte	1                               # >> Action Record 1 <<
                                        #   Catch TypeInfo 1
	.byte	0                               #   No further actions
	.byte	2                               # >> Action Record 2 <<
                                        #   Catch TypeInfo 2
	.byte	125                             #   Continue to action 1
	.p2align	2, 0x0
                                        # >> Catch TypeInfos <<
.Ltmp328:                               # TypeInfo 2
	.word	.L_ZTIPKc.DW.stub-.Ltmp328
	.word	0                               # TypeInfo 1
.Lttbase6:
	.p2align	2, 0x0
                                        # -- End function
	.section	.text._ZN8NArchive3N7z8CHandler14QueryInterfaceERK4GUIDPPv,"axG",@progbits,_ZN8NArchive3N7z8CHandler14QueryInterfaceERK4GUIDPPv,comdat
	.weak	_ZN8NArchive3N7z8CHandler14QueryInterfaceERK4GUIDPPv # -- Begin function _ZN8NArchive3N7z8CHandler14QueryInterfaceERK4GUIDPPv
	.p2align	2
	.type	_ZN8NArchive3N7z8CHandler14QueryInterfaceERK4GUIDPPv,@function
_ZN8NArchive3N7z8CHandler14QueryInterfaceERK4GUIDPPv: # @_ZN8NArchive3N7z8CHandler14QueryInterfaceERK4GUIDPPv
	.cfi_startproc
# %bb.0:                                # %entry
	pcalau12i	$a3, %got_pc_hi20(IID_IUnknown)
	ld.d	$a3, $a3, %got_pc_lo12(IID_IUnknown)
	ld.bu	$a4, $a1, 0
	ld.bu	$a5, $a3, 0
	bne	$a4, $a5, .LBB18_16
# %bb.1:                                # %for.cond.i
	ld.bu	$a5, $a1, 1
	ld.bu	$a6, $a3, 1
	bne	$a5, $a6, .LBB18_16
# %bb.2:                                # %for.cond.1.i
	ld.bu	$a5, $a1, 2
	ld.bu	$a6, $a3, 2
	bne	$a5, $a6, .LBB18_16
# %bb.3:                                # %for.cond.2.i
	ld.bu	$a5, $a1, 3
	ld.bu	$a6, $a3, 3
	bne	$a5, $a6, .LBB18_16
# %bb.4:                                # %for.cond.3.i
	ld.bu	$a5, $a1, 4
	ld.bu	$a6, $a3, 4
	bne	$a5, $a6, .LBB18_16
# %bb.5:                                # %for.cond.4.i
	ld.bu	$a5, $a1, 5
	ld.bu	$a6, $a3, 5
	bne	$a5, $a6, .LBB18_16
# %bb.6:                                # %for.cond.5.i
	ld.bu	$a5, $a1, 6
	ld.bu	$a6, $a3, 6
	bne	$a5, $a6, .LBB18_16
# %bb.7:                                # %for.cond.6.i
	ld.bu	$a5, $a1, 7
	ld.bu	$a6, $a3, 7
	bne	$a5, $a6, .LBB18_16
# %bb.8:                                # %for.cond.7.i
	ld.bu	$a5, $a1, 8
	ld.bu	$a6, $a3, 8
	bne	$a5, $a6, .LBB18_16
# %bb.9:                                # %for.cond.8.i
	ld.bu	$a5, $a1, 9
	ld.bu	$a6, $a3, 9
	bne	$a5, $a6, .LBB18_16
# %bb.10:                               # %for.cond.9.i
	ld.bu	$a5, $a1, 10
	ld.bu	$a6, $a3, 10
	bne	$a5, $a6, .LBB18_16
# %bb.11:                               # %for.cond.10.i
	ld.bu	$a5, $a1, 11
	ld.bu	$a6, $a3, 11
	bne	$a5, $a6, .LBB18_16
# %bb.12:                               # %for.cond.11.i
	ld.bu	$a5, $a1, 12
	ld.bu	$a6, $a3, 12
	bne	$a5, $a6, .LBB18_16
# %bb.13:                               # %for.cond.12.i
	ld.bu	$a5, $a1, 13
	ld.bu	$a6, $a3, 13
	bne	$a5, $a6, .LBB18_16
# %bb.14:                               # %for.cond.13.i
	ld.bu	$a5, $a1, 14
	ld.bu	$a6, $a3, 14
	bne	$a5, $a6, .LBB18_16
# %bb.15:                               # %_ZeqRK4GUIDS1_.exit
	ld.bu	$a5, $a1, 15
	ld.bu	$a6, $a3, 15
	move	$a3, $a0
	beq	$a5, $a6, .LBB18_66
.LBB18_16:                              # %if.end
	pcalau12i	$a3, %got_pc_hi20(IID_IInArchive)
	ld.d	$a3, $a3, %got_pc_lo12(IID_IInArchive)
	ld.bu	$a5, $a3, 0
	bne	$a4, $a5, .LBB18_32
# %bb.17:                               # %for.cond.i9
	ld.bu	$a5, $a1, 1
	ld.bu	$a6, $a3, 1
	bne	$a5, $a6, .LBB18_32
# %bb.18:                               # %for.cond.1.i12
	ld.bu	$a5, $a1, 2
	ld.bu	$a6, $a3, 2
	bne	$a5, $a6, .LBB18_32
# %bb.19:                               # %for.cond.2.i15
	ld.bu	$a5, $a1, 3
	ld.bu	$a6, $a3, 3
	bne	$a5, $a6, .LBB18_32
# %bb.20:                               # %for.cond.3.i18
	ld.bu	$a5, $a1, 4
	ld.bu	$a6, $a3, 4
	bne	$a5, $a6, .LBB18_32
# %bb.21:                               # %for.cond.4.i21
	ld.bu	$a5, $a1, 5
	ld.bu	$a6, $a3, 5
	bne	$a5, $a6, .LBB18_32
# %bb.22:                               # %for.cond.5.i24
	ld.bu	$a5, $a1, 6
	ld.bu	$a6, $a3, 6
	bne	$a5, $a6, .LBB18_32
# %bb.23:                               # %for.cond.6.i27
	ld.bu	$a5, $a1, 7
	ld.bu	$a6, $a3, 7
	bne	$a5, $a6, .LBB18_32
# %bb.24:                               # %for.cond.7.i30
	ld.bu	$a5, $a1, 8
	ld.bu	$a6, $a3, 8
	bne	$a5, $a6, .LBB18_32
# %bb.25:                               # %for.cond.8.i33
	ld.bu	$a5, $a1, 9
	ld.bu	$a6, $a3, 9
	bne	$a5, $a6, .LBB18_32
# %bb.26:                               # %for.cond.9.i36
	ld.bu	$a5, $a1, 10
	ld.bu	$a6, $a3, 10
	bne	$a5, $a6, .LBB18_32
# %bb.27:                               # %for.cond.10.i39
	ld.bu	$a5, $a1, 11
	ld.bu	$a6, $a3, 11
	bne	$a5, $a6, .LBB18_32
# %bb.28:                               # %for.cond.11.i42
	ld.bu	$a5, $a1, 12
	ld.bu	$a6, $a3, 12
	bne	$a5, $a6, .LBB18_32
# %bb.29:                               # %for.cond.12.i45
	ld.bu	$a5, $a1, 13
	ld.bu	$a6, $a3, 13
	bne	$a5, $a6, .LBB18_32
# %bb.30:                               # %for.cond.13.i48
	ld.bu	$a5, $a1, 14
	ld.bu	$a6, $a3, 14
	bne	$a5, $a6, .LBB18_32
# %bb.31:                               # %_ZeqRK4GUIDS1_.exit55
	ld.bu	$a5, $a1, 15
	ld.bu	$a6, $a3, 15
	move	$a3, $a0
	beq	$a5, $a6, .LBB18_66
.LBB18_32:                              # %if.end9
	pcalau12i	$a3, %got_pc_hi20(IID_ISetProperties)
	ld.d	$a3, $a3, %got_pc_lo12(IID_ISetProperties)
	ld.bu	$a5, $a3, 0
	bne	$a4, $a5, .LBB18_49
# %bb.33:                               # %for.cond.i58
	ld.bu	$a5, $a1, 1
	ld.bu	$a6, $a3, 1
	bne	$a5, $a6, .LBB18_49
# %bb.34:                               # %for.cond.1.i61
	ld.bu	$a5, $a1, 2
	ld.bu	$a6, $a3, 2
	bne	$a5, $a6, .LBB18_49
# %bb.35:                               # %for.cond.2.i64
	ld.bu	$a5, $a1, 3
	ld.bu	$a6, $a3, 3
	bne	$a5, $a6, .LBB18_49
# %bb.36:                               # %for.cond.3.i67
	ld.bu	$a5, $a1, 4
	ld.bu	$a6, $a3, 4
	bne	$a5, $a6, .LBB18_49
# %bb.37:                               # %for.cond.4.i70
	ld.bu	$a5, $a1, 5
	ld.bu	$a6, $a3, 5
	bne	$a5, $a6, .LBB18_49
# %bb.38:                               # %for.cond.5.i73
	ld.bu	$a5, $a1, 6
	ld.bu	$a6, $a3, 6
	bne	$a5, $a6, .LBB18_49
# %bb.39:                               # %for.cond.6.i76
	ld.bu	$a5, $a1, 7
	ld.bu	$a6, $a3, 7
	bne	$a5, $a6, .LBB18_49
# %bb.40:                               # %for.cond.7.i79
	ld.bu	$a5, $a1, 8
	ld.bu	$a6, $a3, 8
	bne	$a5, $a6, .LBB18_49
# %bb.41:                               # %for.cond.8.i82
	ld.bu	$a5, $a1, 9
	ld.bu	$a6, $a3, 9
	bne	$a5, $a6, .LBB18_49
# %bb.42:                               # %for.cond.9.i85
	ld.bu	$a5, $a1, 10
	ld.bu	$a6, $a3, 10
	bne	$a5, $a6, .LBB18_49
# %bb.43:                               # %for.cond.10.i88
	ld.bu	$a5, $a1, 11
	ld.bu	$a6, $a3, 11
	bne	$a5, $a6, .LBB18_49
# %bb.44:                               # %for.cond.11.i91
	ld.bu	$a5, $a1, 12
	ld.bu	$a6, $a3, 12
	bne	$a5, $a6, .LBB18_49
# %bb.45:                               # %for.cond.12.i94
	ld.bu	$a5, $a1, 13
	ld.bu	$a6, $a3, 13
	bne	$a5, $a6, .LBB18_49
# %bb.46:                               # %for.cond.13.i97
	ld.bu	$a5, $a1, 14
	ld.bu	$a6, $a3, 14
	bne	$a5, $a6, .LBB18_49
# %bb.47:                               # %_ZeqRK4GUIDS1_.exit104
	ld.bu	$a5, $a1, 15
	ld.bu	$a3, $a3, 15
	bne	$a5, $a3, .LBB18_49
# %bb.48:                               # %if.then12
	addi.d	$a3, $a0, 112
	b	.LBB18_66
.LBB18_49:                              # %if.end16
	pcalau12i	$a3, %got_pc_hi20(IID_IOutArchive)
	ld.d	$a5, $a3, %got_pc_lo12(IID_IOutArchive)
	ld.bu	$a6, $a5, 0
	lu12i.w	$a3, -524284
	ori	$a3, $a3, 2
	bne	$a4, $a6, .LBB18_67
# %bb.50:                               # %for.cond.i107
	ld.bu	$a4, $a1, 1
	ld.bu	$a6, $a5, 1
	bne	$a4, $a6, .LBB18_67
# %bb.51:                               # %for.cond.1.i110
	ld.bu	$a4, $a1, 2
	ld.bu	$a6, $a5, 2
	bne	$a4, $a6, .LBB18_67
# %bb.52:                               # %for.cond.2.i113
	ld.bu	$a4, $a1, 3
	ld.bu	$a6, $a5, 3
	bne	$a4, $a6, .LBB18_67
# %bb.53:                               # %for.cond.3.i116
	ld.bu	$a4, $a1, 4
	ld.bu	$a6, $a5, 4
	bne	$a4, $a6, .LBB18_67
# %bb.54:                               # %for.cond.4.i119
	ld.bu	$a4, $a1, 5
	ld.bu	$a6, $a5, 5
	bne	$a4, $a6, .LBB18_67
# %bb.55:                               # %for.cond.5.i122
	ld.bu	$a4, $a1, 6
	ld.bu	$a6, $a5, 6
	bne	$a4, $a6, .LBB18_67
# %bb.56:                               # %for.cond.6.i125
	ld.bu	$a4, $a1, 7
	ld.bu	$a6, $a5, 7
	bne	$a4, $a6, .LBB18_67
# %bb.57:                               # %for.cond.7.i128
	ld.bu	$a4, $a1, 8
	ld.bu	$a6, $a5, 8
	bne	$a4, $a6, .LBB18_67
# %bb.58:                               # %for.cond.8.i131
	ld.bu	$a4, $a1, 9
	ld.bu	$a6, $a5, 9
	bne	$a4, $a6, .LBB18_67
# %bb.59:                               # %for.cond.9.i134
	ld.bu	$a4, $a1, 10
	ld.bu	$a6, $a5, 10
	bne	$a4, $a6, .LBB18_67
# %bb.60:                               # %for.cond.10.i137
	ld.bu	$a4, $a1, 11
	ld.bu	$a6, $a5, 11
	bne	$a4, $a6, .LBB18_67
# %bb.61:                               # %for.cond.11.i140
	ld.bu	$a4, $a1, 12
	ld.bu	$a6, $a5, 12
	bne	$a4, $a6, .LBB18_67
# %bb.62:                               # %for.cond.12.i143
	ld.bu	$a4, $a1, 13
	ld.bu	$a6, $a5, 13
	bne	$a4, $a6, .LBB18_67
# %bb.63:                               # %for.cond.13.i146
	ld.bu	$a4, $a1, 14
	ld.bu	$a6, $a5, 14
	bne	$a4, $a6, .LBB18_67
# %bb.64:                               # %_ZeqRK4GUIDS1_.exit153
	ld.bu	$a1, $a1, 15
	ld.bu	$a4, $a5, 15
	bne	$a1, $a4, .LBB18_67
# %bb.65:                               # %if.then19
	addi.d	$a3, $a0, 120
.LBB18_66:                              # %return.sink.split
	addi.d	$sp, $sp, -16
	.cfi_def_cfa_offset 16
	st.d	$ra, $sp, 8                     # 8-byte Folded Spill
	.cfi_offset 1, -8
	ld.d	$a1, $a0, 0
	st.d	$a3, $a2, 0
	ld.d	$a1, $a1, 8
	jirl	$ra, $a1, 0
	move	$a3, $zero
	ld.d	$ra, $sp, 8                     # 8-byte Folded Reload
	addi.d	$sp, $sp, 16
.LBB18_67:                              # %return
	move	$a0, $a3
	ret
.Lfunc_end18:
	.size	_ZN8NArchive3N7z8CHandler14QueryInterfaceERK4GUIDPPv, .Lfunc_end18-_ZN8NArchive3N7z8CHandler14QueryInterfaceERK4GUIDPPv
	.cfi_endproc
                                        # -- End function
	.section	.text._ZN8NArchive3N7z8CHandler6AddRefEv,"axG",@progbits,_ZN8NArchive3N7z8CHandler6AddRefEv,comdat
	.weak	_ZN8NArchive3N7z8CHandler6AddRefEv # -- Begin function _ZN8NArchive3N7z8CHandler6AddRefEv
	.p2align	2
	.type	_ZN8NArchive3N7z8CHandler6AddRefEv,@function
_ZN8NArchive3N7z8CHandler6AddRefEv:     # @_ZN8NArchive3N7z8CHandler6AddRefEv
# %bb.0:                                # %entry
	ld.w	$a1, $a0, 128
	addi.w	$a1, $a1, 1
	st.w	$a1, $a0, 128
	move	$a0, $a1
	ret
.Lfunc_end19:
	.size	_ZN8NArchive3N7z8CHandler6AddRefEv, .Lfunc_end19-_ZN8NArchive3N7z8CHandler6AddRefEv
                                        # -- End function
	.section	.text._ZN8NArchive3N7z8CHandler7ReleaseEv,"axG",@progbits,_ZN8NArchive3N7z8CHandler7ReleaseEv,comdat
	.weak	_ZN8NArchive3N7z8CHandler7ReleaseEv # -- Begin function _ZN8NArchive3N7z8CHandler7ReleaseEv
	.p2align	2
	.type	_ZN8NArchive3N7z8CHandler7ReleaseEv,@function
_ZN8NArchive3N7z8CHandler7ReleaseEv:    # @_ZN8NArchive3N7z8CHandler7ReleaseEv
# %bb.0:                                # %entry
	addi.d	$sp, $sp, -16
	st.d	$ra, $sp, 8                     # 8-byte Folded Spill
	st.d	$fp, $sp, 0                     # 8-byte Folded Spill
	ld.w	$a1, $a0, 128
	addi.w	$fp, $a1, -1
	st.w	$fp, $a0, 128
	bnez	$fp, .LBB20_2
# %bb.1:                                # %delete.notnull
	ld.d	$a1, $a0, 0
	ld.d	$a1, $a1, 32
	jirl	$ra, $a1, 0
.LBB20_2:                               # %return
	move	$a0, $fp
	ld.d	$fp, $sp, 0                     # 8-byte Folded Reload
	ld.d	$ra, $sp, 8                     # 8-byte Folded Reload
	addi.d	$sp, $sp, 16
	ret
.Lfunc_end20:
	.size	_ZN8NArchive3N7z8CHandler7ReleaseEv, .Lfunc_end20-_ZN8NArchive3N7z8CHandler7ReleaseEv
                                        # -- End function
	.section	.text._ZN8NArchive3N7z8CHandlerD2Ev,"axG",@progbits,_ZN8NArchive3N7z8CHandlerD2Ev,comdat
	.weak	_ZN8NArchive3N7z8CHandlerD2Ev   # -- Begin function _ZN8NArchive3N7z8CHandlerD2Ev
	.p2align	2
	.type	_ZN8NArchive3N7z8CHandlerD2Ev,@function
_ZN8NArchive3N7z8CHandlerD2Ev:          # @_ZN8NArchive3N7z8CHandlerD2Ev
.Lfunc_begin8:
	.cfi_startproc
	.cfi_personality 155, DW.ref.__gxx_personality_v0
	.cfi_lsda 27, .Lexception8
# %bb.0:                                # %entry
	addi.d	$sp, $sp, -32
	.cfi_def_cfa_offset 32
	st.d	$ra, $sp, 24                    # 8-byte Folded Spill
	st.d	$fp, $sp, 16                    # 8-byte Folded Spill
	st.d	$s0, $sp, 8                     # 8-byte Folded Spill
	.cfi_offset 1, -8
	.cfi_offset 22, -16
	.cfi_offset 23, -24
	move	$fp, $a0
	pcalau12i	$a0, %pc_hi20(_ZTVN8NArchive3N7z8CHandlerE)
	addi.d	$a0, $a0, %pc_lo12(_ZTVN8NArchive3N7z8CHandlerE)
	addi.d	$a1, $a0, 16
	st.d	$a1, $fp, 0
	addi.d	$a1, $a0, 176
	st.d	$a1, $fp, 112
	addi.d	$a0, $a0, 240
	st.d	$a0, $fp, 120
	addi.d	$a0, $fp, 880
	pcaddu18i	$ra, %call36(_ZN17CBaseRecordVectorD2Ev)
	jirl	$ra, $ra, 0
	addi.d	$a0, $fp, 848
	pcaddu18i	$ra, %call36(_ZN17CBaseRecordVectorD2Ev)
	jirl	$ra, $ra, 0
	addi.d	$s0, $fp, 144
	addi.d	$a0, $fp, 792
	pcaddu18i	$ra, %call36(_ZN17CBaseRecordVectorD2Ev)
	jirl	$ra, $ra, 0
	addi.d	$a0, $fp, 760
	pcaddu18i	$ra, %call36(_ZN17CBaseRecordVectorD2Ev)
	jirl	$ra, $ra, 0
	addi.d	$a0, $fp, 728
	pcaddu18i	$ra, %call36(_ZN17CBaseRecordVectorD2Ev)
	jirl	$ra, $ra, 0
	addi.d	$a0, $fp, 696
	pcaddu18i	$ra, %call36(_ZN17CBaseRecordVectorD2Ev)
	jirl	$ra, $ra, 0
	addi.d	$a0, $fp, 664
	pcaddu18i	$ra, %call36(_ZN17CBaseRecordVectorD2Ev)
	jirl	$ra, $ra, 0
	move	$a0, $s0
	pcaddu18i	$ra, %call36(_ZN8NArchive3N7z16CArchiveDatabaseD2Ev)
	jirl	$ra, $ra, 0
	ld.d	$a0, $fp, 136
	beqz	$a0, .LBB21_2
# %bb.1:                                # %if.then.i
	ld.d	$a1, $a0, 0
	ld.d	$a1, $a1, 16
.Ltmp329:                               # EH_LABEL
	jirl	$ra, $a1, 0
.Ltmp330:                               # EH_LABEL
.LBB21_2:                               # %_ZN9CMyComPtrI9IInStreamED2Ev.exit
	addi.d	$s0, $fp, 16
	pcalau12i	$a0, %pc_hi20(_ZTV13CObjectVectorIN8NArchive14COneMethodInfoEE+16)
	addi.d	$a0, $a0, %pc_lo12(_ZTV13CObjectVectorIN8NArchive14COneMethodInfoEE+16)
	st.d	$a0, $fp, 16
.Ltmp332:                               # EH_LABEL
	move	$a0, $s0
	pcaddu18i	$ra, %call36(_ZN17CBaseRecordVector5ClearEv)
	jirl	$ra, $ra, 0
.Ltmp333:                               # EH_LABEL
# %bb.3:                                # %_ZN8NArchive11COutHandlerD2Ev.exit
	move	$a0, $s0
	ld.d	$s0, $sp, 8                     # 8-byte Folded Reload
	ld.d	$fp, $sp, 16                    # 8-byte Folded Reload
	ld.d	$ra, $sp, 24                    # 8-byte Folded Reload
	addi.d	$sp, $sp, 32
	pcaddu18i	$t8, %call36(_ZN17CBaseRecordVectorD2Ev)
	jr	$t8
.LBB21_4:                               # %terminate.lpad.i
.Ltmp331:                               # EH_LABEL
	pcaddu18i	$ra, %call36(__clang_call_terminate)
	jirl	$ra, $ra, 0
.LBB21_5:                               # %terminate.lpad.i.i
.Ltmp334:                               # EH_LABEL
	pcaddu18i	$ra, %call36(__clang_call_terminate)
	jirl	$ra, $ra, 0
.Lfunc_end21:
	.size	_ZN8NArchive3N7z8CHandlerD2Ev, .Lfunc_end21-_ZN8NArchive3N7z8CHandlerD2Ev
	.cfi_endproc
	.section	.gcc_except_table._ZN8NArchive3N7z8CHandlerD2Ev,"aG",@progbits,_ZN8NArchive3N7z8CHandlerD2Ev,comdat
	.p2align	2, 0x0
GCC_except_table21:
.Lexception8:
	.byte	255                             # @LPStart Encoding = omit
	.byte	155                             # @TType Encoding = indirect pcrel sdata4
	.uleb128 .Lttbase7-.Lttbaseref7
.Lttbaseref7:
	.byte	1                               # Call site Encoding = uleb128
	.uleb128 .Lcst_end8-.Lcst_begin8
.Lcst_begin8:
	.uleb128 .Lfunc_begin8-.Lfunc_begin8    # >> Call Site 1 <<
	.uleb128 .Ltmp329-.Lfunc_begin8         #   Call between .Lfunc_begin8 and .Ltmp329
	.byte	0                               #     has no landing pad
	.byte	0                               #   On action: cleanup
	.uleb128 .Ltmp329-.Lfunc_begin8         # >> Call Site 2 <<
	.uleb128 .Ltmp330-.Ltmp329              #   Call between .Ltmp329 and .Ltmp330
	.uleb128 .Ltmp331-.Lfunc_begin8         #     jumps to .Ltmp331
	.byte	1                               #   On action: 1
	.uleb128 .Ltmp332-.Lfunc_begin8         # >> Call Site 3 <<
	.uleb128 .Ltmp333-.Ltmp332              #   Call between .Ltmp332 and .Ltmp333
	.uleb128 .Ltmp334-.Lfunc_begin8         #     jumps to .Ltmp334
	.byte	1                               #   On action: 1
	.uleb128 .Ltmp333-.Lfunc_begin8         # >> Call Site 4 <<
	.uleb128 .Lfunc_end21-.Ltmp333          #   Call between .Ltmp333 and .Lfunc_end21
	.byte	0                               #     has no landing pad
	.byte	0                               #   On action: cleanup
.Lcst_end8:
	.byte	1                               # >> Action Record 1 <<
                                        #   Catch TypeInfo 1
	.byte	0                               #   No further actions
	.p2align	2, 0x0
                                        # >> Catch TypeInfos <<
	.word	0                               # TypeInfo 1
.Lttbase7:
	.p2align	2, 0x0
                                        # -- End function
	.section	.text._ZN8NArchive3N7z8CHandlerD0Ev,"axG",@progbits,_ZN8NArchive3N7z8CHandlerD0Ev,comdat
	.weak	_ZN8NArchive3N7z8CHandlerD0Ev   # -- Begin function _ZN8NArchive3N7z8CHandlerD0Ev
	.p2align	2
	.type	_ZN8NArchive3N7z8CHandlerD0Ev,@function
_ZN8NArchive3N7z8CHandlerD0Ev:          # @_ZN8NArchive3N7z8CHandlerD0Ev
# %bb.0:                                # %entry
	addi.d	$sp, $sp, -16
	st.d	$ra, $sp, 8                     # 8-byte Folded Spill
	st.d	$fp, $sp, 0                     # 8-byte Folded Spill
	move	$fp, $a0
	pcaddu18i	$ra, %call36(_ZN8NArchive3N7z8CHandlerD2Ev)
	jirl	$ra, $ra, 0
	ori	$a1, $zero, 912
	move	$a0, $fp
	ld.d	$fp, $sp, 0                     # 8-byte Folded Reload
	ld.d	$ra, $sp, 8                     # 8-byte Folded Reload
	addi.d	$sp, $sp, 16
	pcaddu18i	$t8, %call36(_ZdlPvm)
	jr	$t8
.Lfunc_end22:
	.size	_ZN8NArchive3N7z8CHandlerD0Ev, .Lfunc_end22-_ZN8NArchive3N7z8CHandlerD0Ev
                                        # -- End function
	.section	.text._ZThn112_N8NArchive3N7z8CHandler14QueryInterfaceERK4GUIDPPv,"axG",@progbits,_ZThn112_N8NArchive3N7z8CHandler14QueryInterfaceERK4GUIDPPv,comdat
	.weak	_ZThn112_N8NArchive3N7z8CHandler14QueryInterfaceERK4GUIDPPv # -- Begin function _ZThn112_N8NArchive3N7z8CHandler14QueryInterfaceERK4GUIDPPv
	.p2align	2
	.type	_ZThn112_N8NArchive3N7z8CHandler14QueryInterfaceERK4GUIDPPv,@function
_ZThn112_N8NArchive3N7z8CHandler14QueryInterfaceERK4GUIDPPv: # @_ZThn112_N8NArchive3N7z8CHandler14QueryInterfaceERK4GUIDPPv
	.cfi_startproc
# %bb.0:                                # %entry
	addi.d	$a0, $a0, -112
	pcaddu18i	$t8, %call36(_ZN8NArchive3N7z8CHandler14QueryInterfaceERK4GUIDPPv)
	jr	$t8
.Lfunc_end23:
	.size	_ZThn112_N8NArchive3N7z8CHandler14QueryInterfaceERK4GUIDPPv, .Lfunc_end23-_ZThn112_N8NArchive3N7z8CHandler14QueryInterfaceERK4GUIDPPv
	.cfi_endproc
                                        # -- End function
	.section	.text._ZThn112_N8NArchive3N7z8CHandler6AddRefEv,"axG",@progbits,_ZThn112_N8NArchive3N7z8CHandler6AddRefEv,comdat
	.weak	_ZThn112_N8NArchive3N7z8CHandler6AddRefEv # -- Begin function _ZThn112_N8NArchive3N7z8CHandler6AddRefEv
	.p2align	2
	.type	_ZThn112_N8NArchive3N7z8CHandler6AddRefEv,@function
_ZThn112_N8NArchive3N7z8CHandler6AddRefEv: # @_ZThn112_N8NArchive3N7z8CHandler6AddRefEv
	.cfi_startproc
# %bb.0:                                # %entry
	ld.w	$a1, $a0, 16
	addi.w	$a1, $a1, 1
	st.w	$a1, $a0, 16
	move	$a0, $a1
	ret
.Lfunc_end24:
	.size	_ZThn112_N8NArchive3N7z8CHandler6AddRefEv, .Lfunc_end24-_ZThn112_N8NArchive3N7z8CHandler6AddRefEv
	.cfi_endproc
                                        # -- End function
	.section	.text._ZThn112_N8NArchive3N7z8CHandler7ReleaseEv,"axG",@progbits,_ZThn112_N8NArchive3N7z8CHandler7ReleaseEv,comdat
	.weak	_ZThn112_N8NArchive3N7z8CHandler7ReleaseEv # -- Begin function _ZThn112_N8NArchive3N7z8CHandler7ReleaseEv
	.p2align	2
	.type	_ZThn112_N8NArchive3N7z8CHandler7ReleaseEv,@function
_ZThn112_N8NArchive3N7z8CHandler7ReleaseEv: # @_ZThn112_N8NArchive3N7z8CHandler7ReleaseEv
	.cfi_startproc
# %bb.0:                                # %entry
	addi.d	$sp, $sp, -16
	.cfi_def_cfa_offset 16
	st.d	$ra, $sp, 8                     # 8-byte Folded Spill
	st.d	$fp, $sp, 0                     # 8-byte Folded Spill
	.cfi_offset 1, -8
	.cfi_offset 22, -16
	ld.w	$a1, $a0, 16
	addi.w	$fp, $a1, -1
	st.w	$fp, $a0, 16
	bnez	$fp, .LBB25_2
# %bb.1:                                # %delete.notnull.i
	ld.d	$a1, $a0, -112
	ld.d	$a1, $a1, 32
	addi.d	$a0, $a0, -112
	jirl	$ra, $a1, 0
.LBB25_2:                               # %_ZN8NArchive3N7z8CHandler7ReleaseEv.exit
	move	$a0, $fp
	ld.d	$fp, $sp, 0                     # 8-byte Folded Reload
	ld.d	$ra, $sp, 8                     # 8-byte Folded Reload
	addi.d	$sp, $sp, 16
	ret
.Lfunc_end25:
	.size	_ZThn112_N8NArchive3N7z8CHandler7ReleaseEv, .Lfunc_end25-_ZThn112_N8NArchive3N7z8CHandler7ReleaseEv
	.cfi_endproc
                                        # -- End function
	.section	.text._ZThn112_N8NArchive3N7z8CHandlerD1Ev,"axG",@progbits,_ZThn112_N8NArchive3N7z8CHandlerD1Ev,comdat
	.weak	_ZThn112_N8NArchive3N7z8CHandlerD1Ev # -- Begin function _ZThn112_N8NArchive3N7z8CHandlerD1Ev
	.p2align	2
	.type	_ZThn112_N8NArchive3N7z8CHandlerD1Ev,@function
_ZThn112_N8NArchive3N7z8CHandlerD1Ev:   # @_ZThn112_N8NArchive3N7z8CHandlerD1Ev
# %bb.0:                                # %entry
	addi.d	$a0, $a0, -112
	pcaddu18i	$t8, %call36(_ZN8NArchive3N7z8CHandlerD2Ev)
	jr	$t8
.Lfunc_end26:
	.size	_ZThn112_N8NArchive3N7z8CHandlerD1Ev, .Lfunc_end26-_ZThn112_N8NArchive3N7z8CHandlerD1Ev
                                        # -- End function
	.section	.text._ZThn112_N8NArchive3N7z8CHandlerD0Ev,"axG",@progbits,_ZThn112_N8NArchive3N7z8CHandlerD0Ev,comdat
	.weak	_ZThn112_N8NArchive3N7z8CHandlerD0Ev # -- Begin function _ZThn112_N8NArchive3N7z8CHandlerD0Ev
	.p2align	2
	.type	_ZThn112_N8NArchive3N7z8CHandlerD0Ev,@function
_ZThn112_N8NArchive3N7z8CHandlerD0Ev:   # @_ZThn112_N8NArchive3N7z8CHandlerD0Ev
# %bb.0:                                # %entry
	addi.d	$sp, $sp, -16
	st.d	$ra, $sp, 8                     # 8-byte Folded Spill
	st.d	$fp, $sp, 0                     # 8-byte Folded Spill
	addi.d	$fp, $a0, -112
	move	$a0, $fp
	pcaddu18i	$ra, %call36(_ZN8NArchive3N7z8CHandlerD2Ev)
	jirl	$ra, $ra, 0
	ori	$a1, $zero, 912
	move	$a0, $fp
	ld.d	$fp, $sp, 0                     # 8-byte Folded Reload
	ld.d	$ra, $sp, 8                     # 8-byte Folded Reload
	addi.d	$sp, $sp, 16
	pcaddu18i	$t8, %call36(_ZdlPvm)
	jr	$t8
.Lfunc_end27:
	.size	_ZThn112_N8NArchive3N7z8CHandlerD0Ev, .Lfunc_end27-_ZThn112_N8NArchive3N7z8CHandlerD0Ev
                                        # -- End function
	.section	.text._ZThn120_N8NArchive3N7z8CHandler14QueryInterfaceERK4GUIDPPv,"axG",@progbits,_ZThn120_N8NArchive3N7z8CHandler14QueryInterfaceERK4GUIDPPv,comdat
	.weak	_ZThn120_N8NArchive3N7z8CHandler14QueryInterfaceERK4GUIDPPv # -- Begin function _ZThn120_N8NArchive3N7z8CHandler14QueryInterfaceERK4GUIDPPv
	.p2align	2
	.type	_ZThn120_N8NArchive3N7z8CHandler14QueryInterfaceERK4GUIDPPv,@function
_ZThn120_N8NArchive3N7z8CHandler14QueryInterfaceERK4GUIDPPv: # @_ZThn120_N8NArchive3N7z8CHandler14QueryInterfaceERK4GUIDPPv
	.cfi_startproc
# %bb.0:                                # %entry
	addi.d	$a0, $a0, -120
	pcaddu18i	$t8, %call36(_ZN8NArchive3N7z8CHandler14QueryInterfaceERK4GUIDPPv)
	jr	$t8
.Lfunc_end28:
	.size	_ZThn120_N8NArchive3N7z8CHandler14QueryInterfaceERK4GUIDPPv, .Lfunc_end28-_ZThn120_N8NArchive3N7z8CHandler14QueryInterfaceERK4GUIDPPv
	.cfi_endproc
                                        # -- End function
	.section	.text._ZThn120_N8NArchive3N7z8CHandler6AddRefEv,"axG",@progbits,_ZThn120_N8NArchive3N7z8CHandler6AddRefEv,comdat
	.weak	_ZThn120_N8NArchive3N7z8CHandler6AddRefEv # -- Begin function _ZThn120_N8NArchive3N7z8CHandler6AddRefEv
	.p2align	2
	.type	_ZThn120_N8NArchive3N7z8CHandler6AddRefEv,@function
_ZThn120_N8NArchive3N7z8CHandler6AddRefEv: # @_ZThn120_N8NArchive3N7z8CHandler6AddRefEv
	.cfi_startproc
# %bb.0:                                # %entry
	ld.w	$a1, $a0, 8
	addi.w	$a1, $a1, 1
	st.w	$a1, $a0, 8
	move	$a0, $a1
	ret
.Lfunc_end29:
	.size	_ZThn120_N8NArchive3N7z8CHandler6AddRefEv, .Lfunc_end29-_ZThn120_N8NArchive3N7z8CHandler6AddRefEv
	.cfi_endproc
                                        # -- End function
	.section	.text._ZThn120_N8NArchive3N7z8CHandler7ReleaseEv,"axG",@progbits,_ZThn120_N8NArchive3N7z8CHandler7ReleaseEv,comdat
	.weak	_ZThn120_N8NArchive3N7z8CHandler7ReleaseEv # -- Begin function _ZThn120_N8NArchive3N7z8CHandler7ReleaseEv
	.p2align	2
	.type	_ZThn120_N8NArchive3N7z8CHandler7ReleaseEv,@function
_ZThn120_N8NArchive3N7z8CHandler7ReleaseEv: # @_ZThn120_N8NArchive3N7z8CHandler7ReleaseEv
	.cfi_startproc
# %bb.0:                                # %entry
	addi.d	$sp, $sp, -16
	.cfi_def_cfa_offset 16
	st.d	$ra, $sp, 8                     # 8-byte Folded Spill
	st.d	$fp, $sp, 0                     # 8-byte Folded Spill
	.cfi_offset 1, -8
	.cfi_offset 22, -16
	ld.w	$a1, $a0, 8
	addi.w	$fp, $a1, -1
	st.w	$fp, $a0, 8
	bnez	$fp, .LBB30_2
# %bb.1:                                # %delete.notnull.i
	ld.d	$a1, $a0, -120
	ld.d	$a1, $a1, 32
	addi.d	$a0, $a0, -120
	jirl	$ra, $a1, 0
.LBB30_2:                               # %_ZN8NArchive3N7z8CHandler7ReleaseEv.exit
	move	$a0, $fp
	ld.d	$fp, $sp, 0                     # 8-byte Folded Reload
	ld.d	$ra, $sp, 8                     # 8-byte Folded Reload
	addi.d	$sp, $sp, 16
	ret
.Lfunc_end30:
	.size	_ZThn120_N8NArchive3N7z8CHandler7ReleaseEv, .Lfunc_end30-_ZThn120_N8NArchive3N7z8CHandler7ReleaseEv
	.cfi_endproc
                                        # -- End function
	.section	.text._ZThn120_N8NArchive3N7z8CHandlerD1Ev,"axG",@progbits,_ZThn120_N8NArchive3N7z8CHandlerD1Ev,comdat
	.weak	_ZThn120_N8NArchive3N7z8CHandlerD1Ev # -- Begin function _ZThn120_N8NArchive3N7z8CHandlerD1Ev
	.p2align	2
	.type	_ZThn120_N8NArchive3N7z8CHandlerD1Ev,@function
_ZThn120_N8NArchive3N7z8CHandlerD1Ev:   # @_ZThn120_N8NArchive3N7z8CHandlerD1Ev
# %bb.0:                                # %entry
	addi.d	$a0, $a0, -120
	pcaddu18i	$t8, %call36(_ZN8NArchive3N7z8CHandlerD2Ev)
	jr	$t8
.Lfunc_end31:
	.size	_ZThn120_N8NArchive3N7z8CHandlerD1Ev, .Lfunc_end31-_ZThn120_N8NArchive3N7z8CHandlerD1Ev
                                        # -- End function
	.section	.text._ZThn120_N8NArchive3N7z8CHandlerD0Ev,"axG",@progbits,_ZThn120_N8NArchive3N7z8CHandlerD0Ev,comdat
	.weak	_ZThn120_N8NArchive3N7z8CHandlerD0Ev # -- Begin function _ZThn120_N8NArchive3N7z8CHandlerD0Ev
	.p2align	2
	.type	_ZThn120_N8NArchive3N7z8CHandlerD0Ev,@function
_ZThn120_N8NArchive3N7z8CHandlerD0Ev:   # @_ZThn120_N8NArchive3N7z8CHandlerD0Ev
# %bb.0:                                # %entry
	addi.d	$sp, $sp, -16
	st.d	$ra, $sp, 8                     # 8-byte Folded Spill
	st.d	$fp, $sp, 0                     # 8-byte Folded Spill
	addi.d	$fp, $a0, -120
	move	$a0, $fp
	pcaddu18i	$ra, %call36(_ZN8NArchive3N7z8CHandlerD2Ev)
	jirl	$ra, $ra, 0
	ori	$a1, $zero, 912
	move	$a0, $fp
	ld.d	$fp, $sp, 0                     # 8-byte Folded Reload
	ld.d	$ra, $sp, 8                     # 8-byte Folded Reload
	addi.d	$sp, $sp, 16
	pcaddu18i	$t8, %call36(_ZdlPvm)
	jr	$t8
.Lfunc_end32:
	.size	_ZThn120_N8NArchive3N7z8CHandlerD0Ev, .Lfunc_end32-_ZThn120_N8NArchive3N7z8CHandlerD0Ev
                                        # -- End function
	.section	.text._ZN13CObjectVectorIN8NArchive14COneMethodInfoEED2Ev,"axG",@progbits,_ZN13CObjectVectorIN8NArchive14COneMethodInfoEED2Ev,comdat
	.weak	_ZN13CObjectVectorIN8NArchive14COneMethodInfoEED2Ev # -- Begin function _ZN13CObjectVectorIN8NArchive14COneMethodInfoEED2Ev
	.p2align	2
	.type	_ZN13CObjectVectorIN8NArchive14COneMethodInfoEED2Ev,@function
_ZN13CObjectVectorIN8NArchive14COneMethodInfoEED2Ev: # @_ZN13CObjectVectorIN8NArchive14COneMethodInfoEED2Ev
.Lfunc_begin9:
	.cfi_startproc
	.cfi_personality 155, DW.ref.__gxx_personality_v0
	.cfi_lsda 27, .Lexception9
# %bb.0:                                # %entry
	addi.d	$sp, $sp, -16
	.cfi_def_cfa_offset 16
	st.d	$ra, $sp, 8                     # 8-byte Folded Spill
	st.d	$fp, $sp, 0                     # 8-byte Folded Spill
	.cfi_offset 1, -8
	.cfi_offset 22, -16
	move	$fp, $a0
	pcalau12i	$a0, %pc_hi20(_ZTV13CObjectVectorIN8NArchive14COneMethodInfoEE+16)
	addi.d	$a0, $a0, %pc_lo12(_ZTV13CObjectVectorIN8NArchive14COneMethodInfoEE+16)
	st.d	$a0, $fp, 0
.Ltmp335:                               # EH_LABEL
	move	$a0, $fp
	pcaddu18i	$ra, %call36(_ZN17CBaseRecordVector5ClearEv)
	jirl	$ra, $ra, 0
.Ltmp336:                               # EH_LABEL
# %bb.1:                                # %invoke.cont
	move	$a0, $fp
	ld.d	$fp, $sp, 0                     # 8-byte Folded Reload
	ld.d	$ra, $sp, 8                     # 8-byte Folded Reload
	addi.d	$sp, $sp, 16
	pcaddu18i	$t8, %call36(_ZN17CBaseRecordVectorD2Ev)
	jr	$t8
.LBB33_2:                               # %terminate.lpad
.Ltmp337:                               # EH_LABEL
	pcaddu18i	$ra, %call36(__clang_call_terminate)
	jirl	$ra, $ra, 0
.Lfunc_end33:
	.size	_ZN13CObjectVectorIN8NArchive14COneMethodInfoEED2Ev, .Lfunc_end33-_ZN13CObjectVectorIN8NArchive14COneMethodInfoEED2Ev
	.cfi_endproc
	.section	.gcc_except_table._ZN13CObjectVectorIN8NArchive14COneMethodInfoEED2Ev,"aG",@progbits,_ZN13CObjectVectorIN8NArchive14COneMethodInfoEED2Ev,comdat
	.p2align	2, 0x0
GCC_except_table33:
.Lexception9:
	.byte	255                             # @LPStart Encoding = omit
	.byte	155                             # @TType Encoding = indirect pcrel sdata4
	.uleb128 .Lttbase8-.Lttbaseref8
.Lttbaseref8:
	.byte	1                               # Call site Encoding = uleb128
	.uleb128 .Lcst_end9-.Lcst_begin9
.Lcst_begin9:
	.uleb128 .Ltmp335-.Lfunc_begin9         # >> Call Site 1 <<
	.uleb128 .Ltmp336-.Ltmp335              #   Call between .Ltmp335 and .Ltmp336
	.uleb128 .Ltmp337-.Lfunc_begin9         #     jumps to .Ltmp337
	.byte	1                               #   On action: 1
	.uleb128 .Ltmp336-.Lfunc_begin9         # >> Call Site 2 <<
	.uleb128 .Lfunc_end33-.Ltmp336          #   Call between .Ltmp336 and .Lfunc_end33
	.byte	0                               #     has no landing pad
	.byte	0                               #   On action: cleanup
.Lcst_end9:
	.byte	1                               # >> Action Record 1 <<
                                        #   Catch TypeInfo 1
	.byte	0                               #   No further actions
	.p2align	2, 0x0
                                        # >> Catch TypeInfos <<
	.word	0                               # TypeInfo 1
.Lttbase8:
	.p2align	2, 0x0
                                        # -- End function
	.section	.text._ZN13CObjectVectorIN8NArchive14COneMethodInfoEED0Ev,"axG",@progbits,_ZN13CObjectVectorIN8NArchive14COneMethodInfoEED0Ev,comdat
	.weak	_ZN13CObjectVectorIN8NArchive14COneMethodInfoEED0Ev # -- Begin function _ZN13CObjectVectorIN8NArchive14COneMethodInfoEED0Ev
	.p2align	2
	.type	_ZN13CObjectVectorIN8NArchive14COneMethodInfoEED0Ev,@function
_ZN13CObjectVectorIN8NArchive14COneMethodInfoEED0Ev: # @_ZN13CObjectVectorIN8NArchive14COneMethodInfoEED0Ev
.Lfunc_begin10:
	.cfi_startproc
	.cfi_personality 155, DW.ref.__gxx_personality_v0
	.cfi_lsda 27, .Lexception10
# %bb.0:                                # %entry
	addi.d	$sp, $sp, -16
	.cfi_def_cfa_offset 16
	st.d	$ra, $sp, 8                     # 8-byte Folded Spill
	st.d	$fp, $sp, 0                     # 8-byte Folded Spill
	.cfi_offset 1, -8
	.cfi_offset 22, -16
	move	$fp, $a0
	pcalau12i	$a0, %pc_hi20(_ZTV13CObjectVectorIN8NArchive14COneMethodInfoEE+16)
	addi.d	$a0, $a0, %pc_lo12(_ZTV13CObjectVectorIN8NArchive14COneMethodInfoEE+16)
	st.d	$a0, $fp, 0
.Ltmp338:                               # EH_LABEL
	move	$a0, $fp
	pcaddu18i	$ra, %call36(_ZN17CBaseRecordVector5ClearEv)
	jirl	$ra, $ra, 0
.Ltmp339:                               # EH_LABEL
# %bb.1:                                # %_ZN13CObjectVectorIN8NArchive14COneMethodInfoEED2Ev.exit
	move	$a0, $fp
	pcaddu18i	$ra, %call36(_ZN17CBaseRecordVectorD2Ev)
	jirl	$ra, $ra, 0
	ori	$a1, $zero, 32
	move	$a0, $fp
	ld.d	$fp, $sp, 0                     # 8-byte Folded Reload
	ld.d	$ra, $sp, 8                     # 8-byte Folded Reload
	addi.d	$sp, $sp, 16
	pcaddu18i	$t8, %call36(_ZdlPvm)
	jr	$t8
.LBB34_2:                               # %terminate.lpad.i
.Ltmp340:                               # EH_LABEL
	pcaddu18i	$ra, %call36(__clang_call_terminate)
	jirl	$ra, $ra, 0
.Lfunc_end34:
	.size	_ZN13CObjectVectorIN8NArchive14COneMethodInfoEED0Ev, .Lfunc_end34-_ZN13CObjectVectorIN8NArchive14COneMethodInfoEED0Ev
	.cfi_endproc
	.section	.gcc_except_table._ZN13CObjectVectorIN8NArchive14COneMethodInfoEED0Ev,"aG",@progbits,_ZN13CObjectVectorIN8NArchive14COneMethodInfoEED0Ev,comdat
	.p2align	2, 0x0
GCC_except_table34:
.Lexception10:
	.byte	255                             # @LPStart Encoding = omit
	.byte	155                             # @TType Encoding = indirect pcrel sdata4
	.uleb128 .Lttbase9-.Lttbaseref9
.Lttbaseref9:
	.byte	1                               # Call site Encoding = uleb128
	.uleb128 .Lcst_end10-.Lcst_begin10
.Lcst_begin10:
	.uleb128 .Ltmp338-.Lfunc_begin10        # >> Call Site 1 <<
	.uleb128 .Ltmp339-.Ltmp338              #   Call between .Ltmp338 and .Ltmp339
	.uleb128 .Ltmp340-.Lfunc_begin10        #     jumps to .Ltmp340
	.byte	1                               #   On action: 1
	.uleb128 .Ltmp339-.Lfunc_begin10        # >> Call Site 2 <<
	.uleb128 .Lfunc_end34-.Ltmp339          #   Call between .Ltmp339 and .Lfunc_end34
	.byte	0                               #     has no landing pad
	.byte	0                               #   On action: cleanup
.Lcst_end10:
	.byte	1                               # >> Action Record 1 <<
                                        #   Catch TypeInfo 1
	.byte	0                               #   No further actions
	.p2align	2, 0x0
                                        # >> Catch TypeInfos <<
	.word	0                               # TypeInfo 1
.Lttbase9:
	.p2align	2, 0x0
                                        # -- End function
	.section	.text._ZN13CObjectVectorIN8NArchive14COneMethodInfoEE6DeleteEii,"axG",@progbits,_ZN13CObjectVectorIN8NArchive14COneMethodInfoEE6DeleteEii,comdat
	.weak	_ZN13CObjectVectorIN8NArchive14COneMethodInfoEE6DeleteEii # -- Begin function _ZN13CObjectVectorIN8NArchive14COneMethodInfoEE6DeleteEii
	.p2align	2
	.type	_ZN13CObjectVectorIN8NArchive14COneMethodInfoEE6DeleteEii,@function
_ZN13CObjectVectorIN8NArchive14COneMethodInfoEE6DeleteEii: # @_ZN13CObjectVectorIN8NArchive14COneMethodInfoEE6DeleteEii
.Lfunc_begin11:
	.cfi_startproc
	.cfi_personality 155, DW.ref.__gxx_personality_v0
	.cfi_lsda 27, .Lexception11
# %bb.0:                                # %entry
	addi.d	$sp, $sp, -80
	.cfi_def_cfa_offset 80
	st.d	$ra, $sp, 72                    # 8-byte Folded Spill
	st.d	$fp, $sp, 64                    # 8-byte Folded Spill
	st.d	$s0, $sp, 56                    # 8-byte Folded Spill
	st.d	$s1, $sp, 48                    # 8-byte Folded Spill
	st.d	$s2, $sp, 40                    # 8-byte Folded Spill
	st.d	$s3, $sp, 32                    # 8-byte Folded Spill
	st.d	$s4, $sp, 24                    # 8-byte Folded Spill
	st.d	$s5, $sp, 16                    # 8-byte Folded Spill
	.cfi_offset 1, -8
	.cfi_offset 22, -16
	.cfi_offset 23, -24
	.cfi_offset 24, -32
	.cfi_offset 25, -40
	.cfi_offset 26, -48
	.cfi_offset 27, -56
	.cfi_offset 28, -64
	move	$fp, $a0
	ld.w	$a0, $a0, 12
	move	$s0, $a1
	add.w	$a1, $a2, $a1
	slt	$a1, $a0, $a1
	sub.w	$a0, $a0, $s0
	maskeqz	$a0, $a0, $a1
	masknez	$a1, $a2, $a1
	or	$s1, $a0, $a1
	ori	$a0, $zero, 1
	blt	$s1, $a0, .LBB35_8
# %bb.1:                                # %for.body.lr.ph
	move	$s3, $zero
	slli.d	$s4, $s0, 3
	pcalau12i	$a0, %pc_hi20(_ZTV13CObjectVectorI5CPropE+16)
	addi.d	$s5, $a0, %pc_lo12(_ZTV13CObjectVectorI5CPropE+16)
	b	.LBB35_3
	.p2align	4, , 16
.LBB35_2:                               # %for.inc
                                        #   in Loop: Header=BB35_3 Depth=1
	addi.d	$s3, $s3, 1
	addi.d	$s4, $s4, 8
	bgeu	$s3, $s1, .LBB35_8
.LBB35_3:                               # %for.body
                                        # =>This Inner Loop Header: Depth=1
	ld.d	$a0, $fp, 16
	ldx.d	$s2, $a0, $s4
	beqz	$s2, .LBB35_2
# %bb.4:                                # %delete.notnull
                                        #   in Loop: Header=BB35_3 Depth=1
	ld.d	$a0, $s2, 32
	beqz	$a0, .LBB35_6
# %bb.5:                                # %delete.notnull.i.i
                                        #   in Loop: Header=BB35_3 Depth=1
	pcaddu18i	$ra, %call36(_ZdaPv)
	jirl	$ra, $ra, 0
.LBB35_6:                               # %_ZN11CStringBaseIwED2Ev.exit.i
                                        #   in Loop: Header=BB35_3 Depth=1
	st.d	$s5, $s2, 0
.Ltmp341:                               # EH_LABEL
	move	$a0, $s2
	pcaddu18i	$ra, %call36(_ZN17CBaseRecordVector5ClearEv)
	jirl	$ra, $ra, 0
.Ltmp342:                               # EH_LABEL
# %bb.7:                                # %_ZN8NArchive14COneMethodInfoD2Ev.exit
                                        #   in Loop: Header=BB35_3 Depth=1
	move	$a0, $s2
	pcaddu18i	$ra, %call36(_ZN17CBaseRecordVectorD2Ev)
	jirl	$ra, $ra, 0
	ori	$a1, $zero, 48
	move	$a0, $s2
	pcaddu18i	$ra, %call36(_ZdlPvm)
	jirl	$ra, $ra, 0
	b	.LBB35_2
.LBB35_8:                               # %for.cond.cleanup
	move	$a0, $fp
	move	$a1, $s0
	move	$a2, $s1
	ld.d	$s5, $sp, 16                    # 8-byte Folded Reload
	ld.d	$s4, $sp, 24                    # 8-byte Folded Reload
	ld.d	$s3, $sp, 32                    # 8-byte Folded Reload
	ld.d	$s2, $sp, 40                    # 8-byte Folded Reload
	ld.d	$s1, $sp, 48                    # 8-byte Folded Reload
	ld.d	$s0, $sp, 56                    # 8-byte Folded Reload
	ld.d	$fp, $sp, 64                    # 8-byte Folded Reload
	ld.d	$ra, $sp, 72                    # 8-byte Folded Reload
	addi.d	$sp, $sp, 80
	pcaddu18i	$t8, %call36(_ZN17CBaseRecordVector6DeleteEii)
	jr	$t8
.LBB35_9:                               # %terminate.lpad.i.i
.Ltmp343:                               # EH_LABEL
	pcaddu18i	$ra, %call36(__clang_call_terminate)
	jirl	$ra, $ra, 0
.Lfunc_end35:
	.size	_ZN13CObjectVectorIN8NArchive14COneMethodInfoEE6DeleteEii, .Lfunc_end35-_ZN13CObjectVectorIN8NArchive14COneMethodInfoEE6DeleteEii
	.cfi_endproc
	.section	.gcc_except_table._ZN13CObjectVectorIN8NArchive14COneMethodInfoEE6DeleteEii,"aG",@progbits,_ZN13CObjectVectorIN8NArchive14COneMethodInfoEE6DeleteEii,comdat
	.p2align	2, 0x0
GCC_except_table35:
.Lexception11:
	.byte	255                             # @LPStart Encoding = omit
	.byte	155                             # @TType Encoding = indirect pcrel sdata4
	.uleb128 .Lttbase10-.Lttbaseref10
.Lttbaseref10:
	.byte	1                               # Call site Encoding = uleb128
	.uleb128 .Lcst_end11-.Lcst_begin11
.Lcst_begin11:
	.uleb128 .Lfunc_begin11-.Lfunc_begin11  # >> Call Site 1 <<
	.uleb128 .Ltmp341-.Lfunc_begin11        #   Call between .Lfunc_begin11 and .Ltmp341
	.byte	0                               #     has no landing pad
	.byte	0                               #   On action: cleanup
	.uleb128 .Ltmp341-.Lfunc_begin11        # >> Call Site 2 <<
	.uleb128 .Ltmp342-.Ltmp341              #   Call between .Ltmp341 and .Ltmp342
	.uleb128 .Ltmp343-.Lfunc_begin11        #     jumps to .Ltmp343
	.byte	1                               #   On action: 1
	.uleb128 .Ltmp342-.Lfunc_begin11        # >> Call Site 3 <<
	.uleb128 .Lfunc_end35-.Ltmp342          #   Call between .Ltmp342 and .Lfunc_end35
	.byte	0                               #     has no landing pad
	.byte	0                               #   On action: cleanup
.Lcst_end11:
	.byte	1                               # >> Action Record 1 <<
                                        #   Catch TypeInfo 1
	.byte	0                               #   No further actions
	.p2align	2, 0x0
                                        # >> Catch TypeInfos <<
	.word	0                               # TypeInfo 1
.Lttbase10:
	.p2align	2, 0x0
                                        # -- End function
	.section	.text._ZN13CObjectVectorI5CPropED2Ev,"axG",@progbits,_ZN13CObjectVectorI5CPropED2Ev,comdat
	.weak	_ZN13CObjectVectorI5CPropED2Ev  # -- Begin function _ZN13CObjectVectorI5CPropED2Ev
	.p2align	2
	.type	_ZN13CObjectVectorI5CPropED2Ev,@function
_ZN13CObjectVectorI5CPropED2Ev:         # @_ZN13CObjectVectorI5CPropED2Ev
.Lfunc_begin12:
	.cfi_startproc
	.cfi_personality 155, DW.ref.__gxx_personality_v0
	.cfi_lsda 27, .Lexception12
# %bb.0:                                # %entry
	addi.d	$sp, $sp, -16
	.cfi_def_cfa_offset 16
	st.d	$ra, $sp, 8                     # 8-byte Folded Spill
	st.d	$fp, $sp, 0                     # 8-byte Folded Spill
	.cfi_offset 1, -8
	.cfi_offset 22, -16
	move	$fp, $a0
	pcalau12i	$a0, %pc_hi20(_ZTV13CObjectVectorI5CPropE+16)
	addi.d	$a0, $a0, %pc_lo12(_ZTV13CObjectVectorI5CPropE+16)
	st.d	$a0, $fp, 0
.Ltmp344:                               # EH_LABEL
	move	$a0, $fp
	pcaddu18i	$ra, %call36(_ZN17CBaseRecordVector5ClearEv)
	jirl	$ra, $ra, 0
.Ltmp345:                               # EH_LABEL
# %bb.1:                                # %invoke.cont
	move	$a0, $fp
	ld.d	$fp, $sp, 0                     # 8-byte Folded Reload
	ld.d	$ra, $sp, 8                     # 8-byte Folded Reload
	addi.d	$sp, $sp, 16
	pcaddu18i	$t8, %call36(_ZN17CBaseRecordVectorD2Ev)
	jr	$t8
.LBB36_2:                               # %terminate.lpad
.Ltmp346:                               # EH_LABEL
	pcaddu18i	$ra, %call36(__clang_call_terminate)
	jirl	$ra, $ra, 0
.Lfunc_end36:
	.size	_ZN13CObjectVectorI5CPropED2Ev, .Lfunc_end36-_ZN13CObjectVectorI5CPropED2Ev
	.cfi_endproc
	.section	.gcc_except_table._ZN13CObjectVectorI5CPropED2Ev,"aG",@progbits,_ZN13CObjectVectorI5CPropED2Ev,comdat
	.p2align	2, 0x0
GCC_except_table36:
.Lexception12:
	.byte	255                             # @LPStart Encoding = omit
	.byte	155                             # @TType Encoding = indirect pcrel sdata4
	.uleb128 .Lttbase11-.Lttbaseref11
.Lttbaseref11:
	.byte	1                               # Call site Encoding = uleb128
	.uleb128 .Lcst_end12-.Lcst_begin12
.Lcst_begin12:
	.uleb128 .Ltmp344-.Lfunc_begin12        # >> Call Site 1 <<
	.uleb128 .Ltmp345-.Ltmp344              #   Call between .Ltmp344 and .Ltmp345
	.uleb128 .Ltmp346-.Lfunc_begin12        #     jumps to .Ltmp346
	.byte	1                               #   On action: 1
	.uleb128 .Ltmp345-.Lfunc_begin12        # >> Call Site 2 <<
	.uleb128 .Lfunc_end36-.Ltmp345          #   Call between .Ltmp345 and .Lfunc_end36
	.byte	0                               #     has no landing pad
	.byte	0                               #   On action: cleanup
.Lcst_end12:
	.byte	1                               # >> Action Record 1 <<
                                        #   Catch TypeInfo 1
	.byte	0                               #   No further actions
	.p2align	2, 0x0
                                        # >> Catch TypeInfos <<
	.word	0                               # TypeInfo 1
.Lttbase11:
	.p2align	2, 0x0
                                        # -- End function
	.section	.text._ZN13CObjectVectorI5CPropED0Ev,"axG",@progbits,_ZN13CObjectVectorI5CPropED0Ev,comdat
	.weak	_ZN13CObjectVectorI5CPropED0Ev  # -- Begin function _ZN13CObjectVectorI5CPropED0Ev
	.p2align	2
	.type	_ZN13CObjectVectorI5CPropED0Ev,@function
_ZN13CObjectVectorI5CPropED0Ev:         # @_ZN13CObjectVectorI5CPropED0Ev
.Lfunc_begin13:
	.cfi_startproc
	.cfi_personality 155, DW.ref.__gxx_personality_v0
	.cfi_lsda 27, .Lexception13
# %bb.0:                                # %entry
	addi.d	$sp, $sp, -16
	.cfi_def_cfa_offset 16
	st.d	$ra, $sp, 8                     # 8-byte Folded Spill
	st.d	$fp, $sp, 0                     # 8-byte Folded Spill
	.cfi_offset 1, -8
	.cfi_offset 22, -16
	move	$fp, $a0
	pcalau12i	$a0, %pc_hi20(_ZTV13CObjectVectorI5CPropE+16)
	addi.d	$a0, $a0, %pc_lo12(_ZTV13CObjectVectorI5CPropE+16)
	st.d	$a0, $fp, 0
.Ltmp347:                               # EH_LABEL
	move	$a0, $fp
	pcaddu18i	$ra, %call36(_ZN17CBaseRecordVector5ClearEv)
	jirl	$ra, $ra, 0
.Ltmp348:                               # EH_LABEL
# %bb.1:                                # %_ZN13CObjectVectorI5CPropED2Ev.exit
	move	$a0, $fp
	pcaddu18i	$ra, %call36(_ZN17CBaseRecordVectorD2Ev)
	jirl	$ra, $ra, 0
	ori	$a1, $zero, 32
	move	$a0, $fp
	ld.d	$fp, $sp, 0                     # 8-byte Folded Reload
	ld.d	$ra, $sp, 8                     # 8-byte Folded Reload
	addi.d	$sp, $sp, 16
	pcaddu18i	$t8, %call36(_ZdlPvm)
	jr	$t8
.LBB37_2:                               # %terminate.lpad.i
.Ltmp349:                               # EH_LABEL
	pcaddu18i	$ra, %call36(__clang_call_terminate)
	jirl	$ra, $ra, 0
.Lfunc_end37:
	.size	_ZN13CObjectVectorI5CPropED0Ev, .Lfunc_end37-_ZN13CObjectVectorI5CPropED0Ev
	.cfi_endproc
	.section	.gcc_except_table._ZN13CObjectVectorI5CPropED0Ev,"aG",@progbits,_ZN13CObjectVectorI5CPropED0Ev,comdat
	.p2align	2, 0x0
GCC_except_table37:
.Lexception13:
	.byte	255                             # @LPStart Encoding = omit
	.byte	155                             # @TType Encoding = indirect pcrel sdata4
	.uleb128 .Lttbase12-.Lttbaseref12
.Lttbaseref12:
	.byte	1                               # Call site Encoding = uleb128
	.uleb128 .Lcst_end13-.Lcst_begin13
.Lcst_begin13:
	.uleb128 .Ltmp347-.Lfunc_begin13        # >> Call Site 1 <<
	.uleb128 .Ltmp348-.Ltmp347              #   Call between .Ltmp347 and .Ltmp348
	.uleb128 .Ltmp349-.Lfunc_begin13        #     jumps to .Ltmp349
	.byte	1                               #   On action: 1
	.uleb128 .Ltmp348-.Lfunc_begin13        # >> Call Site 2 <<
	.uleb128 .Lfunc_end37-.Ltmp348          #   Call between .Ltmp348 and .Lfunc_end37
	.byte	0                               #     has no landing pad
	.byte	0                               #   On action: cleanup
.Lcst_end13:
	.byte	1                               # >> Action Record 1 <<
                                        #   Catch TypeInfo 1
	.byte	0                               #   No further actions
	.p2align	2, 0x0
                                        # >> Catch TypeInfos <<
	.word	0                               # TypeInfo 1
.Lttbase12:
	.p2align	2, 0x0
                                        # -- End function
	.section	.text._ZN13CObjectVectorI5CPropE6DeleteEii,"axG",@progbits,_ZN13CObjectVectorI5CPropE6DeleteEii,comdat
	.weak	_ZN13CObjectVectorI5CPropE6DeleteEii # -- Begin function _ZN13CObjectVectorI5CPropE6DeleteEii
	.p2align	2
	.type	_ZN13CObjectVectorI5CPropE6DeleteEii,@function
_ZN13CObjectVectorI5CPropE6DeleteEii:   # @_ZN13CObjectVectorI5CPropE6DeleteEii
.Lfunc_begin14:
	.cfi_startproc
	.cfi_personality 155, DW.ref.__gxx_personality_v0
	.cfi_lsda 27, .Lexception14
# %bb.0:                                # %entry
	addi.d	$sp, $sp, -64
	.cfi_def_cfa_offset 64
	st.d	$ra, $sp, 56                    # 8-byte Folded Spill
	st.d	$fp, $sp, 48                    # 8-byte Folded Spill
	st.d	$s0, $sp, 40                    # 8-byte Folded Spill
	st.d	$s1, $sp, 32                    # 8-byte Folded Spill
	st.d	$s2, $sp, 24                    # 8-byte Folded Spill
	st.d	$s3, $sp, 16                    # 8-byte Folded Spill
	st.d	$s4, $sp, 8                     # 8-byte Folded Spill
	.cfi_offset 1, -8
	.cfi_offset 22, -16
	.cfi_offset 23, -24
	.cfi_offset 24, -32
	.cfi_offset 25, -40
	.cfi_offset 26, -48
	.cfi_offset 27, -56
	move	$fp, $a0
	ld.w	$a0, $a0, 12
	move	$s0, $a1
	add.w	$a1, $a2, $a1
	slt	$a1, $a0, $a1
	sub.w	$a0, $a0, $s0
	maskeqz	$a0, $a0, $a1
	masknez	$a1, $a2, $a1
	or	$s1, $a0, $a1
	ori	$a0, $zero, 1
	blt	$s1, $a0, .LBB38_6
# %bb.1:                                # %for.body.lr.ph
	move	$s3, $zero
	slli.d	$s4, $s0, 3
	b	.LBB38_3
	.p2align	4, , 16
.LBB38_2:                               # %for.inc
                                        #   in Loop: Header=BB38_3 Depth=1
	addi.d	$s3, $s3, 1
	addi.d	$s4, $s4, 8
	bgeu	$s3, $s1, .LBB38_6
.LBB38_3:                               # %for.body
                                        # =>This Inner Loop Header: Depth=1
	ld.d	$a0, $fp, 16
	ldx.d	$s2, $a0, $s4
	beqz	$s2, .LBB38_2
# %bb.4:                                # %delete.notnull
                                        #   in Loop: Header=BB38_3 Depth=1
	addi.d	$a0, $s2, 8
.Ltmp350:                               # EH_LABEL
	pcaddu18i	$ra, %call36(_ZN8NWindows4NCOM12CPropVariant5ClearEv)
	jirl	$ra, $ra, 0
.Ltmp351:                               # EH_LABEL
# %bb.5:                                # %_ZN5CPropD2Ev.exit
                                        #   in Loop: Header=BB38_3 Depth=1
	ori	$a1, $zero, 24
	move	$a0, $s2
	pcaddu18i	$ra, %call36(_ZdlPvm)
	jirl	$ra, $ra, 0
	b	.LBB38_2
.LBB38_6:                               # %for.cond.cleanup
	move	$a0, $fp
	move	$a1, $s0
	move	$a2, $s1
	ld.d	$s4, $sp, 8                     # 8-byte Folded Reload
	ld.d	$s3, $sp, 16                    # 8-byte Folded Reload
	ld.d	$s2, $sp, 24                    # 8-byte Folded Reload
	ld.d	$s1, $sp, 32                    # 8-byte Folded Reload
	ld.d	$s0, $sp, 40                    # 8-byte Folded Reload
	ld.d	$fp, $sp, 48                    # 8-byte Folded Reload
	ld.d	$ra, $sp, 56                    # 8-byte Folded Reload
	addi.d	$sp, $sp, 64
	pcaddu18i	$t8, %call36(_ZN17CBaseRecordVector6DeleteEii)
	jr	$t8
.LBB38_7:                               # %terminate.lpad.i.i
.Ltmp352:                               # EH_LABEL
	pcaddu18i	$ra, %call36(__clang_call_terminate)
	jirl	$ra, $ra, 0
.Lfunc_end38:
	.size	_ZN13CObjectVectorI5CPropE6DeleteEii, .Lfunc_end38-_ZN13CObjectVectorI5CPropE6DeleteEii
	.cfi_endproc
	.section	.gcc_except_table._ZN13CObjectVectorI5CPropE6DeleteEii,"aG",@progbits,_ZN13CObjectVectorI5CPropE6DeleteEii,comdat
	.p2align	2, 0x0
GCC_except_table38:
.Lexception14:
	.byte	255                             # @LPStart Encoding = omit
	.byte	155                             # @TType Encoding = indirect pcrel sdata4
	.uleb128 .Lttbase13-.Lttbaseref13
.Lttbaseref13:
	.byte	1                               # Call site Encoding = uleb128
	.uleb128 .Lcst_end14-.Lcst_begin14
.Lcst_begin14:
	.uleb128 .Ltmp350-.Lfunc_begin14        # >> Call Site 1 <<
	.uleb128 .Ltmp351-.Ltmp350              #   Call between .Ltmp350 and .Ltmp351
	.uleb128 .Ltmp352-.Lfunc_begin14        #     jumps to .Ltmp352
	.byte	1                               #   On action: 1
	.uleb128 .Ltmp351-.Lfunc_begin14        # >> Call Site 2 <<
	.uleb128 .Lfunc_end38-.Ltmp351          #   Call between .Ltmp351 and .Lfunc_end38
	.byte	0                               #     has no landing pad
	.byte	0                               #   On action: cleanup
.Lcst_end14:
	.byte	1                               # >> Action Record 1 <<
                                        #   Catch TypeInfo 1
	.byte	0                               #   No further actions
	.p2align	2, 0x0
                                        # >> Catch TypeInfos <<
	.word	0                               # TypeInfo 1
.Lttbase13:
	.p2align	2, 0x0
                                        # -- End function
	.section	.text._ZN8NArchive3N7z16CArchiveDatabaseD2Ev,"axG",@progbits,_ZN8NArchive3N7z16CArchiveDatabaseD2Ev,comdat
	.weak	_ZN8NArchive3N7z16CArchiveDatabaseD2Ev # -- Begin function _ZN8NArchive3N7z16CArchiveDatabaseD2Ev
	.p2align	2
	.type	_ZN8NArchive3N7z16CArchiveDatabaseD2Ev,@function
_ZN8NArchive3N7z16CArchiveDatabaseD2Ev: # @_ZN8NArchive3N7z16CArchiveDatabaseD2Ev
.Lfunc_begin15:
	.cfi_startproc
	.cfi_personality 155, DW.ref.__gxx_personality_v0
	.cfi_lsda 27, .Lexception15
# %bb.0:                                # %entry
	addi.d	$sp, $sp, -32
	.cfi_def_cfa_offset 32
	st.d	$ra, $sp, 24                    # 8-byte Folded Spill
	st.d	$fp, $sp, 16                    # 8-byte Folded Spill
	st.d	$s0, $sp, 8                     # 8-byte Folded Spill
	.cfi_offset 1, -8
	.cfi_offset 22, -16
	.cfi_offset 23, -24
	move	$fp, $a0
	addi.d	$a0, $a0, 448
	pcaddu18i	$ra, %call36(_ZN17CBaseRecordVectorD2Ev)
	jirl	$ra, $ra, 0
	addi.d	$s0, $fp, 384
	addi.d	$a0, $fp, 416
	pcaddu18i	$ra, %call36(_ZN17CBaseRecordVectorD2Ev)
	jirl	$ra, $ra, 0
	move	$a0, $s0
	pcaddu18i	$ra, %call36(_ZN17CBaseRecordVectorD2Ev)
	jirl	$ra, $ra, 0
	addi.d	$s0, $fp, 320
	addi.d	$a0, $fp, 352
	pcaddu18i	$ra, %call36(_ZN17CBaseRecordVectorD2Ev)
	jirl	$ra, $ra, 0
	move	$a0, $s0
	pcaddu18i	$ra, %call36(_ZN17CBaseRecordVectorD2Ev)
	jirl	$ra, $ra, 0
	addi.d	$s0, $fp, 256
	addi.d	$a0, $fp, 288
	pcaddu18i	$ra, %call36(_ZN17CBaseRecordVectorD2Ev)
	jirl	$ra, $ra, 0
	move	$a0, $s0
	pcaddu18i	$ra, %call36(_ZN17CBaseRecordVectorD2Ev)
	jirl	$ra, $ra, 0
	addi.d	$s0, $fp, 192
	addi.d	$a0, $fp, 224
	pcaddu18i	$ra, %call36(_ZN17CBaseRecordVectorD2Ev)
	jirl	$ra, $ra, 0
	move	$a0, $s0
	pcaddu18i	$ra, %call36(_ZN17CBaseRecordVectorD2Ev)
	jirl	$ra, $ra, 0
	addi.d	$s0, $fp, 160
	pcalau12i	$a0, %pc_hi20(_ZTV13CObjectVectorIN8NArchive3N7z9CFileItemEE+16)
	addi.d	$a0, $a0, %pc_lo12(_ZTV13CObjectVectorIN8NArchive3N7z9CFileItemEE+16)
	st.d	$a0, $fp, 160
.Ltmp353:                               # EH_LABEL
	move	$a0, $s0
	pcaddu18i	$ra, %call36(_ZN17CBaseRecordVector5ClearEv)
	jirl	$ra, $ra, 0
.Ltmp354:                               # EH_LABEL
# %bb.1:                                # %_ZN13CObjectVectorIN8NArchive3N7z9CFileItemEED2Ev.exit
	move	$a0, $s0
	pcaddu18i	$ra, %call36(_ZN17CBaseRecordVectorD2Ev)
	jirl	$ra, $ra, 0
	addi.d	$a0, $fp, 128
	pcaddu18i	$ra, %call36(_ZN17CBaseRecordVectorD2Ev)
	jirl	$ra, $ra, 0
	addi.d	$s0, $fp, 96
	pcalau12i	$a0, %pc_hi20(_ZTV13CObjectVectorIN8NArchive3N7z7CFolderEE+16)
	addi.d	$a0, $a0, %pc_lo12(_ZTV13CObjectVectorIN8NArchive3N7z7CFolderEE+16)
	st.d	$a0, $fp, 96
.Ltmp356:                               # EH_LABEL
	move	$a0, $s0
	pcaddu18i	$ra, %call36(_ZN17CBaseRecordVector5ClearEv)
	jirl	$ra, $ra, 0
.Ltmp357:                               # EH_LABEL
# %bb.2:                                # %_ZN13CObjectVectorIN8NArchive3N7z7CFolderEED2Ev.exit
	move	$a0, $s0
	pcaddu18i	$ra, %call36(_ZN17CBaseRecordVectorD2Ev)
	jirl	$ra, $ra, 0
	addi.d	$a0, $fp, 64
	pcaddu18i	$ra, %call36(_ZN17CBaseRecordVectorD2Ev)
	jirl	$ra, $ra, 0
	addi.d	$a0, $fp, 32
	pcaddu18i	$ra, %call36(_ZN17CBaseRecordVectorD2Ev)
	jirl	$ra, $ra, 0
	move	$a0, $fp
	ld.d	$s0, $sp, 8                     # 8-byte Folded Reload
	ld.d	$fp, $sp, 16                    # 8-byte Folded Reload
	ld.d	$ra, $sp, 24                    # 8-byte Folded Reload
	addi.d	$sp, $sp, 32
	pcaddu18i	$t8, %call36(_ZN17CBaseRecordVectorD2Ev)
	jr	$t8
.LBB39_3:                               # %terminate.lpad.i4
.Ltmp358:                               # EH_LABEL
	pcaddu18i	$ra, %call36(__clang_call_terminate)
	jirl	$ra, $ra, 0
.LBB39_4:                               # %terminate.lpad.i
.Ltmp355:                               # EH_LABEL
	pcaddu18i	$ra, %call36(__clang_call_terminate)
	jirl	$ra, $ra, 0
.Lfunc_end39:
	.size	_ZN8NArchive3N7z16CArchiveDatabaseD2Ev, .Lfunc_end39-_ZN8NArchive3N7z16CArchiveDatabaseD2Ev
	.cfi_endproc
	.section	.gcc_except_table._ZN8NArchive3N7z16CArchiveDatabaseD2Ev,"aG",@progbits,_ZN8NArchive3N7z16CArchiveDatabaseD2Ev,comdat
	.p2align	2, 0x0
GCC_except_table39:
.Lexception15:
	.byte	255                             # @LPStart Encoding = omit
	.byte	155                             # @TType Encoding = indirect pcrel sdata4
	.uleb128 .Lttbase14-.Lttbaseref14
.Lttbaseref14:
	.byte	1                               # Call site Encoding = uleb128
	.uleb128 .Lcst_end15-.Lcst_begin15
.Lcst_begin15:
	.uleb128 .Lfunc_begin15-.Lfunc_begin15  # >> Call Site 1 <<
	.uleb128 .Ltmp353-.Lfunc_begin15        #   Call between .Lfunc_begin15 and .Ltmp353
	.byte	0                               #     has no landing pad
	.byte	0                               #   On action: cleanup
	.uleb128 .Ltmp353-.Lfunc_begin15        # >> Call Site 2 <<
	.uleb128 .Ltmp354-.Ltmp353              #   Call between .Ltmp353 and .Ltmp354
	.uleb128 .Ltmp355-.Lfunc_begin15        #     jumps to .Ltmp355
	.byte	1                               #   On action: 1
	.uleb128 .Ltmp354-.Lfunc_begin15        # >> Call Site 3 <<
	.uleb128 .Ltmp356-.Ltmp354              #   Call between .Ltmp354 and .Ltmp356
	.byte	0                               #     has no landing pad
	.byte	0                               #   On action: cleanup
	.uleb128 .Ltmp356-.Lfunc_begin15        # >> Call Site 4 <<
	.uleb128 .Ltmp357-.Ltmp356              #   Call between .Ltmp356 and .Ltmp357
	.uleb128 .Ltmp358-.Lfunc_begin15        #     jumps to .Ltmp358
	.byte	1                               #   On action: 1
	.uleb128 .Ltmp357-.Lfunc_begin15        # >> Call Site 5 <<
	.uleb128 .Lfunc_end39-.Ltmp357          #   Call between .Ltmp357 and .Lfunc_end39
	.byte	0                               #     has no landing pad
	.byte	0                               #   On action: cleanup
.Lcst_end15:
	.byte	1                               # >> Action Record 1 <<
                                        #   Catch TypeInfo 1
	.byte	0                               #   No further actions
	.p2align	2, 0x0
                                        # >> Catch TypeInfos <<
	.word	0                               # TypeInfo 1
.Lttbase14:
	.p2align	2, 0x0
                                        # -- End function
	.section	.text._ZN13CObjectVectorIN8NArchive3N7z9CFileItemEED2Ev,"axG",@progbits,_ZN13CObjectVectorIN8NArchive3N7z9CFileItemEED2Ev,comdat
	.weak	_ZN13CObjectVectorIN8NArchive3N7z9CFileItemEED2Ev # -- Begin function _ZN13CObjectVectorIN8NArchive3N7z9CFileItemEED2Ev
	.p2align	2
	.type	_ZN13CObjectVectorIN8NArchive3N7z9CFileItemEED2Ev,@function
