	.file	"7zIn.cpp"
	.text
	.globl	_ZNK8NArchive3N7z7CFolder14CheckStructureEv # -- Begin function _ZNK8NArchive3N7z7CFolder14CheckStructureEv
	.p2align	2
	.type	_ZNK8NArchive3N7z7CFolder14CheckStructureEv,@function
_ZNK8NArchive3N7z7CFolder14CheckStructureEv: # @_ZNK8NArchive3N7z7CFolder14CheckStructureEv
.Lfunc_begin0:
	.cfi_startproc
	.cfi_personality 155, DW.ref.__gxx_personality_v0
	.cfi_lsda 27, .Lexception0
# %bb.0:                                # %entry
	addi.d	$sp, $sp, -272
	.cfi_def_cfa_offset 272
	st.d	$ra, $sp, 264                   # 8-byte Folded Spill
	st.d	$fp, $sp, 256                   # 8-byte Folded Spill
	st.d	$s0, $sp, 248                   # 8-byte Folded Spill
	st.d	$s1, $sp, 240                   # 8-byte Folded Spill
	st.d	$s2, $sp, 232                   # 8-byte Folded Spill
	.cfi_offset 1, -8
	.cfi_offset 22, -16
	.cfi_offset 23, -24
	.cfi_offset 24, -32
	.cfi_offset 25, -40
	move	$fp, $a0
	ld.w	$a1, $a0, 12
	ori	$a0, $zero, 32
	blt	$a0, $a1, .LBB0_39
# %bb.1:                                # %lor.lhs.false
	ld.w	$s0, $fp, 44
	blt	$a0, $s0, .LBB0_39
# %bb.2:                                # %if.end
	vrepli.b	$vr0, 0
	vst	$vr0, $sp, 16                   # 16-byte Folded Spill
	vst	$vr0, $sp, 112
	ori	$a0, $zero, 1
	st.d	$a0, $sp, 128
	ld.w	$s1, $fp, 76
	pcalau12i	$a0, %pc_hi20(_ZTV13CRecordVectorIbE+16)
	addi.d	$a0, $a0, %pc_lo12(_ZTV13CRecordVectorIbE+16)
	st.d	$a0, $sp, 104
.Ltmp0:                                 # EH_LABEL
	addi.d	$a0, $sp, 104
	pcaddu18i	$ra, %call36(_ZN17CBaseRecordVector5ClearEv)
	jirl	$ra, $ra, 0
.Ltmp1:                                 # EH_LABEL
# %bb.3:                                # %.noexc
.Ltmp2:                                 # EH_LABEL
	add.w	$s0, $s1, $s0
	addi.d	$a0, $sp, 104
	move	$a1, $s0
	pcaddu18i	$ra, %call36(_ZN17CBaseRecordVector7ReserveEi)
	jirl	$ra, $ra, 0
.Ltmp3:                                 # EH_LABEL
# %bb.4:                                # %.noexc46
	ori	$s1, $zero, 1
	blt	$s0, $s1, .LBB0_7
	.p2align	4, , 16
.LBB0_5:                                # %for.body.i
                                        # =>This Inner Loop Header: Depth=1
.Ltmp5:                                 # EH_LABEL
	addi.d	$a0, $sp, 104
	pcaddu18i	$ra, %call36(_ZN17CBaseRecordVector18ReserveOnePositionEv)
	jirl	$ra, $ra, 0
.Ltmp6:                                 # EH_LABEL
# %bb.6:                                # %.noexc47
                                        #   in Loop: Header=BB0_5 Depth=1
	ld.d	$a0, $sp, 120
	ld.w	$a1, $sp, 116
	stx.b	$zero, $a0, $a1
	addi.d	$a0, $a1, 1
	addi.w	$s0, $s0, -1
	st.w	$a0, $sp, 116
	bnez	$s0, .LBB0_5
.LBB0_7:                                # %_ZN8NArchive3N7zL21BoolVector_Fill_FalseER13CRecordVectorIbEi.exit
	ld.w	$a0, $fp, 44
	blt	$a0, $s1, .LBB0_12
# %bb.8:                                # %for.body.lr.ph
	ld.d	$a1, $fp, 48
	ld.w	$a2, $sp, 116
	ori	$a3, $zero, 1
	.p2align	4, , 16
.LBB0_9:                                # %for.body
                                        # =>This Inner Loop Header: Depth=1
	ld.w	$a4, $a1, 0
	bgeu	$a4, $a2, .LBB0_38
# %bb.10:                               # %invoke.cont17
                                        #   in Loop: Header=BB0_9 Depth=1
	ld.d	$a5, $sp, 120
	ldx.bu	$a6, $a5, $a4
	stx.b	$a3, $a5, $a4
	bnez	$a6, .LBB0_38
# %bb.11:                               # %for.cond
                                        #   in Loop: Header=BB0_9 Depth=1
	addi.d	$a0, $a0, -1
	addi.d	$a1, $a1, 8
	bnez	$a0, .LBB0_9
.LBB0_12:                               # %for.cond21.preheader
	ld.w	$a0, $fp, 76
	ori	$a1, $zero, 1
	blt	$a0, $a1, .LBB0_17
# %bb.13:                               # %for.body26.lr.ph
	ld.d	$a2, $fp, 80
	ld.w	$a3, $sp, 116
	.p2align	4, , 16
.LBB0_14:                               # %for.body26
                                        # =>This Inner Loop Header: Depth=1
	ld.w	$a4, $a2, 0
	bgeu	$a4, $a3, .LBB0_38
# %bb.15:                               # %invoke.cont30
                                        #   in Loop: Header=BB0_14 Depth=1
	ld.d	$a5, $sp, 120
	ldx.bu	$a6, $a5, $a4
	stx.b	$a1, $a5, $a4
	bnez	$a6, .LBB0_38
# %bb.16:                               # %for.cond21
                                        #   in Loop: Header=BB0_14 Depth=1
	addi.d	$a0, $a0, -1
	addi.d	$a2, $a2, 4
	bnez	$a0, .LBB0_14
.LBB0_17:                               # %for.end36
	ld.w	$s0, $fp, 108
.Ltmp8:                                 # EH_LABEL
	addi.d	$a0, $sp, 104
	pcaddu18i	$ra, %call36(_ZN17CBaseRecordVector5ClearEv)
	jirl	$ra, $ra, 0
.Ltmp9:                                 # EH_LABEL
# %bb.18:                               # %.noexc74
.Ltmp10:                                # EH_LABEL
	addi.d	$a0, $sp, 104
	move	$a1, $s0
	pcaddu18i	$ra, %call36(_ZN17CBaseRecordVector7ReserveEi)
	jirl	$ra, $ra, 0
.Ltmp11:                                # EH_LABEL
# %bb.19:                               # %.noexc75
	ori	$s1, $zero, 1
	blt	$s0, $s1, .LBB0_22
	.p2align	4, , 16
.LBB0_20:                               # %for.body.i67
                                        # =>This Inner Loop Header: Depth=1
.Ltmp13:                                # EH_LABEL
	addi.d	$a0, $sp, 104
	pcaddu18i	$ra, %call36(_ZN17CBaseRecordVector18ReserveOnePositionEv)
	jirl	$ra, $ra, 0
.Ltmp14:                                # EH_LABEL
# %bb.21:                               # %.noexc76
                                        #   in Loop: Header=BB0_20 Depth=1
	ld.d	$a0, $sp, 120
	ld.w	$a1, $sp, 116
	stx.b	$zero, $a0, $a1
	addi.d	$a0, $a1, 1
	addi.w	$s0, $s0, -1
	st.w	$a0, $sp, 116
	bnez	$s0, .LBB0_20
.LBB0_22:                               # %_ZN8NArchive3N7zL21BoolVector_Fill_FalseER13CRecordVectorIbEi.exit77
	ld.w	$a0, $fp, 44
	blt	$a0, $s1, .LBB0_27
# %bb.23:                               # %for.body45.lr.ph
	ld.d	$a2, $fp, 48
	ld.w	$a1, $sp, 116
	addi.d	$a2, $a2, 4
	ori	$a3, $zero, 1
	.p2align	4, , 16
.LBB0_24:                               # %for.body45
                                        # =>This Inner Loop Header: Depth=1
	ld.w	$a4, $a2, 0
	bgeu	$a4, $a1, .LBB0_38
# %bb.25:                               # %invoke.cont49
                                        #   in Loop: Header=BB0_24 Depth=1
	ld.d	$a5, $sp, 120
	ldx.bu	$a6, $a5, $a4
	stx.b	$a3, $a5, $a4
	bnez	$a6, .LBB0_38
# %bb.26:                               # %for.cond40
                                        #   in Loop: Header=BB0_24 Depth=1
	addi.d	$a0, $a0, -1
	addi.d	$a2, $a2, 8
	bnez	$a0, .LBB0_24
.LBB0_27:                               # %cleanup
	addi.d	$a0, $sp, 104
	pcaddu18i	$ra, %call36(_ZN17CBaseRecordVectorD2Ev)
	jirl	$ra, $ra, 0
	addi.d	$a0, $sp, 104
	ori	$a2, $zero, 128
	move	$a1, $zero
	pcaddu18i	$ra, %call36(memset)
	jirl	$ra, $ra, 0
	vld	$vr0, $sp, 16                   # 16-byte Folded Reload
	vst	$vr0, $sp, 80
	ori	$a0, $zero, 4
	st.d	$a0, $sp, 96
	pcalau12i	$a1, %pc_hi20(_ZTV13CRecordVectorIiE+16)
	addi.d	$a1, $a1, %pc_lo12(_ZTV13CRecordVectorIiE+16)
	ld.w	$a2, $fp, 12
	st.d	$a1, $sp, 72
	vst	$vr0, $sp, 48
	st.d	$a0, $sp, 64
	st.d	$a1, $sp, 40
	blez	$a2, .LBB0_41
# %bb.28:                               # %for.body74.lr.ph
	move	$s0, $zero
	b	.LBB0_30
	.p2align	4, , 16
.LBB0_29:                               # %for.end94
                                        #   in Loop: Header=BB0_30 Depth=1
	ld.w	$a0, $fp, 12
	addi.d	$s0, $s0, 1
	bge	$s0, $a0, .LBB0_41
.LBB0_30:                               # %for.body74
                                        # =>This Loop Header: Depth=1
                                        #     Child Loop BB0_32 Depth 2
                                        #     Child Loop BB0_36 Depth 2
	ld.d	$a0, $fp, 16
	slli.d	$a1, $s0, 3
	ldx.d	$s1, $a0, $a1
	ld.w	$a0, $s1, 32
	beqz	$a0, .LBB0_34
# %bb.31:                               # %for.body81.preheader
                                        #   in Loop: Header=BB0_30 Depth=1
	move	$s2, $zero
	.p2align	4, , 16
.LBB0_32:                               # %for.body81
                                        #   Parent Loop BB0_30 Depth=1
                                        # =>  This Inner Loop Header: Depth=2
.Ltmp16:                                # EH_LABEL
	addi.d	$a0, $sp, 72
	pcaddu18i	$ra, %call36(_ZN17CBaseRecordVector18ReserveOnePositionEv)
	jirl	$ra, $ra, 0
.Ltmp17:                                # EH_LABEL
# %bb.33:                               # %for.inc84
                                        #   in Loop: Header=BB0_32 Depth=2
	ld.w	$a0, $sp, 84
	ld.d	$a1, $sp, 88
	slli.d	$a0, $a0, 2
	stx.w	$s0, $a1, $a0
	ld.w	$a0, $sp, 84
	ld.w	$a1, $s1, 32
	addi.d	$a0, $a0, 1
	addi.w	$s2, $s2, 1
	st.w	$a0, $sp, 84
	bltu	$s2, $a1, .LBB0_32
.LBB0_34:                               # %for.cond87.preheader
                                        #   in Loop: Header=BB0_30 Depth=1
	ld.w	$a0, $s1, 36
	beqz	$a0, .LBB0_29
# %bb.35:                               # %for.body89.preheader
                                        #   in Loop: Header=BB0_30 Depth=1
	move	$s2, $zero
	.p2align	4, , 16
.LBB0_36:                               # %for.body89
                                        #   Parent Loop BB0_30 Depth=1
                                        # =>  This Inner Loop Header: Depth=2
.Ltmp19:                                # EH_LABEL
	addi.d	$a0, $sp, 40
	pcaddu18i	$ra, %call36(_ZN17CBaseRecordVector18ReserveOnePositionEv)
	jirl	$ra, $ra, 0
.Ltmp20:                                # EH_LABEL
# %bb.37:                               # %for.inc92
                                        #   in Loop: Header=BB0_36 Depth=2
	ld.w	$a0, $sp, 52
	ld.d	$a1, $sp, 56
	slli.d	$a0, $a0, 2
	stx.w	$s0, $a1, $a0
	ld.w	$a0, $sp, 52
	ld.w	$a1, $s1, 36
	addi.d	$a0, $a0, 1
	addi.w	$s2, $s2, 1
	st.w	$a0, $sp, 52
	bltu	$s2, $a1, .LBB0_36
	b	.LBB0_29
.LBB0_38:                               # %cleanup168.critedge
	addi.d	$a0, $sp, 104
	pcaddu18i	$ra, %call36(_ZN17CBaseRecordVectorD2Ev)
	jirl	$ra, $ra, 0
.LBB0_39:                               # %cleanup168
	move	$a0, $zero
.LBB0_40:                               # %cleanup168
	ld.d	$s2, $sp, 232                   # 8-byte Folded Reload
	ld.d	$s1, $sp, 240                   # 8-byte Folded Reload
	ld.d	$s0, $sp, 248                   # 8-byte Folded Reload
	ld.d	$fp, $sp, 256                   # 8-byte Folded Reload
	ld.d	$ra, $sp, 264                   # 8-byte Folded Reload
	addi.d	$sp, $sp, 272
	ret
.LBB0_41:                               # %for.cond100.preheader
	ld.w	$a0, $fp, 44
	ori	$a1, $zero, 1
	blt	$a0, $a1, .LBB0_44
# %bb.42:                               # %for.body105.lr.ph
	ld.d	$a4, $fp, 48
	ld.d	$a2, $sp, 56
	ld.d	$a3, $sp, 88
	addi.d	$a4, $a4, 4
	addi.d	$a5, $sp, 104
	.p2align	4, , 16
.LBB0_43:                               # %for.body105
                                        # =>This Inner Loop Header: Depth=1
	ld.w	$a6, $a4, -4
	ld.w	$a7, $a4, 0
	slli.d	$a6, $a6, 2
	ldx.w	$a6, $a3, $a6
	slli.d	$a7, $a7, 2
	ldx.wu	$a7, $a2, $a7
	slli.d	$a6, $a6, 2
	ldx.w	$t0, $a6, $a5
	sll.w	$a7, $a1, $a7
	or	$a7, $t0, $a7
	stx.w	$a7, $a6, $a5
	addi.d	$a0, $a0, -1
	addi.d	$a4, $a4, 8
	bnez	$a0, .LBB0_43
.LBB0_44:                               # %for.end121
	addi.d	$a0, $sp, 40
	pcaddu18i	$ra, %call36(_ZN17CBaseRecordVectorD2Ev)
	jirl	$ra, $ra, 0
	addi.d	$a0, $sp, 72
	pcaddu18i	$ra, %call36(_ZN17CBaseRecordVectorD2Ev)
	jirl	$ra, $ra, 0
	move	$a0, $zero
	addi.d	$a1, $sp, 104
	ori	$a2, $zero, 128
	ori	$a3, $zero, 32
	b	.LBB0_46
	.p2align	4, , 16
.LBB0_45:                               # %for.cond.cleanup
                                        #   in Loop: Header=BB0_46 Depth=1
	addi.d	$a0, $a0, 1
	beq	$a0, $a3, .LBB0_50
.LBB0_46:                               # %for.cond130.preheader
                                        # =>This Loop Header: Depth=1
                                        #     Child Loop BB0_48 Depth 2
	slli.d	$a4, $a0, 2
	ldx.w	$a4, $a4, $a1
	move	$a5, $zero
	move	$a6, $zero
	alsl.d	$a7, $a0, $a1, 2
	b	.LBB0_48
	.p2align	4, , 16
.LBB0_47:                               # %for.inc144
                                        #   in Loop: Header=BB0_48 Depth=2
	addi.d	$a5, $a5, 4
	addi.d	$a6, $a6, 1
	beq	$a5, $a2, .LBB0_45
.LBB0_48:                               # %for.body132
                                        #   Parent Loop BB0_46 Depth=1
                                        # =>  This Inner Loop Header: Depth=2
	srl.w	$t0, $a4, $a6
	andi	$t0, $t0, 1
	beqz	$t0, .LBB0_47
# %bb.49:                               # %if.then137
                                        #   in Loop: Header=BB0_48 Depth=2
	ldx.w	$t0, $a5, $a1
	or	$a4, $t0, $a4
	st.w	$a4, $a7, 0
	b	.LBB0_47
.LBB0_50:                               # %for.body153.preheader
	ld.bu	$a0, $sp, 104
	andi	$a0, $a0, 1
	bnez	$a0, .LBB0_39
# %bb.51:                               # %for.cond151
	ld.bu	$a0, $sp, 108
	andi	$a0, $a0, 2
	bnez	$a0, .LBB0_39
# %bb.52:                               # %for.cond151.1
	ld.bu	$a0, $sp, 112
	andi	$a0, $a0, 4
	bnez	$a0, .LBB0_39
# %bb.53:                               # %for.cond151.2
	ld.bu	$a0, $sp, 116
	andi	$a0, $a0, 8
	bnez	$a0, .LBB0_39
# %bb.54:                               # %for.cond151.3
	ld.bu	$a0, $sp, 120
	andi	$a0, $a0, 16
	bnez	$a0, .LBB0_39
# %bb.55:                               # %for.cond151.4
	ld.bu	$a0, $sp, 124
	andi	$a0, $a0, 32
	bnez	$a0, .LBB0_39
# %bb.56:                               # %for.cond151.5
	ld.bu	$a0, $sp, 128
	andi	$a0, $a0, 64
	bnez	$a0, .LBB0_39
# %bb.57:                               # %for.cond151.6
	ld.bu	$a0, $sp, 132
	andi	$a0, $a0, 128
	bnez	$a0, .LBB0_39
# %bb.58:                               # %for.cond151.7
	ld.bu	$a0, $sp, 137
	andi	$a0, $a0, 1
	bnez	$a0, .LBB0_39
# %bb.59:                               # %for.cond151.8
	ld.bu	$a0, $sp, 141
	andi	$a0, $a0, 2
	bnez	$a0, .LBB0_39
# %bb.60:                               # %for.cond151.9
	ld.bu	$a0, $sp, 145
	andi	$a0, $a0, 4
	bnez	$a0, .LBB0_39
# %bb.61:                               # %for.cond151.10
	ld.bu	$a0, $sp, 149
	andi	$a0, $a0, 8
	bnez	$a0, .LBB0_39
# %bb.62:                               # %for.cond151.11
	ld.bu	$a0, $sp, 153
	andi	$a0, $a0, 16
	bnez	$a0, .LBB0_39
# %bb.63:                               # %for.cond151.12
	ld.bu	$a0, $sp, 157
	andi	$a0, $a0, 32
	bnez	$a0, .LBB0_39
# %bb.64:                               # %for.cond151.13
	ld.bu	$a0, $sp, 161
	andi	$a0, $a0, 64
	bnez	$a0, .LBB0_39
# %bb.65:                               # %for.cond151.14
	ld.bu	$a0, $sp, 165
	andi	$a0, $a0, 128
	bnez	$a0, .LBB0_39
# %bb.66:                               # %for.cond151.15
	ld.bu	$a0, $sp, 170
	andi	$a0, $a0, 1
	bnez	$a0, .LBB0_39
# %bb.67:                               # %for.cond151.16
	ld.bu	$a0, $sp, 174
	andi	$a0, $a0, 2
	bnez	$a0, .LBB0_39
# %bb.68:                               # %for.cond151.17
	ld.bu	$a0, $sp, 178
	andi	$a0, $a0, 4
	bnez	$a0, .LBB0_39
# %bb.69:                               # %for.cond151.18
	ld.bu	$a0, $sp, 182
	andi	$a0, $a0, 8
	bnez	$a0, .LBB0_39
# %bb.70:                               # %for.cond151.19
	ld.bu	$a0, $sp, 186
	andi	$a0, $a0, 16
	bnez	$a0, .LBB0_39
# %bb.71:                               # %for.cond151.20
	ld.bu	$a0, $sp, 190
	andi	$a0, $a0, 32
	bnez	$a0, .LBB0_39
# %bb.72:                               # %for.cond151.21
	ld.bu	$a0, $sp, 194
	andi	$a0, $a0, 64
	bnez	$a0, .LBB0_39
# %bb.73:                               # %for.cond151.22
	ld.bu	$a0, $sp, 198
	andi	$a0, $a0, 128
	bnez	$a0, .LBB0_39
# %bb.74:                               # %for.cond151.23
	ld.bu	$a0, $sp, 203
	andi	$a0, $a0, 1
	bnez	$a0, .LBB0_39
# %bb.75:                               # %for.cond151.24
	ld.bu	$a0, $sp, 207
	andi	$a0, $a0, 2
	bnez	$a0, .LBB0_39
# %bb.76:                               # %for.cond151.25
	ld.bu	$a0, $sp, 211
	andi	$a0, $a0, 4
	bnez	$a0, .LBB0_39
# %bb.77:                               # %for.cond151.26
	ld.bu	$a0, $sp, 215
	andi	$a0, $a0, 8
	bnez	$a0, .LBB0_39
# %bb.78:                               # %for.cond151.27
	ld.bu	$a0, $sp, 219
	andi	$a0, $a0, 16
	bnez	$a0, .LBB0_39
# %bb.79:                               # %for.cond151.28
	ld.bu	$a0, $sp, 223
	andi	$a0, $a0, 32
	bnez	$a0, .LBB0_39
# %bb.80:                               # %for.cond151.29
	ld.bu	$a0, $sp, 227
	ld.w	$a1, $sp, 228
	andi	$a0, $a0, 64
	sltui	$a0, $a0, 1
	addi.w	$a2, $zero, -1
	slt	$a1, $a2, $a1
	and	$a0, $a0, $a1
	b	.LBB0_40
.LBB0_81:                               # %lpad10.loopexit.split-lp
.Ltmp12:                                # EH_LABEL
	b	.LBB0_85
.LBB0_82:                               # %lpad.loopexit.split-lp129
.Ltmp4:                                 # EH_LABEL
	b	.LBB0_85
.LBB0_83:                               # %lpad10.loopexit
.Ltmp15:                                # EH_LABEL
	b	.LBB0_85
.LBB0_84:                               # %lpad.loopexit128
.Ltmp7:                                 # EH_LABEL
.LBB0_85:                               # %ehcleanup
	move	$fp, $a0
	addi.d	$a0, $sp, 104
	pcaddu18i	$ra, %call36(_ZN17CBaseRecordVectorD2Ev)
	jirl	$ra, $ra, 0
	move	$a0, $fp
	pcaddu18i	$ra, %call36(_Unwind_Resume)
	jirl	$ra, $ra, 0
.LBB0_86:                               # %lpad76.loopexit
.Ltmp21:                                # EH_LABEL
	b	.LBB0_88
.LBB0_87:                               # %lpad76.loopexit.split-lp
.Ltmp18:                                # EH_LABEL
.LBB0_88:                               # %lpad76
	move	$fp, $a0
	addi.d	$a0, $sp, 40
	pcaddu18i	$ra, %call36(_ZN17CBaseRecordVectorD2Ev)
	jirl	$ra, $ra, 0
	addi.d	$a0, $sp, 72
	pcaddu18i	$ra, %call36(_ZN17CBaseRecordVectorD2Ev)
	jirl	$ra, $ra, 0
	move	$a0, $fp
	pcaddu18i	$ra, %call36(_Unwind_Resume)
	jirl	$ra, $ra, 0
.Lfunc_end0:
	.size	_ZNK8NArchive3N7z7CFolder14CheckStructureEv, .Lfunc_end0-_ZNK8NArchive3N7z7CFolder14CheckStructureEv
	.cfi_endproc
	.section	.gcc_except_table,"a",@progbits
	.p2align	2, 0x0
GCC_except_table0:
.Lexception0:
	.byte	255                             # @LPStart Encoding = omit
	.byte	255                             # @TType Encoding = omit
	.byte	1                               # Call site Encoding = uleb128
	.uleb128 .Lcst_end0-.Lcst_begin0
.Lcst_begin0:
	.uleb128 .Ltmp0-.Lfunc_begin0           # >> Call Site 1 <<
	.uleb128 .Ltmp3-.Ltmp0                  #   Call between .Ltmp0 and .Ltmp3
	.uleb128 .Ltmp4-.Lfunc_begin0           #     jumps to .Ltmp4
	.byte	0                               #   On action: cleanup
	.uleb128 .Ltmp5-.Lfunc_begin0           # >> Call Site 2 <<
	.uleb128 .Ltmp6-.Ltmp5                  #   Call between .Ltmp5 and .Ltmp6
	.uleb128 .Ltmp7-.Lfunc_begin0           #     jumps to .Ltmp7
	.byte	0                               #   On action: cleanup
	.uleb128 .Ltmp8-.Lfunc_begin0           # >> Call Site 3 <<
	.uleb128 .Ltmp11-.Ltmp8                 #   Call between .Ltmp8 and .Ltmp11
	.uleb128 .Ltmp12-.Lfunc_begin0          #     jumps to .Ltmp12
	.byte	0                               #   On action: cleanup
	.uleb128 .Ltmp13-.Lfunc_begin0          # >> Call Site 4 <<
	.uleb128 .Ltmp14-.Ltmp13                #   Call between .Ltmp13 and .Ltmp14
	.uleb128 .Ltmp15-.Lfunc_begin0          #     jumps to .Ltmp15
	.byte	0                               #   On action: cleanup
	.uleb128 .Ltmp14-.Lfunc_begin0          # >> Call Site 5 <<
	.uleb128 .Ltmp16-.Ltmp14                #   Call between .Ltmp14 and .Ltmp16
	.byte	0                               #     has no landing pad
	.byte	0                               #   On action: cleanup
	.uleb128 .Ltmp16-.Lfunc_begin0          # >> Call Site 6 <<
	.uleb128 .Ltmp17-.Ltmp16                #   Call between .Ltmp16 and .Ltmp17
	.uleb128 .Ltmp18-.Lfunc_begin0          #     jumps to .Ltmp18
	.byte	0                               #   On action: cleanup
	.uleb128 .Ltmp19-.Lfunc_begin0          # >> Call Site 7 <<
	.uleb128 .Ltmp20-.Ltmp19                #   Call between .Ltmp19 and .Ltmp20
	.uleb128 .Ltmp21-.Lfunc_begin0          #     jumps to .Ltmp21
	.byte	0                               #   On action: cleanup
	.uleb128 .Ltmp20-.Lfunc_begin0          # >> Call Site 8 <<
	.uleb128 .Lfunc_end0-.Ltmp20            #   Call between .Ltmp20 and .Lfunc_end0
	.byte	0                               #     has no landing pad
	.byte	0                               #   On action: cleanup
.Lcst_end0:
	.p2align	2, 0x0
                                        # -- End function
	.text
	.globl	_ZN8NArchive3N7z13CStreamSwitch6RemoveEv # -- Begin function _ZN8NArchive3N7z13CStreamSwitch6RemoveEv
	.p2align	2
	.type	_ZN8NArchive3N7z13CStreamSwitch6RemoveEv,@function
_ZN8NArchive3N7z13CStreamSwitch6RemoveEv: # @_ZN8NArchive3N7z13CStreamSwitch6RemoveEv
	.cfi_startproc
# %bb.0:                                # %entry
	addi.d	$sp, $sp, -32
	.cfi_def_cfa_offset 32
	st.d	$ra, $sp, 24                    # 8-byte Folded Spill
	st.d	$fp, $sp, 16                    # 8-byte Folded Spill
	st.d	$s0, $sp, 8                     # 8-byte Folded Spill
	.cfi_offset 1, -8
	.cfi_offset 22, -16
	.cfi_offset 23, -24
	move	$fp, $a0
	ld.bu	$a0, $a0, 8
	ori	$a1, $zero, 1
	bne	$a0, $a1, .LBB1_4
# %bb.1:                                # %if.then
	ld.d	$s0, $fp, 0
	addi.d	$a0, $s0, 8
	pcaddu18i	$ra, %call36(_ZN17CBaseRecordVector10DeleteBackEv)
	jirl	$ra, $ra, 0
	ld.w	$a0, $s0, 20
	beqz	$a0, .LBB1_3
# %bb.2:                                # %if.then.i
	ld.d	$a1, $s0, 24
	alsl.d	$a0, $a0, $a1, 3
	ld.d	$a0, $a0, -8
	st.d	$a0, $s0, 40
.LBB1_3:                                # %_ZN8NArchive3N7z10CInArchive16DeleteByteStreamEv.exit
	st.b	$zero, $fp, 8
.LBB1_4:                                # %if.end
	ld.d	$s0, $sp, 8                     # 8-byte Folded Reload
	ld.d	$fp, $sp, 16                    # 8-byte Folded Reload
	ld.d	$ra, $sp, 24                    # 8-byte Folded Reload
	addi.d	$sp, $sp, 32
	ret
.Lfunc_end1:
	.size	_ZN8NArchive3N7z13CStreamSwitch6RemoveEv, .Lfunc_end1-_ZN8NArchive3N7z13CStreamSwitch6RemoveEv
	.cfi_endproc
                                        # -- End function
	.globl	_ZN8NArchive3N7z13CStreamSwitch3SetEPNS0_10CInArchiveEPKhm # -- Begin function _ZN8NArchive3N7z13CStreamSwitch3SetEPNS0_10CInArchiveEPKhm
	.p2align	2
	.type	_ZN8NArchive3N7z13CStreamSwitch3SetEPNS0_10CInArchiveEPKhm,@function
_ZN8NArchive3N7z13CStreamSwitch3SetEPNS0_10CInArchiveEPKhm: # @_ZN8NArchive3N7z13CStreamSwitch3SetEPNS0_10CInArchiveEPKhm
	.cfi_startproc
# %bb.0:                                # %entry
	addi.d	$sp, $sp, -80
	.cfi_def_cfa_offset 80
	st.d	$ra, $sp, 72                    # 8-byte Folded Spill
	st.d	$fp, $sp, 64                    # 8-byte Folded Spill
	st.d	$s0, $sp, 56                    # 8-byte Folded Spill
	st.d	$s1, $sp, 48                    # 8-byte Folded Spill
	st.d	$s2, $sp, 40                    # 8-byte Folded Spill
	st.d	$s3, $sp, 32                    # 8-byte Folded Spill
	st.d	$s4, $sp, 24                    # 8-byte Folded Spill
	st.d	$s5, $sp, 16                    # 8-byte Folded Spill
	.cfi_offset 1, -8
	.cfi_offset 22, -16
	.cfi_offset 23, -24
	.cfi_offset 24, -32
	.cfi_offset 25, -40
	.cfi_offset 26, -48
	.cfi_offset 27, -56
	.cfi_offset 28, -64
	move	$fp, $a0
	ld.bu	$a0, $a0, 8
	ori	$s5, $zero, 1
	move	$s0, $a3
	move	$s1, $a2
	move	$s2, $a1
	bne	$a0, $s5, .LBB2_4
# %bb.1:                                # %if.then.i
	ld.d	$s3, $fp, 0
	addi.d	$a0, $s3, 8
	pcaddu18i	$ra, %call36(_ZN17CBaseRecordVector10DeleteBackEv)
	jirl	$ra, $ra, 0
	ld.w	$a0, $s3, 20
	beqz	$a0, .LBB2_3
# %bb.2:                                # %if.then.i.i
	ld.d	$a1, $s3, 24
	alsl.d	$a0, $a0, $a1, 3
	ld.d	$a0, $a0, -8
	st.d	$a0, $s3, 40
.LBB2_3:                                # %_ZN8NArchive3N7z10CInArchive16DeleteByteStreamEv.exit.i
	st.b	$zero, $fp, 8
.LBB2_4:                                # %_ZN8NArchive3N7z13CStreamSwitch6RemoveEv.exit
	st.d	$s2, $fp, 0
	addi.d	$s3, $s2, 8
	ori	$a0, $zero, 24
	pcaddu18i	$ra, %call36(_Znwm)
	jirl	$ra, $ra, 0
	move	$s4, $a0
	st.d	$zero, $a0, 0
	vrepli.b	$vr0, 0
	vst	$vr0, $a0, 8
	move	$a0, $s3
	pcaddu18i	$ra, %call36(_ZN17CBaseRecordVector18ReserveOnePositionEv)
	jirl	$ra, $ra, 0
	ld.w	$a0, $s2, 20
	ld.d	$a1, $s2, 24
	slli.d	$a2, $a0, 3
	stx.d	$s4, $a1, $a2
	ld.d	$a1, $s2, 24
	addi.w	$a0, $a0, 1
	alsl.d	$a1, $a0, $a1, 3
	ld.d	$a1, $a1, -8
	st.w	$a0, $s2, 20
	st.d	$a1, $s2, 40
	st.d	$s1, $a1, 0
	st.d	$s0, $a1, 8
	st.d	$zero, $a1, 16
	st.b	$s5, $fp, 8
	ld.d	$s5, $sp, 16                    # 8-byte Folded Reload
	ld.d	$s4, $sp, 24                    # 8-byte Folded Reload
	ld.d	$s3, $sp, 32                    # 8-byte Folded Reload
	ld.d	$s2, $sp, 40                    # 8-byte Folded Reload
	ld.d	$s1, $sp, 48                    # 8-byte Folded Reload
	ld.d	$s0, $sp, 56                    # 8-byte Folded Reload
	ld.d	$fp, $sp, 64                    # 8-byte Folded Reload
	ld.d	$ra, $sp, 72                    # 8-byte Folded Reload
	addi.d	$sp, $sp, 80
	ret
.Lfunc_end2:
	.size	_ZN8NArchive3N7z13CStreamSwitch3SetEPNS0_10CInArchiveEPKhm, .Lfunc_end2-_ZN8NArchive3N7z13CStreamSwitch3SetEPNS0_10CInArchiveEPKhm
	.cfi_endproc
                                        # -- End function
	.globl	_ZN8NArchive3N7z13CStreamSwitch3SetEPNS0_10CInArchiveERK7CBufferIhE # -- Begin function _ZN8NArchive3N7z13CStreamSwitch3SetEPNS0_10CInArchiveERK7CBufferIhE
	.p2align	2
	.type	_ZN8NArchive3N7z13CStreamSwitch3SetEPNS0_10CInArchiveERK7CBufferIhE,@function
_ZN8NArchive3N7z13CStreamSwitch3SetEPNS0_10CInArchiveERK7CBufferIhE: # @_ZN8NArchive3N7z13CStreamSwitch3SetEPNS0_10CInArchiveERK7CBufferIhE
	.cfi_startproc
# %bb.0:                                # %entry
	addi.d	$sp, $sp, -80
	.cfi_def_cfa_offset 80
	st.d	$ra, $sp, 72                    # 8-byte Folded Spill
	st.d	$fp, $sp, 64                    # 8-byte Folded Spill
	st.d	$s0, $sp, 56                    # 8-byte Folded Spill
	st.d	$s1, $sp, 48                    # 8-byte Folded Spill
	st.d	$s2, $sp, 40                    # 8-byte Folded Spill
	st.d	$s3, $sp, 32                    # 8-byte Folded Spill
	st.d	$s4, $sp, 24                    # 8-byte Folded Spill
	st.d	$s5, $sp, 16                    # 8-byte Folded Spill
	.cfi_offset 1, -8
	.cfi_offset 22, -16
	.cfi_offset 23, -24
	.cfi_offset 24, -32
	.cfi_offset 25, -40
	.cfi_offset 26, -48
	.cfi_offset 27, -56
	.cfi_offset 28, -64
	move	$fp, $a0
	ld.d	$s3, $a2, 16
	ld.bu	$a0, $a0, 8
	ld.d	$s5, $a2, 8
	ori	$s4, $zero, 1
	move	$s0, $a1
	bne	$a0, $s4, .LBB3_4
# %bb.1:                                # %if.then.i.i
	ld.d	$s1, $fp, 0
	addi.d	$a0, $s1, 8
	pcaddu18i	$ra, %call36(_ZN17CBaseRecordVector10DeleteBackEv)
	jirl	$ra, $ra, 0
	ld.w	$a0, $s1, 20
	beqz	$a0, .LBB3_3
# %bb.2:                                # %if.then.i.i.i
	ld.d	$a1, $s1, 24
	alsl.d	$a0, $a0, $a1, 3
	ld.d	$a0, $a0, -8
	st.d	$a0, $s1, 40
.LBB3_3:                                # %_ZN8NArchive3N7z10CInArchive16DeleteByteStreamEv.exit.i.i
	st.b	$zero, $fp, 8
.LBB3_4:                                # %_ZN8NArchive3N7z13CStreamSwitch3SetEPNS0_10CInArchiveEPKhm.exit
	st.d	$s0, $fp, 0
	addi.d	$s1, $s0, 8
	ori	$a0, $zero, 24
	pcaddu18i	$ra, %call36(_Znwm)
	jirl	$ra, $ra, 0
	move	$s2, $a0
	st.d	$zero, $a0, 0
	vrepli.b	$vr0, 0
	vst	$vr0, $a0, 8
	move	$a0, $s1
	pcaddu18i	$ra, %call36(_ZN17CBaseRecordVector18ReserveOnePositionEv)
	jirl	$ra, $ra, 0
	ld.w	$a0, $s0, 20
	ld.d	$a1, $s0, 24
	slli.d	$a2, $a0, 3
	stx.d	$s2, $a1, $a2
	ld.d	$a1, $s0, 24
	addi.w	$a0, $a0, 1
	alsl.d	$a1, $a0, $a1, 3
	ld.d	$a1, $a1, -8
	st.w	$a0, $s0, 20
	st.d	$a1, $s0, 40
	st.d	$s3, $a1, 0
	st.d	$s5, $a1, 8
	st.d	$zero, $a1, 16
	st.b	$s4, $fp, 8
	ld.d	$s5, $sp, 16                    # 8-byte Folded Reload
	ld.d	$s4, $sp, 24                    # 8-byte Folded Reload
	ld.d	$s3, $sp, 32                    # 8-byte Folded Reload
	ld.d	$s2, $sp, 40                    # 8-byte Folded Reload
	ld.d	$s1, $sp, 48                    # 8-byte Folded Reload
	ld.d	$s0, $sp, 56                    # 8-byte Folded Reload
	ld.d	$fp, $sp, 64                    # 8-byte Folded Reload
	ld.d	$ra, $sp, 72                    # 8-byte Folded Reload
	addi.d	$sp, $sp, 80
	ret
.Lfunc_end3:
	.size	_ZN8NArchive3N7z13CStreamSwitch3SetEPNS0_10CInArchiveERK7CBufferIhE, .Lfunc_end3-_ZN8NArchive3N7z13CStreamSwitch3SetEPNS0_10CInArchiveERK7CBufferIhE
	.cfi_endproc
                                        # -- End function
	.globl	_ZN8NArchive3N7z13CStreamSwitch3SetEPNS0_10CInArchiveEPK13CObjectVectorI7CBufferIhEE # -- Begin function _ZN8NArchive3N7z13CStreamSwitch3SetEPNS0_10CInArchiveEPK13CObjectVectorI7CBufferIhEE
	.p2align	2
	.type	_ZN8NArchive3N7z13CStreamSwitch3SetEPNS0_10CInArchiveEPK13CObjectVectorI7CBufferIhEE,@function
_ZN8NArchive3N7z13CStreamSwitch3SetEPNS0_10CInArchiveEPK13CObjectVectorI7CBufferIhEE: # @_ZN8NArchive3N7z13CStreamSwitch3SetEPNS0_10CInArchiveEPK13CObjectVectorI7CBufferIhEE
	.cfi_startproc
# %bb.0:                                # %entry
	addi.d	$sp, $sp, -80
	.cfi_def_cfa_offset 80
	st.d	$ra, $sp, 72                    # 8-byte Folded Spill
	st.d	$fp, $sp, 64                    # 8-byte Folded Spill
	st.d	$s0, $sp, 56                    # 8-byte Folded Spill
	st.d	$s1, $sp, 48                    # 8-byte Folded Spill
	st.d	$s2, $sp, 40                    # 8-byte Folded Spill
	st.d	$s3, $sp, 32                    # 8-byte Folded Spill
	st.d	$s4, $sp, 24                    # 8-byte Folded Spill
	st.d	$s5, $sp, 16                    # 8-byte Folded Spill
	.cfi_offset 1, -8
	.cfi_offset 22, -16
	.cfi_offset 23, -24
	.cfi_offset 24, -32
	.cfi_offset 25, -40
	.cfi_offset 26, -48
	.cfi_offset 27, -56
	.cfi_offset 28, -64
	move	$fp, $a0
	ld.bu	$a0, $a0, 8
	ori	$a3, $zero, 1
	move	$s1, $a2
	move	$s0, $a1
	bne	$a0, $a3, .LBB4_4
# %bb.1:                                # %if.then.i
	ld.d	$s2, $fp, 0
	addi.d	$a0, $s2, 8
	pcaddu18i	$ra, %call36(_ZN17CBaseRecordVector10DeleteBackEv)
	jirl	$ra, $ra, 0
	ld.w	$a0, $s2, 20
	beqz	$a0, .LBB4_3
# %bb.2:                                # %if.then.i.i
	ld.d	$a1, $s2, 24
	alsl.d	$a0, $a0, $a1, 3
	ld.d	$a0, $a0, -8
	st.d	$a0, $s2, 40
.LBB4_3:                                # %_ZN8NArchive3N7z10CInArchive16DeleteByteStreamEv.exit.i
	st.b	$zero, $fp, 8
.LBB4_4:                                # %_ZN8NArchive3N7z13CStreamSwitch6RemoveEv.exit
	ld.d	$a0, $s0, 40
	ld.d	$a1, $a0, 16
	ld.d	$a2, $a0, 8
	bgeu	$a1, $a2, .LBB4_14
# %bb.5:                                # %_ZN8NArchive3N7z10CInArchive8ReadByteEv.exit
	ld.d	$a2, $a0, 0
	addi.d	$a3, $a1, 1
	st.d	$a3, $a0, 16
	ldx.bu	$a1, $a2, $a1
	beqz	$a1, .LBB4_13
# %bb.6:                                # %if.then
	pcaddu18i	$ra, %call36(_ZN8NArchive3N7z8CInByte210ReadNumberEv)
	jirl	$ra, $ra, 0
	srli.d	$a1, $a0, 31
	bnez	$a1, .LBB4_14
# %bb.7:                                # %_ZN8NArchive3N7z10CInArchive7ReadNumEv.exit
	ld.w	$a1, $s1, 12
	addi.w	$a2, $a0, 0
	bge	$a2, $a1, .LBB4_14
# %bb.8:                                # %if.end
	ld.d	$a1, $s1, 16
	slli.d	$a0, $a0, 3
	ldx.d	$a0, $a1, $a0
	ld.d	$s3, $a0, 16
	ld.bu	$a1, $fp, 8
	ld.d	$s5, $a0, 8
	ori	$s4, $zero, 1
	bne	$a1, $s4, .LBB4_12
# %bb.9:                                # %if.then.i.i.i
	ld.d	$s1, $fp, 0
	addi.d	$a0, $s1, 8
	pcaddu18i	$ra, %call36(_ZN17CBaseRecordVector10DeleteBackEv)
	jirl	$ra, $ra, 0
	ld.w	$a0, $s1, 20
	beqz	$a0, .LBB4_11
# %bb.10:                               # %if.then.i.i.i.i
	ld.d	$a1, $s1, 24
	alsl.d	$a0, $a0, $a1, 3
	ld.d	$a0, $a0, -8
	st.d	$a0, $s1, 40
.LBB4_11:                               # %_ZN8NArchive3N7z10CInArchive16DeleteByteStreamEv.exit.i.i.i
	st.b	$zero, $fp, 8
.LBB4_12:                               # %_ZN8NArchive3N7z13CStreamSwitch3SetEPNS0_10CInArchiveERK7CBufferIhE.exit
	st.d	$s0, $fp, 0
	addi.d	$s1, $s0, 8
	ori	$a0, $zero, 24
	pcaddu18i	$ra, %call36(_Znwm)
	jirl	$ra, $ra, 0
	move	$s2, $a0
	st.d	$zero, $a0, 0
	vrepli.b	$vr0, 0
	vst	$vr0, $a0, 8
	move	$a0, $s1
	pcaddu18i	$ra, %call36(_ZN17CBaseRecordVector18ReserveOnePositionEv)
	jirl	$ra, $ra, 0
	ld.w	$a0, $s0, 20
	ld.d	$a1, $s0, 24
	slli.d	$a2, $a0, 3
	stx.d	$s2, $a1, $a2
	ld.d	$a1, $s0, 24
	addi.w	$a0, $a0, 1
	alsl.d	$a1, $a0, $a1, 3
	ld.d	$a1, $a1, -8
	st.w	$a0, $s0, 20
	st.d	$a1, $s0, 40
	st.d	$s3, $a1, 0
	st.d	$s5, $a1, 8
	st.d	$zero, $a1, 16
	st.b	$s4, $fp, 8
.LBB4_13:                               # %if.end8
	ld.d	$s5, $sp, 16                    # 8-byte Folded Reload
	ld.d	$s4, $sp, 24                    # 8-byte Folded Reload
	ld.d	$s3, $sp, 32                    # 8-byte Folded Reload
	ld.d	$s2, $sp, 40                    # 8-byte Folded Reload
	ld.d	$s1, $sp, 48                    # 8-byte Folded Reload
	ld.d	$s0, $sp, 56                    # 8-byte Folded Reload
	ld.d	$fp, $sp, 64                    # 8-byte Folded Reload
	ld.d	$ra, $sp, 72                    # 8-byte Folded Reload
	addi.d	$sp, $sp, 80
	ret
.LBB4_14:                               # %if.then.i.i6
	pcaddu18i	$ra, %call36(_ZN8NArchive3N7zL14ThrowExceptionEv)
	jirl	$ra, $ra, 0
.Lfunc_end4:
	.size	_ZN8NArchive3N7z13CStreamSwitch3SetEPNS0_10CInArchiveEPK13CObjectVectorI7CBufferIhEE, .Lfunc_end4-_ZN8NArchive3N7z13CStreamSwitch3SetEPNS0_10CInArchiveEPK13CObjectVectorI7CBufferIhEE
	.cfi_endproc
                                        # -- End function
	.globl	_ZN8NArchive3N7z8CInByte28ReadByteEv # -- Begin function _ZN8NArchive3N7z8CInByte28ReadByteEv
	.p2align	2
	.type	_ZN8NArchive3N7z8CInByte28ReadByteEv,@function
_ZN8NArchive3N7z8CInByte28ReadByteEv:   # @_ZN8NArchive3N7z8CInByte28ReadByteEv
	.cfi_startproc
# %bb.0:                                # %entry
	ld.d	$a1, $a0, 16
	ld.d	$a2, $a0, 8
	bgeu	$a1, $a2, .LBB5_2
# %bb.1:                                # %if.end
	ld.d	$a2, $a0, 0
	addi.d	$a3, $a1, 1
	st.d	$a3, $a0, 16
	ldx.bu	$a0, $a2, $a1
	ret
.LBB5_2:                                # %if.then
	addi.d	$sp, $sp, -16
	.cfi_def_cfa_offset 16
	st.d	$ra, $sp, 8                     # 8-byte Folded Spill
	.cfi_offset 1, -8
	pcaddu18i	$ra, %call36(_ZN8NArchive3N7zL14ThrowExceptionEv)
	jirl	$ra, $ra, 0
.Lfunc_end5:
	.size	_ZN8NArchive3N7z8CInByte28ReadByteEv, .Lfunc_end5-_ZN8NArchive3N7z8CInByte28ReadByteEv
	.cfi_endproc
                                        # -- End function
	.globl	_ZN8NArchive3N7z8CInByte29ReadBytesEPhm # -- Begin function _ZN8NArchive3N7z8CInByte29ReadBytesEPhm
	.p2align	2
	.type	_ZN8NArchive3N7z8CInByte29ReadBytesEPhm,@function
_ZN8NArchive3N7z8CInByte29ReadBytesEPhm: # @_ZN8NArchive3N7z8CInByte29ReadBytesEPhm
	.cfi_startproc
# %bb.0:                                # %entry
	addi.d	$sp, $sp, -16
	.cfi_def_cfa_offset 16
	st.d	$ra, $sp, 8                     # 8-byte Folded Spill
	.cfi_offset 1, -8
	ld.d	$a3, $a0, 8
	ld.d	$a4, $a0, 16
	sub.d	$a3, $a3, $a4
	bltu	$a3, $a2, .LBB6_4
# %bb.1:                                # %for.cond.preheader
	beqz	$a2, .LBB6_3
	.p2align	4, , 16
.LBB6_2:                                # %for.body
                                        # =>This Inner Loop Header: Depth=1
	ld.d	$a3, $a0, 16
	ld.d	$a4, $a0, 0
	addi.d	$a5, $a3, 1
	st.d	$a5, $a0, 16
	ldx.b	$a3, $a4, $a3
	st.b	$a3, $a1, 0
	addi.d	$a2, $a2, -1
	addi.d	$a1, $a1, 1
	bnez	$a2, .LBB6_2
.LBB6_3:                                # %for.cond.cleanup
	ld.d	$ra, $sp, 8                     # 8-byte Folded Reload
	addi.d	$sp, $sp, 16
	ret
.LBB6_4:                                # %if.then
	pcaddu18i	$ra, %call36(_ZN8NArchive3N7zL14ThrowExceptionEv)
	jirl	$ra, $ra, 0
.Lfunc_end6:
	.size	_ZN8NArchive3N7z8CInByte29ReadBytesEPhm, .Lfunc_end6-_ZN8NArchive3N7z8CInByte29ReadBytesEPhm
	.cfi_endproc
                                        # -- End function
	.globl	_ZN8NArchive3N7z8CInByte28SkipDataEy # -- Begin function _ZN8NArchive3N7z8CInByte28SkipDataEy
	.p2align	2
	.type	_ZN8NArchive3N7z8CInByte28SkipDataEy,@function
_ZN8NArchive3N7z8CInByte28SkipDataEy:   # @_ZN8NArchive3N7z8CInByte28SkipDataEy
	.cfi_startproc
# %bb.0:                                # %entry
	ld.d	$a3, $a0, 8
	ld.d	$a2, $a0, 16
	sub.d	$a3, $a3, $a2
	bltu	$a3, $a1, .LBB7_2
# %bb.1:                                # %if.end
	add.d	$a1, $a2, $a1
	st.d	$a1, $a0, 16
	ret
.LBB7_2:                                # %if.then
	addi.d	$sp, $sp, -16
	.cfi_def_cfa_offset 16
	st.d	$ra, $sp, 8                     # 8-byte Folded Spill
	.cfi_offset 1, -8
	pcaddu18i	$ra, %call36(_ZN8NArchive3N7zL14ThrowExceptionEv)
	jirl	$ra, $ra, 0
.Lfunc_end7:
	.size	_ZN8NArchive3N7z8CInByte28SkipDataEy, .Lfunc_end7-_ZN8NArchive3N7z8CInByte28SkipDataEy
	.cfi_endproc
                                        # -- End function
	.globl	_ZN8NArchive3N7z8CInByte28SkipDataEv # -- Begin function _ZN8NArchive3N7z8CInByte28SkipDataEv
	.p2align	2
	.type	_ZN8NArchive3N7z8CInByte28SkipDataEv,@function
_ZN8NArchive3N7z8CInByte28SkipDataEv:   # @_ZN8NArchive3N7z8CInByte28SkipDataEv
	.cfi_startproc
# %bb.0:                                # %entry
	addi.d	$sp, $sp, -16
	.cfi_def_cfa_offset 16
	st.d	$ra, $sp, 8                     # 8-byte Folded Spill
	st.d	$fp, $sp, 0                     # 8-byte Folded Spill
	.cfi_offset 1, -8
	.cfi_offset 22, -16
	move	$fp, $a0
	pcaddu18i	$ra, %call36(_ZN8NArchive3N7z8CInByte210ReadNumberEv)
	jirl	$ra, $ra, 0
	ld.d	$a2, $fp, 8
	ld.d	$a1, $fp, 16
	sub.d	$a2, $a2, $a1
	bltu	$a2, $a0, .LBB8_2
# %bb.1:                                # %_ZN8NArchive3N7z8CInByte28SkipDataEy.exit
	add.d	$a0, $a1, $a0
	st.d	$a0, $fp, 16
	ld.d	$fp, $sp, 0                     # 8-byte Folded Reload
	ld.d	$ra, $sp, 8                     # 8-byte Folded Reload
	addi.d	$sp, $sp, 16
	ret
.LBB8_2:                                # %if.then.i
	pcaddu18i	$ra, %call36(_ZN8NArchive3N7zL14ThrowExceptionEv)
	jirl	$ra, $ra, 0
.Lfunc_end8:
	.size	_ZN8NArchive3N7z8CInByte28SkipDataEv, .Lfunc_end8-_ZN8NArchive3N7z8CInByte28SkipDataEv
	.cfi_endproc
                                        # -- End function
	.globl	_ZN8NArchive3N7z8CInByte210ReadNumberEv # -- Begin function _ZN8NArchive3N7z8CInByte210ReadNumberEv
	.p2align	2
	.type	_ZN8NArchive3N7z8CInByte210ReadNumberEv,@function
_ZN8NArchive3N7z8CInByte210ReadNumberEv: # @_ZN8NArchive3N7z8CInByte210ReadNumberEv
	.cfi_startproc
# %bb.0:                                # %entry
	addi.d	$sp, $sp, -16
	.cfi_def_cfa_offset 16
	st.d	$ra, $sp, 8                     # 8-byte Folded Spill
	.cfi_offset 1, -8
	ld.d	$a3, $a0, 16
	ld.d	$a5, $a0, 8
	bgeu	$a3, $a5, .LBB9_27
# %bb.1:                                # %if.end
	ld.d	$a4, $a0, 0
	addi.d	$a2, $a3, 1
	st.d	$a2, $a0, 16
	ldx.b	$a6, $a4, $a3
	andi	$a1, $a6, 255
	bltz	$a6, .LBB9_3
# %bb.2:
	move	$a3, $zero
	move	$a2, $zero
	ori	$a0, $zero, 383
	b	.LBB9_24
.LBB9_3:                                # %if.end11
	nor	$a6, $a3, $zero
	add.d	$a5, $a5, $a6
	beqz	$a5, .LBB9_27
# %bb.4:                                # %if.end16
	addi.d	$a7, $a3, 2
	st.d	$a7, $a0, 16
	ldx.bu	$a2, $a4, $a2
	andi	$a6, $a1, 64
	bnez	$a6, .LBB9_6
# %bb.5:
	ori	$a0, $zero, 319
	ori	$a3, $zero, 8
	b	.LBB9_24
.LBB9_6:                                # %if.end11.1
	ori	$a6, $zero, 1
	beq	$a5, $a6, .LBB9_27
# %bb.7:                                # %if.end16.1
	addi.d	$a6, $a3, 3
	st.d	$a6, $a0, 16
	ldx.bu	$a7, $a4, $a7
	slli.d	$a7, $a7, 8
	andi	$t0, $a1, 32
	or	$a2, $a7, $a2
	bnez	$t0, .LBB9_9
# %bb.8:
	ori	$a0, $zero, 287
	ori	$a3, $zero, 16
	b	.LBB9_24
.LBB9_9:                                # %if.end11.2
	ori	$a7, $zero, 2
	beq	$a5, $a7, .LBB9_27
# %bb.10:                               # %if.end16.2
	addi.d	$a7, $a3, 4
	st.d	$a7, $a0, 16
	ldx.bu	$a6, $a4, $a6
	slli.d	$a6, $a6, 16
	andi	$t0, $a1, 16
	or	$a2, $a6, $a2
	bnez	$t0, .LBB9_12
# %bb.11:
	ori	$a0, $zero, 271
	ori	$a3, $zero, 24
	b	.LBB9_24
.LBB9_12:                               # %if.end11.3
	ori	$a6, $zero, 3
	beq	$a5, $a6, .LBB9_27
# %bb.13:                               # %if.end16.3
	addi.d	$a6, $a3, 5
	st.d	$a6, $a0, 16
	ldx.bu	$a7, $a4, $a7
	slli.d	$a7, $a7, 24
	andi	$t0, $a1, 8
	or	$a2, $a7, $a2
	bnez	$t0, .LBB9_15
# %bb.14:
	ori	$a0, $zero, 263
	ori	$a3, $zero, 32
	b	.LBB9_24
.LBB9_15:                               # %if.end11.4
	ori	$a7, $zero, 4
	beq	$a5, $a7, .LBB9_27
# %bb.16:                               # %if.end16.4
	addi.d	$a7, $a3, 6
	st.d	$a7, $a0, 16
	ldx.bu	$a6, $a4, $a6
	slli.d	$a6, $a6, 32
	andi	$t0, $a1, 4
	or	$a2, $a6, $a2
	bnez	$t0, .LBB9_18
# %bb.17:
	ori	$a0, $zero, 259
	ori	$a3, $zero, 40
	b	.LBB9_24
.LBB9_18:                               # %if.end11.5
	ori	$a6, $zero, 5
	beq	$a5, $a6, .LBB9_27
# %bb.19:                               # %if.end16.5
	addi.d	$a6, $a3, 7
	st.d	$a6, $a0, 16
	ldx.bu	$a7, $a4, $a7
	slli.d	$a7, $a7, 40
	andi	$t0, $a1, 2
	or	$a2, $a7, $a2
	bnez	$t0, .LBB9_21
# %bb.20:
	ori	$a0, $zero, 257
	ori	$a3, $zero, 48
	b	.LBB9_24
.LBB9_21:                               # %if.end11.6
	ori	$a7, $zero, 6
	beq	$a5, $a7, .LBB9_27
# %bb.22:                               # %if.end16.6
	addi.d	$a7, $a3, 8
	st.d	$a7, $a0, 16
	ldx.bu	$a6, $a4, $a6
	slli.d	$a6, $a6, 48
	andi	$t0, $a1, 1
	or	$a2, $a6, $a2
	bnez	$t0, .LBB9_25
# %bb.23:
	ori	$a0, $zero, 256
	ori	$a3, $zero, 56
.LBB9_24:                               # %if.then6
	and	$a0, $a0, $a1
	sll.d	$a0, $a0, $a3
	add.d	$a0, $a0, $a2
	ld.d	$ra, $sp, 8                     # 8-byte Folded Reload
	addi.d	$sp, $sp, 16
	ret
.LBB9_25:                               # %if.end11.7
	ori	$a1, $zero, 7
	beq	$a5, $a1, .LBB9_27
# %bb.26:                               # %if.end16.7
	addi.d	$a1, $a3, 9
	st.d	$a1, $a0, 16
	ldx.b	$a0, $a4, $a7
	slli.d	$a0, $a0, 56
	or	$a0, $a0, $a2
	ld.d	$ra, $sp, 8                     # 8-byte Folded Reload
	addi.d	$sp, $sp, 16
	ret
.LBB9_27:                               # %if.then
	pcaddu18i	$ra, %call36(_ZN8NArchive3N7zL14ThrowExceptionEv)
	jirl	$ra, $ra, 0
.Lfunc_end9:
	.size	_ZN8NArchive3N7z8CInByte210ReadNumberEv, .Lfunc_end9-_ZN8NArchive3N7z8CInByte210ReadNumberEv
	.cfi_endproc
                                        # -- End function
	.globl	_ZN8NArchive3N7z8CInByte27ReadNumEv # -- Begin function _ZN8NArchive3N7z8CInByte27ReadNumEv
	.p2align	2
	.type	_ZN8NArchive3N7z8CInByte27ReadNumEv,@function
_ZN8NArchive3N7z8CInByte27ReadNumEv:    # @_ZN8NArchive3N7z8CInByte27ReadNumEv
	.cfi_startproc
# %bb.0:                                # %entry
	addi.d	$sp, $sp, -16
	.cfi_def_cfa_offset 16
	st.d	$ra, $sp, 8                     # 8-byte Folded Spill
	.cfi_offset 1, -8
	pcaddu18i	$ra, %call36(_ZN8NArchive3N7z8CInByte210ReadNumberEv)
	jirl	$ra, $ra, 0
	srli.d	$a1, $a0, 31
	bnez	$a1, .LBB10_2
# %bb.1:                                # %if.end
	ld.d	$ra, $sp, 8                     # 8-byte Folded Reload
	addi.d	$sp, $sp, 16
	ret
.LBB10_2:                               # %if.then
	pcaddu18i	$ra, %call36(_ZN8NArchive3N7zL14ThrowExceptionEv)
	jirl	$ra, $ra, 0
.Lfunc_end10:
	.size	_ZN8NArchive3N7z8CInByte27ReadNumEv, .Lfunc_end10-_ZN8NArchive3N7z8CInByte27ReadNumEv
	.cfi_endproc
                                        # -- End function
	.globl	_ZN8NArchive3N7z8CInByte210ReadUInt32Ev # -- Begin function _ZN8NArchive3N7z8CInByte210ReadUInt32Ev
	.p2align	2
	.type	_ZN8NArchive3N7z8CInByte210ReadUInt32Ev,@function
_ZN8NArchive3N7z8CInByte210ReadUInt32Ev: # @_ZN8NArchive3N7z8CInByte210ReadUInt32Ev
	.cfi_startproc
# %bb.0:                                # %entry
	ld.d	$a1, $a0, 16
	ld.d	$a3, $a0, 8
	addi.d	$a2, $a1, 4
	bltu	$a3, $a2, .LBB11_2
# %bb.1:                                # %if.end
	ld.d	$a3, $a0, 0
	ldx.w	$a1, $a3, $a1
	st.d	$a2, $a0, 16
	move	$a0, $a1
	ret
.LBB11_2:                               # %if.then
	addi.d	$sp, $sp, -16
	.cfi_def_cfa_offset 16
	st.d	$ra, $sp, 8                     # 8-byte Folded Spill
	.cfi_offset 1, -8
	pcaddu18i	$ra, %call36(_ZN8NArchive3N7zL14ThrowExceptionEv)
	jirl	$ra, $ra, 0
.Lfunc_end11:
	.size	_ZN8NArchive3N7z8CInByte210ReadUInt32Ev, .Lfunc_end11-_ZN8NArchive3N7z8CInByte210ReadUInt32Ev
	.cfi_endproc
                                        # -- End function
	.globl	_ZN8NArchive3N7z8CInByte210ReadUInt64Ev # -- Begin function _ZN8NArchive3N7z8CInByte210ReadUInt64Ev
	.p2align	2
	.type	_ZN8NArchive3N7z8CInByte210ReadUInt64Ev,@function
_ZN8NArchive3N7z8CInByte210ReadUInt64Ev: # @_ZN8NArchive3N7z8CInByte210ReadUInt64Ev
	.cfi_startproc
# %bb.0:                                # %entry
	ld.d	$a1, $a0, 16
	ld.d	$a3, $a0, 8
	addi.d	$a2, $a1, 8
	bltu	$a3, $a2, .LBB12_2
# %bb.1:                                # %if.end
	ld.d	$a3, $a0, 0
	ldx.d	$a1, $a3, $a1
	st.d	$a2, $a0, 16
	move	$a0, $a1
	ret
.LBB12_2:                               # %if.then
	addi.d	$sp, $sp, -16
	.cfi_def_cfa_offset 16
	st.d	$ra, $sp, 8                     # 8-byte Folded Spill
	.cfi_offset 1, -8
	pcaddu18i	$ra, %call36(_ZN8NArchive3N7zL14ThrowExceptionEv)
	jirl	$ra, $ra, 0
.Lfunc_end12:
	.size	_ZN8NArchive3N7z8CInByte210ReadUInt64Ev, .Lfunc_end12-_ZN8NArchive3N7z8CInByte210ReadUInt64Ev
	.cfi_endproc
                                        # -- End function
	.globl	_ZN8NArchive3N7z8CInByte210ReadStringER11CStringBaseIwE # -- Begin function _ZN8NArchive3N7z8CInByte210ReadStringER11CStringBaseIwE
	.p2align	2
	.type	_ZN8NArchive3N7z8CInByte210ReadStringER11CStringBaseIwE,@function
_ZN8NArchive3N7z8CInByte210ReadStringER11CStringBaseIwE: # @_ZN8NArchive3N7z8CInByte210ReadStringER11CStringBaseIwE
	.cfi_startproc
# %bb.0:                                # %entry
	addi.d	$sp, $sp, -112
	.cfi_def_cfa_offset 112
	st.d	$ra, $sp, 104                   # 8-byte Folded Spill
	st.d	$fp, $sp, 96                    # 8-byte Folded Spill
	st.d	$s0, $sp, 88                    # 8-byte Folded Spill
	st.d	$s1, $sp, 80                    # 8-byte Folded Spill
	st.d	$s2, $sp, 72                    # 8-byte Folded Spill
	st.d	$s3, $sp, 64                    # 8-byte Folded Spill
	st.d	$s4, $sp, 56                    # 8-byte Folded Spill
	st.d	$s5, $sp, 48                    # 8-byte Folded Spill
	st.d	$s6, $sp, 40                    # 8-byte Folded Spill
	st.d	$s7, $sp, 32                    # 8-byte Folded Spill
	st.d	$s8, $sp, 24                    # 8-byte Folded Spill
	.cfi_offset 1, -8
	.cfi_offset 22, -16
	.cfi_offset 23, -24
	.cfi_offset 24, -32
	.cfi_offset 25, -40
	.cfi_offset 26, -48
	.cfi_offset 27, -56
	.cfi_offset 28, -64
	.cfi_offset 29, -72
	.cfi_offset 30, -80
	.cfi_offset 31, -88
	ld.d	$s4, $a0, 16
	ld.d	$a2, $a0, 8
	ld.d	$s5, $a0, 0
	move	$fp, $a1
	sub.d	$a1, $a2, $s4
	bstrins.d	$a1, $zero, 0, 0
	add.d	$s1, $s5, $s4
	move	$s2, $zero
	beqz	$a1, .LBB13_6
# %bb.1:                                # %for.body.preheader
	addi.d	$a2, $a1, -1
	bstrins.d	$a2, $zero, 0, 0
	addi.d	$a2, $a2, 2
	b	.LBB13_3
	.p2align	4, , 16
.LBB13_2:                               # %for.inc
                                        #   in Loop: Header=BB13_3 Depth=1
	addi.d	$s2, $s2, 2
	bgeu	$s2, $a1, .LBB13_5
.LBB13_3:                               # %for.body
                                        # =>This Inner Loop Header: Depth=1
	ldx.bu	$a3, $s1, $s2
	bnez	$a3, .LBB13_2
# %bb.4:                                # %land.lhs.true
                                        #   in Loop: Header=BB13_3 Depth=1
	add.d	$a3, $s1, $s2
	ld.bu	$a3, $a3, 1
	bnez	$a3, .LBB13_2
	b	.LBB13_6
.LBB13_5:
	move	$s2, $a2
.LBB13_6:                               # %for.end
	beq	$s2, $a1, .LBB13_40
# %bb.7:                                # %if.end10
	srli.d	$a1, $s2, 32
	bnez	$a1, .LBB13_40
# %bb.8:                                # %if.end10
	srli.d	$s3, $s2, 1
	addi.w	$s6, $s3, 0
	addi.w	$a1, $zero, -1
	bge	$a1, $s6, .LBB13_40
# %bb.9:                                # %if.end18
	ld.w	$s8, $fp, 12
	blt	$s6, $s8, .LBB13_29
# %bb.10:                               # %if.then.i
	addi.w	$s7, $s3, 1
	beq	$s7, $s8, .LBB13_29
# %bb.11:                               # %if.end.i.i
	st.d	$a0, $sp, 16                    # 8-byte Folded Spill
	slli.d	$a0, $s7, 2
	pcaddu18i	$ra, %call36(_Znam)
	jirl	$ra, $ra, 0
	ori	$a2, $zero, 1
	move	$s0, $a0
	blt	$s8, $a2, .LBB13_28
# %bb.12:                               # %for.cond.preheader.i.i
	ld.w	$a1, $fp, 8
	ld.d	$a0, $fp, 0
	blt	$a1, $a2, .LBB13_17
# %bb.13:                               # %iter.check
	ori	$a3, $zero, 4
	move	$a2, $zero
	bltu	$a1, $a3, .LBB13_25
# %bb.14:                               # %iter.check
	sub.d	$a3, $s0, $a0
	ori	$a4, $zero, 63
	bgeu	$a4, $a3, .LBB13_25
# %bb.15:                               # %vector.main.loop.iter.check
	ori	$a2, $zero, 16
	bgeu	$a1, $a2, .LBB13_18
# %bb.16:
	move	$a2, $zero
	b	.LBB13_22
.LBB13_17:                              # %for.cond.cleanup.i.i
	bnez	$a0, .LBB13_27
	b	.LBB13_28
.LBB13_18:                              # %vector.ph
	bstrpick.d	$a2, $a1, 30, 4
	slli.d	$a2, $a2, 4
	addi.d	$a3, $s0, 32
	addi.d	$a4, $a0, 32
	move	$a5, $a2
	.p2align	4, , 16
.LBB13_19:                              # %vector.body
                                        # =>This Inner Loop Header: Depth=1
	xvld	$xr0, $a4, -32
	xvld	$xr1, $a4, 0
	xvst	$xr0, $a3, -32
	xvst	$xr1, $a3, 0
	addi.d	$a5, $a5, -16
	addi.d	$a3, $a3, 64
	addi.d	$a4, $a4, 64
	bnez	$a5, .LBB13_19
# %bb.20:                               # %middle.block
	beq	$a2, $a1, .LBB13_27
# %bb.21:                               # %vec.epilog.iter.check
	andi	$a3, $a1, 12
	beqz	$a3, .LBB13_25
.LBB13_22:                              # %vec.epilog.ph
	move	$a5, $a2
	bstrpick.d	$a2, $a1, 30, 2
	slli.d	$a2, $a2, 2
	sub.d	$a3, $a5, $a2
	alsl.d	$a4, $a5, $s0, 2
	alsl.d	$a5, $a5, $a0, 2
	.p2align	4, , 16
.LBB13_23:                              # %vec.epilog.vector.body
                                        # =>This Inner Loop Header: Depth=1
	vld	$vr0, $a5, 0
	vst	$vr0, $a4, 0
	addi.d	$a3, $a3, 4
	addi.d	$a4, $a4, 16
	addi.d	$a5, $a5, 16
	bnez	$a3, .LBB13_23
# %bb.24:                               # %vec.epilog.middle.block
	beq	$a2, $a1, .LBB13_27
.LBB13_25:                              # %for.body.i.i.preheader
	sub.d	$a1, $a1, $a2
	alsl.d	$a3, $a2, $s0, 2
	alsl.d	$a2, $a2, $a0, 2
	.p2align	4, , 16
.LBB13_26:                              # %for.body.i.i
                                        # =>This Inner Loop Header: Depth=1
	ld.w	$a4, $a2, 0
	st.w	$a4, $a3, 0
	addi.d	$a1, $a1, -1
	addi.d	$a3, $a3, 4
	addi.d	$a2, $a2, 4
	bnez	$a1, .LBB13_26
.LBB13_27:                              # %delete.notnull.i.i
	pcaddu18i	$ra, %call36(_ZdaPv)
	jirl	$ra, $ra, 0
.LBB13_28:                              # %if.end9.i.i
	ld.w	$a0, $fp, 8
	st.d	$s0, $fp, 0
	slli.d	$a0, $a0, 2
	stx.w	$zero, $s0, $a0
	st.w	$s7, $fp, 12
	ld.d	$a0, $sp, 16                    # 8-byte Folded Reload
.LBB13_29:                              # %_ZN11CStringBaseIwE9GetBufferEi.exit
	ld.d	$a1, $fp, 0
	beqz	$s6, .LBB13_36
# %bb.30:                               # %for.body22.preheader
	ori	$a2, $zero, 16
	bltu	$s2, $a2, .LBB13_33
# %bb.31:                               # %vector.memcheck40
	add.d	$a2, $s5, $s4
	add.d	$a2, $a2, $s2
	bgeu	$a1, $a2, .LBB13_37
# %bb.32:                               # %vector.memcheck40
	alsl.d	$a2, $s2, $a1, 1
	bgeu	$s1, $a2, .LBB13_37
.LBB13_33:
	move	$a2, $zero
.LBB13_34:                              # %for.body22.preheader57
	alsl.d	$a3, $a2, $a1, 2
	sub.d	$a2, $s3, $a2
	.p2align	4, , 16
.LBB13_35:                              # %for.body22
                                        # =>This Inner Loop Header: Depth=1
	ld.hu	$a4, $s1, 0
	st.w	$a4, $a3, 0
	addi.d	$s1, $s1, 2
	addi.d	$a2, $a2, -1
	addi.d	$a3, $a3, 4
	bnez	$a2, .LBB13_35
.LBB13_36:                              # %for.end31
	ld.d	$a2, $a0, 16
	slli.d	$a3, $s3, 2
	stx.w	$zero, $a1, $a3
	st.w	$s3, $fp, 8
	add.d	$a1, $s2, $a2
	addi.d	$a1, $a1, 2
	st.d	$a1, $a0, 16
	ld.d	$s8, $sp, 24                    # 8-byte Folded Reload
	ld.d	$s7, $sp, 32                    # 8-byte Folded Reload
	ld.d	$s6, $sp, 40                    # 8-byte Folded Reload
	ld.d	$s5, $sp, 48                    # 8-byte Folded Reload
	ld.d	$s4, $sp, 56                    # 8-byte Folded Reload
	ld.d	$s3, $sp, 64                    # 8-byte Folded Reload
	ld.d	$s2, $sp, 72                    # 8-byte Folded Reload
	ld.d	$s1, $sp, 80                    # 8-byte Folded Reload
	ld.d	$s0, $sp, 88                    # 8-byte Folded Reload
	ld.d	$fp, $sp, 96                    # 8-byte Folded Reload
	ld.d	$ra, $sp, 104                   # 8-byte Folded Reload
	addi.d	$sp, $sp, 112
	ret
.LBB13_37:                              # %vector.ph43
	bstrpick.d	$a3, $s3, 30, 2
	slli.d	$a2, $a3, 2
	alsl.d	$s1, $a3, $s1, 3
	add.d	$a3, $s4, $s5
	addi.d	$a3, $a3, 3
	vrepli.b	$vr0, 0
	move	$a4, $a2
	move	$a5, $a1
	.p2align	4, , 16
.LBB13_38:                              # %vector.body46
                                        # =>This Inner Loop Header: Depth=1
	ld.b	$a6, $a3, -3
	ld.b	$a7, $a3, -1
	ld.b	$t0, $a3, 1
	ld.b	$t1, $a3, 3
	vinsgr2vr.b	$vr1, $a6, 0
	vinsgr2vr.b	$vr1, $a7, 1
	vinsgr2vr.b	$vr1, $t0, 2
	vinsgr2vr.b	$vr1, $t1, 3
	vilvl.b	$vr1, $vr0, $vr1
	vilvl.h	$vr1, $vr0, $vr1
	ld.b	$a6, $a3, -2
	ld.b	$a7, $a3, 0
	ld.b	$t0, $a3, 2
	ld.b	$t1, $a3, 4
	vinsgr2vr.b	$vr2, $a6, 0
	vinsgr2vr.b	$vr2, $a7, 1
	vinsgr2vr.b	$vr2, $t0, 2
	vinsgr2vr.b	$vr2, $t1, 3
	vilvl.b	$vr2, $vr0, $vr2
	vilvl.h	$vr2, $vr0, $vr2
	vslli.w	$vr2, $vr2, 8
	vor.v	$vr1, $vr2, $vr1
	vst	$vr1, $a5, 0
	addi.d	$a5, $a5, 16
	addi.d	$a4, $a4, -4
	addi.d	$a3, $a3, 8
	bnez	$a4, .LBB13_38
# %bb.39:                               # %middle.block52
	beq	$s3, $a2, .LBB13_36
	b	.LBB13_34
.LBB13_40:                              # %if.then9
	pcaddu18i	$ra, %call36(_ZN8NArchive3N7zL14ThrowExceptionEv)
	jirl	$ra, $ra, 0
.Lfunc_end13:
	.size	_ZN8NArchive3N7z8CInByte210ReadStringER11CStringBaseIwE, .Lfunc_end13-_ZN8NArchive3N7z8CInByte210ReadStringER11CStringBaseIwE
	.cfi_endproc
                                        # -- End function
	.section	.rodata.cst16,"aM",@progbits,16
	.p2align	4, 0x0                          # -- Begin function _ZN8NArchive3N7z10CInArchive20FindAndReadSignatureEP9IInStreamPKy
.LCPI14_0:
	.byte	0                               # 0x0
	.byte	16                              # 0x10
	.byte	17                              # 0x11
	.byte	18                              # 0x12
	.byte	19                              # 0x13
	.byte	255                             # 0xff
	.byte	255                             # 0xff
	.byte	255                             # 0xff
	.byte	255                             # 0xff
	.byte	255                             # 0xff
	.byte	255                             # 0xff
	.byte	255                             # 0xff
	.byte	255                             # 0xff
	.byte	255                             # 0xff
	.byte	255                             # 0xff
	.byte	255                             # 0xff
.LCPI14_1:
	.half	0                               # 0x0
	.half	1                               # 0x1
	.half	2                               # 0x2
	.half	8                               # 0x8
	.half	65535                           # 0xffff
	.half	65535                           # 0xffff
	.half	65535                           # 0xffff
	.half	65535                           # 0xffff
.LCPI14_2:
	.word	0                               # 0x0
	.word	5                               # 0x5
	.word	6                               # 0x6
	.word	7                               # 0x7
	.text
	.globl	_ZN8NArchive3N7z10CInArchive20FindAndReadSignatureEP9IInStreamPKy
	.p2align	2
	.type	_ZN8NArchive3N7z10CInArchive20FindAndReadSignatureEP9IInStreamPKy,@function
_ZN8NArchive3N7z10CInArchive20FindAndReadSignatureEP9IInStreamPKy: # @_ZN8NArchive3N7z10CInArchive20FindAndReadSignatureEP9IInStreamPKy
.Lfunc_begin1:
	.cfi_startproc
	.cfi_personality 155, DW.ref.__gxx_personality_v0
	.cfi_lsda 27, .Lexception1
# %bb.0:                                # %entry
	addi.d	$sp, $sp, -144
	.cfi_def_cfa_offset 144
	st.d	$ra, $sp, 136                   # 8-byte Folded Spill
	st.d	$fp, $sp, 128                   # 8-byte Folded Spill
	st.d	$s0, $sp, 120                   # 8-byte Folded Spill
	st.d	$s1, $sp, 112                   # 8-byte Folded Spill
	st.d	$s2, $sp, 104                   # 8-byte Folded Spill
	st.d	$s3, $sp, 96                    # 8-byte Folded Spill
	st.d	$s4, $sp, 88                    # 8-byte Folded Spill
	st.d	$s5, $sp, 80                    # 8-byte Folded Spill
	st.d	$s6, $sp, 72                    # 8-byte Folded Spill
	st.d	$s7, $sp, 64                    # 8-byte Folded Spill
	st.d	$s8, $sp, 56                    # 8-byte Folded Spill
	.cfi_offset 1, -8
	.cfi_offset 22, -16
	.cfi_offset 23, -24
	.cfi_offset 24, -32
	.cfi_offset 25, -40
	.cfi_offset 26, -48
	.cfi_offset 27, -56
	.cfi_offset 28, -64
	.cfi_offset 29, -72
	.cfi_offset 30, -80
	.cfi_offset 31, -88
	move	$s2, $a2
	move	$fp, $a1
	move	$s1, $a0
	addi.d	$s4, $a0, 56
	ori	$a2, $zero, 32
	move	$a0, $a1
	move	$a1, $s4
	pcaddu18i	$ra, %call36(_Z16ReadStream_FALSEP19ISequentialInStreamPvm)
	jirl	$ra, $ra, 0
	bnez	$a0, .LBB14_38
# %bb.1:                                # %cleanup.cont
	pcalau12i	$a0, %got_pc_hi20(_ZN8NArchive3N7z10kSignatureE)
	ld.d	$s5, $a0, %got_pc_lo12(_ZN8NArchive3N7z10kSignatureE)
	ld.bu	$a0, $s4, 0
	ld.bu	$a1, $s5, 0
	bne	$a0, $a1, .LBB14_12
# %bb.2:                                # %for.cond.i
	ld.bu	$a0, $s1, 57
	ld.bu	$a1, $s5, 1
	bne	$a0, $a1, .LBB14_12
# %bb.3:                                # %for.cond.1.i
	ld.bu	$a0, $s1, 58
	ld.bu	$a1, $s5, 2
	bne	$a0, $a1, .LBB14_12
# %bb.4:                                # %for.cond.2.i
	ld.bu	$a0, $s1, 59
	ld.bu	$a1, $s5, 3
	bne	$a0, $a1, .LBB14_12
# %bb.5:                                # %for.cond.3.i
	ld.bu	$a0, $s1, 60
	ld.bu	$a1, $s5, 4
	bne	$a0, $a1, .LBB14_12
# %bb.6:                                # %for.cond.4.i
	ld.bu	$a0, $s1, 61
	ld.bu	$a1, $s5, 5
	bne	$a0, $a1, .LBB14_12
# %bb.7:                                # %for.cond.5.i
	addi.d	$a0, $s1, 68
	ori	$a1, $zero, 20
	pcaddu18i	$ra, %call36(CrcCalc)
	jirl	$ra, $ra, 0
	ld.bu	$a1, $s1, 65
	ld.bu	$a2, $s1, 64
	ld.bu	$a3, $s1, 66
	slli.w	$a5, $a1, 8
	ld.bu	$a4, $s1, 67
	or	$a5, $a5, $a2
	slli.w	$a6, $a3, 16
	or	$a5, $a5, $a6
	slli.w	$a6, $a4, 24
	or	$a5, $a5, $a6
	bne	$a0, $a5, .LBB14_9
.LBB14_8:
	move	$a0, $zero
	b	.LBB14_38
.LBB14_9:                               # %for.body26.preheader.i
	or	$a0, $a1, $a2
	or	$a0, $a0, $a3
	or	$a0, $a0, $a4
	ld.b	$a1, $s1, 72
	vld	$vr0, $s1, 68
	vld	$vr1, $s1, 73
	pcalau12i	$a2, %pc_hi20(.LCPI14_0)
	vld	$vr2, $a2, %pc_lo12(.LCPI14_0)
	pcalau12i	$a2, %pc_hi20(.LCPI14_1)
	vld	$vr3, $a2, %pc_lo12(.LCPI14_1)
	vinsgr2vr.b	$vr4, $a0, 0
	vshuf.b	$vr0, $vr0, $vr4, $vr2
	vld	$vr2, $s1, 75
	vshuf.h	$vr3, $vr1, $vr0
	ld.w	$a0, $s1, 83
	vinsgr2vr.b	$vr3, $a1, 5
	vpackev.d	$vr0, $vr2, $vr3
	vseqi.b	$vr0, $vr0, 0
	vinsgr2vr.w	$vr1, $a0, 0
	vseqi.b	$vr1, $vr1, 0
	vilvl.b	$vr1, $vr1, $vr1
	vilvl.h	$vr1, $vr1, $vr1
	vslli.w	$vr1, $vr1, 24
	vsrai.w	$vr1, $vr1, 24
	vpickve2gr.b	$a0, $vr0, 0
	vinsgr2vr.w	$vr2, $a0, 0
	vpickve2gr.b	$a0, $vr0, 1
	vinsgr2vr.w	$vr2, $a0, 1
	vpickve2gr.b	$a0, $vr0, 2
	vinsgr2vr.w	$vr2, $a0, 2
	vpickve2gr.b	$a0, $vr0, 3
	vinsgr2vr.w	$vr2, $a0, 3
	vand.v	$vr1, $vr2, $vr1
	vpickve2gr.w	$a0, $vr1, 0
	vinsgr2vr.b	$vr2, $a0, 0
	vpickve2gr.w	$a0, $vr1, 1
	vinsgr2vr.b	$vr2, $a0, 1
	vpickve2gr.w	$a0, $vr1, 2
	pcalau12i	$a1, %pc_hi20(.LCPI14_2)
	vld	$vr3, $a1, %pc_lo12(.LCPI14_2)
	vinsgr2vr.b	$vr2, $a0, 2
	vpickve2gr.w	$a0, $vr1, 3
	vinsgr2vr.b	$vr2, $a0, 3
	vshuf.w	$vr3, $vr0, $vr2
	vslli.b	$vr0, $vr3, 7
	vmskltz.b	$vr0, $vr0
	vpickve2gr.hu	$a0, $vr0, 0
	lu12i.w	$a1, 15
	ori	$a1, $a1, 4095
	bne	$a0, $a1, .LBB14_12
# %bb.10:                               # %for.body26.preheader.i
	ld.bu	$a0, $s1, 87
	bnez	$a0, .LBB14_12
# %bb.11:                               # %for.cond24.23.i
	ld.b	$a0, $s1, 63
	ld.bu	$a1, $s1, 62
	andi	$a0, $a0, 255
	or	$a0, $a1, $a0
	bnez	$a0, .LBB14_8
.LBB14_12:                              # %if.end.i
	lu12i.w	$s6, 16
	move	$a0, $s6
	pcaddu18i	$ra, %call36(_Znam)
	jirl	$ra, $ra, 0
	xvld	$xr0, $s4, 0
	move	$s3, $a0
	ld.d	$s7, $s1, 48
	xvst	$xr0, $a0, 0
	ori	$s8, $zero, 55
	beqz	$s2, .LBB14_14
.LBB14_13:                              # %if.then13
	ld.d	$a0, $s1, 48
	ld.d	$a1, $s2, 0
	sub.d	$a0, $s7, $a0
	bltu	$a1, $a0, .LBB14_34
.LBB14_14:                              # %do.body.preheader
                                        # =>This Loop Header: Depth=1
                                        #     Child Loop BB14_15 Depth 2
                                        #     Child Loop BB14_21 Depth 2
                                        #       Child Loop BB14_22 Depth 3
	ori	$a0, $zero, 32
	.p2align	4, , 16
.LBB14_15:                              # %do.body
                                        #   Parent Loop BB14_14 Depth=1
                                        # =>  This Inner Loop Header: Depth=2
	ld.d	$a1, $fp, 0
	ld.d	$a4, $a1, 40
	move	$s0, $a0
	sub.w	$a2, $s6, $a0
	add.d	$a1, $s3, $a0
.Ltmp22:                                # EH_LABEL
	addi.d	$a3, $sp, 52
	move	$a0, $fp
	jirl	$ra, $a4, 0
.Ltmp23:                                # EH_LABEL
# %bb.16:                               # %invoke.cont22
                                        #   in Loop: Header=BB14_15 Depth=2
	bnez	$a0, .LBB14_36
# %bb.17:                               # %cleanup33
                                        #   in Loop: Header=BB14_15 Depth=2
	ld.w	$a1, $sp, 52
	beqz	$a1, .LBB14_34
# %bb.18:                               # %do.cond
                                        #   in Loop: Header=BB14_15 Depth=2
	add.w	$a0, $a1, $s0
	ori	$a2, $zero, 33
	bltu	$a0, $a2, .LBB14_15
# %bb.19:                               # %for.cond41.preheader.preheader
                                        #   in Loop: Header=BB14_14 Depth=1
	st.d	$s7, $sp, 24                    # 8-byte Folded Spill
	st.d	$s4, $sp, 32                    # 8-byte Folded Spill
	st.d	$s2, $sp, 16                    # 8-byte Folded Spill
	st.d	$s1, $sp, 40                    # 8-byte Folded Spill
	move	$s6, $zero
	addi.w	$s2, $a0, -32
	bstrpick.d	$s1, $s2, 31, 0
	add.d	$a0, $s0, $a1
	addi.w	$s0, $a0, -31
	b	.LBB14_21
	.p2align	4, , 16
.LBB14_20:                              # %for.inc67
                                        #   in Loop: Header=BB14_21 Depth=2
	bgeu	$s6, $s2, .LBB14_33
.LBB14_21:                              # %for.cond41.preheader
                                        #   Parent Loop BB14_14 Depth=1
                                        # =>  This Loop Header: Depth=2
                                        #       Child Loop BB14_22 Depth 3
	bstrpick.d	$s7, $s6, 31, 0
	.p2align	4, , 16
.LBB14_22:                              # %for.cond41
                                        #   Parent Loop BB14_14 Depth=1
                                        #     Parent Loop BB14_21 Depth=2
                                        # =>    This Inner Loop Header: Depth=3
	move	$a1, $s7
	ldx.bu	$a0, $s3, $s7
	addi.d	$s7, $s7, 1
	addi.w	$s6, $s6, 1
	bgeu	$a1, $s1, .LBB14_24
# %bb.23:                               # %for.cond41
                                        #   in Loop: Header=BB14_22 Depth=3
	bne	$a0, $s8, .LBB14_22
.LBB14_24:                              # %for.end
                                        #   in Loop: Header=BB14_21 Depth=2
	beq	$s0, $s6, .LBB14_33
# %bb.25:                               # %if.end47
                                        #   in Loop: Header=BB14_21 Depth=2
	ld.bu	$a1, $s5, 0
	bne	$a0, $a1, .LBB14_20
# %bb.26:                               # %for.cond.i49
                                        #   in Loop: Header=BB14_21 Depth=2
	ldx.bu	$a0, $s3, $s7
	ld.bu	$a1, $s5, 1
	bne	$a0, $a1, .LBB14_20
# %bb.27:                               # %for.cond.1.i52
                                        #   in Loop: Header=BB14_21 Depth=2
	add.d	$s4, $s3, $s7
	ld.bu	$a0, $s4, 1
	ld.bu	$a1, $s5, 2
	bne	$a0, $a1, .LBB14_20
# %bb.28:                               # %for.cond.2.i55
                                        #   in Loop: Header=BB14_21 Depth=2
	ld.bu	$a0, $s4, 2
	ld.bu	$a1, $s5, 3
	bne	$a0, $a1, .LBB14_20
# %bb.29:                               # %for.cond.3.i58
                                        #   in Loop: Header=BB14_21 Depth=2
	ld.bu	$a0, $s4, 3
	ld.bu	$a1, $s5, 4
	bne	$a0, $a1, .LBB14_20
# %bb.30:                               # %for.cond.4.i61
                                        #   in Loop: Header=BB14_21 Depth=2
	ld.bu	$a0, $s4, 4
	ld.bu	$a1, $s5, 5
	bne	$a0, $a1, .LBB14_20
# %bb.31:                               # %for.cond.5.i64
                                        #   in Loop: Header=BB14_21 Depth=2
	addi.d	$a0, $s4, 11
.Ltmp25:                                # EH_LABEL
	ori	$a1, $zero, 20
	pcaddu18i	$ra, %call36(CrcCalc)
	jirl	$ra, $ra, 0
.Ltmp26:                                # EH_LABEL
# %bb.32:                               # %invoke.cont51
                                        #   in Loop: Header=BB14_21 Depth=2
	ld.w	$a1, $s4, 7
	bne	$a0, $a1, .LBB14_20
	b	.LBB14_35
.LBB14_33:                              # %for.end71
                                        #   in Loop: Header=BB14_14 Depth=1
	xvldx	$xr0, $s3, $s1
	ld.d	$s7, $sp, 24                    # 8-byte Folded Reload
	add.d	$s7, $s7, $s1
	xvst	$xr0, $s3, 0
	ld.d	$s1, $sp, 40                    # 8-byte Folded Reload
	ld.d	$s2, $sp, 16                    # 8-byte Folded Reload
	ld.d	$s4, $sp, 32                    # 8-byte Folded Reload
	lu12i.w	$s6, 16
	bnez	$s2, .LBB14_13
	b	.LBB14_14
.LBB14_34:
	ori	$fp, $zero, 1
	b	.LBB14_37
.LBB14_35:                              # %if.then53
	xvld	$xr0, $s4, -1
	ld.d	$a0, $sp, 32                    # 8-byte Folded Reload
	xvst	$xr0, $a0, 0
	ld.d	$a0, $fp, 0
	ld.d	$a1, $sp, 24                    # 8-byte Folded Reload
	add.d	$a1, $a1, $s7
	addi.d	$a2, $a1, -1
	ld.d	$a3, $sp, 40                    # 8-byte Folded Reload
	st.d	$a2, $a3, 48
	ld.d	$a4, $a0, 48
	addi.d	$a1, $a1, 31
.Ltmp28:                                # EH_LABEL
	move	$a0, $fp
	move	$a2, $zero
	move	$a3, $zero
	jirl	$ra, $a4, 0
.Ltmp29:                                # EH_LABEL
.LBB14_36:                              # %cleanup33.thread
	move	$fp, $a0
.LBB14_37:                              # %_ZN7CBufferIhED2Ev.exit
	move	$a0, $s3
	pcaddu18i	$ra, %call36(_ZdaPv)
	jirl	$ra, $ra, 0
	move	$a0, $fp
.LBB14_38:                              # %return
	ld.d	$s8, $sp, 56                    # 8-byte Folded Reload
	ld.d	$s7, $sp, 64                    # 8-byte Folded Reload
	ld.d	$s6, $sp, 72                    # 8-byte Folded Reload
	ld.d	$s5, $sp, 80                    # 8-byte Folded Reload
	ld.d	$s4, $sp, 88                    # 8-byte Folded Reload
	ld.d	$s3, $sp, 96                    # 8-byte Folded Reload
	ld.d	$s2, $sp, 104                   # 8-byte Folded Reload
	ld.d	$s1, $sp, 112                   # 8-byte Folded Reload
	ld.d	$s0, $sp, 120                   # 8-byte Folded Reload
	ld.d	$fp, $sp, 128                   # 8-byte Folded Reload
	ld.d	$ra, $sp, 136                   # 8-byte Folded Reload
	addi.d	$sp, $sp, 144
	ret
.LBB14_39:                              # %lpad50.loopexit.split-lp
.Ltmp30:                                # EH_LABEL
	b	.LBB14_42
.LBB14_40:                              # %lpad50.loopexit
.Ltmp27:                                # EH_LABEL
	b	.LBB14_42
.LBB14_41:                              # %lpad21
.Ltmp24:                                # EH_LABEL
.LBB14_42:                              # %delete.notnull.i89
	move	$fp, $a0
	move	$a0, $s3
	pcaddu18i	$ra, %call36(_ZdaPv)
	jirl	$ra, $ra, 0
	move	$a0, $fp
	pcaddu18i	$ra, %call36(_Unwind_Resume)
	jirl	$ra, $ra, 0
.Lfunc_end14:
	.size	_ZN8NArchive3N7z10CInArchive20FindAndReadSignatureEP9IInStreamPKy, .Lfunc_end14-_ZN8NArchive3N7z10CInArchive20FindAndReadSignatureEP9IInStreamPKy
	.cfi_endproc
	.section	.gcc_except_table,"a",@progbits
	.p2align	2, 0x0
GCC_except_table14:
.Lexception1:
	.byte	255                             # @LPStart Encoding = omit
	.byte	255                             # @TType Encoding = omit
	.byte	1                               # Call site Encoding = uleb128
	.uleb128 .Lcst_end1-.Lcst_begin1
.Lcst_begin1:
	.uleb128 .Lfunc_begin1-.Lfunc_begin1    # >> Call Site 1 <<
	.uleb128 .Ltmp22-.Lfunc_begin1          #   Call between .Lfunc_begin1 and .Ltmp22
	.byte	0                               #     has no landing pad
	.byte	0                               #   On action: cleanup
	.uleb128 .Ltmp22-.Lfunc_begin1          # >> Call Site 2 <<
	.uleb128 .Ltmp23-.Ltmp22                #   Call between .Ltmp22 and .Ltmp23
	.uleb128 .Ltmp24-.Lfunc_begin1          #     jumps to .Ltmp24
	.byte	0                               #   On action: cleanup
	.uleb128 .Ltmp25-.Lfunc_begin1          # >> Call Site 3 <<
	.uleb128 .Ltmp26-.Ltmp25                #   Call between .Ltmp25 and .Ltmp26
	.uleb128 .Ltmp27-.Lfunc_begin1          #     jumps to .Ltmp27
	.byte	0                               #   On action: cleanup
	.uleb128 .Ltmp28-.Lfunc_begin1          # >> Call Site 4 <<
	.uleb128 .Ltmp29-.Ltmp28                #   Call between .Ltmp28 and .Ltmp29
	.uleb128 .Ltmp30-.Lfunc_begin1          #     jumps to .Ltmp30
	.byte	0                               #   On action: cleanup
	.uleb128 .Ltmp29-.Lfunc_begin1          # >> Call Site 5 <<
	.uleb128 .Lfunc_end14-.Ltmp29           #   Call between .Ltmp29 and .Lfunc_end14
	.byte	0                               #     has no landing pad
	.byte	0                               #   On action: cleanup
.Lcst_end1:
	.p2align	2, 0x0
                                        # -- End function
	.section	.text._ZN7CBufferIhED2Ev,"axG",@progbits,_ZN7CBufferIhED2Ev,comdat
	.weak	_ZN7CBufferIhED2Ev              # -- Begin function _ZN7CBufferIhED2Ev
	.p2align	2
	.type	_ZN7CBufferIhED2Ev,@function
_ZN7CBufferIhED2Ev:                     # @_ZN7CBufferIhED2Ev
# %bb.0:                                # %entry
	move	$a1, $a0
	ld.d	$a0, $a0, 16
	pcalau12i	$a2, %pc_hi20(_ZTV7CBufferIhE+16)
	addi.d	$a2, $a2, %pc_lo12(_ZTV7CBufferIhE+16)
	st.d	$a2, $a1, 0
	beqz	$a0, .LBB15_2
# %bb.1:                                # %delete.notnull
	pcaddu18i	$t8, %call36(_ZdaPv)
	jr	$t8
.LBB15_2:                               # %delete.end
	ret
.Lfunc_end15:
	.size	_ZN7CBufferIhED2Ev, .Lfunc_end15-_ZN7CBufferIhED2Ev
                                        # -- End function
	.text
	.globl	_ZN8NArchive3N7z10CInArchive4OpenEP9IInStreamPKy # -- Begin function _ZN8NArchive3N7z10CInArchive4OpenEP9IInStreamPKy
	.p2align	2
	.type	_ZN8NArchive3N7z10CInArchive4OpenEP9IInStreamPKy,@function
_ZN8NArchive3N7z10CInArchive4OpenEP9IInStreamPKy: # @_ZN8NArchive3N7z10CInArchive4OpenEP9IInStreamPKy
	.cfi_startproc
# %bb.0:                                # %entry
	addi.d	$sp, $sp, -32
	.cfi_def_cfa_offset 32
	st.d	$ra, $sp, 24                    # 8-byte Folded Spill
	st.d	$fp, $sp, 16                    # 8-byte Folded Spill
	st.d	$s0, $sp, 8                     # 8-byte Folded Spill
	st.d	$s1, $sp, 0                     # 8-byte Folded Spill
	.cfi_offset 1, -8
	.cfi_offset 22, -16
	.cfi_offset 23, -24
	.cfi_offset 24, -32
	move	$fp, $a0
	ld.d	$a0, $a0, 0
	move	$s1, $a2
	move	$s0, $a1
	st.d	$zero, $fp, 88
	beqz	$a0, .LBB16_2
# %bb.1:                                # %if.then.i.i
	ld.d	$a1, $a0, 0
	ld.d	$a1, $a1, 16
	jirl	$ra, $a1, 0
	st.d	$zero, $fp, 0
.LBB16_2:                               # %_ZN8NArchive3N7z10CInArchive5CloseEv.exit
	ld.d	$a0, $s0, 0
	ld.d	$a4, $a0, 48
	addi.d	$a3, $fp, 48
	ori	$a2, $zero, 1
	move	$a0, $s0
	move	$a1, $zero
	jirl	$ra, $a4, 0
	bnez	$a0, .LBB16_7
# %bb.3:                                # %cleanup.cont
	move	$a0, $fp
	move	$a1, $s0
	move	$a2, $s1
	pcaddu18i	$ra, %call36(_ZN8NArchive3N7z10CInArchive20FindAndReadSignatureEP9IInStreamPKy)
	jirl	$ra, $ra, 0
	bnez	$a0, .LBB16_7
# %bb.4:                                # %if.end.i
	ld.d	$a0, $s0, 0
	ld.d	$a1, $a0, 8
	move	$a0, $s0
	jirl	$ra, $a1, 0
	ld.d	$a0, $fp, 0
	beqz	$a0, .LBB16_6
# %bb.5:                                # %if.then2.i
	ld.d	$a1, $a0, 0
	ld.d	$a1, $a1, 16
	jirl	$ra, $a1, 0
.LBB16_6:                               # %_ZN9CMyComPtrI9IInStreamEaSEPS0_.exit
	move	$a0, $zero
	st.d	$s0, $fp, 0
.LBB16_7:                               # %return
	ld.d	$s1, $sp, 0                     # 8-byte Folded Reload
	ld.d	$s0, $sp, 8                     # 8-byte Folded Reload
	ld.d	$fp, $sp, 16                    # 8-byte Folded Reload
	ld.d	$ra, $sp, 24                    # 8-byte Folded Reload
	addi.d	$sp, $sp, 32
	ret
.Lfunc_end16:
	.size	_ZN8NArchive3N7z10CInArchive4OpenEP9IInStreamPKy, .Lfunc_end16-_ZN8NArchive3N7z10CInArchive4OpenEP9IInStreamPKy
	.cfi_endproc
                                        # -- End function
	.globl	_ZN8NArchive3N7z10CInArchive5CloseEv # -- Begin function _ZN8NArchive3N7z10CInArchive5CloseEv
	.p2align	2
	.type	_ZN8NArchive3N7z10CInArchive5CloseEv,@function
_ZN8NArchive3N7z10CInArchive5CloseEv:   # @_ZN8NArchive3N7z10CInArchive5CloseEv
	.cfi_startproc
# %bb.0:                                # %entry
	addi.d	$sp, $sp, -16
	.cfi_def_cfa_offset 16
	st.d	$ra, $sp, 8                     # 8-byte Folded Spill
	st.d	$fp, $sp, 0                     # 8-byte Folded Spill
	.cfi_offset 1, -8
	.cfi_offset 22, -16
	move	$fp, $a0
	ld.d	$a0, $a0, 0
	beqz	$a0, .LBB17_2
# %bb.1:                                # %if.then.i
	ld.d	$a1, $a0, 0
	ld.d	$a1, $a1, 16
	jirl	$ra, $a1, 0
	st.d	$zero, $fp, 0
.LBB17_2:                               # %_ZN9CMyComPtrI9IInStreamE7ReleaseEv.exit
	ld.d	$fp, $sp, 0                     # 8-byte Folded Reload
	ld.d	$ra, $sp, 8                     # 8-byte Folded Reload
	addi.d	$sp, $sp, 16
	ret
.Lfunc_end17:
	.size	_ZN8NArchive3N7z10CInArchive5CloseEv, .Lfunc_end17-_ZN8NArchive3N7z10CInArchive5CloseEv
	.cfi_endproc
                                        # -- End function
	.globl	_ZN8NArchive3N7z10CInArchive21ReadArchivePropertiesERNS0_14CInArchiveInfoE # -- Begin function _ZN8NArchive3N7z10CInArchive21ReadArchivePropertiesERNS0_14CInArchiveInfoE
	.p2align	2
	.type	_ZN8NArchive3N7z10CInArchive21ReadArchivePropertiesERNS0_14CInArchiveInfoE,@function
_ZN8NArchive3N7z10CInArchive21ReadArchivePropertiesERNS0_14CInArchiveInfoE: # @_ZN8NArchive3N7z10CInArchive21ReadArchivePropertiesERNS0_14CInArchiveInfoE
	.cfi_startproc
# %bb.0:                                # %entry
	addi.d	$sp, $sp, -32
	.cfi_def_cfa_offset 32
	st.d	$ra, $sp, 24                    # 8-byte Folded Spill
	st.d	$fp, $sp, 16                    # 8-byte Folded Spill
	st.d	$s0, $sp, 8                     # 8-byte Folded Spill
	.cfi_offset 1, -8
	.cfi_offset 22, -16
	.cfi_offset 23, -24
	move	$fp, $a0
	ld.d	$a0, $a0, 40
	pcaddu18i	$ra, %call36(_ZN8NArchive3N7z8CInByte210ReadNumberEv)
	jirl	$ra, $ra, 0
	beqz	$a0, .LBB18_3
	.p2align	4, , 16
.LBB18_1:                               # %if.end
                                        # =>This Inner Loop Header: Depth=1
	ld.d	$s0, $fp, 40
	move	$a0, $s0
	pcaddu18i	$ra, %call36(_ZN8NArchive3N7z8CInByte210ReadNumberEv)
	jirl	$ra, $ra, 0
	ld.d	$a1, $s0, 8
	ld.d	$a2, $s0, 16
	sub.d	$a1, $a1, $a2
	bltu	$a1, $a0, .LBB18_4
# %bb.2:                                # %_ZN8NArchive3N7z10CInArchive8SkipDataEv.exit
                                        #   in Loop: Header=BB18_1 Depth=1
	ld.d	$a1, $fp, 40
	add.d	$a0, $a2, $a0
	st.d	$a0, $s0, 16
	move	$a0, $a1
	pcaddu18i	$ra, %call36(_ZN8NArchive3N7z8CInByte210ReadNumberEv)
	jirl	$ra, $ra, 0
	bnez	$a0, .LBB18_1
.LBB18_3:                               # %for.end
	ld.d	$s0, $sp, 8                     # 8-byte Folded Reload
	ld.d	$fp, $sp, 16                    # 8-byte Folded Reload
	ld.d	$ra, $sp, 24                    # 8-byte Folded Reload
	addi.d	$sp, $sp, 32
	ret
.LBB18_4:                               # %if.then.i.i.i
	pcaddu18i	$ra, %call36(_ZN8NArchive3N7zL14ThrowExceptionEv)
	jirl	$ra, $ra, 0
.Lfunc_end18:
	.size	_ZN8NArchive3N7z10CInArchive21ReadArchivePropertiesERNS0_14CInArchiveInfoE, .Lfunc_end18-_ZN8NArchive3N7z10CInArchive21ReadArchivePropertiesERNS0_14CInArchiveInfoE
	.cfi_endproc
                                        # -- End function
	.globl	_ZN8NArchive3N7z10CInArchive17GetNextFolderItemERNS0_7CFolderE # -- Begin function _ZN8NArchive3N7z10CInArchive17GetNextFolderItemERNS0_7CFolderE
	.p2align	2
	.type	_ZN8NArchive3N7z10CInArchive17GetNextFolderItemERNS0_7CFolderE,@function
_ZN8NArchive3N7z10CInArchive17GetNextFolderItemERNS0_7CFolderE: # @_ZN8NArchive3N7z10CInArchive17GetNextFolderItemERNS0_7CFolderE
	.cfi_startproc
# %bb.0:                                # %entry
	addi.d	$sp, $sp, -176
	.cfi_def_cfa_offset 176
	st.d	$ra, $sp, 168                   # 8-byte Folded Spill
	st.d	$fp, $sp, 160                   # 8-byte Folded Spill
	st.d	$s0, $sp, 152                   # 8-byte Folded Spill
	st.d	$s1, $sp, 144                   # 8-byte Folded Spill
	st.d	$s2, $sp, 136                   # 8-byte Folded Spill
	st.d	$s3, $sp, 128                   # 8-byte Folded Spill
	st.d	$s4, $sp, 120                   # 8-byte Folded Spill
	st.d	$s5, $sp, 112                   # 8-byte Folded Spill
	st.d	$s6, $sp, 104                   # 8-byte Folded Spill
	st.d	$s7, $sp, 96                    # 8-byte Folded Spill
	st.d	$s8, $sp, 88                    # 8-byte Folded Spill
	.cfi_offset 1, -8
	.cfi_offset 22, -16
	.cfi_offset 23, -24
	.cfi_offset 24, -32
	.cfi_offset 25, -40
	.cfi_offset 26, -48
	.cfi_offset 27, -56
	.cfi_offset 28, -64
	.cfi_offset 29, -72
	.cfi_offset 30, -80
	.cfi_offset 31, -88
	move	$s0, $a0
	ld.d	$a0, $a0, 40
	move	$fp, $a1
	pcaddu18i	$ra, %call36(_ZN8NArchive3N7z8CInByte210ReadNumberEv)
	jirl	$ra, $ra, 0
	move	$s1, $a0
	srli.d	$a0, $a0, 31
	bnez	$a0, .LBB19_55
# %bb.1:                                # %_ZN8NArchive3N7z10CInArchive7ReadNumEv.exit
	move	$a0, $fp
	pcaddu18i	$ra, %call36(_ZN17CBaseRecordVector5ClearEv)
	jirl	$ra, $ra, 0
	move	$a0, $fp
	move	$a1, $s1
	pcaddu18i	$ra, %call36(_ZN17CBaseRecordVector7ReserveEi)
	jirl	$ra, $ra, 0
	st.d	$s0, $sp, 64                    # 8-byte Folded Spill
	move	$s4, $zero
	beqz	$s1, .LBB19_33
# %bb.2:                                # %for.body.lr.ph
	move	$s3, $zero
	move	$s5, $zero
	addi.d	$s6, $sp, 72
	pcalau12i	$a0, %pc_hi20(_ZTV7CBufferIhE+16)
	addi.d	$a0, $a0, %pc_lo12(_ZTV7CBufferIhE+16)
	st.d	$a0, $sp, 56                    # 8-byte Folded Spill
	vrepli.b	$vr0, 0
	vst	$vr0, $sp, 32                   # 16-byte Folded Spill
	addi.w	$a0, $zero, -1
	st.d	$a0, $sp, 24                    # 8-byte Folded Spill
	addi.w	$a0, $s1, 0
	st.d	$a0, $sp, 16                    # 8-byte Folded Spill
	.p2align	4, , 16
.LBB19_3:                               # %for.body
                                        # =>This Loop Header: Depth=1
                                        #     Child Loop BB19_7 Depth 2
                                        #     Child Loop BB19_10 Depth 2
                                        #     Child Loop BB19_28 Depth 2
	ori	$a0, $zero, 40
	pcaddu18i	$ra, %call36(_Znwm)
	jirl	$ra, $ra, 0
	move	$s1, $a0
	st.d	$zero, $a0, 0
	ld.d	$a0, $sp, 56                    # 8-byte Folded Reload
	st.d	$a0, $s1, 8
	st.d	$zero, $s1, 16
	vld	$vr0, $sp, 32                   # 16-byte Folded Reload
	vst	$vr0, $s1, 24
	move	$a0, $fp
	pcaddu18i	$ra, %call36(_ZN17CBaseRecordVector18ReserveOnePositionEv)
	jirl	$ra, $ra, 0
	ld.w	$a1, $fp, 12
	ld.d	$a0, $fp, 16
	slli.d	$a2, $a1, 3
	stx.d	$s1, $a0, $a2
	ld.d	$a0, $s0, 40
	ld.d	$a2, $a0, 16
	ld.d	$a3, $a0, 8
	addi.w	$a1, $a1, 1
	st.w	$a1, $fp, 12
	bgeu	$a2, $a3, .LBB19_55
# %bb.4:                                # %_ZN8NArchive3N7z10CInArchive8ReadByteEv.exit
                                        #   in Loop: Header=BB19_3 Depth=1
	ld.d	$a4, $a0, 0
	ld.d	$a5, $fp, 16
	addi.d	$a6, $a2, 1
	st.d	$a6, $a0, 16
	ldx.bu	$s7, $a4, $a2
	alsl.d	$a1, $a1, $a5, 3
	ld.d	$s8, $a1, -8
	andi	$a1, $s7, 15
	sub.d	$a3, $a3, $a6
	bltu	$a3, $a1, .LBB19_55
# %bb.5:                                # %for.cond.preheader.i.i
                                        #   in Loop: Header=BB19_3 Depth=1
	beqz	$a1, .LBB19_13
# %bb.6:                                # %for.body.i.i.preheader
                                        #   in Loop: Header=BB19_3 Depth=1
	addi.d	$a3, $a4, 1
	addi.d	$a4, $sp, 73
	move	$a5, $a1
	.p2align	4, , 16
.LBB19_7:                               # %for.body.i.i
                                        #   Parent Loop BB19_3 Depth=1
                                        # =>  This Inner Loop Header: Depth=2
	addi.d	$a6, $a2, 2
	st.d	$a6, $a0, 16
	ldx.b	$a6, $a3, $a2
	st.b	$a6, $a4, 0
	addi.d	$a2, $a2, 1
	addi.d	$a5, $a5, -1
	addi.d	$a4, $a4, 1
	bnez	$a5, .LBB19_7
# %bb.8:                                # %_ZN8NArchive3N7z10CInArchive9ReadBytesEPhm.exit
                                        #   in Loop: Header=BB19_3 Depth=1
	ori	$a2, $zero, 8
	bltu	$a2, $a1, .LBB19_55
# %bb.9:                                # %for.body12.preheader
                                        #   in Loop: Header=BB19_3 Depth=1
	move	$a3, $zero
	move	$a2, $zero
	.p2align	4, , 16
.LBB19_10:                              # %for.body12
                                        #   Parent Loop BB19_3 Depth=1
                                        # =>  This Inner Loop Header: Depth=2
	ldx.bu	$a4, $s6, $a1
	sll.d	$a4, $a4, $a3
	or	$a2, $a4, $a2
	addi.d	$a1, $a1, -1
	addi.d	$a3, $a3, 8
	bnez	$a1, .LBB19_10
# %bb.11:                               # %for.cond.cleanup
                                        #   in Loop: Header=BB19_3 Depth=1
	andi	$a1, $s7, 16
	st.d	$a2, $s8, 0
	bnez	$a1, .LBB19_14
.LBB19_12:                              # %if.else
                                        #   in Loop: Header=BB19_3 Depth=1
	ori	$a0, $zero, 1
	st.w	$a0, $s8, 32
	b	.LBB19_16
	.p2align	4, , 16
.LBB19_13:                              #   in Loop: Header=BB19_3 Depth=1
	move	$a2, $zero
	andi	$a1, $s7, 16
	st.d	$a2, $s8, 0
	beqz	$a1, .LBB19_12
.LBB19_14:                              # %if.then18
                                        #   in Loop: Header=BB19_3 Depth=1
	pcaddu18i	$ra, %call36(_ZN8NArchive3N7z8CInByte210ReadNumberEv)
	jirl	$ra, $ra, 0
	srli.d	$a1, $a0, 31
	bnez	$a1, .LBB19_55
# %bb.15:                               # %_ZN8NArchive3N7z10CInArchive7ReadNumEv.exit76
                                        #   in Loop: Header=BB19_3 Depth=1
	ld.d	$a1, $s0, 40
	st.w	$a0, $s8, 32
	move	$a0, $a1
	pcaddu18i	$ra, %call36(_ZN8NArchive3N7z8CInByte210ReadNumberEv)
	jirl	$ra, $ra, 0
	srli.d	$a1, $a0, 31
	bnez	$a1, .LBB19_55
.LBB19_16:                              # %if.end23
                                        #   in Loop: Header=BB19_3 Depth=1
	andi	$a1, $s7, 32
	st.w	$a0, $s8, 36
	beqz	$a1, .LBB19_29
# %bb.17:                               # %if.then27
                                        #   in Loop: Header=BB19_3 Depth=1
	ld.d	$a0, $s0, 40
	pcaddu18i	$ra, %call36(_ZN8NArchive3N7z8CInByte210ReadNumberEv)
	jirl	$ra, $ra, 0
	move	$s1, $a0
	srli.d	$a0, $a0, 31
	bnez	$a0, .LBB19_55
# %bb.18:                               # %_ZN8NArchive3N7z10CInArchive7ReadNumEv.exit88
                                        #   in Loop: Header=BB19_3 Depth=1
	ld.d	$s0, $s8, 16
	bne	$s1, $s0, .LBB19_20
# %bb.19:                               # %_ZN8NArchive3N7z10CInArchive7ReadNumEv.exit88._ZN7CBufferIhE11SetCapacityEm.exit_crit_edge
                                        #   in Loop: Header=BB19_3 Depth=1
	ld.d	$s2, $s8, 24
	ld.d	$s0, $sp, 64                    # 8-byte Folded Reload
	b	.LBB19_26
	.p2align	4, , 16
.LBB19_20:                              # %if.end.i
                                        #   in Loop: Header=BB19_3 Depth=1
	beqz	$s1, .LBB19_31
# %bb.21:                               # %if.then3.i
                                        #   in Loop: Header=BB19_3 Depth=1
	move	$a0, $s1
	pcaddu18i	$ra, %call36(_Znam)
	jirl	$ra, $ra, 0
	move	$s2, $a0
	beqz	$s0, .LBB19_23
# %bb.22:                               # %if.then6.i
                                        #   in Loop: Header=BB19_3 Depth=1
	ld.d	$a1, $s8, 24
	sltu	$a0, $s0, $s1
	masknez	$a2, $s1, $a0
	maskeqz	$a0, $s0, $a0
	or	$a2, $a0, $a2
	move	$a0, $s2
	pcaddu18i	$ra, %call36(memmove)
	jirl	$ra, $ra, 0
.LBB19_23:                              # %if.end10.i
                                        #   in Loop: Header=BB19_3 Depth=1
	ld.d	$a0, $s8, 24
	ld.d	$s0, $sp, 64                    # 8-byte Folded Reload
	beqz	$a0, .LBB19_25
.LBB19_24:                              # %delete.notnull.i
                                        #   in Loop: Header=BB19_3 Depth=1
	pcaddu18i	$ra, %call36(_ZdaPv)
	jirl	$ra, $ra, 0
.LBB19_25:                              # %delete.end.i
                                        #   in Loop: Header=BB19_3 Depth=1
	st.d	$s2, $s8, 24
	st.d	$s1, $s8, 16
.LBB19_26:                              # %_ZN7CBufferIhE11SetCapacityEm.exit
                                        #   in Loop: Header=BB19_3 Depth=1
	ld.d	$a0, $s0, 40
	ld.d	$a1, $a0, 8
	ld.d	$a2, $a0, 16
	sub.d	$a1, $a1, $a2
	bltu	$a1, $s1, .LBB19_55
# %bb.27:                               # %for.cond.preheader.i.i95
                                        #   in Loop: Header=BB19_3 Depth=1
	beqz	$s1, .LBB19_29
	.p2align	4, , 16
.LBB19_28:                              # %for.body.i.i97
                                        #   Parent Loop BB19_3 Depth=1
                                        # =>  This Inner Loop Header: Depth=2
	ld.d	$a1, $a0, 16
	ld.d	$a2, $a0, 0
	addi.d	$a3, $a1, 1
	st.d	$a3, $a0, 16
	ldx.b	$a1, $a2, $a1
	st.b	$a1, $s2, 0
	addi.d	$s1, $s1, -1
	addi.d	$s2, $s2, 1
	bnez	$s1, .LBB19_28
.LBB19_29:                              # %if.end33
                                        #   in Loop: Header=BB19_3 Depth=1
	ext.w.b	$a0, $s7
	ld.d	$a1, $sp, 24                    # 8-byte Folded Reload
	bge	$a1, $a0, .LBB19_55
# %bb.30:                               # %if.end38
                                        #   in Loop: Header=BB19_3 Depth=1
	ld.w	$a0, $s8, 32
	ld.w	$a1, $s8, 36
	add.w	$s4, $a0, $s4
	addi.w	$s5, $s5, 1
	add.d	$s3, $a1, $s3
	ld.d	$a0, $sp, 16                    # 8-byte Folded Reload
	bne	$s5, $a0, .LBB19_3
	b	.LBB19_32
.LBB19_31:                              #   in Loop: Header=BB19_3 Depth=1
	move	$s2, $zero
	ld.d	$a0, $s8, 24
	ld.d	$s0, $sp, 64                    # 8-byte Folded Reload
	bnez	$a0, .LBB19_24
	b	.LBB19_25
.LBB19_32:                              # %for.end44.loopexit
	addi.w	$s2, $s3, -1
	b	.LBB19_34
.LBB19_33:
	addi.w	$s2, $zero, -1
.LBB19_34:                              # %for.end44
	addi.d	$s1, $fp, 32
	move	$a0, $s1
	pcaddu18i	$ra, %call36(_ZN17CBaseRecordVector5ClearEv)
	jirl	$ra, $ra, 0
	move	$a0, $s1
	move	$a1, $s2
	pcaddu18i	$ra, %call36(_ZN17CBaseRecordVector7ReserveEi)
	jirl	$ra, $ra, 0
	beqz	$s2, .LBB19_39
# %bb.35:                               # %for.body49.lr.ph
	move	$s5, $s2
	.p2align	4, , 16
.LBB19_36:                              # %for.body49
                                        # =>This Inner Loop Header: Depth=1
	ld.d	$a0, $s0, 40
	pcaddu18i	$ra, %call36(_ZN8NArchive3N7z8CInByte210ReadNumberEv)
	jirl	$ra, $ra, 0
	move	$s3, $a0
	srli.d	$a0, $a0, 31
	bnez	$a0, .LBB19_55
# %bb.37:                               # %_ZN8NArchive3N7z10CInArchive7ReadNumEv.exit112
                                        #   in Loop: Header=BB19_36 Depth=1
	ld.d	$a0, $s0, 40
	pcaddu18i	$ra, %call36(_ZN8NArchive3N7z8CInByte210ReadNumberEv)
	jirl	$ra, $ra, 0
	srli.d	$a1, $a0, 31
	bnez	$a1, .LBB19_55
# %bb.38:                               # %_ZN8NArchive3N7z10CInArchive7ReadNumEv.exit118
                                        #   in Loop: Header=BB19_36 Depth=1
	slli.d	$a0, $a0, 32
	or	$s0, $a0, $s3
	move	$a0, $s1
	pcaddu18i	$ra, %call36(_ZN17CBaseRecordVector18ReserveOnePositionEv)
	jirl	$ra, $ra, 0
	ld.w	$a0, $fp, 44
	ld.d	$a1, $fp, 48
	slli.d	$a0, $a0, 3
	stx.d	$s0, $a1, $a0
	ld.w	$a0, $fp, 44
	addi.d	$a0, $a0, 1
	addi.w	$s5, $s5, -1
	st.w	$a0, $fp, 44
	ld.d	$s0, $sp, 64                    # 8-byte Folded Reload
	bnez	$s5, .LBB19_36
.LBB19_39:                              # %for.end56
	bltu	$s4, $s2, .LBB19_55
# %bb.40:                               # %if.end59
	sub.w	$s3, $s4, $s2
	addi.d	$s1, $fp, 64
	move	$a0, $s1
	move	$a1, $s3
	pcaddu18i	$ra, %call36(_ZN17CBaseRecordVector7ReserveEi)
	jirl	$ra, $ra, 0
	ori	$a0, $zero, 1
	bne	$s3, $a0, .LBB19_48
# %bb.41:                               # %for.cond63.preheader
	beqz	$s4, .LBB19_53
# %bb.42:                               # %for.body65.lr.ph
	ld.w	$a1, $fp, 44
	ori	$a0, $zero, 1
	blt	$a1, $a0, .LBB19_51
# %bb.43:                               # %for.body65.us.preheader
	ld.d	$a0, $fp, 48
	move	$s0, $zero
	bstrpick.d	$a1, $a1, 31, 0
.LBB19_44:                              # %for.body65.us
                                        # =>This Loop Header: Depth=1
                                        #     Child Loop BB19_45 Depth 2
	move	$a2, $a0
	move	$a3, $a1
	.p2align	4, , 16
.LBB19_45:                              # %for.body.i.us
                                        #   Parent Loop BB19_44 Depth=1
                                        # =>  This Inner Loop Header: Depth=2
	ld.w	$a4, $a2, 0
	beq	$a4, $s0, .LBB19_47
# %bb.46:                               # %for.inc.i.us
                                        #   in Loop: Header=BB19_45 Depth=2
	addi.d	$a3, $a3, -1
	addi.d	$a2, $a2, 8
	bnez	$a3, .LBB19_45
	b	.LBB19_52
.LBB19_47:                              # %for.inc72.us
                                        #   in Loop: Header=BB19_44 Depth=1
	addi.w	$s0, $s0, 1
	bne	$s0, $s4, .LBB19_44
	b	.LBB19_53
.LBB19_48:                              # %for.cond81.preheader
	beq	$s4, $s2, .LBB19_54
	.p2align	4, , 16
.LBB19_49:                              # %for.body83
                                        # =>This Inner Loop Header: Depth=1
	ld.d	$a0, $s0, 40
	pcaddu18i	$ra, %call36(_ZN8NArchive3N7z8CInByte210ReadNumberEv)
	jirl	$ra, $ra, 0
	move	$s2, $a0
	srli.d	$a0, $a0, 31
	bnez	$a0, .LBB19_55
# %bb.50:                               # %_ZN8NArchive3N7z10CInArchive7ReadNumEv.exit137
                                        #   in Loop: Header=BB19_49 Depth=1
	move	$a0, $s1
	pcaddu18i	$ra, %call36(_ZN17CBaseRecordVector18ReserveOnePositionEv)
	jirl	$ra, $ra, 0
	ld.w	$a0, $fp, 76
	ld.d	$a1, $fp, 80
	slli.d	$a0, $a0, 2
	stx.w	$s2, $a1, $a0
	ld.w	$a0, $fp, 76
	addi.d	$a0, $a0, 1
	addi.w	$s3, $s3, -1
	st.w	$a0, $fp, 76
	bnez	$s3, .LBB19_49
	b	.LBB19_54
.LBB19_51:
	move	$s0, $zero
.LBB19_52:                              # %if.then68
	move	$a0, $s1
	pcaddu18i	$ra, %call36(_ZN17CBaseRecordVector18ReserveOnePositionEv)
	jirl	$ra, $ra, 0
	ld.w	$a0, $fp, 76
	ld.d	$a1, $fp, 80
	slli.d	$a0, $a0, 2
	stx.w	$s0, $a1, $a0
	ld.w	$a0, $fp, 76
	addi.d	$a0, $a0, 1
	st.w	$a0, $fp, 76
.LBB19_53:                              # %for.end74
	ld.w	$a0, $fp, 76
	ori	$a1, $zero, 1
	bne	$a0, $a1, .LBB19_55
.LBB19_54:                              # %if.end90
	ld.d	$s8, $sp, 88                    # 8-byte Folded Reload
	ld.d	$s7, $sp, 96                    # 8-byte Folded Reload
	ld.d	$s6, $sp, 104                   # 8-byte Folded Reload
	ld.d	$s5, $sp, 112                   # 8-byte Folded Reload
	ld.d	$s4, $sp, 120                   # 8-byte Folded Reload
	ld.d	$s3, $sp, 128                   # 8-byte Folded Reload
	ld.d	$s2, $sp, 136                   # 8-byte Folded Reload
	ld.d	$s1, $sp, 144                   # 8-byte Folded Reload
	ld.d	$s0, $sp, 152                   # 8-byte Folded Reload
	ld.d	$fp, $sp, 160                   # 8-byte Folded Reload
	ld.d	$ra, $sp, 168                   # 8-byte Folded Reload
	addi.d	$sp, $sp, 176
	ret
.LBB19_55:                              # %if.then.i.i
	pcaddu18i	$ra, %call36(_ZN8NArchive3N7zL14ThrowExceptionEv)
	jirl	$ra, $ra, 0
.Lfunc_end19:
	.size	_ZN8NArchive3N7z10CInArchive17GetNextFolderItemERNS0_7CFolderE, .Lfunc_end19-_ZN8NArchive3N7z10CInArchive17GetNextFolderItemERNS0_7CFolderE
	.cfi_endproc
                                        # -- End function
	.globl	_ZN8NArchive3N7z10CInArchive13WaitAttributeEy # -- Begin function _ZN8NArchive3N7z10CInArchive13WaitAttributeEy
	.p2align	2
	.type	_ZN8NArchive3N7z10CInArchive13WaitAttributeEy,@function
_ZN8NArchive3N7z10CInArchive13WaitAttributeEy: # @_ZN8NArchive3N7z10CInArchive13WaitAttributeEy
	.cfi_startproc
# %bb.0:                                # %entry
	addi.d	$sp, $sp, -32
	.cfi_def_cfa_offset 32
	st.d	$ra, $sp, 24                    # 8-byte Folded Spill
	st.d	$fp, $sp, 16                    # 8-byte Folded Spill
	st.d	$s0, $sp, 8                     # 8-byte Folded Spill
	st.d	$s1, $sp, 0                     # 8-byte Folded Spill
	.cfi_offset 1, -8
	.cfi_offset 22, -16
	.cfi_offset 23, -24
	.cfi_offset 24, -32
	move	$fp, $a0
	ld.d	$a0, $a0, 40
	move	$s0, $a1
	pcaddu18i	$ra, %call36(_ZN8NArchive3N7z8CInByte210ReadNumberEv)
	jirl	$ra, $ra, 0
	beq	$a0, $s0, .LBB20_4
	.p2align	4, , 16
.LBB20_1:                               # %if.end
                                        # =>This Inner Loop Header: Depth=1
	beqz	$a0, .LBB20_5
# %bb.2:                                # %if.end4
                                        #   in Loop: Header=BB20_1 Depth=1
	ld.d	$s1, $fp, 40
	move	$a0, $s1
	pcaddu18i	$ra, %call36(_ZN8NArchive3N7z8CInByte210ReadNumberEv)
	jirl	$ra, $ra, 0
	ld.d	$a1, $s1, 8
	ld.d	$a2, $s1, 16
	sub.d	$a1, $a1, $a2
	bltu	$a1, $a0, .LBB20_5
# %bb.3:                                # %cleanup
                                        #   in Loop: Header=BB20_1 Depth=1
	ld.d	$a1, $fp, 40
	add.d	$a0, $a2, $a0
	st.d	$a0, $s1, 16
	move	$a0, $a1
	pcaddu18i	$ra, %call36(_ZN8NArchive3N7z8CInByte210ReadNumberEv)
	jirl	$ra, $ra, 0
	bne	$a0, $s0, .LBB20_1
.LBB20_4:                               # %return
	ld.d	$s1, $sp, 0                     # 8-byte Folded Reload
	ld.d	$s0, $sp, 8                     # 8-byte Folded Reload
	ld.d	$fp, $sp, 16                    # 8-byte Folded Reload
	ld.d	$ra, $sp, 24                    # 8-byte Folded Reload
	addi.d	$sp, $sp, 32
	ret
.LBB20_5:                               # %if.then3
	pcaddu18i	$ra, %call36(_ZN8NArchive3N7zL14ThrowExceptionEv)
	jirl	$ra, $ra, 0
.Lfunc_end20:
	.size	_ZN8NArchive3N7z10CInArchive13WaitAttributeEy, .Lfunc_end20-_ZN8NArchive3N7z10CInArchive13WaitAttributeEy
	.cfi_endproc
                                        # -- End function
	.globl	_ZN8NArchive3N7z10CInArchive15ReadHashDigestsEiR13CRecordVectorIbERS2_IjE # -- Begin function _ZN8NArchive3N7z10CInArchive15ReadHashDigestsEiR13CRecordVectorIbERS2_IjE
	.p2align	2
	.type	_ZN8NArchive3N7z10CInArchive15ReadHashDigestsEiR13CRecordVectorIbERS2_IjE,@function
_ZN8NArchive3N7z10CInArchive15ReadHashDigestsEiR13CRecordVectorIbERS2_IjE: # @_ZN8NArchive3N7z10CInArchive15ReadHashDigestsEiR13CRecordVectorIbERS2_IjE
	.cfi_startproc
# %bb.0:                                # %entry
	addi.d	$sp, $sp, -80
	.cfi_def_cfa_offset 80
	st.d	$ra, $sp, 72                    # 8-byte Folded Spill
	st.d	$fp, $sp, 64                    # 8-byte Folded Spill
	st.d	$s0, $sp, 56                    # 8-byte Folded Spill
	st.d	$s1, $sp, 48                    # 8-byte Folded Spill
	st.d	$s2, $sp, 40                    # 8-byte Folded Spill
	st.d	$s3, $sp, 32                    # 8-byte Folded Spill
	st.d	$s4, $sp, 24                    # 8-byte Folded Spill
	st.d	$s5, $sp, 16                    # 8-byte Folded Spill
	.cfi_offset 1, -8
	.cfi_offset 22, -16
	.cfi_offset 23, -24
	.cfi_offset 24, -32
	.cfi_offset 25, -40
	.cfi_offset 26, -48
	.cfi_offset 27, -56
	.cfi_offset 28, -64
	move	$fp, $a3
	move	$s0, $a2
	move	$s1, $a1
	move	$s2, $a0
	pcaddu18i	$ra, %call36(_ZN8NArchive3N7z10CInArchive15ReadBoolVector2EiR13CRecordVectorIbE)
	jirl	$ra, $ra, 0
	move	$a0, $fp
	pcaddu18i	$ra, %call36(_ZN17CBaseRecordVector5ClearEv)
	jirl	$ra, $ra, 0
	move	$a0, $fp
	move	$a1, $s1
	pcaddu18i	$ra, %call36(_ZN17CBaseRecordVector7ReserveEi)
	jirl	$ra, $ra, 0
	ori	$s3, $zero, 1
	blt	$s1, $s3, .LBB21_7
# %bb.1:                                # %for.body.lr.ph
	move	$s4, $zero
	b	.LBB21_4
	.p2align	4, , 16
.LBB21_2:                               #   in Loop: Header=BB21_4 Depth=1
	move	$s5, $zero
.LBB21_3:                               # %if.end
                                        #   in Loop: Header=BB21_4 Depth=1
	move	$a0, $fp
	pcaddu18i	$ra, %call36(_ZN17CBaseRecordVector18ReserveOnePositionEv)
	jirl	$ra, $ra, 0
	ld.w	$a0, $fp, 12
	ld.d	$a1, $fp, 16
	slli.d	$a0, $a0, 2
	stx.w	$s5, $a1, $a0
	ld.w	$a0, $fp, 12
	addi.d	$a0, $a0, 1
	addi.d	$s4, $s4, 1
	st.w	$a0, $fp, 12
	beq	$s1, $s4, .LBB21_7
.LBB21_4:                               # %for.body
                                        # =>This Inner Loop Header: Depth=1
	ld.d	$a0, $s0, 16
	ldx.bu	$a0, $a0, $s4
	bne	$a0, $s3, .LBB21_2
# %bb.5:                                # %if.then
                                        #   in Loop: Header=BB21_4 Depth=1
	ld.d	$a0, $s2, 40
	ld.d	$a1, $a0, 16
	ld.d	$a3, $a0, 8
	addi.d	$a2, $a1, 4
	bltu	$a3, $a2, .LBB21_8
# %bb.6:                                # %_ZN8NArchive3N7z10CInArchive10ReadUInt32Ev.exit
                                        #   in Loop: Header=BB21_4 Depth=1
	ld.d	$a3, $a0, 0
	ldx.w	$s5, $a3, $a1
	st.d	$a2, $a0, 16
	b	.LBB21_3
.LBB21_7:                               # %for.cond.cleanup
	ld.d	$s5, $sp, 16                    # 8-byte Folded Reload
	ld.d	$s4, $sp, 24                    # 8-byte Folded Reload
	ld.d	$s3, $sp, 32                    # 8-byte Folded Reload
	ld.d	$s2, $sp, 40                    # 8-byte Folded Reload
	ld.d	$s1, $sp, 48                    # 8-byte Folded Reload
	ld.d	$s0, $sp, 56                    # 8-byte Folded Reload
	ld.d	$fp, $sp, 64                    # 8-byte Folded Reload
	ld.d	$ra, $sp, 72                    # 8-byte Folded Reload
	addi.d	$sp, $sp, 80
	ret
.LBB21_8:                               # %if.then.i.i
	pcaddu18i	$ra, %call36(_ZN8NArchive3N7zL14ThrowExceptionEv)
	jirl	$ra, $ra, 0
.Lfunc_end21:
	.size	_ZN8NArchive3N7z10CInArchive15ReadHashDigestsEiR13CRecordVectorIbERS2_IjE, .Lfunc_end21-_ZN8NArchive3N7z10CInArchive15ReadHashDigestsEiR13CRecordVectorIbERS2_IjE
	.cfi_endproc
                                        # -- End function
	.globl	_ZN8NArchive3N7z10CInArchive15ReadBoolVector2EiR13CRecordVectorIbE # -- Begin function _ZN8NArchive3N7z10CInArchive15ReadBoolVector2EiR13CRecordVectorIbE
	.p2align	2
	.type	_ZN8NArchive3N7z10CInArchive15ReadBoolVector2EiR13CRecordVectorIbE,@function
_ZN8NArchive3N7z10CInArchive15ReadBoolVector2EiR13CRecordVectorIbE: # @_ZN8NArchive3N7z10CInArchive15ReadBoolVector2EiR13CRecordVectorIbE
	.cfi_startproc
# %bb.0:                                # %entry
	addi.d	$sp, $sp, -64
	.cfi_def_cfa_offset 64
	st.d	$ra, $sp, 56                    # 8-byte Folded Spill
	st.d	$fp, $sp, 48                    # 8-byte Folded Spill
	st.d	$s0, $sp, 40                    # 8-byte Folded Spill
	st.d	$s1, $sp, 32                    # 8-byte Folded Spill
	st.d	$s2, $sp, 24                    # 8-byte Folded Spill
	st.d	$s3, $sp, 16                    # 8-byte Folded Spill
	st.d	$s4, $sp, 8                     # 8-byte Folded Spill
	.cfi_offset 1, -8
	.cfi_offset 22, -16
	.cfi_offset 23, -24
	.cfi_offset 24, -32
	.cfi_offset 25, -40
	.cfi_offset 26, -48
	.cfi_offset 27, -56
	move	$s1, $a0
	ld.d	$a0, $a0, 40
	ld.d	$a3, $a0, 16
	ld.d	$a4, $a0, 8
	bgeu	$a3, $a4, .LBB22_10
# %bb.1:                                # %_ZN8NArchive3N7z10CInArchive8ReadByteEv.exit
	move	$fp, $a2
	move	$s0, $a1
	ld.d	$a1, $a0, 0
	addi.d	$a2, $a3, 1
	st.d	$a2, $a0, 16
	ldx.bu	$s2, $a1, $a3
	move	$a0, $fp
	pcaddu18i	$ra, %call36(_ZN17CBaseRecordVector5ClearEv)
	jirl	$ra, $ra, 0
	move	$a0, $fp
	move	$a1, $s0
	pcaddu18i	$ra, %call36(_ZN17CBaseRecordVector7ReserveEi)
	jirl	$ra, $ra, 0
	beqz	$s2, .LBB22_4
# %bb.2:                                # %if.end
	ori	$s1, $zero, 1
	blt	$s0, $s1, .LBB22_11
	.p2align	4, , 16
.LBB22_3:                               # %for.body
                                        # =>This Inner Loop Header: Depth=1
	move	$a0, $fp
	pcaddu18i	$ra, %call36(_ZN17CBaseRecordVector18ReserveOnePositionEv)
	jirl	$ra, $ra, 0
	ld.d	$a0, $fp, 16
	ld.w	$a1, $fp, 12
	stx.b	$s1, $a0, $a1
	addi.d	$a0, $a1, 1
	addi.w	$s0, $s0, -1
	st.w	$a0, $fp, 12
	bnez	$s0, .LBB22_3
	b	.LBB22_11
.LBB22_4:                               # %if.then
	ori	$a0, $zero, 1
	blt	$s0, $a0, .LBB22_11
# %bb.5:                                # %for.body.lr.ph.i
	move	$s3, $zero
	move	$s2, $zero
	b	.LBB22_8
	.p2align	4, , 16
.LBB22_6:                               # %_ZN8NArchive3N7z10CInArchive8ReadByteEv.exit.i
                                        #   in Loop: Header=BB22_8 Depth=1
	ld.d	$a2, $a0, 0
	addi.d	$a3, $a1, 1
	st.d	$a3, $a0, 16
	ldx.bu	$s2, $a2, $a1
	ori	$s3, $zero, 128
.LBB22_7:                               # %if.end.i
                                        #   in Loop: Header=BB22_8 Depth=1
	and	$a0, $s3, $s2
	sltu	$s4, $zero, $a0
	move	$a0, $fp
	pcaddu18i	$ra, %call36(_ZN17CBaseRecordVector18ReserveOnePositionEv)
	jirl	$ra, $ra, 0
	ld.d	$a0, $fp, 16
	ld.w	$a1, $fp, 12
	stx.b	$s4, $a0, $a1
	addi.d	$a0, $a1, 1
	st.w	$a0, $fp, 12
	addi.w	$s0, $s0, -1
	srli.d	$s3, $s3, 1
	beqz	$s0, .LBB22_11
.LBB22_8:                               # %for.body.i
                                        # =>This Inner Loop Header: Depth=1
	bnez	$s3, .LBB22_7
# %bb.9:                                # %if.then.i
                                        #   in Loop: Header=BB22_8 Depth=1
	ld.d	$a0, $s1, 40
	ld.d	$a1, $a0, 16
	ld.d	$a2, $a0, 8
	bltu	$a1, $a2, .LBB22_6
.LBB22_10:                              # %if.then.i.i
	pcaddu18i	$ra, %call36(_ZN8NArchive3N7zL14ThrowExceptionEv)
	jirl	$ra, $ra, 0
.LBB22_11:                              # %cleanup
	ld.d	$s4, $sp, 8                     # 8-byte Folded Reload
	ld.d	$s3, $sp, 16                    # 8-byte Folded Reload
	ld.d	$s2, $sp, 24                    # 8-byte Folded Reload
	ld.d	$s1, $sp, 32                    # 8-byte Folded Reload
	ld.d	$s0, $sp, 40                    # 8-byte Folded Reload
	ld.d	$fp, $sp, 48                    # 8-byte Folded Reload
	ld.d	$ra, $sp, 56                    # 8-byte Folded Reload
	addi.d	$sp, $sp, 64
	ret
.Lfunc_end22:
	.size	_ZN8NArchive3N7z10CInArchive15ReadBoolVector2EiR13CRecordVectorIbE, .Lfunc_end22-_ZN8NArchive3N7z10CInArchive15ReadBoolVector2EiR13CRecordVectorIbE
	.cfi_endproc
                                        # -- End function
	.globl	_ZN8NArchive3N7z10CInArchive12ReadPackInfoERyR13CRecordVectorIyERS3_IbERS3_IjE # -- Begin function _ZN8NArchive3N7z10CInArchive12ReadPackInfoERyR13CRecordVectorIyERS3_IbERS3_IjE
	.p2align	2
	.type	_ZN8NArchive3N7z10CInArchive12ReadPackInfoERyR13CRecordVectorIyERS3_IbERS3_IjE,@function
_ZN8NArchive3N7z10CInArchive12ReadPackInfoERyR13CRecordVectorIyERS3_IbERS3_IjE: # @_ZN8NArchive3N7z10CInArchive12ReadPackInfoERyR13CRecordVectorIyERS3_IbERS3_IjE
	.cfi_startproc
# %bb.0:                                # %entry
	addi.d	$sp, $sp, -96
	.cfi_def_cfa_offset 96
	st.d	$ra, $sp, 88                    # 8-byte Folded Spill
	st.d	$fp, $sp, 80                    # 8-byte Folded Spill
	st.d	$s0, $sp, 72                    # 8-byte Folded Spill
	st.d	$s1, $sp, 64                    # 8-byte Folded Spill
	st.d	$s2, $sp, 56                    # 8-byte Folded Spill
	st.d	$s3, $sp, 48                    # 8-byte Folded Spill
	st.d	$s4, $sp, 40                    # 8-byte Folded Spill
	st.d	$s5, $sp, 32                    # 8-byte Folded Spill
	st.d	$s6, $sp, 24                    # 8-byte Folded Spill
	st.d	$s7, $sp, 16                    # 8-byte Folded Spill
	st.d	$s8, $sp, 8                     # 8-byte Folded Spill
	.cfi_offset 1, -8
	.cfi_offset 22, -16
	.cfi_offset 23, -24
	.cfi_offset 24, -32
	.cfi_offset 25, -40
	.cfi_offset 26, -48
	.cfi_offset 27, -56
	.cfi_offset 28, -64
	.cfi_offset 29, -72
	.cfi_offset 30, -80
	.cfi_offset 31, -88
	move	$s2, $a0
	ld.d	$a0, $a0, 40
	move	$fp, $a4
	move	$s0, $a3
	move	$s4, $a2
	move	$s1, $a1
	pcaddu18i	$ra, %call36(_ZN8NArchive3N7z8CInByte210ReadNumberEv)
	jirl	$ra, $ra, 0
	ld.d	$a1, $s2, 40
	st.d	$a0, $s1, 0
	move	$a0, $a1
	pcaddu18i	$ra, %call36(_ZN8NArchive3N7z8CInByte210ReadNumberEv)
	jirl	$ra, $ra, 0
	move	$s1, $a0
	srli.d	$a0, $a0, 31
	bnez	$a0, .LBB23_48
# %bb.1:                                # %_ZN8NArchive3N7z10CInArchive7ReadNumEv.exit
	ld.d	$a0, $s2, 40
	pcaddu18i	$ra, %call36(_ZN8NArchive3N7z8CInByte210ReadNumberEv)
	jirl	$ra, $ra, 0
	ori	$s5, $zero, 9
	beq	$a0, $s5, .LBB23_5
	.p2align	4, , 16
.LBB23_2:                               # %if.end.i
                                        # =>This Inner Loop Header: Depth=1
	beqz	$a0, .LBB23_48
# %bb.3:                                # %if.end4.i
                                        #   in Loop: Header=BB23_2 Depth=1
	ld.d	$s3, $s2, 40
	move	$a0, $s3
	pcaddu18i	$ra, %call36(_ZN8NArchive3N7z8CInByte210ReadNumberEv)
	jirl	$ra, $ra, 0
	ld.d	$a1, $s3, 8
	ld.d	$a2, $s3, 16
	sub.d	$a1, $a1, $a2
	bltu	$a1, $a0, .LBB23_48
# %bb.4:                                # %cleanup.i
                                        #   in Loop: Header=BB23_2 Depth=1
	ld.d	$a1, $s2, 40
	add.d	$a0, $a2, $a0
	st.d	$a0, $s3, 16
	move	$a0, $a1
	pcaddu18i	$ra, %call36(_ZN8NArchive3N7z8CInByte210ReadNumberEv)
	jirl	$ra, $ra, 0
	bne	$a0, $s5, .LBB23_2
.LBB23_5:                               # %_ZN8NArchive3N7z10CInArchive13WaitAttributeEy.exit
	move	$a0, $s4
	pcaddu18i	$ra, %call36(_ZN17CBaseRecordVector5ClearEv)
	jirl	$ra, $ra, 0
	addi.w	$s3, $s1, 0
	move	$a0, $s4
	move	$a1, $s3
	pcaddu18i	$ra, %call36(_ZN17CBaseRecordVector7ReserveEi)
	jirl	$ra, $ra, 0
	beqz	$s1, .LBB23_8
# %bb.6:                                # %for.body.lr.ph
	move	$s6, $s1
	.p2align	4, , 16
.LBB23_7:                               # %for.body
                                        # =>This Inner Loop Header: Depth=1
	ld.d	$a0, $s2, 40
	pcaddu18i	$ra, %call36(_ZN8NArchive3N7z8CInByte210ReadNumberEv)
	jirl	$ra, $ra, 0
	move	$s5, $a0
	move	$a0, $s4
	pcaddu18i	$ra, %call36(_ZN17CBaseRecordVector18ReserveOnePositionEv)
	jirl	$ra, $ra, 0
	ld.w	$a0, $s4, 12
	ld.d	$a1, $s4, 16
	slli.d	$a2, $a0, 3
	stx.d	$s5, $a1, $a2
	addi.d	$a0, $a0, 1
	addi.w	$s6, $s6, -1
	st.w	$a0, $s4, 12
	bnez	$s6, .LBB23_7
.LBB23_8:                               # %for.cond5.preheader
	ld.d	$a0, $s2, 40
	ld.d	$a3, $a0, 16
	ld.d	$a2, $a0, 8
	bgeu	$a3, $a2, .LBB23_48
# %bb.9:
	addi.d	$s8, $a0, 16
	addi.d	$s7, $a0, 8
	ori	$s4, $zero, 10
	ori	$s5, $zero, 1
	ori	$s6, $zero, 2
	b	.LBB23_12
	.p2align	4, , 16
.LBB23_10:                              # %if.then9
                                        #   in Loop: Header=BB23_12 Depth=1
	move	$a0, $s2
	move	$a1, $s3
	move	$a2, $s0
	move	$a3, $fp
	pcaddu18i	$ra, %call36(_ZN8NArchive3N7z10CInArchive15ReadHashDigestsEiR13CRecordVectorIbERS2_IjE)
	jirl	$ra, $ra, 0
.LBB23_11:                              # %for.cond5.backedge
                                        #   in Loop: Header=BB23_12 Depth=1
	ld.d	$a0, $s2, 40
	ld.d	$a3, $a0, 16
	ld.d	$a2, $a0, 8
	addi.d	$s8, $a0, 16
	addi.d	$s7, $a0, 8
	bgeu	$a3, $a2, .LBB23_48
.LBB23_12:                              # %if.end.i34
                                        # =>This Inner Loop Header: Depth=1
	ld.d	$a4, $a0, 0
	addi.d	$a6, $a3, 1
	st.d	$a6, $a0, 16
	ldx.b	$a5, $a4, $a3
	andi	$a1, $a5, 255
	bltz	$a5, .LBB23_14
# %bb.13:                               #   in Loop: Header=BB23_12 Depth=1
	move	$a4, $zero
	move	$a2, $zero
	ori	$a3, $zero, 383
	b	.LBB23_35
	.p2align	4, , 16
.LBB23_14:                              # %if.end11.i
                                        #   in Loop: Header=BB23_12 Depth=1
	nor	$a5, $a3, $zero
	add.d	$a5, $a2, $a5
	beqz	$a5, .LBB23_48
# %bb.15:                               # %if.end16.i
                                        #   in Loop: Header=BB23_12 Depth=1
	addi.d	$a7, $a3, 2
	st.d	$a7, $s8, 0
	ldx.bu	$a2, $a4, $a6
	andi	$a6, $a1, 64
	bnez	$a6, .LBB23_17
# %bb.16:                               #   in Loop: Header=BB23_12 Depth=1
	ori	$a3, $zero, 319
	ori	$a4, $zero, 8
	b	.LBB23_35
.LBB23_17:                              # %if.end11.1.i
                                        #   in Loop: Header=BB23_12 Depth=1
	beq	$a5, $s5, .LBB23_48
# %bb.18:                               # %if.end16.1.i
                                        #   in Loop: Header=BB23_12 Depth=1
	addi.d	$a6, $a3, 3
	st.d	$a6, $s8, 0
	ldx.bu	$a7, $a4, $a7
	slli.d	$a7, $a7, 8
	andi	$t0, $a1, 32
	or	$a2, $a7, $a2
	bnez	$t0, .LBB23_20
# %bb.19:                               #   in Loop: Header=BB23_12 Depth=1
	ori	$a3, $zero, 287
	ori	$a4, $zero, 16
	b	.LBB23_35
.LBB23_20:                              # %if.end11.2.i
                                        #   in Loop: Header=BB23_12 Depth=1
	beq	$a5, $s6, .LBB23_48
# %bb.21:                               # %if.end16.2.i
                                        #   in Loop: Header=BB23_12 Depth=1
	addi.d	$a7, $a3, 4
	st.d	$a7, $s8, 0
	ldx.bu	$a6, $a4, $a6
	slli.d	$a6, $a6, 16
	andi	$t0, $a1, 16
	or	$a2, $a6, $a2
	bnez	$t0, .LBB23_23
# %bb.22:                               #   in Loop: Header=BB23_12 Depth=1
	ori	$a3, $zero, 271
	ori	$a4, $zero, 24
	b	.LBB23_35
.LBB23_23:                              # %if.end11.3.i
                                        #   in Loop: Header=BB23_12 Depth=1
	ori	$a6, $zero, 3
	beq	$a5, $a6, .LBB23_48
# %bb.24:                               # %if.end16.3.i
                                        #   in Loop: Header=BB23_12 Depth=1
	addi.d	$a6, $a3, 5
	st.d	$a6, $s8, 0
	ldx.bu	$a7, $a4, $a7
	slli.d	$a7, $a7, 24
	andi	$t0, $a1, 8
	or	$a2, $a7, $a2
	bnez	$t0, .LBB23_26
# %bb.25:                               #   in Loop: Header=BB23_12 Depth=1
	ori	$a3, $zero, 263
	ori	$a4, $zero, 32
	b	.LBB23_35
.LBB23_26:                              # %if.end11.4.i
                                        #   in Loop: Header=BB23_12 Depth=1
	ori	$a7, $zero, 4
	beq	$a5, $a7, .LBB23_48
# %bb.27:                               # %if.end16.4.i
                                        #   in Loop: Header=BB23_12 Depth=1
	addi.d	$a7, $a3, 6
	st.d	$a7, $s8, 0
	ldx.bu	$a6, $a4, $a6
	slli.d	$a6, $a6, 32
	andi	$t0, $a1, 4
	or	$a2, $a6, $a2
	bnez	$t0, .LBB23_29
# %bb.28:                               #   in Loop: Header=BB23_12 Depth=1
	ori	$a3, $zero, 259
	ori	$a4, $zero, 40
	b	.LBB23_35
.LBB23_29:                              # %if.end11.5.i
                                        #   in Loop: Header=BB23_12 Depth=1
	ori	$a6, $zero, 5
	beq	$a5, $a6, .LBB23_48
# %bb.30:                               # %if.end16.5.i
                                        #   in Loop: Header=BB23_12 Depth=1
	addi.d	$a6, $a3, 7
	st.d	$a6, $s8, 0
	ldx.bu	$a7, $a4, $a7
	slli.d	$a7, $a7, 40
	andi	$t0, $a1, 2
	or	$a2, $a7, $a2
	bnez	$t0, .LBB23_32
# %bb.31:                               #   in Loop: Header=BB23_12 Depth=1
	ori	$a3, $zero, 257
	ori	$a4, $zero, 48
	b	.LBB23_35
.LBB23_32:                              # %if.end11.6.i
                                        #   in Loop: Header=BB23_12 Depth=1
	ori	$a7, $zero, 6
	beq	$a5, $a7, .LBB23_48
# %bb.33:                               # %if.end16.6.i
                                        #   in Loop: Header=BB23_12 Depth=1
	addi.d	$a7, $a3, 8
	st.d	$a7, $s8, 0
	ldx.bu	$a6, $a4, $a6
	slli.d	$a6, $a6, 48
	andi	$t0, $a1, 1
	or	$a2, $a6, $a2
	bnez	$t0, .LBB23_39
# %bb.34:                               #   in Loop: Header=BB23_12 Depth=1
	ori	$a3, $zero, 256
	ori	$a4, $zero, 56
	.p2align	4, , 16
.LBB23_35:                              # %if.then6.i
                                        #   in Loop: Header=BB23_12 Depth=1
	and	$a1, $a3, $a1
	sll.d	$a1, $a1, $a4
	add.d	$a1, $a1, $a2
	beq	$a1, $s4, .LBB23_10
.LBB23_36:                              # %_ZN8NArchive3N7z8CInByte210ReadNumberEv.exit
                                        #   in Loop: Header=BB23_12 Depth=1
	beqz	$a1, .LBB23_41
# %bb.37:                               # %if.end10
                                        #   in Loop: Header=BB23_12 Depth=1
	pcaddu18i	$ra, %call36(_ZN8NArchive3N7z8CInByte210ReadNumberEv)
	jirl	$ra, $ra, 0
	ld.d	$a2, $s7, 0
	ld.d	$a1, $s8, 0
	sub.d	$a2, $a2, $a1
	bltu	$a2, $a0, .LBB23_48
# %bb.38:                               # %_ZN8NArchive3N7z10CInArchive8SkipDataEv.exit
                                        #   in Loop: Header=BB23_12 Depth=1
	add.d	$a0, $a1, $a0
	st.d	$a0, $s8, 0
	b	.LBB23_11
.LBB23_39:                              # %if.end11.7.i
                                        #   in Loop: Header=BB23_12 Depth=1
	ori	$a1, $zero, 7
	beq	$a5, $a1, .LBB23_48
# %bb.40:                               # %if.end16.7.i
                                        #   in Loop: Header=BB23_12 Depth=1
	addi.d	$a1, $a3, 9
	st.d	$a1, $s8, 0
	ldx.b	$a1, $a4, $a7
	slli.d	$a1, $a1, 56
	or	$a1, $a1, $a2
	bne	$a1, $s4, .LBB23_36
	b	.LBB23_10
.LBB23_41:                              # %for.end11
	ld.w	$a0, $s0, 12
	bnez	$a0, .LBB23_46
# %bb.42:                               # %if.then13
	move	$a0, $s0
	pcaddu18i	$ra, %call36(_ZN17CBaseRecordVector5ClearEv)
	jirl	$ra, $ra, 0
	move	$a0, $s0
	move	$a1, $s3
	pcaddu18i	$ra, %call36(_ZN17CBaseRecordVector7ReserveEi)
	jirl	$ra, $ra, 0
	beqz	$s1, .LBB23_47
	.p2align	4, , 16
.LBB23_43:                              # %for.body.i
                                        # =>This Inner Loop Header: Depth=1
	move	$a0, $s0
	pcaddu18i	$ra, %call36(_ZN17CBaseRecordVector18ReserveOnePositionEv)
	jirl	$ra, $ra, 0
	ld.d	$a0, $s0, 16
	ld.w	$a1, $s0, 12
	stx.b	$zero, $a0, $a1
	addi.d	$a0, $a1, 1
	addi.w	$s1, $s1, -1
	st.w	$a0, $s0, 12
	bnez	$s1, .LBB23_43
# %bb.44:                               # %_ZN8NArchive3N7zL21BoolVector_Fill_FalseER13CRecordVectorIbEi.exit
	move	$a0, $fp
	move	$a1, $s3
	pcaddu18i	$ra, %call36(_ZN17CBaseRecordVector7ReserveEi)
	jirl	$ra, $ra, 0
	move	$a0, $fp
	pcaddu18i	$ra, %call36(_ZN17CBaseRecordVector5ClearEv)
	jirl	$ra, $ra, 0
	.p2align	4, , 16
.LBB23_45:                              # %for.body18
                                        # =>This Inner Loop Header: Depth=1
	move	$a0, $fp
	pcaddu18i	$ra, %call36(_ZN17CBaseRecordVector18ReserveOnePositionEv)
	jirl	$ra, $ra, 0
	ld.w	$a0, $fp, 12
	ld.d	$a1, $fp, 16
	slli.d	$a0, $a0, 2
	stx.w	$zero, $a1, $a0
	ld.w	$a0, $fp, 12
	addi.d	$a0, $a0, 1
	addi.w	$s3, $s3, -1
	st.w	$a0, $fp, 12
	bnez	$s3, .LBB23_45
.LBB23_46:                              # %if.end23
	ld.d	$s8, $sp, 8                     # 8-byte Folded Reload
	ld.d	$s7, $sp, 16                    # 8-byte Folded Reload
	ld.d	$s6, $sp, 24                    # 8-byte Folded Reload
	ld.d	$s5, $sp, 32                    # 8-byte Folded Reload
	ld.d	$s4, $sp, 40                    # 8-byte Folded Reload
	ld.d	$s3, $sp, 48                    # 8-byte Folded Reload
	ld.d	$s2, $sp, 56                    # 8-byte Folded Reload
	ld.d	$s1, $sp, 64                    # 8-byte Folded Reload
	ld.d	$s0, $sp, 72                    # 8-byte Folded Reload
	ld.d	$fp, $sp, 80                    # 8-byte Folded Reload
	ld.d	$ra, $sp, 88                    # 8-byte Folded Reload
	addi.d	$sp, $sp, 96
	ret
.LBB23_47:                              # %if.end23.critedge
	addi.w	$a1, $s1, 0
	move	$a0, $fp
	pcaddu18i	$ra, %call36(_ZN17CBaseRecordVector7ReserveEi)
	jirl	$ra, $ra, 0
	move	$a0, $fp
	ld.d	$s8, $sp, 8                     # 8-byte Folded Reload
	ld.d	$s7, $sp, 16                    # 8-byte Folded Reload
	ld.d	$s6, $sp, 24                    # 8-byte Folded Reload
	ld.d	$s5, $sp, 32                    # 8-byte Folded Reload
	ld.d	$s4, $sp, 40                    # 8-byte Folded Reload
	ld.d	$s3, $sp, 48                    # 8-byte Folded Reload
	ld.d	$s2, $sp, 56                    # 8-byte Folded Reload
	ld.d	$s1, $sp, 64                    # 8-byte Folded Reload
	ld.d	$s0, $sp, 72                    # 8-byte Folded Reload
	ld.d	$fp, $sp, 80                    # 8-byte Folded Reload
	ld.d	$ra, $sp, 88                    # 8-byte Folded Reload
	addi.d	$sp, $sp, 96
	pcaddu18i	$t8, %call36(_ZN17CBaseRecordVector5ClearEv)
	jr	$t8
.LBB23_48:                              # %if.then.i.i
	pcaddu18i	$ra, %call36(_ZN8NArchive3N7zL14ThrowExceptionEv)
	jirl	$ra, $ra, 0
.Lfunc_end23:
	.size	_ZN8NArchive3N7z10CInArchive12ReadPackInfoERyR13CRecordVectorIyERS3_IbERS3_IjE, .Lfunc_end23-_ZN8NArchive3N7z10CInArchive12ReadPackInfoERyR13CRecordVectorIyERS3_IbERS3_IjE
	.cfi_endproc
                                        # -- End function
	.globl	_ZN8NArchive3N7z10CInArchive14ReadUnpackInfoEPK13CObjectVectorI7CBufferIhEERS2_INS0_7CFolderEE # -- Begin function _ZN8NArchive3N7z10CInArchive14ReadUnpackInfoEPK13CObjectVectorI7CBufferIhEERS2_INS0_7CFolderEE
	.p2align	2
	.type	_ZN8NArchive3N7z10CInArchive14ReadUnpackInfoEPK13CObjectVectorI7CBufferIhEERS2_INS0_7CFolderEE,@function
_ZN8NArchive3N7z10CInArchive14ReadUnpackInfoEPK13CObjectVectorI7CBufferIhEERS2_INS0_7CFolderEE: # @_ZN8NArchive3N7z10CInArchive14ReadUnpackInfoEPK13CObjectVectorI7CBufferIhEERS2_INS0_7CFolderEE
.Lfunc_begin2:
	.cfi_startproc
	.cfi_personality 155, DW.ref.__gxx_personality_v0
	.cfi_lsda 27, .Lexception2
# %bb.0:                                # %entry
	addi.d	$sp, $sp, -320
	.cfi_def_cfa_offset 320
	st.d	$ra, $sp, 312                   # 8-byte Folded Spill
	st.d	$fp, $sp, 304                   # 8-byte Folded Spill
	st.d	$s0, $sp, 296                   # 8-byte Folded Spill
	st.d	$s1, $sp, 288                   # 8-byte Folded Spill
	st.d	$s2, $sp, 280                   # 8-byte Folded Spill
	st.d	$s3, $sp, 272                   # 8-byte Folded Spill
	st.d	$s4, $sp, 264                   # 8-byte Folded Spill
	st.d	$s5, $sp, 256                   # 8-byte Folded Spill
	st.d	$s6, $sp, 248                   # 8-byte Folded Spill
	st.d	$s7, $sp, 240                   # 8-byte Folded Spill
	st.d	$s8, $sp, 232                   # 8-byte Folded Spill
	.cfi_offset 1, -8
	.cfi_offset 22, -16
	.cfi_offset 23, -24
	.cfi_offset 24, -32
	.cfi_offset 25, -40
	.cfi_offset 26, -48
	.cfi_offset 27, -56
	.cfi_offset 28, -64
	.cfi_offset 29, -72
	.cfi_offset 30, -80
	.cfi_offset 31, -88
	move	$fp, $a0
	ld.d	$a0, $a0, 40
	move	$s0, $a2
	move	$s2, $a1
	pcaddu18i	$ra, %call36(_ZN8NArchive3N7z8CInByte210ReadNumberEv)
	jirl	$ra, $ra, 0
	ori	$s3, $zero, 11
	beq	$a0, $s3, .LBB24_4
	.p2align	4, , 16
.LBB24_1:                               # %if.end.i
                                        # =>This Inner Loop Header: Depth=1
	beqz	$a0, .LBB24_103
# %bb.2:                                # %if.end4.i
                                        #   in Loop: Header=BB24_1 Depth=1
	ld.d	$s1, $fp, 40
	move	$a0, $s1
	pcaddu18i	$ra, %call36(_ZN8NArchive3N7z8CInByte210ReadNumberEv)
	jirl	$ra, $ra, 0
	ld.d	$a2, $s1, 8
	ld.d	$a1, $s1, 16
	sub.d	$a2, $a2, $a1
	bltu	$a2, $a0, .LBB24_103
# %bb.3:                                # %cleanup.i
                                        #   in Loop: Header=BB24_1 Depth=1
	add.d	$a0, $a1, $a0
	st.d	$a0, $s1, 16
	ld.d	$a0, $fp, 40
	pcaddu18i	$ra, %call36(_ZN8NArchive3N7z8CInByte210ReadNumberEv)
	jirl	$ra, $ra, 0
	bne	$a0, $s3, .LBB24_1
.LBB24_4:                               # %_ZN8NArchive3N7z10CInArchive13WaitAttributeEy.exit
	ld.d	$a0, $fp, 40
	pcaddu18i	$ra, %call36(_ZN8NArchive3N7z8CInByte210ReadNumberEv)
	jirl	$ra, $ra, 0
	st.d	$a0, $sp, 24                    # 8-byte Folded Spill
	srli.d	$a0, $a0, 31
	bnez	$a0, .LBB24_103
# %bb.5:                                # %_ZN8NArchive3N7z10CInArchive7ReadNumEv.exit
	st.b	$zero, $sp, 72
.Ltmp31:                                # EH_LABEL
	addi.d	$a0, $sp, 64
	move	$a1, $fp
	move	$a2, $s2
	pcaddu18i	$ra, %call36(_ZN8NArchive3N7z13CStreamSwitch3SetEPNS0_10CInArchiveEPK13CObjectVectorI7CBufferIhEE)
	jirl	$ra, $ra, 0
.Ltmp32:                                # EH_LABEL
	ld.d	$s1, $sp, 24                    # 8-byte Folded Reload
# %bb.6:                                # %invoke.cont
.Ltmp33:                                # EH_LABEL
	move	$a0, $s0
	pcaddu18i	$ra, %call36(_ZN17CBaseRecordVector5ClearEv)
	jirl	$ra, $ra, 0
.Ltmp34:                                # EH_LABEL
# %bb.7:                                # %invoke.cont2
.Ltmp35:                                # EH_LABEL
	addi.w	$a1, $s1, 0
	move	$a0, $s0
	st.d	$a1, $sp, 56                    # 8-byte Folded Spill
	pcaddu18i	$ra, %call36(_ZN17CBaseRecordVector7ReserveEi)
	jirl	$ra, $ra, 0
.Ltmp36:                                # EH_LABEL
# %bb.8:                                # %for.cond.preheader
	vrepli.b	$vr0, 0
	vst	$vr0, $sp, 32                   # 16-byte Folded Spill
	pcalau12i	$a0, %pc_hi20(_ZTV13CRecordVectorIjE)
	addi.d	$a0, $a0, %pc_lo12(_ZTV13CRecordVectorIjE)
	st.d	$a0, $sp, 16                    # 8-byte Folded Spill
	beqz	$s1, .LBB24_16
# %bb.9:                                # %invoke.cont5.lr.ph
	ori	$s2, $zero, 8
	pcalau12i	$a0, %pc_hi20(_ZTV13CObjectVectorIN8NArchive3N7z10CCoderInfoEE+16)
	addi.d	$s1, $a0, %pc_lo12(_ZTV13CObjectVectorIN8NArchive3N7z10CCoderInfoEE+16)
	pcalau12i	$a0, %pc_hi20(_ZTV13CRecordVectorIN8NArchive3N7z9CBindPairEE+16)
	addi.d	$s3, $a0, %pc_lo12(_ZTV13CRecordVectorIN8NArchive3N7z9CBindPairEE+16)
	ori	$s7, $zero, 4
	ld.d	$a0, $sp, 16                    # 8-byte Folded Reload
	addi.d	$s4, $a0, 16
	pcalau12i	$a0, %pc_hi20(_ZTV13CRecordVectorIyE+16)
	addi.d	$s8, $a0, %pc_lo12(_ZTV13CRecordVectorIyE+16)
	ld.d	$s5, $sp, 24                    # 8-byte Folded Reload
	.p2align	4, , 16
.LBB24_10:                              # %invoke.cont5
                                        # =>This Inner Loop Header: Depth=1
	addi.d	$a0, $sp, 104
	vld	$vr0, $sp, 32                   # 16-byte Folded Reload
	vst	$vr0, $a0, 0
	st.d	$s2, $sp, 120
	st.d	$s1, $sp, 96
	addi.d	$a0, $sp, 136
	vst	$vr0, $a0, 0
	st.d	$s2, $sp, 152
	st.d	$s3, $sp, 128
	addi.d	$a0, $sp, 168
	vst	$vr0, $a0, 0
	st.d	$s7, $sp, 184
	st.d	$s4, $sp, 160
	addi.d	$a0, $sp, 200
	vst	$vr0, $a0, 0
	st.d	$s2, $sp, 216
	st.d	$s8, $sp, 192
	st.b	$zero, $sp, 228
.Ltmp38:                                # EH_LABEL
	ori	$a0, $zero, 136
	pcaddu18i	$ra, %call36(_Znwm)
	jirl	$ra, $ra, 0
.Ltmp39:                                # EH_LABEL
# %bb.11:                               # %call.i.noexc
                                        #   in Loop: Header=BB24_10 Depth=1
.Ltmp40:                                # EH_LABEL
	move	$s6, $a0
	addi.d	$a1, $sp, 96
	pcaddu18i	$ra, %call36(_ZN8NArchive3N7z7CFolderC2ERKS1_)
	jirl	$ra, $ra, 0
.Ltmp41:                                # EH_LABEL
# %bb.12:                               # %invoke.cont.i
                                        #   in Loop: Header=BB24_10 Depth=1
.Ltmp43:                                # EH_LABEL
	move	$a0, $s0
	pcaddu18i	$ra, %call36(_ZN17CBaseRecordVector18ReserveOnePositionEv)
	jirl	$ra, $ra, 0
.Ltmp44:                                # EH_LABEL
# %bb.13:                               # %invoke.cont7
                                        #   in Loop: Header=BB24_10 Depth=1
	ld.w	$a0, $s0, 12
	ld.d	$a1, $s0, 16
	slli.d	$a2, $a0, 3
	stx.d	$s6, $a1, $a2
	addi.d	$a0, $a0, 1
	st.w	$a0, $s0, 12
	addi.d	$a0, $sp, 192
	pcaddu18i	$ra, %call36(_ZN17CBaseRecordVectorD2Ev)
	jirl	$ra, $ra, 0
	addi.d	$a0, $sp, 160
	pcaddu18i	$ra, %call36(_ZN17CBaseRecordVectorD2Ev)
	jirl	$ra, $ra, 0
	addi.d	$a0, $sp, 128
	pcaddu18i	$ra, %call36(_ZN17CBaseRecordVectorD2Ev)
	jirl	$ra, $ra, 0
	st.d	$s1, $sp, 96
.Ltmp46:                                # EH_LABEL
	addi.d	$a0, $sp, 96
	pcaddu18i	$ra, %call36(_ZN17CBaseRecordVector5ClearEv)
	jirl	$ra, $ra, 0
.Ltmp47:                                # EH_LABEL
# %bb.14:                               # %invoke.cont10
                                        #   in Loop: Header=BB24_10 Depth=1
	addi.d	$a0, $sp, 96
	pcaddu18i	$ra, %call36(_ZN17CBaseRecordVectorD2Ev)
	jirl	$ra, $ra, 0
	ld.w	$a0, $s0, 12
	ld.d	$a1, $s0, 16
	alsl.d	$a0, $a0, $a1, 3
	ld.d	$a1, $a0, -8
.Ltmp49:                                # EH_LABEL
	move	$a0, $fp
	pcaddu18i	$ra, %call36(_ZN8NArchive3N7z10CInArchive17GetNextFolderItemERNS0_7CFolderE)
	jirl	$ra, $ra, 0
.Ltmp50:                                # EH_LABEL
# %bb.15:                               # %for.inc
                                        #   in Loop: Header=BB24_10 Depth=1
	addi.w	$s5, $s5, -1
	bnez	$s5, .LBB24_10
.LBB24_16:                              # %for.cond.cleanup
	ld.bu	$a0, $sp, 72
	ori	$a1, $zero, 1
	ld.d	$s2, $sp, 24                    # 8-byte Folded Reload
	bne	$a0, $a1, .LBB24_20
# %bb.17:                               # %if.then.i.i30
	ld.d	$s1, $sp, 64
	addi.d	$a0, $s1, 8
.Ltmp52:                                # EH_LABEL
	pcaddu18i	$ra, %call36(_ZN17CBaseRecordVector10DeleteBackEv)
	jirl	$ra, $ra, 0
.Ltmp53:                                # EH_LABEL
# %bb.18:                               # %.noexc.i
	ld.w	$a0, $s1, 20
	beqz	$a0, .LBB24_20
# %bb.19:                               # %if.then.i.i.i
	ld.d	$a1, $s1, 24
	alsl.d	$a0, $a0, $a1, 3
	ld.d	$a0, $a0, -8
	st.d	$a0, $s1, 40
.LBB24_20:                              # %_ZN8NArchive3N7z13CStreamSwitchD2Ev.exit
	ld.d	$a0, $fp, 40
	pcaddu18i	$ra, %call36(_ZN8NArchive3N7z8CInByte210ReadNumberEv)
	jirl	$ra, $ra, 0
	ori	$s1, $zero, 12
	beq	$a0, $s1, .LBB24_24
	.p2align	4, , 16
.LBB24_21:                              # %if.end.i36
                                        # =>This Inner Loop Header: Depth=1
	beqz	$a0, .LBB24_103
# %bb.22:                               # %if.end4.i39
                                        #   in Loop: Header=BB24_21 Depth=1
	ld.d	$s3, $fp, 40
	move	$a0, $s3
	pcaddu18i	$ra, %call36(_ZN8NArchive3N7z8CInByte210ReadNumberEv)
	jirl	$ra, $ra, 0
	ld.d	$a2, $s3, 8
	ld.d	$a1, $s3, 16
	sub.d	$a2, $a2, $a1
	bltu	$a2, $a0, .LBB24_103
# %bb.23:                               # %cleanup.i45
                                        #   in Loop: Header=BB24_21 Depth=1
	add.d	$a0, $a1, $a0
	st.d	$a0, $s3, 16
	ld.d	$a0, $fp, 40
	pcaddu18i	$ra, %call36(_ZN8NArchive3N7z8CInByte210ReadNumberEv)
	jirl	$ra, $ra, 0
	bne	$a0, $s1, .LBB24_21
.LBB24_24:                              # %_ZN8NArchive3N7z10CInArchive13WaitAttributeEy.exit51
	beqz	$s2, .LBB24_65
# %bb.25:                               # %for.body19.lr.ph
	move	$s5, $zero
	ori	$s8, $zero, 1
	ori	$s6, $zero, 2
	b	.LBB24_28
	.p2align	4, , 16
.LBB24_26:                              # %_ZNK8NArchive3N7z7CFolder16GetNumOutStreamsEv.exit.thread
                                        #   in Loop: Header=BB24_28 Depth=1
	addi.d	$a0, $s7, 96
	move	$a1, $zero
	pcaddu18i	$ra, %call36(_ZN17CBaseRecordVector7ReserveEi)
	jirl	$ra, $ra, 0
.LBB24_27:                              # %for.cond.cleanup24
                                        #   in Loop: Header=BB24_28 Depth=1
	addi.w	$s5, $s5, 1
	ld.d	$a0, $sp, 56                    # 8-byte Folded Reload
	beq	$s5, $a0, .LBB24_65
.LBB24_28:                              # %for.body19
                                        # =>This Loop Header: Depth=1
                                        #     Child Loop BB24_32 Depth 2
                                        #     Child Loop BB24_35 Depth 2
                                        #     Child Loop BB24_37 Depth 2
	ld.d	$a0, $s0, 16
	slli.d	$a1, $s5, 3
	ldx.d	$s7, $a0, $a1
	ld.w	$a0, $s7, 12
	blez	$a0, .LBB24_26
# %bb.29:                               # %for.body.lr.ph.i
                                        #   in Loop: Header=BB24_28 Depth=1
	ld.d	$a1, $s7, 16
	ori	$a2, $zero, 8
	bgeu	$a0, $a2, .LBB24_31
# %bb.30:                               #   in Loop: Header=BB24_28 Depth=1
	move	$a2, $zero
	move	$s3, $zero
	b	.LBB24_34
	.p2align	4, , 16
.LBB24_31:                              # %vector.ph
                                        #   in Loop: Header=BB24_28 Depth=1
	bstrpick.d	$a2, $a0, 30, 3
	slli.d	$a2, $a2, 3
	addi.d	$a3, $a1, 32
	move	$a4, $a2
	vld	$vr1, $sp, 32                   # 16-byte Folded Reload
	vori.b	$vr0, $vr1, 0
	.p2align	4, , 16
.LBB24_32:                              # %vector.body
                                        #   Parent Loop BB24_28 Depth=1
                                        # =>  This Inner Loop Header: Depth=2
	ld.d	$a5, $a3, -32
	ld.d	$a6, $a3, -24
	ld.d	$a7, $a3, -16
	ld.d	$t0, $a3, -8
	ld.d	$t1, $a3, 0
	ld.d	$t2, $a3, 8
	ld.d	$t3, $a3, 16
	ld.d	$t4, $a3, 24
	ld.w	$a5, $a5, 36
	ld.w	$a6, $a6, 36
	ld.w	$a7, $a7, 36
	ld.w	$t0, $t0, 36
	vinsgr2vr.w	$vr2, $a5, 0
	vinsgr2vr.w	$vr2, $a6, 1
	vinsgr2vr.w	$vr2, $a7, 2
	vinsgr2vr.w	$vr2, $t0, 3
	ld.w	$a5, $t1, 36
	ld.w	$a6, $t2, 36
	ld.w	$a7, $t3, 36
	ld.w	$t0, $t4, 36
	vinsgr2vr.w	$vr3, $a5, 0
	vinsgr2vr.w	$vr3, $a6, 1
	vinsgr2vr.w	$vr3, $a7, 2
	vinsgr2vr.w	$vr3, $t0, 3
	vadd.w	$vr0, $vr2, $vr0
	vadd.w	$vr1, $vr3, $vr1
	addi.d	$a4, $a4, -8
	addi.d	$a3, $a3, 64
	bnez	$a4, .LBB24_32
# %bb.33:                               # %middle.block
                                        #   in Loop: Header=BB24_28 Depth=1
	vadd.w	$vr0, $vr1, $vr0
	vshuf4i.w	$vr1, $vr0, 14
	vadd.w	$vr0, $vr0, $vr1
	vreplvei.w	$vr1, $vr0, 1
	vadd.w	$vr0, $vr0, $vr1
	vpickve2gr.w	$s3, $vr0, 0
	beq	$a2, $a0, .LBB24_36
.LBB24_34:                              # %for.body.i.preheader
                                        #   in Loop: Header=BB24_28 Depth=1
	sub.d	$a0, $a0, $a2
	alsl.d	$a1, $a2, $a1, 3
	.p2align	4, , 16
.LBB24_35:                              # %for.body.i
                                        #   Parent Loop BB24_28 Depth=1
                                        # =>  This Inner Loop Header: Depth=2
	ld.d	$a2, $a1, 0
	ld.w	$a2, $a2, 36
	add.w	$s3, $a2, $s3
	addi.d	$a0, $a0, -1
	addi.d	$a1, $a1, 8
	bnez	$a0, .LBB24_35
.LBB24_36:                              # %_ZNK8NArchive3N7z7CFolder16GetNumOutStreamsEv.exit
                                        #   in Loop: Header=BB24_28 Depth=1
	addi.d	$s4, $s7, 96
	move	$a0, $s4
	move	$a1, $s3
	pcaddu18i	$ra, %call36(_ZN17CBaseRecordVector7ReserveEi)
	jirl	$ra, $ra, 0
	beqz	$s3, .LBB24_27
	.p2align	4, , 16
.LBB24_37:                              # %for.body25
                                        #   Parent Loop BB24_28 Depth=1
                                        # =>  This Inner Loop Header: Depth=2
	ld.d	$a2, $fp, 40
	ld.d	$a3, $a2, 16
	ld.d	$a5, $a2, 8
	bgeu	$a3, $a5, .LBB24_103
# %bb.38:                               # %if.end.i81
                                        #   in Loop: Header=BB24_37 Depth=2
	ld.d	$a4, $a2, 0
	addi.d	$a1, $a3, 1
	st.d	$a1, $a2, 16
	ldx.b	$a6, $a4, $a3
	andi	$a0, $a6, 255
	bltz	$a6, .LBB24_40
# %bb.39:                               #   in Loop: Header=BB24_37 Depth=2
	move	$a3, $zero
	move	$a1, $zero
	ori	$a2, $zero, 383
	b	.LBB24_61
	.p2align	4, , 16
.LBB24_40:                              # %if.end11.i
                                        #   in Loop: Header=BB24_37 Depth=2
	nor	$a6, $a3, $zero
	add.d	$a5, $a5, $a6
	beqz	$a5, .LBB24_103
# %bb.41:                               # %if.end16.i
                                        #   in Loop: Header=BB24_37 Depth=2
	addi.d	$a7, $a3, 2
	st.d	$a7, $a2, 16
	ldx.bu	$a1, $a4, $a1
	andi	$a6, $a0, 64
	bnez	$a6, .LBB24_43
# %bb.42:                               #   in Loop: Header=BB24_37 Depth=2
	ori	$a2, $zero, 319
	ori	$a3, $zero, 8
	b	.LBB24_61
.LBB24_43:                              # %if.end11.1.i
                                        #   in Loop: Header=BB24_37 Depth=2
	beq	$a5, $s8, .LBB24_103
# %bb.44:                               # %if.end16.1.i
                                        #   in Loop: Header=BB24_37 Depth=2
	addi.d	$a6, $a3, 3
	st.d	$a6, $a2, 16
	ldx.bu	$a7, $a4, $a7
	slli.d	$a7, $a7, 8
	andi	$t0, $a0, 32
	or	$a1, $a7, $a1
	bnez	$t0, .LBB24_46
# %bb.45:                               #   in Loop: Header=BB24_37 Depth=2
	ori	$a2, $zero, 287
	ori	$a3, $zero, 16
	b	.LBB24_61
.LBB24_46:                              # %if.end11.2.i
                                        #   in Loop: Header=BB24_37 Depth=2
	beq	$a5, $s6, .LBB24_103
# %bb.47:                               # %if.end16.2.i
                                        #   in Loop: Header=BB24_37 Depth=2
	addi.d	$a7, $a3, 4
	st.d	$a7, $a2, 16
	ldx.bu	$a6, $a4, $a6
	slli.d	$a6, $a6, 16
	andi	$t0, $a0, 16
	or	$a1, $a6, $a1
	bnez	$t0, .LBB24_49
# %bb.48:                               #   in Loop: Header=BB24_37 Depth=2
	ori	$a2, $zero, 271
	ori	$a3, $zero, 24
	b	.LBB24_61
.LBB24_49:                              # %if.end11.3.i
                                        #   in Loop: Header=BB24_37 Depth=2
	ori	$a6, $zero, 3
	beq	$a5, $a6, .LBB24_103
# %bb.50:                               # %if.end16.3.i
                                        #   in Loop: Header=BB24_37 Depth=2
	addi.d	$a6, $a3, 5
	st.d	$a6, $a2, 16
	ldx.bu	$a7, $a4, $a7
	slli.d	$a7, $a7, 24
	andi	$t0, $a0, 8
	or	$a1, $a7, $a1
	bnez	$t0, .LBB24_52
# %bb.51:                               #   in Loop: Header=BB24_37 Depth=2
	ori	$a2, $zero, 263
	ori	$a3, $zero, 32
	b	.LBB24_61
.LBB24_52:                              # %if.end11.4.i
                                        #   in Loop: Header=BB24_37 Depth=2
	ori	$a7, $zero, 4
	beq	$a5, $a7, .LBB24_103
# %bb.53:                               # %if.end16.4.i
                                        #   in Loop: Header=BB24_37 Depth=2
	addi.d	$a7, $a3, 6
	st.d	$a7, $a2, 16
	ldx.bu	$a6, $a4, $a6
	slli.d	$a6, $a6, 32
	andi	$t0, $a0, 4
	or	$a1, $a6, $a1
	bnez	$t0, .LBB24_55
# %bb.54:                               #   in Loop: Header=BB24_37 Depth=2
	ori	$a2, $zero, 259
	ori	$a3, $zero, 40
	b	.LBB24_61
.LBB24_55:                              # %if.end11.5.i
                                        #   in Loop: Header=BB24_37 Depth=2
	ori	$a6, $zero, 5
	beq	$a5, $a6, .LBB24_103
# %bb.56:                               # %if.end16.5.i
                                        #   in Loop: Header=BB24_37 Depth=2
	addi.d	$a6, $a3, 7
	st.d	$a6, $a2, 16
	ldx.bu	$a7, $a4, $a7
	slli.d	$a7, $a7, 40
	andi	$t0, $a0, 2
	or	$a1, $a7, $a1
	bnez	$t0, .LBB24_58
# %bb.57:                               #   in Loop: Header=BB24_37 Depth=2
	ori	$a2, $zero, 257
	ori	$a3, $zero, 48
	b	.LBB24_61
.LBB24_58:                              # %if.end11.6.i
                                        #   in Loop: Header=BB24_37 Depth=2
	ori	$a7, $zero, 6
	beq	$a5, $a7, .LBB24_103
# %bb.59:                               # %if.end16.6.i
                                        #   in Loop: Header=BB24_37 Depth=2
	addi.d	$a7, $a3, 8
	st.d	$a7, $a2, 16
	ldx.bu	$a6, $a4, $a6
	slli.d	$a6, $a6, 48
	andi	$t0, $a0, 1
	or	$a1, $a6, $a1
	bnez	$t0, .LBB24_63
# %bb.60:                               #   in Loop: Header=BB24_37 Depth=2
	ori	$a2, $zero, 256
	ori	$a3, $zero, 56
	.p2align	4, , 16
.LBB24_61:                              # %if.then6.i
                                        #   in Loop: Header=BB24_37 Depth=2
	and	$a0, $a2, $a0
	sll.d	$a0, $a0, $a3
	add.d	$s1, $a0, $a1
.LBB24_62:                              # %_ZN8NArchive3N7z8CInByte210ReadNumberEv.exit
                                        #   in Loop: Header=BB24_37 Depth=2
	move	$a0, $s4
	pcaddu18i	$ra, %call36(_ZN17CBaseRecordVector18ReserveOnePositionEv)
	jirl	$ra, $ra, 0
	ld.w	$a0, $s7, 108
	ld.d	$a1, $s7, 112
	slli.d	$a2, $a0, 3
	stx.d	$s1, $a1, $a2
	addi.d	$a0, $a0, 1
	addi.w	$s3, $s3, -1
	st.w	$a0, $s7, 108
	bnez	$s3, .LBB24_37
	b	.LBB24_27
.LBB24_63:                              # %if.end11.7.i
                                        #   in Loop: Header=BB24_37 Depth=2
	ori	$a0, $zero, 7
	beq	$a5, $a0, .LBB24_103
# %bb.64:                               # %if.end16.7.i
                                        #   in Loop: Header=BB24_37 Depth=2
	addi.d	$a0, $a3, 9
	st.d	$a0, $a2, 16
	ldx.b	$a0, $a4, $a7
	slli.d	$a0, $a0, 56
	or	$s1, $a0, $a1
	b	.LBB24_62
.LBB24_65:                              # %for.cond35.preheader
	ld.d	$a0, $fp, 40
	ld.d	$a2, $a0, 16
	ld.d	$a3, $a0, 8
	bgeu	$a2, $a3, .LBB24_103
# %bb.66:                               # %if.end.i92.lr.ph
	addi.d	$s3, $a0, 16
	addi.d	$s8, $a0, 8
	ori	$s4, $zero, 1
	ld.d	$a5, $sp, 56                    # 8-byte Folded Reload
	sltu	$a1, $s4, $a5
	masknez	$a4, $s4, $a1
	maskeqz	$a1, $a5, $a1
	or	$s5, $a1, $a4
	ori	$s6, $zero, 10
	vrepli.b	$vr0, 0
	vst	$vr0, $sp, 32                   # 16-byte Folded Spill
	pcalau12i	$a1, %pc_hi20(_ZTV13CRecordVectorIbE+16)
	addi.d	$s7, $a1, %pc_lo12(_ZTV13CRecordVectorIbE+16)
	ld.d	$a1, $sp, 16                    # 8-byte Folded Reload
	addi.d	$s1, $a1, 16
	b	.LBB24_69
	.p2align	4, , 16
.LBB24_67:                              # %for.end58
                                        #   in Loop: Header=BB24_69 Depth=1
	addi.d	$a0, $sp, 64
	pcaddu18i	$ra, %call36(_ZN17CBaseRecordVectorD2Ev)
	jirl	$ra, $ra, 0
	addi.d	$a0, $sp, 96
	pcaddu18i	$ra, %call36(_ZN17CBaseRecordVectorD2Ev)
	jirl	$ra, $ra, 0
.LBB24_68:                              # %cleanup
                                        #   in Loop: Header=BB24_69 Depth=1
	ld.d	$a0, $fp, 40
	ld.d	$a2, $a0, 16
	ld.d	$a3, $a0, 8
	addi.d	$s3, $a0, 16
	addi.d	$s8, $a0, 8
	bgeu	$a2, $a3, .LBB24_103
.LBB24_69:                              # %if.end.i92
                                        # =>This Loop Header: Depth=1
                                        #     Child Loop BB24_101 Depth 2
	ld.d	$a4, $a0, 0
	addi.d	$a6, $a2, 1
	st.d	$a6, $a0, 16
	ldx.b	$a5, $a4, $a2
	andi	$a1, $a5, 255
	bltz	$a5, .LBB24_71
# %bb.70:                               #   in Loop: Header=BB24_69 Depth=1
	move	$a4, $zero
	move	$a3, $zero
	ori	$a2, $zero, 383
	b	.LBB24_92
	.p2align	4, , 16
.LBB24_71:                              # %if.end11.i97
                                        #   in Loop: Header=BB24_69 Depth=1
	nor	$a5, $a2, $zero
	add.d	$a5, $a3, $a5
	beqz	$a5, .LBB24_103
# %bb.72:                               # %if.end16.i99
                                        #   in Loop: Header=BB24_69 Depth=1
	addi.d	$a7, $a2, 2
	st.d	$a7, $s3, 0
	ldx.bu	$a3, $a4, $a6
	andi	$a6, $a1, 64
	bnez	$a6, .LBB24_74
# %bb.73:                               #   in Loop: Header=BB24_69 Depth=1
	ori	$a2, $zero, 319
	ori	$a4, $zero, 8
	b	.LBB24_92
.LBB24_74:                              # %if.end11.1.i105
                                        #   in Loop: Header=BB24_69 Depth=1
	beq	$a5, $s4, .LBB24_103
# %bb.75:                               # %if.end16.1.i107
                                        #   in Loop: Header=BB24_69 Depth=1
	addi.d	$a6, $a2, 3
	st.d	$a6, $s3, 0
	ldx.bu	$a7, $a4, $a7
	slli.d	$a7, $a7, 8
	andi	$t0, $a1, 32
	or	$a3, $a7, $a3
	bnez	$t0, .LBB24_77
# %bb.76:                               #   in Loop: Header=BB24_69 Depth=1
	ori	$a2, $zero, 287
	ori	$a4, $zero, 16
	b	.LBB24_92
.LBB24_77:                              # %if.end11.2.i115
                                        #   in Loop: Header=BB24_69 Depth=1
	ori	$a7, $zero, 2
	beq	$a5, $a7, .LBB24_103
# %bb.78:                               # %if.end16.2.i117
                                        #   in Loop: Header=BB24_69 Depth=1
	addi.d	$a7, $a2, 4
	st.d	$a7, $s3, 0
	ldx.bu	$a6, $a4, $a6
	slli.d	$a6, $a6, 16
	andi	$t0, $a1, 16
	or	$a3, $a6, $a3
	bnez	$t0, .LBB24_80
# %bb.79:                               #   in Loop: Header=BB24_69 Depth=1
	ori	$a2, $zero, 271
	ori	$a4, $zero, 24
	b	.LBB24_92
.LBB24_80:                              # %if.end11.3.i125
                                        #   in Loop: Header=BB24_69 Depth=1
	ori	$a6, $zero, 3
	beq	$a5, $a6, .LBB24_103
# %bb.81:                               # %if.end16.3.i127
                                        #   in Loop: Header=BB24_69 Depth=1
	addi.d	$a6, $a2, 5
	st.d	$a6, $s3, 0
	ldx.bu	$a7, $a4, $a7
	slli.d	$a7, $a7, 24
	andi	$t0, $a1, 8
	or	$a3, $a7, $a3
	bnez	$t0, .LBB24_83
# %bb.82:                               #   in Loop: Header=BB24_69 Depth=1
	ori	$a2, $zero, 263
	ori	$a4, $zero, 32
	b	.LBB24_92
.LBB24_83:                              # %if.end11.4.i135
                                        #   in Loop: Header=BB24_69 Depth=1
	ori	$a7, $zero, 4
	beq	$a5, $a7, .LBB24_103
# %bb.84:                               # %if.end16.4.i137
                                        #   in Loop: Header=BB24_69 Depth=1
	addi.d	$a7, $a2, 6
	st.d	$a7, $s3, 0
	ldx.bu	$a6, $a4, $a6
	slli.d	$a6, $a6, 32
	andi	$t0, $a1, 4
	or	$a3, $a6, $a3
	bnez	$t0, .LBB24_86
# %bb.85:                               #   in Loop: Header=BB24_69 Depth=1
	ori	$a2, $zero, 259
	ori	$a4, $zero, 40
	b	.LBB24_92
.LBB24_86:                              # %if.end11.5.i145
                                        #   in Loop: Header=BB24_69 Depth=1
	ori	$a6, $zero, 5
	beq	$a5, $a6, .LBB24_103
# %bb.87:                               # %if.end16.5.i147
                                        #   in Loop: Header=BB24_69 Depth=1
	addi.d	$a6, $a2, 7
	st.d	$a6, $s3, 0
	ldx.bu	$a7, $a4, $a7
	slli.d	$a7, $a7, 40
	andi	$t0, $a1, 2
	or	$a3, $a7, $a3
	bnez	$t0, .LBB24_89
# %bb.88:                               #   in Loop: Header=BB24_69 Depth=1
	ori	$a2, $zero, 257
	ori	$a4, $zero, 48
	b	.LBB24_92
.LBB24_89:                              # %if.end11.6.i155
                                        #   in Loop: Header=BB24_69 Depth=1
	ori	$a7, $zero, 6
	beq	$a5, $a7, .LBB24_103
# %bb.90:                               # %if.end16.6.i157
                                        #   in Loop: Header=BB24_69 Depth=1
	addi.d	$a7, $a2, 8
	st.d	$a7, $s3, 0
	ldx.bu	$a6, $a4, $a6
	slli.d	$a6, $a6, 48
	andi	$t0, $a1, 1
	or	$a3, $a6, $a3
	bnez	$t0, .LBB24_96
# %bb.91:                               #   in Loop: Header=BB24_69 Depth=1
	ori	$a2, $zero, 256
	ori	$a4, $zero, 56
	.p2align	4, , 16
.LBB24_92:                              # %if.then6.i176
                                        #   in Loop: Header=BB24_69 Depth=1
	and	$a1, $a2, $a1
	sll.d	$a1, $a1, $a4
	add.d	$a1, $a1, $a3
	beq	$a1, $s6, .LBB24_98
.LBB24_93:                              # %_ZN8NArchive3N7z8CInByte210ReadNumberEv.exit184
                                        #   in Loop: Header=BB24_69 Depth=1
	beqz	$a1, .LBB24_102
# %bb.94:                               # %if.end63
                                        #   in Loop: Header=BB24_69 Depth=1
	pcaddu18i	$ra, %call36(_ZN8NArchive3N7z8CInByte210ReadNumberEv)
	jirl	$ra, $ra, 0
	ld.d	$a2, $s8, 0
	ld.d	$a1, $s3, 0
	sub.d	$a2, $a2, $a1
	bltu	$a2, $a0, .LBB24_103
# %bb.95:                               # %_ZN8NArchive3N7z10CInArchive8SkipDataEv.exit
                                        #   in Loop: Header=BB24_69 Depth=1
	add.d	$a0, $a1, $a0
	st.d	$a0, $s3, 0
	b	.LBB24_68
.LBB24_96:                              # %if.end11.7.i165
                                        #   in Loop: Header=BB24_69 Depth=1
	ori	$a1, $zero, 7
	beq	$a5, $a1, .LBB24_103
# %bb.97:                               # %if.end16.7.i167
                                        #   in Loop: Header=BB24_69 Depth=1
	addi.d	$a1, $a2, 9
	st.d	$a1, $s3, 0
	ldx.b	$a1, $a4, $a7
	slli.d	$a1, $a1, 56
	or	$a1, $a1, $a3
	bne	$a1, $s6, .LBB24_93
	.p2align	4, , 16
.LBB24_98:                              # %if.then39
                                        #   in Loop: Header=BB24_69 Depth=1
	addi.d	$a0, $sp, 104
	vld	$vr0, $sp, 32                   # 16-byte Folded Reload
	vst	$vr0, $a0, 0
	st.d	$s4, $sp, 120
	st.d	$s7, $sp, 96
	addi.d	$a0, $sp, 72
	vst	$vr0, $a0, 0
	ori	$a0, $zero, 4
	st.d	$a0, $sp, 88
	st.d	$s1, $sp, 64
.Ltmp55:                                # EH_LABEL
	addi.d	$a2, $sp, 96
	addi.d	$a3, $sp, 64
	move	$a0, $fp
	ld.d	$a1, $sp, 56                    # 8-byte Folded Reload
	pcaddu18i	$ra, %call36(_ZN8NArchive3N7z10CInArchive15ReadHashDigestsEiR13CRecordVectorIbERS2_IjE)
	jirl	$ra, $ra, 0
.Ltmp56:                                # EH_LABEL
# %bb.99:                               # %for.cond44.preheader
                                        #   in Loop: Header=BB24_69 Depth=1
	beqz	$s2, .LBB24_67
# %bb.100:                              # %for.body46.lr.ph
                                        #   in Loop: Header=BB24_69 Depth=1
	ld.d	$a0, $s0, 16
	ld.d	$a1, $sp, 112
	ld.d	$a2, $sp, 80
	move	$a3, $zero
	.p2align	4, , 16
.LBB24_101:                             # %for.body46
                                        #   Parent Loop BB24_69 Depth=1
                                        # =>  This Inner Loop Header: Depth=2
	slli.d	$a4, $a3, 3
	ldx.d	$a4, $a0, $a4
	ldx.b	$a5, $a1, $a3
	st.b	$a5, $a4, 132
	slli.d	$a5, $a3, 2
	ldx.w	$a5, $a2, $a5
	addi.w	$a3, $a3, 1
	st.w	$a5, $a4, 128
	bne	$s5, $a3, .LBB24_101
	b	.LBB24_67
.LBB24_102:                             # %cleanup65
	ld.d	$s8, $sp, 232                   # 8-byte Folded Reload
	ld.d	$s7, $sp, 240                   # 8-byte Folded Reload
	ld.d	$s6, $sp, 248                   # 8-byte Folded Reload
	ld.d	$s5, $sp, 256                   # 8-byte Folded Reload
	ld.d	$s4, $sp, 264                   # 8-byte Folded Reload
	ld.d	$s3, $sp, 272                   # 8-byte Folded Reload
	ld.d	$s2, $sp, 280                   # 8-byte Folded Reload
	ld.d	$s1, $sp, 288                   # 8-byte Folded Reload
	ld.d	$s0, $sp, 296                   # 8-byte Folded Reload
	ld.d	$fp, $sp, 304                   # 8-byte Folded Reload
	ld.d	$ra, $sp, 312                   # 8-byte Folded Reload
	addi.d	$sp, $sp, 320
	ret
.LBB24_103:                             # %if.then3.i
	pcaddu18i	$ra, %call36(_ZN8NArchive3N7zL14ThrowExceptionEv)
	jirl	$ra, $ra, 0
.LBB24_104:                             # %terminate.lpad.i
.Ltmp54:                                # EH_LABEL
	pcaddu18i	$ra, %call36(__clang_call_terminate)
	jirl	$ra, $ra, 0
.LBB24_105:                             # %lpad
.Ltmp37:                                # EH_LABEL
	b	.LBB24_109
.LBB24_106:                             # %lpad.i
.Ltmp42:                                # EH_LABEL
	move	$fp, $a0
	ori	$a1, $zero, 136
	move	$a0, $s6
	pcaddu18i	$ra, %call36(_ZdlPvm)
	jirl	$ra, $ra, 0
	b	.LBB24_112
.LBB24_107:                             # %terminate.lpad.i.i
.Ltmp48:                                # EH_LABEL
	pcaddu18i	$ra, %call36(__clang_call_terminate)
	jirl	$ra, $ra, 0
.LBB24_108:                             # %lpad9
.Ltmp51:                                # EH_LABEL
.LBB24_109:                             # %ehcleanup14
	move	$fp, $a0
	addi.d	$a0, $sp, 64
	pcaddu18i	$ra, %call36(_ZN8NArchive3N7z13CStreamSwitchD2Ev)
	jirl	$ra, $ra, 0
	move	$a0, $fp
	pcaddu18i	$ra, %call36(_Unwind_Resume)
	jirl	$ra, $ra, 0
.LBB24_110:                             # %lpad42
.Ltmp57:                                # EH_LABEL
	move	$fp, $a0
	addi.d	$a0, $sp, 64
	pcaddu18i	$ra, %call36(_ZN17CBaseRecordVectorD2Ev)
	jirl	$ra, $ra, 0
	addi.d	$a0, $sp, 96
	pcaddu18i	$ra, %call36(_ZN17CBaseRecordVectorD2Ev)
	jirl	$ra, $ra, 0
	move	$a0, $fp
	pcaddu18i	$ra, %call36(_Unwind_Resume)
	jirl	$ra, $ra, 0
.LBB24_111:                             # %lpad6
.Ltmp45:                                # EH_LABEL
	move	$fp, $a0
.LBB24_112:                             # %lpad6.body
	addi.d	$a0, $sp, 96
	pcaddu18i	$ra, %call36(_ZN8NArchive3N7z7CFolderD2Ev)
	jirl	$ra, $ra, 0
	addi.d	$a0, $sp, 64
	pcaddu18i	$ra, %call36(_ZN8NArchive3N7z13CStreamSwitchD2Ev)
	jirl	$ra, $ra, 0
	move	$a0, $fp
	pcaddu18i	$ra, %call36(_Unwind_Resume)
	jirl	$ra, $ra, 0
.Lfunc_end24:
	.size	_ZN8NArchive3N7z10CInArchive14ReadUnpackInfoEPK13CObjectVectorI7CBufferIhEERS2_INS0_7CFolderEE, .Lfunc_end24-_ZN8NArchive3N7z10CInArchive14ReadUnpackInfoEPK13CObjectVectorI7CBufferIhEERS2_INS0_7CFolderEE
	.cfi_endproc
	.section	.gcc_except_table,"a",@progbits
	.p2align	2, 0x0
GCC_except_table24:
.Lexception2:
	.byte	255                             # @LPStart Encoding = omit
	.byte	155                             # @TType Encoding = indirect pcrel sdata4
	.uleb128 .Lttbase0-.Lttbaseref0
.Lttbaseref0:
	.byte	1                               # Call site Encoding = uleb128
	.uleb128 .Lcst_end2-.Lcst_begin2
.Lcst_begin2:
	.uleb128 .Lfunc_begin2-.Lfunc_begin2    # >> Call Site 1 <<
	.uleb128 .Ltmp31-.Lfunc_begin2          #   Call between .Lfunc_begin2 and .Ltmp31
	.byte	0                               #     has no landing pad
	.byte	0                               #   On action: cleanup
	.uleb128 .Ltmp31-.Lfunc_begin2          # >> Call Site 2 <<
	.uleb128 .Ltmp36-.Ltmp31                #   Call between .Ltmp31 and .Ltmp36
	.uleb128 .Ltmp37-.Lfunc_begin2          #     jumps to .Ltmp37
	.byte	0                               #   On action: cleanup
	.uleb128 .Ltmp38-.Lfunc_begin2          # >> Call Site 3 <<
	.uleb128 .Ltmp39-.Ltmp38                #   Call between .Ltmp38 and .Ltmp39
	.uleb128 .Ltmp45-.Lfunc_begin2          #     jumps to .Ltmp45
	.byte	0                               #   On action: cleanup
	.uleb128 .Ltmp40-.Lfunc_begin2          # >> Call Site 4 <<
	.uleb128 .Ltmp41-.Ltmp40                #   Call between .Ltmp40 and .Ltmp41
	.uleb128 .Ltmp42-.Lfunc_begin2          #     jumps to .Ltmp42
	.byte	0                               #   On action: cleanup
	.uleb128 .Ltmp43-.Lfunc_begin2          # >> Call Site 5 <<
	.uleb128 .Ltmp44-.Ltmp43                #   Call between .Ltmp43 and .Ltmp44
	.uleb128 .Ltmp45-.Lfunc_begin2          #     jumps to .Ltmp45
	.byte	0                               #   On action: cleanup
	.uleb128 .Ltmp44-.Lfunc_begin2          # >> Call Site 6 <<
	.uleb128 .Ltmp46-.Ltmp44                #   Call between .Ltmp44 and .Ltmp46
	.byte	0                               #     has no landing pad
	.byte	0                               #   On action: cleanup
	.uleb128 .Ltmp46-.Lfunc_begin2          # >> Call Site 7 <<
	.uleb128 .Ltmp47-.Ltmp46                #   Call between .Ltmp46 and .Ltmp47
	.uleb128 .Ltmp48-.Lfunc_begin2          #     jumps to .Ltmp48
	.byte	1                               #   On action: 1
	.uleb128 .Ltmp47-.Lfunc_begin2          # >> Call Site 8 <<
	.uleb128 .Ltmp49-.Ltmp47                #   Call between .Ltmp47 and .Ltmp49
	.byte	0                               #     has no landing pad
	.byte	0                               #   On action: cleanup
	.uleb128 .Ltmp49-.Lfunc_begin2          # >> Call Site 9 <<
	.uleb128 .Ltmp50-.Ltmp49                #   Call between .Ltmp49 and .Ltmp50
	.uleb128 .Ltmp51-.Lfunc_begin2          #     jumps to .Ltmp51
	.byte	0                               #   On action: cleanup
	.uleb128 .Ltmp52-.Lfunc_begin2          # >> Call Site 10 <<
	.uleb128 .Ltmp53-.Ltmp52                #   Call between .Ltmp52 and .Ltmp53
	.uleb128 .Ltmp54-.Lfunc_begin2          #     jumps to .Ltmp54
	.byte	1                               #   On action: 1
	.uleb128 .Ltmp53-.Lfunc_begin2          # >> Call Site 11 <<
	.uleb128 .Ltmp55-.Ltmp53                #   Call between .Ltmp53 and .Ltmp55
	.byte	0                               #     has no landing pad
	.byte	0                               #   On action: cleanup
	.uleb128 .Ltmp55-.Lfunc_begin2          # >> Call Site 12 <<
	.uleb128 .Ltmp56-.Ltmp55                #   Call between .Ltmp55 and .Ltmp56
	.uleb128 .Ltmp57-.Lfunc_begin2          #     jumps to .Ltmp57
	.byte	0                               #   On action: cleanup
	.uleb128 .Ltmp56-.Lfunc_begin2          # >> Call Site 13 <<
	.uleb128 .Lfunc_end24-.Ltmp56           #   Call between .Ltmp56 and .Lfunc_end24
	.byte	0                               #     has no landing pad
	.byte	0                               #   On action: cleanup
.Lcst_end2:
	.byte	1                               # >> Action Record 1 <<
                                        #   Catch TypeInfo 1
	.byte	0                               #   No further actions
	.p2align	2, 0x0
                                        # >> Catch TypeInfos <<
	.word	0                               # TypeInfo 1
.Lttbase0:
	.p2align	2, 0x0
                                        # -- End function
	.section	.text._ZN8NArchive3N7z7CFolderD2Ev,"axG",@progbits,_ZN8NArchive3N7z7CFolderD2Ev,comdat
	.weak	_ZN8NArchive3N7z7CFolderD2Ev    # -- Begin function _ZN8NArchive3N7z7CFolderD2Ev
	.p2align	2
	.type	_ZN8NArchive3N7z7CFolderD2Ev,@function
_ZN8NArchive3N7z7CFolderD2Ev:           # @_ZN8NArchive3N7z7CFolderD2Ev
.Lfunc_begin3:
	.cfi_startproc
	.cfi_personality 155, DW.ref.__gxx_personality_v0
	.cfi_lsda 27, .Lexception3
# %bb.0:                                # %entry
	addi.d	$sp, $sp, -16
	.cfi_def_cfa_offset 16
	st.d	$ra, $sp, 8                     # 8-byte Folded Spill
	st.d	$fp, $sp, 0                     # 8-byte Folded Spill
	.cfi_offset 1, -8
	.cfi_offset 22, -16
	move	$fp, $a0
	addi.d	$a0, $a0, 96
	pcaddu18i	$ra, %call36(_ZN17CBaseRecordVectorD2Ev)
	jirl	$ra, $ra, 0
	addi.d	$a0, $fp, 64
	pcaddu18i	$ra, %call36(_ZN17CBaseRecordVectorD2Ev)
	jirl	$ra, $ra, 0
	addi.d	$a0, $fp, 32
	pcaddu18i	$ra, %call36(_ZN17CBaseRecordVectorD2Ev)
	jirl	$ra, $ra, 0
	pcalau12i	$a0, %pc_hi20(_ZTV13CObjectVectorIN8NArchive3N7z10CCoderInfoEE+16)
	addi.d	$a0, $a0, %pc_lo12(_ZTV13CObjectVectorIN8NArchive3N7z10CCoderInfoEE+16)
	st.d	$a0, $fp, 0
.Ltmp58:                                # EH_LABEL
	move	$a0, $fp
	pcaddu18i	$ra, %call36(_ZN17CBaseRecordVector5ClearEv)
	jirl	$ra, $ra, 0
.Ltmp59:                                # EH_LABEL
# %bb.1:                                # %_ZN13CObjectVectorIN8NArchive3N7z10CCoderInfoEED2Ev.exit
	move	$a0, $fp
	ld.d	$fp, $sp, 0                     # 8-byte Folded Reload
	ld.d	$ra, $sp, 8                     # 8-byte Folded Reload
	addi.d	$sp, $sp, 16
	pcaddu18i	$t8, %call36(_ZN17CBaseRecordVectorD2Ev)
	jr	$t8
.LBB25_2:                               # %terminate.lpad.i
.Ltmp60:                                # EH_LABEL
	pcaddu18i	$ra, %call36(__clang_call_terminate)
	jirl	$ra, $ra, 0
.Lfunc_end25:
	.size	_ZN8NArchive3N7z7CFolderD2Ev, .Lfunc_end25-_ZN8NArchive3N7z7CFolderD2Ev
	.cfi_endproc
	.section	.gcc_except_table._ZN8NArchive3N7z7CFolderD2Ev,"aG",@progbits,_ZN8NArchive3N7z7CFolderD2Ev,comdat
	.p2align	2, 0x0
GCC_except_table25:
.Lexception3:
	.byte	255                             # @LPStart Encoding = omit
	.byte	155                             # @TType Encoding = indirect pcrel sdata4
	.uleb128 .Lttbase1-.Lttbaseref1
.Lttbaseref1:
	.byte	1                               # Call site Encoding = uleb128
	.uleb128 .Lcst_end3-.Lcst_begin3
.Lcst_begin3:
	.uleb128 .Lfunc_begin3-.Lfunc_begin3    # >> Call Site 1 <<
	.uleb128 .Ltmp58-.Lfunc_begin3          #   Call between .Lfunc_begin3 and .Ltmp58
	.byte	0                               #     has no landing pad
	.byte	0                               #   On action: cleanup
	.uleb128 .Ltmp58-.Lfunc_begin3          # >> Call Site 2 <<
	.uleb128 .Ltmp59-.Ltmp58                #   Call between .Ltmp58 and .Ltmp59
	.uleb128 .Ltmp60-.Lfunc_begin3          #     jumps to .Ltmp60
	.byte	1                               #   On action: 1
	.uleb128 .Ltmp59-.Lfunc_begin3          # >> Call Site 3 <<
	.uleb128 .Lfunc_end25-.Ltmp59           #   Call between .Ltmp59 and .Lfunc_end25
	.byte	0                               #     has no landing pad
	.byte	0                               #   On action: cleanup
.Lcst_end3:
	.byte	1                               # >> Action Record 1 <<
                                        #   Catch TypeInfo 1
	.byte	0                               #   No further actions
	.p2align	2, 0x0
                                        # >> Catch TypeInfos <<
	.word	0                               # TypeInfo 1
.Lttbase1:
	.p2align	2, 0x0
                                        # -- End function
	.section	.text._ZN8NArchive3N7z13CStreamSwitchD2Ev,"axG",@progbits,_ZN8NArchive3N7z13CStreamSwitchD2Ev,comdat
	.weak	_ZN8NArchive3N7z13CStreamSwitchD2Ev # -- Begin function _ZN8NArchive3N7z13CStreamSwitchD2Ev
	.p2align	2
	.type	_ZN8NArchive3N7z13CStreamSwitchD2Ev,@function
_ZN8NArchive3N7z13CStreamSwitchD2Ev:    # @_ZN8NArchive3N7z13CStreamSwitchD2Ev
.Lfunc_begin4:
	.cfi_startproc
	.cfi_personality 155, DW.ref.__gxx_personality_v0
	.cfi_lsda 27, .Lexception4
# %bb.0:                                # %entry
	addi.d	$sp, $sp, -32
	.cfi_def_cfa_offset 32
	st.d	$ra, $sp, 24                    # 8-byte Folded Spill
	st.d	$fp, $sp, 16                    # 8-byte Folded Spill
	st.d	$s0, $sp, 8                     # 8-byte Folded Spill
	.cfi_offset 1, -8
	.cfi_offset 22, -16
	.cfi_offset 23, -24
	move	$fp, $a0
	ld.bu	$a0, $a0, 8
	ori	$a1, $zero, 1
	bne	$a0, $a1, .LBB26_5
# %bb.1:                                # %if.then.i
	ld.d	$s0, $fp, 0
	addi.d	$a0, $s0, 8
.Ltmp61:                                # EH_LABEL
	pcaddu18i	$ra, %call36(_ZN17CBaseRecordVector10DeleteBackEv)
	jirl	$ra, $ra, 0
.Ltmp62:                                # EH_LABEL
# %bb.2:                                # %.noexc
	ld.w	$a0, $s0, 20
	beqz	$a0, .LBB26_4
# %bb.3:                                # %if.then.i.i
	ld.d	$a1, $s0, 24
	alsl.d	$a0, $a0, $a1, 3
	ld.d	$a0, $a0, -8
	st.d	$a0, $s0, 40
.LBB26_4:                               # %_ZN8NArchive3N7z10CInArchive16DeleteByteStreamEv.exit.i
	st.b	$zero, $fp, 8
.LBB26_5:                               # %invoke.cont
	ld.d	$s0, $sp, 8                     # 8-byte Folded Reload
	ld.d	$fp, $sp, 16                    # 8-byte Folded Reload
	ld.d	$ra, $sp, 24                    # 8-byte Folded Reload
	addi.d	$sp, $sp, 32
	ret
.LBB26_6:                               # %terminate.lpad
.Ltmp63:                                # EH_LABEL
	pcaddu18i	$ra, %call36(__clang_call_terminate)
	jirl	$ra, $ra, 0
.Lfunc_end26:
	.size	_ZN8NArchive3N7z13CStreamSwitchD2Ev, .Lfunc_end26-_ZN8NArchive3N7z13CStreamSwitchD2Ev
	.cfi_endproc
	.section	.gcc_except_table._ZN8NArchive3N7z13CStreamSwitchD2Ev,"aG",@progbits,_ZN8NArchive3N7z13CStreamSwitchD2Ev,comdat
	.p2align	2, 0x0
GCC_except_table26:
.Lexception4:
	.byte	255                             # @LPStart Encoding = omit
	.byte	155                             # @TType Encoding = indirect pcrel sdata4
	.uleb128 .Lttbase2-.Lttbaseref2
.Lttbaseref2:
	.byte	1                               # Call site Encoding = uleb128
	.uleb128 .Lcst_end4-.Lcst_begin4
.Lcst_begin4:
	.uleb128 .Ltmp61-.Lfunc_begin4          # >> Call Site 1 <<
	.uleb128 .Ltmp62-.Ltmp61                #   Call between .Ltmp61 and .Ltmp62
	.uleb128 .Ltmp63-.Lfunc_begin4          #     jumps to .Ltmp63
	.byte	1                               #   On action: 1
	.uleb128 .Ltmp62-.Lfunc_begin4          # >> Call Site 2 <<
	.uleb128 .Lfunc_end26-.Ltmp62           #   Call between .Ltmp62 and .Lfunc_end26
	.byte	0                               #     has no landing pad
	.byte	0                               #   On action: cleanup
.Lcst_end4:
	.byte	1                               # >> Action Record 1 <<
                                        #   Catch TypeInfo 1
	.byte	0                               #   No further actions
	.p2align	2, 0x0
                                        # >> Catch TypeInfos <<
	.word	0                               # TypeInfo 1
.Lttbase2:
	.p2align	2, 0x0
                                        # -- End function
	.text
	.globl	_ZN8NArchive3N7z10CInArchive18ReadSubStreamsInfoERK13CObjectVectorINS0_7CFolderEER13CRecordVectorIjERS7_IyERS7_IbES9_ # -- Begin function _ZN8NArchive3N7z10CInArchive18ReadSubStreamsInfoERK13CObjectVectorINS0_7CFolderEER13CRecordVectorIjERS7_IyERS7_IbES9_
	.p2align	2
	.type	_ZN8NArchive3N7z10CInArchive18ReadSubStreamsInfoERK13CObjectVectorINS0_7CFolderEER13CRecordVectorIjERS7_IyERS7_IbES9_,@function
_ZN8NArchive3N7z10CInArchive18ReadSubStreamsInfoERK13CObjectVectorINS0_7CFolderEER13CRecordVectorIjERS7_IyERS7_IbES9_: # @_ZN8NArchive3N7z10CInArchive18ReadSubStreamsInfoERK13CObjectVectorINS0_7CFolderEER13CRecordVectorIjERS7_IyERS7_IbES9_
.Lfunc_begin5:
	.cfi_startproc
	.cfi_personality 155, DW.ref.__gxx_personality_v0
	.cfi_lsda 27, .Lexception5
# %bb.0:                                # %entry
	addi.d	$sp, $sp, -224
	.cfi_def_cfa_offset 224
	st.d	$ra, $sp, 216                   # 8-byte Folded Spill
	st.d	$fp, $sp, 208                   # 8-byte Folded Spill
	st.d	$s0, $sp, 200                   # 8-byte Folded Spill
	st.d	$s1, $sp, 192                   # 8-byte Folded Spill
	st.d	$s2, $sp, 184                   # 8-byte Folded Spill
	st.d	$s3, $sp, 176                   # 8-byte Folded Spill
	st.d	$s4, $sp, 168                   # 8-byte Folded Spill
	st.d	$s5, $sp, 160                   # 8-byte Folded Spill
	st.d	$s6, $sp, 152                   # 8-byte Folded Spill
	st.d	$s7, $sp, 144                   # 8-byte Folded Spill
	st.d	$s8, $sp, 136                   # 8-byte Folded Spill
	.cfi_offset 1, -8
	.cfi_offset 22, -16
	.cfi_offset 23, -24
	.cfi_offset 24, -32
	.cfi_offset 25, -40
	.cfi_offset 26, -48
	.cfi_offset 27, -56
	.cfi_offset 28, -64
	.cfi_offset 29, -72
	.cfi_offset 30, -80
	.cfi_offset 31, -88
	move	$fp, $a5
	move	$s0, $a4
	move	$s4, $a3
	move	$s1, $a2
	move	$s3, $a1
	st.d	$a0, $sp, 56                    # 8-byte Folded Spill
	move	$a0, $a2
	pcaddu18i	$ra, %call36(_ZN17CBaseRecordVector5ClearEv)
	jirl	$ra, $ra, 0
	ld.w	$a1, $s3, 12
	move	$a0, $s1
	pcaddu18i	$ra, %call36(_ZN17CBaseRecordVector7ReserveEi)
	jirl	$ra, $ra, 0
	ori	$s6, $zero, 13
	ori	$s7, $zero, 1
	ori	$s8, $zero, 2
	.p2align	4, , 16
.LBB27_1:                               # %for.cond
                                        # =>This Loop Header: Depth=1
                                        #     Child Loop BB27_8 Depth 2
	ld.d	$a0, $sp, 56                    # 8-byte Folded Reload
	ld.d	$a0, $a0, 40
	pcaddu18i	$ra, %call36(_ZN8NArchive3N7z8CInByte210ReadNumberEv)
	jirl	$ra, $ra, 0
	beq	$a0, $s6, .LBB27_6
# %bb.2:                                # %for.cond
                                        #   in Loop: Header=BB27_1 Depth=1
	move	$s5, $a0
	addi.d	$a0, $a0, -9
	bltu	$a0, $s8, .LBB27_37
# %bb.3:                                # %for.cond
                                        #   in Loop: Header=BB27_1 Depth=1
	beqz	$s5, .LBB27_37
# %bb.4:                                # %if.end14
                                        #   in Loop: Header=BB27_1 Depth=1
	ld.d	$a0, $sp, 56                    # 8-byte Folded Reload
	ld.d	$s5, $a0, 40
	move	$a0, $s5
	pcaddu18i	$ra, %call36(_ZN8NArchive3N7z8CInByte210ReadNumberEv)
	jirl	$ra, $ra, 0
	ld.d	$a2, $s5, 8
	ld.d	$a1, $s5, 16
	sub.d	$a2, $a2, $a1
	bltu	$a2, $a0, .LBB27_36
# %bb.5:                                # %_ZN8NArchive3N7z10CInArchive8SkipDataEv.exit
                                        #   in Loop: Header=BB27_1 Depth=1
	add.d	$a0, $a1, $a0
	st.d	$a0, $s5, 16
	b	.LBB27_1
	.p2align	4, , 16
.LBB27_6:                               # %for.cond3.preheader
                                        #   in Loop: Header=BB27_1 Depth=1
	ld.w	$a0, $s3, 12
	blt	$a0, $s7, .LBB27_1
# %bb.7:                                # %for.body.lr.ph
                                        #   in Loop: Header=BB27_1 Depth=1
	move	$s5, $zero
	.p2align	4, , 16
.LBB27_8:                               # %for.body
                                        #   Parent Loop BB27_1 Depth=1
                                        # =>  This Inner Loop Header: Depth=2
	ld.d	$a0, $sp, 56                    # 8-byte Folded Reload
	ld.d	$a2, $a0, 40
	ld.d	$a3, $a2, 16
	ld.d	$a5, $a2, 8
	bgeu	$a3, $a5, .LBB27_36
# %bb.9:                                # %if.end.i
                                        #   in Loop: Header=BB27_8 Depth=2
	ld.d	$a4, $a2, 0
	addi.d	$a1, $a3, 1
	st.d	$a1, $a2, 16
	ldx.b	$a6, $a4, $a3
	andi	$a0, $a6, 255
	bltz	$a6, .LBB27_11
# %bb.10:                               #   in Loop: Header=BB27_8 Depth=2
	move	$a3, $zero
	move	$a1, $zero
	ori	$a2, $zero, 383
	b	.LBB27_32
	.p2align	4, , 16
.LBB27_11:                              # %if.end11.i
                                        #   in Loop: Header=BB27_8 Depth=2
	nor	$a6, $a3, $zero
	add.d	$a5, $a5, $a6
	beqz	$a5, .LBB27_36
# %bb.12:                               # %if.end16.i
                                        #   in Loop: Header=BB27_8 Depth=2
	addi.d	$a7, $a3, 2
	st.d	$a7, $a2, 16
	ldx.bu	$a1, $a4, $a1
	andi	$a6, $a0, 64
	bnez	$a6, .LBB27_14
# %bb.13:                               #   in Loop: Header=BB27_8 Depth=2
	ori	$a2, $zero, 319
	ori	$a3, $zero, 8
	b	.LBB27_32
.LBB27_14:                              # %if.end11.1.i
                                        #   in Loop: Header=BB27_8 Depth=2
	beq	$a5, $s7, .LBB27_36
# %bb.15:                               # %if.end16.1.i
                                        #   in Loop: Header=BB27_8 Depth=2
	addi.d	$a6, $a3, 3
	st.d	$a6, $a2, 16
	ldx.bu	$a7, $a4, $a7
	slli.d	$a7, $a7, 8
	andi	$t0, $a0, 32
	or	$a1, $a7, $a1
	bnez	$t0, .LBB27_17
# %bb.16:                               #   in Loop: Header=BB27_8 Depth=2
	ori	$a2, $zero, 287
	ori	$a3, $zero, 16
	b	.LBB27_32
.LBB27_17:                              # %if.end11.2.i
                                        #   in Loop: Header=BB27_8 Depth=2
	beq	$a5, $s8, .LBB27_36
# %bb.18:                               # %if.end16.2.i
                                        #   in Loop: Header=BB27_8 Depth=2
	addi.d	$a7, $a3, 4
	st.d	$a7, $a2, 16
	ldx.bu	$a6, $a4, $a6
	slli.d	$a6, $a6, 16
	andi	$t0, $a0, 16
	or	$a1, $a6, $a1
	bnez	$t0, .LBB27_20
# %bb.19:                               #   in Loop: Header=BB27_8 Depth=2
	ori	$a2, $zero, 271
	ori	$a3, $zero, 24
	b	.LBB27_32
.LBB27_20:                              # %if.end11.3.i
                                        #   in Loop: Header=BB27_8 Depth=2
	ori	$a6, $zero, 3
	beq	$a5, $a6, .LBB27_36
# %bb.21:                               # %if.end16.3.i
                                        #   in Loop: Header=BB27_8 Depth=2
	addi.d	$a6, $a3, 5
	st.d	$a6, $a2, 16
	ldx.bu	$a7, $a4, $a7
	slli.d	$a7, $a7, 24
	andi	$t0, $a0, 8
	or	$a1, $a7, $a1
	bnez	$t0, .LBB27_23
# %bb.22:                               #   in Loop: Header=BB27_8 Depth=2
	ori	$a2, $zero, 263
	ori	$a3, $zero, 32
	b	.LBB27_32
.LBB27_23:                              # %if.end11.4.i
                                        #   in Loop: Header=BB27_8 Depth=2
	ori	$a7, $zero, 4
	beq	$a5, $a7, .LBB27_36
# %bb.24:                               # %if.end16.4.i
                                        #   in Loop: Header=BB27_8 Depth=2
	addi.d	$a7, $a3, 6
	st.d	$a7, $a2, 16
	ldx.bu	$a6, $a4, $a6
	slli.d	$a6, $a6, 32
	andi	$t0, $a0, 4
	or	$a1, $a6, $a1
	bnez	$t0, .LBB27_26
# %bb.25:                               #   in Loop: Header=BB27_8 Depth=2
	ori	$a2, $zero, 259
	ori	$a3, $zero, 40
	b	.LBB27_32
.LBB27_26:                              # %if.end11.5.i
                                        #   in Loop: Header=BB27_8 Depth=2
	ori	$a6, $zero, 5
	beq	$a5, $a6, .LBB27_36
# %bb.27:                               # %if.end16.5.i
                                        #   in Loop: Header=BB27_8 Depth=2
	addi.d	$a6, $a3, 7
	st.d	$a6, $a2, 16
	ldx.bu	$a7, $a4, $a7
	slli.d	$a7, $a7, 40
	andi	$t0, $a0, 2
	or	$a1, $a7, $a1
	bnez	$t0, .LBB27_29
# %bb.28:                               #   in Loop: Header=BB27_8 Depth=2
	ori	$a2, $zero, 257
	ori	$a3, $zero, 48
	b	.LBB27_32
.LBB27_29:                              # %if.end11.6.i
                                        #   in Loop: Header=BB27_8 Depth=2
	ori	$a7, $zero, 6
	beq	$a5, $a7, .LBB27_36
# %bb.30:                               # %if.end16.6.i
                                        #   in Loop: Header=BB27_8 Depth=2
	addi.d	$a7, $a3, 8
	st.d	$a7, $a2, 16
	ldx.bu	$a6, $a4, $a6
	slli.d	$a6, $a6, 48
	andi	$t0, $a0, 1
	or	$a1, $a6, $a1
	bnez	$t0, .LBB27_34
# %bb.31:                               #   in Loop: Header=BB27_8 Depth=2
	ori	$a2, $zero, 256
	ori	$a3, $zero, 56
	.p2align	4, , 16
.LBB27_32:                              # %if.then6.i
                                        #   in Loop: Header=BB27_8 Depth=2
	and	$a0, $a2, $a0
	sll.d	$a0, $a0, $a3
	add.d	$s2, $a0, $a1
	srli.d	$a0, $s2, 31
	bnez	$a0, .LBB27_36
.LBB27_33:                              # %_ZN8NArchive3N7z10CInArchive7ReadNumEv.exit
                                        #   in Loop: Header=BB27_8 Depth=2
	move	$a0, $s1
	pcaddu18i	$ra, %call36(_ZN17CBaseRecordVector18ReserveOnePositionEv)
	jirl	$ra, $ra, 0
	ld.w	$a0, $s1, 12
	ld.d	$a1, $s1, 16
	slli.d	$a0, $a0, 2
	stx.w	$s2, $a1, $a0
	ld.w	$a0, $s1, 12
	addi.d	$a0, $a0, 1
	st.w	$a0, $s1, 12
	ld.w	$a0, $s3, 12
	addi.w	$s5, $s5, 1
	blt	$s5, $a0, .LBB27_8
	b	.LBB27_1
.LBB27_34:                              # %if.end11.7.i
                                        #   in Loop: Header=BB27_8 Depth=2
	ori	$a0, $zero, 7
	beq	$a5, $a0, .LBB27_36
# %bb.35:                               # %if.end16.7.i
                                        #   in Loop: Header=BB27_8 Depth=2
	addi.d	$a0, $a3, 9
	st.d	$a0, $a2, 16
	ldx.b	$a0, $a4, $a7
	slli.d	$a0, $a0, 56
	or	$s2, $a0, $a1
	srli.d	$a0, $s2, 31
	beqz	$a0, .LBB27_33
.LBB27_36:                              # %if.then.i
	pcaddu18i	$ra, %call36(_ZN8NArchive3N7zL14ThrowExceptionEv)
	jirl	$ra, $ra, 0
.LBB27_37:                              # %for.end15
	ld.w	$a0, $s1, 12
	st.d	$s3, $sp, 64                    # 8-byte Folded Spill
	bnez	$a0, .LBB27_41
# %bb.38:                               # %for.end15
	ld.w	$a1, $s3, 12
	ori	$s3, $zero, 1
	blt	$a1, $s3, .LBB27_41
# %bb.39:                               # %for.body23.preheader
	move	$s6, $zero
	ld.d	$s2, $sp, 64                    # 8-byte Folded Reload
	.p2align	4, , 16
.LBB27_40:                              # %for.body23
                                        # =>This Inner Loop Header: Depth=1
	move	$a0, $s1
	pcaddu18i	$ra, %call36(_ZN17CBaseRecordVector18ReserveOnePositionEv)
	jirl	$ra, $ra, 0
	ld.w	$a0, $s1, 12
	ld.d	$a1, $s1, 16
	slli.d	$a0, $a0, 2
	stx.w	$s3, $a1, $a0
	ld.w	$a0, $s1, 12
	addi.w	$a0, $a0, 1
	st.w	$a0, $s1, 12
	ld.w	$a1, $s2, 12
	addi.w	$s6, $s6, 1
	blt	$s6, $a1, .LBB27_40
.LBB27_41:                              # %if.end28
	ori	$s2, $zero, 1
	ld.d	$s3, $sp, 64                    # 8-byte Folded Reload
	blt	$a0, $s2, .LBB27_88
# %bb.42:                               # %for.body33.lr.ph
	move	$s7, $zero
	b	.LBB27_46
	.p2align	4, , 16
.LBB27_43:                              #   in Loop: Header=BB27_46 Depth=1
	move	$a0, $zero
.LBB27_44:                              # %_ZNK8NArchive3N7z7CFolder13GetUnpackSizeEv.exit
                                        #   in Loop: Header=BB27_46 Depth=1
	sub.d	$s2, $a0, $s8
	move	$a0, $s4
	pcaddu18i	$ra, %call36(_ZN17CBaseRecordVector18ReserveOnePositionEv)
	jirl	$ra, $ra, 0
	ld.w	$a1, $s4, 12
	ld.d	$a2, $s4, 16
	addi.d	$a0, $a1, 1
	st.w	$a0, $s4, 12
	ld.w	$a0, $s1, 12
	slli.d	$a1, $a1, 3
	stx.d	$s2, $a2, $a1
	ori	$s2, $zero, 1
.LBB27_45:                              # %cleanup
                                        #   in Loop: Header=BB27_46 Depth=1
	addi.d	$s7, $s7, 1
	bge	$s7, $a0, .LBB27_88
.LBB27_46:                              # %for.body33
                                        # =>This Loop Header: Depth=1
                                        #     Child Loop BB27_50 Depth 2
                                        #     Child Loop BB27_83 Depth 2
                                        #       Child Loop BB27_84 Depth 3
	ld.d	$a1, $s1, 16
	slli.d	$a2, $s7, 2
	ldx.w	$a1, $a1, $a2
	beqz	$a1, .LBB27_45
# %bb.47:                               # %for.body33
                                        #   in Loop: Header=BB27_46 Depth=1
	move	$s8, $zero
	beq	$a1, $s2, .LBB27_78
# %bb.48:                               # %for.body41.lr.ph
                                        #   in Loop: Header=BB27_46 Depth=1
	ori	$a0, $zero, 9
	bne	$s5, $a0, .LBB27_78
# %bb.49:                               # %for.body41.us.preheader
                                        #   in Loop: Header=BB27_46 Depth=1
	addi.d	$s6, $a1, -1
	.p2align	4, , 16
.LBB27_50:                              # %for.body41.us
                                        #   Parent Loop BB27_46 Depth=1
                                        # =>  This Inner Loop Header: Depth=2
	ld.d	$a0, $sp, 56                    # 8-byte Folded Reload
	ld.d	$a2, $a0, 40
	ld.d	$a3, $a2, 16
	ld.d	$a5, $a2, 8
	bgeu	$a3, $a5, .LBB27_36
# %bb.51:                               # %if.end.i174.us
                                        #   in Loop: Header=BB27_50 Depth=2
	ld.d	$a4, $a2, 0
	addi.d	$a1, $a3, 1
	st.d	$a1, $a2, 16
	ldx.b	$a6, $a4, $a3
	addi.w	$a7, $zero, -1
	andi	$a0, $a6, 255
	bge	$a7, $a6, .LBB27_53
# %bb.52:                               #   in Loop: Header=BB27_50 Depth=2
	move	$a3, $zero
	move	$a1, $zero
	ori	$a2, $zero, 383
	b	.LBB27_74
	.p2align	4, , 16
.LBB27_53:                              # %if.end11.i179.us
                                        #   in Loop: Header=BB27_50 Depth=2
	nor	$a6, $a3, $zero
	add.d	$a5, $a5, $a6
	beqz	$a5, .LBB27_36
# %bb.54:                               # %if.end16.i181.us
                                        #   in Loop: Header=BB27_50 Depth=2
	addi.d	$a7, $a3, 2
	st.d	$a7, $a2, 16
	ldx.bu	$a1, $a4, $a1
	andi	$a6, $a0, 64
	bnez	$a6, .LBB27_56
# %bb.55:                               #   in Loop: Header=BB27_50 Depth=2
	ori	$a2, $zero, 319
	ori	$a3, $zero, 8
	b	.LBB27_74
.LBB27_56:                              # %if.end11.1.i187.us
                                        #   in Loop: Header=BB27_50 Depth=2
	beq	$a5, $s2, .LBB27_36
# %bb.57:                               # %if.end16.1.i189.us
                                        #   in Loop: Header=BB27_50 Depth=2
	addi.d	$a6, $a3, 3
	st.d	$a6, $a2, 16
	ldx.bu	$a7, $a4, $a7
	slli.d	$a7, $a7, 8
	andi	$t0, $a0, 32
	or	$a1, $a7, $a1
	bnez	$t0, .LBB27_59
# %bb.58:                               #   in Loop: Header=BB27_50 Depth=2
	ori	$a2, $zero, 287
	ori	$a3, $zero, 16
	b	.LBB27_74
.LBB27_59:                              # %if.end11.2.i197.us
                                        #   in Loop: Header=BB27_50 Depth=2
	ori	$a7, $zero, 2
	beq	$a5, $a7, .LBB27_36
# %bb.60:                               # %if.end16.2.i199.us
                                        #   in Loop: Header=BB27_50 Depth=2
	addi.d	$a7, $a3, 4
	st.d	$a7, $a2, 16
	ldx.bu	$a6, $a4, $a6
	slli.d	$a6, $a6, 16
	andi	$t0, $a0, 16
	or	$a1, $a6, $a1
	bnez	$t0, .LBB27_62
# %bb.61:                               #   in Loop: Header=BB27_50 Depth=2
	ori	$a2, $zero, 271
	ori	$a3, $zero, 24
	b	.LBB27_74
.LBB27_62:                              # %if.end11.3.i207.us
                                        #   in Loop: Header=BB27_50 Depth=2
	ori	$a6, $zero, 3
	beq	$a5, $a6, .LBB27_36
# %bb.63:                               # %if.end16.3.i209.us
                                        #   in Loop: Header=BB27_50 Depth=2
	addi.d	$a6, $a3, 5
	st.d	$a6, $a2, 16
	ldx.bu	$a7, $a4, $a7
	slli.d	$a7, $a7, 24
	andi	$t0, $a0, 8
	or	$a1, $a7, $a1
	bnez	$t0, .LBB27_65
# %bb.64:                               #   in Loop: Header=BB27_50 Depth=2
	ori	$a2, $zero, 263
	ori	$a3, $zero, 32
	b	.LBB27_74
.LBB27_65:                              # %if.end11.4.i217.us
                                        #   in Loop: Header=BB27_50 Depth=2
	ori	$a7, $zero, 4
	beq	$a5, $a7, .LBB27_36
# %bb.66:                               # %if.end16.4.i219.us
                                        #   in Loop: Header=BB27_50 Depth=2
	addi.d	$a7, $a3, 6
	st.d	$a7, $a2, 16
	ldx.bu	$a6, $a4, $a6
	slli.d	$a6, $a6, 32
	andi	$t0, $a0, 4
	or	$a1, $a6, $a1
	bnez	$t0, .LBB27_68
# %bb.67:                               #   in Loop: Header=BB27_50 Depth=2
	ori	$a2, $zero, 259
	ori	$a3, $zero, 40
	b	.LBB27_74
.LBB27_68:                              # %if.end11.5.i227.us
                                        #   in Loop: Header=BB27_50 Depth=2
	ori	$a6, $zero, 5
	beq	$a5, $a6, .LBB27_36
# %bb.69:                               # %if.end16.5.i229.us
                                        #   in Loop: Header=BB27_50 Depth=2
	addi.d	$a6, $a3, 7
	st.d	$a6, $a2, 16
	ldx.bu	$a7, $a4, $a7
	slli.d	$a7, $a7, 40
	andi	$t0, $a0, 2
	or	$a1, $a7, $a1
	bnez	$t0, .LBB27_71
# %bb.70:                               #   in Loop: Header=BB27_50 Depth=2
	ori	$a2, $zero, 257
	ori	$a3, $zero, 48
	b	.LBB27_74
.LBB27_71:                              # %if.end11.6.i237.us
                                        #   in Loop: Header=BB27_50 Depth=2
	ori	$a7, $zero, 6
	beq	$a5, $a7, .LBB27_36
# %bb.72:                               # %if.end16.6.i239.us
                                        #   in Loop: Header=BB27_50 Depth=2
	addi.d	$a7, $a3, 8
	st.d	$a7, $a2, 16
	ldx.bu	$a6, $a4, $a6
	slli.d	$a6, $a6, 48
	andi	$t0, $a0, 1
	or	$a1, $a6, $a1
	bnez	$t0, .LBB27_76
# %bb.73:                               #   in Loop: Header=BB27_50 Depth=2
	ori	$a2, $zero, 256
	ori	$a3, $zero, 56
	.p2align	4, , 16
.LBB27_74:                              # %if.then6.i258.us
                                        #   in Loop: Header=BB27_50 Depth=2
	and	$a0, $a2, $a0
	sll.d	$a0, $a0, $a3
	add.d	$s3, $a0, $a1
.LBB27_75:                              # %_ZN8NArchive3N7z8CInByte210ReadNumberEv.exit266.us
                                        #   in Loop: Header=BB27_50 Depth=2
	move	$a0, $s4
	pcaddu18i	$ra, %call36(_ZN17CBaseRecordVector18ReserveOnePositionEv)
	jirl	$ra, $ra, 0
	ld.w	$a0, $s4, 12
	ld.d	$a1, $s4, 16
	slli.d	$a2, $a0, 3
	stx.d	$s3, $a1, $a2
	addi.d	$a0, $a0, 1
	st.w	$a0, $s4, 12
	addi.w	$s6, $s6, -1
	add.d	$s8, $s3, $s8
	ld.d	$s3, $sp, 64                    # 8-byte Folded Reload
	bnez	$s6, .LBB27_50
	b	.LBB27_78
.LBB27_76:                              # %if.end11.7.i247.us
                                        #   in Loop: Header=BB27_50 Depth=2
	ori	$a0, $zero, 7
	beq	$a5, $a0, .LBB27_36
# %bb.77:                               # %if.end16.7.i249.us
                                        #   in Loop: Header=BB27_50 Depth=2
	addi.d	$a0, $a3, 9
	st.d	$a0, $a2, 16
	ldx.b	$a0, $a4, $a7
	slli.d	$a0, $a0, 56
	or	$s3, $a0, $a1
	b	.LBB27_75
	.p2align	4, , 16
.LBB27_78:                              # %for.cond.cleanup40
                                        #   in Loop: Header=BB27_46 Depth=1
	ld.d	$a0, $s3, 16
	slli.d	$a1, $s7, 3
	ldx.d	$a0, $a0, $a1
	ld.w	$a1, $a0, 108
	beqz	$a1, .LBB27_43
# %bb.79:                               # %for.cond.preheader.i
                                        #   in Loop: Header=BB27_46 Depth=1
	blt	$a1, $s2, .LBB27_126
# %bb.80:                               # %for.body.lr.ph.i
                                        #   in Loop: Header=BB27_46 Depth=1
	ld.w	$a2, $a0, 44
	addi.w	$a3, $a1, -1
	blt	$a2, $s2, .LBB27_87
# %bb.81:                               # %for.body.us.i.preheader
                                        #   in Loop: Header=BB27_46 Depth=1
	ld.d	$a4, $a0, 48
	bstrpick.d	$a1, $a2, 31, 0
	addi.d	$a2, $a4, 4
	b	.LBB27_83
	.p2align	4, , 16
.LBB27_82:                              # %for.cond.loopexit.us.i
                                        #   in Loop: Header=BB27_83 Depth=2
	addi.w	$a3, $a4, -1
	blez	$a4, .LBB27_126
.LBB27_83:                              # %for.body.us.i
                                        #   Parent Loop BB27_46 Depth=1
                                        # =>  This Loop Header: Depth=2
                                        #       Child Loop BB27_84 Depth 3
	move	$a4, $a3
	move	$a3, $a2
	move	$a5, $a1
	.p2align	4, , 16
.LBB27_84:                              # %for.body.i.us.i
                                        #   Parent Loop BB27_46 Depth=1
                                        #     Parent Loop BB27_83 Depth=2
                                        # =>    This Inner Loop Header: Depth=3
	ld.w	$a6, $a3, 0
	beq	$a6, $a4, .LBB27_82
# %bb.85:                               # %for.inc.i.us.i
                                        #   in Loop: Header=BB27_84 Depth=3
	addi.d	$a5, $a5, -1
	addi.d	$a3, $a3, 8
	bnez	$a5, .LBB27_84
# %bb.86:                               #   in Loop: Header=BB27_46 Depth=1
	move	$a3, $a4
.LBB27_87:                              # %cleanup.i
                                        #   in Loop: Header=BB27_46 Depth=1
	ld.d	$a0, $a0, 112
	slli.d	$a1, $a3, 3
	ldx.d	$a0, $a0, $a1
	b	.LBB27_44
.LBB27_88:                              # %for.end55
	ori	$a0, $zero, 9
	bne	$s5, $a0, .LBB27_90
# %bb.89:                               # %if.then57
	ld.d	$a0, $sp, 56                    # 8-byte Folded Reload
	ld.d	$a0, $a0, 40
	pcaddu18i	$ra, %call36(_ZN8NArchive3N7z8CInByte210ReadNumberEv)
	jirl	$ra, $ra, 0
	move	$s5, $a0
.LBB27_90:                              # %if.end59
	ld.w	$a0, $s3, 12
	ori	$s7, $zero, 1
	blt	$a0, $s7, .LBB27_96
# %bb.91:                               # %for.body63.lr.ph
	ld.d	$a1, $s1, 16
	ld.d	$a2, $s3, 16
	st.d	$zero, $sp, 48                  # 8-byte Folded Spill
	move	$s2, $zero
	b	.LBB27_94
	.p2align	4, , 16
.LBB27_92:                              # %if.then69
                                        #   in Loop: Header=BB27_94 Depth=1
	add.w	$s2, $a3, $s2
.LBB27_93:                              # %if.end71
                                        #   in Loop: Header=BB27_94 Depth=1
	ld.d	$a4, $sp, 48                    # 8-byte Folded Reload
	add.w	$a4, $a3, $a4
	st.d	$a4, $sp, 48                    # 8-byte Folded Spill
	addi.d	$a2, $a2, 8
	addi.d	$a0, $a0, -1
	addi.d	$a1, $a1, 4
	beqz	$a0, .LBB27_97
.LBB27_94:                              # %for.body63
                                        # =>This Inner Loop Header: Depth=1
	ld.w	$a3, $a1, 0
	bne	$a3, $s7, .LBB27_92
# %bb.95:                               # %lor.lhs.false67
                                        #   in Loop: Header=BB27_94 Depth=1
	ld.d	$a4, $a2, 0
	ld.bu	$a4, $a4, 132
	beqz	$a4, .LBB27_92
	b	.LBB27_93
.LBB27_96:
	move	$s2, $zero
	st.d	$zero, $sp, 48                  # 8-byte Folded Spill
.LBB27_97:                              # %for.cond76.preheader
	ori	$s4, $zero, 10
	vrepli.b	$vr0, 0
	vst	$vr0, $sp, 32                   # 16-byte Folded Spill
	pcalau12i	$a0, %pc_hi20(_ZTV13CRecordVectorIbE+16)
	addi.d	$a0, $a0, %pc_lo12(_ZTV13CRecordVectorIbE+16)
	st.d	$a0, $sp, 24                    # 8-byte Folded Spill
	pcalau12i	$a0, %pc_hi20(_ZTV13CRecordVectorIjE+16)
	addi.d	$a0, $a0, %pc_lo12(_ZTV13CRecordVectorIjE+16)
	st.d	$a0, $sp, 16                    # 8-byte Folded Spill
	st.d	$s2, $sp, 8                     # 8-byte Folded Spill
	b	.LBB27_100
	.p2align	4, , 16
.LBB27_98:                              # %for.end126
                                        #   in Loop: Header=BB27_100 Depth=1
	addi.d	$a0, $sp, 72
	pcaddu18i	$ra, %call36(_ZN17CBaseRecordVectorD2Ev)
	jirl	$ra, $ra, 0
	addi.d	$a0, $sp, 104
	pcaddu18i	$ra, %call36(_ZN17CBaseRecordVectorD2Ev)
	jirl	$ra, $ra, 0
	ld.d	$s2, $sp, 8                     # 8-byte Folded Reload
	ori	$s4, $zero, 10
.LBB27_99:                              # %if.end150
                                        #   in Loop: Header=BB27_100 Depth=1
	ld.d	$a0, $sp, 56                    # 8-byte Folded Reload
	ld.d	$a0, $a0, 40
	pcaddu18i	$ra, %call36(_ZN8NArchive3N7z8CInByte210ReadNumberEv)
	jirl	$ra, $ra, 0
	move	$s5, $a0
.LBB27_100:                             # %for.cond76
                                        # =>This Loop Header: Depth=1
                                        #     Child Loop BB27_109 Depth 2
                                        #       Child Loop BB27_115 Depth 3
	beq	$s5, $s4, .LBB27_104
# %bb.101:                              # %for.cond76
                                        #   in Loop: Header=BB27_100 Depth=1
	beqz	$s5, .LBB27_118
# %bb.102:                              # %if.else148
                                        #   in Loop: Header=BB27_100 Depth=1
	ld.d	$a0, $sp, 56                    # 8-byte Folded Reload
	ld.d	$s5, $a0, 40
	move	$a0, $s5
	pcaddu18i	$ra, %call36(_ZN8NArchive3N7z8CInByte210ReadNumberEv)
	jirl	$ra, $ra, 0
	ld.d	$a2, $s5, 8
	ld.d	$a1, $s5, 16
	sub.d	$a2, $a2, $a1
	bltu	$a2, $a0, .LBB27_36
# %bb.103:                              # %_ZN8NArchive3N7z10CInArchive8SkipDataEv.exit161
                                        #   in Loop: Header=BB27_100 Depth=1
	add.d	$a0, $a1, $a0
	st.d	$a0, $s5, 16
	b	.LBB27_99
	.p2align	4, , 16
.LBB27_104:                             # %if.then78
                                        #   in Loop: Header=BB27_100 Depth=1
	addi.d	$a0, $sp, 112
	vld	$vr0, $sp, 32                   # 16-byte Folded Reload
	vst	$vr0, $a0, 0
	st.d	$s7, $sp, 128
	ld.d	$a0, $sp, 24                    # 8-byte Folded Reload
	st.d	$a0, $sp, 104
	addi.d	$a0, $sp, 80
	vst	$vr0, $a0, 0
	ori	$a0, $zero, 4
	st.d	$a0, $sp, 96
	ld.d	$a0, $sp, 16                    # 8-byte Folded Reload
	st.d	$a0, $sp, 72
.Ltmp64:                                # EH_LABEL
	addi.d	$a2, $sp, 104
	addi.d	$a3, $sp, 72
	ld.d	$a0, $sp, 56                    # 8-byte Folded Reload
	move	$a1, $s2
	pcaddu18i	$ra, %call36(_ZN8NArchive3N7z10CInArchive15ReadHashDigestsEiR13CRecordVectorIbERS2_IjE)
	jirl	$ra, $ra, 0
.Ltmp65:                                # EH_LABEL
# %bb.105:                              # %for.cond81.preheader
                                        #   in Loop: Header=BB27_100 Depth=1
	ld.w	$a0, $s3, 12
	blt	$a0, $s7, .LBB27_98
# %bb.106:                              # %for.body86.preheader
                                        #   in Loop: Header=BB27_100 Depth=1
	move	$s5, $zero
	move	$s4, $zero
	b	.LBB27_109
.LBB27_107:                             # %_ZN13CRecordVectorIjE3AddEj.exit
                                        #   in Loop: Header=BB27_109 Depth=2
	ld.w	$a0, $fp, 12
	ld.d	$a1, $fp, 16
	slli.d	$a0, $a0, 2
	stx.w	$s2, $a1, $a0
	ld.w	$a0, $fp, 12
	addi.d	$a0, $a0, 1
	st.w	$a0, $fp, 12
	.p2align	4, , 16
.LBB27_108:                             # %if.end122
                                        #   in Loop: Header=BB27_109 Depth=2
	ld.d	$s3, $sp, 64                    # 8-byte Folded Reload
	ld.w	$a0, $s3, 12
	addi.d	$s5, $s5, 1
	ori	$s7, $zero, 1
	bge	$s5, $a0, .LBB27_98
.LBB27_109:                             # %for.body86
                                        #   Parent Loop BB27_100 Depth=1
                                        # =>  This Loop Header: Depth=2
                                        #       Child Loop BB27_115 Depth 3
	ld.d	$a0, $s1, 16
	slli.d	$a1, $s5, 2
	ldx.w	$s6, $a0, $a1
	beqz	$s6, .LBB27_108
# %bb.110:                              # %for.body86
                                        #   in Loop: Header=BB27_109 Depth=2
	bne	$s6, $s7, .LBB27_114
# %bb.111:                              # %land.lhs.true
                                        #   in Loop: Header=BB27_109 Depth=2
	ld.d	$a0, $s3, 16
	slli.d	$a1, $s5, 3
	ldx.d	$s2, $a0, $a1
	ld.bu	$a0, $s2, 132
	bne	$a0, $s7, .LBB27_114
# %bb.112:                              # %if.then97
                                        #   in Loop: Header=BB27_109 Depth=2
.Ltmp67:                                # EH_LABEL
	move	$a0, $s0
	pcaddu18i	$ra, %call36(_ZN17CBaseRecordVector18ReserveOnePositionEv)
	jirl	$ra, $ra, 0
.Ltmp68:                                # EH_LABEL
# %bb.113:                              # %invoke.cont98
                                        #   in Loop: Header=BB27_109 Depth=2
	ld.d	$a0, $s0, 16
	ld.w	$a1, $s0, 12
	ld.w	$s2, $s2, 128
	stx.b	$s7, $a0, $a1
	addi.d	$a0, $a1, 1
	st.w	$a0, $s0, 12
.Ltmp69:                                # EH_LABEL
	move	$a0, $fp
	pcaddu18i	$ra, %call36(_ZN17CBaseRecordVector18ReserveOnePositionEv)
	jirl	$ra, $ra, 0
.Ltmp70:                                # EH_LABEL
	b	.LBB27_107
	.p2align	4, , 16
.LBB27_114:                             # %for.body106.preheader
                                        #   in Loop: Header=BB27_109 Depth=2
	slli.d	$s3, $s4, 2
	move	$s8, $s4
	.p2align	4, , 16
.LBB27_115:                             # %for.body106
                                        #   Parent Loop BB27_100 Depth=1
                                        #     Parent Loop BB27_109 Depth=2
                                        # =>    This Inner Loop Header: Depth=3
	ld.d	$a0, $sp, 120
	ldx.bu	$s2, $a0, $s8
.Ltmp72:                                # EH_LABEL
	move	$a0, $s0
	pcaddu18i	$ra, %call36(_ZN17CBaseRecordVector18ReserveOnePositionEv)
	jirl	$ra, $ra, 0
.Ltmp73:                                # EH_LABEL
# %bb.116:                              # %invoke.cont111
                                        #   in Loop: Header=BB27_115 Depth=3
	ld.w	$a0, $s0, 12
	ld.d	$a1, $sp, 88
	ld.d	$a2, $s0, 16
	addi.d	$a3, $a0, 1
	st.w	$a3, $s0, 12
	ldx.w	$s7, $a1, $s3
	stx.b	$s2, $a2, $a0
.Ltmp74:                                # EH_LABEL
	move	$a0, $fp
	pcaddu18i	$ra, %call36(_ZN17CBaseRecordVector18ReserveOnePositionEv)
	jirl	$ra, $ra, 0
.Ltmp75:                                # EH_LABEL
# %bb.117:                              # %for.inc117
                                        #   in Loop: Header=BB27_115 Depth=3
	ld.w	$a0, $fp, 12
	ld.d	$a1, $fp, 16
	slli.d	$a0, $a0, 2
	stx.w	$s7, $a1, $a0
	ld.w	$a0, $fp, 12
	addi.d	$a0, $a0, 1
	st.w	$a0, $fp, 12
	addi.d	$s8, $s8, 1
	addi.d	$s3, $s3, 4
	addi.w	$s6, $s6, -1
	addi.w	$s4, $s4, 1
	bnez	$s6, .LBB27_115
	b	.LBB27_108
.LBB27_118:                             # %if.then134
	ld.w	$a0, $s0, 12
	ld.d	$s2, $sp, 48                    # 8-byte Folded Reload
	bnez	$a0, .LBB27_125
# %bb.119:                              # %if.then136
	move	$a0, $s0
	pcaddu18i	$ra, %call36(_ZN17CBaseRecordVector5ClearEv)
	jirl	$ra, $ra, 0
	move	$a0, $s0
	move	$a1, $s2
	pcaddu18i	$ra, %call36(_ZN17CBaseRecordVector7ReserveEi)
	jirl	$ra, $ra, 0
	ori	$a0, $zero, 1
	blt	$s2, $a0, .LBB27_124
# %bb.120:                              # %for.body.i.preheader
	move	$s1, $s2
	.p2align	4, , 16
.LBB27_121:                             # %for.body.i
                                        # =>This Inner Loop Header: Depth=1
	move	$a0, $s0
	pcaddu18i	$ra, %call36(_ZN17CBaseRecordVector18ReserveOnePositionEv)
	jirl	$ra, $ra, 0
	ld.d	$a0, $s0, 16
	ld.w	$a1, $s0, 12
	stx.b	$zero, $a0, $a1
	addi.d	$a0, $a1, 1
	addi.w	$s1, $s1, -1
	st.w	$a0, $s0, 12
	bnez	$s1, .LBB27_121
# %bb.122:                              # %for.body141.lr.ph
	move	$a0, $fp
	pcaddu18i	$ra, %call36(_ZN17CBaseRecordVector5ClearEv)
	jirl	$ra, $ra, 0
	.p2align	4, , 16
.LBB27_123:                             # %for.body141
                                        # =>This Inner Loop Header: Depth=1
	move	$a0, $fp
	pcaddu18i	$ra, %call36(_ZN17CBaseRecordVector18ReserveOnePositionEv)
	jirl	$ra, $ra, 0
	ld.w	$a0, $fp, 12
	ld.d	$a1, $fp, 16
	slli.d	$a0, $a0, 2
	stx.w	$zero, $a1, $a0
	ld.w	$a0, $fp, 12
	addi.d	$a0, $a0, 1
	addi.w	$s2, $s2, -1
	st.w	$a0, $fp, 12
	bnez	$s2, .LBB27_123
	b	.LBB27_125
.LBB27_124:                             # %_ZN8NArchive3N7zL21BoolVector_Fill_FalseER13CRecordVectorIbEi.exit
	move	$a0, $fp
	pcaddu18i	$ra, %call36(_ZN17CBaseRecordVector5ClearEv)
	jirl	$ra, $ra, 0
.LBB27_125:                             # %if.end147
	ld.d	$s8, $sp, 136                   # 8-byte Folded Reload
	ld.d	$s7, $sp, 144                   # 8-byte Folded Reload
	ld.d	$s6, $sp, 152                   # 8-byte Folded Reload
	ld.d	$s5, $sp, 160                   # 8-byte Folded Reload
	ld.d	$s4, $sp, 168                   # 8-byte Folded Reload
	ld.d	$s3, $sp, 176                   # 8-byte Folded Reload
	ld.d	$s2, $sp, 184                   # 8-byte Folded Reload
	ld.d	$s1, $sp, 192                   # 8-byte Folded Reload
	ld.d	$s0, $sp, 200                   # 8-byte Folded Reload
	ld.d	$fp, $sp, 208                   # 8-byte Folded Reload
	ld.d	$ra, $sp, 216                   # 8-byte Folded Reload
	addi.d	$sp, $sp, 224
	ret
.LBB27_126:                             # %for.end.i
	ori	$a0, $zero, 4
	pcaddu18i	$ra, %call36(__cxa_allocate_exception)
	jirl	$ra, $ra, 0
	ori	$a1, $zero, 1
	st.w	$a1, $a0, 0
	pcalau12i	$a1, %got_pc_hi20(_ZTIi)
	ld.d	$a1, $a1, %got_pc_lo12(_ZTIi)
	move	$a2, $zero
	pcaddu18i	$ra, %call36(__cxa_throw)
	jirl	$ra, $ra, 0
.LBB27_127:                             # %lpad79
.Ltmp66:                                # EH_LABEL
	b	.LBB27_130
.LBB27_128:                             # %lpad91
.Ltmp71:                                # EH_LABEL
	b	.LBB27_130
.LBB27_129:                             # %lpad107
.Ltmp76:                                # EH_LABEL
.LBB27_130:                             # %ehcleanup128
	move	$fp, $a0
	addi.d	$a0, $sp, 72
	pcaddu18i	$ra, %call36(_ZN17CBaseRecordVectorD2Ev)
	jirl	$ra, $ra, 0
	addi.d	$a0, $sp, 104
	pcaddu18i	$ra, %call36(_ZN17CBaseRecordVectorD2Ev)
	jirl	$ra, $ra, 0
	move	$a0, $fp
	pcaddu18i	$ra, %call36(_Unwind_Resume)
	jirl	$ra, $ra, 0
.Lfunc_end27:
	.size	_ZN8NArchive3N7z10CInArchive18ReadSubStreamsInfoERK13CObjectVectorINS0_7CFolderEER13CRecordVectorIjERS7_IyERS7_IbES9_, .Lfunc_end27-_ZN8NArchive3N7z10CInArchive18ReadSubStreamsInfoERK13CObjectVectorINS0_7CFolderEER13CRecordVectorIjERS7_IyERS7_IbES9_
	.cfi_endproc
	.section	.gcc_except_table,"a",@progbits
	.p2align	2, 0x0
GCC_except_table27:
.Lexception5:
	.byte	255                             # @LPStart Encoding = omit
	.byte	255                             # @TType Encoding = omit
	.byte	1                               # Call site Encoding = uleb128
	.uleb128 .Lcst_end5-.Lcst_begin5
.Lcst_begin5:
	.uleb128 .Lfunc_begin5-.Lfunc_begin5    # >> Call Site 1 <<
	.uleb128 .Ltmp64-.Lfunc_begin5          #   Call between .Lfunc_begin5 and .Ltmp64
	.byte	0                               #     has no landing pad
	.byte	0                               #   On action: cleanup
	.uleb128 .Ltmp64-.Lfunc_begin5          # >> Call Site 2 <<
	.uleb128 .Ltmp65-.Ltmp64                #   Call between .Ltmp64 and .Ltmp65
	.uleb128 .Ltmp66-.Lfunc_begin5          #     jumps to .Ltmp66
	.byte	0                               #   On action: cleanup
	.uleb128 .Ltmp67-.Lfunc_begin5          # >> Call Site 3 <<
	.uleb128 .Ltmp70-.Ltmp67                #   Call between .Ltmp67 and .Ltmp70
	.uleb128 .Ltmp71-.Lfunc_begin5          #     jumps to .Ltmp71
	.byte	0                               #   On action: cleanup
	.uleb128 .Ltmp72-.Lfunc_begin5          # >> Call Site 4 <<
	.uleb128 .Ltmp75-.Ltmp72                #   Call between .Ltmp72 and .Ltmp75
	.uleb128 .Ltmp76-.Lfunc_begin5          #     jumps to .Ltmp76
	.byte	0                               #   On action: cleanup
	.uleb128 .Ltmp75-.Lfunc_begin5          # >> Call Site 5 <<
	.uleb128 .Lfunc_end27-.Ltmp75           #   Call between .Ltmp75 and .Lfunc_end27
	.byte	0                               #     has no landing pad
	.byte	0                               #   On action: cleanup
.Lcst_end5:
	.p2align	2, 0x0
                                        # -- End function
	.text
	.globl	_ZN8NArchive3N7z10CInArchive15ReadStreamsInfoEPK13CObjectVectorI7CBufferIhEERyR13CRecordVectorIyERS9_IbERS9_IjERS2_INS0_7CFolderEESF_SB_SD_SF_ # -- Begin function _ZN8NArchive3N7z10CInArchive15ReadStreamsInfoEPK13CObjectVectorI7CBufferIhEERyR13CRecordVectorIyERS9_IbERS9_IjERS2_INS0_7CFolderEESF_SB_SD_SF_
	.p2align	2
	.type	_ZN8NArchive3N7z10CInArchive15ReadStreamsInfoEPK13CObjectVectorI7CBufferIhEERyR13CRecordVectorIyERS9_IbERS9_IjERS2_INS0_7CFolderEESF_SB_SD_SF_,@function
_ZN8NArchive3N7z10CInArchive15ReadStreamsInfoEPK13CObjectVectorI7CBufferIhEERyR13CRecordVectorIyERS9_IbERS9_IjERS2_INS0_7CFolderEESF_SB_SD_SF_: # @_ZN8NArchive3N7z10CInArchive15ReadStreamsInfoEPK13CObjectVectorI7CBufferIhEERyR13CRecordVectorIyERS9_IbERS9_IjERS2_INS0_7CFolderEESF_SB_SD_SF_
	.cfi_startproc
# %bb.0:                                # %entry
	addi.d	$sp, $sp, -128
	.cfi_def_cfa_offset 128
	st.d	$ra, $sp, 120                   # 8-byte Folded Spill
	st.d	$fp, $sp, 112                   # 8-byte Folded Spill
	st.d	$s0, $sp, 104                   # 8-byte Folded Spill
	st.d	$s1, $sp, 96                    # 8-byte Folded Spill
	st.d	$s2, $sp, 88                    # 8-byte Folded Spill
	st.d	$s3, $sp, 80                    # 8-byte Folded Spill
	st.d	$s4, $sp, 72                    # 8-byte Folded Spill
	st.d	$s5, $sp, 64                    # 8-byte Folded Spill
	st.d	$s6, $sp, 56                    # 8-byte Folded Spill
	st.d	$s7, $sp, 48                    # 8-byte Folded Spill
	st.d	$s8, $sp, 40                    # 8-byte Folded Spill
	.cfi_offset 1, -8
	.cfi_offset 22, -16
	.cfi_offset 23, -24
	.cfi_offset 24, -32
	.cfi_offset 25, -40
	.cfi_offset 26, -48
	.cfi_offset 27, -56
	.cfi_offset 28, -64
	.cfi_offset 29, -72
	.cfi_offset 30, -80
	.cfi_offset 31, -88
	move	$fp, $a0
	ld.d	$a0, $a0, 40
	st.d	$a7, $sp, 32                    # 8-byte Folded Spill
	move	$s1, $a6
	st.d	$a5, $sp, 24                    # 8-byte Folded Spill
	st.d	$a4, $sp, 16                    # 8-byte Folded Spill
	st.d	$a3, $sp, 8                     # 8-byte Folded Spill
	move	$s5, $a2
	move	$s6, $a1
	pcaddu18i	$ra, %call36(_ZN8NArchive3N7z8CInByte210ReadNumberEv)
	jirl	$ra, $ra, 0
	lu12i.w	$s2, 262144
	bltu	$s2, $a0, .LBB28_9
# %bb.1:
	ld.d	$s7, $sp, 144
	ld.d	$s8, $sp, 136
	ld.d	$s0, $sp, 128
	ori	$s3, $zero, 8
	pcalau12i	$a1, %pc_hi20(.LJTI28_0)
	addi.d	$s4, $a1, %pc_lo12(.LJTI28_0)
	b	.LBB28_4
	.p2align	4, , 16
.LBB28_2:                               # %sw.bb2
                                        #   in Loop: Header=BB28_4 Depth=1
	move	$a0, $fp
	move	$a1, $s5
	ld.d	$a2, $sp, 8                     # 8-byte Folded Reload
	ld.d	$a3, $sp, 16                    # 8-byte Folded Reload
	ld.d	$a4, $sp, 24                    # 8-byte Folded Reload
	pcaddu18i	$ra, %call36(_ZN8NArchive3N7z10CInArchive12ReadPackInfoERyR13CRecordVectorIyERS3_IbERS3_IjE)
	jirl	$ra, $ra, 0
.LBB28_3:                               # %cleanup
                                        #   in Loop: Header=BB28_4 Depth=1
	ld.d	$a0, $fp, 40
	pcaddu18i	$ra, %call36(_ZN8NArchive3N7z8CInByte210ReadNumberEv)
	jirl	$ra, $ra, 0
	bltu	$s2, $a0, .LBB28_9
.LBB28_4:                               # %if.end
                                        # =>This Inner Loop Header: Depth=1
	bltu	$s3, $a0, .LBB28_9
# %bb.5:                                # %if.end
                                        #   in Loop: Header=BB28_4 Depth=1
	slli.d	$a0, $a0, 2
	ldx.w	$a0, $s4, $a0
	add.d	$a0, $s4, $a0
	jr	$a0
.LBB28_6:                               # %sw.bb3
                                        #   in Loop: Header=BB28_4 Depth=1
	move	$a0, $fp
	move	$a1, $s6
	move	$a2, $s1
	pcaddu18i	$ra, %call36(_ZN8NArchive3N7z10CInArchive14ReadUnpackInfoEPK13CObjectVectorI7CBufferIhEERS2_INS0_7CFolderEE)
	jirl	$ra, $ra, 0
	b	.LBB28_3
	.p2align	4, , 16
.LBB28_7:                               # %sw.bb4
                                        #   in Loop: Header=BB28_4 Depth=1
	move	$a0, $fp
	move	$a1, $s1
	ld.d	$a2, $sp, 32                    # 8-byte Folded Reload
	move	$a3, $s0
	move	$a4, $s8
	move	$a5, $s7
	pcaddu18i	$ra, %call36(_ZN8NArchive3N7z10CInArchive18ReadSubStreamsInfoERK13CObjectVectorINS0_7CFolderEER13CRecordVectorIjERS7_IyERS7_IbES9_)
	jirl	$ra, $ra, 0
	b	.LBB28_3
.LBB28_8:                               # %return
	ld.d	$s8, $sp, 40                    # 8-byte Folded Reload
	ld.d	$s7, $sp, 48                    # 8-byte Folded Reload
	ld.d	$s6, $sp, 56                    # 8-byte Folded Reload
	ld.d	$s5, $sp, 64                    # 8-byte Folded Reload
	ld.d	$s4, $sp, 72                    # 8-byte Folded Reload
	ld.d	$s3, $sp, 80                    # 8-byte Folded Reload
	ld.d	$s2, $sp, 88                    # 8-byte Folded Reload
	ld.d	$s1, $sp, 96                    # 8-byte Folded Reload
	ld.d	$s0, $sp, 104                   # 8-byte Folded Reload
	ld.d	$fp, $sp, 112                   # 8-byte Folded Reload
	ld.d	$ra, $sp, 120                   # 8-byte Folded Reload
	addi.d	$sp, $sp, 128
	ret
.LBB28_9:                               # %if.then
	pcaddu18i	$ra, %call36(_ZN8NArchive3N7zL14ThrowExceptionEv)
	jirl	$ra, $ra, 0
.Lfunc_end28:
	.size	_ZN8NArchive3N7z10CInArchive15ReadStreamsInfoEPK13CObjectVectorI7CBufferIhEERyR13CRecordVectorIyERS9_IbERS9_IjERS2_INS0_7CFolderEESF_SB_SD_SF_, .Lfunc_end28-_ZN8NArchive3N7z10CInArchive15ReadStreamsInfoEPK13CObjectVectorI7CBufferIhEERyR13CRecordVectorIyERS9_IbERS9_IjERS2_INS0_7CFolderEESF_SB_SD_SF_
	.cfi_endproc
	.section	.rodata,"a",@progbits
	.p2align	2, 0x0
.LJTI28_0:
	.word	.LBB28_8-.LJTI28_0
	.word	.LBB28_9-.LJTI28_0
	.word	.LBB28_9-.LJTI28_0
	.word	.LBB28_9-.LJTI28_0
	.word	.LBB28_9-.LJTI28_0
	.word	.LBB28_9-.LJTI28_0
	.word	.LBB28_2-.LJTI28_0
	.word	.LBB28_6-.LJTI28_0
	.word	.LBB28_7-.LJTI28_0
                                        # -- End function
	.text
	.globl	_ZN8NArchive3N7z10CInArchive14ReadBoolVectorEiR13CRecordVectorIbE # -- Begin function _ZN8NArchive3N7z10CInArchive14ReadBoolVectorEiR13CRecordVectorIbE
	.p2align	2
	.type	_ZN8NArchive3N7z10CInArchive14ReadBoolVectorEiR13CRecordVectorIbE,@function
_ZN8NArchive3N7z10CInArchive14ReadBoolVectorEiR13CRecordVectorIbE: # @_ZN8NArchive3N7z10CInArchive14ReadBoolVectorEiR13CRecordVectorIbE
	.cfi_startproc
# %bb.0:                                # %entry
	addi.d	$sp, $sp, -64
	.cfi_def_cfa_offset 64
	st.d	$ra, $sp, 56                    # 8-byte Folded Spill
	st.d	$fp, $sp, 48                    # 8-byte Folded Spill
	st.d	$s0, $sp, 40                    # 8-byte Folded Spill
	st.d	$s1, $sp, 32                    # 8-byte Folded Spill
	st.d	$s2, $sp, 24                    # 8-byte Folded Spill
	st.d	$s3, $sp, 16                    # 8-byte Folded Spill
	st.d	$s4, $sp, 8                     # 8-byte Folded Spill
	.cfi_offset 1, -8
	.cfi_offset 22, -16
	.cfi_offset 23, -24
	.cfi_offset 24, -32
	.cfi_offset 25, -40
	.cfi_offset 26, -48
	.cfi_offset 27, -56
	move	$fp, $a2
	move	$s0, $a1
	move	$s1, $a0
	move	$a0, $a2
	pcaddu18i	$ra, %call36(_ZN17CBaseRecordVector5ClearEv)
	jirl	$ra, $ra, 0
	move	$a0, $fp
	move	$a1, $s0
	pcaddu18i	$ra, %call36(_ZN17CBaseRecordVector7ReserveEi)
	jirl	$ra, $ra, 0
	ori	$a0, $zero, 1
	blt	$s0, $a0, .LBB29_6
# %bb.1:                                # %for.body.lr.ph
	move	$s3, $zero
	move	$s2, $zero
	b	.LBB29_3
	.p2align	4, , 16
.LBB29_2:                               # %if.end
                                        #   in Loop: Header=BB29_3 Depth=1
	and	$a0, $s3, $s2
	sltu	$s4, $zero, $a0
	move	$a0, $fp
	pcaddu18i	$ra, %call36(_ZN17CBaseRecordVector18ReserveOnePositionEv)
	jirl	$ra, $ra, 0
	ld.d	$a0, $fp, 16
	ld.w	$a1, $fp, 12
	stx.b	$s4, $a0, $a1
	addi.d	$a0, $a1, 1
	st.w	$a0, $fp, 12
	addi.w	$s0, $s0, -1
	srli.d	$s3, $s3, 1
	beqz	$s0, .LBB29_6
.LBB29_3:                               # %for.body
                                        # =>This Inner Loop Header: Depth=1
	bnez	$s3, .LBB29_2
# %bb.4:                                # %if.then
                                        #   in Loop: Header=BB29_3 Depth=1
	ld.d	$a0, $s1, 40
	ld.d	$a1, $a0, 16
	ld.d	$a2, $a0, 8
	bgeu	$a1, $a2, .LBB29_7
# %bb.5:                                # %_ZN8NArchive3N7z10CInArchive8ReadByteEv.exit
                                        #   in Loop: Header=BB29_3 Depth=1
	ld.d	$a2, $a0, 0
	addi.d	$a3, $a1, 1
	st.d	$a3, $a0, 16
	ldx.bu	$s2, $a2, $a1
	ori	$s3, $zero, 128
	b	.LBB29_2
.LBB29_6:                               # %for.cond.cleanup
	ld.d	$s4, $sp, 8                     # 8-byte Folded Reload
	ld.d	$s3, $sp, 16                    # 8-byte Folded Reload
	ld.d	$s2, $sp, 24                    # 8-byte Folded Reload
	ld.d	$s1, $sp, 32                    # 8-byte Folded Reload
	ld.d	$s0, $sp, 40                    # 8-byte Folded Reload
	ld.d	$fp, $sp, 48                    # 8-byte Folded Reload
	ld.d	$ra, $sp, 56                    # 8-byte Folded Reload
	addi.d	$sp, $sp, 64
	ret
.LBB29_7:                               # %if.then.i.i
	pcaddu18i	$ra, %call36(_ZN8NArchive3N7zL14ThrowExceptionEv)
	jirl	$ra, $ra, 0
.Lfunc_end29:
	.size	_ZN8NArchive3N7z10CInArchive14ReadBoolVectorEiR13CRecordVectorIbE, .Lfunc_end29-_ZN8NArchive3N7z10CInArchive14ReadBoolVectorEiR13CRecordVectorIbE
	.cfi_endproc
                                        # -- End function
	.globl	_ZN8NArchive3N7z10CInArchive19ReadUInt64DefVectorERK13CObjectVectorI7CBufferIhEERNS0_16CUInt64DefVectorEi # -- Begin function _ZN8NArchive3N7z10CInArchive19ReadUInt64DefVectorERK13CObjectVectorI7CBufferIhEERNS0_16CUInt64DefVectorEi
	.p2align	2
	.type	_ZN8NArchive3N7z10CInArchive19ReadUInt64DefVectorERK13CObjectVectorI7CBufferIhEERNS0_16CUInt64DefVectorEi,@function
_ZN8NArchive3N7z10CInArchive19ReadUInt64DefVectorERK13CObjectVectorI7CBufferIhEERNS0_16CUInt64DefVectorEi: # @_ZN8NArchive3N7z10CInArchive19ReadUInt64DefVectorERK13CObjectVectorI7CBufferIhEERNS0_16CUInt64DefVectorEi
.Lfunc_begin6:
	.cfi_startproc
	.cfi_personality 155, DW.ref.__gxx_personality_v0
	.cfi_lsda 27, .Lexception6
# %bb.0:                                # %entry
	addi.d	$sp, $sp, -80
	.cfi_def_cfa_offset 80
	st.d	$ra, $sp, 72                    # 8-byte Folded Spill
	st.d	$fp, $sp, 64                    # 8-byte Folded Spill
	st.d	$s0, $sp, 56                    # 8-byte Folded Spill
	st.d	$s1, $sp, 48                    # 8-byte Folded Spill
	st.d	$s2, $sp, 40                    # 8-byte Folded Spill
	st.d	$s3, $sp, 32                    # 8-byte Folded Spill
	st.d	$s4, $sp, 24                    # 8-byte Folded Spill
	.cfi_offset 1, -8
	.cfi_offset 22, -16
	.cfi_offset 23, -24
	.cfi_offset 24, -32
	.cfi_offset 25, -40
	.cfi_offset 26, -48
	.cfi_offset 27, -56
	move	$fp, $a3
	move	$s0, $a2
	move	$s2, $a1
	move	$s1, $a0
	addi.d	$a2, $a2, 32
	move	$a1, $a3
	pcaddu18i	$ra, %call36(_ZN8NArchive3N7z10CInArchive15ReadBoolVector2EiR13CRecordVectorIbE)
	jirl	$ra, $ra, 0
	st.b	$zero, $sp, 16
.Ltmp77:                                # EH_LABEL
	addi.d	$a0, $sp, 8
	move	$a1, $s1
	move	$a2, $s2
	pcaddu18i	$ra, %call36(_ZN8NArchive3N7z13CStreamSwitch3SetEPNS0_10CInArchiveEPK13CObjectVectorI7CBufferIhEE)
	jirl	$ra, $ra, 0
.Ltmp78:                                # EH_LABEL
# %bb.1:                                # %invoke.cont
.Ltmp79:                                # EH_LABEL
	move	$a0, $s0
	move	$a1, $fp
	pcaddu18i	$ra, %call36(_ZN17CBaseRecordVector7ReserveEi)
	jirl	$ra, $ra, 0
.Ltmp80:                                # EH_LABEL
# %bb.2:                                # %for.cond.preheader
	ori	$s2, $zero, 1
	blt	$fp, $s2, .LBB30_10
# %bb.3:                                # %for.body.lr.ph
	move	$s3, $zero
	.p2align	4, , 16
.LBB30_4:                               # %for.body
                                        # =>This Inner Loop Header: Depth=1
	ld.d	$a0, $s0, 48
	ldx.bu	$a0, $a0, $s3
	bne	$a0, $s2, .LBB30_7
# %bb.5:                                # %if.then
                                        #   in Loop: Header=BB30_4 Depth=1
	ld.d	$a0, $s1, 40
	ld.d	$a1, $a0, 16
	ld.d	$a3, $a0, 8
	addi.d	$a2, $a1, 8
	bltu	$a3, $a2, .LBB30_15
# %bb.6:                                # %_ZN8NArchive3N7z10CInArchive10ReadUInt64Ev.exit
                                        #   in Loop: Header=BB30_4 Depth=1
	ld.d	$a3, $a0, 0
	ldx.d	$s4, $a3, $a1
	st.d	$a2, $a0, 16
	b	.LBB30_8
	.p2align	4, , 16
.LBB30_7:                               #   in Loop: Header=BB30_4 Depth=1
	move	$s4, $zero
.LBB30_8:                               # %if.end
                                        #   in Loop: Header=BB30_4 Depth=1
.Ltmp82:                                # EH_LABEL
	move	$a0, $s0
	pcaddu18i	$ra, %call36(_ZN17CBaseRecordVector18ReserveOnePositionEv)
	jirl	$ra, $ra, 0
.Ltmp83:                                # EH_LABEL
# %bb.9:                                # %invoke.cont9
                                        #   in Loop: Header=BB30_4 Depth=1
	ld.w	$a0, $s0, 12
	ld.d	$a1, $s0, 16
	slli.d	$a2, $a0, 3
	stx.d	$s4, $a1, $a2
	addi.d	$a0, $a0, 1
	addi.d	$s3, $s3, 1
	st.w	$a0, $s0, 12
	bne	$fp, $s3, .LBB30_4
.LBB30_10:                              # %for.cond.cleanup
	ld.bu	$a0, $sp, 16
	bne	$a0, $s2, .LBB30_14
# %bb.11:                               # %if.then.i.i
	ld.d	$fp, $sp, 8
	addi.d	$a0, $fp, 8
.Ltmp85:                                # EH_LABEL
	pcaddu18i	$ra, %call36(_ZN17CBaseRecordVector10DeleteBackEv)
	jirl	$ra, $ra, 0
.Ltmp86:                                # EH_LABEL
# %bb.12:                               # %.noexc.i
	ld.w	$a0, $fp, 20
	beqz	$a0, .LBB30_14
# %bb.13:                               # %if.then.i.i.i
	ld.d	$a1, $fp, 24
	alsl.d	$a0, $a0, $a1, 3
	ld.d	$a0, $a0, -8
	st.d	$a0, $fp, 40
.LBB30_14:                              # %_ZN8NArchive3N7z13CStreamSwitchD2Ev.exit
	ld.d	$s4, $sp, 24                    # 8-byte Folded Reload
	ld.d	$s3, $sp, 32                    # 8-byte Folded Reload
	ld.d	$s2, $sp, 40                    # 8-byte Folded Reload
	ld.d	$s1, $sp, 48                    # 8-byte Folded Reload
	ld.d	$s0, $sp, 56                    # 8-byte Folded Reload
	ld.d	$fp, $sp, 64                    # 8-byte Folded Reload
	ld.d	$ra, $sp, 72                    # 8-byte Folded Reload
	addi.d	$sp, $sp, 80
	ret
.LBB30_15:                              # %if.then.i.i9
.Ltmp88:                                # EH_LABEL
	pcaddu18i	$ra, %call36(_ZN8NArchive3N7zL14ThrowExceptionEv)
	jirl	$ra, $ra, 0
.Ltmp89:                                # EH_LABEL
# %bb.16:                               # %.noexc
.LBB30_17:                              # %terminate.lpad.i
.Ltmp87:                                # EH_LABEL
	pcaddu18i	$ra, %call36(__clang_call_terminate)
	jirl	$ra, $ra, 0
.LBB30_18:                              # %lpad
.Ltmp81:                                # EH_LABEL
	b	.LBB30_21
.LBB30_19:                              # %lpad4.loopexit.split-lp
.Ltmp90:                                # EH_LABEL
	b	.LBB30_21
.LBB30_20:                              # %lpad4.loopexit
.Ltmp84:                                # EH_LABEL
.LBB30_21:                              # %ehcleanup
	move	$fp, $a0
	addi.d	$a0, $sp, 8
	pcaddu18i	$ra, %call36(_ZN8NArchive3N7z13CStreamSwitchD2Ev)
	jirl	$ra, $ra, 0
	move	$a0, $fp
	pcaddu18i	$ra, %call36(_Unwind_Resume)
	jirl	$ra, $ra, 0
.Lfunc_end30:
	.size	_ZN8NArchive3N7z10CInArchive19ReadUInt64DefVectorERK13CObjectVectorI7CBufferIhEERNS0_16CUInt64DefVectorEi, .Lfunc_end30-_ZN8NArchive3N7z10CInArchive19ReadUInt64DefVectorERK13CObjectVectorI7CBufferIhEERNS0_16CUInt64DefVectorEi
	.cfi_endproc
	.section	.gcc_except_table,"a",@progbits
	.p2align	2, 0x0
GCC_except_table30:
.Lexception6:
	.byte	255                             # @LPStart Encoding = omit
	.byte	155                             # @TType Encoding = indirect pcrel sdata4
	.uleb128 .Lttbase3-.Lttbaseref3
.Lttbaseref3:
	.byte	1                               # Call site Encoding = uleb128
	.uleb128 .Lcst_end6-.Lcst_begin6
.Lcst_begin6:
	.uleb128 .Lfunc_begin6-.Lfunc_begin6    # >> Call Site 1 <<
	.uleb128 .Ltmp77-.Lfunc_begin6          #   Call between .Lfunc_begin6 and .Ltmp77
	.byte	0                               #     has no landing pad
	.byte	0                               #   On action: cleanup
	.uleb128 .Ltmp77-.Lfunc_begin6          # >> Call Site 2 <<
	.uleb128 .Ltmp80-.Ltmp77                #   Call between .Ltmp77 and .Ltmp80
	.uleb128 .Ltmp81-.Lfunc_begin6          #     jumps to .Ltmp81
	.byte	0                               #   On action: cleanup
	.uleb128 .Ltmp82-.Lfunc_begin6          # >> Call Site 3 <<
	.uleb128 .Ltmp83-.Ltmp82                #   Call between .Ltmp82 and .Ltmp83
	.uleb128 .Ltmp84-.Lfunc_begin6          #     jumps to .Ltmp84
	.byte	0                               #   On action: cleanup
	.uleb128 .Ltmp85-.Lfunc_begin6          # >> Call Site 4 <<
	.uleb128 .Ltmp86-.Ltmp85                #   Call between .Ltmp85 and .Ltmp86
	.uleb128 .Ltmp87-.Lfunc_begin6          #     jumps to .Ltmp87
	.byte	1                               #   On action: 1
	.uleb128 .Ltmp88-.Lfunc_begin6          # >> Call Site 5 <<
	.uleb128 .Ltmp89-.Ltmp88                #   Call between .Ltmp88 and .Ltmp89
	.uleb128 .Ltmp90-.Lfunc_begin6          #     jumps to .Ltmp90
	.byte	0                               #   On action: cleanup
	.uleb128 .Ltmp89-.Lfunc_begin6          # >> Call Site 6 <<
	.uleb128 .Lfunc_end30-.Ltmp89           #   Call between .Ltmp89 and .Lfunc_end30
	.byte	0                               #     has no landing pad
	.byte	0                               #   On action: cleanup
.Lcst_end6:
	.byte	1                               # >> Action Record 1 <<
                                        #   Catch TypeInfo 1
	.byte	0                               #   No further actions
	.p2align	2, 0x0
                                        # >> Catch TypeInfos <<
	.word	0                               # TypeInfo 1
.Lttbase3:
	.p2align	2, 0x0
                                        # -- End function
	.section	.rodata.cst32,"aM",@progbits,32
	.p2align	5, 0x0                          # -- Begin function _ZN8NArchive3N7z10CInArchive26ReadAndDecodePackedStreamsEyRyR13CObjectVectorI7CBufferIhEEP22ICryptoGetTextPasswordRb
.LCPI31_0:
	.dword	0                               # 0x0
	.dword	1                               # 0x1
	.dword	0                               # 0x0
	.dword	0                               # 0x0
	.text
	.globl	_ZN8NArchive3N7z10CInArchive26ReadAndDecodePackedStreamsEyRyR13CObjectVectorI7CBufferIhEEP22ICryptoGetTextPasswordRb
	.p2align	2
	.type	_ZN8NArchive3N7z10CInArchive26ReadAndDecodePackedStreamsEyRyR13CObjectVectorI7CBufferIhEEP22ICryptoGetTextPasswordRb,@function
_ZN8NArchive3N7z10CInArchive26ReadAndDecodePackedStreamsEyRyR13CObjectVectorI7CBufferIhEEP22ICryptoGetTextPasswordRb: # @_ZN8NArchive3N7z10CInArchive26ReadAndDecodePackedStreamsEyRyR13CObjectVectorI7CBufferIhEEP22ICryptoGetTextPasswordRb
.Lfunc_begin7:
	.cfi_startproc
	.cfi_personality 155, DW.ref.__gxx_personality_v0
	.cfi_lsda 27, .Lexception7
# %bb.0:                                # %invoke.cont5
	addi.d	$sp, $sp, -736
	.cfi_def_cfa_offset 736
	st.d	$ra, $sp, 728                   # 8-byte Folded Spill
	st.d	$fp, $sp, 720                   # 8-byte Folded Spill
	st.d	$s0, $sp, 712                   # 8-byte Folded Spill
	st.d	$s1, $sp, 704                   # 8-byte Folded Spill
	st.d	$s2, $sp, 696                   # 8-byte Folded Spill
	st.d	$s3, $sp, 688                   # 8-byte Folded Spill
	st.d	$s4, $sp, 680                   # 8-byte Folded Spill
	st.d	$s5, $sp, 672                   # 8-byte Folded Spill
	st.d	$s6, $sp, 664                   # 8-byte Folded Spill
	st.d	$s7, $sp, 656                   # 8-byte Folded Spill
	st.d	$s8, $sp, 648                   # 8-byte Folded Spill
	.cfi_offset 1, -8
	.cfi_offset 22, -16
	.cfi_offset 23, -24
	.cfi_offset 24, -32
	.cfi_offset 25, -40
	.cfi_offset 26, -48
	.cfi_offset 27, -56
	.cfi_offset 28, -64
	.cfi_offset 29, -72
	.cfi_offset 30, -80
	.cfi_offset 31, -88
	st.d	$a5, $sp, 120                   # 8-byte Folded Spill
	st.d	$a4, $sp, 112                   # 8-byte Folded Spill
	move	$s1, $a3
	move	$s4, $a2
	move	$s3, $a1
	vrepli.b	$vr0, 0
	vst	$vr0, $sp, 624
	ori	$a7, $zero, 8
	st.d	$a7, $sp, 640
	pcalau12i	$a1, %pc_hi20(_ZTV13CRecordVectorIyE+16)
	addi.d	$a1, $a1, %pc_lo12(_ZTV13CRecordVectorIyE+16)
	st.d	$a1, $sp, 616
	vst	$vr0, $sp, 592
	ori	$a2, $zero, 1
	st.d	$a2, $sp, 608
	pcalau12i	$a3, %pc_hi20(_ZTV13CRecordVectorIbE+16)
	addi.d	$a3, $a3, %pc_lo12(_ZTV13CRecordVectorIbE+16)
	st.d	$a3, $sp, 584
	vst	$vr0, $sp, 560
	ori	$a4, $zero, 4
	st.d	$a4, $sp, 576
	pcalau12i	$a5, %pc_hi20(_ZTV13CRecordVectorIjE+16)
	addi.d	$a5, $a5, %pc_lo12(_ZTV13CRecordVectorIjE+16)
	st.d	$a5, $sp, 552
	vst	$vr0, $sp, 528
	st.d	$a7, $sp, 544
	pcalau12i	$a6, %pc_hi20(_ZTV13CObjectVectorIN8NArchive3N7z7CFolderEE+16)
	addi.d	$s0, $a6, %pc_lo12(_ZTV13CObjectVectorIN8NArchive3N7z7CFolderEE+16)
	st.d	$s0, $sp, 520
	vst	$vr0, $sp, 496
	st.d	$a4, $sp, 512
	st.d	$a5, $sp, 488
	vst	$vr0, $sp, 464
	st.d	$a7, $sp, 480
	st.d	$a1, $sp, 456
	vst	$vr0, $sp, 432
	st.d	$a2, $sp, 448
	st.d	$a3, $sp, 424
	vst	$vr0, $sp, 128                  # 16-byte Folded Spill
	vst	$vr0, $sp, 400
	st.d	$a4, $sp, 416
	st.d	$a5, $sp, 392
.Ltmp91:                                # EH_LABEL
	addi.d	$a1, $sp, 392
	st.d	$a1, $sp, 16
	addi.d	$a1, $sp, 424
	st.d	$a1, $sp, 8
	addi.d	$a1, $sp, 456
	addi.d	$a3, $sp, 616
	addi.d	$a4, $sp, 584
	addi.d	$a5, $sp, 552
	addi.d	$a6, $sp, 520
	addi.d	$a7, $sp, 488
	st.d	$a1, $sp, 0
	st.d	$a0, $sp, 152                   # 8-byte Folded Spill
	move	$a1, $zero
	move	$a2, $s4
	pcaddu18i	$ra, %call36(_ZN8NArchive3N7z10CInArchive15ReadStreamsInfoEPK13CObjectVectorI7CBufferIhEERyR13CRecordVectorIyERS9_IbERS9_IjERS2_INS0_7CFolderEESF_SB_SD_SF_)
	jirl	$ra, $ra, 0
.Ltmp92:                                # EH_LABEL
# %bb.1:                                # %invoke.cont15
.Ltmp94:                                # EH_LABEL
	addi.d	$a0, $sp, 160
	ori	$a1, $zero, 1
	ori	$fp, $zero, 1
	pcaddu18i	$ra, %call36(_ZN8NArchive3N7z8CDecoderC1Eb)
	jirl	$ra, $ra, 0
.Ltmp95:                                # EH_LABEL
# %bb.2:                                # %invoke.cont17
	ld.w	$a0, $sp, 532
	blt	$a0, $fp, .LBB31_50
# %bb.3:                                # %for.body.lr.ph
	st.d	$s0, $sp, 40                    # 8-byte Folded Spill
	ld.d	$a0, $s4, 0
	pcalau12i	$a1, %got_pc_hi20(_ZTV19CBufPtrSeqOutStream)
	ld.d	$a1, $a1, %got_pc_lo12(_ZTV19CBufPtrSeqOutStream)
	move	$s8, $zero
	move	$s2, $zero
	add.d	$s3, $a0, $s3
	ld.d	$a0, $a1, 24
	st.d	$a0, $sp, 96                    # 8-byte Folded Spill
	ld.d	$a0, $sp, 152                   # 8-byte Folded Reload
	addi.d	$fp, $a0, 88
	addi.d	$a0, $a0, 96
	st.d	$a0, $sp, 80                    # 8-byte Folded Spill
	pcalau12i	$a0, %pc_hi20(_ZTV7CBufferIhE+16)
	addi.d	$a0, $a0, %pc_lo12(_ZTV7CBufferIhE+16)
	st.d	$a0, $sp, 104                   # 8-byte Folded Spill
	addi.d	$a0, $a1, 16
	st.d	$a0, $sp, 88                    # 8-byte Folded Spill
	xvrepli.b	$xr0, 0
	xvst	$xr0, $sp, 48                   # 32-byte Folded Spill
	.p2align	4, , 16
.LBB31_4:                               # %for.body
                                        # =>This Loop Header: Depth=1
                                        #     Child Loop BB31_11 Depth 2
                                        #       Child Loop BB31_12 Depth 3
                                        #     Child Loop BB31_42 Depth 2
                                        #     Child Loop BB31_45 Depth 2
	ld.d	$a0, $sp, 536
	slli.d	$a1, $s8, 3
	ldx.d	$s5, $a0, $a1
.Ltmp97:                                # EH_LABEL
	ori	$a0, $zero, 24
	pcaddu18i	$ra, %call36(_Znwm)
	jirl	$ra, $ra, 0
.Ltmp98:                                # EH_LABEL
# %bb.5:                                # %invoke.cont.i
                                        #   in Loop: Header=BB31_4 Depth=1
	move	$s4, $a0
	ld.d	$a0, $sp, 104                   # 8-byte Folded Reload
	st.d	$a0, $s4, 0
	vld	$vr0, $sp, 128                  # 16-byte Folded Reload
	vst	$vr0, $s4, 8
.Ltmp99:                                # EH_LABEL
	move	$a0, $s1
	pcaddu18i	$ra, %call36(_ZN17CBaseRecordVector18ReserveOnePositionEv)
	jirl	$ra, $ra, 0
.Ltmp100:                               # EH_LABEL
# %bb.6:                                # %invoke.cont29
                                        #   in Loop: Header=BB31_4 Depth=1
	ld.w	$a0, $s1, 12
	ld.d	$a1, $s1, 16
	slli.d	$a2, $a0, 3
	stx.d	$s4, $a1, $a2
	ld.d	$a1, $s1, 16
	addi.w	$a0, $a0, 1
	st.w	$a0, $s1, 12
	alsl.d	$a1, $a0, $a1, 3
	ld.w	$a0, $s5, 108
	ld.d	$s7, $a1, -8
	beqz	$a0, .LBB31_20
# %bb.7:                                # %for.cond.preheader.i
                                        #   in Loop: Header=BB31_4 Depth=1
	ori	$a1, $zero, 1
	blt	$a0, $a1, .LBB31_54
# %bb.8:                                # %for.body.lr.ph.i
                                        #   in Loop: Header=BB31_4 Depth=1
	ld.w	$a1, $s5, 44
	addi.w	$a2, $a0, -1
	ori	$a0, $zero, 1
	blt	$a1, $a0, .LBB31_15
# %bb.9:                                # %for.body.us.i.preheader
                                        #   in Loop: Header=BB31_4 Depth=1
	ld.d	$a3, $s5, 48
	bstrpick.d	$a0, $a1, 31, 0
	addi.d	$a1, $a3, 4
	b	.LBB31_11
	.p2align	4, , 16
.LBB31_10:                              # %for.cond.loopexit.us.i
                                        #   in Loop: Header=BB31_11 Depth=2
	addi.w	$a2, $a3, -1
	blez	$a3, .LBB31_54
.LBB31_11:                              # %for.body.us.i
                                        #   Parent Loop BB31_4 Depth=1
                                        # =>  This Loop Header: Depth=2
                                        #       Child Loop BB31_12 Depth 3
	move	$a3, $a2
	move	$a2, $a1
	move	$a4, $a0
	.p2align	4, , 16
.LBB31_12:                              # %for.body.i.us.i
                                        #   Parent Loop BB31_4 Depth=1
                                        #     Parent Loop BB31_11 Depth=2
                                        # =>    This Inner Loop Header: Depth=3
	ld.w	$a5, $a2, 0
	beq	$a5, $a3, .LBB31_10
# %bb.13:                               # %for.inc.i.us.i
                                        #   in Loop: Header=BB31_12 Depth=3
	addi.d	$a4, $a4, -1
	addi.d	$a2, $a2, 8
	bnez	$a4, .LBB31_12
# %bb.14:                               #   in Loop: Header=BB31_4 Depth=1
	move	$a2, $a3
.LBB31_15:                              # %if.end
                                        #   in Loop: Header=BB31_4 Depth=1
	ld.d	$a0, $s5, 112
	slli.d	$a1, $a2, 3
	ldx.d	$s6, $a0, $a1
	ld.d	$s0, $s7, 8
	beq	$s6, $s0, .LBB31_26
# %bb.16:                               # %if.end.i
                                        #   in Loop: Header=BB31_4 Depth=1
	beqz	$s6, .LBB31_21
# %bb.17:                               # %if.then3.i
                                        #   in Loop: Header=BB31_4 Depth=1
.Ltmp102:                               # EH_LABEL
	move	$a0, $s6
	pcaddu18i	$ra, %call36(_Znam)
	jirl	$ra, $ra, 0
.Ltmp103:                               # EH_LABEL
# %bb.18:                               # %call.i.noexc66
                                        #   in Loop: Header=BB31_4 Depth=1
	move	$s4, $a0
	beqz	$s0, .LBB31_22
# %bb.19:                               # %if.then6.i
                                        #   in Loop: Header=BB31_4 Depth=1
	ld.d	$a1, $s7, 16
	sltu	$a0, $s0, $s6
	masknez	$a2, $s6, $a0
	maskeqz	$a0, $s0, $a0
	or	$a2, $a0, $a2
	move	$a0, $s4
	pcaddu18i	$ra, %call36(memmove)
	jirl	$ra, $ra, 0
	b	.LBB31_22
	.p2align	4, , 16
.LBB31_20:                              # %if.end.thread
                                        #   in Loop: Header=BB31_4 Depth=1
	ld.d	$a0, $s7, 8
	beqz	$a0, .LBB31_25
.LBB31_21:                              #   in Loop: Header=BB31_4 Depth=1
	move	$s6, $zero
	move	$s4, $zero
.LBB31_22:                              # %if.end10.i
                                        #   in Loop: Header=BB31_4 Depth=1
	ld.d	$a0, $s7, 16
	beqz	$a0, .LBB31_24
# %bb.23:                               # %delete.notnull.i65
                                        #   in Loop: Header=BB31_4 Depth=1
	pcaddu18i	$ra, %call36(_ZdaPv)
	jirl	$ra, $ra, 0
.LBB31_24:                              # %delete.end.i
                                        #   in Loop: Header=BB31_4 Depth=1
	st.d	$s4, $s7, 16
	st.d	$s6, $s7, 8
	b	.LBB31_26
.LBB31_25:                              #   in Loop: Header=BB31_4 Depth=1
	move	$s6, $zero
	.p2align	4, , 16
.LBB31_26:                              # %invoke.cont37
                                        #   in Loop: Header=BB31_4 Depth=1
.Ltmp108:                               # EH_LABEL
	ori	$a0, $zero, 40
	pcaddu18i	$ra, %call36(_Znwm)
	jirl	$ra, $ra, 0
.Ltmp109:                               # EH_LABEL
# %bb.27:                               # %invoke.cont42
                                        #   in Loop: Header=BB31_4 Depth=1
	move	$s4, $a0
	st.w	$zero, $a0, 8
	ld.d	$a0, $sp, 88                    # 8-byte Folded Reload
	st.d	$a0, $s4, 0
.Ltmp111:                               # EH_LABEL
	move	$a0, $s4
	ld.d	$a1, $sp, 96                    # 8-byte Folded Reload
	jirl	$ra, $a1, 0
.Ltmp112:                               # EH_LABEL
# %bb.28:                               # %invoke.cont45
                                        #   in Loop: Header=BB31_4 Depth=1
	ld.d	$a0, $s7, 16
	st.d	$a0, $s4, 16
	ld.d	$a0, $sp, 632
	ld.d	$a1, $sp, 152                   # 8-byte Folded Reload
	ld.d	$a1, $a1, 0
	st.d	$zero, $s4, 32
	st.d	$s6, $s4, 24
	alsl.d	$a3, $s2, $a0, 3
.Ltmp114:                               # EH_LABEL
	ori	$a0, $zero, 1
	st.d	$a0, $sp, 16
	st.d	$zero, $sp, 8
	addi.d	$a0, $sp, 160
	ld.d	$a2, $sp, 120                   # 8-byte Folded Reload
	st.d	$a2, $sp, 0
	move	$a2, $s3
	move	$a4, $s5
	move	$a5, $s4
	move	$a6, $zero
	ld.d	$a7, $sp, 112                   # 8-byte Folded Reload
	pcaddu18i	$ra, %call36(_ZN8NArchive3N7z8CDecoder6DecodeEP9IInStreamyPKyRKNS0_7CFolderEP20ISequentialOutStreamP21ICompressProgressInfoP22ICryptoGetTextPasswordRbbj)
	jirl	$ra, $ra, 0
.Ltmp115:                               # EH_LABEL
# %bb.29:                               # %invoke.cont57
                                        #   in Loop: Header=BB31_4 Depth=1
	bnez	$a0, .LBB31_51
# %bb.30:                               # %cleanup.cont
                                        #   in Loop: Header=BB31_4 Depth=1
	ld.bu	$a0, $s5, 132
	ori	$a1, $zero, 1
	bne	$a0, $a1, .LBB31_33
# %bb.31:                               # %if.then62
                                        #   in Loop: Header=BB31_4 Depth=1
	ld.d	$a0, $s7, 16
.Ltmp119:                               # EH_LABEL
	move	$a1, $s6
	pcaddu18i	$ra, %call36(CrcCalc)
	jirl	$ra, $ra, 0
.Ltmp120:                               # EH_LABEL
# %bb.32:                               # %invoke.cont65
                                        #   in Loop: Header=BB31_4 Depth=1
	ld.w	$a1, $s5, 128
	bne	$a0, $a1, .LBB31_56
.LBB31_33:                              # %if.end71
                                        #   in Loop: Header=BB31_4 Depth=1
	ld.w	$a3, $s5, 76
	ori	$a0, $zero, 1
	blt	$a3, $a0, .LBB31_47
# %bb.34:                               # %for.body78.lr.ph
                                        #   in Loop: Header=BB31_4 Depth=1
	ld.d	$a1, $sp, 632
	ld.d	$a4, $fp, 0
	add.w	$a0, $s2, $a3
	ori	$a2, $zero, 8
	bgeu	$a3, $a2, .LBB31_36
# %bb.35:                               #   in Loop: Header=BB31_4 Depth=1
	move	$a2, $s2
	b	.LBB31_45
	.p2align	4, , 16
.LBB31_36:                              # %vector.scevcheck
                                        #   in Loop: Header=BB31_4 Depth=1
	add.d	$a2, $a3, $s2
	addi.w	$a2, $a2, -1
	bge	$a2, $s2, .LBB31_38
# %bb.37:                               #   in Loop: Header=BB31_4 Depth=1
	move	$a2, $s2
	b	.LBB31_45
.LBB31_38:                              # %vector.memcheck
                                        #   in Loop: Header=BB31_4 Depth=1
	addi.d	$a2, $a3, -1
	bstrpick.d	$a2, $a2, 31, 0
	add.d	$a2, $s2, $a2
	alsl.d	$a2, $a2, $a1, 3
	addi.d	$a2, $a2, 8
	bgeu	$fp, $a2, .LBB31_41
# %bb.39:                               # %vector.memcheck
                                        #   in Loop: Header=BB31_4 Depth=1
	alsl.d	$a2, $s2, $a1, 3
	ld.d	$a5, $sp, 80                    # 8-byte Folded Reload
	bgeu	$a2, $a5, .LBB31_41
# %bb.40:                               #   in Loop: Header=BB31_4 Depth=1
	move	$a2, $s2
	b	.LBB31_45
.LBB31_41:                              # %vector.ph
                                        #   in Loop: Header=BB31_4 Depth=1
	bstrpick.d	$a2, $a3, 30, 3
	slli.w	$a5, $a2, 3
	alsl.w	$a2, $a2, $s2, 3
	xvld	$xr2, $sp, 48                   # 32-byte Folded Reload
	xvori.b	$xr1, $xr2, 0
	xvinsgr2vr.d	$xr1, $a4, 0
	xvori.b	$xr0, $xr2, 0
	xvinsgr2vr.d	$xr0, $s3, 0
	move	$a4, $a5
	xvori.b	$xr3, $xr2, 0
	.p2align	4, , 16
.LBB31_42:                              # %vector.body
                                        #   Parent Loop BB31_4 Depth=1
                                        # =>  This Inner Loop Header: Depth=2
	alsl.d	$a6, $s2, $a1, 3
	slli.d	$a7, $s2, 3
	xvldx	$xr4, $a1, $a7
	xvld	$xr5, $a6, 32
	xvadd.d	$xr0, $xr4, $xr0
	xvadd.d	$xr2, $xr5, $xr2
	xvadd.d	$xr1, $xr1, $xr4
	xvadd.d	$xr3, $xr3, $xr5
	addi.w	$a4, $a4, -8
	addi.w	$s2, $s2, 8
	bnez	$a4, .LBB31_42
# %bb.43:                               # %middle.block
                                        #   in Loop: Header=BB31_4 Depth=1
	pcalau12i	$a4, %pc_hi20(.LCPI31_0)
	xvld	$xr4, $a4, %pc_lo12(.LCPI31_0)
	xvadd.d	$xr1, $xr3, $xr1
	xvpermi.d	$xr3, $xr1, 78
	xvori.b	$xr5, $xr4, 0
	xvshuf.d	$xr5, $xr0, $xr3
	xvadd.d	$xr1, $xr1, $xr5
	xvpermi.d	$xr3, $xr1, 68
	xvrepl128vei.d	$xr3, $xr3, 1
	xvadd.d	$xr1, $xr1, $xr3
	xvadd.d	$xr0, $xr2, $xr0
	xvpermi.d	$xr2, $xr0, 78
	xvshuf.d	$xr4, $xr0, $xr2
	xvadd.d	$xr0, $xr0, $xr4
	xvpermi.d	$xr2, $xr0, 68
	xvrepl128vei.d	$xr2, $xr2, 1
	xvadd.d	$xr0, $xr0, $xr2
	xvpickve2gr.d	$s3, $xr0, 0
	xvstelm.d	$xr1, $fp, 0, 0
	beq	$a3, $a5, .LBB31_46
# %bb.44:                               #   in Loop: Header=BB31_4 Depth=1
	xvpickve2gr.d	$a4, $xr1, 0
	.p2align	4, , 16
.LBB31_45:                              # %for.body78
                                        #   Parent Loop BB31_4 Depth=1
                                        # =>  This Inner Loop Header: Depth=2
	slli.d	$a3, $a2, 3
	ldx.d	$a3, $a1, $a3
	addi.w	$a5, $a2, 1
	add.d	$s3, $a3, $s3
	add.d	$a4, $a4, $a3
	st.d	$a4, $fp, 0
	move	$a2, $a5
	bne	$a0, $a5, .LBB31_45
.LBB31_46:                              #   in Loop: Header=BB31_4 Depth=1
	move	$s2, $a0
.LBB31_47:                              # %if.then.i84
                                        #   in Loop: Header=BB31_4 Depth=1
	ld.d	$a0, $s4, 0
	ld.d	$a1, $a0, 16
.Ltmp128:                               # EH_LABEL
	move	$a0, $s4
	jirl	$ra, $a1, 0
.Ltmp129:                               # EH_LABEL
# %bb.48:                               # %for.inc106
                                        #   in Loop: Header=BB31_4 Depth=1
	ld.w	$a0, $sp, 532
	addi.d	$s8, $s8, 1
	blt	$s8, $a0, .LBB31_4
# %bb.49:
	move	$fp, $zero
	ld.d	$s0, $sp, 40                    # 8-byte Folded Reload
	b	.LBB31_52
.LBB31_50:
	move	$fp, $zero
	b	.LBB31_52
.LBB31_51:                              # %if.then.i92
	move	$fp, $a0
	ld.d	$a0, $s4, 0
	ld.d	$a1, $a0, 16
.Ltmp116:                               # EH_LABEL
	move	$a0, $s4
	jirl	$ra, $a1, 0
.Ltmp117:                               # EH_LABEL
	ld.d	$s0, $sp, 40                    # 8-byte Folded Reload
.LBB31_52:                              # %cleanup108
	addi.d	$a0, $sp, 160
	pcaddu18i	$ra, %call36(_ZN8NArchive3N7z8CDecoderD2Ev)
	jirl	$ra, $ra, 0
	addi.d	$a0, $sp, 392
	pcaddu18i	$ra, %call36(_ZN17CBaseRecordVectorD2Ev)
	jirl	$ra, $ra, 0
	addi.d	$a0, $sp, 424
	pcaddu18i	$ra, %call36(_ZN17CBaseRecordVectorD2Ev)
	jirl	$ra, $ra, 0
	addi.d	$a0, $sp, 456
	pcaddu18i	$ra, %call36(_ZN17CBaseRecordVectorD2Ev)
	jirl	$ra, $ra, 0
	addi.d	$a0, $sp, 488
	pcaddu18i	$ra, %call36(_ZN17CBaseRecordVectorD2Ev)
	jirl	$ra, $ra, 0
	st.d	$s0, $sp, 520
.Ltmp131:                               # EH_LABEL
	addi.d	$a0, $sp, 520
	pcaddu18i	$ra, %call36(_ZN17CBaseRecordVector5ClearEv)
	jirl	$ra, $ra, 0
.Ltmp132:                               # EH_LABEL
# %bb.53:                               # %_ZN13CObjectVectorIN8NArchive3N7z7CFolderEED2Ev.exit
	addi.d	$a0, $sp, 520
	pcaddu18i	$ra, %call36(_ZN17CBaseRecordVectorD2Ev)
	jirl	$ra, $ra, 0
	addi.d	$a0, $sp, 552
	pcaddu18i	$ra, %call36(_ZN17CBaseRecordVectorD2Ev)
	jirl	$ra, $ra, 0
	addi.d	$a0, $sp, 584
	pcaddu18i	$ra, %call36(_ZN17CBaseRecordVectorD2Ev)
	jirl	$ra, $ra, 0
	addi.d	$a0, $sp, 616
	pcaddu18i	$ra, %call36(_ZN17CBaseRecordVectorD2Ev)
	jirl	$ra, $ra, 0
	move	$a0, $fp
	ld.d	$s8, $sp, 648                   # 8-byte Folded Reload
	ld.d	$s7, $sp, 656                   # 8-byte Folded Reload
	ld.d	$s6, $sp, 664                   # 8-byte Folded Reload
	ld.d	$s5, $sp, 672                   # 8-byte Folded Reload
	ld.d	$s4, $sp, 680                   # 8-byte Folded Reload
	ld.d	$s3, $sp, 688                   # 8-byte Folded Reload
	ld.d	$s2, $sp, 696                   # 8-byte Folded Reload
	ld.d	$s1, $sp, 704                   # 8-byte Folded Reload
	ld.d	$s0, $sp, 712                   # 8-byte Folded Reload
	ld.d	$fp, $sp, 720                   # 8-byte Folded Reload
	ld.d	$ra, $sp, 728                   # 8-byte Folded Reload
	addi.d	$sp, $sp, 736
	ret
.LBB31_54:                              # %for.end.i
	ori	$a0, $zero, 4
	pcaddu18i	$ra, %call36(__cxa_allocate_exception)
	jirl	$ra, $ra, 0
	ori	$a1, $zero, 1
	st.w	$a1, $a0, 0
.Ltmp105:                               # EH_LABEL
	pcalau12i	$a1, %got_pc_hi20(_ZTIi)
	ld.d	$a1, $a1, %got_pc_lo12(_ZTIi)
	move	$a2, $zero
	pcaddu18i	$ra, %call36(__cxa_throw)
	jirl	$ra, $ra, 0
.Ltmp106:                               # EH_LABEL
# %bb.55:                               # %.noexc
.LBB31_56:                              # %if.then68
.Ltmp122:                               # EH_LABEL
	pcaddu18i	$ra, %call36(_ZN8NArchive3N7zL14ThrowExceptionEv)
	jirl	$ra, $ra, 0
.Ltmp123:                               # EH_LABEL
# %bb.57:                               # %.noexc78
.LBB31_58:                              # %terminate.lpad.i96
.Ltmp118:                               # EH_LABEL
	pcaddu18i	$ra, %call36(__clang_call_terminate)
	jirl	$ra, $ra, 0
.LBB31_59:                              # %terminate.lpad.i99
.Ltmp133:                               # EH_LABEL
	pcaddu18i	$ra, %call36(__clang_call_terminate)
	jirl	$ra, $ra, 0
.LBB31_60:                              # %lpad16
.Ltmp96:                                # EH_LABEL
	b	.LBB31_62
.LBB31_61:                              # %lpad14
.Ltmp93:                                # EH_LABEL
.LBB31_62:                              # %ehcleanup121
	move	$fp, $a0
	b	.LBB31_75
.LBB31_63:                              # %lpad35
.Ltmp104:                               # EH_LABEL
	b	.LBB31_73
.LBB31_64:                              # %if.then.i.loopexit.split-lp
.Ltmp124:                               # EH_LABEL
	b	.LBB31_70
.LBB31_65:                              # %terminate.lpad.i88
.Ltmp130:                               # EH_LABEL
	pcaddu18i	$ra, %call36(__clang_call_terminate)
	jirl	$ra, $ra, 0
.LBB31_66:                              # %lpad44
.Ltmp113:                               # EH_LABEL
	b	.LBB31_73
.LBB31_67:                              # %lpad38
.Ltmp110:                               # EH_LABEL
	b	.LBB31_73
.LBB31_68:                              # %lpad31
.Ltmp107:                               # EH_LABEL
	b	.LBB31_73
.LBB31_69:                              # %if.then.i.loopexit
.Ltmp121:                               # EH_LABEL
.LBB31_70:                              # %if.then.i
	move	$fp, $a0
	ld.d	$a0, $s4, 0
	ld.d	$a1, $a0, 16
.Ltmp125:                               # EH_LABEL
	move	$a0, $s4
	jirl	$ra, $a1, 0
.Ltmp126:                               # EH_LABEL
	b	.LBB31_74
.LBB31_71:                              # %terminate.lpad.i
.Ltmp127:                               # EH_LABEL
	pcaddu18i	$ra, %call36(__clang_call_terminate)
	jirl	$ra, $ra, 0
.LBB31_72:                              # %_ZN7CBufferIhED2Ev.exit61
.Ltmp101:                               # EH_LABEL
.LBB31_73:                              # %ehcleanup105
	move	$fp, $a0
.LBB31_74:                              # %ehcleanup105
	addi.d	$a0, $sp, 160
	pcaddu18i	$ra, %call36(_ZN8NArchive3N7z8CDecoderD2Ev)
	jirl	$ra, $ra, 0
.LBB31_75:                              # %ehcleanup121
	addi.d	$a0, $sp, 392
	pcaddu18i	$ra, %call36(_ZN17CBaseRecordVectorD2Ev)
	jirl	$ra, $ra, 0
	addi.d	$a0, $sp, 424
	pcaddu18i	$ra, %call36(_ZN17CBaseRecordVectorD2Ev)
	jirl	$ra, $ra, 0
	addi.d	$a0, $sp, 456
	pcaddu18i	$ra, %call36(_ZN17CBaseRecordVectorD2Ev)
	jirl	$ra, $ra, 0
	addi.d	$a0, $sp, 488
	pcaddu18i	$ra, %call36(_ZN17CBaseRecordVectorD2Ev)
	jirl	$ra, $ra, 0
	addi.d	$a0, $sp, 520
	pcaddu18i	$ra, %call36(_ZN13CObjectVectorIN8NArchive3N7z7CFolderEED2Ev)
	jirl	$ra, $ra, 0
	addi.d	$a0, $sp, 552
	pcaddu18i	$ra, %call36(_ZN17CBaseRecordVectorD2Ev)
	jirl	$ra, $ra, 0
	addi.d	$a0, $sp, 584
	pcaddu18i	$ra, %call36(_ZN17CBaseRecordVectorD2Ev)
	jirl	$ra, $ra, 0
	addi.d	$a0, $sp, 616
	pcaddu18i	$ra, %call36(_ZN17CBaseRecordVectorD2Ev)
	jirl	$ra, $ra, 0
	move	$a0, $fp
	pcaddu18i	$ra, %call36(_Unwind_Resume)
	jirl	$ra, $ra, 0
.Lfunc_end31:
	.size	_ZN8NArchive3N7z10CInArchive26ReadAndDecodePackedStreamsEyRyR13CObjectVectorI7CBufferIhEEP22ICryptoGetTextPasswordRb, .Lfunc_end31-_ZN8NArchive3N7z10CInArchive26ReadAndDecodePackedStreamsEyRyR13CObjectVectorI7CBufferIhEEP22ICryptoGetTextPasswordRb
	.cfi_endproc
	.section	.gcc_except_table,"a",@progbits
	.p2align	2, 0x0
GCC_except_table31:
.Lexception7:
	.byte	255                             # @LPStart Encoding = omit
	.byte	155                             # @TType Encoding = indirect pcrel sdata4
	.uleb128 .Lttbase4-.Lttbaseref4
.Lttbaseref4:
	.byte	1                               # Call site Encoding = uleb128
	.uleb128 .Lcst_end7-.Lcst_begin7
.Lcst_begin7:
	.uleb128 .Ltmp91-.Lfunc_begin7          # >> Call Site 1 <<
	.uleb128 .Ltmp92-.Ltmp91                #   Call between .Ltmp91 and .Ltmp92
	.uleb128 .Ltmp93-.Lfunc_begin7          #     jumps to .Ltmp93
	.byte	0                               #   On action: cleanup
	.uleb128 .Ltmp94-.Lfunc_begin7          # >> Call Site 2 <<
	.uleb128 .Ltmp95-.Ltmp94                #   Call between .Ltmp94 and .Ltmp95
	.uleb128 .Ltmp96-.Lfunc_begin7          #     jumps to .Ltmp96
	.byte	0                               #   On action: cleanup
	.uleb128 .Ltmp97-.Lfunc_begin7          # >> Call Site 3 <<
	.uleb128 .Ltmp100-.Ltmp97               #   Call between .Ltmp97 and .Ltmp100
	.uleb128 .Ltmp101-.Lfunc_begin7         #     jumps to .Ltmp101
	.byte	0                               #   On action: cleanup
	.uleb128 .Ltmp102-.Lfunc_begin7         # >> Call Site 4 <<
	.uleb128 .Ltmp103-.Ltmp102              #   Call between .Ltmp102 and .Ltmp103
	.uleb128 .Ltmp104-.Lfunc_begin7         #     jumps to .Ltmp104
	.byte	0                               #   On action: cleanup
	.uleb128 .Ltmp103-.Lfunc_begin7         # >> Call Site 5 <<
	.uleb128 .Ltmp108-.Ltmp103              #   Call between .Ltmp103 and .Ltmp108
	.byte	0                               #     has no landing pad
	.byte	0                               #   On action: cleanup
	.uleb128 .Ltmp108-.Lfunc_begin7         # >> Call Site 6 <<
	.uleb128 .Ltmp109-.Ltmp108              #   Call between .Ltmp108 and .Ltmp109
	.uleb128 .Ltmp110-.Lfunc_begin7         #     jumps to .Ltmp110
	.byte	0                               #   On action: cleanup
	.uleb128 .Ltmp111-.Lfunc_begin7         # >> Call Site 7 <<
	.uleb128 .Ltmp112-.Ltmp111              #   Call between .Ltmp111 and .Ltmp112
	.uleb128 .Ltmp113-.Lfunc_begin7         #     jumps to .Ltmp113
	.byte	0                               #   On action: cleanup
	.uleb128 .Ltmp114-.Lfunc_begin7         # >> Call Site 8 <<
	.uleb128 .Ltmp120-.Ltmp114              #   Call between .Ltmp114 and .Ltmp120
	.uleb128 .Ltmp121-.Lfunc_begin7         #     jumps to .Ltmp121
	.byte	0                               #   On action: cleanup
	.uleb128 .Ltmp128-.Lfunc_begin7         # >> Call Site 9 <<
	.uleb128 .Ltmp129-.Ltmp128              #   Call between .Ltmp128 and .Ltmp129
	.uleb128 .Ltmp130-.Lfunc_begin7         #     jumps to .Ltmp130
	.byte	1                               #   On action: 1
	.uleb128 .Ltmp116-.Lfunc_begin7         # >> Call Site 10 <<
	.uleb128 .Ltmp117-.Ltmp116              #   Call between .Ltmp116 and .Ltmp117
	.uleb128 .Ltmp118-.Lfunc_begin7         #     jumps to .Ltmp118
	.byte	1                               #   On action: 1
	.uleb128 .Ltmp117-.Lfunc_begin7         # >> Call Site 11 <<
	.uleb128 .Ltmp131-.Ltmp117              #   Call between .Ltmp117 and .Ltmp131
	.byte	0                               #     has no landing pad
	.byte	0                               #   On action: cleanup
	.uleb128 .Ltmp131-.Lfunc_begin7         # >> Call Site 12 <<
	.uleb128 .Ltmp132-.Ltmp131              #   Call between .Ltmp131 and .Ltmp132
	.uleb128 .Ltmp133-.Lfunc_begin7         #     jumps to .Ltmp133
	.byte	1                               #   On action: 1
	.uleb128 .Ltmp132-.Lfunc_begin7         # >> Call Site 13 <<
	.uleb128 .Ltmp105-.Ltmp132              #   Call between .Ltmp132 and .Ltmp105
	.byte	0                               #     has no landing pad
	.byte	0                               #   On action: cleanup
	.uleb128 .Ltmp105-.Lfunc_begin7         # >> Call Site 14 <<
	.uleb128 .Ltmp106-.Ltmp105              #   Call between .Ltmp105 and .Ltmp106
	.uleb128 .Ltmp107-.Lfunc_begin7         #     jumps to .Ltmp107
	.byte	0                               #   On action: cleanup
	.uleb128 .Ltmp122-.Lfunc_begin7         # >> Call Site 15 <<
	.uleb128 .Ltmp123-.Ltmp122              #   Call between .Ltmp122 and .Ltmp123
	.uleb128 .Ltmp124-.Lfunc_begin7         #     jumps to .Ltmp124
	.byte	0                               #   On action: cleanup
	.uleb128 .Ltmp123-.Lfunc_begin7         # >> Call Site 16 <<
	.uleb128 .Ltmp125-.Ltmp123              #   Call between .Ltmp123 and .Ltmp125
	.byte	0                               #     has no landing pad
	.byte	0                               #   On action: cleanup
	.uleb128 .Ltmp125-.Lfunc_begin7         # >> Call Site 17 <<
	.uleb128 .Ltmp126-.Ltmp125              #   Call between .Ltmp125 and .Ltmp126
	.uleb128 .Ltmp127-.Lfunc_begin7         #     jumps to .Ltmp127
	.byte	1                               #   On action: 1
	.uleb128 .Ltmp126-.Lfunc_begin7         # >> Call Site 18 <<
	.uleb128 .Lfunc_end31-.Ltmp126          #   Call between .Ltmp126 and .Lfunc_end31
	.byte	0                               #     has no landing pad
	.byte	0                               #   On action: cleanup
.Lcst_end7:
	.byte	1                               # >> Action Record 1 <<
                                        #   Catch TypeInfo 1
	.byte	0                               #   No further actions
	.p2align	2, 0x0
                                        # >> Catch TypeInfos <<
	.word	0                               # TypeInfo 1
.Lttbase4:
	.p2align	2, 0x0
                                        # -- End function
	.section	.text._ZN8NArchive3N7z8CDecoderD2Ev,"axG",@progbits,_ZN8NArchive3N7z8CDecoderD2Ev,comdat
	.weak	_ZN8NArchive3N7z8CDecoderD2Ev   # -- Begin function _ZN8NArchive3N7z8CDecoderD2Ev
	.p2align	2
	.type	_ZN8NArchive3N7z8CDecoderD2Ev,@function
_ZN8NArchive3N7z8CDecoderD2Ev:          # @_ZN8NArchive3N7z8CDecoderD2Ev
.Lfunc_begin8:
	.cfi_startproc
	.cfi_personality 155, DW.ref.__gxx_personality_v0
	.cfi_lsda 27, .Lexception8
# %bb.0:                                # %entry
	addi.d	$sp, $sp, -32
	.cfi_def_cfa_offset 32
	st.d	$ra, $sp, 24                    # 8-byte Folded Spill
	st.d	$fp, $sp, 16                    # 8-byte Folded Spill
	st.d	$s0, $sp, 8                     # 8-byte Folded Spill
	.cfi_offset 1, -8
	.cfi_offset 22, -16
	.cfi_offset 23, -24
	move	$fp, $a0
	addi.d	$s0, $a0, 200
	pcalau12i	$a0, %pc_hi20(_ZTV13CObjectVectorI9CMyComPtrI8IUnknownEE+16)
	addi.d	$a0, $a0, %pc_lo12(_ZTV13CObjectVectorI9CMyComPtrI8IUnknownEE+16)
	st.d	$a0, $fp, 200
.Ltmp134:                               # EH_LABEL
	move	$a0, $s0
	pcaddu18i	$ra, %call36(_ZN17CBaseRecordVector5ClearEv)
	jirl	$ra, $ra, 0
.Ltmp135:                               # EH_LABEL
# %bb.1:                                # %_ZN13CObjectVectorI9CMyComPtrI8IUnknownEED2Ev.exit
	move	$a0, $s0
	pcaddu18i	$ra, %call36(_ZN17CBaseRecordVectorD2Ev)
	jirl	$ra, $ra, 0
	ld.d	$a0, $fp, 192
	beqz	$a0, .LBB32_3
# %bb.2:                                # %if.then.i
	ld.d	$a1, $a0, 0
	ld.d	$a1, $a1, 16
.Ltmp137:                               # EH_LABEL
	jirl	$ra, $a1, 0
.Ltmp138:                               # EH_LABEL
.LBB32_3:                               # %_ZN9CMyComPtrI15ICompressCoder2ED2Ev.exit
	addi.d	$s0, $fp, 8
	addi.d	$a0, $fp, 136
	pcaddu18i	$ra, %call36(_ZN17CBaseRecordVectorD2Ev)
	jirl	$ra, $ra, 0
	addi.d	$a0, $fp, 104
	pcaddu18i	$ra, %call36(_ZN17CBaseRecordVectorD2Ev)
	jirl	$ra, $ra, 0
	addi.d	$a0, $fp, 72
	pcaddu18i	$ra, %call36(_ZN17CBaseRecordVectorD2Ev)
	jirl	$ra, $ra, 0
	addi.d	$a0, $fp, 40
	pcaddu18i	$ra, %call36(_ZN17CBaseRecordVectorD2Ev)
	jirl	$ra, $ra, 0
	move	$a0, $s0
	ld.d	$s0, $sp, 8                     # 8-byte Folded Reload
	ld.d	$fp, $sp, 16                    # 8-byte Folded Reload
	ld.d	$ra, $sp, 24                    # 8-byte Folded Reload
	addi.d	$sp, $sp, 32
	pcaddu18i	$t8, %call36(_ZN17CBaseRecordVectorD2Ev)
	jr	$t8
.LBB32_4:                               # %terminate.lpad.i1
.Ltmp139:                               # EH_LABEL
	pcaddu18i	$ra, %call36(__clang_call_terminate)
	jirl	$ra, $ra, 0
.LBB32_5:                               # %terminate.lpad.i
.Ltmp136:                               # EH_LABEL
	pcaddu18i	$ra, %call36(__clang_call_terminate)
	jirl	$ra, $ra, 0
.Lfunc_end32:
	.size	_ZN8NArchive3N7z8CDecoderD2Ev, .Lfunc_end32-_ZN8NArchive3N7z8CDecoderD2Ev
	.cfi_endproc
	.section	.gcc_except_table._ZN8NArchive3N7z8CDecoderD2Ev,"aG",@progbits,_ZN8NArchive3N7z8CDecoderD2Ev,comdat
	.p2align	2, 0x0
GCC_except_table32:
.Lexception8:
	.byte	255                             # @LPStart Encoding = omit
	.byte	155                             # @TType Encoding = indirect pcrel sdata4
	.uleb128 .Lttbase5-.Lttbaseref5
.Lttbaseref5:
	.byte	1                               # Call site Encoding = uleb128
	.uleb128 .Lcst_end8-.Lcst_begin8
.Lcst_begin8:
	.uleb128 .Ltmp134-.Lfunc_begin8         # >> Call Site 1 <<
	.uleb128 .Ltmp135-.Ltmp134              #   Call between .Ltmp134 and .Ltmp135
	.uleb128 .Ltmp136-.Lfunc_begin8         #     jumps to .Ltmp136
	.byte	1                               #   On action: 1
	.uleb128 .Ltmp135-.Lfunc_begin8         # >> Call Site 2 <<
	.uleb128 .Ltmp137-.Ltmp135              #   Call between .Ltmp135 and .Ltmp137
	.byte	0                               #     has no landing pad
	.byte	0                               #   On action: cleanup
	.uleb128 .Ltmp137-.Lfunc_begin8         # >> Call Site 3 <<
	.uleb128 .Ltmp138-.Ltmp137              #   Call between .Ltmp137 and .Ltmp138
	.uleb128 .Ltmp139-.Lfunc_begin8         #     jumps to .Ltmp139
	.byte	1                               #   On action: 1
	.uleb128 .Ltmp138-.Lfunc_begin8         # >> Call Site 4 <<
	.uleb128 .Lfunc_end32-.Ltmp138          #   Call between .Ltmp138 and .Lfunc_end32
	.byte	0                               #     has no landing pad
	.byte	0                               #   On action: cleanup
.Lcst_end8:
	.byte	1                               # >> Action Record 1 <<
                                        #   Catch TypeInfo 1
	.byte	0                               #   No further actions
	.p2align	2, 0x0
                                        # >> Catch TypeInfos <<
	.word	0                               # TypeInfo 1
.Lttbase5:
	.p2align	2, 0x0
                                        # -- End function
	.section	.text._ZN13CObjectVectorIN8NArchive3N7z7CFolderEED2Ev,"axG",@progbits,_ZN13CObjectVectorIN8NArchive3N7z7CFolderEED2Ev,comdat
	.weak	_ZN13CObjectVectorIN8NArchive3N7z7CFolderEED2Ev # -- Begin function _ZN13CObjectVectorIN8NArchive3N7z7CFolderEED2Ev
	.p2align	2
	.type	_ZN13CObjectVectorIN8NArchive3N7z7CFolderEED2Ev,@function
_ZN13CObjectVectorIN8NArchive3N7z7CFolderEED2Ev: # @_ZN13CObjectVectorIN8NArchive3N7z7CFolderEED2Ev
.Lfunc_begin9:
	.cfi_startproc
	.cfi_personality 155, DW.ref.__gxx_personality_v0
	.cfi_lsda 27, .Lexception9
# %bb.0:                                # %entry
	addi.d	$sp, $sp, -16
	.cfi_def_cfa_offset 16
	st.d	$ra, $sp, 8                     # 8-byte Folded Spill
	st.d	$fp, $sp, 0                     # 8-byte Folded Spill
	.cfi_offset 1, -8
	.cfi_offset 22, -16
	move	$fp, $a0
	pcalau12i	$a0, %pc_hi20(_ZTV13CObjectVectorIN8NArchive3N7z7CFolderEE+16)
	addi.d	$a0, $a0, %pc_lo12(_ZTV13CObjectVectorIN8NArchive3N7z7CFolderEE+16)
	st.d	$a0, $fp, 0
.Ltmp140:                               # EH_LABEL
	move	$a0, $fp
	pcaddu18i	$ra, %call36(_ZN17CBaseRecordVector5ClearEv)
	jirl	$ra, $ra, 0
.Ltmp141:                               # EH_LABEL
# %bb.1:                                # %invoke.cont
	move	$a0, $fp
	ld.d	$fp, $sp, 0                     # 8-byte Folded Reload
	ld.d	$ra, $sp, 8                     # 8-byte Folded Reload
	addi.d	$sp, $sp, 16
	pcaddu18i	$t8, %call36(_ZN17CBaseRecordVectorD2Ev)
	jr	$t8
.LBB33_2:                               # %terminate.lpad
.Ltmp142:                               # EH_LABEL
	pcaddu18i	$ra, %call36(__clang_call_terminate)
	jirl	$ra, $ra, 0
.Lfunc_end33:
	.size	_ZN13CObjectVectorIN8NArchive3N7z7CFolderEED2Ev, .Lfunc_end33-_ZN13CObjectVectorIN8NArchive3N7z7CFolderEED2Ev
	.cfi_endproc
	.section	.gcc_except_table._ZN13CObjectVectorIN8NArchive3N7z7CFolderEED2Ev,"aG",@progbits,_ZN13CObjectVectorIN8NArchive3N7z7CFolderEED2Ev,comdat
	.p2align	2, 0x0
GCC_except_table33:
.Lexception9:
	.byte	255                             # @LPStart Encoding = omit
	.byte	155                             # @TType Encoding = indirect pcrel sdata4
	.uleb128 .Lttbase6-.Lttbaseref6
.Lttbaseref6:
	.byte	1                               # Call site Encoding = uleb128
	.uleb128 .Lcst_end9-.Lcst_begin9
.Lcst_begin9:
	.uleb128 .Ltmp140-.Lfunc_begin9         # >> Call Site 1 <<
	.uleb128 .Ltmp141-.Ltmp140              #   Call between .Ltmp140 and .Ltmp141
	.uleb128 .Ltmp142-.Lfunc_begin9         #     jumps to .Ltmp142
	.byte	1                               #   On action: 1
	.uleb128 .Ltmp141-.Lfunc_begin9         # >> Call Site 2 <<
	.uleb128 .Lfunc_end33-.Ltmp141          #   Call between .Ltmp141 and .Lfunc_end33
	.byte	0                               #     has no landing pad
	.byte	0                               #   On action: cleanup
.Lcst_end9:
	.byte	1                               # >> Action Record 1 <<
                                        #   Catch TypeInfo 1
	.byte	0                               #   No further actions
	.p2align	2, 0x0
                                        # >> Catch TypeInfos <<
	.word	0                               # TypeInfo 1
.Lttbase6:
	.p2align	2, 0x0
                                        # -- End function
	.text
	.globl	_ZN8NArchive3N7z10CInArchive10ReadHeaderERNS0_18CArchiveDatabaseExEP22ICryptoGetTextPasswordRb # -- Begin function _ZN8NArchive3N7z10CInArchive10ReadHeaderERNS0_18CArchiveDatabaseExEP22ICryptoGetTextPasswordRb
	.p2align	2
	.type	_ZN8NArchive3N7z10CInArchive10ReadHeaderERNS0_18CArchiveDatabaseExEP22ICryptoGetTextPasswordRb,@function
_ZN8NArchive3N7z10CInArchive10ReadHeaderERNS0_18CArchiveDatabaseExEP22ICryptoGetTextPasswordRb: # @_ZN8NArchive3N7z10CInArchive10ReadHeaderERNS0_18CArchiveDatabaseExEP22ICryptoGetTextPasswordRb
.Lfunc_begin10:
	.cfi_startproc
	.cfi_personality 155, DW.ref.__gxx_personality_v0
	.cfi_lsda 27, .Lexception10
# %bb.0:                                # %entry
	addi.d	$sp, $sp, -512
	.cfi_def_cfa_offset 512
	st.d	$ra, $sp, 504                   # 8-byte Folded Spill
	st.d	$fp, $sp, 496                   # 8-byte Folded Spill
	st.d	$s0, $sp, 488                   # 8-byte Folded Spill
	st.d	$s1, $sp, 480                   # 8-byte Folded Spill
	st.d	$s2, $sp, 472                   # 8-byte Folded Spill
	st.d	$s3, $sp, 464                   # 8-byte Folded Spill
	st.d	$s4, $sp, 456                   # 8-byte Folded Spill
	st.d	$s5, $sp, 448                   # 8-byte Folded Spill
	st.d	$s6, $sp, 440                   # 8-byte Folded Spill
	st.d	$s7, $sp, 432                   # 8-byte Folded Spill
	st.d	$s8, $sp, 424                   # 8-byte Folded Spill
	.cfi_offset 1, -8
	.cfi_offset 22, -16
	.cfi_offset 23, -24
	.cfi_offset 24, -32
	.cfi_offset 25, -40
	.cfi_offset 26, -48
	.cfi_offset 27, -56
	.cfi_offset 28, -64
	.cfi_offset 29, -72
	.cfi_offset 30, -80
	.cfi_offset 31, -88
