	.file	"DefaultName.cpp"
	.text
	.globl	_Z15GetDefaultName2RK11CStringBaseIwES2_S2_ # -- Begin function _Z15GetDefaultName2RK11CStringBaseIwES2_S2_
	.p2align	5
	.type	_Z15GetDefaultName2RK11CStringBaseIwES2_S2_,@function
_Z15GetDefaultName2RK11CStringBaseIwES2_S2_: # @_Z15GetDefaultName2RK11CStringBaseIwES2_S2_
.Lfunc_begin0:
	.cfi_startproc
	.cfi_personality 155, DW.ref.__gxx_personality_v0
	.cfi_lsda 27, .Lexception0
# %bb.0:                                # %entry
	addi.d	$sp, $sp, -80
	.cfi_def_cfa_offset 80
	st.d	$ra, $sp, 72                    # 8-byte Folded Spill
	st.d	$fp, $sp, 64                    # 8-byte Folded Spill
	st.d	$s0, $sp, 56                    # 8-byte Folded Spill
	st.d	$s1, $sp, 48                    # 8-byte Folded Spill
	st.d	$s2, $sp, 40                    # 8-byte Folded Spill
	st.d	$s3, $sp, 32                    # 8-byte Folded Spill
	.cfi_offset 1, -8
	.cfi_offset 22, -16
	.cfi_offset 23, -24
	.cfi_offset 24, -32
	.cfi_offset 25, -40
	.cfi_offset 26, -48
	move	$s1, $a1
	ld.w	$a4, $a2, 8
	ld.w	$s3, $a1, 8
	addi.w	$a1, $a4, 1
	move	$s0, $a3
	move	$fp, $a0
	bge	$a1, $s3, .LBB0_7
# %bb.1:                                # %if.then.i
	ld.d	$a0, $s1, 0
	sub.w	$s2, $s3, $a1
	slli.d	$a1, $s2, 2
	ldx.w	$a0, $a0, $a1
	ori	$a1, $zero, 46
	bne	$a0, $a1, .LBB0_7
# %bb.2:                                # %if.then5.i
	addi.w	$a3, $s2, 1
	addi.d	$a0, $sp, 16
	move	$a1, $s1
	move	$s3, $a2
	move	$a2, $a3
	move	$a3, $a4
	pcaddu18i	$ra, %call36(_ZNK11CStringBaseIwE3MidEii)
	jirl	$ra, $ra, 0
	ld.d	$a0, $s3, 0
	ld.d	$a1, $sp, 16
.Ltmp0:                                 # EH_LABEL
	pcaddu18i	$ra, %call36(_Z21MyStringCompareNoCasePKwS0_)
	jirl	$ra, $ra, 0
.Ltmp1:                                 # EH_LABEL
# %bb.3:                                # %invoke.cont.i
	move	$s3, $a0
	ld.d	$a0, $sp, 16
	beqz	$a0, .LBB0_5
# %bb.4:                                # %delete.notnull.i.i
	pcaddu18i	$ra, %call36(_ZdaPv)
	jirl	$ra, $ra, 0
.LBB0_5:                                # %_ZN11CStringBaseIwED2Ev.exit.i
	beqz	$s3, .LBB0_31
# %bb.6:                                # %_ZN11CStringBaseIwED2Ev.exit.if.end14thread-pre-split_crit_edge.i
	ld.w	$s3, $s1, 8
.LBB0_7:                                # %if.end14.i
	beqz	$s3, .LBB0_18
# %bb.8:                                # %if.end.i.i
	ld.d	$a0, $s1, 0
	slli.d	$a1, $s3, 2
	addi.d	$a1, $a1, -4
	ori	$a2, $zero, 46
	addi.w	$a3, $zero, -4
	.p2align	4, , 16
.LBB0_9:                                # %for.cond.i.i
                                        # =>This Inner Loop Header: Depth=1
	ldx.w	$a4, $a0, $a1
	beq	$a4, $a2, .LBB0_11
# %bb.10:                               # %if.end7.i.i
                                        #   in Loop: Header=BB0_9 Depth=1
	addi.d	$a1, $a1, -4
	bne	$a1, $a3, .LBB0_9
	b	.LBB0_18
.LBB0_11:                               # %_ZNK11CStringBaseIwE11ReverseFindEw.exit.i
	srli.d	$a0, $a1, 2
	addi.w	$a3, $a0, 0
	ori	$a0, $zero, 1
	blt	$a3, $a0, .LBB0_18
# %bb.12:                               # %if.then18.i
	addi.d	$a0, $sp, 16
	move	$a1, $s1
	move	$a2, $zero
	pcaddu18i	$ra, %call36(_ZNK11CStringBaseIwE3MidEii)
	jirl	$ra, $ra, 0
	ld.w	$s1, $sp, 24
	move	$a0, $zero
	vrepli.b	$vr0, 0
	bstrpick.d	$a1, $s1, 31, 0
	addi.d	$s2, $a1, 1
	ori	$a1, $zero, 0
	lu32i.d	$a1, 1
	and	$a1, $s2, $a1
	vst	$vr0, $fp, 0
	bnez	$a1, .LBB0_15
# %bb.13:                               # %if.end9.i.i.i37.i
	addi.w	$a0, $s2, 0
	slti	$a1, $s1, -1
	slli.d	$a0, $a0, 2
	addi.w	$a2, $zero, -1
	maskeqz	$a2, $a2, $a1
	masknez	$a0, $a0, $a1
	or	$a0, $a2, $a0
.Ltmp3:                                 # EH_LABEL
	pcaddu18i	$ra, %call36(_Znam)
	jirl	$ra, $ra, 0
.Ltmp4:                                 # EH_LABEL
# %bb.14:                               # %call.i.i.i.noexc54.i
	st.d	$a0, $fp, 0
	st.w	$zero, $a0, 0
	st.w	$s2, $fp, 12
.LBB0_15:                               # %_ZN11CStringBaseIwE11SetCapacityEi.exit.i.i40.i
	ld.d	$a1, $sp, 16
	.p2align	4, , 16
.LBB0_16:                               # %while.cond.i.i.i41.i
                                        # =>This Inner Loop Header: Depth=1
	ld.w	$a2, $a1, 0
	addi.d	$a1, $a1, 4
	addi.d	$a3, $a0, 4
	st.w	$a2, $a0, 0
	move	$a0, $a3
	bnez	$a2, .LBB0_16
# %bb.17:                               # %_ZN11CStringBaseIwEC2ERKS0_.exit.i47.i
	st.w	$s1, $fp, 8
.Ltmp6:                                 # EH_LABEL
	move	$a0, $fp
	move	$a1, $s0
	pcaddu18i	$ra, %call36(_ZN11CStringBaseIwEpLERKS0_)
	jirl	$ra, $ra, 0
.Ltmp7:                                 # EH_LABEL
	b	.LBB0_37
.LBB0_18:                               # %if.end24.i
	ld.w	$a0, $s0, 8
	addi.w	$s2, $s3, 1
	vrepli.b	$vr0, 0
	beqz	$a0, .LBB0_21
# %bb.19:                               # %if.else.i
	vst	$vr0, $fp, 0
	beqz	$s2, .LBB0_23
# %bb.20:                               # %if.end9.i.i.i89.i
	slti	$a0, $s3, -1
	slli.d	$a1, $s2, 2
	masknez	$a1, $a1, $a0
	addi.w	$a2, $zero, -1
	maskeqz	$a0, $a2, $a0
	or	$a0, $a0, $a1
	pcaddu18i	$ra, %call36(_Znam)
	jirl	$ra, $ra, 0
	st.d	$a0, $fp, 0
	st.w	$zero, $a0, 0
	st.w	$s2, $fp, 12
	b	.LBB0_24
.LBB0_21:                               # %if.then26.i
	vst	$vr0, $fp, 0
	beqz	$s2, .LBB0_27
# %bb.22:                               # %if.end9.i.i.i69.i
	slti	$a0, $s3, -1
	slli.d	$a1, $s2, 2
	masknez	$a1, $a1, $a0
	addi.w	$a2, $zero, -1
	maskeqz	$a0, $a2, $a0
	or	$a0, $a0, $a1
	pcaddu18i	$ra, %call36(_Znam)
	jirl	$ra, $ra, 0
	st.d	$a0, $fp, 0
	st.w	$zero, $a0, 0
	st.w	$s2, $fp, 12
	b	.LBB0_28
.LBB0_23:
	move	$a0, $zero
.LBB0_24:                               # %_ZN11CStringBaseIwE11SetCapacityEi.exit.i.i93.i
	ld.d	$a1, $s1, 0
	.p2align	4, , 16
.LBB0_25:                               # %while.cond.i.i.i94.i
                                        # =>This Inner Loop Header: Depth=1
	ld.w	$a2, $a1, 0
	addi.d	$a1, $a1, 4
	addi.d	$a3, $a0, 4
	st.w	$a2, $a0, 0
	move	$a0, $a3
	bnez	$a2, .LBB0_25
# %bb.26:                               # %_ZN11CStringBaseIwEC2ERKS0_.exit.i100.i
	st.w	$s3, $fp, 8
.Ltmp9:                                 # EH_LABEL
	move	$a0, $fp
	move	$a1, $s0
	pcaddu18i	$ra, %call36(_ZN11CStringBaseIwEpLERKS0_)
	jirl	$ra, $ra, 0
.Ltmp10:                                # EH_LABEL
	b	.LBB0_39
.LBB0_27:
	move	$a0, $zero
.LBB0_28:                               # %_ZN11CStringBaseIwE11SetCapacityEi.exit.i.i72.i
	ld.d	$a1, $s1, 0
	.p2align	4, , 16
.LBB0_29:                               # %while.cond.i.i.i73.i
                                        # =>This Inner Loop Header: Depth=1
	ld.w	$a2, $a1, 0
	addi.d	$a1, $a1, 4
	addi.d	$a3, $a0, 4
	st.w	$a2, $a0, 0
	move	$a0, $a3
	bnez	$a2, .LBB0_29
# %bb.30:                               # %_ZN11CStringBaseIwEC2ERKS0_.exit.i79.i
	st.w	$s3, $fp, 8
.Ltmp12:                                # EH_LABEL
	pcalau12i	$a0, %pc_hi20(.L.str)
	addi.d	$a1, $a0, %pc_lo12(.L.str)
	move	$a0, $fp
	pcaddu18i	$ra, %call36(_ZN11CStringBaseIwEpLEPKw)
	jirl	$ra, $ra, 0
.Ltmp13:                                # EH_LABEL
	b	.LBB0_39
.LBB0_31:                               # %if.then9.i
	addi.d	$a0, $sp, 16
	move	$a1, $s1
	move	$a2, $zero
	move	$a3, $s2
	pcaddu18i	$ra, %call36(_ZNK11CStringBaseIwE3MidEii)
	jirl	$ra, $ra, 0
	ld.w	$s1, $sp, 24
	move	$a0, $zero
	vrepli.b	$vr0, 0
	bstrpick.d	$a1, $s1, 31, 0
	addi.d	$s2, $a1, 1
	ori	$a1, $zero, 0
	lu32i.d	$a1, 1
	and	$a1, $s2, $a1
	vst	$vr0, $fp, 0
	bnez	$a1, .LBB0_34
# %bb.32:                               # %if.end9.i.i.i.i
	addi.w	$a0, $s2, 0
	slti	$a1, $s1, -1
	slli.d	$a0, $a0, 2
	addi.w	$a2, $zero, -1
	maskeqz	$a2, $a2, $a1
	masknez	$a0, $a0, $a1
	or	$a0, $a2, $a0
.Ltmp15:                                # EH_LABEL
	pcaddu18i	$ra, %call36(_Znam)
	jirl	$ra, $ra, 0
.Ltmp16:                                # EH_LABEL
# %bb.33:                               # %call.i.i.i.noexc.i
	st.d	$a0, $fp, 0
	st.w	$zero, $a0, 0
	st.w	$s2, $fp, 12
.LBB0_34:                               # %_ZN11CStringBaseIwE11SetCapacityEi.exit.i.i.i
	ld.d	$a1, $sp, 16
	.p2align	4, , 16
.LBB0_35:                               # %while.cond.i.i.i.i
                                        # =>This Inner Loop Header: Depth=1
	ld.w	$a2, $a1, 0
	addi.d	$a1, $a1, 4
	addi.d	$a3, $a0, 4
	st.w	$a2, $a0, 0
	move	$a0, $a3
	bnez	$a2, .LBB0_35
# %bb.36:                               # %_ZN11CStringBaseIwEC2ERKS0_.exit.i.i
	st.w	$s1, $fp, 8
.Ltmp18:                                # EH_LABEL
	move	$a0, $fp
	move	$a1, $s0
	pcaddu18i	$ra, %call36(_ZN11CStringBaseIwEpLERKS0_)
	jirl	$ra, $ra, 0
.Ltmp19:                                # EH_LABEL
.LBB0_37:                               # %invoke.cont21.i
	ld.d	$a0, $sp, 16
	beqz	$a0, .LBB0_39
# %bb.38:                               # %delete.notnull.i25.i
	pcaddu18i	$ra, %call36(_ZdaPv)
	jirl	$ra, $ra, 0
.LBB0_39:                               # %_ZL15GetDefaultName3RK11CStringBaseIwES2_S2_.exit
.Ltmp21:                                # EH_LABEL
	move	$a0, $fp
	pcaddu18i	$ra, %call36(_ZN11CStringBaseIwE9TrimRightEv)
	jirl	$ra, $ra, 0
.Ltmp22:                                # EH_LABEL
# %bb.40:                               # %nrvo.skipdtor
	ld.d	$s3, $sp, 32                    # 8-byte Folded Reload
	ld.d	$s2, $sp, 40                    # 8-byte Folded Reload
	ld.d	$s1, $sp, 48                    # 8-byte Folded Reload
	ld.d	$s0, $sp, 56                    # 8-byte Folded Reload
	ld.d	$fp, $sp, 64                    # 8-byte Folded Reload
	ld.d	$ra, $sp, 72                    # 8-byte Folded Reload
	addi.d	$sp, $sp, 80
	ret
.LBB0_41:                               # %lpad11.i
.Ltmp17:                                # EH_LABEL
	b	.LBB0_43
.LBB0_42:                               # %lpad20.i
.Ltmp5:                                 # EH_LABEL
.LBB0_43:                               # %lpad11.body.i
	move	$fp, $a0
	b	.LBB0_48
.LBB0_44:                               # %lpad.i.i
.Ltmp20:                                # EH_LABEL
	b	.LBB0_46
.LBB0_45:                               # %lpad.i50.i
.Ltmp8:                                 # EH_LABEL
.LBB0_46:                               # %lpad.i.i
	ld.d	$a1, $fp, 0
	move	$fp, $a0
	beqz	$a1, .LBB0_48
# %bb.47:                               # %delete.notnull.i.i.i
	move	$a0, $a1
	pcaddu18i	$ra, %call36(_ZdaPv)
	jirl	$ra, $ra, 0
.LBB0_48:                               # %lpad11.body.i
	ld.d	$a0, $sp, 16
	bnez	$a0, .LBB0_56
	b	.LBB0_57
.LBB0_49:                               # %lpad.i
.Ltmp2:                                 # EH_LABEL
	ld.d	$a1, $sp, 16
	b	.LBB0_54
.LBB0_50:                               # %lpad.i82.i
.Ltmp14:                                # EH_LABEL
	b	.LBB0_53
.LBB0_51:                               # %lpad.i103.i
.Ltmp11:                                # EH_LABEL
	b	.LBB0_53
.LBB0_52:                               # %lpad
.Ltmp23:                                # EH_LABEL
.LBB0_53:                               # %lpad.i82.i
	ld.d	$a1, $fp, 0
.LBB0_54:                               # %lpad.i82.i
	move	$fp, $a0
	beqz	$a1, .LBB0_57
# %bb.55:                               # %delete.notnull.i.i84.i
	move	$a0, $a1
.LBB0_56:                               # %common.resume
	pcaddu18i	$ra, %call36(_ZdaPv)
	jirl	$ra, $ra, 0
.LBB0_57:                               # %common.resume
	move	$a0, $fp
	pcaddu18i	$ra, %call36(_Unwind_Resume)
	jirl	$ra, $ra, 0
.Lfunc_end0:
	.size	_Z15GetDefaultName2RK11CStringBaseIwES2_S2_, .Lfunc_end0-_Z15GetDefaultName2RK11CStringBaseIwES2_S2_
	.cfi_endproc
	.section	.gcc_except_table,"a",@progbits
	.p2align	2, 0x0
GCC_except_table0:
.Lexception0:
	.byte	255                             # @LPStart Encoding = omit
	.byte	255                             # @TType Encoding = omit
	.byte	1                               # Call site Encoding = uleb128
	.uleb128 .Lcst_end0-.Lcst_begin0
.Lcst_begin0:
	.uleb128 .Lfunc_begin0-.Lfunc_begin0    # >> Call Site 1 <<
	.uleb128 .Ltmp0-.Lfunc_begin0           #   Call between .Lfunc_begin0 and .Ltmp0
	.byte	0                               #     has no landing pad
	.byte	0                               #   On action: cleanup
	.uleb128 .Ltmp0-.Lfunc_begin0           # >> Call Site 2 <<
	.uleb128 .Ltmp1-.Ltmp0                  #   Call between .Ltmp0 and .Ltmp1
	.uleb128 .Ltmp2-.Lfunc_begin0           #     jumps to .Ltmp2
	.byte	0                               #   On action: cleanup
	.uleb128 .Ltmp1-.Lfunc_begin0           # >> Call Site 3 <<
	.uleb128 .Ltmp3-.Ltmp1                  #   Call between .Ltmp1 and .Ltmp3
	.byte	0                               #     has no landing pad
	.byte	0                               #   On action: cleanup
	.uleb128 .Ltmp3-.Lfunc_begin0           # >> Call Site 4 <<
	.uleb128 .Ltmp4-.Ltmp3                  #   Call between .Ltmp3 and .Ltmp4
	.uleb128 .Ltmp5-.Lfunc_begin0           #     jumps to .Ltmp5
	.byte	0                               #   On action: cleanup
	.uleb128 .Ltmp6-.Lfunc_begin0           # >> Call Site 5 <<
	.uleb128 .Ltmp7-.Ltmp6                  #   Call between .Ltmp6 and .Ltmp7
	.uleb128 .Ltmp8-.Lfunc_begin0           #     jumps to .Ltmp8
	.byte	0                               #   On action: cleanup
	.uleb128 .Ltmp7-.Lfunc_begin0           # >> Call Site 6 <<
	.uleb128 .Ltmp9-.Ltmp7                  #   Call between .Ltmp7 and .Ltmp9
	.byte	0                               #     has no landing pad
	.byte	0                               #   On action: cleanup
	.uleb128 .Ltmp9-.Lfunc_begin0           # >> Call Site 7 <<
	.uleb128 .Ltmp10-.Ltmp9                 #   Call between .Ltmp9 and .Ltmp10
	.uleb128 .Ltmp11-.Lfunc_begin0          #     jumps to .Ltmp11
	.byte	0                               #   On action: cleanup
	.uleb128 .Ltmp12-.Lfunc_begin0          # >> Call Site 8 <<
	.uleb128 .Ltmp13-.Ltmp12                #   Call between .Ltmp12 and .Ltmp13
	.uleb128 .Ltmp14-.Lfunc_begin0          #     jumps to .Ltmp14
	.byte	0                               #   On action: cleanup
	.uleb128 .Ltmp13-.Lfunc_begin0          # >> Call Site 9 <<
	.uleb128 .Ltmp15-.Ltmp13                #   Call between .Ltmp13 and .Ltmp15
	.byte	0                               #     has no landing pad
	.byte	0                               #   On action: cleanup
	.uleb128 .Ltmp15-.Lfunc_begin0          # >> Call Site 10 <<
	.uleb128 .Ltmp16-.Ltmp15                #   Call between .Ltmp15 and .Ltmp16
	.uleb128 .Ltmp17-.Lfunc_begin0          #     jumps to .Ltmp17
	.byte	0                               #   On action: cleanup
	.uleb128 .Ltmp18-.Lfunc_begin0          # >> Call Site 11 <<
	.uleb128 .Ltmp19-.Ltmp18                #   Call between .Ltmp18 and .Ltmp19
	.uleb128 .Ltmp20-.Lfunc_begin0          #     jumps to .Ltmp20
	.byte	0                               #   On action: cleanup
	.uleb128 .Ltmp19-.Lfunc_begin0          # >> Call Site 12 <<
	.uleb128 .Ltmp21-.Ltmp19                #   Call between .Ltmp19 and .Ltmp21
	.byte	0                               #     has no landing pad
	.byte	0                               #   On action: cleanup
	.uleb128 .Ltmp21-.Lfunc_begin0          # >> Call Site 13 <<
	.uleb128 .Ltmp22-.Ltmp21                #   Call between .Ltmp21 and .Ltmp22
	.uleb128 .Ltmp23-.Lfunc_begin0          #     jumps to .Ltmp23
	.byte	0                               #   On action: cleanup
	.uleb128 .Ltmp22-.Lfunc_begin0          # >> Call Site 14 <<
	.uleb128 .Lfunc_end0-.Ltmp22            #   Call between .Ltmp22 and .Lfunc_end0
	.byte	0                               #     has no landing pad
	.byte	0                               #   On action: cleanup
.Lcst_end0:
	.p2align	2, 0x0
                                        # -- End function
	.section	.text._ZN11CStringBaseIwE9TrimRightEv,"axG",@progbits,_ZN11CStringBaseIwE9TrimRightEv,comdat
	.weak	_ZN11CStringBaseIwE9TrimRightEv # -- Begin function _ZN11CStringBaseIwE9TrimRightEv
	.p2align	2
	.type	_ZN11CStringBaseIwE9TrimRightEv,@function
_ZN11CStringBaseIwE9TrimRightEv:        # @_ZN11CStringBaseIwE9TrimRightEv
.Lfunc_begin1:
	.cfi_startproc
	.cfi_personality 155, DW.ref.__gxx_personality_v0
	.cfi_lsda 27, .Lexception1
# %bb.0:                                # %entry
	addi.d	$sp, $sp, -32
	.cfi_def_cfa_offset 32
	st.d	$ra, $sp, 24                    # 8-byte Folded Spill
	st.d	$fp, $sp, 16                    # 8-byte Folded Spill
	.cfi_offset 1, -8
	.cfi_offset 22, -16
	move	$fp, $a0
	ori	$a0, $zero, 0
	lu32i.d	$a0, 4
	st.d	$a0, $sp, 8
	ori	$a0, $zero, 16
	pcaddu18i	$ra, %call36(_Znam)
	jirl	$ra, $ra, 0
	st.d	$a0, $sp, 0
	st.w	$zero, $a0, 0
.Ltmp24:                                # EH_LABEL
	addi.d	$a0, $sp, 0
	ori	$a1, $zero, 32
	pcaddu18i	$ra, %call36(_ZN11CStringBaseIwEpLEw)
	jirl	$ra, $ra, 0
.Ltmp25:                                # EH_LABEL
# %bb.1:                                # %invoke.cont.i
.Ltmp26:                                # EH_LABEL
	addi.d	$a0, $sp, 0
	ori	$a1, $zero, 10
	pcaddu18i	$ra, %call36(_ZN11CStringBaseIwEpLEw)
	jirl	$ra, $ra, 0
.Ltmp27:                                # EH_LABEL
# %bb.2:                                # %invoke.cont2.i
.Ltmp28:                                # EH_LABEL
	addi.d	$a0, $sp, 0
	ori	$a1, $zero, 9
	pcaddu18i	$ra, %call36(_ZN11CStringBaseIwEpLEw)
	jirl	$ra, $ra, 0
.Ltmp29:                                # EH_LABEL
# %bb.3:                                # %_ZN11CStringBaseIwE21GetTrimDefaultCharSetEv.exit
	ld.d	$a1, $fp, 0
	ld.w	$a4, $a1, 0
	ld.d	$a0, $sp, 0
	beqz	$a4, .LBB1_15
# %bb.4:                                # %while.body.lr.ph.i
	ld.w	$a2, $a0, 0
	move	$a5, $zero
	ori	$a3, $zero, 0
	lu32i.d	$a3, 2
	move	$a6, $a1
	b	.LBB1_7
	.p2align	4, , 16
.LBB1_5:                                # %_ZNK11CStringBaseIwE4FindEw.exit.loopexit.i
                                        #   in Loop: Header=BB1_7 Depth=1
	add.d	$t0, $a0, $t0
.LBB1_6:                                # %_ZNK11CStringBaseIwE4FindEw.exit.thread.i
                                        #   in Loop: Header=BB1_7 Depth=1
	sub.d	$a4, $t0, $a0
	and	$t0, $a4, $a3
	sltui	$t2, $t0, 1
	sltui	$t1, $a5, 1
	ld.w	$a4, $a6, 4
	masknez	$a5, $a5, $t1
	maskeqz	$a6, $a6, $t1
	or	$t1, $a6, $a5
	maskeqz	$a5, $t1, $t2
	move	$a6, $a7
	beqz	$a4, .LBB1_12
.LBB1_7:                                # %while.body.i
                                        # =>This Loop Header: Depth=1
                                        #     Child Loop BB1_9 Depth 2
	addi.d	$a7, $a6, 4
	move	$t0, $a0
	beq	$a2, $a4, .LBB1_6
# %bb.8:                                # %if.end.i.i.i.preheader
                                        #   in Loop: Header=BB1_7 Depth=1
	move	$t0, $zero
	move	$t1, $a2
	.p2align	4, , 16
.LBB1_9:                                # %if.end.i.i.i
                                        #   Parent Loop BB1_7 Depth=1
                                        # =>  This Inner Loop Header: Depth=2
	beqz	$t1, .LBB1_11
# %bb.10:                               # %if.end5.i.i.i
                                        #   in Loop: Header=BB1_9 Depth=2
	add.d	$t1, $a0, $t0
	ld.w	$t1, $t1, 4
	addi.d	$t0, $t0, 4
	bne	$t1, $a4, .LBB1_9
	b	.LBB1_5
	.p2align	4, , 16
.LBB1_11:                               # %_ZNK11CStringBaseIwE4FindEw.exit.thread.i.thread
                                        #   in Loop: Header=BB1_7 Depth=1
	ld.w	$a4, $a6, 4
	move	$a5, $zero
	move	$a6, $a7
	bnez	$a4, .LBB1_7
	b	.LBB1_15
.LBB1_12:                               # %while.end.i
	bnez	$t0, .LBB1_15
# %bb.13:                               # %if.then8.i
	ld.w	$a4, $fp, 8
	sub.d	$a3, $t1, $a1
	srli.d	$a2, $a3, 2
	sub.w	$a2, $a4, $a2
	ori	$a5, $zero, 1
	blt	$a2, $a5, .LBB1_15
# %bb.14:                               # %if.then4.i.i
	slli.d	$a0, $a4, 2
	ldx.w	$a0, $a1, $a0
	slli.d	$a3, $a3, 30
	srai.d	$a3, $a3, 32
	slli.d	$a3, $a3, 2
	stx.w	$a0, $a1, $a3
	ld.w	$a1, $fp, 8
	ld.d	$a0, $sp, 0
	sub.d	$a1, $a1, $a2
	st.w	$a1, $fp, 8
.LBB1_15:                               # %invoke.cont
	beqz	$a0, .LBB1_17
# %bb.16:                               # %delete.notnull.i
	pcaddu18i	$ra, %call36(_ZdaPv)
	jirl	$ra, $ra, 0
.LBB1_17:                               # %_ZN11CStringBaseIwED2Ev.exit
	ld.d	$fp, $sp, 16                    # 8-byte Folded Reload
	ld.d	$ra, $sp, 24                    # 8-byte Folded Reload
	addi.d	$sp, $sp, 32
	ret
.LBB1_18:                               # %lpad.i
.Ltmp30:                                # EH_LABEL
	ld.d	$a1, $sp, 0
	move	$fp, $a0
	beqz	$a1, .LBB1_20
# %bb.19:                               # %delete.notnull.i.i
	move	$a0, $a1
	pcaddu18i	$ra, %call36(_ZdaPv)
	jirl	$ra, $ra, 0
.LBB1_20:                               # %_ZN11CStringBaseIwED2Ev.exit.i
	move	$a0, $fp
	pcaddu18i	$ra, %call36(_Unwind_Resume)
	jirl	$ra, $ra, 0
.Lfunc_end1:
	.size	_ZN11CStringBaseIwE9TrimRightEv, .Lfunc_end1-_ZN11CStringBaseIwE9TrimRightEv
	.cfi_endproc
	.section	.gcc_except_table._ZN11CStringBaseIwE9TrimRightEv,"aG",@progbits,_ZN11CStringBaseIwE9TrimRightEv,comdat
	.p2align	2, 0x0
GCC_except_table1:
.Lexception1:
	.byte	255                             # @LPStart Encoding = omit
	.byte	255                             # @TType Encoding = omit
	.byte	1                               # Call site Encoding = uleb128
	.uleb128 .Lcst_end1-.Lcst_begin1
.Lcst_begin1:
	.uleb128 .Lfunc_begin1-.Lfunc_begin1    # >> Call Site 1 <<
	.uleb128 .Ltmp24-.Lfunc_begin1          #   Call between .Lfunc_begin1 and .Ltmp24
	.byte	0                               #     has no landing pad
	.byte	0                               #   On action: cleanup
	.uleb128 .Ltmp24-.Lfunc_begin1          # >> Call Site 2 <<
	.uleb128 .Ltmp29-.Ltmp24                #   Call between .Ltmp24 and .Ltmp29
	.uleb128 .Ltmp30-.Lfunc_begin1          #     jumps to .Ltmp30
	.byte	0                               #   On action: cleanup
	.uleb128 .Ltmp29-.Lfunc_begin1          # >> Call Site 3 <<
	.uleb128 .Lfunc_end1-.Ltmp29            #   Call between .Ltmp29 and .Lfunc_end1
	.byte	0                               #     has no landing pad
	.byte	0                               #   On action: cleanup
.Lcst_end1:
	.p2align	2, 0x0
                                        # -- End function
	.section	.text._ZNK11CStringBaseIwE3MidEii,"axG",@progbits,_ZNK11CStringBaseIwE3MidEii,comdat
	.weak	_ZNK11CStringBaseIwE3MidEii     # -- Begin function _ZNK11CStringBaseIwE3MidEii
	.p2align	2
	.type	_ZNK11CStringBaseIwE3MidEii,@function
_ZNK11CStringBaseIwE3MidEii:            # @_ZNK11CStringBaseIwE3MidEii
.Lfunc_begin2:
	.cfi_startproc
	.cfi_personality 155, DW.ref.__gxx_personality_v0
	.cfi_lsda 27, .Lexception2
# %bb.0:                                # %entry
	addi.d	$sp, $sp, -80
	.cfi_def_cfa_offset 80
	st.d	$ra, $sp, 72                    # 8-byte Folded Spill
	st.d	$fp, $sp, 64                    # 8-byte Folded Spill
	st.d	$s0, $sp, 56                    # 8-byte Folded Spill
	st.d	$s1, $sp, 48                    # 8-byte Folded Spill
	st.d	$s2, $sp, 40                    # 8-byte Folded Spill
	st.d	$s3, $sp, 32                    # 8-byte Folded Spill
	st.d	$s4, $sp, 24                    # 8-byte Folded Spill
	st.d	$s5, $sp, 16                    # 8-byte Folded Spill
	.cfi_offset 1, -8
	.cfi_offset 22, -16
	.cfi_offset 23, -24
	.cfi_offset 24, -32
	.cfi_offset 25, -40
	.cfi_offset 26, -48
	.cfi_offset 27, -56
	.cfi_offset 28, -64
	move	$s0, $a1
	ld.w	$s2, $a1, 8
	move	$s1, $a2
	move	$fp, $a0
	add.w	$a0, $a3, $a2
	slt	$a0, $s2, $a0
	sub.w	$a1, $s2, $a2
	maskeqz	$a1, $a1, $a0
	masknez	$a0, $a3, $a0
	or	$s4, $a1, $a0
	bnez	$a2, .LBB2_4
# %bb.1:                                # %entry
	bne	$s4, $s2, .LBB2_4
# %bb.2:                                # %if.then7
	vrepli.b	$vr0, 0
	bstrpick.d	$a0, $s2, 31, 0
	addi.d	$s1, $a0, 1
	ori	$a0, $zero, 0
	lu32i.d	$a0, 1
	and	$a0, $s1, $a0
	vst	$vr0, $fp, 0
	beqz	$a0, .LBB2_13
# %bb.3:
	move	$a0, $zero
	b	.LBB2_14
.LBB2_4:                                # %if.end8
	st.d	$zero, $fp, 8
	ori	$a0, $zero, 16
	pcaddu18i	$ra, %call36(_Znam)
	jirl	$ra, $ra, 0
	st.d	$a0, $fp, 0
	st.w	$zero, $a0, 0
	ori	$a1, $zero, 4
	addi.w	$s5, $s4, 1
	st.w	$a1, $fp, 12
	beq	$s5, $a1, .LBB2_7
# %bb.5:                                # %if.end.i
	move	$s2, $a0
	slti	$a0, $s4, -1
	slli.d	$a1, $s5, 2
	masknez	$a1, $a1, $a0
	addi.w	$a2, $zero, -1
	maskeqz	$a0, $a2, $a0
	or	$a0, $a0, $a1
.Ltmp31:                                # EH_LABEL
	pcaddu18i	$ra, %call36(_Znam)
	jirl	$ra, $ra, 0
.Ltmp32:                                # EH_LABEL
# %bb.6:                                # %_ZN11CStringBaseIwE11SetCapacityEi.exit
	move	$s3, $a0
	move	$a0, $s2
	pcaddu18i	$ra, %call36(_ZdaPv)
	jirl	$ra, $ra, 0
	move	$a0, $s3
	st.d	$s3, $fp, 0
	st.w	$zero, $s3, 0
	st.w	$s5, $fp, 12
	blez	$s4, .LBB2_12
.LBB2_7:                                # %iter.check
	ld.d	$a2, $s0, 0
	ori	$a3, $zero, 3
	alsl.d	$a1, $s1, $a2, 2
	bgeu	$a3, $s4, .LBB2_9
# %bb.8:                                # %vector.memcheck
	alsl.d	$a2, $s1, $a2, 2
	sub.d	$a2, $a0, $a2
	ori	$a3, $zero, 64
	bgeu	$a2, $a3, .LBB2_18
.LBB2_9:
	move	$a2, $zero
.LBB2_10:                               # %for.body.preheader
	slli.d	$a3, $a2, 2
	.p2align	4, , 16
.LBB2_11:                               # %for.body
                                        # =>This Inner Loop Header: Depth=1
	ldx.w	$a4, $a1, $a3
	stx.w	$a4, $a0, $a3
	addi.d	$a2, $a2, 1
	addi.d	$a3, $a3, 4
	bltu	$a2, $s4, .LBB2_11
.LBB2_12:                               # %for.cond.cleanup
	slli.d	$a1, $s4, 2
	stx.w	$zero, $a0, $a1
	b	.LBB2_17
.LBB2_13:                               # %if.end9.i.i
	addi.w	$a0, $s1, 0
	slti	$a1, $s2, -1
	slli.d	$a0, $a0, 2
	addi.w	$a2, $zero, -1
	maskeqz	$a2, $a2, $a1
	masknez	$a0, $a0, $a1
	or	$a0, $a2, $a0
	pcaddu18i	$ra, %call36(_Znam)
	jirl	$ra, $ra, 0
	st.d	$a0, $fp, 0
	st.w	$zero, $a0, 0
	st.w	$s1, $fp, 12
.LBB2_14:                               # %_ZN11CStringBaseIwE11SetCapacityEi.exit.i
	ld.d	$a1, $s0, 0
	.p2align	4, , 16
.LBB2_15:                               # %while.cond.i.i
                                        # =>This Inner Loop Header: Depth=1
	ld.w	$a2, $a1, 0
	addi.d	$a1, $a1, 4
	addi.d	$a3, $a0, 4
	st.w	$a2, $a0, 0
	move	$a0, $a3
	bnez	$a2, .LBB2_15
# %bb.16:
	move	$s4, $s2
.LBB2_17:                               # %return
	st.w	$s4, $fp, 8
	ld.d	$s5, $sp, 16                    # 8-byte Folded Reload
	ld.d	$s4, $sp, 24                    # 8-byte Folded Reload
	ld.d	$s3, $sp, 32                    # 8-byte Folded Reload
	ld.d	$s2, $sp, 40                    # 8-byte Folded Reload
	ld.d	$s1, $sp, 48                    # 8-byte Folded Reload
	ld.d	$s0, $sp, 56                    # 8-byte Folded Reload
	ld.d	$fp, $sp, 64                    # 8-byte Folded Reload
	ld.d	$ra, $sp, 72                    # 8-byte Folded Reload
	addi.d	$sp, $sp, 80
	ret
.LBB2_18:                               # %vector.main.loop.iter.check
	ori	$a2, $zero, 1
	sltu	$a3, $a2, $s4
	masknez	$a2, $a2, $a3
	maskeqz	$a3, $s4, $a3
	ori	$a4, $zero, 16
	or	$a3, $a3, $a2
	bgeu	$s4, $a4, .LBB2_20
# %bb.19:
	move	$a2, $zero
	b	.LBB2_24
.LBB2_20:                               # %vector.ph
	bstrpick.d	$a2, $a3, 30, 4
	slli.d	$a2, $a2, 4
	move	$a4, $zero
	move	$a5, $a2
	.p2align	4, , 16
.LBB2_21:                               # %vector.body
                                        # =>This Inner Loop Header: Depth=1
	add.d	$a6, $a1, $a4
	xvldx	$xr0, $a1, $a4
	xvld	$xr1, $a6, 32
	add.d	$a6, $a0, $a4
	xvstx	$xr0, $a0, $a4
	xvst	$xr1, $a6, 32
	addi.d	$a5, $a5, -16
	addi.d	$a4, $a4, 64
	bnez	$a5, .LBB2_21
# %bb.22:                               # %middle.block
	beq	$a2, $s4, .LBB2_12
# %bb.23:                               # %vec.epilog.iter.check
	andi	$a4, $a3, 12
	beqz	$a4, .LBB2_10
.LBB2_24:                               # %vec.epilog.ph
	move	$a4, $a2
	bstrpick.d	$a2, $a3, 30, 2
	slli.d	$a2, $a2, 2
	sub.d	$a3, $a4, $a2
	slli.d	$a4, $a4, 2
	.p2align	4, , 16
.LBB2_25:                               # %vec.epilog.vector.body
                                        # =>This Inner Loop Header: Depth=1
	vldx	$vr0, $a1, $a4
	vstx	$vr0, $a0, $a4
	addi.d	$a3, $a3, 4
	addi.d	$a4, $a4, 16
	bnez	$a3, .LBB2_25
# %bb.26:                               # %vec.epilog.middle.block
	bne	$a2, $s4, .LBB2_10
	b	.LBB2_12
.LBB2_27:                               # %_ZN11CStringBaseIwED2Ev.exit
.Ltmp33:                                # EH_LABEL
	move	$fp, $a0
	move	$a0, $s2
	pcaddu18i	$ra, %call36(_ZdaPv)
	jirl	$ra, $ra, 0
	move	$a0, $fp
	pcaddu18i	$ra, %call36(_Unwind_Resume)
	jirl	$ra, $ra, 0
.Lfunc_end2:
	.size	_ZNK11CStringBaseIwE3MidEii, .Lfunc_end2-_ZNK11CStringBaseIwE3MidEii
	.cfi_endproc
	.section	.gcc_except_table._ZNK11CStringBaseIwE3MidEii,"aG",@progbits,_ZNK11CStringBaseIwE3MidEii,comdat
	.p2align	2, 0x0
GCC_except_table2:
.Lexception2:
	.byte	255                             # @LPStart Encoding = omit
	.byte	255                             # @TType Encoding = omit
	.byte	1                               # Call site Encoding = uleb128
	.uleb128 .Lcst_end2-.Lcst_begin2
.Lcst_begin2:
	.uleb128 .Lfunc_begin2-.Lfunc_begin2    # >> Call Site 1 <<
	.uleb128 .Ltmp31-.Lfunc_begin2          #   Call between .Lfunc_begin2 and .Ltmp31
	.byte	0                               #     has no landing pad
	.byte	0                               #   On action: cleanup
	.uleb128 .Ltmp31-.Lfunc_begin2          # >> Call Site 2 <<
	.uleb128 .Ltmp32-.Ltmp31                #   Call between .Ltmp31 and .Ltmp32
	.uleb128 .Ltmp33-.Lfunc_begin2          #     jumps to .Ltmp33
	.byte	0                               #   On action: cleanup
	.uleb128 .Ltmp32-.Lfunc_begin2          # >> Call Site 3 <<
	.uleb128 .Lfunc_end2-.Ltmp32            #   Call between .Ltmp32 and .Lfunc_end2
	.byte	0                               #     has no landing pad
	.byte	0                               #   On action: cleanup
.Lcst_end2:
	.p2align	2, 0x0
                                        # -- End function
	.section	.text._ZN11CStringBaseIwEpLERKS0_,"axG",@progbits,_ZN11CStringBaseIwEpLERKS0_,comdat
	.weak	_ZN11CStringBaseIwEpLERKS0_     # -- Begin function _ZN11CStringBaseIwEpLERKS0_
	.p2align	2
	.type	_ZN11CStringBaseIwEpLERKS0_,@function
_ZN11CStringBaseIwEpLERKS0_:            # @_ZN11CStringBaseIwEpLERKS0_
	.cfi_startproc
# %bb.0:                                # %entry
	addi.d	$sp, $sp, -64
	.cfi_def_cfa_offset 64
	st.d	$ra, $sp, 56                    # 8-byte Folded Spill
	st.d	$fp, $sp, 48                    # 8-byte Folded Spill
	st.d	$s0, $sp, 40                    # 8-byte Folded Spill
	st.d	$s1, $sp, 32                    # 8-byte Folded Spill
	st.d	$s2, $sp, 24                    # 8-byte Folded Spill
	st.d	$s3, $sp, 16                    # 8-byte Folded Spill
	st.d	$s4, $sp, 8                     # 8-byte Folded Spill
	.cfi_offset 1, -8
	.cfi_offset 22, -16
	.cfi_offset 23, -24
	.cfi_offset 24, -32
	.cfi_offset 25, -40
	.cfi_offset 26, -48
	.cfi_offset 27, -56
	move	$fp, $a1
	ld.w	$s1, $a0, 8
	ld.w	$s4, $a0, 12
	ld.w	$a1, $a1, 8
	nor	$a2, $s1, $zero
	add.w	$a2, $s4, $a2
	bge	$a2, $a1, .LBB3_21
# %bb.1:                                # %if.end.i
	ori	$a3, $zero, 64
	slt	$a3, $a3, $s4
	bstrpick.d	$a4, $s4, 31, 1
	ori	$a5, $zero, 8
	slt	$a5, $a5, $s4
	ori	$a6, $zero, 4
	masknez	$a6, $a6, $a5
	ori	$a7, $zero, 16
	maskeqz	$a5, $a7, $a5
	or	$a5, $a5, $a6
	masknez	$a5, $a5, $a3
	maskeqz	$a3, $a4, $a3
	or	$a3, $a3, $a5
	add.w	$a4, $a3, $a2
	slt	$a4, $a4, $a1
	sub.d	$a1, $a1, $a2
	masknez	$a2, $a3, $a4
	maskeqz	$a1, $a1, $a4
	or	$a1, $a1, $a2
	add.w	$a1, $a1, $s4
	addi.w	$s2, $a1, 1
	beq	$s2, $s4, .LBB3_21
# %bb.2:                                # %if.end.i.i
	move	$s3, $a0
	slti	$a0, $a1, -1
	slli.d	$a1, $s2, 2
	masknez	$a1, $a1, $a0
	addi.w	$a2, $zero, -1
	maskeqz	$a0, $a2, $a0
	or	$a0, $a0, $a1
	pcaddu18i	$ra, %call36(_Znam)
	jirl	$ra, $ra, 0
	ori	$a2, $zero, 1
	move	$s0, $a0
	blt	$s4, $a2, .LBB3_8
# %bb.3:                                # %for.cond.preheader.i.i
	ld.d	$a0, $s3, 0
	blt	$s1, $a2, .LBB3_9
# %bb.4:                                # %iter.check
	ori	$a2, $zero, 4
	move	$a1, $zero
	bltu	$s1, $a2, .LBB3_17
# %bb.5:                                # %iter.check
	sub.d	$a2, $s0, $a0
	ori	$a3, $zero, 63
	bgeu	$a3, $a2, .LBB3_17
# %bb.6:                                # %vector.main.loop.iter.check
	ori	$a1, $zero, 16
	bgeu	$s1, $a1, .LBB3_10
# %bb.7:
	move	$a1, $zero
	b	.LBB3_14
.LBB3_8:
	move	$a1, $s3
	b	.LBB3_20
.LBB3_9:                                # %for.cond.cleanup.i.i
	move	$a1, $s3
	bnez	$a0, .LBB3_19
	b	.LBB3_20
.LBB3_10:                               # %vector.ph
	bstrpick.d	$a1, $s1, 30, 4
	slli.d	$a1, $a1, 4
	addi.d	$a2, $s0, 32
	addi.d	$a3, $a0, 32
	move	$a4, $a1
	.p2align	4, , 16
.LBB3_11:                               # %vector.body
                                        # =>This Inner Loop Header: Depth=1
	xvld	$xr0, $a3, -32
	xvld	$xr1, $a3, 0
	xvst	$xr0, $a2, -32
	xvst	$xr1, $a2, 0
	addi.d	$a4, $a4, -16
	addi.d	$a2, $a2, 64
	addi.d	$a3, $a3, 64
	bnez	$a4, .LBB3_11
# %bb.12:                               # %middle.block
	beq	$a1, $s1, .LBB3_19
# %bb.13:                               # %vec.epilog.iter.check
	andi	$a2, $s1, 12
	beqz	$a2, .LBB3_17
.LBB3_14:                               # %vec.epilog.ph
	move	$a4, $a1
	bstrpick.d	$a1, $s1, 30, 2
	slli.d	$a1, $a1, 2
	sub.d	$a2, $a4, $a1
	alsl.d	$a3, $a4, $s0, 2
	alsl.d	$a4, $a4, $a0, 2
	.p2align	4, , 16
.LBB3_15:                               # %vec.epilog.vector.body
                                        # =>This Inner Loop Header: Depth=1
	vld	$vr0, $a4, 0
	vst	$vr0, $a3, 0
	addi.d	$a2, $a2, 4
	addi.d	$a3, $a3, 16
	addi.d	$a4, $a4, 16
	bnez	$a2, .LBB3_15
# %bb.16:                               # %vec.epilog.middle.block
	beq	$a1, $s1, .LBB3_19
.LBB3_17:                               # %for.body.i.i.preheader
	sub.d	$a2, $s1, $a1
	alsl.d	$a3, $a1, $s0, 2
	alsl.d	$a1, $a1, $a0, 2
	.p2align	4, , 16
.LBB3_18:                               # %for.body.i.i
                                        # =>This Inner Loop Header: Depth=1
	ld.w	$a4, $a1, 0
	st.w	$a4, $a3, 0
	addi.d	$a2, $a2, -1
	addi.d	$a3, $a3, 4
	addi.d	$a1, $a1, 4
	bnez	$a2, .LBB3_18
.LBB3_19:                               # %delete.notnull.i.i
	pcaddu18i	$ra, %call36(_ZdaPv)
	jirl	$ra, $ra, 0
	move	$a1, $s3
	ld.w	$s1, $s3, 8
.LBB3_20:                               # %if.end9.i.i
	move	$a0, $a1
	st.d	$s0, $a1, 0
	slli.d	$a1, $s1, 2
	stx.w	$zero, $s0, $a1
	st.w	$s2, $a0, 12
.LBB3_21:                               # %_ZN11CStringBaseIwE10GrowLengthEi.exit
	ld.d	$a2, $a0, 0
	ld.d	$a1, $fp, 0
	alsl.d	$a2, $s1, $a2, 2
	.p2align	4, , 16
.LBB3_22:                               # %while.cond.i
                                        # =>This Inner Loop Header: Depth=1
	ld.w	$a3, $a1, 0
	addi.d	$a1, $a1, 4
	addi.d	$a4, $a2, 4
	st.w	$a3, $a2, 0
	move	$a2, $a4
	bnez	$a3, .LBB3_22
# %bb.23:                               # %_Z12MyStringCopyIwEPT_S1_PKS0_.exit
	ld.w	$a1, $fp, 8
	add.d	$a1, $a1, $s1
	st.w	$a1, $a0, 8
	ld.d	$s4, $sp, 8                     # 8-byte Folded Reload
	ld.d	$s3, $sp, 16                    # 8-byte Folded Reload
	ld.d	$s2, $sp, 24                    # 8-byte Folded Reload
	ld.d	$s1, $sp, 32                    # 8-byte Folded Reload
	ld.d	$s0, $sp, 40                    # 8-byte Folded Reload
	ld.d	$fp, $sp, 48                    # 8-byte Folded Reload
	ld.d	$ra, $sp, 56                    # 8-byte Folded Reload
	addi.d	$sp, $sp, 64
	ret
.Lfunc_end3:
	.size	_ZN11CStringBaseIwEpLERKS0_, .Lfunc_end3-_ZN11CStringBaseIwEpLERKS0_
	.cfi_endproc
                                        # -- End function
	.section	.text._ZN11CStringBaseIwEpLEPKw,"axG",@progbits,_ZN11CStringBaseIwEpLEPKw,comdat
	.weak	_ZN11CStringBaseIwEpLEPKw       # -- Begin function _ZN11CStringBaseIwEpLEPKw
	.p2align	2
	.type	_ZN11CStringBaseIwEpLEPKw,@function
_ZN11CStringBaseIwEpLEPKw:              # @_ZN11CStringBaseIwEpLEPKw
	.cfi_startproc
# %bb.0:                                # %entry
	addi.d	$sp, $sp, -80
	.cfi_def_cfa_offset 80
	st.d	$ra, $sp, 72                    # 8-byte Folded Spill
	st.d	$fp, $sp, 64                    # 8-byte Folded Spill
	st.d	$s0, $sp, 56                    # 8-byte Folded Spill
	st.d	$s1, $sp, 48                    # 8-byte Folded Spill
	st.d	$s2, $sp, 40                    # 8-byte Folded Spill
	st.d	$s3, $sp, 32                    # 8-byte Folded Spill
	st.d	$s4, $sp, 24                    # 8-byte Folded Spill
	st.d	$s5, $sp, 16                    # 8-byte Folded Spill
	.cfi_offset 1, -8
	.cfi_offset 22, -16
	.cfi_offset 23, -24
	.cfi_offset 24, -32
	.cfi_offset 25, -40
	.cfi_offset 26, -48
	.cfi_offset 27, -56
	.cfi_offset 28, -64
	move	$s0, $a1
	move	$fp, $a0
	move	$a0, $a1
	pcaddu18i	$ra, %call36(wcslen)
	jirl	$ra, $ra, 0
	ld.w	$s3, $fp, 8
	ld.w	$s5, $fp, 12
	move	$s1, $a0
	addi.w	$a0, $a0, 0
	nor	$a1, $s3, $zero
	add.w	$a1, $s5, $a1
	bge	$a1, $a0, .LBB4_20
# %bb.1:                                # %if.end.i
	ori	$a2, $zero, 64
	slt	$a2, $a2, $s5
	bstrpick.d	$a3, $s5, 31, 1
	ori	$a4, $zero, 8
	slt	$a4, $a4, $s5
	ori	$a5, $zero, 4
	masknez	$a5, $a5, $a4
	ori	$a6, $zero, 16
	maskeqz	$a4, $a6, $a4
	or	$a4, $a4, $a5
	masknez	$a4, $a4, $a2
	maskeqz	$a2, $a3, $a2
	or	$a2, $a2, $a4
	add.w	$a3, $a2, $a1
	slt	$a0, $a3, $a0
	sub.d	$a1, $s1, $a1
	masknez	$a2, $a2, $a0
	maskeqz	$a0, $a1, $a0
	or	$a0, $a0, $a2
	add.w	$a0, $a0, $s5
	addi.w	$s4, $a0, 1
	beq	$s4, $s5, .LBB4_20
# %bb.2:                                # %if.end.i.i
	slti	$a0, $a0, -1
	slli.d	$a1, $s4, 2
	masknez	$a1, $a1, $a0
	addi.w	$a2, $zero, -1
	maskeqz	$a0, $a2, $a0
	or	$a0, $a0, $a1
	pcaddu18i	$ra, %call36(_Znam)
	jirl	$ra, $ra, 0
	ori	$a1, $zero, 1
	move	$s2, $a0
	blt	$s5, $a1, .LBB4_19
# %bb.3:                                # %for.cond.preheader.i.i
	ld.d	$a0, $fp, 0
	blt	$s3, $a1, .LBB4_8
# %bb.4:                                # %iter.check
	ori	$a2, $zero, 4
	move	$a1, $zero
	bltu	$s3, $a2, .LBB4_16
# %bb.5:                                # %iter.check
	sub.d	$a2, $s2, $a0
	ori	$a3, $zero, 63
	bgeu	$a3, $a2, .LBB4_16
# %bb.6:                                # %vector.main.loop.iter.check
	ori	$a1, $zero, 16
	bgeu	$s3, $a1, .LBB4_9
# %bb.7:
	move	$a1, $zero
	b	.LBB4_13
.LBB4_8:                                # %for.cond.cleanup.i.i
	bnez	$a0, .LBB4_18
	b	.LBB4_19
.LBB4_9:                                # %vector.ph
	bstrpick.d	$a1, $s3, 30, 4
	slli.d	$a1, $a1, 4
	addi.d	$a2, $s2, 32
	addi.d	$a3, $a0, 32
	move	$a4, $a1
	.p2align	4, , 16
.LBB4_10:                               # %vector.body
                                        # =>This Inner Loop Header: Depth=1
	xvld	$xr0, $a3, -32
	xvld	$xr1, $a3, 0
	xvst	$xr0, $a2, -32
	xvst	$xr1, $a2, 0
	addi.d	$a4, $a4, -16
	addi.d	$a2, $a2, 64
	addi.d	$a3, $a3, 64
	bnez	$a4, .LBB4_10
# %bb.11:                               # %middle.block
	beq	$a1, $s3, .LBB4_18
# %bb.12:                               # %vec.epilog.iter.check
	andi	$a2, $s3, 12
	beqz	$a2, .LBB4_16
.LBB4_13:                               # %vec.epilog.ph
	move	$a4, $a1
	bstrpick.d	$a1, $s3, 30, 2
	slli.d	$a1, $a1, 2
	sub.d	$a2, $a4, $a1
	alsl.d	$a3, $a4, $s2, 2
	alsl.d	$a4, $a4, $a0, 2
	.p2align	4, , 16
.LBB4_14:                               # %vec.epilog.vector.body
                                        # =>This Inner Loop Header: Depth=1
	vld	$vr0, $a4, 0
	vst	$vr0, $a3, 0
	addi.d	$a2, $a2, 4
	addi.d	$a3, $a3, 16
	addi.d	$a4, $a4, 16
	bnez	$a2, .LBB4_14
# %bb.15:                               # %vec.epilog.middle.block
	beq	$a1, $s3, .LBB4_18
.LBB4_16:                               # %for.body.i.i.preheader
	sub.d	$a2, $s3, $a1
	alsl.d	$a3, $a1, $s2, 2
	alsl.d	$a1, $a1, $a0, 2
	.p2align	4, , 16
.LBB4_17:                               # %for.body.i.i
                                        # =>This Inner Loop Header: Depth=1
	ld.w	$a4, $a1, 0
	st.w	$a4, $a3, 0
	addi.d	$a2, $a2, -1
	addi.d	$a3, $a3, 4
	addi.d	$a1, $a1, 4
	bnez	$a2, .LBB4_17
.LBB4_18:                               # %delete.notnull.i.i
	pcaddu18i	$ra, %call36(_ZdaPv)
	jirl	$ra, $ra, 0
	ld.w	$s3, $fp, 8
.LBB4_19:                               # %if.end9.i.i
	st.d	$s2, $fp, 0
	slli.d	$a0, $s3, 2
	stx.w	$zero, $s2, $a0
	st.w	$s4, $fp, 12
.LBB4_20:                               # %_ZN11CStringBaseIwE10GrowLengthEi.exit
	ld.d	$a0, $fp, 0
	alsl.d	$a0, $s3, $a0, 2
	.p2align	4, , 16
.LBB4_21:                               # %while.cond.i
                                        # =>This Inner Loop Header: Depth=1
	ld.w	$a1, $s0, 0
	addi.d	$s0, $s0, 4
	addi.d	$a2, $a0, 4
	st.w	$a1, $a0, 0
	move	$a0, $a2
	bnez	$a1, .LBB4_21
# %bb.22:                               # %_Z12MyStringCopyIwEPT_S1_PKS0_.exit
	add.d	$a0, $s3, $s1
	st.w	$a0, $fp, 8
	move	$a0, $fp
	ld.d	$s5, $sp, 16                    # 8-byte Folded Reload
	ld.d	$s4, $sp, 24                    # 8-byte Folded Reload
	ld.d	$s3, $sp, 32                    # 8-byte Folded Reload
	ld.d	$s2, $sp, 40                    # 8-byte Folded Reload
	ld.d	$s1, $sp, 48                    # 8-byte Folded Reload
	ld.d	$s0, $sp, 56                    # 8-byte Folded Reload
	ld.d	$fp, $sp, 64                    # 8-byte Folded Reload
	ld.d	$ra, $sp, 72                    # 8-byte Folded Reload
	addi.d	$sp, $sp, 80
	ret
.Lfunc_end4:
	.size	_ZN11CStringBaseIwEpLEPKw, .Lfunc_end4-_ZN11CStringBaseIwEpLEPKw
	.cfi_endproc
                                        # -- End function
	.section	.text._ZN11CStringBaseIwEpLEw,"axG",@progbits,_ZN11CStringBaseIwEpLEw,comdat
	.weak	_ZN11CStringBaseIwEpLEw         # -- Begin function _ZN11CStringBaseIwEpLEw
	.p2align	2
	.type	_ZN11CStringBaseIwEpLEw,@function
_ZN11CStringBaseIwEpLEw:                # @_ZN11CStringBaseIwEpLEw
	.cfi_startproc
# %bb.0:                                # %entry
	addi.d	$sp, $sp, -80
	.cfi_def_cfa_offset 80
	st.d	$ra, $sp, 72                    # 8-byte Folded Spill
	st.d	$fp, $sp, 64                    # 8-byte Folded Spill
	st.d	$s0, $sp, 56                    # 8-byte Folded Spill
	st.d	$s1, $sp, 48                    # 8-byte Folded Spill
	st.d	$s2, $sp, 40                    # 8-byte Folded Spill
	st.d	$s3, $sp, 32                    # 8-byte Folded Spill
	st.d	$s4, $sp, 24                    # 8-byte Folded Spill
	st.d	$s5, $sp, 16                    # 8-byte Folded Spill
	.cfi_offset 1, -8
	.cfi_offset 22, -16
	.cfi_offset 23, -24
	.cfi_offset 24, -32
	.cfi_offset 25, -40
	.cfi_offset 26, -48
	.cfi_offset 27, -56
	.cfi_offset 28, -64
	ld.w	$s0, $a0, 8
	ld.w	$s4, $a0, 12
	nor	$a2, $s0, $zero
	add.w	$a2, $s4, $a2
	bgtz	$a2, .LBB5_21
# %bb.1:                                # %if.end.i
	ori	$a3, $zero, 64
	slt	$a3, $a3, $s4
	bstrpick.d	$a4, $s4, 31, 1
	ori	$a5, $zero, 8
	slt	$a5, $a5, $s4
	ori	$a6, $zero, 4
	masknez	$a6, $a6, $a5
	ori	$a7, $zero, 16
	maskeqz	$a5, $a7, $a5
	or	$a5, $a5, $a6
	masknez	$a5, $a5, $a3
	maskeqz	$a3, $a4, $a3
	or	$a3, $a3, $a5
	add.w	$a4, $a3, $a2
	slti	$a4, $a4, 1
	ori	$s5, $zero, 1
	sub.d	$a2, $s5, $a2
	masknez	$a3, $a3, $a4
	maskeqz	$a2, $a2, $a4
	or	$a2, $a2, $a3
	add.w	$a2, $a2, $s4
	addi.w	$s1, $a2, 1
	beq	$s1, $s4, .LBB5_21
# %bb.2:                                # %if.end.i.i
	move	$s2, $a1
	move	$s3, $a0
	slti	$a0, $a2, -1
	slli.d	$a1, $s1, 2
	masknez	$a1, $a1, $a0
	addi.w	$a2, $zero, -1
	maskeqz	$a0, $a2, $a0
	or	$a0, $a0, $a1
	pcaddu18i	$ra, %call36(_Znam)
	jirl	$ra, $ra, 0
	move	$fp, $a0
	blt	$s4, $s5, .LBB5_8
# %bb.3:                                # %for.cond.preheader.i.i
	ld.d	$a0, $s3, 0
	ori	$a1, $zero, 1
	blt	$s0, $a1, .LBB5_9
# %bb.4:                                # %iter.check
	ori	$a2, $zero, 4
	move	$a1, $zero
	bltu	$s0, $a2, .LBB5_17
# %bb.5:                                # %iter.check
	sub.d	$a2, $fp, $a0
	ori	$a3, $zero, 63
	bgeu	$a3, $a2, .LBB5_17
# %bb.6:                                # %vector.main.loop.iter.check
	ori	$a1, $zero, 16
	bgeu	$s0, $a1, .LBB5_10
# %bb.7:
	move	$a1, $zero
	b	.LBB5_14
.LBB5_8:
	move	$a2, $s3
	move	$a1, $s2
	b	.LBB5_20
.LBB5_9:                                # %for.cond.cleanup.i.i
	move	$a2, $s3
	move	$a1, $s2
	bnez	$a0, .LBB5_19
	b	.LBB5_20
.LBB5_10:                               # %vector.ph
	bstrpick.d	$a1, $s0, 30, 4
	slli.d	$a1, $a1, 4
	addi.d	$a2, $fp, 32
	addi.d	$a3, $a0, 32
	move	$a4, $a1
	.p2align	4, , 16
.LBB5_11:                               # %vector.body
                                        # =>This Inner Loop Header: Depth=1
	xvld	$xr0, $a3, -32
	xvld	$xr1, $a3, 0
	xvst	$xr0, $a2, -32
	xvst	$xr1, $a2, 0
	addi.d	$a4, $a4, -16
	addi.d	$a2, $a2, 64
	addi.d	$a3, $a3, 64
	bnez	$a4, .LBB5_11
# %bb.12:                               # %middle.block
	beq	$a1, $s0, .LBB5_19
# %bb.13:                               # %vec.epilog.iter.check
	andi	$a2, $s0, 12
	beqz	$a2, .LBB5_17
.LBB5_14:                               # %vec.epilog.ph
	move	$a4, $a1
	bstrpick.d	$a1, $s0, 30, 2
	slli.d	$a1, $a1, 2
	sub.d	$a2, $a4, $a1
	alsl.d	$a3, $a4, $fp, 2
	alsl.d	$a4, $a4, $a0, 2
	.p2align	4, , 16
.LBB5_15:                               # %vec.epilog.vector.body
                                        # =>This Inner Loop Header: Depth=1
	vld	$vr0, $a4, 0
	vst	$vr0, $a3, 0
	addi.d	$a2, $a2, 4
	addi.d	$a3, $a3, 16
	addi.d	$a4, $a4, 16
	bnez	$a2, .LBB5_15
# %bb.16:                               # %vec.epilog.middle.block
	beq	$a1, $s0, .LBB5_19
.LBB5_17:                               # %for.body.i.i.preheader
	sub.d	$a2, $s0, $a1
	alsl.d	$a3, $a1, $fp, 2
	alsl.d	$a1, $a1, $a0, 2
	.p2align	4, , 16
.LBB5_18:                               # %for.body.i.i
                                        # =>This Inner Loop Header: Depth=1
	ld.w	$a4, $a1, 0
	st.w	$a4, $a3, 0
	addi.d	$a2, $a2, -1
	addi.d	$a3, $a3, 4
	addi.d	$a1, $a1, 4
	bnez	$a2, .LBB5_18
.LBB5_19:                               # %delete.notnull.i.i
	pcaddu18i	$ra, %call36(_ZdaPv)
	jirl	$ra, $ra, 0
	move	$a1, $s2
	move	$a2, $s3
	ld.w	$s0, $s3, 8
.LBB5_20:                               # %if.end9.i.i
	move	$a0, $a2
	st.d	$fp, $a2, 0
	slli.d	$a2, $s0, 2
	stx.w	$zero, $fp, $a2
	st.w	$s1, $a0, 12
.LBB5_21:                               # %_ZN11CStringBaseIwE10GrowLengthEi.exit
	ld.d	$a2, $a0, 0
	slli.d	$a3, $s0, 2
	stx.w	$a1, $a2, $a3
	addi.w	$a1, $s0, 1
	st.w	$a1, $a0, 8
	slli.d	$a1, $a1, 2
	stx.w	$zero, $a2, $a1
	ld.d	$s5, $sp, 16                    # 8-byte Folded Reload
	ld.d	$s4, $sp, 24                    # 8-byte Folded Reload
	ld.d	$s3, $sp, 32                    # 8-byte Folded Reload
	ld.d	$s2, $sp, 40                    # 8-byte Folded Reload
	ld.d	$s1, $sp, 48                    # 8-byte Folded Reload
	ld.d	$s0, $sp, 56                    # 8-byte Folded Reload
	ld.d	$fp, $sp, 64                    # 8-byte Folded Reload
	ld.d	$ra, $sp, 72                    # 8-byte Folded Reload
	addi.d	$sp, $sp, 80
	ret
.Lfunc_end5:
	.size	_ZN11CStringBaseIwEpLEw, .Lfunc_end5-_ZN11CStringBaseIwEpLEw
	.cfi_endproc
                                        # -- End function
	.type	.L.str,@object                  # @.str
	.section	.rodata.str4.4,"aMS",@progbits,4
	.p2align	2, 0x0
.L.str:
	.word	126                             # 0x7e
	.word	0                               # 0x0
	.size	.L.str, 8

	.hidden	DW.ref.__gxx_personality_v0
	.weak	DW.ref.__gxx_personality_v0
	.section	.data.DW.ref.__gxx_personality_v0,"awG",@progbits,DW.ref.__gxx_personality_v0,comdat
	.p2align	3, 0x0
	.type	DW.ref.__gxx_personality_v0,@object
	.size	DW.ref.__gxx_personality_v0, 8
DW.ref.__gxx_personality_v0:
	.dword	__gxx_personality_v0
	.section	".note.GNU-stack","",@progbits
	.addrsig
	.addrsig_sym __gxx_personality_v0
	.addrsig_sym _Unwind_Resume
